; Listing generated by Microsoft (R) Optimizing Compiler Version 19.34.31942.0 

	TITLE	C:\Users\flourine\Desktop\Xantios\client-src\Code\eterImageLib\Distribute\Image.obj
	.686P
	.XMM
	include listing.inc
	.model	flat

INCLUDELIB LIBCMT
INCLUDELIB OLDNAMES

PUBLIC	??0exception@std@@QAE@ABV01@@Z			; std::exception::exception
PUBLIC	??1exception@std@@UAE@XZ			; std::exception::~exception
PUBLIC	?what@exception@std@@UBEPBDXZ			; std::exception::what
PUBLIC	??_Gexception@std@@UAEPAXI@Z			; std::exception::`scalar deleting destructor'
PUBLIC	??0bad_alloc@std@@QAE@ABV01@@Z			; std::bad_alloc::bad_alloc
PUBLIC	??_Gbad_alloc@std@@UAEPAXI@Z			; std::bad_alloc::`scalar deleting destructor'
PUBLIC	??0bad_array_new_length@std@@QAE@XZ		; std::bad_array_new_length::bad_array_new_length
PUBLIC	??1bad_array_new_length@std@@UAE@XZ		; std::bad_array_new_length::~bad_array_new_length
PUBLIC	??0bad_array_new_length@std@@QAE@ABV01@@Z	; std::bad_array_new_length::bad_array_new_length
PUBLIC	??_Gbad_array_new_length@std@@UAEPAXI@Z		; std::bad_array_new_length::`scalar deleting destructor'
PUBLIC	?_Throw_bad_array_new_length@std@@YAXXZ		; std::_Throw_bad_array_new_length
PUBLIC	?_Xlen_string@std@@YAXXZ			; std::_Xlen_string
PUBLIC	??1?$basic_string@DU?$char_traits@D@std@@V?$allocator@D@2@@std@@QAE@XZ ; std::basic_string<char,std::char_traits<char>,std::allocator<char> >::~basic_string<char,std::char_traits<char>,std::allocator<char> >
PUBLIC	??0CImage@@QAE@XZ				; CImage::CImage
PUBLIC	??0CImage@@QAE@AAV0@@Z				; CImage::CImage
PUBLIC	??1CImage@@UAE@XZ				; CImage::~CImage
PUBLIC	?Destroy@CImage@@QAEXXZ				; CImage::Destroy
PUBLIC	?Create@CImage@@QAEXHH@Z			; CImage::Create
PUBLIC	?Clear@CImage@@QAEXK@Z				; CImage::Clear
PUBLIC	?GetWidth@CImage@@QBEHXZ			; CImage::GetWidth
PUBLIC	?GetHeight@CImage@@QBEHXZ			; CImage::GetHeight
PUBLIC	?GetBasePointer@CImage@@QAEPAKXZ		; CImage::GetBasePointer
PUBLIC	?GetLinePointer@CImage@@QAEPAKH@Z		; CImage::GetLinePointer
PUBLIC	?PutImage@CImage@@QAEXHHPAV1@@Z			; CImage::PutImage
PUBLIC	?FlipTopToBottom@CImage@@QAEXXZ			; CImage::FlipTopToBottom
PUBLIC	?SetFileName@CImage@@QAEXPBD@Z			; CImage::SetFileName
PUBLIC	?GetFileNameString@CImage@@QAEABV?$basic_string@DU?$char_traits@D@std@@V?$allocator@D@2@@std@@XZ ; CImage::GetFileNameString
PUBLIC	?IsEmpty@CImage@@QBE_NXZ			; CImage::IsEmpty
PUBLIC	?Initialize@CImage@@IAEXXZ			; CImage::Initialize
PUBLIC	??_GCImage@@UAEPAXI@Z				; CImage::`scalar deleting destructor'
PUBLIC	??$_Allocate_manually_vector_aligned@U_Default_allocate_traits@std@@@std@@YAPAXI@Z ; std::_Allocate_manually_vector_aligned<std::_Default_allocate_traits>
PUBLIC	??_7exception@std@@6B@				; std::exception::`vftable'
PUBLIC	??_C@_0BC@EOODALEL@Unknown?5exception@		; `string'
PUBLIC	??_7bad_alloc@std@@6B@				; std::bad_alloc::`vftable'
PUBLIC	??_7bad_array_new_length@std@@6B@		; std::bad_array_new_length::`vftable'
PUBLIC	??_C@_0BF@KINCDENJ@bad?5array?5new?5length@	; `string'
PUBLIC	__TI3?AVbad_array_new_length@std@@
PUBLIC	__CTA3?AVbad_array_new_length@std@@
PUBLIC	??_R0?AVbad_array_new_length@std@@@8		; std::bad_array_new_length `RTTI Type Descriptor'
PUBLIC	__CT??_R0?AVbad_array_new_length@std@@@8??0bad_array_new_length@std@@QAE@ABV01@@Z12
PUBLIC	??_R0?AVbad_alloc@std@@@8			; std::bad_alloc `RTTI Type Descriptor'
PUBLIC	__CT??_R0?AVbad_alloc@std@@@8??0bad_alloc@std@@QAE@ABV01@@Z12
PUBLIC	??_R0?AVexception@std@@@8			; std::exception `RTTI Type Descriptor'
PUBLIC	__CT??_R0?AVexception@std@@@8??0exception@std@@QAE@ABV01@@Z12
PUBLIC	??_C@_0BA@JFNIOLAK@string?5too?5long@		; `string'
PUBLIC	??_7CImage@@6B@					; CImage::`vftable'
PUBLIC	??_R4exception@std@@6B@				; std::exception::`RTTI Complete Object Locator'
PUBLIC	??_R3exception@std@@8				; std::exception::`RTTI Class Hierarchy Descriptor'
PUBLIC	??_R2exception@std@@8				; std::exception::`RTTI Base Class Array'
PUBLIC	??_R1A@?0A@EA@exception@std@@8			; std::exception::`RTTI Base Class Descriptor at (0,-1,0,64)'
PUBLIC	??_R4bad_alloc@std@@6B@				; std::bad_alloc::`RTTI Complete Object Locator'
PUBLIC	??_R3bad_alloc@std@@8				; std::bad_alloc::`RTTI Class Hierarchy Descriptor'
PUBLIC	??_R2bad_alloc@std@@8				; std::bad_alloc::`RTTI Base Class Array'
PUBLIC	??_R1A@?0A@EA@bad_alloc@std@@8			; std::bad_alloc::`RTTI Base Class Descriptor at (0,-1,0,64)'
PUBLIC	??_R4bad_array_new_length@std@@6B@		; std::bad_array_new_length::`RTTI Complete Object Locator'
PUBLIC	??_R3bad_array_new_length@std@@8		; std::bad_array_new_length::`RTTI Class Hierarchy Descriptor'
PUBLIC	??_R2bad_array_new_length@std@@8		; std::bad_array_new_length::`RTTI Base Class Array'
PUBLIC	??_R1A@?0A@EA@bad_array_new_length@std@@8	; std::bad_array_new_length::`RTTI Base Class Descriptor at (0,-1,0,64)'
PUBLIC	??_R4CImage@@6B@				; CImage::`RTTI Complete Object Locator'
PUBLIC	??_R0?AVCImage@@@8				; CImage `RTTI Type Descriptor'
PUBLIC	??_R3CImage@@8					; CImage::`RTTI Class Hierarchy Descriptor'
PUBLIC	??_R2CImage@@8					; CImage::`RTTI Base Class Array'
PUBLIC	??_R1A@?0A@EA@CImage@@8				; CImage::`RTTI Base Class Descriptor at (0,-1,0,64)'
EXTRN	??2@YAPAXI@Z:PROC				; operator new
EXTRN	??3@YAXPAXI@Z:PROC				; operator delete
EXTRN	??_U@YAPAXI@Z:PROC				; operator new[]
EXTRN	??_V@YAXPAX@Z:PROC				; operator delete[]
EXTRN	__invalid_parameter_noinfo_noreturn:PROC
EXTRN	___std_exception_copy:PROC
EXTRN	___std_exception_destroy:PROC
EXTRN	??_Eexception@std@@UAEPAXI@Z:PROC		; std::exception::`vector deleting destructor'
EXTRN	??_Ebad_alloc@std@@UAEPAXI@Z:PROC		; std::bad_alloc::`vector deleting destructor'
EXTRN	??_Ebad_array_new_length@std@@UAEPAXI@Z:PROC	; std::bad_array_new_length::`vector deleting destructor'
EXTRN	?_Xlength_error@std@@YAXPBD@Z:PROC		; std::_Xlength_error
EXTRN	??_ECImage@@UAEPAXI@Z:PROC			; CImage::`vector deleting destructor'
EXTRN	@__security_check_cookie@4:PROC
EXTRN	__CxxThrowException@8:PROC
EXTRN	___CxxFrameHandler3:PROC
EXTRN	_memcpy:PROC
EXTRN	_memmove:PROC
EXTRN	??_7type_info@@6B@:QWORD			; type_info::`vftable'
EXTRN	___security_cookie:DWORD
;	COMDAT ??_R1A@?0A@EA@CImage@@8
rdata$r	SEGMENT
??_R1A@?0A@EA@CImage@@8 DD FLAT:??_R0?AVCImage@@@8	; CImage::`RTTI Base Class Descriptor at (0,-1,0,64)'
	DD	00H
	DD	00H
	DD	0ffffffffH
	DD	00H
	DD	040H
	DD	FLAT:??_R3CImage@@8
rdata$r	ENDS
;	COMDAT ??_R2CImage@@8
rdata$r	SEGMENT
??_R2CImage@@8 DD FLAT:??_R1A@?0A@EA@CImage@@8		; CImage::`RTTI Base Class Array'
rdata$r	ENDS
;	COMDAT ??_R3CImage@@8
rdata$r	SEGMENT
??_R3CImage@@8 DD 00H					; CImage::`RTTI Class Hierarchy Descriptor'
	DD	00H
	DD	01H
	DD	FLAT:??_R2CImage@@8
rdata$r	ENDS
;	COMDAT ??_R0?AVCImage@@@8
data$rs	SEGMENT
??_R0?AVCImage@@@8 DD FLAT:??_7type_info@@6B@		; CImage `RTTI Type Descriptor'
	DD	00H
	DB	'.?AVCImage@@', 00H
data$rs	ENDS
;	COMDAT ??_R4CImage@@6B@
rdata$r	SEGMENT
??_R4CImage@@6B@ DD 00H					; CImage::`RTTI Complete Object Locator'
	DD	00H
	DD	00H
	DD	FLAT:??_R0?AVCImage@@@8
	DD	FLAT:??_R3CImage@@8
rdata$r	ENDS
;	COMDAT ??_R1A@?0A@EA@bad_array_new_length@std@@8
rdata$r	SEGMENT
??_R1A@?0A@EA@bad_array_new_length@std@@8 DD FLAT:??_R0?AVbad_array_new_length@std@@@8 ; std::bad_array_new_length::`RTTI Base Class Descriptor at (0,-1,0,64)'
	DD	02H
	DD	00H
	DD	0ffffffffH
	DD	00H
	DD	040H
	DD	FLAT:??_R3bad_array_new_length@std@@8
rdata$r	ENDS
;	COMDAT ??_R2bad_array_new_length@std@@8
rdata$r	SEGMENT
??_R2bad_array_new_length@std@@8 DD FLAT:??_R1A@?0A@EA@bad_array_new_length@std@@8 ; std::bad_array_new_length::`RTTI Base Class Array'
	DD	FLAT:??_R1A@?0A@EA@bad_alloc@std@@8
	DD	FLAT:??_R1A@?0A@EA@exception@std@@8
rdata$r	ENDS
;	COMDAT ??_R3bad_array_new_length@std@@8
rdata$r	SEGMENT
??_R3bad_array_new_length@std@@8 DD 00H			; std::bad_array_new_length::`RTTI Class Hierarchy Descriptor'
	DD	00H
	DD	03H
	DD	FLAT:??_R2bad_array_new_length@std@@8
rdata$r	ENDS
;	COMDAT ??_R4bad_array_new_length@std@@6B@
rdata$r	SEGMENT
??_R4bad_array_new_length@std@@6B@ DD 00H		; std::bad_array_new_length::`RTTI Complete Object Locator'
	DD	00H
	DD	00H
	DD	FLAT:??_R0?AVbad_array_new_length@std@@@8
	DD	FLAT:??_R3bad_array_new_length@std@@8
rdata$r	ENDS
;	COMDAT ??_R1A@?0A@EA@bad_alloc@std@@8
rdata$r	SEGMENT
??_R1A@?0A@EA@bad_alloc@std@@8 DD FLAT:??_R0?AVbad_alloc@std@@@8 ; std::bad_alloc::`RTTI Base Class Descriptor at (0,-1,0,64)'
	DD	01H
	DD	00H
	DD	0ffffffffH
	DD	00H
	DD	040H
	DD	FLAT:??_R3bad_alloc@std@@8
rdata$r	ENDS
;	COMDAT ??_R2bad_alloc@std@@8
rdata$r	SEGMENT
??_R2bad_alloc@std@@8 DD FLAT:??_R1A@?0A@EA@bad_alloc@std@@8 ; std::bad_alloc::`RTTI Base Class Array'
	DD	FLAT:??_R1A@?0A@EA@exception@std@@8
rdata$r	ENDS
;	COMDAT ??_R3bad_alloc@std@@8
rdata$r	SEGMENT
??_R3bad_alloc@std@@8 DD 00H				; std::bad_alloc::`RTTI Class Hierarchy Descriptor'
	DD	00H
	DD	02H
	DD	FLAT:??_R2bad_alloc@std@@8
rdata$r	ENDS
;	COMDAT ??_R4bad_alloc@std@@6B@
rdata$r	SEGMENT
??_R4bad_alloc@std@@6B@ DD 00H				; std::bad_alloc::`RTTI Complete Object Locator'
	DD	00H
	DD	00H
	DD	FLAT:??_R0?AVbad_alloc@std@@@8
	DD	FLAT:??_R3bad_alloc@std@@8
rdata$r	ENDS
;	COMDAT ??_R1A@?0A@EA@exception@std@@8
rdata$r	SEGMENT
??_R1A@?0A@EA@exception@std@@8 DD FLAT:??_R0?AVexception@std@@@8 ; std::exception::`RTTI Base Class Descriptor at (0,-1,0,64)'
	DD	00H
	DD	00H
	DD	0ffffffffH
	DD	00H
	DD	040H
	DD	FLAT:??_R3exception@std@@8
rdata$r	ENDS
;	COMDAT ??_R2exception@std@@8
rdata$r	SEGMENT
??_R2exception@std@@8 DD FLAT:??_R1A@?0A@EA@exception@std@@8 ; std::exception::`RTTI Base Class Array'
rdata$r	ENDS
;	COMDAT ??_R3exception@std@@8
rdata$r	SEGMENT
??_R3exception@std@@8 DD 00H				; std::exception::`RTTI Class Hierarchy Descriptor'
	DD	00H
	DD	01H
	DD	FLAT:??_R2exception@std@@8
rdata$r	ENDS
;	COMDAT ??_R4exception@std@@6B@
rdata$r	SEGMENT
??_R4exception@std@@6B@ DD 00H				; std::exception::`RTTI Complete Object Locator'
	DD	00H
	DD	00H
	DD	FLAT:??_R0?AVexception@std@@@8
	DD	FLAT:??_R3exception@std@@8
rdata$r	ENDS
;	COMDAT ??_7CImage@@6B@
CONST	SEGMENT
??_7CImage@@6B@ DD FLAT:??_R4CImage@@6B@		; CImage::`vftable'
	DD	FLAT:??_ECImage@@UAEPAXI@Z
CONST	ENDS
;	COMDAT ??_C@_0BA@JFNIOLAK@string?5too?5long@
CONST	SEGMENT
??_C@_0BA@JFNIOLAK@string?5too?5long@ DB 'string too long', 00H ; `string'
CONST	ENDS
;	COMDAT __CT??_R0?AVexception@std@@@8??0exception@std@@QAE@ABV01@@Z12
xdata$x	SEGMENT
__CT??_R0?AVexception@std@@@8??0exception@std@@QAE@ABV01@@Z12 DD 00H
	DD	FLAT:??_R0?AVexception@std@@@8
	DD	00H
	DD	0ffffffffH
	ORG $+4
	DD	0cH
	DD	FLAT:??0exception@std@@QAE@ABV01@@Z
xdata$x	ENDS
;	COMDAT ??_R0?AVexception@std@@@8
data$r	SEGMENT
??_R0?AVexception@std@@@8 DD FLAT:??_7type_info@@6B@	; std::exception `RTTI Type Descriptor'
	DD	00H
	DB	'.?AVexception@std@@', 00H
data$r	ENDS
;	COMDAT __CT??_R0?AVbad_alloc@std@@@8??0bad_alloc@std@@QAE@ABV01@@Z12
xdata$x	SEGMENT
__CT??_R0?AVbad_alloc@std@@@8??0bad_alloc@std@@QAE@ABV01@@Z12 DD 010H
	DD	FLAT:??_R0?AVbad_alloc@std@@@8
	DD	00H
	DD	0ffffffffH
	ORG $+4
	DD	0cH
	DD	FLAT:??0bad_alloc@std@@QAE@ABV01@@Z
xdata$x	ENDS
;	COMDAT ??_R0?AVbad_alloc@std@@@8
data$r	SEGMENT
??_R0?AVbad_alloc@std@@@8 DD FLAT:??_7type_info@@6B@	; std::bad_alloc `RTTI Type Descriptor'
	DD	00H
	DB	'.?AVbad_alloc@std@@', 00H
data$r	ENDS
;	COMDAT __CT??_R0?AVbad_array_new_length@std@@@8??0bad_array_new_length@std@@QAE@ABV01@@Z12
xdata$x	SEGMENT
__CT??_R0?AVbad_array_new_length@std@@@8??0bad_array_new_length@std@@QAE@ABV01@@Z12 DD 00H
	DD	FLAT:??_R0?AVbad_array_new_length@std@@@8
	DD	00H
	DD	0ffffffffH
	ORG $+4
	DD	0cH
	DD	FLAT:??0bad_array_new_length@std@@QAE@ABV01@@Z
xdata$x	ENDS
;	COMDAT ??_R0?AVbad_array_new_length@std@@@8
data$r	SEGMENT
??_R0?AVbad_array_new_length@std@@@8 DD FLAT:??_7type_info@@6B@ ; std::bad_array_new_length `RTTI Type Descriptor'
	DD	00H
	DB	'.?AVbad_array_new_length@std@@', 00H
data$r	ENDS
;	COMDAT __CTA3?AVbad_array_new_length@std@@
xdata$x	SEGMENT
__CTA3?AVbad_array_new_length@std@@ DD 03H
	DD	FLAT:__CT??_R0?AVbad_array_new_length@std@@@8??0bad_array_new_length@std@@QAE@ABV01@@Z12
	DD	FLAT:__CT??_R0?AVbad_alloc@std@@@8??0bad_alloc@std@@QAE@ABV01@@Z12
	DD	FLAT:__CT??_R0?AVexception@std@@@8??0exception@std@@QAE@ABV01@@Z12
xdata$x	ENDS
;	COMDAT __TI3?AVbad_array_new_length@std@@
xdata$x	SEGMENT
__TI3?AVbad_array_new_length@std@@ DD 00H
	DD	FLAT:??1bad_array_new_length@std@@UAE@XZ
	DD	00H
	DD	FLAT:__CTA3?AVbad_array_new_length@std@@
xdata$x	ENDS
;	COMDAT ??_C@_0BF@KINCDENJ@bad?5array?5new?5length@
CONST	SEGMENT
??_C@_0BF@KINCDENJ@bad?5array?5new?5length@ DB 'bad array new length', 00H ; `string'
CONST	ENDS
;	COMDAT ??_7bad_array_new_length@std@@6B@
CONST	SEGMENT
??_7bad_array_new_length@std@@6B@ DD FLAT:??_R4bad_array_new_length@std@@6B@ ; std::bad_array_new_length::`vftable'
	DD	FLAT:??_Ebad_array_new_length@std@@UAEPAXI@Z
	DD	FLAT:?what@exception@std@@UBEPBDXZ
CONST	ENDS
;	COMDAT ??_7bad_alloc@std@@6B@
CONST	SEGMENT
??_7bad_alloc@std@@6B@ DD FLAT:??_R4bad_alloc@std@@6B@	; std::bad_alloc::`vftable'
	DD	FLAT:??_Ebad_alloc@std@@UAEPAXI@Z
	DD	FLAT:?what@exception@std@@UBEPBDXZ
CONST	ENDS
;	COMDAT ??_C@_0BC@EOODALEL@Unknown?5exception@
CONST	SEGMENT
??_C@_0BC@EOODALEL@Unknown?5exception@ DB 'Unknown exception', 00H ; `string'
CONST	ENDS
;	COMDAT ??_7exception@std@@6B@
CONST	SEGMENT
??_7exception@std@@6B@ DD FLAT:??_R4exception@std@@6B@	; std::exception::`vftable'
	DD	FLAT:??_Eexception@std@@UAEPAXI@Z
	DD	FLAT:?what@exception@std@@UBEPBDXZ
CONST	ENDS
;	COMDAT xdata$x
xdata$x	SEGMENT
__unwindtable$??0CImage@@QAE@AAV0@@Z DD 0ffffffffH
	DD	FLAT:__unwindfunclet$??0CImage@@QAE@AAV0@@Z$0
__ehfuncinfo$??0CImage@@QAE@AAV0@@Z DD 019930522H
	DD	01H
	DD	FLAT:__unwindtable$??0CImage@@QAE@AAV0@@Z
	DD	2 DUP(00H)
	DD	2 DUP(00H)
	DD	00H
	DD	01H
xdata$x	ENDS
; Function compile flags: /Ogtp
; File C:\Program Files\Microsoft Visual Studio\2022\Community\VC\Tools\MSVC\14.34.31933\include\xmemory
;	COMDAT ??$_Allocate_manually_vector_aligned@U_Default_allocate_traits@std@@@std@@YAPAXI@Z
_TEXT	SEGMENT
__Bytes$ = 8						; size = 4
??$_Allocate_manually_vector_aligned@U_Default_allocate_traits@std@@@std@@YAPAXI@Z PROC ; std::_Allocate_manually_vector_aligned<std::_Default_allocate_traits>, COMDAT

; 127  : __declspec(allocator) void* _Allocate_manually_vector_aligned(const size_t _Bytes) {

  00000	55		 push	 ebp
  00001	8b ec		 mov	 ebp, esp

; 128  :     // allocate _Bytes manually aligned to at least _Big_allocation_alignment
; 129  :     const size_t _Block_size = _Non_user_size + _Bytes;

  00003	8b 45 08	 mov	 eax, DWORD PTR __Bytes$[ebp]
  00006	8d 48 23	 lea	 ecx, DWORD PTR [eax+35]

; 130  :     if (_Block_size <= _Bytes) {

  00009	3b c8		 cmp	 ecx, eax
  0000b	0f 86 00 00 00
	00		 jbe	 ?_Throw_bad_array_new_length@std@@YAXXZ ; std::_Throw_bad_array_new_length

; 77   :         return ::operator new(_Bytes);

  00011	51		 push	 ecx
  00012	e8 00 00 00 00	 call	 ??2@YAPAXI@Z		; operator new

; 131  :         _Throw_bad_array_new_length(); // add overflow
; 132  :     }
; 133  : 
; 134  :     const uintptr_t _Ptr_container = reinterpret_cast<uintptr_t>(_Traits::_Allocate(_Block_size));

  00017	8b c8		 mov	 ecx, eax

; 77   :         return ::operator new(_Bytes);

  00019	83 c4 04	 add	 esp, 4

; 135  :     _STL_VERIFY(_Ptr_container != 0, "invalid argument"); // validate even in release since we're doing p[-1]

  0001c	85 c9		 test	 ecx, ecx
  0001e	74 0b		 je	 SHORT $LN7@Allocate_m

; 136  :     void* const _Ptr = reinterpret_cast<void*>((_Ptr_container + _Non_user_size) & ~(_Big_allocation_alignment - 1));

  00020	8d 41 23	 lea	 eax, DWORD PTR [ecx+35]
  00023	83 e0 e0	 and	 eax, -32		; ffffffe0H

; 137  :     static_cast<uintptr_t*>(_Ptr)[-1] = _Ptr_container;

  00026	89 48 fc	 mov	 DWORD PTR [eax-4], ecx

; 138  : 
; 139  : #ifdef _DEBUG
; 140  :     static_cast<uintptr_t*>(_Ptr)[-2] = _Big_allocation_sentinel;
; 141  : #endif // _DEBUG
; 142  :     return _Ptr;
; 143  : }

  00029	5d		 pop	 ebp
  0002a	c3		 ret	 0
$LN7@Allocate_m:

; 135  :     _STL_VERIFY(_Ptr_container != 0, "invalid argument"); // validate even in release since we're doing p[-1]

  0002b	e9 00 00 00 00	 jmp	 __invalid_parameter_noinfo_noreturn
??$_Allocate_manually_vector_aligned@U_Default_allocate_traits@std@@@std@@YAPAXI@Z ENDP ; std::_Allocate_manually_vector_aligned<std::_Default_allocate_traits>
_TEXT	ENDS
; Function compile flags: /Ogtp
;	COMDAT ??_GCImage@@UAEPAXI@Z
_TEXT	SEGMENT
___flags$ = 8						; size = 4
??_GCImage@@UAEPAXI@Z PROC				; CImage::`scalar deleting destructor', COMDAT
; _this$ = ecx
  00000	55		 push	 ebp
  00001	8b ec		 mov	 ebp, esp
  00003	56		 push	 esi
  00004	8b f1		 mov	 esi, ecx
  00006	e8 00 00 00 00	 call	 ??1CImage@@UAE@XZ	; CImage::~CImage
  0000b	f6 45 08 01	 test	 BYTE PTR ___flags$[ebp], 1
  0000f	74 0b		 je	 SHORT $LN4@scalar
  00011	6a 28		 push	 40			; 00000028H
  00013	56		 push	 esi
  00014	e8 00 00 00 00	 call	 ??3@YAXPAXI@Z		; operator delete
  00019	83 c4 08	 add	 esp, 8
$LN4@scalar:
  0001c	8b c6		 mov	 eax, esi
  0001e	5e		 pop	 esi
  0001f	5d		 pop	 ebp
  00020	c2 04 00	 ret	 4
??_GCImage@@UAEPAXI@Z ENDP				; CImage::`scalar deleting destructor'
_TEXT	ENDS
; Function compile flags: /Ogtp
; File C:\Users\flourine\Desktop\Xantios\client-src\Code\eterImageLib\Image.cpp
;	COMDAT ?Initialize@CImage@@IAEXXZ
_TEXT	SEGMENT
?Initialize@CImage@@IAEXXZ PROC				; CImage::Initialize, COMDAT
; _this$ = ecx

; 104  : 	m_pdwColors = NULL;

  00000	c7 41 04 00 00
	00 00		 mov	 DWORD PTR [ecx+4], 0

; 105  : 	m_width = 0;

  00007	c7 41 08 00 00
	00 00		 mov	 DWORD PTR [ecx+8], 0

; 106  : 	m_height = 0;

  0000e	c7 41 0c 00 00
	00 00		 mov	 DWORD PTR [ecx+12], 0

; 107  : }

  00015	c3		 ret	 0
?Initialize@CImage@@IAEXXZ ENDP				; CImage::Initialize
_TEXT	ENDS
; Function compile flags: /Ogtp
; File C:\Users\flourine\Desktop\Xantios\client-src\Code\eterImageLib\Image.cpp
;	COMDAT ?IsEmpty@CImage@@QBE_NXZ
_TEXT	SEGMENT
?IsEmpty@CImage@@QBE_NXZ PROC				; CImage::IsEmpty, COMDAT
; _this$ = ecx

; 111  : 	return (m_pdwColors == NULL) ? true : false;

  00000	83 79 04 00	 cmp	 DWORD PTR [ecx+4], 0
  00004	0f 94 c0	 sete	 al

; 112  : }

  00007	c3		 ret	 0
?IsEmpty@CImage@@QBE_NXZ ENDP				; CImage::IsEmpty
_TEXT	ENDS
; Function compile flags: /Ogtp
; File C:\Users\flourine\Desktop\Xantios\client-src\Code\eterImageLib\Image.cpp
;	COMDAT ?GetFileNameString@CImage@@QAEABV?$basic_string@DU?$char_traits@D@std@@V?$allocator@D@2@@std@@XZ
_TEXT	SEGMENT
?GetFileNameString@CImage@@QAEABV?$basic_string@DU?$char_traits@D@std@@V?$allocator@D@2@@std@@XZ PROC ; CImage::GetFileNameString, COMDAT
; _this$ = ecx

; 28   : 	return m_stFileName;

  00000	8d 41 10	 lea	 eax, DWORD PTR [ecx+16]

; 29   : }

  00003	c3		 ret	 0
?GetFileNameString@CImage@@QAEABV?$basic_string@DU?$char_traits@D@std@@V?$allocator@D@2@@std@@XZ ENDP ; CImage::GetFileNameString
_TEXT	ENDS
; Function compile flags: /Ogtp
; File C:\Users\flourine\Desktop\Xantios\client-src\Code\eterImageLib\Image.cpp
; File C:\Program Files\Microsoft Visual Studio\2022\Community\VC\Tools\MSVC\14.34.31933\include\xstring
; File C:\Users\flourine\Desktop\Xantios\client-src\Code\eterImageLib\Image.cpp
; File C:\Program Files\Microsoft Visual Studio\2022\Community\VC\Tools\MSVC\14.34.31933\include\xstring
; File C:\Users\flourine\Desktop\Xantios\client-src\Code\eterImageLib\Image.cpp
; File C:\Program Files\Microsoft Visual Studio\2022\Community\VC\Tools\MSVC\14.34.31933\include\xstring
; File C:\Users\flourine\Desktop\Xantios\client-src\Code\eterImageLib\Image.cpp
; File C:\Program Files\Microsoft Visual Studio\2022\Community\VC\Tools\MSVC\14.34.31933\include\xstring
; File C:\Program Files\Microsoft Visual Studio\2022\Community\VC\Tools\MSVC\14.34.31933\include\xmemory
; File C:\Program Files\Microsoft Visual Studio\2022\Community\VC\Tools\MSVC\14.34.31933\include\xstring
; File C:\Program Files\Microsoft Visual Studio\2022\Community\VC\Tools\MSVC\14.34.31933\include\xmemory
; File C:\Program Files\Microsoft Visual Studio\2022\Community\VC\Tools\MSVC\14.34.31933\include\xstring
; File C:\Program Files\Microsoft Visual Studio\2022\Community\VC\Tools\MSVC\14.34.31933\include\utility
; File C:\Program Files\Microsoft Visual Studio\2022\Community\VC\Tools\MSVC\14.34.31933\include\xstring
; File C:\Program Files\Microsoft Visual Studio\2022\Community\VC\Tools\MSVC\14.34.31933\include\xmemory
; File C:\Program Files\Microsoft Visual Studio\2022\Community\VC\Tools\MSVC\14.34.31933\include\xstring
; File C:\Program Files\Microsoft Visual Studio\2022\Community\VC\Tools\MSVC\14.34.31933\include\xmemory
; File C:\Users\flourine\Desktop\Xantios\client-src\Code\eterImageLib\Image.cpp
; File C:\Program Files\Microsoft Visual Studio\2022\Community\VC\Tools\MSVC\14.34.31933\include\xmemory
; File C:\Program Files\Microsoft Visual Studio\2022\Community\VC\Tools\MSVC\14.34.31933\include\xstring
; File C:\Users\flourine\Desktop\Xantios\client-src\Code\eterImageLib\Image.cpp
;	COMDAT ?SetFileName@CImage@@QAEXPBD@Z
_TEXT	SEGMENT
$T1 = -8						; size = 4
$T2 = -4						; size = 4
_c_szFileName$ = 8					; size = 4
?SetFileName@CImage@@QAEXPBD@Z PROC			; CImage::SetFileName, COMDAT
; _this$ = ecx

; 22   : {

  00000	55		 push	 ebp
  00001	8b ec		 mov	 ebp, esp
; File C:\Program Files\Microsoft Visual Studio\2022\Community\VC\Tools\MSVC\14.34.31933\include\xstring

; 415  :             return __builtin_strlen(_First);

  00003	8b 55 08	 mov	 edx, DWORD PTR _c_szFileName$[ebp]
; File C:\Users\flourine\Desktop\Xantios\client-src\Code\eterImageLib\Image.cpp

; 22   : {

  00006	83 ec 08	 sub	 esp, 8
  00009	53		 push	 ebx
  0000a	56		 push	 esi
; File C:\Program Files\Microsoft Visual Studio\2022\Community\VC\Tools\MSVC\14.34.31933\include\xstring

; 415  :             return __builtin_strlen(_First);

  0000b	8b f2		 mov	 esi, edx
; File C:\Users\flourine\Desktop\Xantios\client-src\Code\eterImageLib\Image.cpp

; 23   : 	m_stFileName = c_szFileName;

  0000d	8d 59 10	 lea	 ebx, DWORD PTR [ecx+16]
  00010	57		 push	 edi
; File C:\Program Files\Microsoft Visual Studio\2022\Community\VC\Tools\MSVC\14.34.31933\include\xstring

; 415  :             return __builtin_strlen(_First);

  00011	8d 4e 01	 lea	 ecx, DWORD PTR [esi+1]
$LL67@SetFileNam:
  00014	8a 06		 mov	 al, BYTE PTR [esi]
  00016	46		 inc	 esi
  00017	84 c0		 test	 al, al
  00019	75 f9		 jne	 SHORT $LL67@SetFileNam
  0001b	2b f1		 sub	 esi, ecx

; 3530 :         if (_Count <= _Mypair._Myval2._Myres) {

  0001d	8b 4b 14	 mov	 ecx, DWORD PTR [ebx+20]
  00020	89 4d f8	 mov	 DWORD PTR $T1[ebp], ecx
  00023	3b f1		 cmp	 esi, ecx
  00025	77 24		 ja	 SHORT $LN10@SetFileNam

; 2283 :         value_type* _Result = _Bx._Buf;

  00027	8b fb		 mov	 edi, ebx

; 2301 :         return _BUF_SIZE <= _Myres;

  00029	83 f9 10	 cmp	 ecx, 16			; 00000010H

; 2284 :         if (_Large_string_engaged()) {

  0002c	72 02		 jb	 SHORT $LN13@SetFileNam

; 2285 :             _Result = _Unfancy(_Bx._Ptr);

  0002e	8b 3b		 mov	 edi, DWORD PTR [ebx]
$LN13@SetFileNam:

; 117  :         _CSTD memmove(_First1, _First2, _Count * sizeof(_Elem));

  00030	56		 push	 esi
  00031	52		 push	 edx
  00032	57		 push	 edi

; 3533 :             _Mypair._Myval2._Mysize = _Count;

  00033	89 73 10	 mov	 DWORD PTR [ebx+16], esi

; 117  :         _CSTD memmove(_First1, _First2, _Count * sizeof(_Elem));

  00036	e8 00 00 00 00	 call	 _memmove
  0003b	83 c4 0c	 add	 esp, 12			; 0000000cH

; 3535 :             _Traits::assign(_Old_ptr[_Count], _Elem());

  0003e	c6 04 37 00	 mov	 BYTE PTR [edi+esi], 0
  00042	5f		 pop	 edi
; File C:\Users\flourine\Desktop\Xantios\client-src\Code\eterImageLib\Image.cpp

; 24   : }

  00043	5e		 pop	 esi
  00044	5b		 pop	 ebx
  00045	8b e5		 mov	 esp, ebp
  00047	5d		 pop	 ebp
  00048	c2 04 00	 ret	 4
$LN10@SetFileNam:
; File C:\Program Files\Microsoft Visual Studio\2022\Community\VC\Tools\MSVC\14.34.31933\include\xstring

; 4903 :         if (_New_size > max_size()) {

  0004b	81 fe ff ff ff
	7f		 cmp	 esi, 2147483647		; 7fffffffH
  00051	0f 87 d1 00 00
	00		 ja	 $LN71@SetFileNam

; 4883 :         const size_type _Masked = _Requested | _ALLOC_MASK;

  00057	8b fe		 mov	 edi, esi
  00059	83 cf 0f	 or	 edi, 15			; 0000000fH
  0005c	81 ff ff ff ff
	7f		 cmp	 edi, 2147483647		; 7fffffffH

; 4884 :         if (_Masked > _Max) { // the mask overflows, settle for max_size()

  00062	76 15		 jbe	 SHORT $LN27@SetFileNam

; 4885 :             return _Max;

  00064	b8 00 00 00 80	 mov	 eax, -2147483648	; 80000000H
  00069	bf ff ff ff 7f	 mov	 edi, 2147483647		; 7fffffffH
; File C:\Program Files\Microsoft Visual Studio\2022\Community\VC\Tools\MSVC\14.34.31933\include\xmemory

; 229  :             return _Allocate_manually_vector_aligned<_Traits>(_Bytes);

  0006e	50		 push	 eax
  0006f	e8 00 00 00 00	 call	 ??$_Allocate_manually_vector_aligned@U_Default_allocate_traits@std@@@std@@YAPAXI@Z ; std::_Allocate_manually_vector_aligned<std::_Default_allocate_traits>
  00074	83 c4 04	 add	 esp, 4
  00077	eb 52		 jmp	 SHORT $LN69@SetFileNam
$LN27@SetFileNam:
; File C:\Program Files\Microsoft Visual Studio\2022\Community\VC\Tools\MSVC\14.34.31933\include\xstring

; 4888 :         if (_Old > _Max - _Old / 2) { // similarly, geometric overflows

  00079	8b d1		 mov	 edx, ecx
  0007b	b8 ff ff ff 7f	 mov	 eax, 2147483647		; 7fffffffH
  00080	d1 ea		 shr	 edx, 1
  00082	2b c2		 sub	 eax, edx
  00084	3b c8		 cmp	 ecx, eax
  00086	76 15		 jbe	 SHORT $LN28@SetFileNam

; 4889 :             return _Max;

  00088	b8 00 00 00 80	 mov	 eax, -2147483648	; 80000000H
  0008d	bf ff ff ff 7f	 mov	 edi, 2147483647		; 7fffffffH
; File C:\Program Files\Microsoft Visual Studio\2022\Community\VC\Tools\MSVC\14.34.31933\include\xmemory

; 229  :             return _Allocate_manually_vector_aligned<_Traits>(_Bytes);

  00092	50		 push	 eax
  00093	e8 00 00 00 00	 call	 ??$_Allocate_manually_vector_aligned@U_Default_allocate_traits@std@@@std@@YAPAXI@Z ; std::_Allocate_manually_vector_aligned<std::_Default_allocate_traits>
  00098	83 c4 04	 add	 esp, 4
  0009b	eb 2e		 jmp	 SHORT $LN69@SetFileNam
$LN28@SetFileNam:
; File C:\Program Files\Microsoft Visual Studio\2022\Community\VC\Tools\MSVC\14.34.31933\include\xstring

; 4892 :         return (_STD max)(_Masked, _Old + _Old / 2);

  0009d	8d 04 0a	 lea	 eax, DWORD PTR [edx+ecx]
; File C:\Program Files\Microsoft Visual Studio\2022\Community\VC\Tools\MSVC\14.34.31933\include\utility

; 43   :     return _Left < _Right ? _Right : _Left;

  000a0	3b f8		 cmp	 edi, eax
  000a2	0f 42 f8	 cmovb	 edi, eax
; File C:\Program Files\Microsoft Visual Studio\2022\Community\VC\Tools\MSVC\14.34.31933\include\xstring

; 4910 :         const pointer _New_ptr        = _Al.allocate(_New_capacity + 1); // throws

  000a5	8d 47 01	 lea	 eax, DWORD PTR [edi+1]
; File C:\Program Files\Microsoft Visual Studio\2022\Community\VC\Tools\MSVC\14.34.31933\include\xmemory

; 228  :         if (_Bytes >= _Big_allocation_threshold) { // boost the alignment of big allocations to help autovectorization

  000a8	3d 00 10 00 00	 cmp	 eax, 4096		; 00001000H
  000ad	72 0b		 jb	 SHORT $LN35@SetFileNam

; 229  :             return _Allocate_manually_vector_aligned<_Traits>(_Bytes);

  000af	50		 push	 eax
  000b0	e8 00 00 00 00	 call	 ??$_Allocate_manually_vector_aligned@U_Default_allocate_traits@std@@@std@@YAPAXI@Z ; std::_Allocate_manually_vector_aligned<std::_Default_allocate_traits>
  000b5	83 c4 04	 add	 esp, 4
  000b8	eb 11		 jmp	 SHORT $LN69@SetFileNam
$LN35@SetFileNam:

; 230  :         }
; 231  :     }
; 232  : #endif // defined(_M_IX86) || defined(_M_X64)
; 233  : 
; 234  :     if (_Bytes != 0) {

  000ba	85 c0		 test	 eax, eax
  000bc	74 0b		 je	 SHORT $LN36@SetFileNam

; 77   :         return ::operator new(_Bytes);

  000be	50		 push	 eax
  000bf	e8 00 00 00 00	 call	 ??2@YAPAXI@Z		; operator new
  000c4	83 c4 04	 add	 esp, 4

; 235  :         return _Traits::_Allocate(_Bytes);

  000c7	eb 02		 jmp	 SHORT $LN69@SetFileNam
$LN36@SetFileNam:

; 236  :     }
; 237  : 
; 238  :     return nullptr;

  000c9	33 c0		 xor	 eax, eax
$LN69@SetFileNam:
; File C:\Program Files\Microsoft Visual Studio\2022\Community\VC\Tools\MSVC\14.34.31933\include\xstring

; 64   :         _CSTD memcpy(_First1, _First2, _Count * sizeof(_Elem));

  000cb	56		 push	 esi
  000cc	ff 75 08	 push	 DWORD PTR _c_szFileName$[ebp]

; 4920 :         _Mypair._Myval2._Myres  = _New_capacity;

  000cf	89 7b 14	 mov	 DWORD PTR [ebx+20], edi

; 64   :         _CSTD memcpy(_First1, _First2, _Count * sizeof(_Elem));

  000d2	8b f8		 mov	 edi, eax
  000d4	57		 push	 edi

; 4919 :         _Mypair._Myval2._Mysize = _New_size;

  000d5	89 45 fc	 mov	 DWORD PTR $T2[ebp], eax
  000d8	89 73 10	 mov	 DWORD PTR [ebx+16], esi

; 64   :         _CSTD memcpy(_First1, _First2, _Count * sizeof(_Elem));

  000db	e8 00 00 00 00	 call	 _memcpy

; 4922 :         if (_BUF_SIZE <= _Old_capacity) {

  000e0	8b 45 f8	 mov	 eax, DWORD PTR $T1[ebp]

; 64   :         _CSTD memcpy(_First1, _First2, _Count * sizeof(_Elem));

  000e3	83 c4 0c	 add	 esp, 12			; 0000000cH

; 3543 :                 _Traits::assign(_New_ptr[_Count], _Elem());

  000e6	c6 04 37 00	 mov	 BYTE PTR [edi+esi], 0

; 4922 :         if (_BUF_SIZE <= _Old_capacity) {

  000ea	83 f8 10	 cmp	 eax, 16			; 00000010H
  000ed	72 29		 jb	 SHORT $LN21@SetFileNam

; 4923 :             _Al.deallocate(_Mypair._Myval2._Bx._Ptr, _Old_capacity + 1);

  000ef	8d 48 01	 lea	 ecx, DWORD PTR [eax+1]
; File C:\Program Files\Microsoft Visual Studio\2022\Community\VC\Tools\MSVC\14.34.31933\include\xmemory

; 830  :         _Deallocate<_New_alignof<_Ty>>(_Ptr, sizeof(_Ty) * _Count);

  000f2	8b 03		 mov	 eax, DWORD PTR [ebx]

; 251  :         if (_Bytes >= _Big_allocation_threshold) { // boost the alignment of big allocations to help autovectorization

  000f4	81 f9 00 10 00
	00		 cmp	 ecx, 4096		; 00001000H
  000fa	72 12		 jb	 SHORT $LN58@SetFileNam

; 150  :     const uintptr_t _Ptr_container   = _Ptr_user[-1];

  000fc	8b 50 fc	 mov	 edx, DWORD PTR [eax-4]
  000ff	83 c1 23	 add	 ecx, 35			; 00000023H

; 151  : 
; 152  :     // If the following asserts, it likely means that we are performing
; 153  :     // an aligned delete on memory coming from an unaligned allocation.
; 154  :     _STL_ASSERT(_Ptr_user[-2] == _Big_allocation_sentinel, "invalid argument");
; 155  : 
; 156  :     // Extra paranoia on aligned allocation/deallocation; ensure _Ptr_container is
; 157  :     // in range [_Min_back_shift, _Non_user_size]
; 158  : #ifdef _DEBUG
; 159  :     constexpr uintptr_t _Min_back_shift = 2 * sizeof(void*);
; 160  : #else // ^^^ _DEBUG ^^^ // vvv !_DEBUG vvv
; 161  :     constexpr uintptr_t _Min_back_shift = sizeof(void*);
; 162  : #endif // _DEBUG
; 163  :     const uintptr_t _Back_shift = reinterpret_cast<uintptr_t>(_Ptr) - _Ptr_container;

  00102	2b c2		 sub	 eax, edx

; 164  :     _STL_VERIFY(_Back_shift >= _Min_back_shift && _Back_shift <= _Non_user_size, "invalid argument");

  00104	83 c0 fc	 add	 eax, -4			; fffffffcH
  00107	83 f8 1f	 cmp	 eax, 31			; 0000001fH
  0010a	77 17		 ja	 SHORT $LN55@SetFileNam

; 165  :     _Ptr = reinterpret_cast<void*>(_Ptr_container);

  0010c	8b c2		 mov	 eax, edx
$LN58@SetFileNam:

; 255  :         ::operator delete(_Ptr, _Bytes);

  0010e	51		 push	 ecx
  0010f	50		 push	 eax
  00110	e8 00 00 00 00	 call	 ??3@YAXPAXI@Z		; operator delete
  00115	83 c4 08	 add	 esp, 8
$LN21@SetFileNam:
; File C:\Users\flourine\Desktop\Xantios\client-src\Code\eterImageLib\Image.cpp

; 24   : }

  00118	89 3b		 mov	 DWORD PTR [ebx], edi
  0011a	5f		 pop	 edi
  0011b	5e		 pop	 esi
  0011c	5b		 pop	 ebx
  0011d	8b e5		 mov	 esp, ebp
  0011f	5d		 pop	 ebp
  00120	c2 04 00	 ret	 4
$LN55@SetFileNam:
; File C:\Program Files\Microsoft Visual Studio\2022\Community\VC\Tools\MSVC\14.34.31933\include\xmemory

; 164  :     _STL_VERIFY(_Back_shift >= _Min_back_shift && _Back_shift <= _Non_user_size, "invalid argument");

  00123	e8 00 00 00 00	 call	 __invalid_parameter_noinfo_noreturn
$LN71@SetFileNam:
; File C:\Program Files\Microsoft Visual Studio\2022\Community\VC\Tools\MSVC\14.34.31933\include\xstring

; 4904 :             _Xlen_string(); // result too long

  00128	e8 00 00 00 00	 call	 ?_Xlen_string@std@@YAXXZ ; std::_Xlen_string
$LN68@SetFileNam:
  0012d	cc		 int	 3
?SetFileName@CImage@@QAEXPBD@Z ENDP			; CImage::SetFileName
_TEXT	ENDS
; Function compile flags: /Ogtp
; File C:\Users\flourine\Desktop\Xantios\client-src\Code\eterImageLib\Image.cpp
;	COMDAT ?FlipTopToBottom@CImage@@QAEXXZ
_TEXT	SEGMENT
_this$1$ = -32						; size = 4
tv309 = -28						; size = 4
_width$1$ = -24						; size = 4
_height$1$ = -20					; size = 4
tv312 = -16						; size = 4
_swap$1$ = -12						; size = 4
tv311 = -8						; size = 4
_row$1$ = -4						; size = 4
?FlipTopToBottom@CImage@@QAEXXZ PROC			; CImage::FlipTopToBottom, COMDAT
; _this$ = ecx

; 115  : {

  00000	55		 push	 ebp
  00001	8b ec		 mov	 ebp, esp
  00003	83 ec 20	 sub	 esp, 32			; 00000020H
  00006	53		 push	 ebx
  00007	56		 push	 esi
  00008	8b f1		 mov	 esi, ecx

; 116  : 	DWORD * swap = new DWORD[m_width * m_height];

  0000a	ba 04 00 00 00	 mov	 edx, 4
  0000f	33 c9		 xor	 ecx, ecx
  00011	89 75 e0	 mov	 DWORD PTR _this$1$[ebp], esi
  00014	8b 46 0c	 mov	 eax, DWORD PTR [esi+12]
  00017	0f af 46 08	 imul	 eax, DWORD PTR [esi+8]
  0001b	f7 e2		 mul	 edx
  0001d	0f 90 c1	 seto	 cl
  00020	f7 d9		 neg	 ecx
  00022	0b c8		 or	 ecx, eax
  00024	51		 push	 ecx
  00025	e8 00 00 00 00	 call	 ??_U@YAPAXI@Z		; operator new[]
  0002a	83 c4 04	 add	 esp, 4
  0002d	89 45 f4	 mov	 DWORD PTR _swap$1$[ebp], eax

; 117  : 
; 118  : 	int row;
; 119  : 	UINT width = GetWidth();

  00030	8b ce		 mov	 ecx, esi
  00032	e8 00 00 00 00	 call	 ?GetWidth@CImage@@QBEHXZ ; CImage::GetWidth
  00037	8b d8		 mov	 ebx, eax

; 120  : 	UINT height = GetHeight();

  00039	8b ce		 mov	 ecx, esi
  0003b	89 5d e8	 mov	 DWORD PTR _width$1$[ebp], ebx
  0003e	e8 00 00 00 00	 call	 ?GetHeight@CImage@@QBEHXZ ; CImage::GetHeight

; 121  : 	DWORD * end_row;
; 122  : 	DWORD * start_row;
; 123  : 
; 124  : 	for (row = 0; row < GetHeight() / 2; row++)

  00043	33 c9		 xor	 ecx, ecx
  00045	89 45 ec	 mov	 DWORD PTR _height$1$[ebp], eax
  00048	89 4d fc	 mov	 DWORD PTR _row$1$[ebp], ecx
  0004b	8b ce		 mov	 ecx, esi
  0004d	e8 00 00 00 00	 call	 ?GetHeight@CImage@@QBEHXZ ; CImage::GetHeight
  00052	99		 cdq
  00053	2b c2		 sub	 eax, edx
  00055	d1 f8		 sar	 eax, 1
  00057	85 c0		 test	 eax, eax
  00059	7e 7a		 jle	 SHORT $LN3@FlipTopToB

; 116  : 	DWORD * swap = new DWORD[m_width * m_height];

  0005b	8d 0c 9d 00 00
	00 00		 lea	 ecx, DWORD PTR [ebx*4]
  00062	8b c3		 mov	 eax, ebx
  00064	8b 5d ec	 mov	 ebx, DWORD PTR _height$1$[ebp]
  00067	f7 d8		 neg	 eax
  00069	57		 push	 edi
  0006a	33 ff		 xor	 edi, edi
  0006c	c1 e0 02	 shl	 eax, 2
  0006f	89 7d f0	 mov	 DWORD PTR tv312[ebp], edi
  00072	8d 1c 9d fc ff
	ff ff		 lea	 ebx, DWORD PTR [ebx*4-4]
  00079	89 4d f8	 mov	 DWORD PTR tv311[ebp], ecx
  0007c	0f af 5d e8	 imul	 ebx, DWORD PTR _width$1$[ebp]
  00080	89 45 e4	 mov	 DWORD PTR tv309[ebp], eax
$LL4@FlipTopToB:

; 125  : 	{
; 126  : 		end_row		= &(m_pdwColors[width * (height - row - 1)]);

  00083	8b 46 04	 mov	 eax, DWORD PTR [esi+4]

; 127  : 		start_row	= &(m_pdwColors[width * row]);

  00086	03 f8		 add	 edi, eax

; 128  : 
; 129  : 		memcpy(swap, end_row, width * sizeof(DWORD));

  00088	51		 push	 ecx
  00089	8d 34 03	 lea	 esi, DWORD PTR [ebx+eax]
  0008c	56		 push	 esi
  0008d	ff 75 f4	 push	 DWORD PTR _swap$1$[ebp]
  00090	e8 00 00 00 00	 call	 _memcpy

; 130  : 		memcpy(end_row, start_row, width * sizeof(DWORD));

  00095	ff 75 f8	 push	 DWORD PTR tv311[ebp]
  00098	57		 push	 edi
  00099	56		 push	 esi
  0009a	e8 00 00 00 00	 call	 _memcpy

; 131  : 		memcpy(start_row, swap, width * sizeof(DWORD));

  0009f	8b 75 f8	 mov	 esi, DWORD PTR tv311[ebp]
  000a2	56		 push	 esi
  000a3	ff 75 f4	 push	 DWORD PTR _swap$1$[ebp]
  000a6	57		 push	 edi
  000a7	e8 00 00 00 00	 call	 _memcpy
  000ac	8b 7d f0	 mov	 edi, DWORD PTR tv312[ebp]
  000af	83 c4 24	 add	 esp, 36			; 00000024H
  000b2	ff 45 fc	 inc	 DWORD PTR _row$1$[ebp]
  000b5	03 fe		 add	 edi, esi
  000b7	8b 75 e0	 mov	 esi, DWORD PTR _this$1$[ebp]
  000ba	8b ce		 mov	 ecx, esi
  000bc	03 5d e4	 add	 ebx, DWORD PTR tv309[ebp]
  000bf	89 7d f0	 mov	 DWORD PTR tv312[ebp], edi
  000c2	e8 00 00 00 00	 call	 ?GetHeight@CImage@@QBEHXZ ; CImage::GetHeight
  000c7	8b 4d f8	 mov	 ecx, DWORD PTR tv311[ebp]
  000ca	99		 cdq
  000cb	2b c2		 sub	 eax, edx
  000cd	d1 f8		 sar	 eax, 1
  000cf	39 45 fc	 cmp	 DWORD PTR _row$1$[ebp], eax
  000d2	7c af		 jl	 SHORT $LL4@FlipTopToB
  000d4	5f		 pop	 edi
$LN3@FlipTopToB:

; 132  : 	}
; 133  : 
; 134  : 	delete [] swap;

  000d5	ff 75 f4	 push	 DWORD PTR _swap$1$[ebp]
  000d8	e8 00 00 00 00	 call	 ??_V@YAXPAX@Z		; operator delete[]
  000dd	83 c4 04	 add	 esp, 4
  000e0	5e		 pop	 esi
  000e1	5b		 pop	 ebx

; 135  : }

  000e2	8b e5		 mov	 esp, ebp
  000e4	5d		 pop	 ebp
  000e5	c3		 ret	 0
?FlipTopToBottom@CImage@@QAEXXZ ENDP			; CImage::FlipTopToBottom
_TEXT	ENDS
; Function compile flags: /Ogtp
; File C:\Users\flourine\Desktop\Xantios\client-src\Code\eterImageLib\Image.cpp
;	COMDAT ?PutImage@CImage@@QAEXHHPAV1@@Z
_TEXT	SEGMENT
_this$1$ = -8						; size = 4
_len$1$ = -4						; size = 4
_x$ = 8							; size = 4
_y$ = 12						; size = 4
tv130 = 16						; size = 4
_pImage$ = 16						; size = 4
?PutImage@CImage@@QAEXHHPAV1@@Z PROC			; CImage::PutImage, COMDAT
; _this$ = ecx

; 32   : {

  00000	55		 push	 ebp
  00001	8b ec		 mov	 ebp, esp
  00003	83 ec 08	 sub	 esp, 8
  00006	53		 push	 ebx

; 33   : 	assert(x >= 0 && x + pImage->GetWidth() <= GetWidth());
; 34   : 	assert(y >= 0 && y + pImage->GetHeight() <= GetHeight());
; 35   : 
; 36   : 	int len = pImage->GetWidth() * sizeof(DWORD);

  00007	8b 5d 10	 mov	 ebx, DWORD PTR _pImage$[ebp]
  0000a	56		 push	 esi
  0000b	8b f1		 mov	 esi, ecx
  0000d	8b cb		 mov	 ecx, ebx
  0000f	57		 push	 edi
  00010	89 75 f8	 mov	 DWORD PTR _this$1$[ebp], esi
  00013	e8 00 00 00 00	 call	 ?GetWidth@CImage@@QBEHXZ ; CImage::GetWidth
  00018	c1 e0 02	 shl	 eax, 2

; 37   : 
; 38   : 	for (int j = 0; j < pImage->GetHeight(); ++j)

  0001b	8b cb		 mov	 ecx, ebx
  0001d	89 45 fc	 mov	 DWORD PTR _len$1$[ebp], eax
  00020	33 ff		 xor	 edi, edi
  00022	e8 00 00 00 00	 call	 ?GetHeight@CImage@@QBEHXZ ; CImage::GetHeight
  00027	85 c0		 test	 eax, eax
  00029	7e 43		 jle	 SHORT $LN3@PutImage
  0002b	8b 4d 08	 mov	 ecx, DWORD PTR _x$[ebp]
  0002e	8d 04 8d 00 00
	00 00		 lea	 eax, DWORD PTR [ecx*4]
  00035	89 45 10	 mov	 DWORD PTR tv130[ebp], eax
$LL4@PutImage:

; 39   : 	{
; 40   : 		DWORD * pdwDest = GetLinePointer(y + j) + x;

  00038	8b 45 0c	 mov	 eax, DWORD PTR _y$[ebp]
  0003b	8b ce		 mov	 ecx, esi
  0003d	03 c7		 add	 eax, edi
  0003f	50		 push	 eax
  00040	e8 00 00 00 00	 call	 ?GetLinePointer@CImage@@QAEPAKH@Z ; CImage::GetLinePointer

; 41   : 		memcpy(pdwDest, pImage->GetLinePointer(j), len);

  00045	ff 75 fc	 push	 DWORD PTR _len$1$[ebp]
  00048	8b f0		 mov	 esi, eax
  0004a	8b cb		 mov	 ecx, ebx
  0004c	03 75 10	 add	 esi, DWORD PTR tv130[ebp]
  0004f	57		 push	 edi
  00050	e8 00 00 00 00	 call	 ?GetLinePointer@CImage@@QAEPAKH@Z ; CImage::GetLinePointer
  00055	50		 push	 eax
  00056	56		 push	 esi
  00057	e8 00 00 00 00	 call	 _memcpy
  0005c	83 c4 0c	 add	 esp, 12			; 0000000cH
  0005f	8b cb		 mov	 ecx, ebx
  00061	47		 inc	 edi
  00062	e8 00 00 00 00	 call	 ?GetHeight@CImage@@QBEHXZ ; CImage::GetHeight
  00067	8b 75 f8	 mov	 esi, DWORD PTR _this$1$[ebp]
  0006a	3b f8		 cmp	 edi, eax
  0006c	7c ca		 jl	 SHORT $LL4@PutImage
$LN3@PutImage:
  0006e	5f		 pop	 edi

; 42   : 	}
; 43   : }

  0006f	5e		 pop	 esi
  00070	5b		 pop	 ebx
  00071	8b e5		 mov	 esp, ebp
  00073	5d		 pop	 ebp
  00074	c2 0c 00	 ret	 12			; 0000000cH
?PutImage@CImage@@QAEXHHPAV1@@Z ENDP			; CImage::PutImage
_TEXT	ENDS
; Function compile flags: /Ogtp
; File C:\Users\flourine\Desktop\Xantios\client-src\Code\eterImageLib\Image.cpp
;	COMDAT ?GetLinePointer@CImage@@QAEPAKH@Z
_TEXT	SEGMENT
_line$ = 8						; size = 4
?GetLinePointer@CImage@@QAEPAKH@Z PROC			; CImage::GetLinePointer, COMDAT
; _this$ = ecx

; 52   : {

  00000	55		 push	 ebp
  00001	8b ec		 mov	 ebp, esp

; 53   : 	assert(m_pdwColors != NULL);
; 54   : 	return m_pdwColors + line * m_width;

  00003	8b 51 08	 mov	 edx, DWORD PTR [ecx+8]
  00006	0f af 55 08	 imul	 edx, DWORD PTR _line$[ebp]
  0000a	8b 41 04	 mov	 eax, DWORD PTR [ecx+4]
  0000d	8d 04 90	 lea	 eax, DWORD PTR [eax+edx*4]

; 55   : }

  00010	5d		 pop	 ebp
  00011	c2 04 00	 ret	 4
?GetLinePointer@CImage@@QAEPAKH@Z ENDP			; CImage::GetLinePointer
_TEXT	ENDS
; Function compile flags: /Ogtp
; File C:\Users\flourine\Desktop\Xantios\client-src\Code\eterImageLib\Image.cpp
;	COMDAT ?GetBasePointer@CImage@@QAEPAKXZ
_TEXT	SEGMENT
?GetBasePointer@CImage@@QAEPAKXZ PROC			; CImage::GetBasePointer, COMDAT
; _this$ = ecx

; 47   : 	assert(m_pdwColors != NULL);
; 48   : 	return m_pdwColors;

  00000	8b 41 04	 mov	 eax, DWORD PTR [ecx+4]

; 49   : }

  00003	c3		 ret	 0
?GetBasePointer@CImage@@QAEPAKXZ ENDP			; CImage::GetBasePointer
_TEXT	ENDS
; Function compile flags: /Ogtp
; File C:\Users\flourine\Desktop\Xantios\client-src\Code\eterImageLib\Image.cpp
;	COMDAT ?GetHeight@CImage@@QBEHXZ
_TEXT	SEGMENT
?GetHeight@CImage@@QBEHXZ PROC				; CImage::GetHeight, COMDAT
; _this$ = ecx

; 65   : 	assert(m_pdwColors != NULL);
; 66   : 	return m_height;

  00000	8b 41 0c	 mov	 eax, DWORD PTR [ecx+12]

; 67   : }

  00003	c3		 ret	 0
?GetHeight@CImage@@QBEHXZ ENDP				; CImage::GetHeight
_TEXT	ENDS
; Function compile flags: /Ogtp
; File C:\Users\flourine\Desktop\Xantios\client-src\Code\eterImageLib\Image.cpp
;	COMDAT ?GetWidth@CImage@@QBEHXZ
_TEXT	SEGMENT
?GetWidth@CImage@@QBEHXZ PROC				; CImage::GetWidth, COMDAT
; _this$ = ecx

; 59   : 	assert(m_pdwColors != NULL);
; 60   : 	return m_width;

  00000	8b 41 08	 mov	 eax, DWORD PTR [ecx+8]

; 61   : }

  00003	c3		 ret	 0
?GetWidth@CImage@@QBEHXZ ENDP				; CImage::GetWidth
_TEXT	ENDS
; Function compile flags: /Ogtp
; File C:\Users\flourine\Desktop\Xantios\client-src\Code\eterImageLib\Image.cpp
;	COMDAT ?Clear@CImage@@QAEXK@Z
_TEXT	SEGMENT
_color$ = 8						; size = 4
?Clear@CImage@@QAEXK@Z PROC				; CImage::Clear, COMDAT
; _this$ = ecx

; 70   : {

  00000	55		 push	 ebp
  00001	8b ec		 mov	 ebp, esp
  00003	56		 push	 esi
  00004	8b f1		 mov	 esi, ecx
  00006	57		 push	 edi

; 71   : 	assert(m_pdwColors != NULL);
; 72   : 
; 73   : 	for (int y = 0; y < m_height; ++y)

  00007	33 ff		 xor	 edi, edi
  00009	39 7e 0c	 cmp	 DWORD PTR [esi+12], edi
  0000c	7e 2a		 jle	 SHORT $LN3@Clear
  0000e	8b 56 08	 mov	 edx, DWORD PTR [esi+8]
  00011	53		 push	 ebx
  00012	8b 5d 08	 mov	 ebx, DWORD PTR _color$[ebp]
$LL4@Clear:

; 74   : 	{
; 75   : 		DWORD * colorLine = &m_pdwColors[y * m_width];

  00015	8b 46 04	 mov	 eax, DWORD PTR [esi+4]
  00018	8b ca		 mov	 ecx, edx
  0001a	0f af cf	 imul	 ecx, edi
  0001d	8d 0c 88	 lea	 ecx, DWORD PTR [eax+ecx*4]

; 76   : 
; 77   : 		for (int x = 0; x < m_width; ++x)

  00020	33 c0		 xor	 eax, eax
  00022	85 d2		 test	 edx, edx
  00024	7e 0b		 jle	 SHORT $LN2@Clear
$LL7@Clear:

; 78   : 		{
; 79   : 			colorLine[x] = color;

  00026	89 1c 81	 mov	 DWORD PTR [ecx+eax*4], ebx
  00029	40		 inc	 eax
  0002a	8b 56 08	 mov	 edx, DWORD PTR [esi+8]
  0002d	3b c2		 cmp	 eax, edx
  0002f	7c f5		 jl	 SHORT $LL7@Clear
$LN2@Clear:

; 71   : 	assert(m_pdwColors != NULL);
; 72   : 
; 73   : 	for (int y = 0; y < m_height; ++y)

  00031	47		 inc	 edi
  00032	3b 7e 0c	 cmp	 edi, DWORD PTR [esi+12]
  00035	7c de		 jl	 SHORT $LL4@Clear
  00037	5b		 pop	 ebx
$LN3@Clear:
  00038	5f		 pop	 edi

; 80   : 		}
; 81   : 	}
; 82   : }

  00039	5e		 pop	 esi
  0003a	5d		 pop	 ebp
  0003b	c2 04 00	 ret	 4
?Clear@CImage@@QAEXK@Z ENDP				; CImage::Clear
_TEXT	ENDS
; Function compile flags: /Ogtp
; File C:\Users\flourine\Desktop\Xantios\client-src\Code\eterImageLib\Image.cpp
;	COMDAT ?Create@CImage@@QAEXHH@Z
_TEXT	SEGMENT
_width$ = 8						; size = 4
_height$ = 12						; size = 4
?Create@CImage@@QAEXHH@Z PROC				; CImage::Create, COMDAT
; _this$ = ecx

; 85   : {

  00000	55		 push	 ebp
  00001	8b ec		 mov	 ebp, esp
  00003	56		 push	 esi
  00004	8b f1		 mov	 esi, ecx

; 86   : 	Destroy();

  00006	e8 00 00 00 00	 call	 ?Destroy@CImage@@QAEXXZ	; CImage::Destroy

; 87   : 
; 88   : 	m_width = width;

  0000b	8b 45 08	 mov	 eax, DWORD PTR _width$[ebp]

; 89   : 	m_height = height;
; 90   : 	m_pdwColors = new DWORD[m_width * m_height];

  0000e	33 c9		 xor	 ecx, ecx
  00010	8b 55 0c	 mov	 edx, DWORD PTR _height$[ebp]
  00013	89 46 08	 mov	 DWORD PTR [esi+8], eax
  00016	0f af c2	 imul	 eax, edx
  00019	89 56 0c	 mov	 DWORD PTR [esi+12], edx
  0001c	ba 04 00 00 00	 mov	 edx, 4
  00021	f7 e2		 mul	 edx
  00023	0f 90 c1	 seto	 cl
  00026	f7 d9		 neg	 ecx
  00028	0b c8		 or	 ecx, eax
  0002a	51		 push	 ecx
  0002b	e8 00 00 00 00	 call	 ??_U@YAPAXI@Z		; operator new[]
  00030	83 c4 04	 add	 esp, 4
  00033	89 46 04	 mov	 DWORD PTR [esi+4], eax
  00036	5e		 pop	 esi

; 91   : }

  00037	5d		 pop	 ebp
  00038	c2 08 00	 ret	 8
?Create@CImage@@QAEXHH@Z ENDP				; CImage::Create
_TEXT	ENDS
; Function compile flags: /Ogtp
; File C:\Users\flourine\Desktop\Xantios\client-src\Code\eterImageLib\Image.cpp
;	COMDAT ?Destroy@CImage@@QAEXXZ
_TEXT	SEGMENT
?Destroy@CImage@@QAEXXZ PROC				; CImage::Destroy, COMDAT
; _this$ = ecx

; 94   : {

  00000	56		 push	 esi
  00001	8b f1		 mov	 esi, ecx

; 95   : 	if (m_pdwColors)

  00003	8b 46 04	 mov	 eax, DWORD PTR [esi+4]
  00006	85 c0		 test	 eax, eax
  00008	74 10		 je	 SHORT $LN2@Destroy

; 96   : 	{
; 97   : 		delete [] m_pdwColors;

  0000a	50		 push	 eax
  0000b	e8 00 00 00 00	 call	 ??_V@YAXPAX@Z		; operator delete[]
  00010	83 c4 04	 add	 esp, 4

; 98   : 		m_pdwColors = NULL;

  00013	c7 46 04 00 00
	00 00		 mov	 DWORD PTR [esi+4], 0
$LN2@Destroy:

; 99   : 	}
; 100  : }

  0001a	5e		 pop	 esi
  0001b	c3		 ret	 0
?Destroy@CImage@@QAEXXZ ENDP				; CImage::Destroy
_TEXT	ENDS
; Function compile flags: /Ogtp
; File C:\Users\flourine\Desktop\Xantios\client-src\Code\eterImageLib\Image.cpp
; File C:\Program Files\Microsoft Visual Studio\2022\Community\VC\Tools\MSVC\14.34.31933\include\xstring
; File C:\Program Files\Microsoft Visual Studio\2022\Community\VC\Tools\MSVC\14.34.31933\include\xmemory
; File C:\Program Files\Microsoft Visual Studio\2022\Community\VC\Tools\MSVC\14.34.31933\include\xstring
; File C:\Program Files\Microsoft Visual Studio\2022\Community\VC\Tools\MSVC\14.34.31933\include\xmemory
; File C:\Program Files\Microsoft Visual Studio\2022\Community\VC\Tools\MSVC\14.34.31933\include\xstring
; File C:\Users\flourine\Desktop\Xantios\client-src\Code\eterImageLib\Image.cpp
; File C:\Program Files\Microsoft Visual Studio\2022\Community\VC\Tools\MSVC\14.34.31933\include\xmemory
; File C:\Users\flourine\Desktop\Xantios\client-src\Code\eterImageLib\Image.cpp
;	COMDAT ??1CImage@@UAE@XZ
_TEXT	SEGMENT
??1CImage@@UAE@XZ PROC					; CImage::~CImage, COMDAT
; _this$ = ecx

; 143  : {

  00000	56		 push	 esi
  00001	8b f1		 mov	 esi, ecx
  00003	c7 06 00 00 00
	00		 mov	 DWORD PTR [esi], OFFSET ??_7CImage@@6B@

; 144  : 	Destroy();

  00009	e8 00 00 00 00	 call	 ?Destroy@CImage@@QAEXXZ	; CImage::Destroy
; File C:\Program Files\Microsoft Visual Studio\2022\Community\VC\Tools\MSVC\14.34.31933\include\xstring

; 2301 :         return _BUF_SIZE <= _Myres;

  0000e	8b 4e 24	 mov	 ecx, DWORD PTR [esi+36]
  00011	83 f9 10	 cmp	 ecx, 16			; 00000010H

; 5011 :         if (_My_data._Large_string_engaged()) {

  00014	72 28		 jb	 SHORT $LN15@CImage
; File C:\Program Files\Microsoft Visual Studio\2022\Community\VC\Tools\MSVC\14.34.31933\include\xmemory

; 830  :         _Deallocate<_New_alignof<_Ty>>(_Ptr, sizeof(_Ty) * _Count);

  00016	8b 46 10	 mov	 eax, DWORD PTR [esi+16]
; File C:\Program Files\Microsoft Visual Studio\2022\Community\VC\Tools\MSVC\14.34.31933\include\xstring

; 5016 :             _Al.deallocate(_Ptr, _My_data._Myres + 1);

  00019	41		 inc	 ecx
; File C:\Program Files\Microsoft Visual Studio\2022\Community\VC\Tools\MSVC\14.34.31933\include\xmemory

; 251  :         if (_Bytes >= _Big_allocation_threshold) { // boost the alignment of big allocations to help autovectorization

  0001a	81 f9 00 10 00
	00		 cmp	 ecx, 4096		; 00001000H
  00020	72 12		 jb	 SHORT $LN25@CImage

; 150  :     const uintptr_t _Ptr_container   = _Ptr_user[-1];

  00022	8b 50 fc	 mov	 edx, DWORD PTR [eax-4]
  00025	83 c1 23	 add	 ecx, 35			; 00000023H

; 151  : 
; 152  :     // If the following asserts, it likely means that we are performing
; 153  :     // an aligned delete on memory coming from an unaligned allocation.
; 154  :     _STL_ASSERT(_Ptr_user[-2] == _Big_allocation_sentinel, "invalid argument");
; 155  : 
; 156  :     // Extra paranoia on aligned allocation/deallocation; ensure _Ptr_container is
; 157  :     // in range [_Min_back_shift, _Non_user_size]
; 158  : #ifdef _DEBUG
; 159  :     constexpr uintptr_t _Min_back_shift = 2 * sizeof(void*);
; 160  : #else // ^^^ _DEBUG ^^^ // vvv !_DEBUG vvv
; 161  :     constexpr uintptr_t _Min_back_shift = sizeof(void*);
; 162  : #endif // _DEBUG
; 163  :     const uintptr_t _Back_shift = reinterpret_cast<uintptr_t>(_Ptr) - _Ptr_container;

  00028	2b c2		 sub	 eax, edx

; 164  :     _STL_VERIFY(_Back_shift >= _Min_back_shift && _Back_shift <= _Non_user_size, "invalid argument");

  0002a	83 c0 fc	 add	 eax, -4			; fffffffcH
  0002d	83 f8 1f	 cmp	 eax, 31			; 0000001fH
  00030	77 20		 ja	 SHORT $LN22@CImage

; 165  :     _Ptr = reinterpret_cast<void*>(_Ptr_container);

  00032	8b c2		 mov	 eax, edx
$LN25@CImage:

; 255  :         ::operator delete(_Ptr, _Bytes);

  00034	51		 push	 ecx
  00035	50		 push	 eax
  00036	e8 00 00 00 00	 call	 ??3@YAXPAXI@Z		; operator delete
  0003b	83 c4 08	 add	 esp, 8
$LN15@CImage:
; File C:\Program Files\Microsoft Visual Studio\2022\Community\VC\Tools\MSVC\14.34.31933\include\xstring

; 5019 :         _My_data._Mysize = 0;

  0003e	c7 46 20 00 00
	00 00		 mov	 DWORD PTR [esi+32], 0

; 5020 :         _My_data._Myres  = _BUF_SIZE - 1;

  00045	c7 46 24 0f 00
	00 00		 mov	 DWORD PTR [esi+36], 15	; 0000000fH

; 5021 :         // the _Traits::assign is last so the codegen doesn't think the char write can alias this
; 5022 :         _Traits::assign(_My_data._Bx._Buf[0], _Elem());

  0004c	c6 46 10 00	 mov	 BYTE PTR [esi+16], 0
  00050	5e		 pop	 esi
; File C:\Users\flourine\Desktop\Xantios\client-src\Code\eterImageLib\Image.cpp

; 145  : }

  00051	c3		 ret	 0
$LN22@CImage:
; File C:\Program Files\Microsoft Visual Studio\2022\Community\VC\Tools\MSVC\14.34.31933\include\xmemory

; 164  :     _STL_VERIFY(_Back_shift >= _Min_back_shift && _Back_shift <= _Non_user_size, "invalid argument");

  00052	e8 00 00 00 00	 call	 __invalid_parameter_noinfo_noreturn
$LN31@CImage:
  00057	cc		 int	 3
??1CImage@@UAE@XZ ENDP					; CImage::~CImage
_TEXT	ENDS
; Function compile flags: /Ogtp
; File C:\Users\flourine\Desktop\Xantios\client-src\Code\eterImageLib\Image.cpp
; File C:\Program Files\Microsoft Visual Studio\2022\Community\VC\Tools\MSVC\14.34.31933\include\xstring
; File C:\Users\flourine\Desktop\Xantios\client-src\Code\eterImageLib\Image.cpp
;	COMDAT ??0CImage@@QAE@AAV0@@Z
_TEXT	SEGMENT
_this$ = -16						; size = 4
__$EHRec$ = -12						; size = 12
_w$1$ = 8						; size = 4
_image$ = 8						; size = 4
??0CImage@@QAE@AAV0@@Z PROC				; CImage::CImage, COMDAT
; _this$ = ecx

; 7    : {

  00000	55		 push	 ebp
  00001	8b ec		 mov	 ebp, esp
  00003	6a ff		 push	 -1
  00005	68 00 00 00 00	 push	 __ehhandler$??0CImage@@QAE@AAV0@@Z
  0000a	64 a1 00 00 00
	00		 mov	 eax, DWORD PTR fs:0
  00010	50		 push	 eax
  00011	51		 push	 ecx
  00012	56		 push	 esi
  00013	57		 push	 edi
  00014	a1 00 00 00 00	 mov	 eax, DWORD PTR ___security_cookie
  00019	33 c5		 xor	 eax, ebp
  0001b	50		 push	 eax
  0001c	8d 45 f4	 lea	 eax, DWORD PTR __$EHRec$[ebp]
  0001f	64 a3 00 00 00
	00		 mov	 DWORD PTR fs:0, eax
  00025	8b c1		 mov	 eax, ecx
  00027	89 45 f0	 mov	 DWORD PTR _this$[ebp], eax
  0002a	c7 00 00 00 00
	00		 mov	 DWORD PTR [eax], OFFSET ??_7CImage@@6B@
  00030	0f 57 c0	 xorps	 xmm0, xmm0
; File C:\Program Files\Microsoft Visual Studio\2022\Community\VC\Tools\MSVC\14.34.31933\include\xstring

; 2341 :         _CONSTEXPR20 _Bxty() noexcept : _Buf() {} // user-provided, for fancy pointers

  00033	0f 11 40 10	 movups	 XMMWORD PTR [eax+16], xmm0

; 4998 :         _My_data._Mysize = 0;

  00037	c7 40 20 00 00
	00 00		 mov	 DWORD PTR [eax+32], 0

; 4999 :         _My_data._Myres  = _BUF_SIZE - 1;

  0003e	c7 40 24 0f 00
	00 00		 mov	 DWORD PTR [eax+36], 15	; 0000000fH

; 5000 :         _My_data._Activate_SSO_buffer();
; 5001 : 
; 5002 :         // the _Traits::assign is last so the codegen doesn't think the char write can alias this
; 5003 :         _Traits::assign(_My_data._Bx._Buf[0], _Elem());

  00045	c6 40 10 00	 mov	 BYTE PTR [eax+16], 0
; File C:\Users\flourine\Desktop\Xantios\client-src\Code\eterImageLib\Image.cpp

; 7    : {

  00049	c7 45 fc 00 00
	00 00		 mov	 DWORD PTR __$EHRec$[ebp+8], 0

; 8    : 	Initialize();

  00050	e8 00 00 00 00	 call	 ?Initialize@CImage@@IAEXXZ ; CImage::Initialize

; 9    : 
; 10   : 	int w = image.GetWidth();

  00055	8b 75 08	 mov	 esi, DWORD PTR _image$[ebp]
  00058	8b ce		 mov	 ecx, esi
  0005a	e8 00 00 00 00	 call	 ?GetWidth@CImage@@QBEHXZ ; CImage::GetWidth

; 11   : 	int h = image.GetHeight();

  0005f	8b ce		 mov	 ecx, esi
  00061	89 45 08	 mov	 DWORD PTR _w$1$[ebp], eax
  00064	e8 00 00 00 00	 call	 ?GetHeight@CImage@@QBEHXZ ; CImage::GetHeight

; 12   : 
; 13   : 	Create(w, h);

  00069	8b 4d f0	 mov	 ecx, DWORD PTR _this$[ebp]
  0006c	8b f8		 mov	 edi, eax
  0006e	57		 push	 edi
  0006f	ff 75 08	 push	 DWORD PTR _w$1$[ebp]
  00072	e8 00 00 00 00	 call	 ?Create@CImage@@QAEXHH@Z ; CImage::Create

; 14   : 
; 15   : 	DWORD * pdwDest = GetBasePointer();
; 16   : 	DWORD * pdwSrc = image.GetBasePointer();

  00077	8b ce		 mov	 ecx, esi
  00079	e8 00 00 00 00	 call	 ?GetBasePointer@CImage@@QAEPAKXZ ; CImage::GetBasePointer

; 17   : 
; 18   : 	memcpy(pdwDest, pdwSrc, w * h * sizeof(DWORD));

  0007e	0f af 7d 08	 imul	 edi, DWORD PTR _w$1$[ebp]
  00082	8b 4d f0	 mov	 ecx, DWORD PTR _this$[ebp]
  00085	c1 e7 02	 shl	 edi, 2
  00088	57		 push	 edi
  00089	50		 push	 eax
  0008a	e8 00 00 00 00	 call	 ?GetBasePointer@CImage@@QAEPAKXZ ; CImage::GetBasePointer
  0008f	50		 push	 eax
  00090	e8 00 00 00 00	 call	 _memcpy

; 19   : }

  00095	8b 45 f0	 mov	 eax, DWORD PTR _this$[ebp]
  00098	83 c4 0c	 add	 esp, 12			; 0000000cH
  0009b	8b 4d f4	 mov	 ecx, DWORD PTR __$EHRec$[ebp]
  0009e	64 89 0d 00 00
	00 00		 mov	 DWORD PTR fs:0, ecx
  000a5	59		 pop	 ecx
  000a6	5f		 pop	 edi
  000a7	5e		 pop	 esi
  000a8	8b e5		 mov	 esp, ebp
  000aa	5d		 pop	 ebp
  000ab	c2 04 00	 ret	 4
_TEXT	ENDS
;	COMDAT text$x
text$x	SEGMENT
__unwindfunclet$??0CImage@@QAE@AAV0@@Z$0:
  00000	8b 4d f0	 mov	 ecx, DWORD PTR _this$[ebp]
  00003	83 c1 10	 add	 ecx, 16			; 00000010H
  00006	e9 00 00 00 00	 jmp	 ??1?$basic_string@DU?$char_traits@D@std@@V?$allocator@D@2@@std@@QAE@XZ ; std::basic_string<char,std::char_traits<char>,std::allocator<char> >::~basic_string<char,std::char_traits<char>,std::allocator<char> >
  0000b	cc		 int	 3
  0000c	cc		 int	 3
  0000d	cc		 int	 3
  0000e	cc		 int	 3
  0000f	cc		 int	 3
__ehhandler$??0CImage@@QAE@AAV0@@Z:
  00010	90		 npad	 1
  00011	90		 npad	 1
  00012	8b 54 24 08	 mov	 edx, DWORD PTR [esp+8]
  00016	8d 42 0c	 lea	 eax, DWORD PTR [edx+12]
  00019	8b 4a f0	 mov	 ecx, DWORD PTR [edx-16]
  0001c	33 c8		 xor	 ecx, eax
  0001e	e8 00 00 00 00	 call	 @__security_check_cookie@4
  00023	b8 00 00 00 00	 mov	 eax, OFFSET __ehfuncinfo$??0CImage@@QAE@AAV0@@Z
  00028	e9 00 00 00 00	 jmp	 ___CxxFrameHandler3
text$x	ENDS
??0CImage@@QAE@AAV0@@Z ENDP				; CImage::CImage
; Function compile flags: /Ogtp
; File C:\Users\flourine\Desktop\Xantios\client-src\Code\eterImageLib\Image.cpp
; File C:\Program Files\Microsoft Visual Studio\2022\Community\VC\Tools\MSVC\14.34.31933\include\xstring
; File C:\Users\flourine\Desktop\Xantios\client-src\Code\eterImageLib\Image.cpp
;	COMDAT ??0CImage@@QAE@XZ
_TEXT	SEGMENT
_this$ = -4						; size = 4
??0CImage@@QAE@XZ PROC					; CImage::CImage, COMDAT
; _this$ = ecx

; 138  : {

  00000	55		 push	 ebp
  00001	8b ec		 mov	 ebp, esp
  00003	51		 push	 ecx
  00004	56		 push	 esi
  00005	8b f1		 mov	 esi, ecx
  00007	0f 57 c0	 xorps	 xmm0, xmm0
  0000a	89 75 fc	 mov	 DWORD PTR _this$[ebp], esi
  0000d	c7 06 00 00 00
	00		 mov	 DWORD PTR [esi], OFFSET ??_7CImage@@6B@
; File C:\Program Files\Microsoft Visual Studio\2022\Community\VC\Tools\MSVC\14.34.31933\include\xstring

; 2341 :         _CONSTEXPR20 _Bxty() noexcept : _Buf() {} // user-provided, for fancy pointers

  00013	0f 11 46 10	 movups	 XMMWORD PTR [esi+16], xmm0

; 4998 :         _My_data._Mysize = 0;

  00017	c7 46 20 00 00
	00 00		 mov	 DWORD PTR [esi+32], 0

; 4999 :         _My_data._Myres  = _BUF_SIZE - 1;

  0001e	c7 46 24 0f 00
	00 00		 mov	 DWORD PTR [esi+36], 15	; 0000000fH

; 5000 :         _My_data._Activate_SSO_buffer();
; 5001 : 
; 5002 :         // the _Traits::assign is last so the codegen doesn't think the char write can alias this
; 5003 :         _Traits::assign(_My_data._Bx._Buf[0], _Elem());

  00025	c6 46 10 00	 mov	 BYTE PTR [esi+16], 0
; File C:\Users\flourine\Desktop\Xantios\client-src\Code\eterImageLib\Image.cpp

; 139  : 	Initialize();

  00029	e8 00 00 00 00	 call	 ?Initialize@CImage@@IAEXXZ ; CImage::Initialize

; 140  : }

  0002e	8b c6		 mov	 eax, esi
  00030	5e		 pop	 esi
  00031	8b e5		 mov	 esp, ebp
  00033	5d		 pop	 ebp
  00034	c3		 ret	 0
??0CImage@@QAE@XZ ENDP					; CImage::CImage
_TEXT	ENDS
; Function compile flags: /Ogtp
; File C:\Program Files\Microsoft Visual Studio\2022\Community\VC\Tools\MSVC\14.34.31933\include\xstring
; File C:\Program Files\Microsoft Visual Studio\2022\Community\VC\Tools\MSVC\14.34.31933\include\xmemory
; File C:\Program Files\Microsoft Visual Studio\2022\Community\VC\Tools\MSVC\14.34.31933\include\xstring
; File C:\Program Files\Microsoft Visual Studio\2022\Community\VC\Tools\MSVC\14.34.31933\include\xmemory
; File C:\Program Files\Microsoft Visual Studio\2022\Community\VC\Tools\MSVC\14.34.31933\include\xstring
; File C:\Program Files\Microsoft Visual Studio\2022\Community\VC\Tools\MSVC\14.34.31933\include\xmemory
; File C:\Program Files\Microsoft Visual Studio\2022\Community\VC\Tools\MSVC\14.34.31933\include\xstring
;	COMDAT ??1?$basic_string@DU?$char_traits@D@std@@V?$allocator@D@2@@std@@QAE@XZ
_TEXT	SEGMENT
??1?$basic_string@DU?$char_traits@D@std@@V?$allocator@D@2@@std@@QAE@XZ PROC ; std::basic_string<char,std::char_traits<char>,std::allocator<char> >::~basic_string<char,std::char_traits<char>,std::allocator<char> >, COMDAT
; _this$ = ecx

; 3270 :     _CONSTEXPR20 ~basic_string() noexcept {

  00000	56		 push	 esi
  00001	8b f1		 mov	 esi, ecx

; 2301 :         return _BUF_SIZE <= _Myres;

  00003	8b 4e 14	 mov	 ecx, DWORD PTR [esi+20]
  00006	83 f9 10	 cmp	 ecx, 16			; 00000010H

; 5011 :         if (_My_data._Large_string_engaged()) {

  00009	72 27		 jb	 SHORT $LN12@basic_stri
; File C:\Program Files\Microsoft Visual Studio\2022\Community\VC\Tools\MSVC\14.34.31933\include\xmemory

; 830  :         _Deallocate<_New_alignof<_Ty>>(_Ptr, sizeof(_Ty) * _Count);

  0000b	8b 06		 mov	 eax, DWORD PTR [esi]
; File C:\Program Files\Microsoft Visual Studio\2022\Community\VC\Tools\MSVC\14.34.31933\include\xstring

; 5016 :             _Al.deallocate(_Ptr, _My_data._Myres + 1);

  0000d	41		 inc	 ecx
; File C:\Program Files\Microsoft Visual Studio\2022\Community\VC\Tools\MSVC\14.34.31933\include\xmemory

; 251  :         if (_Bytes >= _Big_allocation_threshold) { // boost the alignment of big allocations to help autovectorization

  0000e	81 f9 00 10 00
	00		 cmp	 ecx, 4096		; 00001000H
  00014	72 12		 jb	 SHORT $LN22@basic_stri

; 150  :     const uintptr_t _Ptr_container   = _Ptr_user[-1];

  00016	8b 50 fc	 mov	 edx, DWORD PTR [eax-4]
  00019	83 c1 23	 add	 ecx, 35			; 00000023H

; 151  : 
; 152  :     // If the following asserts, it likely means that we are performing
; 153  :     // an aligned delete on memory coming from an unaligned allocation.
; 154  :     _STL_ASSERT(_Ptr_user[-2] == _Big_allocation_sentinel, "invalid argument");
; 155  : 
; 156  :     // Extra paranoia on aligned allocation/deallocation; ensure _Ptr_container is
; 157  :     // in range [_Min_back_shift, _Non_user_size]
; 158  : #ifdef _DEBUG
; 159  :     constexpr uintptr_t _Min_back_shift = 2 * sizeof(void*);
; 160  : #else // ^^^ _DEBUG ^^^ // vvv !_DEBUG vvv
; 161  :     constexpr uintptr_t _Min_back_shift = sizeof(void*);
; 162  : #endif // _DEBUG
; 163  :     const uintptr_t _Back_shift = reinterpret_cast<uintptr_t>(_Ptr) - _Ptr_container;

  0001c	2b c2		 sub	 eax, edx

; 164  :     _STL_VERIFY(_Back_shift >= _Min_back_shift && _Back_shift <= _Non_user_size, "invalid argument");

  0001e	83 c0 fc	 add	 eax, -4			; fffffffcH
  00021	83 f8 1f	 cmp	 eax, 31			; 0000001fH
  00024	77 1f		 ja	 SHORT $LN19@basic_stri

; 165  :     _Ptr = reinterpret_cast<void*>(_Ptr_container);

  00026	8b c2		 mov	 eax, edx
$LN22@basic_stri:

; 255  :         ::operator delete(_Ptr, _Bytes);

  00028	51		 push	 ecx
  00029	50		 push	 eax
  0002a	e8 00 00 00 00	 call	 ??3@YAXPAXI@Z		; operator delete
  0002f	83 c4 08	 add	 esp, 8
$LN12@basic_stri:
; File C:\Program Files\Microsoft Visual Studio\2022\Community\VC\Tools\MSVC\14.34.31933\include\xstring

; 5019 :         _My_data._Mysize = 0;

  00032	c7 46 10 00 00
	00 00		 mov	 DWORD PTR [esi+16], 0

; 5020 :         _My_data._Myres  = _BUF_SIZE - 1;

  00039	c7 46 14 0f 00
	00 00		 mov	 DWORD PTR [esi+20], 15	; 0000000fH

; 5021 :         // the _Traits::assign is last so the codegen doesn't think the char write can alias this
; 5022 :         _Traits::assign(_My_data._Bx._Buf[0], _Elem());

  00040	c6 06 00	 mov	 BYTE PTR [esi], 0
  00043	5e		 pop	 esi

; 3278 :     }

  00044	c3		 ret	 0
$LN19@basic_stri:
; File C:\Program Files\Microsoft Visual Studio\2022\Community\VC\Tools\MSVC\14.34.31933\include\xmemory

; 164  :     _STL_VERIFY(_Back_shift >= _Min_back_shift && _Back_shift <= _Non_user_size, "invalid argument");

  00045	e8 00 00 00 00	 call	 __invalid_parameter_noinfo_noreturn
$LN27@basic_stri:
  0004a	cc		 int	 3
??1?$basic_string@DU?$char_traits@D@std@@V?$allocator@D@2@@std@@QAE@XZ ENDP ; std::basic_string<char,std::char_traits<char>,std::allocator<char> >::~basic_string<char,std::char_traits<char>,std::allocator<char> >
_TEXT	ENDS
; Function compile flags: /Ogtp
; File C:\Program Files\Microsoft Visual Studio\2022\Community\VC\Tools\MSVC\14.34.31933\include\xstring
;	COMDAT ?_Xlen_string@std@@YAXXZ
_TEXT	SEGMENT
?_Xlen_string@std@@YAXXZ PROC				; std::_Xlen_string, COMDAT

; 2368 :     _Xlength_error("string too long");

  00000	68 00 00 00 00	 push	 OFFSET ??_C@_0BA@JFNIOLAK@string?5too?5long@
  00005	e8 00 00 00 00	 call	 ?_Xlength_error@std@@YAXPBD@Z ; std::_Xlength_error
$LN3@Xlen_strin:
  0000a	cc		 int	 3
?_Xlen_string@std@@YAXXZ ENDP				; std::_Xlen_string
_TEXT	ENDS
; Function compile flags: /Ogtp
; File C:\Program Files\Microsoft Visual Studio\2022\Community\VC\Tools\MSVC\14.34.31933\include\exception
;	COMDAT ?_Throw_bad_array_new_length@std@@YAXXZ
_TEXT	SEGMENT
$T1 = -12						; size = 12
?_Throw_bad_array_new_length@std@@YAXXZ PROC		; std::_Throw_bad_array_new_length, COMDAT

; 323  : [[noreturn]] inline void _Throw_bad_array_new_length() {

  00000	55		 push	 ebp
  00001	8b ec		 mov	 ebp, esp
  00003	83 ec 0c	 sub	 esp, 12			; 0000000cH

; 324  :     _THROW(bad_array_new_length{});

  00006	8d 4d f4	 lea	 ecx, DWORD PTR $T1[ebp]
  00009	e8 00 00 00 00	 call	 ??0bad_array_new_length@std@@QAE@XZ ; std::bad_array_new_length::bad_array_new_length
  0000e	68 00 00 00 00	 push	 OFFSET __TI3?AVbad_array_new_length@std@@
  00013	8d 45 f4	 lea	 eax, DWORD PTR $T1[ebp]
  00016	50		 push	 eax
  00017	e8 00 00 00 00	 call	 __CxxThrowException@8
$LN3@Throw_bad_:
  0001c	cc		 int	 3
?_Throw_bad_array_new_length@std@@YAXXZ ENDP		; std::_Throw_bad_array_new_length
_TEXT	ENDS
; Function compile flags: /Ogtp
; File C:\Program Files\Microsoft Visual Studio\2022\Community\VC\Tools\MSVC\14.34.31933\include\vcruntime_exception.h
;	COMDAT ??_Gbad_array_new_length@std@@UAEPAXI@Z
_TEXT	SEGMENT
___flags$ = 8						; size = 4
??_Gbad_array_new_length@std@@UAEPAXI@Z PROC		; std::bad_array_new_length::`scalar deleting destructor', COMDAT
; _this$ = ecx
  00000	55		 push	 ebp
  00001	8b ec		 mov	 ebp, esp

; 89   :     {

  00003	56		 push	 esi
  00004	8b f1		 mov	 esi, ecx

; 90   :         __std_exception_destroy(&_Data);

  00006	8d 46 04	 lea	 eax, DWORD PTR [esi+4]
  00009	c7 06 00 00 00
	00		 mov	 DWORD PTR [esi], OFFSET ??_7exception@std@@6B@
  0000f	50		 push	 eax
  00010	e8 00 00 00 00	 call	 ___std_exception_destroy
  00015	83 c4 04	 add	 esp, 4
  00018	f6 45 08 01	 test	 BYTE PTR ___flags$[ebp], 1
  0001c	74 0b		 je	 SHORT $LN12@scalar
  0001e	6a 0c		 push	 12			; 0000000cH
  00020	56		 push	 esi
  00021	e8 00 00 00 00	 call	 ??3@YAXPAXI@Z		; operator delete
  00026	83 c4 08	 add	 esp, 8
$LN12@scalar:
  00029	8b c6		 mov	 eax, esi
  0002b	5e		 pop	 esi
  0002c	5d		 pop	 ebp
  0002d	c2 04 00	 ret	 4
??_Gbad_array_new_length@std@@UAEPAXI@Z ENDP		; std::bad_array_new_length::`scalar deleting destructor'
_TEXT	ENDS
; Function compile flags: /Ogtp
; File C:\Program Files\Microsoft Visual Studio\2022\Community\VC\Tools\MSVC\14.34.31933\include\vcruntime_exception.h
;	COMDAT ??0bad_array_new_length@std@@QAE@ABV01@@Z
_TEXT	SEGMENT
___that$ = 8						; size = 4
??0bad_array_new_length@std@@QAE@ABV01@@Z PROC		; std::bad_array_new_length::bad_array_new_length, COMDAT
; _this$ = ecx
  00000	55		 push	 ebp
  00001	8b ec		 mov	 ebp, esp

; 72   :     {

  00003	56		 push	 esi
  00004	8b f1		 mov	 esi, ecx
  00006	0f 57 c0	 xorps	 xmm0, xmm0

; 71   :         : _Data()

  00009	8d 46 04	 lea	 eax, DWORD PTR [esi+4]

; 73   :         __std_exception_copy(&_Other._Data, &_Data);

  0000c	50		 push	 eax
  0000d	c7 06 00 00 00
	00		 mov	 DWORD PTR [esi], OFFSET ??_7exception@std@@6B@
  00013	66 0f d6 00	 movq	 QWORD PTR [eax], xmm0
  00017	8b 45 08	 mov	 eax, DWORD PTR ___that$[ebp]
  0001a	83 c0 04	 add	 eax, 4
  0001d	50		 push	 eax
  0001e	e8 00 00 00 00	 call	 ___std_exception_copy
  00023	83 c4 08	 add	 esp, 8
  00026	c7 06 00 00 00
	00		 mov	 DWORD PTR [esi], OFFSET ??_7bad_array_new_length@std@@6B@
  0002c	8b c6		 mov	 eax, esi
  0002e	5e		 pop	 esi
  0002f	5d		 pop	 ebp
  00030	c2 04 00	 ret	 4
??0bad_array_new_length@std@@QAE@ABV01@@Z ENDP		; std::bad_array_new_length::bad_array_new_length
_TEXT	ENDS
; Function compile flags: /Ogtp
; File C:\Program Files\Microsoft Visual Studio\2022\Community\VC\Tools\MSVC\14.34.31933\include\vcruntime_exception.h
;	COMDAT ??1bad_array_new_length@std@@UAE@XZ
_TEXT	SEGMENT
??1bad_array_new_length@std@@UAE@XZ PROC		; std::bad_array_new_length::~bad_array_new_length, COMDAT
; _this$ = ecx

; 90   :         __std_exception_destroy(&_Data);

  00000	8d 41 04	 lea	 eax, DWORD PTR [ecx+4]
  00003	c7 01 00 00 00
	00		 mov	 DWORD PTR [ecx], OFFSET ??_7exception@std@@6B@
  00009	50		 push	 eax
  0000a	e8 00 00 00 00	 call	 ___std_exception_destroy
  0000f	59		 pop	 ecx
  00010	c3		 ret	 0
??1bad_array_new_length@std@@UAE@XZ ENDP		; std::bad_array_new_length::~bad_array_new_length
_TEXT	ENDS
; Function compile flags: /Ogtp
; File C:\Program Files\Microsoft Visual Studio\2022\Community\VC\Tools\MSVC\14.34.31933\include\vcruntime_exception.h
;	COMDAT ??0bad_array_new_length@std@@QAE@XZ
_TEXT	SEGMENT
??0bad_array_new_length@std@@QAE@XZ PROC		; std::bad_array_new_length::bad_array_new_length, COMDAT
; _this$ = ecx

; 141  :     {

  00000	0f 57 c0	 xorps	 xmm0, xmm0

; 142  :     }

  00003	8b c1		 mov	 eax, ecx

; 65   :         : _Data()

  00005	66 0f d6 41 04	 movq	 QWORD PTR [ecx+4], xmm0

; 66   :     {
; 67   :         _Data._What = _Message;

  0000a	c7 41 04 00 00
	00 00		 mov	 DWORD PTR [ecx+4], OFFSET ??_C@_0BF@KINCDENJ@bad?5array?5new?5length@

; 141  :     {

  00011	c7 01 00 00 00
	00		 mov	 DWORD PTR [ecx], OFFSET ??_7bad_array_new_length@std@@6B@

; 142  :     }

  00017	c3		 ret	 0
??0bad_array_new_length@std@@QAE@XZ ENDP		; std::bad_array_new_length::bad_array_new_length
_TEXT	ENDS
; Function compile flags: /Ogtp
; File C:\Program Files\Microsoft Visual Studio\2022\Community\VC\Tools\MSVC\14.34.31933\include\vcruntime_exception.h
;	COMDAT ??_Gbad_alloc@std@@UAEPAXI@Z
_TEXT	SEGMENT
___flags$ = 8						; size = 4
??_Gbad_alloc@std@@UAEPAXI@Z PROC			; std::bad_alloc::`scalar deleting destructor', COMDAT
; _this$ = ecx
  00000	55		 push	 ebp
  00001	8b ec		 mov	 ebp, esp

; 89   :     {

  00003	56		 push	 esi
  00004	8b f1		 mov	 esi, ecx

; 90   :         __std_exception_destroy(&_Data);

  00006	8d 46 04	 lea	 eax, DWORD PTR [esi+4]
  00009	c7 06 00 00 00
	00		 mov	 DWORD PTR [esi], OFFSET ??_7exception@std@@6B@
  0000f	50		 push	 eax
  00010	e8 00 00 00 00	 call	 ___std_exception_destroy
  00015	83 c4 04	 add	 esp, 4
  00018	f6 45 08 01	 test	 BYTE PTR ___flags$[ebp], 1
  0001c	74 0b		 je	 SHORT $LN9@scalar
  0001e	6a 0c		 push	 12			; 0000000cH
  00020	56		 push	 esi
  00021	e8 00 00 00 00	 call	 ??3@YAXPAXI@Z		; operator delete
  00026	83 c4 08	 add	 esp, 8
$LN9@scalar:
  00029	8b c6		 mov	 eax, esi
  0002b	5e		 pop	 esi
  0002c	5d		 pop	 ebp
  0002d	c2 04 00	 ret	 4
??_Gbad_alloc@std@@UAEPAXI@Z ENDP			; std::bad_alloc::`scalar deleting destructor'
_TEXT	ENDS
; Function compile flags: /Ogtp
; File C:\Program Files\Microsoft Visual Studio\2022\Community\VC\Tools\MSVC\14.34.31933\include\vcruntime_exception.h
;	COMDAT ??0bad_alloc@std@@QAE@ABV01@@Z
_TEXT	SEGMENT
___that$ = 8						; size = 4
??0bad_alloc@std@@QAE@ABV01@@Z PROC			; std::bad_alloc::bad_alloc, COMDAT
; _this$ = ecx
  00000	55		 push	 ebp
  00001	8b ec		 mov	 ebp, esp

; 72   :     {

  00003	56		 push	 esi
  00004	8b f1		 mov	 esi, ecx
  00006	0f 57 c0	 xorps	 xmm0, xmm0

; 71   :         : _Data()

  00009	8d 46 04	 lea	 eax, DWORD PTR [esi+4]

; 73   :         __std_exception_copy(&_Other._Data, &_Data);

  0000c	50		 push	 eax
  0000d	c7 06 00 00 00
	00		 mov	 DWORD PTR [esi], OFFSET ??_7exception@std@@6B@
  00013	66 0f d6 00	 movq	 QWORD PTR [eax], xmm0
  00017	8b 45 08	 mov	 eax, DWORD PTR ___that$[ebp]
  0001a	83 c0 04	 add	 eax, 4
  0001d	50		 push	 eax
  0001e	e8 00 00 00 00	 call	 ___std_exception_copy
  00023	83 c4 08	 add	 esp, 8
  00026	c7 06 00 00 00
	00		 mov	 DWORD PTR [esi], OFFSET ??_7bad_alloc@std@@6B@
  0002c	8b c6		 mov	 eax, esi
  0002e	5e		 pop	 esi
  0002f	5d		 pop	 ebp
  00030	c2 04 00	 ret	 4
??0bad_alloc@std@@QAE@ABV01@@Z ENDP			; std::bad_alloc::bad_alloc
_TEXT	ENDS
; Function compile flags: /Ogtp
; File C:\Program Files\Microsoft Visual Studio\2022\Community\VC\Tools\MSVC\14.34.31933\include\vcruntime_exception.h
;	COMDAT ??_Gexception@std@@UAEPAXI@Z
_TEXT	SEGMENT
___flags$ = 8						; size = 4
??_Gexception@std@@UAEPAXI@Z PROC			; std::exception::`scalar deleting destructor', COMDAT
; _this$ = ecx
  00000	55		 push	 ebp
  00001	8b ec		 mov	 ebp, esp

; 89   :     {

  00003	56		 push	 esi
  00004	8b f1		 mov	 esi, ecx

; 90   :         __std_exception_destroy(&_Data);

  00006	8d 46 04	 lea	 eax, DWORD PTR [esi+4]
  00009	c7 06 00 00 00
	00		 mov	 DWORD PTR [esi], OFFSET ??_7exception@std@@6B@
  0000f	50		 push	 eax
  00010	e8 00 00 00 00	 call	 ___std_exception_destroy
  00015	83 c4 04	 add	 esp, 4
  00018	f6 45 08 01	 test	 BYTE PTR ___flags$[ebp], 1
  0001c	74 0b		 je	 SHORT $LN6@scalar
  0001e	6a 0c		 push	 12			; 0000000cH
  00020	56		 push	 esi
  00021	e8 00 00 00 00	 call	 ??3@YAXPAXI@Z		; operator delete
  00026	83 c4 08	 add	 esp, 8
$LN6@scalar:
  00029	8b c6		 mov	 eax, esi
  0002b	5e		 pop	 esi
  0002c	5d		 pop	 ebp
  0002d	c2 04 00	 ret	 4
??_Gexception@std@@UAEPAXI@Z ENDP			; std::exception::`scalar deleting destructor'
_TEXT	ENDS
; Function compile flags: /Ogtp
; File C:\Program Files\Microsoft Visual Studio\2022\Community\VC\Tools\MSVC\14.34.31933\include\vcruntime_exception.h
;	COMDAT ?what@exception@std@@UBEPBDXZ
_TEXT	SEGMENT
?what@exception@std@@UBEPBDXZ PROC			; std::exception::what, COMDAT
; _this$ = ecx

; 95   :         return _Data._What ? _Data._What : "Unknown exception";

  00000	8b 49 04	 mov	 ecx, DWORD PTR [ecx+4]
  00003	b8 00 00 00 00	 mov	 eax, OFFSET ??_C@_0BC@EOODALEL@Unknown?5exception@
  00008	85 c9		 test	 ecx, ecx
  0000a	0f 45 c1	 cmovne	 eax, ecx

; 96   :     }

  0000d	c3		 ret	 0
?what@exception@std@@UBEPBDXZ ENDP			; std::exception::what
_TEXT	ENDS
; Function compile flags: /Ogtp
; File C:\Program Files\Microsoft Visual Studio\2022\Community\VC\Tools\MSVC\14.34.31933\include\vcruntime_exception.h
;	COMDAT ??1exception@std@@UAE@XZ
_TEXT	SEGMENT
??1exception@std@@UAE@XZ PROC				; std::exception::~exception, COMDAT
; _this$ = ecx

; 90   :         __std_exception_destroy(&_Data);

  00000	8d 41 04	 lea	 eax, DWORD PTR [ecx+4]
  00003	c7 01 00 00 00
	00		 mov	 DWORD PTR [ecx], OFFSET ??_7exception@std@@6B@
  00009	50		 push	 eax
  0000a	e8 00 00 00 00	 call	 ___std_exception_destroy
  0000f	59		 pop	 ecx

; 91   :     }

  00010	c3		 ret	 0
??1exception@std@@UAE@XZ ENDP				; std::exception::~exception
_TEXT	ENDS
; Function compile flags: /Ogtp
; File C:\Program Files\Microsoft Visual Studio\2022\Community\VC\Tools\MSVC\14.34.31933\include\vcruntime_exception.h
;	COMDAT ??0exception@std@@QAE@ABV01@@Z
_TEXT	SEGMENT
__Other$ = 8						; size = 4
??0exception@std@@QAE@ABV01@@Z PROC			; std::exception::exception, COMDAT
; _this$ = ecx

; 72   :     {

  00000	55		 push	 ebp
  00001	8b ec		 mov	 ebp, esp
  00003	56		 push	 esi
  00004	8b f1		 mov	 esi, ecx
  00006	0f 57 c0	 xorps	 xmm0, xmm0
  00009	8d 46 04	 lea	 eax, DWORD PTR [esi+4]

; 73   :         __std_exception_copy(&_Other._Data, &_Data);

  0000c	50		 push	 eax
  0000d	c7 06 00 00 00
	00		 mov	 DWORD PTR [esi], OFFSET ??_7exception@std@@6B@
  00013	66 0f d6 00	 movq	 QWORD PTR [eax], xmm0
  00017	8b 45 08	 mov	 eax, DWORD PTR __Other$[ebp]
  0001a	83 c0 04	 add	 eax, 4
  0001d	50		 push	 eax
  0001e	e8 00 00 00 00	 call	 ___std_exception_copy
  00023	83 c4 08	 add	 esp, 8

; 74   :     }

  00026	8b c6		 mov	 eax, esi
  00028	5e		 pop	 esi
  00029	5d		 pop	 ebp
  0002a	c2 04 00	 ret	 4
??0exception@std@@QAE@ABV01@@Z ENDP			; std::exception::exception
_TEXT	ENDS
END
