; Listing generated by Microsoft (R) Optimizing Compiler Version 19.34.31942.0 

	TITLE	C:\Users\flourine\Desktop\Xantios\client-src\Code\eterGrnLib\Distribute\Material.obj
	.686P
	.XMM
	include listing.inc
	.model	flat

INCLUDELIB LIBCMT
INCLUDELIB OLDNAMES

PUBLIC	??_H@YGXPAXIIP6EPAX0@Z@Z			; `vector constructor iterator'
PUBLIC	___local_stdio_printf_options
PUBLIC	__snprintf
PUBLIC	??0exception@std@@QAE@ABV01@@Z			; std::exception::exception
PUBLIC	??1exception@std@@UAE@XZ			; std::exception::~exception
PUBLIC	?what@exception@std@@UBEPBDXZ			; std::exception::what
PUBLIC	??_Gexception@std@@UAEPAXI@Z			; std::exception::`scalar deleting destructor'
PUBLIC	??0bad_alloc@std@@QAE@ABV01@@Z			; std::bad_alloc::bad_alloc
PUBLIC	??_Gbad_alloc@std@@UAEPAXI@Z			; std::bad_alloc::`scalar deleting destructor'
PUBLIC	??0bad_array_new_length@std@@QAE@XZ		; std::bad_array_new_length::bad_array_new_length
PUBLIC	??1bad_array_new_length@std@@UAE@XZ		; std::bad_array_new_length::~bad_array_new_length
PUBLIC	??0bad_array_new_length@std@@QAE@ABV01@@Z	; std::bad_array_new_length::bad_array_new_length
PUBLIC	??_Gbad_array_new_length@std@@UAEPAXI@Z		; std::bad_array_new_length::`scalar deleting destructor'
PUBLIC	?_Throw_bad_array_new_length@std@@YAXXZ		; std::_Throw_bad_array_new_length
PUBLIC	?_Xlen_string@std@@YAXXZ			; std::_Xlen_string
PUBLIC	?_Xran@?$_String_val@U?$_Simple_types@D@std@@@std@@SAXXZ ; std::_String_val<std::_Simple_types<char> >::_Xran
PUBLIC	??1?$basic_string@DU?$char_traits@D@std@@V?$allocator@D@2@@std@@QAE@XZ ; std::basic_string<char,std::char_traits<char>,std::allocator<char> >::~basic_string<char,std::char_traits<char>,std::allocator<char> >
PUBLIC	??0D3DXMATRIX@@QAE@XZ				; D3DXMATRIX::D3DXMATRIX
PUBLIC	??0?$CRef@VCGraphicImage@@@@QAE@XZ		; CRef<CGraphicImage>::CRef<CGraphicImage>
PUBLIC	??1?$CRef@VCGraphicImage@@@@QAE@XZ		; CRef<CGraphicImage>::~CRef<CGraphicImage>
PUBLIC	?CreateSphereMap@CGrannyMaterial@@SAXIPBD@Z	; CGrannyMaterial::CreateSphereMap
PUBLIC	?DestroySphereMap@CGrannyMaterial@@SAXXZ	; CGrannyMaterial::DestroySphereMap
PUBLIC	?TranslateSpecularMatrix@CGrannyMaterial@@SAXMMM@Z ; CGrannyMaterial::TranslateSpecularMatrix
PUBLIC	??0CGrannyMaterial@@QAE@XZ			; CGrannyMaterial::CGrannyMaterial
PUBLIC	??1CGrannyMaterial@@UAE@XZ			; CGrannyMaterial::~CGrannyMaterial
PUBLIC	?Copy@CGrannyMaterial@@QAEXAAV1@@Z		; CGrannyMaterial::Copy
PUBLIC	?IsEqual@CGrannyMaterial@@QBE_NPAUgranny_material@@@Z ; CGrannyMaterial::IsEqual
PUBLIC	?IsIn@CGrannyMaterial@@QAE_NPBDPAH@Z		; CGrannyMaterial::IsIn
PUBLIC	?SetSpecularInfo@CGrannyMaterial@@QAEXHME@Z	; CGrannyMaterial::SetSpecularInfo
PUBLIC	?ApplyRenderState@CGrannyMaterial@@QAEXXZ	; CGrannyMaterial::ApplyRenderState
PUBLIC	?RestoreRenderState@CGrannyMaterial@@QAEXXZ	; CGrannyMaterial::RestoreRenderState
PUBLIC	?Initialize@CGrannyMaterial@@IAEXXZ		; CGrannyMaterial::Initialize
PUBLIC	?CreateFromGrannyMaterialPointer@CGrannyMaterial@@QAE_NPAUgranny_material@@@Z ; CGrannyMaterial::CreateFromGrannyMaterialPointer
PUBLIC	?SetImagePointer@CGrannyMaterial@@QAEXHPAVCGraphicImage@@@Z ; CGrannyMaterial::SetImagePointer
PUBLIC	?GetType@CGrannyMaterial@@QBE?AW4EType@1@XZ	; CGrannyMaterial::GetType
PUBLIC	?GetImagePointer@CGrannyMaterial@@QBEPAVCGraphicImage@@H@Z ; CGrannyMaterial::GetImagePointer
PUBLIC	?GetDiffuseTexture@CGrannyMaterial@@QBEPBVCGraphicTexture@@XZ ; CGrannyMaterial::GetDiffuseTexture
PUBLIC	?GetOpacityTexture@CGrannyMaterial@@QBEPBVCGraphicTexture@@XZ ; CGrannyMaterial::GetOpacityTexture
PUBLIC	?GetD3DTexture@CGrannyMaterial@@QBEPAUIDirect3DTexture9@@H@Z ; CGrannyMaterial::GetD3DTexture
PUBLIC	?__GetImagePointer@CGrannyMaterial@@IAEPAVCGraphicImage@@PBD@Z ; CGrannyMaterial::__GetImagePointer
PUBLIC	?__IsSpecularEnable@CGrannyMaterial@@IBEHXZ	; CGrannyMaterial::__IsSpecularEnable
PUBLIC	?__GetSpecularPower@CGrannyMaterial@@IBEMXZ	; CGrannyMaterial::__GetSpecularPower
PUBLIC	?__ApplyDiffuseRenderState@CGrannyMaterial@@IAEXXZ ; CGrannyMaterial::__ApplyDiffuseRenderState
PUBLIC	?__RestoreDiffuseRenderState@CGrannyMaterial@@IAEXXZ ; CGrannyMaterial::__RestoreDiffuseRenderState
PUBLIC	?__ApplySpecularRenderState@CGrannyMaterial@@IAEXXZ ; CGrannyMaterial::__ApplySpecularRenderState
PUBLIC	?__RestoreSpecularRenderState@CGrannyMaterial@@IAEXXZ ; CGrannyMaterial::__RestoreSpecularRenderState
PUBLIC	??_GCGrannyMaterial@@UAEPAXI@Z			; CGrannyMaterial::`scalar deleting destructor'
PUBLIC	??0CGrannyMaterialPalette@@QAE@XZ		; CGrannyMaterialPalette::CGrannyMaterialPalette
PUBLIC	??1CGrannyMaterialPalette@@UAE@XZ		; CGrannyMaterialPalette::~CGrannyMaterialPalette
PUBLIC	?Clear@CGrannyMaterialPalette@@QAEXXZ		; CGrannyMaterialPalette::Clear
PUBLIC	?Copy@CGrannyMaterialPalette@@QAEXABV1@@Z	; CGrannyMaterialPalette::Copy
PUBLIC	?RegisterMaterial@CGrannyMaterialPalette@@QAEKPAUgranny_material@@@Z ; CGrannyMaterialPalette::RegisterMaterial
PUBLIC	?SetMaterialImagePointer@CGrannyMaterialPalette@@QAEXPBDPAVCGraphicImage@@@Z ; CGrannyMaterialPalette::SetMaterialImagePointer
PUBLIC	?SetMaterialData@CGrannyMaterialPalette@@QAEXPBDABUSMaterialData@@@Z ; CGrannyMaterialPalette::SetMaterialData
PUBLIC	?SetSpecularInfo@CGrannyMaterialPalette@@QAEXPBDHM@Z ; CGrannyMaterialPalette::SetSpecularInfo
PUBLIC	?GetMaterialRef@CGrannyMaterialPalette@@QAEAAVCGrannyMaterial@@K@Z ; CGrannyMaterialPalette::GetMaterialRef
PUBLIC	?GetMaterialCount@CGrannyMaterialPalette@@QBEKXZ ; CGrannyMaterialPalette::GetMaterialCount
PUBLIC	?deallocate@?$allocator@V?$CRef@VCGrannyMaterial@@@@@std@@QAEXQAV?$CRef@VCGrannyMaterial@@@@I@Z ; std::allocator<CRef<CGrannyMaterial> >::deallocate
PUBLIC	??1?$vector@V?$CRef@VCGrannyMaterial@@@@V?$allocator@V?$CRef@VCGrannyMaterial@@@@@std@@@std@@QAE@XZ ; std::vector<CRef<CGrannyMaterial>,std::allocator<CRef<CGrannyMaterial> > >::~vector<CRef<CGrannyMaterial>,std::allocator<CRef<CGrannyMaterial> > >
PUBLIC	?_Xlength@?$vector@V?$CRef@VCGrannyMaterial@@@@V?$allocator@V?$CRef@VCGrannyMaterial@@@@@std@@@std@@CAXXZ ; std::vector<CRef<CGrannyMaterial>,std::allocator<CRef<CGrannyMaterial> > >::_Xlength
PUBLIC	??_GCGrannyMaterialPalette@@UAEPAXI@Z		; CGrannyMaterialPalette::`scalar deleting destructor'
PUBLIC	?StringPath@CFileNameHelper@@SAXAAV?$basic_string@DU?$char_traits@D@std@@V?$allocator@D@2@@std@@@Z ; CFileNameHelper::StringPath
PUBLIC	??1?$CRef@VCGrannyMaterial@@@@QAE@XZ		; CRef<CGrannyMaterial>::~CRef<CGrannyMaterial>
PUBLIC	??$_Destroy_range@V?$allocator@V?$CRef@VCGrannyMaterial@@@@@std@@@std@@YAXPAV?$CRef@VCGrannyMaterial@@@@QAV1@AAV?$allocator@V?$CRef@VCGrannyMaterial@@@@@0@@Z ; std::_Destroy_range<std::allocator<CRef<CGrannyMaterial> > >
PUBLIC	??$_Assign_counted_range@PAV?$CRef@VCGrannyMaterial@@@@@?$vector@V?$CRef@VCGrannyMaterial@@@@V?$allocator@V?$CRef@VCGrannyMaterial@@@@@std@@@std@@AAEXPAV?$CRef@VCGrannyMaterial@@@@I@Z ; std::vector<CRef<CGrannyMaterial>,std::allocator<CRef<CGrannyMaterial> > >::_Assign_counted_range<CRef<CGrannyMaterial> *>
PUBLIC	??$_Construct@$00PBD@?$basic_string@DU?$char_traits@D@std@@V?$allocator@D@2@@std@@AAEXQBDI@Z ; std::basic_string<char,std::char_traits<char>,std::allocator<char> >::_Construct<1,char const *>
PUBLIC	??$_Uninitialized_copy_n@PAV?$CRef@VCGrannyMaterial@@@@V?$allocator@V?$CRef@VCGrannyMaterial@@@@@std@@@std@@YAPAV?$CRef@VCGrannyMaterial@@@@PAV1@I0AAV?$allocator@V?$CRef@VCGrannyMaterial@@@@@0@@Z ; std::_Uninitialized_copy_n<CRef<CGrannyMaterial> *,std::allocator<CRef<CGrannyMaterial> > >
PUBLIC	??$_Emplace_reallocate@V?$CRef@VCGrannyMaterial@@@@@?$vector@V?$CRef@VCGrannyMaterial@@@@V?$allocator@V?$CRef@VCGrannyMaterial@@@@@std@@@std@@AAEPAV?$CRef@VCGrannyMaterial@@@@QAV2@$$QAV2@@Z ; std::vector<CRef<CGrannyMaterial>,std::allocator<CRef<CGrannyMaterial> > >::_Emplace_reallocate<CRef<CGrannyMaterial> >
PUBLIC	??1?$_Uninitialized_backout_al@V?$allocator@V?$CRef@VCGrannyMaterial@@@@@std@@@std@@QAE@XZ ; std::_Uninitialized_backout_al<std::allocator<CRef<CGrannyMaterial> > >::~_Uninitialized_backout_al<std::allocator<CRef<CGrannyMaterial> > >
PUBLIC	??$_Uninitialized_move@PAV?$CRef@VCGrannyMaterial@@@@V?$allocator@V?$CRef@VCGrannyMaterial@@@@@std@@@std@@YAPAV?$CRef@VCGrannyMaterial@@@@QAV1@0PAV1@AAV?$allocator@V?$CRef@VCGrannyMaterial@@@@@0@@Z ; std::_Uninitialized_move<CRef<CGrannyMaterial> *,std::allocator<CRef<CGrannyMaterial> > >
PUBLIC	??$_Allocate_manually_vector_aligned@U_Default_allocate_traits@std@@@std@@YAPAXI@Z ; std::_Allocate_manually_vector_aligned<std::_Default_allocate_traits>
PUBLIC	?_OptionsStorage@?1??__local_stdio_printf_options@@9@4_KA ; `__local_stdio_printf_options'::`2'::_OptionsStorage
PUBLIC	??_7exception@std@@6B@				; std::exception::`vftable'
PUBLIC	??_C@_0BC@EOODALEL@Unknown?5exception@		; `string'
PUBLIC	??_7bad_alloc@std@@6B@				; std::bad_alloc::`vftable'
PUBLIC	??_7bad_array_new_length@std@@6B@		; std::bad_array_new_length::`vftable'
PUBLIC	??_C@_0BF@KINCDENJ@bad?5array?5new?5length@	; `string'
PUBLIC	__TI3?AVbad_array_new_length@std@@
PUBLIC	__CTA3?AVbad_array_new_length@std@@
PUBLIC	??_R0?AVbad_array_new_length@std@@@8		; std::bad_array_new_length `RTTI Type Descriptor'
PUBLIC	__CT??_R0?AVbad_array_new_length@std@@@8??0bad_array_new_length@std@@QAE@ABV01@@Z12
PUBLIC	??_R0?AVbad_alloc@std@@@8			; std::bad_alloc `RTTI Type Descriptor'
PUBLIC	__CT??_R0?AVbad_alloc@std@@@8??0bad_alloc@std@@QAE@ABV01@@Z12
PUBLIC	??_R0?AVexception@std@@@8			; std::exception `RTTI Type Descriptor'
PUBLIC	__CT??_R0?AVexception@std@@@8??0exception@std@@QAE@ABV01@@Z12
PUBLIC	??_C@_0BA@JFNIOLAK@string?5too?5long@		; `string'
PUBLIC	?ms_matSpecular@CGrannyMaterial@@0UD3DXMATRIX@@A ; CGrannyMaterial::ms_matSpecular
PUBLIC	?ms_v3SpecularTrans@CGrannyMaterial@@0UD3DXVECTOR3@@A ; CGrannyMaterial::ms_v3SpecularTrans
PUBLIC	?ms_akSphereMapInstance@CGrannyMaterial@@0PAVCGraphicImageInstance@@A ; CGrannyMaterial::ms_akSphereMapInstance
PUBLIC	??_7CGrannyMaterial@@6B@			; CGrannyMaterial::`vftable'
PUBLIC	??_7CGrannyMaterialPalette@@6B@			; CGrannyMaterialPalette::`vftable'
PUBLIC	?ms_singleton@?$CSingleton@VCResourceManager@@@@0PAVCResourceManager@@A ; CSingleton<CResourceManager>::ms_singleton
PUBLIC	?ms_singleton@?$CSingleton@VCStateManager@@@@0PAVCStateManager@@A ; CSingleton<CStateManager>::ms_singleton
PUBLIC	?g_fSpecularColor@@3UD3DXCOLOR@@A		; g_fSpecularColor
PUBLIC	??_C@_04HDOCAJNK@?$CFs?$CFs@			; `string'
PUBLIC	??_C@_05BPEPCAMP@Blend@				; `string'
PUBLIC	??_C@_09HNLEFIID@Two?9sided@			; `string'
PUBLIC	??_C@_0BI@CFPLBAOH@invalid?5string?5position@	; `string'
PUBLIC	??_C@_0BA@FOIKENOD@vector?5too?5long@		; `string'
PUBLIC	??_R4exception@std@@6B@				; std::exception::`RTTI Complete Object Locator'
PUBLIC	??_R3exception@std@@8				; std::exception::`RTTI Class Hierarchy Descriptor'
PUBLIC	??_R2exception@std@@8				; std::exception::`RTTI Base Class Array'
PUBLIC	??_R1A@?0A@EA@exception@std@@8			; std::exception::`RTTI Base Class Descriptor at (0,-1,0,64)'
PUBLIC	??_R4bad_alloc@std@@6B@				; std::bad_alloc::`RTTI Complete Object Locator'
PUBLIC	??_R3bad_alloc@std@@8				; std::bad_alloc::`RTTI Class Hierarchy Descriptor'
PUBLIC	??_R2bad_alloc@std@@8				; std::bad_alloc::`RTTI Base Class Array'
PUBLIC	??_R1A@?0A@EA@bad_alloc@std@@8			; std::bad_alloc::`RTTI Base Class Descriptor at (0,-1,0,64)'
PUBLIC	??_R4bad_array_new_length@std@@6B@		; std::bad_array_new_length::`RTTI Complete Object Locator'
PUBLIC	??_R3bad_array_new_length@std@@8		; std::bad_array_new_length::`RTTI Class Hierarchy Descriptor'
PUBLIC	??_R2bad_array_new_length@std@@8		; std::bad_array_new_length::`RTTI Base Class Array'
PUBLIC	??_R1A@?0A@EA@bad_array_new_length@std@@8	; std::bad_array_new_length::`RTTI Base Class Descriptor at (0,-1,0,64)'
PUBLIC	??_R4CGrannyMaterial@@6B@			; CGrannyMaterial::`RTTI Complete Object Locator'
PUBLIC	??_R0?AVCGrannyMaterial@@@8			; CGrannyMaterial `RTTI Type Descriptor'
PUBLIC	??_R3CGrannyMaterial@@8				; CGrannyMaterial::`RTTI Class Hierarchy Descriptor'
PUBLIC	??_R2CGrannyMaterial@@8				; CGrannyMaterial::`RTTI Base Class Array'
PUBLIC	??_R1A@?0A@EA@CGrannyMaterial@@8		; CGrannyMaterial::`RTTI Base Class Descriptor at (0,-1,0,64)'
PUBLIC	??_R1A@?0A@EA@CReferenceObject@@8		; CReferenceObject::`RTTI Base Class Descriptor at (0,-1,0,64)'
PUBLIC	??_R0?AVCReferenceObject@@@8			; CReferenceObject `RTTI Type Descriptor'
PUBLIC	??_R3CReferenceObject@@8			; CReferenceObject::`RTTI Class Hierarchy Descriptor'
PUBLIC	??_R2CReferenceObject@@8			; CReferenceObject::`RTTI Base Class Array'
PUBLIC	??_R4CGrannyMaterialPalette@@6B@		; CGrannyMaterialPalette::`RTTI Complete Object Locator'
PUBLIC	??_R0?AVCGrannyMaterialPalette@@@8		; CGrannyMaterialPalette `RTTI Type Descriptor'
PUBLIC	??_R3CGrannyMaterialPalette@@8			; CGrannyMaterialPalette::`RTTI Class Hierarchy Descriptor'
PUBLIC	??_R2CGrannyMaterialPalette@@8			; CGrannyMaterialPalette::`RTTI Base Class Array'
PUBLIC	??_R1A@?0A@EA@CGrannyMaterialPalette@@8		; CGrannyMaterialPalette::`RTTI Base Class Descriptor at (0,-1,0,64)'
PUBLIC	__real@3f000000
PUBLIC	__real@3f800000
PUBLIC	__real@437f0000
EXTRN	??_L@YGXPAXIIP6EX0@Z1@Z:PROC			; `eh vector constructor iterator'
EXTRN	??_M@YGXPAXIIP6EX0@Z@Z:PROC			; `eh vector destructor iterator'
EXTRN	??2@YAPAXI@Z:PROC				; operator new
EXTRN	??3@YAXPAXI@Z:PROC				; operator delete
EXTRN	_atexit:PROC
EXTRN	___std_terminate:PROC
EXTRN	__imp__GrannyGetMaterialTextureByType@8:PROC
EXTRN	__imp__GrannyFindMatchingMember@16:PROC
EXTRN	__imp__GrannyConvertSingleObject@20:PROC
EXTRN	__invalid_parameter_noinfo_noreturn:PROC
EXTRN	___stdio_common_vsprintf:PROC
EXTRN	__strnicmp:PROC
EXTRN	___std_exception_copy:PROC
EXTRN	___std_exception_destroy:PROC
EXTRN	??_Eexception@std@@UAEPAXI@Z:PROC		; std::exception::`vector deleting destructor'
EXTRN	??_Ebad_alloc@std@@UAEPAXI@Z:PROC		; std::bad_alloc::`vector deleting destructor'
EXTRN	??_Ebad_array_new_length@std@@UAEPAXI@Z:PROC	; std::bad_array_new_length::`vector deleting destructor'
EXTRN	?_Xlength_error@std@@YAXPBD@Z:PROC		; std::_Xlength_error
EXTRN	?_Xout_of_range@std@@YAXPBD@Z:PROC		; std::_Xout_of_range
EXTRN	_tolower:PROC
EXTRN	??0CReferenceObject@@QAE@XZ:PROC		; CReferenceObject::CReferenceObject
EXTRN	??1CReferenceObject@@UAE@XZ:PROC		; CReferenceObject::~CReferenceObject
EXTRN	?AddReference@CReferenceObject@@QAEXXZ:PROC	; CReferenceObject::AddReference
EXTRN	?Release@CReferenceObject@@QAEXXZ:PROC		; CReferenceObject::Release
EXTRN	?OnConstruct@CReferenceObject@@MAEXXZ:PROC	; CReferenceObject::OnConstruct
EXTRN	?OnSelfDestruct@CReferenceObject@@MAEXXZ:PROC	; CReferenceObject::OnSelfDestruct
EXTRN	_D3DXMatrixTranslation@16:PROC
EXTRN	?GetD3DTexture@CGraphicTexture@@QBEPAUIDirect3DTexture9@@XZ:PROC ; CGraphicTexture::GetD3DTexture
EXTRN	?GetTexturePointer@CGraphicImage@@QAEPAVCGraphicTexture@@XZ:PROC ; CGraphicImage::GetTexturePointer
EXTRN	??0CGraphicImageInstance@@QAE@XZ:PROC		; CGraphicImageInstance::CGraphicImageInstance
EXTRN	??1CGraphicImageInstance@@UAE@XZ:PROC		; CGraphicImageInstance::~CGraphicImageInstance
EXTRN	?Destroy@CGraphicImageInstance@@QAEXXZ:PROC	; CGraphicImageInstance::Destroy
EXTRN	?SetImagePointer@CGraphicImageInstance@@QAEXPAVCGraphicImage@@@Z:PROC ; CGraphicImageInstance::SetImagePointer
EXTRN	?GetTexturePointer@CGraphicImageInstance@@QAEPAVCGraphicTexture@@XZ:PROC ; CGraphicImageInstance::GetTexturePointer
EXTRN	??_ECGrannyMaterial@@UAEPAXI@Z:PROC		; CGrannyMaterial::`vector deleting destructor'
EXTRN	??_ECGrannyMaterialPalette@@UAEPAXI@Z:PROC	; CGrannyMaterialPalette::`vector deleting destructor'
EXTRN	?GetResourcePointer@CResourceManager@@QAEPAVCResource@@PBD@Z:PROC ; CResourceManager::GetResourcePointer
EXTRN	?SetRenderState@CStateManager@@QAEXW4_D3DRENDERSTATETYPE@@K@Z:PROC ; CStateManager::SetRenderState
EXTRN	?SetTexture@CStateManager@@QAEXKPAUIDirect3DBaseTexture9@@@Z:PROC ; CStateManager::SetTexture
EXTRN	?SaveTextureStageState@CStateManager@@QAEXKW4_D3DTEXTURESTAGESTATETYPE@@K@Z:PROC ; CStateManager::SaveTextureStageState
EXTRN	?RestoreTextureStageState@CStateManager@@QAEXKW4_D3DTEXTURESTAGESTATETYPE@@@Z:PROC ; CStateManager::RestoreTextureStageState
EXTRN	?SetTextureStageState@CStateManager@@QAEXKW4_D3DTEXTURESTAGESTATETYPE@@K@Z:PROC ; CStateManager::SetTextureStageState
EXTRN	?SaveSamplerState@CStateManager@@QAEXKW4_D3DSAMPLERSTATETYPE@@K@Z:PROC ; CStateManager::SaveSamplerState
EXTRN	?RestoreSamplerState@CStateManager@@QAEXKW4_D3DSAMPLERSTATETYPE@@@Z:PROC ; CStateManager::RestoreSamplerState
EXTRN	?SetTransform@CStateManager@@QAEXW4_D3DTRANSFORMSTATETYPE@@PBU_D3DMATRIX@@@Z:PROC ; CStateManager::SetTransform
EXTRN	?GetRenderState@CStateManager@@QAEKW4_D3DRENDERSTATETYPE@@@Z:PROC ; CStateManager::GetRenderState
EXTRN	?GetModelLocalPath@@YAABV?$basic_string@DU?$char_traits@D@std@@V?$allocator@D@2@@std@@XZ:PROC ; GetModelLocalPath
EXTRN	@__security_check_cookie@4:PROC
EXTRN	__CxxThrowException@8:PROC
EXTRN	___CxxFrameHandler3:PROC
EXTRN	__ftol3:PROC
EXTRN	_memcpy:PROC
EXTRN	_memmove:PROC
EXTRN	??_7type_info@@6B@:QWORD			; type_info::`vftable'
EXTRN	___security_cookie:DWORD
EXTRN	__fltused:DWORD
;	COMDAT ?_OptionsStorage@?1??__local_stdio_printf_options@@9@4_KA
_BSS	SEGMENT
?_OptionsStorage@?1??__local_stdio_printf_options@@9@4_KA DQ 01H DUP (?) ; `__local_stdio_printf_options'::`2'::_OptionsStorage
_BSS	ENDS
_BSS	SEGMENT
?ms_matSpecular@CGrannyMaterial@@0UD3DXMATRIX@@A DB 040H DUP (?) ; CGrannyMaterial::ms_matSpecular
?ms_v3SpecularTrans@CGrannyMaterial@@0UD3DXVECTOR3@@A DB 0cH DUP (?) ; CGrannyMaterial::ms_v3SpecularTrans
?ms_akSphereMapInstance@CGrannyMaterial@@0PAVCGraphicImageInstance@@A DB 0190H DUP (?) ; CGrannyMaterial::ms_akSphereMapInstance
_BSS	ENDS
;	COMDAT ?ms_singleton@?$CSingleton@VCResourceManager@@@@0PAVCResourceManager@@A
_BSS	SEGMENT
?ms_singleton@?$CSingleton@VCResourceManager@@@@0PAVCResourceManager@@A DD 01H DUP (?) ; CSingleton<CResourceManager>::ms_singleton
_BSS	ENDS
;	COMDAT ?ms_singleton@?$CSingleton@VCStateManager@@@@0PAVCStateManager@@A
_BSS	SEGMENT
?ms_singleton@?$CSingleton@VCStateManager@@@@0PAVCStateManager@@A DD 01H DUP (?) ; CSingleton<CStateManager>::ms_singleton
_BSS	ENDS
_BSS	SEGMENT
?g_fSpecularColor@@3UD3DXCOLOR@@A DB 010H DUP (?)	; g_fSpecularColor
_BSS	ENDS
CRT$XCU	SEGMENT
??ms_akSphereMapInstance$initializer$@CGrannyMaterial@@0P6AXXZA@@3P6AXXZA DD FLAT:??__E?ms_akSphereMapInstance@CGrannyMaterial@@0PAVCGraphicImageInstance@@A@@YAXXZ ; ??ms_akSphereMapInstance$initializer$@CGrannyMaterial@@0P6AXXZA@@3P6AXXZA
CRT$XCU	ENDS
;	COMDAT __real@437f0000
CONST	SEGMENT
__real@437f0000 DD 0437f0000r			; 255
CONST	ENDS
;	COMDAT __real@3f800000
CONST	SEGMENT
__real@3f800000 DD 03f800000r			; 1
CONST	ENDS
;	COMDAT __real@3f000000
CONST	SEGMENT
__real@3f000000 DD 03f000000r			; 0.5
CONST	ENDS
;	COMDAT ??_R1A@?0A@EA@CGrannyMaterialPalette@@8
rdata$r	SEGMENT
??_R1A@?0A@EA@CGrannyMaterialPalette@@8 DD FLAT:??_R0?AVCGrannyMaterialPalette@@@8 ; CGrannyMaterialPalette::`RTTI Base Class Descriptor at (0,-1,0,64)'
	DD	00H
	DD	00H
	DD	0ffffffffH
	DD	00H
	DD	040H
	DD	FLAT:??_R3CGrannyMaterialPalette@@8
rdata$r	ENDS
;	COMDAT ??_R2CGrannyMaterialPalette@@8
rdata$r	SEGMENT
??_R2CGrannyMaterialPalette@@8 DD FLAT:??_R1A@?0A@EA@CGrannyMaterialPalette@@8 ; CGrannyMaterialPalette::`RTTI Base Class Array'
rdata$r	ENDS
;	COMDAT ??_R3CGrannyMaterialPalette@@8
rdata$r	SEGMENT
??_R3CGrannyMaterialPalette@@8 DD 00H			; CGrannyMaterialPalette::`RTTI Class Hierarchy Descriptor'
	DD	00H
	DD	01H
	DD	FLAT:??_R2CGrannyMaterialPalette@@8
rdata$r	ENDS
;	COMDAT ??_R0?AVCGrannyMaterialPalette@@@8
data$rs	SEGMENT
??_R0?AVCGrannyMaterialPalette@@@8 DD FLAT:??_7type_info@@6B@ ; CGrannyMaterialPalette `RTTI Type Descriptor'
	DD	00H
	DB	'.?AVCGrannyMaterialPalette@@', 00H
data$rs	ENDS
;	COMDAT ??_R4CGrannyMaterialPalette@@6B@
rdata$r	SEGMENT
??_R4CGrannyMaterialPalette@@6B@ DD 00H			; CGrannyMaterialPalette::`RTTI Complete Object Locator'
	DD	00H
	DD	00H
	DD	FLAT:??_R0?AVCGrannyMaterialPalette@@@8
	DD	FLAT:??_R3CGrannyMaterialPalette@@8
rdata$r	ENDS
;	COMDAT ??_R2CReferenceObject@@8
rdata$r	SEGMENT
??_R2CReferenceObject@@8 DD FLAT:??_R1A@?0A@EA@CReferenceObject@@8 ; CReferenceObject::`RTTI Base Class Array'
rdata$r	ENDS
;	COMDAT ??_R3CReferenceObject@@8
rdata$r	SEGMENT
??_R3CReferenceObject@@8 DD 00H				; CReferenceObject::`RTTI Class Hierarchy Descriptor'
	DD	00H
	DD	01H
	DD	FLAT:??_R2CReferenceObject@@8
rdata$r	ENDS
;	COMDAT ??_R0?AVCReferenceObject@@@8
data$rs	SEGMENT
??_R0?AVCReferenceObject@@@8 DD FLAT:??_7type_info@@6B@	; CReferenceObject `RTTI Type Descriptor'
	DD	00H
	DB	'.?AVCReferenceObject@@', 00H
data$rs	ENDS
;	COMDAT ??_R1A@?0A@EA@CReferenceObject@@8
rdata$r	SEGMENT
??_R1A@?0A@EA@CReferenceObject@@8 DD FLAT:??_R0?AVCReferenceObject@@@8 ; CReferenceObject::`RTTI Base Class Descriptor at (0,-1,0,64)'
	DD	00H
	DD	00H
	DD	0ffffffffH
	DD	00H
	DD	040H
	DD	FLAT:??_R3CReferenceObject@@8
rdata$r	ENDS
;	COMDAT ??_R1A@?0A@EA@CGrannyMaterial@@8
rdata$r	SEGMENT
??_R1A@?0A@EA@CGrannyMaterial@@8 DD FLAT:??_R0?AVCGrannyMaterial@@@8 ; CGrannyMaterial::`RTTI Base Class Descriptor at (0,-1,0,64)'
	DD	01H
	DD	00H
	DD	0ffffffffH
	DD	00H
	DD	040H
	DD	FLAT:??_R3CGrannyMaterial@@8
rdata$r	ENDS
;	COMDAT ??_R2CGrannyMaterial@@8
rdata$r	SEGMENT
??_R2CGrannyMaterial@@8 DD FLAT:??_R1A@?0A@EA@CGrannyMaterial@@8 ; CGrannyMaterial::`RTTI Base Class Array'
	DD	FLAT:??_R1A@?0A@EA@CReferenceObject@@8
rdata$r	ENDS
;	COMDAT ??_R3CGrannyMaterial@@8
rdata$r	SEGMENT
??_R3CGrannyMaterial@@8 DD 00H				; CGrannyMaterial::`RTTI Class Hierarchy Descriptor'
	DD	00H
	DD	02H
	DD	FLAT:??_R2CGrannyMaterial@@8
rdata$r	ENDS
;	COMDAT ??_R0?AVCGrannyMaterial@@@8
data$rs	SEGMENT
??_R0?AVCGrannyMaterial@@@8 DD FLAT:??_7type_info@@6B@	; CGrannyMaterial `RTTI Type Descriptor'
	DD	00H
	DB	'.?AVCGrannyMaterial@@', 00H
data$rs	ENDS
;	COMDAT ??_R4CGrannyMaterial@@6B@
rdata$r	SEGMENT
??_R4CGrannyMaterial@@6B@ DD 00H			; CGrannyMaterial::`RTTI Complete Object Locator'
	DD	00H
	DD	00H
	DD	FLAT:??_R0?AVCGrannyMaterial@@@8
	DD	FLAT:??_R3CGrannyMaterial@@8
rdata$r	ENDS
;	COMDAT ??_R1A@?0A@EA@bad_array_new_length@std@@8
rdata$r	SEGMENT
??_R1A@?0A@EA@bad_array_new_length@std@@8 DD FLAT:??_R0?AVbad_array_new_length@std@@@8 ; std::bad_array_new_length::`RTTI Base Class Descriptor at (0,-1,0,64)'
	DD	02H
	DD	00H
	DD	0ffffffffH
	DD	00H
	DD	040H
	DD	FLAT:??_R3bad_array_new_length@std@@8
rdata$r	ENDS
;	COMDAT ??_R2bad_array_new_length@std@@8
rdata$r	SEGMENT
??_R2bad_array_new_length@std@@8 DD FLAT:??_R1A@?0A@EA@bad_array_new_length@std@@8 ; std::bad_array_new_length::`RTTI Base Class Array'
	DD	FLAT:??_R1A@?0A@EA@bad_alloc@std@@8
	DD	FLAT:??_R1A@?0A@EA@exception@std@@8
rdata$r	ENDS
;	COMDAT ??_R3bad_array_new_length@std@@8
rdata$r	SEGMENT
??_R3bad_array_new_length@std@@8 DD 00H			; std::bad_array_new_length::`RTTI Class Hierarchy Descriptor'
	DD	00H
	DD	03H
	DD	FLAT:??_R2bad_array_new_length@std@@8
rdata$r	ENDS
;	COMDAT ??_R4bad_array_new_length@std@@6B@
rdata$r	SEGMENT
??_R4bad_array_new_length@std@@6B@ DD 00H		; std::bad_array_new_length::`RTTI Complete Object Locator'
	DD	00H
	DD	00H
	DD	FLAT:??_R0?AVbad_array_new_length@std@@@8
	DD	FLAT:??_R3bad_array_new_length@std@@8
rdata$r	ENDS
;	COMDAT ??_R1A@?0A@EA@bad_alloc@std@@8
rdata$r	SEGMENT
??_R1A@?0A@EA@bad_alloc@std@@8 DD FLAT:??_R0?AVbad_alloc@std@@@8 ; std::bad_alloc::`RTTI Base Class Descriptor at (0,-1,0,64)'
	DD	01H
	DD	00H
	DD	0ffffffffH
	DD	00H
	DD	040H
	DD	FLAT:??_R3bad_alloc@std@@8
rdata$r	ENDS
;	COMDAT ??_R2bad_alloc@std@@8
rdata$r	SEGMENT
??_R2bad_alloc@std@@8 DD FLAT:??_R1A@?0A@EA@bad_alloc@std@@8 ; std::bad_alloc::`RTTI Base Class Array'
	DD	FLAT:??_R1A@?0A@EA@exception@std@@8
rdata$r	ENDS
;	COMDAT ??_R3bad_alloc@std@@8
rdata$r	SEGMENT
??_R3bad_alloc@std@@8 DD 00H				; std::bad_alloc::`RTTI Class Hierarchy Descriptor'
	DD	00H
	DD	02H
	DD	FLAT:??_R2bad_alloc@std@@8
rdata$r	ENDS
;	COMDAT ??_R4bad_alloc@std@@6B@
rdata$r	SEGMENT
??_R4bad_alloc@std@@6B@ DD 00H				; std::bad_alloc::`RTTI Complete Object Locator'
	DD	00H
	DD	00H
	DD	FLAT:??_R0?AVbad_alloc@std@@@8
	DD	FLAT:??_R3bad_alloc@std@@8
rdata$r	ENDS
;	COMDAT ??_R1A@?0A@EA@exception@std@@8
rdata$r	SEGMENT
??_R1A@?0A@EA@exception@std@@8 DD FLAT:??_R0?AVexception@std@@@8 ; std::exception::`RTTI Base Class Descriptor at (0,-1,0,64)'
	DD	00H
	DD	00H
	DD	0ffffffffH
	DD	00H
	DD	040H
	DD	FLAT:??_R3exception@std@@8
rdata$r	ENDS
;	COMDAT ??_R2exception@std@@8
rdata$r	SEGMENT
??_R2exception@std@@8 DD FLAT:??_R1A@?0A@EA@exception@std@@8 ; std::exception::`RTTI Base Class Array'
rdata$r	ENDS
;	COMDAT ??_R3exception@std@@8
rdata$r	SEGMENT
??_R3exception@std@@8 DD 00H				; std::exception::`RTTI Class Hierarchy Descriptor'
	DD	00H
	DD	01H
	DD	FLAT:??_R2exception@std@@8
rdata$r	ENDS
;	COMDAT ??_R4exception@std@@6B@
rdata$r	SEGMENT
??_R4exception@std@@6B@ DD 00H				; std::exception::`RTTI Complete Object Locator'
	DD	00H
	DD	00H
	DD	FLAT:??_R0?AVexception@std@@@8
	DD	FLAT:??_R3exception@std@@8
rdata$r	ENDS
;	COMDAT ??_C@_0BA@FOIKENOD@vector?5too?5long@
CONST	SEGMENT
??_C@_0BA@FOIKENOD@vector?5too?5long@ DB 'vector too long', 00H ; `string'
CONST	ENDS
;	COMDAT ??_C@_0BI@CFPLBAOH@invalid?5string?5position@
CONST	SEGMENT
??_C@_0BI@CFPLBAOH@invalid?5string?5position@ DB 'invalid string position'
	DB	00H						; `string'
CONST	ENDS
;	COMDAT ??_C@_09HNLEFIID@Two?9sided@
CONST	SEGMENT
??_C@_09HNLEFIID@Two?9sided@ DB 'Two-sided', 00H	; `string'
CONST	ENDS
;	COMDAT ??_C@_05BPEPCAMP@Blend@
CONST	SEGMENT
??_C@_05BPEPCAMP@Blend@ DB 'Blend', 00H			; `string'
CONST	ENDS
;	COMDAT ??_C@_04HDOCAJNK@?$CFs?$CFs@
CONST	SEGMENT
??_C@_04HDOCAJNK@?$CFs?$CFs@ DB '%s%s', 00H		; `string'
CONST	ENDS
;	COMDAT ?SPECULAR_TRANSLATE_MAX@?1??TranslateSpecularMatrix@CGrannyMaterial@@SAXMMM@Z@4MA
_DATA	SEGMENT
?SPECULAR_TRANSLATE_MAX@?1??TranslateSpecularMatrix@CGrannyMaterial@@SAXMMM@Z@4MA DD 049742400r ; 1e+06 ; `CGrannyMaterial::TranslateSpecularMatrix'::`2'::SPECULAR_TRANSLATE_MAX
_DATA	ENDS
;	COMDAT ??_7CGrannyMaterialPalette@@6B@
CONST	SEGMENT
??_7CGrannyMaterialPalette@@6B@ DD FLAT:??_R4CGrannyMaterialPalette@@6B@ ; CGrannyMaterialPalette::`vftable'
	DD	FLAT:??_ECGrannyMaterialPalette@@UAEPAXI@Z
CONST	ENDS
;	COMDAT ??_7CGrannyMaterial@@6B@
CONST	SEGMENT
??_7CGrannyMaterial@@6B@ DD FLAT:??_R4CGrannyMaterial@@6B@ ; CGrannyMaterial::`vftable'
	DD	FLAT:??_ECGrannyMaterial@@UAEPAXI@Z
	DD	FLAT:?OnConstruct@CReferenceObject@@MAEXXZ
	DD	FLAT:?OnSelfDestruct@CReferenceObject@@MAEXXZ
CONST	ENDS
;	COMDAT ??_C@_0BA@JFNIOLAK@string?5too?5long@
CONST	SEGMENT
??_C@_0BA@JFNIOLAK@string?5too?5long@ DB 'string too long', 00H ; `string'
CONST	ENDS
;	COMDAT __CT??_R0?AVexception@std@@@8??0exception@std@@QAE@ABV01@@Z12
xdata$x	SEGMENT
__CT??_R0?AVexception@std@@@8??0exception@std@@QAE@ABV01@@Z12 DD 00H
	DD	FLAT:??_R0?AVexception@std@@@8
	DD	00H
	DD	0ffffffffH
	ORG $+4
	DD	0cH
	DD	FLAT:??0exception@std@@QAE@ABV01@@Z
xdata$x	ENDS
;	COMDAT ??_R0?AVexception@std@@@8
data$r	SEGMENT
??_R0?AVexception@std@@@8 DD FLAT:??_7type_info@@6B@	; std::exception `RTTI Type Descriptor'
	DD	00H
	DB	'.?AVexception@std@@', 00H
data$r	ENDS
;	COMDAT __CT??_R0?AVbad_alloc@std@@@8??0bad_alloc@std@@QAE@ABV01@@Z12
xdata$x	SEGMENT
__CT??_R0?AVbad_alloc@std@@@8??0bad_alloc@std@@QAE@ABV01@@Z12 DD 010H
	DD	FLAT:??_R0?AVbad_alloc@std@@@8
	DD	00H
	DD	0ffffffffH
	ORG $+4
	DD	0cH
	DD	FLAT:??0bad_alloc@std@@QAE@ABV01@@Z
xdata$x	ENDS
;	COMDAT ??_R0?AVbad_alloc@std@@@8
data$r	SEGMENT
??_R0?AVbad_alloc@std@@@8 DD FLAT:??_7type_info@@6B@	; std::bad_alloc `RTTI Type Descriptor'
	DD	00H
	DB	'.?AVbad_alloc@std@@', 00H
data$r	ENDS
;	COMDAT __CT??_R0?AVbad_array_new_length@std@@@8??0bad_array_new_length@std@@QAE@ABV01@@Z12
xdata$x	SEGMENT
__CT??_R0?AVbad_array_new_length@std@@@8??0bad_array_new_length@std@@QAE@ABV01@@Z12 DD 00H
	DD	FLAT:??_R0?AVbad_array_new_length@std@@@8
	DD	00H
	DD	0ffffffffH
	ORG $+4
	DD	0cH
	DD	FLAT:??0bad_array_new_length@std@@QAE@ABV01@@Z
xdata$x	ENDS
;	COMDAT ??_R0?AVbad_array_new_length@std@@@8
data$r	SEGMENT
??_R0?AVbad_array_new_length@std@@@8 DD FLAT:??_7type_info@@6B@ ; std::bad_array_new_length `RTTI Type Descriptor'
	DD	00H
	DB	'.?AVbad_array_new_length@std@@', 00H
data$r	ENDS
;	COMDAT __CTA3?AVbad_array_new_length@std@@
xdata$x	SEGMENT
__CTA3?AVbad_array_new_length@std@@ DD 03H
	DD	FLAT:__CT??_R0?AVbad_array_new_length@std@@@8??0bad_array_new_length@std@@QAE@ABV01@@Z12
	DD	FLAT:__CT??_R0?AVbad_alloc@std@@@8??0bad_alloc@std@@QAE@ABV01@@Z12
	DD	FLAT:__CT??_R0?AVexception@std@@@8??0exception@std@@QAE@ABV01@@Z12
xdata$x	ENDS
;	COMDAT __TI3?AVbad_array_new_length@std@@
xdata$x	SEGMENT
__TI3?AVbad_array_new_length@std@@ DD 00H
	DD	FLAT:??1bad_array_new_length@std@@UAE@XZ
	DD	00H
	DD	FLAT:__CTA3?AVbad_array_new_length@std@@
xdata$x	ENDS
;	COMDAT ??_C@_0BF@KINCDENJ@bad?5array?5new?5length@
CONST	SEGMENT
??_C@_0BF@KINCDENJ@bad?5array?5new?5length@ DB 'bad array new length', 00H ; `string'
CONST	ENDS
;	COMDAT ??_7bad_array_new_length@std@@6B@
CONST	SEGMENT
??_7bad_array_new_length@std@@6B@ DD FLAT:??_R4bad_array_new_length@std@@6B@ ; std::bad_array_new_length::`vftable'
	DD	FLAT:??_Ebad_array_new_length@std@@UAEPAXI@Z
	DD	FLAT:?what@exception@std@@UBEPBDXZ
CONST	ENDS
;	COMDAT ??_7bad_alloc@std@@6B@
CONST	SEGMENT
??_7bad_alloc@std@@6B@ DD FLAT:??_R4bad_alloc@std@@6B@	; std::bad_alloc::`vftable'
	DD	FLAT:??_Ebad_alloc@std@@UAEPAXI@Z
	DD	FLAT:?what@exception@std@@UBEPBDXZ
CONST	ENDS
;	COMDAT ??_C@_0BC@EOODALEL@Unknown?5exception@
CONST	SEGMENT
??_C@_0BC@EOODALEL@Unknown?5exception@ DB 'Unknown exception', 00H ; `string'
CONST	ENDS
;	COMDAT ??_7exception@std@@6B@
CONST	SEGMENT
??_7exception@std@@6B@ DD FLAT:??_R4exception@std@@6B@	; std::exception::`vftable'
	DD	FLAT:??_Eexception@std@@UAEPAXI@Z
	DD	FLAT:?what@exception@std@@UBEPBDXZ
CONST	ENDS
;	COMDAT xdata$x
xdata$x	SEGMENT
__unwindtable$??$_Uninitialized_move@PAV?$CRef@VCGrannyMaterial@@@@V?$allocator@V?$CRef@VCGrannyMaterial@@@@@std@@@std@@YAPAV?$CRef@VCGrannyMaterial@@@@QAV1@0PAV1@AAV?$allocator@V?$CRef@VCGrannyMaterial@@@@@0@@Z DD 0ffffffffH
	DD	FLAT:__unwindfunclet$??$_Uninitialized_move@PAV?$CRef@VCGrannyMaterial@@@@V?$allocator@V?$CRef@VCGrannyMaterial@@@@@std@@@std@@YAPAV?$CRef@VCGrannyMaterial@@@@QAV1@0PAV1@AAV?$allocator@V?$CRef@VCGrannyMaterial@@@@@0@@Z$0
__ehfuncinfo$??$_Uninitialized_move@PAV?$CRef@VCGrannyMaterial@@@@V?$allocator@V?$CRef@VCGrannyMaterial@@@@@std@@@std@@YAPAV?$CRef@VCGrannyMaterial@@@@QAV1@0PAV1@AAV?$allocator@V?$CRef@VCGrannyMaterial@@@@@0@@Z DD 019930522H
	DD	01H
	DD	FLAT:__unwindtable$??$_Uninitialized_move@PAV?$CRef@VCGrannyMaterial@@@@V?$allocator@V?$CRef@VCGrannyMaterial@@@@@std@@@std@@YAPAV?$CRef@VCGrannyMaterial@@@@QAV1@0PAV1@AAV?$allocator@V?$CRef@VCGrannyMaterial@@@@@0@@Z
	DD	2 DUP(00H)
	DD	2 DUP(00H)
	DD	00H
	DD	01H
xdata$x	ENDS
;	COMDAT xdata$x
xdata$x	SEGMENT
__unwindtable$??$_Uninitialized_copy@PAV?$CRef@VCGrannyMaterial@@@@PAV1@V?$allocator@V?$CRef@VCGrannyMaterial@@@@@std@@@std@@YAPAV?$CRef@VCGrannyMaterial@@@@PAV1@00AAV?$allocator@V?$CRef@VCGrannyMaterial@@@@@0@@Z DD 0ffffffffH
	DD	FLAT:__unwindfunclet$??$_Uninitialized_copy@PAV?$CRef@VCGrannyMaterial@@@@PAV1@V?$allocator@V?$CRef@VCGrannyMaterial@@@@@std@@@std@@YAPAV?$CRef@VCGrannyMaterial@@@@PAV1@00AAV?$allocator@V?$CRef@VCGrannyMaterial@@@@@0@@Z$0
__ehfuncinfo$??$_Uninitialized_copy@PAV?$CRef@VCGrannyMaterial@@@@PAV1@V?$allocator@V?$CRef@VCGrannyMaterial@@@@@std@@@std@@YAPAV?$CRef@VCGrannyMaterial@@@@PAV1@00AAV?$allocator@V?$CRef@VCGrannyMaterial@@@@@0@@Z DD 019930522H
	DD	01H
	DD	FLAT:__unwindtable$??$_Uninitialized_copy@PAV?$CRef@VCGrannyMaterial@@@@PAV1@V?$allocator@V?$CRef@VCGrannyMaterial@@@@@std@@@std@@YAPAV?$CRef@VCGrannyMaterial@@@@PAV1@00AAV?$allocator@V?$CRef@VCGrannyMaterial@@@@@0@@Z
	DD	2 DUP(00H)
	DD	2 DUP(00H)
	DD	00H
	DD	01H
xdata$x	ENDS
;	COMDAT xdata$x
xdata$x	SEGMENT
__catchsym$??$_Emplace_reallocate@V?$CRef@VCGrannyMaterial@@@@@?$vector@V?$CRef@VCGrannyMaterial@@@@V?$allocator@V?$CRef@VCGrannyMaterial@@@@@std@@@std@@AAEPAV?$CRef@VCGrannyMaterial@@@@QAV2@$$QAV2@@Z$3 DD 040H
	DD	00H
	DD	00H
	DD	FLAT:__catch$??$_Emplace_reallocate@V?$CRef@VCGrannyMaterial@@@@@?$vector@V?$CRef@VCGrannyMaterial@@@@V?$allocator@V?$CRef@VCGrannyMaterial@@@@@std@@@std@@AAEPAV?$CRef@VCGrannyMaterial@@@@QAV2@$$QAV2@@Z$0
__tryblocktable$??$_Emplace_reallocate@V?$CRef@VCGrannyMaterial@@@@@?$vector@V?$CRef@VCGrannyMaterial@@@@V?$allocator@V?$CRef@VCGrannyMaterial@@@@@std@@@std@@AAEPAV?$CRef@VCGrannyMaterial@@@@QAV2@$$QAV2@@Z DD 00H
	DD	01H
	DD	02H
	DD	01H
	DD	FLAT:__catchsym$??$_Emplace_reallocate@V?$CRef@VCGrannyMaterial@@@@@?$vector@V?$CRef@VCGrannyMaterial@@@@V?$allocator@V?$CRef@VCGrannyMaterial@@@@@std@@@std@@AAEPAV?$CRef@VCGrannyMaterial@@@@QAV2@$$QAV2@@Z$3
__unwindtable$??$_Emplace_reallocate@V?$CRef@VCGrannyMaterial@@@@@?$vector@V?$CRef@VCGrannyMaterial@@@@V?$allocator@V?$CRef@VCGrannyMaterial@@@@@std@@@std@@AAEPAV?$CRef@VCGrannyMaterial@@@@QAV2@$$QAV2@@Z DD 0ffffffffH
	DD	00H
	DD	00H
	DD	FLAT:__unwindfunclet$??$_Emplace_reallocate@V?$CRef@VCGrannyMaterial@@@@@?$vector@V?$CRef@VCGrannyMaterial@@@@V?$allocator@V?$CRef@VCGrannyMaterial@@@@@std@@@std@@AAEPAV?$CRef@VCGrannyMaterial@@@@QAV2@$$QAV2@@Z$2
	DD	0ffffffffH
	DD	00H
__ehfuncinfo$??$_Emplace_reallocate@V?$CRef@VCGrannyMaterial@@@@@?$vector@V?$CRef@VCGrannyMaterial@@@@V?$allocator@V?$CRef@VCGrannyMaterial@@@@@std@@@std@@AAEPAV?$CRef@VCGrannyMaterial@@@@QAV2@$$QAV2@@Z DD 019930522H
	DD	03H
	DD	FLAT:__unwindtable$??$_Emplace_reallocate@V?$CRef@VCGrannyMaterial@@@@@?$vector@V?$CRef@VCGrannyMaterial@@@@V?$allocator@V?$CRef@VCGrannyMaterial@@@@@std@@@std@@AAEPAV?$CRef@VCGrannyMaterial@@@@QAV2@$$QAV2@@Z
	DD	01H
	DD	FLAT:__tryblocktable$??$_Emplace_reallocate@V?$CRef@VCGrannyMaterial@@@@@?$vector@V?$CRef@VCGrannyMaterial@@@@V?$allocator@V?$CRef@VCGrannyMaterial@@@@@std@@@std@@AAEPAV?$CRef@VCGrannyMaterial@@@@QAV2@$$QAV2@@Z
	DD	2 DUP(00H)
	DD	00H
	DD	01H
xdata$x	ENDS
;	COMDAT xdata$x
xdata$x	SEGMENT
__unwindtable$??$_Uninitialized_copy_n@PAV?$CRef@VCGrannyMaterial@@@@V?$allocator@V?$CRef@VCGrannyMaterial@@@@@std@@@std@@YAPAV?$CRef@VCGrannyMaterial@@@@PAV1@I0AAV?$allocator@V?$CRef@VCGrannyMaterial@@@@@0@@Z DD 0ffffffffH
	DD	FLAT:__unwindfunclet$??$_Uninitialized_copy_n@PAV?$CRef@VCGrannyMaterial@@@@V?$allocator@V?$CRef@VCGrannyMaterial@@@@@std@@@std@@YAPAV?$CRef@VCGrannyMaterial@@@@PAV1@I0AAV?$allocator@V?$CRef@VCGrannyMaterial@@@@@0@@Z$0
__ehfuncinfo$??$_Uninitialized_copy_n@PAV?$CRef@VCGrannyMaterial@@@@V?$allocator@V?$CRef@VCGrannyMaterial@@@@@std@@@std@@YAPAV?$CRef@VCGrannyMaterial@@@@PAV1@I0AAV?$allocator@V?$CRef@VCGrannyMaterial@@@@@0@@Z DD 019930522H
	DD	01H
	DD	FLAT:__unwindtable$??$_Uninitialized_copy_n@PAV?$CRef@VCGrannyMaterial@@@@V?$allocator@V?$CRef@VCGrannyMaterial@@@@@std@@@std@@YAPAV?$CRef@VCGrannyMaterial@@@@PAV1@I0AAV?$allocator@V?$CRef@VCGrannyMaterial@@@@@0@@Z
	DD	2 DUP(00H)
	DD	2 DUP(00H)
	DD	00H
	DD	01H
xdata$x	ENDS
;	COMDAT xdata$x
xdata$x	SEGMENT
__unwindtable$??$destroy@V?$CRef@VCGrannyMaterial@@@@@?$_Default_allocator_traits@V?$allocator@V?$CRef@VCGrannyMaterial@@@@@std@@@std@@SAXAAV?$allocator@V?$CRef@VCGrannyMaterial@@@@@1@QAV?$CRef@VCGrannyMaterial@@@@@Z DD 0ffffffffH
	DD	FLAT:___std_terminate
__ehfuncinfo$??$destroy@V?$CRef@VCGrannyMaterial@@@@@?$_Default_allocator_traits@V?$allocator@V?$CRef@VCGrannyMaterial@@@@@std@@@std@@SAXAAV?$allocator@V?$CRef@VCGrannyMaterial@@@@@1@QAV?$CRef@VCGrannyMaterial@@@@@Z DD 019930522H
	DD	01H
	DD	FLAT:__unwindtable$??$destroy@V?$CRef@VCGrannyMaterial@@@@@?$_Default_allocator_traits@V?$allocator@V?$CRef@VCGrannyMaterial@@@@@std@@@std@@SAXAAV?$allocator@V?$CRef@VCGrannyMaterial@@@@@1@QAV?$CRef@VCGrannyMaterial@@@@@Z
	DD	2 DUP(00H)
	DD	2 DUP(00H)
	DD	00H
	DD	01H
xdata$x	ENDS
;	COMDAT xdata$x
xdata$x	SEGMENT
__unwindtable$??$_Destroy_range@V?$allocator@V?$CRef@VCGrannyMaterial@@@@@std@@@std@@YAXPAV?$CRef@VCGrannyMaterial@@@@QAV1@AAV?$allocator@V?$CRef@VCGrannyMaterial@@@@@0@@Z DD 0ffffffffH
	DD	FLAT:___std_terminate
__ehfuncinfo$??$_Destroy_range@V?$allocator@V?$CRef@VCGrannyMaterial@@@@@std@@@std@@YAXPAV?$CRef@VCGrannyMaterial@@@@QAV1@AAV?$allocator@V?$CRef@VCGrannyMaterial@@@@@0@@Z DD 019930522H
	DD	01H
	DD	FLAT:__unwindtable$??$_Destroy_range@V?$allocator@V?$CRef@VCGrannyMaterial@@@@@std@@@std@@YAXPAV?$CRef@VCGrannyMaterial@@@@QAV1@AAV?$allocator@V?$CRef@VCGrannyMaterial@@@@@0@@Z
	DD	2 DUP(00H)
	DD	2 DUP(00H)
	DD	00H
	DD	05H
xdata$x	ENDS
;	COMDAT xdata$x
xdata$x	SEGMENT
__unwindtable$??_G?$CRef@VCGrannyMaterial@@@@QAEPAXI@Z DD 0ffffffffH
	DD	FLAT:___std_terminate
__ehfuncinfo$??_G?$CRef@VCGrannyMaterial@@@@QAEPAXI@Z DD 019930522H
	DD	01H
	DD	FLAT:__unwindtable$??_G?$CRef@VCGrannyMaterial@@@@QAEPAXI@Z
	DD	2 DUP(00H)
	DD	2 DUP(00H)
	DD	00H
	DD	05H
xdata$x	ENDS
;	COMDAT xdata$x
xdata$x	SEGMENT
__ehfuncinfo$??1?$CRef@VCGrannyMaterial@@@@QAE@XZ DD 019930522H
	DD	00H
	DD	00H
	DD	2 DUP(00H)
	DD	2 DUP(00H)
	DD	00H
	DD	05H
xdata$x	ENDS
;	COMDAT xdata$x
xdata$x	SEGMENT
__unwindtable$?SetMaterialData@CGrannyMaterialPalette@@QAEXPBDABUSMaterialData@@@Z DD 0ffffffffH
	DD	FLAT:__unwindfunclet$?SetMaterialData@CGrannyMaterialPalette@@QAEXPBDABUSMaterialData@@@Z$0
__ehfuncinfo$?SetMaterialData@CGrannyMaterialPalette@@QAEXPBDABUSMaterialData@@@Z DD 019930522H
	DD	01H
	DD	FLAT:__unwindtable$?SetMaterialData@CGrannyMaterialPalette@@QAEXPBDABUSMaterialData@@@Z
	DD	2 DUP(00H)
	DD	2 DUP(00H)
	DD	00H
	DD	01H
xdata$x	ENDS
;	COMDAT xdata$x
xdata$x	SEGMENT
__unwindtable$?SetMaterialImagePointer@CGrannyMaterialPalette@@QAEXPBDPAVCGraphicImage@@@Z DD 0ffffffffH
	DD	FLAT:__unwindfunclet$?SetMaterialImagePointer@CGrannyMaterialPalette@@QAEXPBDPAVCGraphicImage@@@Z$0
__ehfuncinfo$?SetMaterialImagePointer@CGrannyMaterialPalette@@QAEXPBDPAVCGraphicImage@@@Z DD 019930522H
	DD	01H
	DD	FLAT:__unwindtable$?SetMaterialImagePointer@CGrannyMaterialPalette@@QAEXPBDPAVCGraphicImage@@@Z
	DD	2 DUP(00H)
	DD	2 DUP(00H)
	DD	00H
	DD	01H
xdata$x	ENDS
;	COMDAT xdata$x
xdata$x	SEGMENT
__unwindtable$?RegisterMaterial@CGrannyMaterialPalette@@QAEKPAUgranny_material@@@Z DD 0ffffffffH
	DD	FLAT:__unwindfunclet$?RegisterMaterial@CGrannyMaterialPalette@@QAEKPAUgranny_material@@@Z$0
	DD	0ffffffffH
	DD	FLAT:__unwindfunclet$?RegisterMaterial@CGrannyMaterialPalette@@QAEKPAUgranny_material@@@Z$1
	DD	0ffffffffH
	DD	FLAT:___std_terminate
__ehfuncinfo$?RegisterMaterial@CGrannyMaterialPalette@@QAEKPAUgranny_material@@@Z DD 019930522H
	DD	03H
	DD	FLAT:__unwindtable$?RegisterMaterial@CGrannyMaterialPalette@@QAEKPAUgranny_material@@@Z
	DD	2 DUP(00H)
	DD	2 DUP(00H)
	DD	00H
	DD	01H
xdata$x	ENDS
;	COMDAT xdata$x
xdata$x	SEGMENT
__unwindtable$?IsIn@CGrannyMaterial@@QAE_NPBDPAH@Z DD 0ffffffffH
	DD	FLAT:__unwindfunclet$?IsIn@CGrannyMaterial@@QAE_NPBDPAH@Z$0
	DD	00H
	DD	FLAT:__unwindfunclet$?IsIn@CGrannyMaterial@@QAE_NPBDPAH@Z$1
	DD	00H
	DD	FLAT:__unwindfunclet$?IsIn@CGrannyMaterial@@QAE_NPBDPAH@Z$2
__ehfuncinfo$?IsIn@CGrannyMaterial@@QAE_NPBDPAH@Z DD 019930522H
	DD	03H
	DD	FLAT:__unwindtable$?IsIn@CGrannyMaterial@@QAE_NPBDPAH@Z
	DD	2 DUP(00H)
	DD	2 DUP(00H)
	DD	00H
	DD	01H
xdata$x	ENDS
;	COMDAT xdata$x
xdata$x	SEGMENT
__ehfuncinfo$??1CGrannyMaterial@@UAE@XZ DD 019930522H
	DD	00H
	DD	00H
	DD	2 DUP(00H)
	DD	2 DUP(00H)
	DD	00H
	DD	05H
xdata$x	ENDS
;	COMDAT xdata$x
xdata$x	SEGMENT
__unwindtable$??0CGrannyMaterial@@QAE@XZ DD 0ffffffffH
	DD	FLAT:__unwindfunclet$??0CGrannyMaterial@@QAE@XZ$0
	DD	00H
	DD	FLAT:__unwindfunclet$??0CGrannyMaterial@@QAE@XZ$1
__ehfuncinfo$??0CGrannyMaterial@@QAE@XZ DD 019930522H
	DD	02H
	DD	FLAT:__unwindtable$??0CGrannyMaterial@@QAE@XZ
	DD	2 DUP(00H)
	DD	2 DUP(00H)
	DD	00H
	DD	01H
xdata$x	ENDS
;	COMDAT xdata$x
xdata$x	SEGMENT
__ehfuncinfo$??1?$CRef@VCGraphicImage@@@@QAE@XZ DD 019930522H
	DD	00H
	DD	00H
	DD	2 DUP(00H)
	DD	2 DUP(00H)
	DD	00H
	DD	05H
xdata$x	ENDS
; Function compile flags: /Ogtp
; File C:\Program Files\Microsoft Visual Studio\2022\Community\VC\Tools\MSVC\14.34.31933\include\xmemory
;	COMDAT ??$_Allocate_manually_vector_aligned@U_Default_allocate_traits@std@@@std@@YAPAXI@Z
_TEXT	SEGMENT
__Bytes$ = 8						; size = 4
??$_Allocate_manually_vector_aligned@U_Default_allocate_traits@std@@@std@@YAPAXI@Z PROC ; std::_Allocate_manually_vector_aligned<std::_Default_allocate_traits>, COMDAT

; 127  : __declspec(allocator) void* _Allocate_manually_vector_aligned(const size_t _Bytes) {

  00000	55		 push	 ebp
  00001	8b ec		 mov	 ebp, esp

; 128  :     // allocate _Bytes manually aligned to at least _Big_allocation_alignment
; 129  :     const size_t _Block_size = _Non_user_size + _Bytes;

  00003	8b 45 08	 mov	 eax, DWORD PTR __Bytes$[ebp]
  00006	8d 48 23	 lea	 ecx, DWORD PTR [eax+35]

; 130  :     if (_Block_size <= _Bytes) {

  00009	3b c8		 cmp	 ecx, eax
  0000b	0f 86 00 00 00
	00		 jbe	 ?_Throw_bad_array_new_length@std@@YAXXZ ; std::_Throw_bad_array_new_length

; 77   :         return ::operator new(_Bytes);

  00011	51		 push	 ecx
  00012	e8 00 00 00 00	 call	 ??2@YAPAXI@Z		; operator new

; 131  :         _Throw_bad_array_new_length(); // add overflow
; 132  :     }
; 133  : 
; 134  :     const uintptr_t _Ptr_container = reinterpret_cast<uintptr_t>(_Traits::_Allocate(_Block_size));

  00017	8b c8		 mov	 ecx, eax

; 77   :         return ::operator new(_Bytes);

  00019	83 c4 04	 add	 esp, 4

; 135  :     _STL_VERIFY(_Ptr_container != 0, "invalid argument"); // validate even in release since we're doing p[-1]

  0001c	85 c9		 test	 ecx, ecx
  0001e	74 0b		 je	 SHORT $LN7@Allocate_m

; 136  :     void* const _Ptr = reinterpret_cast<void*>((_Ptr_container + _Non_user_size) & ~(_Big_allocation_alignment - 1));

  00020	8d 41 23	 lea	 eax, DWORD PTR [ecx+35]
  00023	83 e0 e0	 and	 eax, -32		; ffffffe0H

; 137  :     static_cast<uintptr_t*>(_Ptr)[-1] = _Ptr_container;

  00026	89 48 fc	 mov	 DWORD PTR [eax-4], ecx

; 138  : 
; 139  : #ifdef _DEBUG
; 140  :     static_cast<uintptr_t*>(_Ptr)[-2] = _Big_allocation_sentinel;
; 141  : #endif // _DEBUG
; 142  :     return _Ptr;
; 143  : }

  00029	5d		 pop	 ebp
  0002a	c3		 ret	 0
$LN7@Allocate_m:

; 135  :     _STL_VERIFY(_Ptr_container != 0, "invalid argument"); // validate even in release since we're doing p[-1]

  0002b	e9 00 00 00 00	 jmp	 __invalid_parameter_noinfo_noreturn
??$_Allocate_manually_vector_aligned@U_Default_allocate_traits@std@@@std@@YAPAXI@Z ENDP ; std::_Allocate_manually_vector_aligned<std::_Default_allocate_traits>
_TEXT	ENDS
; Function compile flags: /Ogtp
; File C:\Program Files\Microsoft Visual Studio\2022\Community\VC\Tools\MSVC\14.34.31933\include\xmemory
; File C:\Users\flourine\Desktop\Xantios\client-src\Code\eterlib\Ref.h
; File C:\Program Files\Microsoft Visual Studio\2022\Community\VC\Tools\MSVC\14.34.31933\include\xmemory
;	COMDAT ??$_Uninitialized_move@PAV?$CRef@VCGrannyMaterial@@@@V?$allocator@V?$CRef@VCGrannyMaterial@@@@@std@@@std@@YAPAV?$CRef@VCGrannyMaterial@@@@QAV1@0PAV1@AAV?$allocator@V?$CRef@VCGrannyMaterial@@@@@0@@Z
_TEXT	SEGMENT
__Backout$ = -24					; size = 12
__$EHRec$ = -12						; size = 12
__First$ = 8						; size = 4
__Last$ = 12						; size = 4
__Dest$ = 16						; size = 4
__Al$ = 20						; size = 4
??$_Uninitialized_move@PAV?$CRef@VCGrannyMaterial@@@@V?$allocator@V?$CRef@VCGrannyMaterial@@@@@std@@@std@@YAPAV?$CRef@VCGrannyMaterial@@@@QAV1@0PAV1@AAV?$allocator@V?$CRef@VCGrannyMaterial@@@@@0@@Z PROC ; std::_Uninitialized_move<CRef<CGrannyMaterial> *,std::allocator<CRef<CGrannyMaterial> > >, COMDAT

; 1788 :     const _InIt _First, const _InIt _Last, _Alloc_ptr_t<_Alloc> _Dest, _Alloc& _Al) {

  00000	55		 push	 ebp
  00001	8b ec		 mov	 ebp, esp
  00003	6a ff		 push	 -1
  00005	68 00 00 00 00	 push	 __ehhandler$??$_Uninitialized_move@PAV?$CRef@VCGrannyMaterial@@@@V?$allocator@V?$CRef@VCGrannyMaterial@@@@@std@@@std@@YAPAV?$CRef@VCGrannyMaterial@@@@QAV1@0PAV1@AAV?$allocator@V?$CRef@VCGrannyMaterial@@@@@0@@Z
  0000a	64 a1 00 00 00
	00		 mov	 eax, DWORD PTR fs:0
  00010	50		 push	 eax
  00011	83 ec 0c	 sub	 esp, 12			; 0000000cH
  00014	53		 push	 ebx
  00015	56		 push	 esi
  00016	57		 push	 edi
  00017	a1 00 00 00 00	 mov	 eax, DWORD PTR ___security_cookie
  0001c	33 c5		 xor	 eax, ebp
  0001e	50		 push	 eax
  0001f	8d 45 f4	 lea	 eax, DWORD PTR __$EHRec$[ebp]
  00022	64 a3 00 00 00
	00		 mov	 DWORD PTR fs:0, eax

; 1652 :     _CONSTEXPR20 _Uninitialized_backout_al(pointer _Dest, _Alloc& _Al_) : _First(_Dest), _Last(_Dest), _Al(_Al_) {}

  00028	8b 7d 10	 mov	 edi, DWORD PTR __Dest$[ebp]
  0002b	8b 45 14	 mov	 eax, DWORD PTR __Al$[ebp]

; 1789 :     // move [_First, _Last) to raw _Dest, using _Al
; 1790 :     // note: only called internally from elsewhere in the STL
; 1791 :     using _Ptrval     = typename _Alloc::value_type*;
; 1792 :     auto _UFirst      = _Get_unwrapped(_First);

  0002e	8b 75 08	 mov	 esi, DWORD PTR __First$[ebp]

; 1652 :     _CONSTEXPR20 _Uninitialized_backout_al(pointer _Dest, _Alloc& _Al_) : _First(_Dest), _Last(_Dest), _Al(_Al_) {}

  00031	89 7d e8	 mov	 DWORD PTR __Backout$[ebp], edi
  00034	89 7d ec	 mov	 DWORD PTR __Backout$[ebp+4], edi
  00037	89 45 f0	 mov	 DWORD PTR __Backout$[ebp+8], eax

; 1793 :     const auto _ULast = _Get_unwrapped(_Last);
; 1794 :     if constexpr (conjunction_v<bool_constant<_Iter_move_cat<decltype(_UFirst), _Ptrval>::_Bitcopy_constructible>,
; 1795 :                       _Uses_default_construct<_Alloc, _Ptrval, decltype(_STD move(*_UFirst))>>) {
; 1796 : #if _HAS_CXX20
; 1797 :         if (!_STD is_constant_evaluated())
; 1798 : #endif // _HAS_CXX20
; 1799 :         {
; 1800 :             _Copy_memmove(_UFirst, _ULast, _Unfancy(_Dest));
; 1801 :             return _Dest + (_ULast - _UFirst);
; 1802 :         }
; 1803 :     }
; 1804 : 
; 1805 :     _Uninitialized_backout_al<_Alloc> _Backout{_Dest, _Al};
; 1806 :     for (; _UFirst != _ULast; ++_UFirst) {

  0003a	8b 5d 0c	 mov	 ebx, DWORD PTR __Last$[ebp]
  0003d	c7 45 fc 00 00
	00 00		 mov	 DWORD PTR __$EHRec$[ebp+8], 0
  00044	3b f3		 cmp	 esi, ebx
  00046	74 2b		 je	 SHORT $LN3@Uninitiali
  00048	0f 1f 84 00 00
	00 00 00	 npad	 8
$LL4@Uninitiali:
; File C:\Users\flourine\Desktop\Xantios\client-src\Code\eterlib\Ref.h

; 32   : 		m_pObject = NULL;

  00050	c7 07 00 00 00
	00		 mov	 DWORD PTR [edi], 0

; 98   : 		m_pObject = pObject;

  00056	8b 0e		 mov	 ecx, DWORD PTR [esi]
  00058	89 0f		 mov	 DWORD PTR [edi], ecx

; 99   : 
; 100  : 		if (m_pObject)

  0005a	85 c9		 test	 ecx, ecx
  0005c	74 05		 je	 SHORT $LN14@Uninitiali

; 101  : 		{
; 102  : 			m_pObject->AddReference();

  0005e	e8 00 00 00 00	 call	 ?AddReference@CReferenceObject@@QAEXXZ ; CReferenceObject::AddReference
$LN14@Uninitiali:
; File C:\Program Files\Microsoft Visual Studio\2022\Community\VC\Tools\MSVC\14.34.31933\include\xmemory

; 1664 :         ++_Last;

  00063	83 c7 04	 add	 edi, 4

; 1793 :     const auto _ULast = _Get_unwrapped(_Last);
; 1794 :     if constexpr (conjunction_v<bool_constant<_Iter_move_cat<decltype(_UFirst), _Ptrval>::_Bitcopy_constructible>,
; 1795 :                       _Uses_default_construct<_Alloc, _Ptrval, decltype(_STD move(*_UFirst))>>) {
; 1796 : #if _HAS_CXX20
; 1797 :         if (!_STD is_constant_evaluated())
; 1798 : #endif // _HAS_CXX20
; 1799 :         {
; 1800 :             _Copy_memmove(_UFirst, _ULast, _Unfancy(_Dest));
; 1801 :             return _Dest + (_ULast - _UFirst);
; 1802 :         }
; 1803 :     }
; 1804 : 
; 1805 :     _Uninitialized_backout_al<_Alloc> _Backout{_Dest, _Al};
; 1806 :     for (; _UFirst != _ULast; ++_UFirst) {

  00066	83 c6 04	 add	 esi, 4

; 1664 :         ++_Last;

  00069	89 7d ec	 mov	 DWORD PTR __Backout$[ebp+4], edi

; 1793 :     const auto _ULast = _Get_unwrapped(_Last);
; 1794 :     if constexpr (conjunction_v<bool_constant<_Iter_move_cat<decltype(_UFirst), _Ptrval>::_Bitcopy_constructible>,
; 1795 :                       _Uses_default_construct<_Alloc, _Ptrval, decltype(_STD move(*_UFirst))>>) {
; 1796 : #if _HAS_CXX20
; 1797 :         if (!_STD is_constant_evaluated())
; 1798 : #endif // _HAS_CXX20
; 1799 :         {
; 1800 :             _Copy_memmove(_UFirst, _ULast, _Unfancy(_Dest));
; 1801 :             return _Dest + (_ULast - _UFirst);
; 1802 :         }
; 1803 :     }
; 1804 : 
; 1805 :     _Uninitialized_backout_al<_Alloc> _Backout{_Dest, _Al};
; 1806 :     for (; _UFirst != _ULast; ++_UFirst) {

  0006c	3b f3		 cmp	 esi, ebx
  0006e	75 e0		 jne	 SHORT $LL4@Uninitiali
  00070	8b 45 14	 mov	 eax, DWORD PTR __Al$[ebp]
$LN3@Uninitiali:

; 1658 :         _Destroy_range(_First, _Last, _Al);

  00073	50		 push	 eax
  00074	57		 push	 edi
  00075	57		 push	 edi
  00076	e8 00 00 00 00	 call	 ??$_Destroy_range@V?$allocator@V?$CRef@VCGrannyMaterial@@@@@std@@@std@@YAXPAV?$CRef@VCGrannyMaterial@@@@QAV1@AAV?$allocator@V?$CRef@VCGrannyMaterial@@@@@0@@Z ; std::_Destroy_range<std::allocator<CRef<CGrannyMaterial> > >
  0007b	83 c4 0c	 add	 esp, 12			; 0000000cH

; 1807 :         _Backout._Emplace_back(_STD move(*_UFirst));
; 1808 :     }
; 1809 : 
; 1810 :     return _Backout._Release();

  0007e	8b c7		 mov	 eax, edi

; 1811 : }

  00080	8b 4d f4	 mov	 ecx, DWORD PTR __$EHRec$[ebp]
  00083	64 89 0d 00 00
	00 00		 mov	 DWORD PTR fs:0, ecx
  0008a	59		 pop	 ecx
  0008b	5f		 pop	 edi
  0008c	5e		 pop	 esi
  0008d	5b		 pop	 ebx
  0008e	8b e5		 mov	 esp, ebp
  00090	5d		 pop	 ebp
  00091	c3		 ret	 0
_TEXT	ENDS
;	COMDAT text$x
text$x	SEGMENT
__unwindfunclet$??$_Uninitialized_move@PAV?$CRef@VCGrannyMaterial@@@@V?$allocator@V?$CRef@VCGrannyMaterial@@@@@std@@@std@@YAPAV?$CRef@VCGrannyMaterial@@@@QAV1@0PAV1@AAV?$allocator@V?$CRef@VCGrannyMaterial@@@@@0@@Z$0:
  00000	8d 4d e8	 lea	 ecx, DWORD PTR __Backout$[ebp]
  00003	e9 00 00 00 00	 jmp	 ??1?$_Uninitialized_backout_al@V?$allocator@V?$CRef@VCGrannyMaterial@@@@@std@@@std@@QAE@XZ ; std::_Uninitialized_backout_al<std::allocator<CRef<CGrannyMaterial> > >::~_Uninitialized_backout_al<std::allocator<CRef<CGrannyMaterial> > >
  00008	cc		 int	 3
  00009	cc		 int	 3
  0000a	cc		 int	 3
  0000b	cc		 int	 3
  0000c	cc		 int	 3
__ehhandler$??$_Uninitialized_move@PAV?$CRef@VCGrannyMaterial@@@@V?$allocator@V?$CRef@VCGrannyMaterial@@@@@std@@@std@@YAPAV?$CRef@VCGrannyMaterial@@@@QAV1@0PAV1@AAV?$allocator@V?$CRef@VCGrannyMaterial@@@@@0@@Z:
  0000d	90		 npad	 1
  0000e	90		 npad	 1
  0000f	8b 54 24 08	 mov	 edx, DWORD PTR [esp+8]
  00013	8d 42 0c	 lea	 eax, DWORD PTR [edx+12]
  00016	8b 4a e4	 mov	 ecx, DWORD PTR [edx-28]
  00019	33 c8		 xor	 ecx, eax
  0001b	e8 00 00 00 00	 call	 @__security_check_cookie@4
  00020	b8 00 00 00 00	 mov	 eax, OFFSET __ehfuncinfo$??$_Uninitialized_move@PAV?$CRef@VCGrannyMaterial@@@@V?$allocator@V?$CRef@VCGrannyMaterial@@@@@std@@@std@@YAPAV?$CRef@VCGrannyMaterial@@@@QAV1@0PAV1@AAV?$allocator@V?$CRef@VCGrannyMaterial@@@@@0@@Z
  00025	e9 00 00 00 00	 jmp	 ___CxxFrameHandler3
text$x	ENDS
??$_Uninitialized_move@PAV?$CRef@VCGrannyMaterial@@@@V?$allocator@V?$CRef@VCGrannyMaterial@@@@@std@@@std@@YAPAV?$CRef@VCGrannyMaterial@@@@QAV1@0PAV1@AAV?$allocator@V?$CRef@VCGrannyMaterial@@@@@0@@Z ENDP ; std::_Uninitialized_move<CRef<CGrannyMaterial> *,std::allocator<CRef<CGrannyMaterial> > >
; Function compile flags: /Ogtp
; File C:\Program Files\Microsoft Visual Studio\2022\Community\VC\Tools\MSVC\14.34.31933\include\xmemory
;	COMDAT ??1?$_Uninitialized_backout_al@V?$allocator@V?$CRef@VCGrannyMaterial@@@@@std@@@std@@QAE@XZ
_TEXT	SEGMENT
??1?$_Uninitialized_backout_al@V?$allocator@V?$CRef@VCGrannyMaterial@@@@@std@@@std@@QAE@XZ PROC ; std::_Uninitialized_backout_al<std::allocator<CRef<CGrannyMaterial> > >::~_Uninitialized_backout_al<std::allocator<CRef<CGrannyMaterial> > >, COMDAT
; _this$ = ecx

; 1658 :         _Destroy_range(_First, _Last, _Al);

  00000	ff 71 08	 push	 DWORD PTR [ecx+8]
  00003	ff 71 04	 push	 DWORD PTR [ecx+4]
  00006	ff 31		 push	 DWORD PTR [ecx]
  00008	e8 00 00 00 00	 call	 ??$_Destroy_range@V?$allocator@V?$CRef@VCGrannyMaterial@@@@@std@@@std@@YAXPAV?$CRef@VCGrannyMaterial@@@@QAV1@AAV?$allocator@V?$CRef@VCGrannyMaterial@@@@@0@@Z ; std::_Destroy_range<std::allocator<CRef<CGrannyMaterial> > >
  0000d	83 c4 0c	 add	 esp, 12			; 0000000cH

; 1659 :     }

  00010	c3		 ret	 0
??1?$_Uninitialized_backout_al@V?$allocator@V?$CRef@VCGrannyMaterial@@@@@std@@@std@@QAE@XZ ENDP ; std::_Uninitialized_backout_al<std::allocator<CRef<CGrannyMaterial> > >::~_Uninitialized_backout_al<std::allocator<CRef<CGrannyMaterial> > >
_TEXT	ENDS
; Function compile flags: /Ogtp
; File C:\Program Files\Microsoft Visual Studio\2022\Community\VC\Tools\MSVC\14.34.31933\include\vector
; File C:\Program Files\Microsoft Visual Studio\2022\Community\VC\Tools\MSVC\14.34.31933\include\xmemory
; File C:\Program Files\Microsoft Visual Studio\2022\Community\VC\Tools\MSVC\14.34.31933\include\vector
; File C:\Program Files\Microsoft Visual Studio\2022\Community\VC\Tools\MSVC\14.34.31933\include\xmemory
; File C:\Program Files\Microsoft Visual Studio\2022\Community\VC\Tools\MSVC\14.34.31933\include\vector
; File C:\Program Files\Microsoft Visual Studio\2022\Community\VC\Tools\MSVC\14.34.31933\include\xmemory
; File C:\Program Files\Microsoft Visual Studio\2022\Community\VC\Tools\MSVC\14.34.31933\include\vector
; File C:\Program Files\Microsoft Visual Studio\2022\Community\VC\Tools\MSVC\14.34.31933\include\xmemory
; File C:\Program Files\Microsoft Visual Studio\2022\Community\VC\Tools\MSVC\14.34.31933\include\vector
; File C:\Users\flourine\Desktop\Xantios\client-src\Code\eterlib\Ref.h
; File C:\Program Files\Microsoft Visual Studio\2022\Community\VC\Tools\MSVC\14.34.31933\include\vector
; File C:\Users\flourine\Desktop\Xantios\client-src\Code\eterlib\Ref.h
; File C:\Program Files\Microsoft Visual Studio\2022\Community\VC\Tools\MSVC\14.34.31933\include\xmemory
; File C:\Program Files\Microsoft Visual Studio\2022\Community\VC\Tools\MSVC\14.34.31933\include\vector
; File C:\Users\flourine\Desktop\Xantios\client-src\Code\eterlib\Ref.h
; File C:\Program Files\Microsoft Visual Studio\2022\Community\VC\Tools\MSVC\14.34.31933\include\vector
; File C:\Program Files\Microsoft Visual Studio\2022\Community\VC\Tools\MSVC\14.34.31933\include\xmemory
; File C:\Users\flourine\Desktop\Xantios\client-src\Code\eterlib\Ref.h
; File C:\Program Files\Microsoft Visual Studio\2022\Community\VC\Tools\MSVC\14.34.31933\include\xmemory
; File C:\Program Files\Microsoft Visual Studio\2022\Community\VC\Tools\MSVC\14.34.31933\include\vector
; File C:\Program Files\Microsoft Visual Studio\2022\Community\VC\Tools\MSVC\14.34.31933\include\xmemory
; File C:\Program Files\Microsoft Visual Studio\2022\Community\VC\Tools\MSVC\14.34.31933\include\vector
; File C:\Program Files\Microsoft Visual Studio\2022\Community\VC\Tools\MSVC\14.34.31933\include\xmemory
; File C:\Program Files\Microsoft Visual Studio\2022\Community\VC\Tools\MSVC\14.34.31933\include\vector
; File C:\Program Files\Microsoft Visual Studio\2022\Community\VC\Tools\MSVC\14.34.31933\include\xmemory
; File C:\Program Files\Microsoft Visual Studio\2022\Community\VC\Tools\MSVC\14.34.31933\include\vector
;	COMDAT ??$_Emplace_reallocate@V?$CRef@VCGrannyMaterial@@@@@?$vector@V?$CRef@VCGrannyMaterial@@@@V?$allocator@V?$CRef@VCGrannyMaterial@@@@@std@@@std@@AAEPAV?$CRef@VCGrannyMaterial@@@@QAV2@$$QAV2@@Z
_TEXT	SEGMENT
__Backout$2 = -64					; size = 12
__Newvec$ = -52						; size = 4
__Constructed_last$ = -48				; size = 4
__Al$ = -44						; size = 4
__Newsize$1$ = -40					; size = 4
tv600 = -36						; size = 4
tv596 = -32						; size = 4
__Whereoff$1$ = -32					; size = 4
__Constructed_first$ = -28				; size = 4
__Newvec$1$ = -24					; size = 4
__Newcapacity$ = -20					; size = 4
__$EHRec$ = -16						; size = 16
__Whereptr$ = 8						; size = 4
__ULast$1$ = 12						; size = 4
_<_Val_0>$ = 12						; size = 4
??$_Emplace_reallocate@V?$CRef@VCGrannyMaterial@@@@@?$vector@V?$CRef@VCGrannyMaterial@@@@V?$allocator@V?$CRef@VCGrannyMaterial@@@@@std@@@std@@AAEPAV?$CRef@VCGrannyMaterial@@@@QAV2@$$QAV2@@Z PROC ; std::vector<CRef<CGrannyMaterial>,std::allocator<CRef<CGrannyMaterial> > >::_Emplace_reallocate<CRef<CGrannyMaterial> >, COMDAT
; _this$ = ecx

; 875  :     _CONSTEXPR20 pointer _Emplace_reallocate(const pointer _Whereptr, _Valty&&... _Val) {

  00000	55		 push	 ebp
  00001	8b ec		 mov	 ebp, esp
  00003	6a ff		 push	 -1
  00005	68 00 00 00 00	 push	 __ehhandler$??$_Emplace_reallocate@V?$CRef@VCGrannyMaterial@@@@@?$vector@V?$CRef@VCGrannyMaterial@@@@V?$allocator@V?$CRef@VCGrannyMaterial@@@@@std@@@std@@AAEPAV?$CRef@VCGrannyMaterial@@@@QAV2@$$QAV2@@Z
  0000a	64 a1 00 00 00
	00		 mov	 eax, DWORD PTR fs:0
  00010	50		 push	 eax
  00011	83 ec 34	 sub	 esp, 52			; 00000034H
  00014	53		 push	 ebx
  00015	56		 push	 esi
  00016	57		 push	 edi
  00017	a1 00 00 00 00	 mov	 eax, DWORD PTR ___security_cookie
  0001c	33 c5		 xor	 eax, ebp
  0001e	50		 push	 eax
  0001f	8d 45 f4	 lea	 eax, DWORD PTR __$EHRec$[ebp+4]
  00022	64 a3 00 00 00
	00		 mov	 DWORD PTR fs:0, eax
  00028	89 65 f0	 mov	 DWORD PTR __$EHRec$[ebp], esp
  0002b	8b d9		 mov	 ebx, ecx

; 876  :         // reallocate and insert by perfectly forwarding _Val at _Whereptr
; 877  :         _Alty& _Al        = _Getal();
; 878  :         auto& _My_data    = _Mypair._Myval2;
; 879  :         pointer& _Myfirst = _My_data._Myfirst;
; 880  :         pointer& _Mylast  = _My_data._Mylast;
; 881  : 
; 882  :         _STL_INTERNAL_CHECK(_Mylast == _My_data._Myend); // check that we have no unused capacity
; 883  : 
; 884  :         const auto _Whereoff = static_cast<size_type>(_Whereptr - _Myfirst);

  0002d	8b 0b		 mov	 ecx, DWORD PTR [ebx]
  0002f	8b 45 08	 mov	 eax, DWORD PTR __Whereptr$[ebp]
  00032	2b c1		 sub	 eax, ecx
  00034	89 5d d4	 mov	 DWORD PTR __Al$[ebp], ebx
  00037	c1 f8 02	 sar	 eax, 2
  0003a	89 45 e0	 mov	 DWORD PTR __Whereoff$1$[ebp], eax

; 885  :         const auto _Oldsize  = static_cast<size_type>(_Mylast - _Myfirst);

  0003d	8b 43 04	 mov	 eax, DWORD PTR [ebx+4]
  00040	2b c1		 sub	 eax, ecx
  00042	c1 f8 02	 sar	 eax, 2

; 886  : 
; 887  :         if (_Oldsize == max_size()) {

  00045	3d ff ff ff 3f	 cmp	 eax, 1073741823		; 3fffffffH
  0004a	0f 84 cf 01 00
	00		 je	 $LN89@Emplace_re

; 1942 :         return static_cast<size_type>(_My_data._Myend - _My_data._Myfirst);

  00050	8b 53 08	 mov	 edx, DWORD PTR [ebx+8]

; 889  :         }
; 890  : 
; 891  :         const size_type _Newsize     = _Oldsize + 1;

  00053	8d 70 01	 lea	 esi, DWORD PTR [eax+1]

; 1942 :         return static_cast<size_type>(_My_data._Myend - _My_data._Myfirst);

  00056	2b d1		 sub	 edx, ecx

; 889  :         }
; 890  : 
; 891  :         const size_type _Newsize     = _Oldsize + 1;

  00058	89 75 d8	 mov	 DWORD PTR __Newsize$1$[ebp], esi

; 1942 :         return static_cast<size_type>(_My_data._Myend - _My_data._Myfirst);

  0005b	c1 fa 02	 sar	 edx, 2

; 2029 :         if (_Oldcapacity > _Max - _Oldcapacity / 2) {

  0005e	b8 ff ff ff 3f	 mov	 eax, 1073741823		; 3fffffffH
  00063	8b ca		 mov	 ecx, edx
  00065	d1 e9		 shr	 ecx, 1
  00067	2b c1		 sub	 eax, ecx
  00069	3b d0		 cmp	 edx, eax
  0006b	76 1c		 jbe	 SHORT $LN12@Emplace_re

; 2030 :             return _Max; // geometric growth would overflow

  0006d	b8 fc ff ff ff	 mov	 eax, -4			; fffffffcH
  00072	c7 45 ec ff ff
	ff 3f		 mov	 DWORD PTR __Newcapacity$[ebp], 1073741823 ; 3fffffffH
; File C:\Program Files\Microsoft Visual Studio\2022\Community\VC\Tools\MSVC\14.34.31933\include\xmemory

; 229  :             return _Allocate_manually_vector_aligned<_Traits>(_Bytes);

  00079	50		 push	 eax
; File C:\Program Files\Microsoft Visual Studio\2022\Community\VC\Tools\MSVC\14.34.31933\include\vector

; 2030 :             return _Max; // geometric growth would overflow

  0007a	89 45 dc	 mov	 DWORD PTR tv600[ebp], eax
; File C:\Program Files\Microsoft Visual Studio\2022\Community\VC\Tools\MSVC\14.34.31933\include\xmemory

; 229  :             return _Allocate_manually_vector_aligned<_Traits>(_Bytes);

  0007d	e8 00 00 00 00	 call	 ??$_Allocate_manually_vector_aligned@U_Default_allocate_traits@std@@@std@@YAPAXI@Z ; std::_Allocate_manually_vector_aligned<std::_Default_allocate_traits>
  00082	83 c4 04	 add	 esp, 4
  00085	8b f0		 mov	 esi, eax
  00087	eb 4d		 jmp	 SHORT $LN86@Emplace_re
$LN12@Emplace_re:
; File C:\Program Files\Microsoft Visual Studio\2022\Community\VC\Tools\MSVC\14.34.31933\include\vector

; 2033 :         const size_type _Geometric = _Oldcapacity + _Oldcapacity / 2;

  00089	8d 04 11	 lea	 eax, DWORD PTR [ecx+edx]
; File C:\Program Files\Microsoft Visual Studio\2022\Community\VC\Tools\MSVC\14.34.31933\include\xmemory

; 60   :         if (_Count > _Max_possible) {

  0008c	8b fe		 mov	 edi, esi
  0008e	3b c6		 cmp	 eax, esi
  00090	0f 43 f8	 cmovae	 edi, eax
  00093	81 ff ff ff ff
	3f		 cmp	 edi, 1073741823		; 3fffffffH
  00099	0f 87 85 01 00
	00		 ja	 $LN90@Emplace_re

; 62   :         }
; 63   :     }
; 64   : 
; 65   :     return _Count * _Ty_size;

  0009f	8d 04 bd 00 00
	00 00		 lea	 eax, DWORD PTR [edi*4]
  000a6	89 7d ec	 mov	 DWORD PTR __Newcapacity$[ebp], edi
  000a9	89 45 dc	 mov	 DWORD PTR tv600[ebp], eax

; 228  :         if (_Bytes >= _Big_allocation_threshold) { // boost the alignment of big allocations to help autovectorization

  000ac	3d 00 10 00 00	 cmp	 eax, 4096		; 00001000H
  000b1	72 0d		 jb	 SHORT $LN24@Emplace_re

; 229  :             return _Allocate_manually_vector_aligned<_Traits>(_Bytes);

  000b3	50		 push	 eax
  000b4	e8 00 00 00 00	 call	 ??$_Allocate_manually_vector_aligned@U_Default_allocate_traits@std@@@std@@YAPAXI@Z ; std::_Allocate_manually_vector_aligned<std::_Default_allocate_traits>
  000b9	83 c4 04	 add	 esp, 4
  000bc	8b f0		 mov	 esi, eax
  000be	eb 16		 jmp	 SHORT $LN86@Emplace_re
$LN24@Emplace_re:

; 230  :         }
; 231  :     }
; 232  : #endif // defined(_M_IX86) || defined(_M_X64)
; 233  : 
; 234  :     if (_Bytes != 0) {

  000c0	85 c0		 test	 eax, eax
  000c2	74 0d		 je	 SHORT $LN25@Emplace_re

; 77   :         return ::operator new(_Bytes);

  000c4	50		 push	 eax
  000c5	e8 00 00 00 00	 call	 ??2@YAPAXI@Z		; operator new
  000ca	83 c4 04	 add	 esp, 4

; 235  :         return _Traits::_Allocate(_Bytes);

  000cd	8b f0		 mov	 esi, eax
  000cf	eb 02		 jmp	 SHORT $LN87@Emplace_re
$LN25@Emplace_re:

; 236  :     }
; 237  : 
; 238  :     return nullptr;

  000d1	33 f6		 xor	 esi, esi
$LN87@Emplace_re:

; 835  :         return static_cast<_Ty*>(_Allocate<_New_alignof<_Ty>>(_Get_size_of_n<sizeof(_Ty)>(_Count)));

  000d3	89 7d ec	 mov	 DWORD PTR __Newcapacity$[ebp], edi
$LN86@Emplace_re:
; File C:\Program Files\Microsoft Visual Studio\2022\Community\VC\Tools\MSVC\14.34.31933\include\vector

; 895  :         const pointer _Constructed_last = _Newvec + _Whereoff + 1;

  000d6	8b 45 e0	 mov	 eax, DWORD PTR __Whereoff$1$[ebp]
  000d9	8d 3c 86	 lea	 edi, DWORD PTR [esi+eax*4]
; File C:\Program Files\Microsoft Visual Studio\2022\Community\VC\Tools\MSVC\14.34.31933\include\xmemory

; 835  :         return static_cast<_Ty*>(_Allocate<_New_alignof<_Ty>>(_Get_size_of_n<sizeof(_Ty)>(_Count)));

  000dc	89 75 e8	 mov	 DWORD PTR __Newvec$1$[ebp], esi
; File C:\Program Files\Microsoft Visual Studio\2022\Community\VC\Tools\MSVC\14.34.31933\include\vector

; 895  :         const pointer _Constructed_last = _Newvec + _Whereoff + 1;

  000df	8d 47 04	 lea	 eax, DWORD PTR [edi+4]
; File C:\Users\flourine\Desktop\Xantios\client-src\Code\eterlib\Ref.h

; 32   : 		m_pObject = NULL;

  000e2	c7 07 00 00 00
	00		 mov	 DWORD PTR [edi], 0
; File C:\Program Files\Microsoft Visual Studio\2022\Community\VC\Tools\MSVC\14.34.31933\include\vector

; 895  :         const pointer _Constructed_last = _Newvec + _Whereoff + 1;

  000e8	89 45 d0	 mov	 DWORD PTR __Constructed_last$[ebp], eax

; 896  :         pointer _Constructed_first      = _Constructed_last;

  000eb	89 45 e4	 mov	 DWORD PTR __Constructed_first$[ebp], eax
; File C:\Users\flourine\Desktop\Xantios\client-src\Code\eterlib\Ref.h

; 33   : 		Initialize(c_rRef.m_pObject);

  000ee	8b 45 0c	 mov	 eax, DWORD PTR _<_Val_0>$[ebp]
; File C:\Program Files\Microsoft Visual Studio\2022\Community\VC\Tools\MSVC\14.34.31933\include\xmemory

; 835  :         return static_cast<_Ty*>(_Allocate<_New_alignof<_Ty>>(_Get_size_of_n<sizeof(_Ty)>(_Count)));

  000f1	89 75 cc	 mov	 DWORD PTR __Newvec$[ebp], esi
; File C:\Program Files\Microsoft Visual Studio\2022\Community\VC\Tools\MSVC\14.34.31933\include\vector

; 895  :         const pointer _Constructed_last = _Newvec + _Whereoff + 1;

  000f4	89 7d e0	 mov	 DWORD PTR tv596[ebp], edi

; 897  : 
; 898  :         _TRY_BEGIN

  000f7	c7 45 fc 00 00
	00 00		 mov	 DWORD PTR __$EHRec$[ebp+12], 0
; File C:\Users\flourine\Desktop\Xantios\client-src\Code\eterlib\Ref.h

; 33   : 		Initialize(c_rRef.m_pObject);

  000fe	8b 08		 mov	 ecx, DWORD PTR [eax]

; 98   : 		m_pObject = pObject;

  00100	89 0f		 mov	 DWORD PTR [edi], ecx

; 99   : 
; 100  : 		if (m_pObject)

  00102	85 c9		 test	 ecx, ecx
  00104	74 05		 je	 SHORT $LN35@Emplace_re

; 101  : 		{
; 102  : 			m_pObject->AddReference();

  00106	e8 00 00 00 00	 call	 ?AddReference@CReferenceObject@@QAEXXZ ; CReferenceObject::AddReference
$LN35@Emplace_re:
; File C:\Program Files\Microsoft Visual Studio\2022\Community\VC\Tools\MSVC\14.34.31933\include\vector

; 902  :         if (_Whereptr == _Mylast) { // at back, provide strong guarantee

  0010b	8b 43 04	 mov	 eax, DWORD PTR [ebx+4]
  0010e	8b 4d 08	 mov	 ecx, DWORD PTR __Whereptr$[ebp]
  00111	89 7d e4	 mov	 DWORD PTR __Constructed_first$[ebp], edi
  00114	8b 3b		 mov	 edi, DWORD PTR [ebx]
  00116	89 45 0c	 mov	 DWORD PTR __ULast$1$[ebp], eax
  00119	3b c8		 cmp	 ecx, eax
  0011b	75 4b		 jne	 SHORT $LN4@Emplace_re
; File C:\Program Files\Microsoft Visual Studio\2022\Community\VC\Tools\MSVC\14.34.31933\include\xmemory

; 1652 :     _CONSTEXPR20 _Uninitialized_backout_al(pointer _Dest, _Alloc& _Al_) : _First(_Dest), _Last(_Dest), _Al(_Al_) {}

  0011d	89 75 c0	 mov	 DWORD PTR __Backout$2[ebp], esi
  00120	89 75 c4	 mov	 DWORD PTR __Backout$2[ebp+4], esi
  00123	89 5d c8	 mov	 DWORD PTR __Backout$2[ebp+8], ebx

; 1715 :     _Uninitialized_backout_al<_Alloc> _Backout{_Dest, _Al};

  00126	c6 45 fc 01	 mov	 BYTE PTR __$EHRec$[ebp+12], 1
  0012a	66 0f 1f 44 00
	00		 npad	 6
$LL61@Emplace_re:

; 1716 :     for (; _UFirst != _ULast; ++_UFirst) {

  00130	3b f8		 cmp	 edi, eax
  00132	74 21		 je	 SHORT $LN60@Emplace_re
; File C:\Users\flourine\Desktop\Xantios\client-src\Code\eterlib\Ref.h

; 32   : 		m_pObject = NULL;

  00134	c7 06 00 00 00
	00		 mov	 DWORD PTR [esi], 0

; 33   : 		Initialize(c_rRef.m_pObject);

  0013a	8b 0f		 mov	 ecx, DWORD PTR [edi]

; 98   : 		m_pObject = pObject;

  0013c	89 0e		 mov	 DWORD PTR [esi], ecx

; 99   : 
; 100  : 		if (m_pObject)

  0013e	85 c9		 test	 ecx, ecx
  00140	74 08		 je	 SHORT $LN71@Emplace_re

; 101  : 		{
; 102  : 			m_pObject->AddReference();

  00142	e8 00 00 00 00	 call	 ?AddReference@CReferenceObject@@QAEXXZ ; CReferenceObject::AddReference
  00147	8b 45 0c	 mov	 eax, DWORD PTR __ULast$1$[ebp]
$LN71@Emplace_re:
; File C:\Program Files\Microsoft Visual Studio\2022\Community\VC\Tools\MSVC\14.34.31933\include\xmemory

; 1664 :         ++_Last;

  0014a	83 c6 04	 add	 esi, 4

; 1716 :     for (; _UFirst != _ULast; ++_UFirst) {

  0014d	83 c7 04	 add	 edi, 4

; 1664 :         ++_Last;

  00150	89 75 c4	 mov	 DWORD PTR __Backout$2[ebp+4], esi

; 1716 :     for (; _UFirst != _ULast; ++_UFirst) {

  00153	eb db		 jmp	 SHORT $LL61@Emplace_re
$LN60@Emplace_re:

; 1658 :         _Destroy_range(_First, _Last, _Al);

  00155	53		 push	 ebx
  00156	56		 push	 esi
  00157	56		 push	 esi
  00158	e8 00 00 00 00	 call	 ??$_Destroy_range@V?$allocator@V?$CRef@VCGrannyMaterial@@@@@std@@@std@@YAXPAV?$CRef@VCGrannyMaterial@@@@QAV1@AAV?$allocator@V?$CRef@VCGrannyMaterial@@@@@0@@Z ; std::_Destroy_range<std::allocator<CRef<CGrannyMaterial> > >
; File C:\Program Files\Microsoft Visual Studio\2022\Community\VC\Tools\MSVC\14.34.31933\include\vector

; 908  :         } else { // provide basic guarantee

  0015d	8b 75 e8	 mov	 esi, DWORD PTR __Newvec$1$[ebp]
; File C:\Program Files\Microsoft Visual Studio\2022\Community\VC\Tools\MSVC\14.34.31933\include\xmemory

; 1658 :         _Destroy_range(_First, _Last, _Al);

  00160	83 c4 0c	 add	 esp, 12			; 0000000cH
; File C:\Program Files\Microsoft Visual Studio\2022\Community\VC\Tools\MSVC\14.34.31933\include\vector

; 908  :         } else { // provide basic guarantee

  00163	8b 7d e0	 mov	 edi, DWORD PTR tv596[ebp]
  00166	eb 25		 jmp	 SHORT $LN5@Emplace_re
$LN4@Emplace_re:

; 909  :             _Uninitialized_move(_Myfirst, _Whereptr, _Newvec, _Al);

  00168	53		 push	 ebx
  00169	56		 push	 esi
  0016a	51		 push	 ecx
  0016b	57		 push	 edi
  0016c	e8 00 00 00 00	 call	 ??$_Uninitialized_move@PAV?$CRef@VCGrannyMaterial@@@@V?$allocator@V?$CRef@VCGrannyMaterial@@@@@std@@@std@@YAPAV?$CRef@VCGrannyMaterial@@@@QAV1@0PAV1@AAV?$allocator@V?$CRef@VCGrannyMaterial@@@@@0@@Z ; std::_Uninitialized_move<CRef<CGrannyMaterial> *,std::allocator<CRef<CGrannyMaterial> > >

; 910  :             _Constructed_first = _Newvec;
; 911  :             _Uninitialized_move(_Whereptr, _Mylast, _Newvec + _Whereoff + 1, _Al);

  00171	8b 7d e0	 mov	 edi, DWORD PTR tv596[ebp]
  00174	83 c4 10	 add	 esp, 16			; 00000010H
  00177	89 75 e4	 mov	 DWORD PTR __Constructed_first$[ebp], esi
  0017a	53		 push	 ebx
  0017b	8d 47 04	 lea	 eax, DWORD PTR [edi+4]
  0017e	50		 push	 eax
  0017f	ff 73 04	 push	 DWORD PTR [ebx+4]
  00182	ff 75 08	 push	 DWORD PTR __Whereptr$[ebp]
  00185	e8 00 00 00 00	 call	 ??$_Uninitialized_move@PAV?$CRef@VCGrannyMaterial@@@@V?$allocator@V?$CRef@VCGrannyMaterial@@@@@std@@@std@@YAPAV?$CRef@VCGrannyMaterial@@@@QAV1@0PAV1@AAV?$allocator@V?$CRef@VCGrannyMaterial@@@@@0@@Z ; std::_Uninitialized_move<CRef<CGrannyMaterial> *,std::allocator<CRef<CGrannyMaterial> > >
  0018a	83 c4 10	 add	 esp, 16			; 00000010H
$LN5@Emplace_re:

; 2086 :         if (_Myfirst) { // destroy and deallocate old array

  0018d	8b 03		 mov	 eax, DWORD PTR [ebx]
  0018f	85 c0		 test	 eax, eax
  00191	74 3b		 je	 SHORT $LN44@Emplace_re

; 2087 :             _Destroy_range(_Myfirst, _Mylast, _Al);

  00193	53		 push	 ebx
  00194	ff 73 04	 push	 DWORD PTR [ebx+4]
  00197	50		 push	 eax
  00198	e8 00 00 00 00	 call	 ??$_Destroy_range@V?$allocator@V?$CRef@VCGrannyMaterial@@@@@std@@@std@@YAXPAV?$CRef@VCGrannyMaterial@@@@QAV1@AAV?$allocator@V?$CRef@VCGrannyMaterial@@@@@0@@Z ; std::_Destroy_range<std::allocator<CRef<CGrannyMaterial> > >

; 2088 :             _ASAN_VECTOR_REMOVE;
; 2089 :             _Al.deallocate(_Myfirst, static_cast<size_type>(_Myend - _Myfirst));

  0019d	8b 4b 08	 mov	 ecx, DWORD PTR [ebx+8]
  001a0	83 c4 0c	 add	 esp, 12			; 0000000cH
  001a3	8b 03		 mov	 eax, DWORD PTR [ebx]
  001a5	2b c8		 sub	 ecx, eax
; File C:\Program Files\Microsoft Visual Studio\2022\Community\VC\Tools\MSVC\14.34.31933\include\xmemory

; 830  :         _Deallocate<_New_alignof<_Ty>>(_Ptr, sizeof(_Ty) * _Count);

  001a7	83 e1 fc	 and	 ecx, -4			; fffffffcH

; 251  :         if (_Bytes >= _Big_allocation_threshold) { // boost the alignment of big allocations to help autovectorization

  001aa	81 f9 00 10 00
	00		 cmp	 ecx, 4096		; 00001000H
  001b0	72 12		 jb	 SHORT $LN54@Emplace_re

; 150  :     const uintptr_t _Ptr_container   = _Ptr_user[-1];

  001b2	8b 50 fc	 mov	 edx, DWORD PTR [eax-4]
  001b5	83 c1 23	 add	 ecx, 35			; 00000023H

; 151  : 
; 152  :     // If the following asserts, it likely means that we are performing
; 153  :     // an aligned delete on memory coming from an unaligned allocation.
; 154  :     _STL_ASSERT(_Ptr_user[-2] == _Big_allocation_sentinel, "invalid argument");
; 155  : 
; 156  :     // Extra paranoia on aligned allocation/deallocation; ensure _Ptr_container is
; 157  :     // in range [_Min_back_shift, _Non_user_size]
; 158  : #ifdef _DEBUG
; 159  :     constexpr uintptr_t _Min_back_shift = 2 * sizeof(void*);
; 160  : #else // ^^^ _DEBUG ^^^ // vvv !_DEBUG vvv
; 161  :     constexpr uintptr_t _Min_back_shift = sizeof(void*);
; 162  : #endif // _DEBUG
; 163  :     const uintptr_t _Back_shift = reinterpret_cast<uintptr_t>(_Ptr) - _Ptr_container;

  001b8	2b c2		 sub	 eax, edx

; 164  :     _STL_VERIFY(_Back_shift >= _Min_back_shift && _Back_shift <= _Non_user_size, "invalid argument");

  001ba	83 c0 fc	 add	 eax, -4			; fffffffcH
  001bd	83 f8 1f	 cmp	 eax, 31			; 0000001fH
  001c0	77 67		 ja	 SHORT $LN51@Emplace_re

; 165  :     _Ptr = reinterpret_cast<void*>(_Ptr_container);

  001c2	8b c2		 mov	 eax, edx
$LN54@Emplace_re:

; 255  :         ::operator delete(_Ptr, _Bytes);

  001c4	51		 push	 ecx
  001c5	50		 push	 eax
  001c6	e8 00 00 00 00	 call	 ??3@YAXPAXI@Z		; operator delete
  001cb	83 c4 08	 add	 esp, 8
$LN44@Emplace_re:
; File C:\Program Files\Microsoft Visual Studio\2022\Community\VC\Tools\MSVC\14.34.31933\include\vector

; 2093 :         _Mylast  = _Newvec + _Newsize;

  001ce	8b 45 d8	 mov	 eax, DWORD PTR __Newsize$1$[ebp]
  001d1	89 33		 mov	 DWORD PTR [ebx], esi
  001d3	8d 0c 86	 lea	 ecx, DWORD PTR [esi+eax*4]

; 917  :         _CATCH_END
; 918  : 
; 919  :         _Change_array(_Newvec, _Newsize, _Newcapacity);
; 920  :         return _Newvec + _Whereoff;

  001d6	8b c7		 mov	 eax, edi

; 2093 :         _Mylast  = _Newvec + _Newsize;

  001d8	89 4b 04	 mov	 DWORD PTR [ebx+4], ecx

; 2094 :         _Myend   = _Newvec + _Newcapacity;

  001db	8b 4d dc	 mov	 ecx, DWORD PTR tv600[ebp]
  001de	03 ce		 add	 ecx, esi
  001e0	89 4b 08	 mov	 DWORD PTR [ebx+8], ecx

; 921  :     }

  001e3	8b 4d f4	 mov	 ecx, DWORD PTR __$EHRec$[ebp+4]
  001e6	64 89 0d 00 00
	00 00		 mov	 DWORD PTR fs:0, ecx
  001ed	59		 pop	 ecx
  001ee	5f		 pop	 edi
  001ef	5e		 pop	 esi
  001f0	5b		 pop	 ebx
  001f1	8b e5		 mov	 esp, ebp
  001f3	5d		 pop	 ebp
  001f4	c2 08 00	 ret	 8
__catch$??$_Emplace_reallocate@V?$CRef@VCGrannyMaterial@@@@@?$vector@V?$CRef@VCGrannyMaterial@@@@V?$allocator@V?$CRef@VCGrannyMaterial@@@@@std@@@std@@AAEPAV?$CRef@VCGrannyMaterial@@@@QAV2@$$QAV2@@Z$0:

; 912  :         }
; 913  :         _CATCH_ALL
; 914  :         _Destroy_range(_Constructed_first, _Constructed_last, _Al);

  001f7	8b 75 d4	 mov	 esi, DWORD PTR __Al$[ebp]
  001fa	56		 push	 esi
  001fb	ff 75 d0	 push	 DWORD PTR __Constructed_last$[ebp]
  001fe	ff 75 e4	 push	 DWORD PTR __Constructed_first$[ebp]
  00201	e8 00 00 00 00	 call	 ??$_Destroy_range@V?$allocator@V?$CRef@VCGrannyMaterial@@@@@std@@@std@@YAXPAV?$CRef@VCGrannyMaterial@@@@QAV1@AAV?$allocator@V?$CRef@VCGrannyMaterial@@@@@0@@Z ; std::_Destroy_range<std::allocator<CRef<CGrannyMaterial> > >
  00206	83 c4 0c	 add	 esp, 12			; 0000000cH

; 915  :         _Al.deallocate(_Newvec, _Newcapacity);

  00209	8b ce		 mov	 ecx, esi
  0020b	ff 75 ec	 push	 DWORD PTR __Newcapacity$[ebp]
  0020e	ff 75 cc	 push	 DWORD PTR __Newvec$[ebp]
  00211	e8 00 00 00 00	 call	 ?deallocate@?$allocator@V?$CRef@VCGrannyMaterial@@@@@std@@QAEXQAV?$CRef@VCGrannyMaterial@@@@I@Z ; std::allocator<CRef<CGrannyMaterial> >::deallocate

; 916  :         _RERAISE;

  00216	6a 00		 push	 0
  00218	6a 00		 push	 0
  0021a	e8 00 00 00 00	 call	 __CxxThrowException@8
$LN89@Emplace_re:

; 888  :             _Xlength();

  0021f	e8 00 00 00 00	 call	 ?_Xlength@?$vector@V?$CRef@VCGrannyMaterial@@@@V?$allocator@V?$CRef@VCGrannyMaterial@@@@@std@@@std@@CAXXZ ; std::vector<CRef<CGrannyMaterial>,std::allocator<CRef<CGrannyMaterial> > >::_Xlength
$LN90@Emplace_re:
; File C:\Program Files\Microsoft Visual Studio\2022\Community\VC\Tools\MSVC\14.34.31933\include\xmemory

; 61   :             _Throw_bad_array_new_length(); // multiply overflow

  00224	e8 00 00 00 00	 call	 ?_Throw_bad_array_new_length@std@@YAXXZ ; std::_Throw_bad_array_new_length
$LN51@Emplace_re:

; 164  :     _STL_VERIFY(_Back_shift >= _Min_back_shift && _Back_shift <= _Non_user_size, "invalid argument");

  00229	e8 00 00 00 00	 call	 __invalid_parameter_noinfo_noreturn
$LN85@Emplace_re:
  0022e	cc		 int	 3
_TEXT	ENDS
;	COMDAT text$x
text$x	SEGMENT
__unwindfunclet$??$_Emplace_reallocate@V?$CRef@VCGrannyMaterial@@@@@?$vector@V?$CRef@VCGrannyMaterial@@@@V?$allocator@V?$CRef@VCGrannyMaterial@@@@@std@@@std@@AAEPAV?$CRef@VCGrannyMaterial@@@@QAV2@$$QAV2@@Z$2:
  00000	8d 4d c0	 lea	 ecx, DWORD PTR __Backout$2[ebp]
  00003	e9 00 00 00 00	 jmp	 ??1?$_Uninitialized_backout_al@V?$allocator@V?$CRef@VCGrannyMaterial@@@@@std@@@std@@QAE@XZ ; std::_Uninitialized_backout_al<std::allocator<CRef<CGrannyMaterial> > >::~_Uninitialized_backout_al<std::allocator<CRef<CGrannyMaterial> > >
  00008	cc		 int	 3
  00009	cc		 int	 3
  0000a	cc		 int	 3
  0000b	cc		 int	 3
  0000c	cc		 int	 3
__ehhandler$??$_Emplace_reallocate@V?$CRef@VCGrannyMaterial@@@@@?$vector@V?$CRef@VCGrannyMaterial@@@@V?$allocator@V?$CRef@VCGrannyMaterial@@@@@std@@@std@@AAEPAV?$CRef@VCGrannyMaterial@@@@QAV2@$$QAV2@@Z:
  0000d	90		 npad	 1
  0000e	90		 npad	 1
  0000f	8b 54 24 08	 mov	 edx, DWORD PTR [esp+8]
  00013	8d 42 0c	 lea	 eax, DWORD PTR [edx+12]
  00016	8b 4a bc	 mov	 ecx, DWORD PTR [edx-68]
  00019	33 c8		 xor	 ecx, eax
  0001b	e8 00 00 00 00	 call	 @__security_check_cookie@4
  00020	b8 00 00 00 00	 mov	 eax, OFFSET __ehfuncinfo$??$_Emplace_reallocate@V?$CRef@VCGrannyMaterial@@@@@?$vector@V?$CRef@VCGrannyMaterial@@@@V?$allocator@V?$CRef@VCGrannyMaterial@@@@@std@@@std@@AAEPAV?$CRef@VCGrannyMaterial@@@@QAV2@$$QAV2@@Z
  00025	e9 00 00 00 00	 jmp	 ___CxxFrameHandler3
text$x	ENDS
??$_Emplace_reallocate@V?$CRef@VCGrannyMaterial@@@@@?$vector@V?$CRef@VCGrannyMaterial@@@@V?$allocator@V?$CRef@VCGrannyMaterial@@@@@std@@@std@@AAEPAV?$CRef@VCGrannyMaterial@@@@QAV2@$$QAV2@@Z ENDP ; std::vector<CRef<CGrannyMaterial>,std::allocator<CRef<CGrannyMaterial> > >::_Emplace_reallocate<CRef<CGrannyMaterial> >
; Function compile flags: /Ogtp
; File C:\Program Files\Microsoft Visual Studio\2022\Community\VC\Tools\MSVC\14.34.31933\include\xmemory
; File C:\Users\flourine\Desktop\Xantios\client-src\Code\eterlib\Ref.h
; File C:\Program Files\Microsoft Visual Studio\2022\Community\VC\Tools\MSVC\14.34.31933\include\xmemory
;	COMDAT ??$_Uninitialized_copy_n@PAV?$CRef@VCGrannyMaterial@@@@V?$allocator@V?$CRef@VCGrannyMaterial@@@@@std@@@std@@YAPAV?$CRef@VCGrannyMaterial@@@@PAV1@I0AAV?$allocator@V?$CRef@VCGrannyMaterial@@@@@0@@Z
_TEXT	SEGMENT
__Backout$ = -24					; size = 12
__$EHRec$ = -12						; size = 12
__First$ = 8						; size = 4
__Count$ = 12						; size = 4
__Dest$ = 16						; size = 4
__Al$ = 20						; size = 4
??$_Uninitialized_copy_n@PAV?$CRef@VCGrannyMaterial@@@@V?$allocator@V?$CRef@VCGrannyMaterial@@@@@std@@@std@@YAPAV?$CRef@VCGrannyMaterial@@@@PAV1@I0AAV?$allocator@V?$CRef@VCGrannyMaterial@@@@@0@@Z PROC ; std::_Uninitialized_copy_n<CRef<CGrannyMaterial> *,std::allocator<CRef<CGrannyMaterial> > >, COMDAT

; 1725 :     _InIt _First, size_t _Count, _Alloc_ptr_t<_Alloc> _Dest, _Alloc& _Al) {

  00000	55		 push	 ebp
  00001	8b ec		 mov	 ebp, esp
  00003	6a ff		 push	 -1
  00005	68 00 00 00 00	 push	 __ehhandler$??$_Uninitialized_copy_n@PAV?$CRef@VCGrannyMaterial@@@@V?$allocator@V?$CRef@VCGrannyMaterial@@@@@std@@@std@@YAPAV?$CRef@VCGrannyMaterial@@@@PAV1@I0AAV?$allocator@V?$CRef@VCGrannyMaterial@@@@@0@@Z
  0000a	64 a1 00 00 00
	00		 mov	 eax, DWORD PTR fs:0
  00010	50		 push	 eax
  00011	83 ec 0c	 sub	 esp, 12			; 0000000cH
  00014	53		 push	 ebx
  00015	56		 push	 esi
  00016	57		 push	 edi
  00017	a1 00 00 00 00	 mov	 eax, DWORD PTR ___security_cookie
  0001c	33 c5		 xor	 eax, ebp
  0001e	50		 push	 eax
  0001f	8d 45 f4	 lea	 eax, DWORD PTR __$EHRec$[ebp]
  00022	64 a3 00 00 00
	00		 mov	 DWORD PTR fs:0, eax

; 1652 :     _CONSTEXPR20 _Uninitialized_backout_al(pointer _Dest, _Alloc& _Al_) : _First(_Dest), _Last(_Dest), _Al(_Al_) {}

  00028	8b 75 10	 mov	 esi, DWORD PTR __Dest$[ebp]
  0002b	8b 45 14	 mov	 eax, DWORD PTR __Al$[ebp]

; 1726 :     // copy _First + [0, _Count) to raw _Dest, using _Al
; 1727 :     // note: only called internally from elsewhere in the STL
; 1728 :     using _Ptrval = typename _Alloc::value_type*;
; 1729 : 
; 1730 :     auto _UFirst = _Get_unwrapped(_STD move(_First));

  0002e	8b 7d 08	 mov	 edi, DWORD PTR __First$[ebp]

; 1652 :     _CONSTEXPR20 _Uninitialized_backout_al(pointer _Dest, _Alloc& _Al_) : _First(_Dest), _Last(_Dest), _Al(_Al_) {}

  00031	89 75 e8	 mov	 DWORD PTR __Backout$[ebp], esi
  00034	89 75 ec	 mov	 DWORD PTR __Backout$[ebp+4], esi
  00037	89 45 f0	 mov	 DWORD PTR __Backout$[ebp+8], eax

; 1731 : 
; 1732 :     constexpr bool _Can_memmove =
; 1733 :         conjunction_v<bool_constant<_Iter_copy_cat<decltype(_UFirst), _Ptrval>::_Bitcopy_constructible>,
; 1734 :             _Uses_default_construct<_Alloc, _Ptrval, decltype(*_UFirst)>>;
; 1735 : 
; 1736 :     if constexpr (_Can_memmove) {
; 1737 : #if _HAS_CXX20
; 1738 :         if (!_STD is_constant_evaluated())
; 1739 : #endif // _HAS_CXX20
; 1740 :         {
; 1741 :             _Copy_memmove_n(_UFirst, _Count, _Unfancy(_Dest));
; 1742 :             _Dest += _Count;
; 1743 :             return _Dest;
; 1744 :         }
; 1745 :     }
; 1746 : 
; 1747 :     _Uninitialized_backout_al<_Alloc> _Backout{_Dest, _Al};
; 1748 :     for (; _Count != 0; ++_UFirst, (void) --_Count) {

  0003a	8b 5d 0c	 mov	 ebx, DWORD PTR __Count$[ebp]
  0003d	c7 45 fc 00 00
	00 00		 mov	 DWORD PTR __$EHRec$[ebp+8], 0
  00044	85 db		 test	 ebx, ebx
  00046	74 2c		 je	 SHORT $LN3@Uninitiali
  00048	0f 1f 84 00 00
	00 00 00	 npad	 8
$LL4@Uninitiali:
; File C:\Users\flourine\Desktop\Xantios\client-src\Code\eterlib\Ref.h

; 32   : 		m_pObject = NULL;

  00050	c7 06 00 00 00
	00		 mov	 DWORD PTR [esi], 0

; 98   : 		m_pObject = pObject;

  00056	8b 0f		 mov	 ecx, DWORD PTR [edi]
  00058	89 0e		 mov	 DWORD PTR [esi], ecx

; 99   : 
; 100  : 		if (m_pObject)

  0005a	85 c9		 test	 ecx, ecx
  0005c	74 05		 je	 SHORT $LN14@Uninitiali

; 101  : 		{
; 102  : 			m_pObject->AddReference();

  0005e	e8 00 00 00 00	 call	 ?AddReference@CReferenceObject@@QAEXXZ ; CReferenceObject::AddReference
$LN14@Uninitiali:
; File C:\Program Files\Microsoft Visual Studio\2022\Community\VC\Tools\MSVC\14.34.31933\include\xmemory

; 1664 :         ++_Last;

  00063	83 c6 04	 add	 esi, 4

; 1731 : 
; 1732 :     constexpr bool _Can_memmove =
; 1733 :         conjunction_v<bool_constant<_Iter_copy_cat<decltype(_UFirst), _Ptrval>::_Bitcopy_constructible>,
; 1734 :             _Uses_default_construct<_Alloc, _Ptrval, decltype(*_UFirst)>>;
; 1735 : 
; 1736 :     if constexpr (_Can_memmove) {
; 1737 : #if _HAS_CXX20
; 1738 :         if (!_STD is_constant_evaluated())
; 1739 : #endif // _HAS_CXX20
; 1740 :         {
; 1741 :             _Copy_memmove_n(_UFirst, _Count, _Unfancy(_Dest));
; 1742 :             _Dest += _Count;
; 1743 :             return _Dest;
; 1744 :         }
; 1745 :     }
; 1746 : 
; 1747 :     _Uninitialized_backout_al<_Alloc> _Backout{_Dest, _Al};
; 1748 :     for (; _Count != 0; ++_UFirst, (void) --_Count) {

  00066	83 c7 04	 add	 edi, 4

; 1664 :         ++_Last;

  00069	89 75 ec	 mov	 DWORD PTR __Backout$[ebp+4], esi

; 1731 : 
; 1732 :     constexpr bool _Can_memmove =
; 1733 :         conjunction_v<bool_constant<_Iter_copy_cat<decltype(_UFirst), _Ptrval>::_Bitcopy_constructible>,
; 1734 :             _Uses_default_construct<_Alloc, _Ptrval, decltype(*_UFirst)>>;
; 1735 : 
; 1736 :     if constexpr (_Can_memmove) {
; 1737 : #if _HAS_CXX20
; 1738 :         if (!_STD is_constant_evaluated())
; 1739 : #endif // _HAS_CXX20
; 1740 :         {
; 1741 :             _Copy_memmove_n(_UFirst, _Count, _Unfancy(_Dest));
; 1742 :             _Dest += _Count;
; 1743 :             return _Dest;
; 1744 :         }
; 1745 :     }
; 1746 : 
; 1747 :     _Uninitialized_backout_al<_Alloc> _Backout{_Dest, _Al};
; 1748 :     for (; _Count != 0; ++_UFirst, (void) --_Count) {

  0006c	83 eb 01	 sub	 ebx, 1
  0006f	75 df		 jne	 SHORT $LL4@Uninitiali
  00071	8b 45 14	 mov	 eax, DWORD PTR __Al$[ebp]
$LN3@Uninitiali:

; 1658 :         _Destroy_range(_First, _Last, _Al);

  00074	50		 push	 eax
  00075	56		 push	 esi
  00076	56		 push	 esi
  00077	e8 00 00 00 00	 call	 ??$_Destroy_range@V?$allocator@V?$CRef@VCGrannyMaterial@@@@@std@@@std@@YAXPAV?$CRef@VCGrannyMaterial@@@@QAV1@AAV?$allocator@V?$CRef@VCGrannyMaterial@@@@@0@@Z ; std::_Destroy_range<std::allocator<CRef<CGrannyMaterial> > >
  0007c	83 c4 0c	 add	 esp, 12			; 0000000cH

; 1749 :         _Backout._Emplace_back(*_UFirst);
; 1750 :     }
; 1751 : 
; 1752 :     return _Backout._Release();

  0007f	8b c6		 mov	 eax, esi

; 1753 : }

  00081	8b 4d f4	 mov	 ecx, DWORD PTR __$EHRec$[ebp]
  00084	64 89 0d 00 00
	00 00		 mov	 DWORD PTR fs:0, ecx
  0008b	59		 pop	 ecx
  0008c	5f		 pop	 edi
  0008d	5e		 pop	 esi
  0008e	5b		 pop	 ebx
  0008f	8b e5		 mov	 esp, ebp
  00091	5d		 pop	 ebp
  00092	c3		 ret	 0
_TEXT	ENDS
;	COMDAT text$x
text$x	SEGMENT
__unwindfunclet$??$_Uninitialized_copy_n@PAV?$CRef@VCGrannyMaterial@@@@V?$allocator@V?$CRef@VCGrannyMaterial@@@@@std@@@std@@YAPAV?$CRef@VCGrannyMaterial@@@@PAV1@I0AAV?$allocator@V?$CRef@VCGrannyMaterial@@@@@0@@Z$0:
  00000	8d 4d e8	 lea	 ecx, DWORD PTR __Backout$[ebp]
  00003	e9 00 00 00 00	 jmp	 ??1?$_Uninitialized_backout_al@V?$allocator@V?$CRef@VCGrannyMaterial@@@@@std@@@std@@QAE@XZ ; std::_Uninitialized_backout_al<std::allocator<CRef<CGrannyMaterial> > >::~_Uninitialized_backout_al<std::allocator<CRef<CGrannyMaterial> > >
  00008	cc		 int	 3
  00009	cc		 int	 3
  0000a	cc		 int	 3
  0000b	cc		 int	 3
  0000c	cc		 int	 3
__ehhandler$??$_Uninitialized_copy_n@PAV?$CRef@VCGrannyMaterial@@@@V?$allocator@V?$CRef@VCGrannyMaterial@@@@@std@@@std@@YAPAV?$CRef@VCGrannyMaterial@@@@PAV1@I0AAV?$allocator@V?$CRef@VCGrannyMaterial@@@@@0@@Z:
  0000d	90		 npad	 1
  0000e	90		 npad	 1
  0000f	8b 54 24 08	 mov	 edx, DWORD PTR [esp+8]
  00013	8d 42 0c	 lea	 eax, DWORD PTR [edx+12]
  00016	8b 4a e4	 mov	 ecx, DWORD PTR [edx-28]
  00019	33 c8		 xor	 ecx, eax
  0001b	e8 00 00 00 00	 call	 @__security_check_cookie@4
  00020	b8 00 00 00 00	 mov	 eax, OFFSET __ehfuncinfo$??$_Uninitialized_copy_n@PAV?$CRef@VCGrannyMaterial@@@@V?$allocator@V?$CRef@VCGrannyMaterial@@@@@std@@@std@@YAPAV?$CRef@VCGrannyMaterial@@@@PAV1@I0AAV?$allocator@V?$CRef@VCGrannyMaterial@@@@@0@@Z
  00025	e9 00 00 00 00	 jmp	 ___CxxFrameHandler3
text$x	ENDS
??$_Uninitialized_copy_n@PAV?$CRef@VCGrannyMaterial@@@@V?$allocator@V?$CRef@VCGrannyMaterial@@@@@std@@@std@@YAPAV?$CRef@VCGrannyMaterial@@@@PAV1@I0AAV?$allocator@V?$CRef@VCGrannyMaterial@@@@@0@@Z ENDP ; std::_Uninitialized_copy_n<CRef<CGrannyMaterial> *,std::allocator<CRef<CGrannyMaterial> > >
; Function compile flags: /Ogtp
; File C:\Program Files\Microsoft Visual Studio\2022\Community\VC\Tools\MSVC\14.34.31933\include\xstring
; File C:\Program Files\Microsoft Visual Studio\2022\Community\VC\Tools\MSVC\14.34.31933\include\xmemory
; File C:\Program Files\Microsoft Visual Studio\2022\Community\VC\Tools\MSVC\14.34.31933\include\utility
; File C:\Program Files\Microsoft Visual Studio\2022\Community\VC\Tools\MSVC\14.34.31933\include\xstring
; File C:\Program Files\Microsoft Visual Studio\2022\Community\VC\Tools\MSVC\14.34.31933\include\xmemory
; File C:\Program Files\Microsoft Visual Studio\2022\Community\VC\Tools\MSVC\14.34.31933\include\xstring
;	COMDAT ??$_Construct@$00PBD@?$basic_string@DU?$char_traits@D@std@@V?$allocator@D@2@@std@@AAEXQBDI@Z
_TEXT	SEGMENT
__Arg$ = 8						; size = 4
$T1 = 12						; size = 4
__Count$ = 12						; size = 4
??$_Construct@$00PBD@?$basic_string@DU?$char_traits@D@std@@V?$allocator@D@2@@std@@AAEXQBDI@Z PROC ; std::basic_string<char,std::char_traits<char>,std::allocator<char> >::_Construct<1,char const *>, COMDAT
; _this$ = ecx

; 2730 :     _CONSTEXPR20 void _Construct(const _Char_or_ptr _Arg, _CRT_GUARDOVERFLOW const size_type _Count) {

  00000	55		 push	 ebp
  00001	8b ec		 mov	 ebp, esp
  00003	53		 push	 ebx
  00004	57		 push	 edi

; 2731 :         auto& _My_data = _Mypair._Myval2;
; 2732 :         _STL_INTERNAL_CHECK(!_My_data._Large_string_engaged());
; 2733 : 
; 2734 :         if constexpr (_Strat == _Construct_strategy::_From_char) {
; 2735 :             _STL_INTERNAL_STATIC_ASSERT(is_same_v<_Char_or_ptr, _Elem>);
; 2736 :         } else {
; 2737 :             _STL_INTERNAL_STATIC_ASSERT(_Is_elem_cptr<_Char_or_ptr>::value);
; 2738 :         }
; 2739 : 
; 2740 :         if (_Count > max_size()) {

  00005	8b 7d 0c	 mov	 edi, DWORD PTR __Count$[ebp]
  00008	8b d9		 mov	 ebx, ecx
  0000a	81 ff ff ff ff
	7f		 cmp	 edi, 2147483647		; 7fffffffH
  00010	0f 87 9f 00 00
	00		 ja	 $LN29@Construct

; 2742 :         }
; 2743 : 
; 2744 :         auto& _Al       = _Getal();
; 2745 :         auto&& _Alproxy = _GET_PROXY_ALLOCATOR(_Alty, _Al);
; 2746 :         _Container_proxy_ptr<_Alty> _Proxy(_Alproxy, _My_data);
; 2747 : 
; 2748 :         if (_Count < _BUF_SIZE) {

  00016	c7 43 14 0f 00
	00 00		 mov	 DWORD PTR [ebx+20], 15	; 0000000fH
  0001d	83 ff 10	 cmp	 edi, 16			; 00000010H
  00020	73 1a		 jae	 SHORT $LN3@Construct

; 117  :         _CSTD memmove(_First1, _First2, _Count * sizeof(_Elem));

  00022	57		 push	 edi
  00023	ff 75 08	 push	 DWORD PTR __Arg$[ebp]

; 2749 :             _My_data._Mysize = _Count;

  00026	89 7b 10	 mov	 DWORD PTR [ebx+16], edi

; 117  :         _CSTD memmove(_First1, _First2, _Count * sizeof(_Elem));

  00029	53		 push	 ebx
  0002a	e8 00 00 00 00	 call	 _memmove
  0002f	83 c4 0c	 add	 esp, 12			; 0000000cH

; 2750 :             _My_data._Myres  = _BUF_SIZE - 1;
; 2751 :             if constexpr (_Strat == _Construct_strategy::_From_char) {
; 2752 :                 _Traits::assign(_My_data._Bx._Buf, _Count, _Arg);
; 2753 :                 _Traits::assign(_My_data._Bx._Buf[_Count], _Elem());
; 2754 :             } else if constexpr (_Strat == _Construct_strategy::_From_ptr) {
; 2755 :                 _Traits::move(_My_data._Bx._Buf, _Arg, _Count);
; 2756 :                 _Traits::assign(_My_data._Bx._Buf[_Count], _Elem());

  00032	c6 04 1f 00	 mov	 BYTE PTR [edi+ebx], 0
  00036	5f		 pop	 edi

; 2789 :         } else { // _Strat == _Construct_strategy::_From_string
; 2790 :             _Traits::copy(_Unfancy(_New_ptr), _Arg, _Count + 1);
; 2791 :         }
; 2792 : 
; 2793 :         _ASAN_STRING_CREATE(*this);
; 2794 :         _Proxy._Release();
; 2795 :     }

  00037	5b		 pop	 ebx
  00038	5d		 pop	 ebp
  00039	c2 08 00	 ret	 8
$LN3@Construct:
  0003c	56		 push	 esi

; 4883 :         const size_type _Masked = _Requested | _ALLOC_MASK;

  0003d	8b f7		 mov	 esi, edi
  0003f	83 ce 0f	 or	 esi, 15			; 0000000fH
  00042	81 fe ff ff ff
	7f		 cmp	 esi, 2147483647		; 7fffffffH

; 4884 :         if (_Masked > _Max) { // the mask overflows, settle for max_size()

  00048	76 15		 jbe	 SHORT $LN10@Construct

; 4885 :             return _Max;

  0004a	b8 00 00 00 80	 mov	 eax, -2147483648	; 80000000H
  0004f	be ff ff ff 7f	 mov	 esi, 2147483647		; 7fffffffH
; File C:\Program Files\Microsoft Visual Studio\2022\Community\VC\Tools\MSVC\14.34.31933\include\xmemory

; 229  :             return _Allocate_manually_vector_aligned<_Traits>(_Bytes);

  00054	50		 push	 eax
  00055	e8 00 00 00 00	 call	 ??$_Allocate_manually_vector_aligned@U_Default_allocate_traits@std@@@std@@YAPAXI@Z ; std::_Allocate_manually_vector_aligned<std::_Default_allocate_traits>
  0005a	83 c4 04	 add	 esp, 4
  0005d	eb 30		 jmp	 SHORT $LN27@Construct
$LN10@Construct:
; File C:\Program Files\Microsoft Visual Studio\2022\Community\VC\Tools\MSVC\14.34.31933\include\utility

; 43   :     return _Left < _Right ? _Right : _Left;

  0005f	b8 16 00 00 00	 mov	 eax, 22			; 00000016H
  00064	3b f0		 cmp	 esi, eax
  00066	0f 42 f0	 cmovb	 esi, eax
; File C:\Program Files\Microsoft Visual Studio\2022\Community\VC\Tools\MSVC\14.34.31933\include\xstring

; 2772 :         const pointer _New_ptr        = _Al.allocate(_New_capacity + 1); // throws

  00069	8d 46 01	 lea	 eax, DWORD PTR [esi+1]
; File C:\Program Files\Microsoft Visual Studio\2022\Community\VC\Tools\MSVC\14.34.31933\include\xmemory

; 228  :         if (_Bytes >= _Big_allocation_threshold) { // boost the alignment of big allocations to help autovectorization

  0006c	3d 00 10 00 00	 cmp	 eax, 4096		; 00001000H
  00071	72 0b		 jb	 SHORT $LN18@Construct

; 229  :             return _Allocate_manually_vector_aligned<_Traits>(_Bytes);

  00073	50		 push	 eax
  00074	e8 00 00 00 00	 call	 ??$_Allocate_manually_vector_aligned@U_Default_allocate_traits@std@@@std@@YAPAXI@Z ; std::_Allocate_manually_vector_aligned<std::_Default_allocate_traits>
  00079	83 c4 04	 add	 esp, 4
  0007c	eb 11		 jmp	 SHORT $LN27@Construct
$LN18@Construct:

; 230  :         }
; 231  :     }
; 232  : #endif // defined(_M_IX86) || defined(_M_X64)
; 233  : 
; 234  :     if (_Bytes != 0) {

  0007e	85 c0		 test	 eax, eax
  00080	74 0b		 je	 SHORT $LN19@Construct

; 77   :         return ::operator new(_Bytes);

  00082	50		 push	 eax
  00083	e8 00 00 00 00	 call	 ??2@YAPAXI@Z		; operator new
  00088	83 c4 04	 add	 esp, 4

; 235  :         return _Traits::_Allocate(_Bytes);

  0008b	eb 02		 jmp	 SHORT $LN27@Construct
$LN19@Construct:

; 236  :     }
; 237  : 
; 238  :     return nullptr;

  0008d	33 c0		 xor	 eax, eax
$LN27@Construct:
; File C:\Program Files\Microsoft Visual Studio\2022\Community\VC\Tools\MSVC\14.34.31933\include\xstring

; 64   :         _CSTD memcpy(_First1, _First2, _Count * sizeof(_Elem));

  0008f	57		 push	 edi
  00090	ff 75 08	 push	 DWORD PTR __Arg$[ebp]

; 2773 :         _Construct_in_place(_My_data._Bx._Ptr, _New_ptr);

  00093	89 45 0c	 mov	 DWORD PTR $T1[ebp], eax

; 64   :         _CSTD memcpy(_First1, _First2, _Count * sizeof(_Elem));

  00096	50		 push	 eax

; 2773 :         _Construct_in_place(_My_data._Bx._Ptr, _New_ptr);

  00097	89 03		 mov	 DWORD PTR [ebx], eax

; 2774 : 
; 2775 : #if _HAS_CXX20
; 2776 :         if (_STD is_constant_evaluated()) { // Begin the lifetimes of the objects before copying to avoid UB
; 2777 :             _Traits::assign(_Unfancy(_New_ptr), _New_capacity + 1, _Elem());
; 2778 :         }
; 2779 : #endif // _HAS_CXX20
; 2780 : 
; 2781 :         _My_data._Mysize = _Count;

  00099	89 7b 10	 mov	 DWORD PTR [ebx+16], edi

; 2782 :         _My_data._Myres  = _New_capacity;

  0009c	89 73 14	 mov	 DWORD PTR [ebx+20], esi

; 64   :         _CSTD memcpy(_First1, _First2, _Count * sizeof(_Elem));

  0009f	e8 00 00 00 00	 call	 _memcpy

; 2783 :         if constexpr (_Strat == _Construct_strategy::_From_char) {
; 2784 :             _Traits::assign(_Unfancy(_New_ptr), _Count, _Arg);
; 2785 :             _Traits::assign(_Unfancy(_New_ptr)[_Count], _Elem());
; 2786 :         } else if constexpr (_Strat == _Construct_strategy::_From_ptr) {
; 2787 :             _Traits::copy(_Unfancy(_New_ptr), _Arg, _Count);
; 2788 :             _Traits::assign(_Unfancy(_New_ptr)[_Count], _Elem());

  000a4	8b 45 0c	 mov	 eax, DWORD PTR $T1[ebp]

; 64   :         _CSTD memcpy(_First1, _First2, _Count * sizeof(_Elem));

  000a7	83 c4 0c	 add	 esp, 12			; 0000000cH

; 2783 :         if constexpr (_Strat == _Construct_strategy::_From_char) {
; 2784 :             _Traits::assign(_Unfancy(_New_ptr), _Count, _Arg);
; 2785 :             _Traits::assign(_Unfancy(_New_ptr)[_Count], _Elem());
; 2786 :         } else if constexpr (_Strat == _Construct_strategy::_From_ptr) {
; 2787 :             _Traits::copy(_Unfancy(_New_ptr), _Arg, _Count);
; 2788 :             _Traits::assign(_Unfancy(_New_ptr)[_Count], _Elem());

  000aa	5e		 pop	 esi
  000ab	c6 04 38 00	 mov	 BYTE PTR [eax+edi], 0
  000af	5f		 pop	 edi

; 2789 :         } else { // _Strat == _Construct_strategy::_From_string
; 2790 :             _Traits::copy(_Unfancy(_New_ptr), _Arg, _Count + 1);
; 2791 :         }
; 2792 : 
; 2793 :         _ASAN_STRING_CREATE(*this);
; 2794 :         _Proxy._Release();
; 2795 :     }

  000b0	5b		 pop	 ebx
  000b1	5d		 pop	 ebp
  000b2	c2 08 00	 ret	 8
$LN29@Construct:

; 2741 :             _Xlen_string(); // result too long

  000b5	e8 00 00 00 00	 call	 ?_Xlen_string@std@@YAXXZ ; std::_Xlen_string
$LN26@Construct:
  000ba	cc		 int	 3
??$_Construct@$00PBD@?$basic_string@DU?$char_traits@D@std@@V?$allocator@D@2@@std@@AAEXQBDI@Z ENDP ; std::basic_string<char,std::char_traits<char>,std::allocator<char> >::_Construct<1,char const *>
_TEXT	ENDS
; Function compile flags: /Ogtp
; File C:\Program Files\Microsoft Visual Studio\2022\Community\VC\Tools\MSVC\14.34.31933\include\vector
; File C:\Program Files\Microsoft Visual Studio\2022\Community\VC\Tools\MSVC\14.34.31933\include\xmemory
; File C:\Program Files\Microsoft Visual Studio\2022\Community\VC\Tools\MSVC\14.34.31933\include\vector
; File C:\Program Files\Microsoft Visual Studio\2022\Community\VC\Tools\MSVC\14.34.31933\include\xmemory
; File C:\Program Files\Microsoft Visual Studio\2022\Community\VC\Tools\MSVC\14.34.31933\include\vector
; File C:\Program Files\Microsoft Visual Studio\2022\Community\VC\Tools\MSVC\14.34.31933\include\xmemory
; File C:\Program Files\Microsoft Visual Studio\2022\Community\VC\Tools\MSVC\14.34.31933\include\vector
; File C:\Users\flourine\Desktop\Xantios\client-src\Code\eterlib\Ref.h
; File C:\Program Files\Microsoft Visual Studio\2022\Community\VC\Tools\MSVC\14.34.31933\include\vector
; File C:\Program Files\Microsoft Visual Studio\2022\Community\VC\Tools\MSVC\14.34.31933\include\xutility
; File C:\Users\flourine\Desktop\Xantios\client-src\Code\eterlib\Ref.h
; File C:\Program Files\Microsoft Visual Studio\2022\Community\VC\Tools\MSVC\14.34.31933\include\xutility
; File C:\Program Files\Microsoft Visual Studio\2022\Community\VC\Tools\MSVC\14.34.31933\include\vector
; File C:\Program Files\Microsoft Visual Studio\2022\Community\VC\Tools\MSVC\14.34.31933\include\xmemory
; File C:\Program Files\Microsoft Visual Studio\2022\Community\VC\Tools\MSVC\14.34.31933\include\vector
;	COMDAT ??$_Assign_counted_range@PAV?$CRef@VCGrannyMaterial@@@@@?$vector@V?$CRef@VCGrannyMaterial@@@@V?$allocator@V?$CRef@VCGrannyMaterial@@@@@std@@@std@@AAEXPAV?$CRef@VCGrannyMaterial@@@@I@Z
_TEXT	SEGMENT
__Newlast$1$ = -4					; size = 4
__Oldsize$1$ = -4					; size = 4
__First$1$ = 8						; size = 4
_pOldObject$1$ = 8					; size = 4
__First$ = 8						; size = 4
_pOldObject$1$ = 12					; size = 4
__Newcapacity$1$ = 12					; size = 4
__Newsize$ = 12						; size = 4
??$_Assign_counted_range@PAV?$CRef@VCGrannyMaterial@@@@@?$vector@V?$CRef@VCGrannyMaterial@@@@V?$allocator@V?$CRef@VCGrannyMaterial@@@@@std@@@std@@AAEXPAV?$CRef@VCGrannyMaterial@@@@I@Z PROC ; std::vector<CRef<CGrannyMaterial>,std::allocator<CRef<CGrannyMaterial> > >::_Assign_counted_range<CRef<CGrannyMaterial> *>, COMDAT
; _this$ = ecx

; 1444 :     _CONSTEXPR20 void _Assign_counted_range(_Iter _First, const size_type _Newsize) {

  00000	55		 push	 ebp
  00001	8b ec		 mov	 ebp, esp
  00003	51		 push	 ecx
  00004	53		 push	 ebx

; 1445 :         // assign elements from counted range _First + [0, _Newsize)
; 1446 :         auto& _Al         = _Getal();
; 1447 :         auto& _My_data    = _Mypair._Myval2;
; 1448 :         pointer& _Myfirst = _My_data._Myfirst;
; 1449 :         pointer& _Mylast  = _My_data._Mylast;
; 1450 :         pointer& _Myend   = _My_data._Myend;
; 1451 : 
; 1452 :         constexpr bool _Nothrow_construct = conjunction_v<is_nothrow_constructible<_Ty, _Iter_ref_t<_Iter>>,
; 1453 :             _Uses_default_construct<_Alloc, _Ty*, _Iter_ref_t<_Iter>>>;
; 1454 : 
; 1455 :         _My_data._Orphan_all();
; 1456 :         const auto _Oldcapacity = static_cast<size_type>(_Myend - _Myfirst);
; 1457 :         if (_Newsize > _Oldcapacity) {

  00005	8b 5d 0c	 mov	 ebx, DWORD PTR __Newsize$[ebp]
  00008	56		 push	 esi
  00009	57		 push	 edi
  0000a	8b f9		 mov	 edi, ecx
  0000c	8b 4f 08	 mov	 ecx, DWORD PTR [edi+8]
  0000f	8b 37		 mov	 esi, DWORD PTR [edi]
  00011	2b ce		 sub	 ecx, esi
  00013	c1 f9 02	 sar	 ecx, 2
  00016	3b d9		 cmp	 ebx, ecx
  00018	0f 86 e8 00 00
	00		 jbe	 $LN5@Assign_cou

; 1721 :         if (_Newsize > max_size()) {

  0001e	81 fb ff ff ff
	3f		 cmp	 ebx, 1073741823		; 3fffffffH
  00024	0f 87 a6 01 00
	00		 ja	 $LN82@Assign_cou

; 2029 :         if (_Oldcapacity > _Max - _Oldcapacity / 2) {

  0002a	8b d1		 mov	 edx, ecx
  0002c	b8 ff ff ff 3f	 mov	 eax, 1073741823		; 3fffffffH
  00031	d1 ea		 shr	 edx, 1
  00033	2b c2		 sub	 eax, edx
  00035	3b c8		 cmp	 ecx, eax
  00037	76 09		 jbe	 SHORT $LN21@Assign_cou

; 2030 :             return _Max; // geometric growth would overflow

  00039	c7 45 0c ff ff
	ff 3f		 mov	 DWORD PTR __Newcapacity$1$[ebp], 1073741823 ; 3fffffffH
  00040	eb 0b		 jmp	 SHORT $LN22@Assign_cou
$LN21@Assign_cou:

; 2031 :         }
; 2032 : 
; 2033 :         const size_type _Geometric = _Oldcapacity + _Oldcapacity / 2;

  00042	8d 04 0a	 lea	 eax, DWORD PTR [edx+ecx]

; 2034 : 
; 2035 :         if (_Geometric < _Newsize) {

  00045	3b c3		 cmp	 eax, ebx
  00047	0f 42 c3	 cmovb	 eax, ebx
  0004a	89 45 0c	 mov	 DWORD PTR __Newcapacity$1$[ebp], eax
$LN22@Assign_cou:

; 1727 :         if (_Myfirst) { // destroy and deallocate old array

  0004d	85 f6		 test	 esi, esi
  0004f	74 53		 je	 SHORT $LN18@Assign_cou

; 1728 :             _Destroy_range(_Myfirst, _Mylast, _Al);

  00051	57		 push	 edi
  00052	ff 77 04	 push	 DWORD PTR [edi+4]
  00055	56		 push	 esi
  00056	e8 00 00 00 00	 call	 ??$_Destroy_range@V?$allocator@V?$CRef@VCGrannyMaterial@@@@@std@@@std@@YAXPAV?$CRef@VCGrannyMaterial@@@@QAV1@AAV?$allocator@V?$CRef@VCGrannyMaterial@@@@@0@@Z ; std::_Destroy_range<std::allocator<CRef<CGrannyMaterial> > >

; 1729 :             _ASAN_VECTOR_REMOVE;
; 1730 :             _Al.deallocate(_Myfirst, static_cast<size_type>(_Myend - _Myfirst));

  0005b	8b 4f 08	 mov	 ecx, DWORD PTR [edi+8]
  0005e	83 c4 0c	 add	 esp, 12			; 0000000cH
  00061	8b 07		 mov	 eax, DWORD PTR [edi]
  00063	2b c8		 sub	 ecx, eax
; File C:\Program Files\Microsoft Visual Studio\2022\Community\VC\Tools\MSVC\14.34.31933\include\xmemory

; 830  :         _Deallocate<_New_alignof<_Ty>>(_Ptr, sizeof(_Ty) * _Count);

  00065	83 e1 fc	 and	 ecx, -4			; fffffffcH

; 251  :         if (_Bytes >= _Big_allocation_threshold) { // boost the alignment of big allocations to help autovectorization

  00068	81 f9 00 10 00
	00		 cmp	 ecx, 4096		; 00001000H
  0006e	72 16		 jb	 SHORT $LN56@Assign_cou

; 150  :     const uintptr_t _Ptr_container   = _Ptr_user[-1];

  00070	8b 50 fc	 mov	 edx, DWORD PTR [eax-4]
  00073	83 c1 23	 add	 ecx, 35			; 00000023H

; 151  : 
; 152  :     // If the following asserts, it likely means that we are performing
; 153  :     // an aligned delete on memory coming from an unaligned allocation.
; 154  :     _STL_ASSERT(_Ptr_user[-2] == _Big_allocation_sentinel, "invalid argument");
; 155  : 
; 156  :     // Extra paranoia on aligned allocation/deallocation; ensure _Ptr_container is
; 157  :     // in range [_Min_back_shift, _Non_user_size]
; 158  : #ifdef _DEBUG
; 159  :     constexpr uintptr_t _Min_back_shift = 2 * sizeof(void*);
; 160  : #else // ^^^ _DEBUG ^^^ // vvv !_DEBUG vvv
; 161  :     constexpr uintptr_t _Min_back_shift = sizeof(void*);
; 162  : #endif // _DEBUG
; 163  :     const uintptr_t _Back_shift = reinterpret_cast<uintptr_t>(_Ptr) - _Ptr_container;

  00076	2b c2		 sub	 eax, edx

; 164  :     _STL_VERIFY(_Back_shift >= _Min_back_shift && _Back_shift <= _Non_user_size, "invalid argument");

  00078	83 c0 fc	 add	 eax, -4			; fffffffcH
  0007b	83 f8 1f	 cmp	 eax, 31			; 0000001fH
  0007e	0f 87 56 01 00
	00		 ja	 $LN53@Assign_cou

; 165  :     _Ptr = reinterpret_cast<void*>(_Ptr_container);

  00084	8b c2		 mov	 eax, edx
$LN56@Assign_cou:

; 255  :         ::operator delete(_Ptr, _Bytes);

  00086	51		 push	 ecx
  00087	50		 push	 eax
  00088	e8 00 00 00 00	 call	 ??3@YAXPAXI@Z		; operator delete
; File C:\Program Files\Microsoft Visual Studio\2022\Community\VC\Tools\MSVC\14.34.31933\include\vector

; 1732 :             _Myfirst = nullptr;

  0008d	c7 07 00 00 00
	00		 mov	 DWORD PTR [edi], 0
; File C:\Program Files\Microsoft Visual Studio\2022\Community\VC\Tools\MSVC\14.34.31933\include\xmemory

; 255  :         ::operator delete(_Ptr, _Bytes);

  00093	83 c4 08	 add	 esp, 8
; File C:\Program Files\Microsoft Visual Studio\2022\Community\VC\Tools\MSVC\14.34.31933\include\vector

; 1733 :             _Mylast  = nullptr;

  00096	c7 47 04 00 00
	00 00		 mov	 DWORD PTR [edi+4], 0

; 1734 :             _Myend   = nullptr;

  0009d	c7 47 08 00 00
	00 00		 mov	 DWORD PTR [edi+8], 0
$LN18@Assign_cou:
; File C:\Program Files\Microsoft Visual Studio\2022\Community\VC\Tools\MSVC\14.34.31933\include\xmemory

; 60   :         if (_Count > _Max_possible) {

  000a4	8b 45 0c	 mov	 eax, DWORD PTR __Newcapacity$1$[ebp]
  000a7	3d ff ff ff 3f	 cmp	 eax, 1073741823		; 3fffffffH
  000ac	0f 87 23 01 00
	00		 ja	 $LN83@Assign_cou

; 62   :         }
; 63   :     }
; 64   : 
; 65   :     return _Count * _Ty_size;

  000b2	8d 34 85 00 00
	00 00		 lea	 esi, DWORD PTR [eax*4]

; 228  :         if (_Bytes >= _Big_allocation_threshold) { // boost the alignment of big allocations to help autovectorization

  000b9	81 fe 00 10 00
	00		 cmp	 esi, 4096		; 00001000H
  000bf	72 0d		 jb	 SHORT $LN35@Assign_cou

; 229  :             return _Allocate_manually_vector_aligned<_Traits>(_Bytes);

  000c1	56		 push	 esi
  000c2	e8 00 00 00 00	 call	 ??$_Allocate_manually_vector_aligned@U_Default_allocate_traits@std@@@std@@YAPAXI@Z ; std::_Allocate_manually_vector_aligned<std::_Default_allocate_traits>
  000c7	83 c4 04	 add	 esp, 4
  000ca	8b c8		 mov	 ecx, eax
  000cc	eb 13		 jmp	 SHORT $LN34@Assign_cou
$LN35@Assign_cou:

; 230  :         }
; 231  :     }
; 232  : #endif // defined(_M_IX86) || defined(_M_X64)
; 233  : 
; 234  :     if (_Bytes != 0) {

  000ce	85 f6		 test	 esi, esi
  000d0	74 0d		 je	 SHORT $LN36@Assign_cou

; 77   :         return ::operator new(_Bytes);

  000d2	56		 push	 esi
  000d3	e8 00 00 00 00	 call	 ??2@YAPAXI@Z		; operator new
  000d8	83 c4 04	 add	 esp, 4

; 235  :         return _Traits::_Allocate(_Bytes);

  000db	8b c8		 mov	 ecx, eax
  000dd	eb 02		 jmp	 SHORT $LN34@Assign_cou
$LN36@Assign_cou:

; 236  :     }
; 237  : 
; 238  :     return nullptr;

  000df	33 c9		 xor	 ecx, ecx
$LN34@Assign_cou:
; File C:\Program Files\Microsoft Visual Studio\2022\Community\VC\Tools\MSVC\14.34.31933\include\vector

; 1464 :                 _Mylast = _Uninitialized_copy_n(_STD move(_First), _Newsize, _Myfirst, _Al);

  000e1	57		 push	 edi
  000e2	51		 push	 ecx

; 2053 :         _Myfirst           = _Newvec;

  000e3	89 0f		 mov	 DWORD PTR [edi], ecx

; 2055 :         _Myend             = _Newvec + _Newcapacity;

  000e5	8d 04 0e	 lea	 eax, DWORD PTR [esi+ecx]

; 1464 :                 _Mylast = _Uninitialized_copy_n(_STD move(_First), _Newsize, _Myfirst, _Al);

  000e8	53		 push	 ebx
  000e9	ff 75 08	 push	 DWORD PTR __First$[ebp]

; 2054 :         _Mylast            = _Newvec;

  000ec	89 4f 04	 mov	 DWORD PTR [edi+4], ecx

; 2055 :         _Myend             = _Newvec + _Newcapacity;

  000ef	89 47 08	 mov	 DWORD PTR [edi+8], eax

; 1464 :                 _Mylast = _Uninitialized_copy_n(_STD move(_First), _Newsize, _Myfirst, _Al);

  000f2	e8 00 00 00 00	 call	 ??$_Uninitialized_copy_n@PAV?$CRef@VCGrannyMaterial@@@@V?$allocator@V?$CRef@VCGrannyMaterial@@@@@std@@@std@@YAPAV?$CRef@VCGrannyMaterial@@@@PAV1@I0AAV?$allocator@V?$CRef@VCGrannyMaterial@@@@@0@@Z ; std::_Uninitialized_copy_n<CRef<CGrannyMaterial> *,std::allocator<CRef<CGrannyMaterial> > >
  000f7	83 c4 10	 add	 esp, 16			; 00000010H
  000fa	89 47 04	 mov	 DWORD PTR [edi+4], eax
  000fd	5f		 pop	 edi

; 1504 :     }

  000fe	5e		 pop	 esi
  000ff	5b		 pop	 ebx
  00100	8b e5		 mov	 esp, ebp
  00102	5d		 pop	 ebp
  00103	c2 08 00	 ret	 8
$LN5@Assign_cou:

; 1465 :             }
; 1466 :             return;
; 1467 :         }
; 1468 : 
; 1469 :         const auto _Oldsize = static_cast<size_type>(_Mylast - _Myfirst);

  00106	8b 47 04	 mov	 eax, DWORD PTR [edi+4]
  00109	8b c8		 mov	 ecx, eax
  0010b	2b ce		 sub	 ecx, esi
  0010d	c1 f9 02	 sar	 ecx, 2
  00110	89 4d fc	 mov	 DWORD PTR __Oldsize$1$[ebp], ecx

; 1470 :         if (_Newsize > _Oldsize) {

  00113	3b d9		 cmp	 ebx, ecx
  00115	76 56		 jbe	 SHORT $LN6@Assign_cou

; 1484 :                 for (auto _Mid = _Myfirst; _Mid != _Mylast; ++_Mid, (void) ++_First) {

  00117	8b 5d 08	 mov	 ebx, DWORD PTR __First$[ebp]
  0011a	3b f0		 cmp	 esi, eax
  0011c	74 32		 je	 SHORT $LN3@Assign_cou
  0011e	66 90		 npad	 2
$LL4@Assign_cou:
; File C:\Users\flourine\Desktop\Xantios\client-src\Code\eterlib\Ref.h

; 69   : 		m_pObject = pObject;

  00120	8b 0b		 mov	 ecx, DWORD PTR [ebx]
  00122	8b 06		 mov	 eax, DWORD PTR [esi]
  00124	89 45 08	 mov	 DWORD PTR _pOldObject$1$[ebp], eax
  00127	89 0e		 mov	 DWORD PTR [esi], ecx

; 70   : 
; 71   : 		if (m_pObject)

  00129	85 c9		 test	 ecx, ecx
  0012b	74 08		 je	 SHORT $LN13@Assign_cou

; 72   : 		{
; 73   : 			m_pObject->AddReference();

  0012d	e8 00 00 00 00	 call	 ?AddReference@CReferenceObject@@QAEXXZ ; CReferenceObject::AddReference
  00132	8b 45 08	 mov	 eax, DWORD PTR _pOldObject$1$[ebp]
$LN13@Assign_cou:

; 74   : 		}
; 75   : 
; 76   : 		if (pOldObject)

  00135	85 c0		 test	 eax, eax
  00137	74 07		 je	 SHORT $LN2@Assign_cou

; 77   : 		{
; 78   : 			pOldObject->Release();

  00139	8b c8		 mov	 ecx, eax
  0013b	e8 00 00 00 00	 call	 ?Release@CReferenceObject@@QAEXXZ ; CReferenceObject::Release
$LN2@Assign_cou:
; File C:\Program Files\Microsoft Visual Studio\2022\Community\VC\Tools\MSVC\14.34.31933\include\vector

; 1484 :                 for (auto _Mid = _Myfirst; _Mid != _Mylast; ++_Mid, (void) ++_First) {

  00140	8b 47 04	 mov	 eax, DWORD PTR [edi+4]
  00143	83 c6 04	 add	 esi, 4
  00146	83 c3 04	 add	 ebx, 4
  00149	3b f0		 cmp	 esi, eax
  0014b	75 d3		 jne	 SHORT $LL4@Assign_cou
  0014d	8b 4d fc	 mov	 ecx, DWORD PTR __Oldsize$1$[ebp]
$LN3@Assign_cou:

; 1485 :                     *_Mid = *_First;
; 1486 :                 }
; 1487 :             }
; 1488 : 
; 1489 :             if constexpr (_Nothrow_construct) {
; 1490 :                 _ASAN_VECTOR_MODIFY(static_cast<difference_type>(_Newsize - _Oldsize));
; 1491 :                 _Mylast = _Uninitialized_copy_n(_STD move(_First), _Newsize - _Oldsize, _Mylast, _Al);
; 1492 :             } else {
; 1493 :                 _ASAN_VECTOR_EXTEND_GUARD(_Newsize);
; 1494 :                 _Mylast = _Uninitialized_copy_n(_STD move(_First), _Newsize - _Oldsize, _Mylast, _Al);

  00150	57		 push	 edi
  00151	50		 push	 eax
  00152	8b 45 0c	 mov	 eax, DWORD PTR __Newsize$[ebp]
  00155	2b c1		 sub	 eax, ecx
  00157	50		 push	 eax
  00158	53		 push	 ebx
  00159	e8 00 00 00 00	 call	 ??$_Uninitialized_copy_n@PAV?$CRef@VCGrannyMaterial@@@@V?$allocator@V?$CRef@VCGrannyMaterial@@@@@std@@@std@@YAPAV?$CRef@VCGrannyMaterial@@@@PAV1@I0AAV?$allocator@V?$CRef@VCGrannyMaterial@@@@@0@@Z ; std::_Uninitialized_copy_n<CRef<CGrannyMaterial> *,std::allocator<CRef<CGrannyMaterial> > >
  0015e	83 c4 10	 add	 esp, 16			; 00000010H
  00161	89 47 04	 mov	 DWORD PTR [edi+4], eax
  00164	5f		 pop	 edi

; 1504 :     }

  00165	5e		 pop	 esi
  00166	5b		 pop	 ebx
  00167	8b e5		 mov	 esp, ebp
  00169	5d		 pop	 ebp
  0016a	c2 08 00	 ret	 8
$LN6@Assign_cou:

; 1495 :                 _ASAN_VECTOR_RELEASE_GUARD;
; 1496 :             }
; 1497 :         } else {
; 1498 :             const pointer _Newlast = _Myfirst + _Newsize;

  0016d	8d 04 9e	 lea	 eax, DWORD PTR [esi+ebx*4]
  00170	89 45 fc	 mov	 DWORD PTR __Newlast$1$[ebp], eax

; 1499 :             _Copy_n_unchecked4(_STD move(_First), _Newsize, _Myfirst);

  00173	8b 45 08	 mov	 eax, DWORD PTR __First$[ebp]
  00176	89 45 08	 mov	 DWORD PTR __First$1$[ebp], eax
; File C:\Program Files\Microsoft Visual Studio\2022\Community\VC\Tools\MSVC\14.34.31933\include\xutility

; 3879 :     for (; _Count != 0; ++_Dest, (void) ++_First, --_Count) {

  00179	85 db		 test	 ebx, ebx
  0017b	74 37		 je	 SHORT $LN62@Assign_cou
  0017d	0f 1f 00	 npad	 3
$LL63@Assign_cou:
; File C:\Users\flourine\Desktop\Xantios\client-src\Code\eterlib\Ref.h

; 69   : 		m_pObject = pObject;

  00180	8b 08		 mov	 ecx, DWORD PTR [eax]
  00182	8b 16		 mov	 edx, DWORD PTR [esi]
  00184	89 55 0c	 mov	 DWORD PTR _pOldObject$1$[ebp], edx
  00187	89 0e		 mov	 DWORD PTR [esi], ecx

; 70   : 
; 71   : 		if (m_pObject)

  00189	85 c9		 test	 ecx, ecx
  0018b	74 0b		 je	 SHORT $LN68@Assign_cou

; 72   : 		{
; 73   : 			m_pObject->AddReference();

  0018d	e8 00 00 00 00	 call	 ?AddReference@CReferenceObject@@QAEXXZ ; CReferenceObject::AddReference
  00192	8b 45 08	 mov	 eax, DWORD PTR __First$1$[ebp]
  00195	8b 55 0c	 mov	 edx, DWORD PTR _pOldObject$1$[ebp]
$LN68@Assign_cou:

; 74   : 		}
; 75   : 
; 76   : 		if (pOldObject)

  00198	85 d2		 test	 edx, edx
  0019a	74 0a		 je	 SHORT $LN61@Assign_cou

; 77   : 		{
; 78   : 			pOldObject->Release();

  0019c	8b ca		 mov	 ecx, edx
  0019e	e8 00 00 00 00	 call	 ?Release@CReferenceObject@@QAEXXZ ; CReferenceObject::Release
  001a3	8b 45 08	 mov	 eax, DWORD PTR __First$1$[ebp]
$LN61@Assign_cou:
; File C:\Program Files\Microsoft Visual Studio\2022\Community\VC\Tools\MSVC\14.34.31933\include\xutility

; 3879 :     for (; _Count != 0; ++_Dest, (void) ++_First, --_Count) {

  001a6	83 c0 04	 add	 eax, 4
  001a9	83 c6 04	 add	 esi, 4
  001ac	89 45 08	 mov	 DWORD PTR __First$1$[ebp], eax
  001af	83 eb 01	 sub	 ebx, 1
  001b2	75 cc		 jne	 SHORT $LL63@Assign_cou
$LN62@Assign_cou:
; File C:\Program Files\Microsoft Visual Studio\2022\Community\VC\Tools\MSVC\14.34.31933\include\vector

; 1500 :             _Destroy_range(_Newlast, _Mylast, _Al);

  001b4	8b 75 fc	 mov	 esi, DWORD PTR __Newlast$1$[ebp]
  001b7	57		 push	 edi
  001b8	ff 77 04	 push	 DWORD PTR [edi+4]
  001bb	56		 push	 esi
  001bc	e8 00 00 00 00	 call	 ??$_Destroy_range@V?$allocator@V?$CRef@VCGrannyMaterial@@@@@std@@@std@@YAXPAV?$CRef@VCGrannyMaterial@@@@QAV1@AAV?$allocator@V?$CRef@VCGrannyMaterial@@@@@0@@Z ; std::_Destroy_range<std::allocator<CRef<CGrannyMaterial> > >
  001c1	83 c4 0c	 add	 esp, 12			; 0000000cH

; 1501 :             _ASAN_VECTOR_MODIFY(static_cast<difference_type>(_Newsize - _Oldsize));
; 1502 :             _Mylast = _Newlast;

  001c4	89 77 04	 mov	 DWORD PTR [edi+4], esi
  001c7	5f		 pop	 edi

; 1504 :     }

  001c8	5e		 pop	 esi
  001c9	5b		 pop	 ebx
  001ca	8b e5		 mov	 esp, ebp
  001cc	5d		 pop	 ebp
  001cd	c2 08 00	 ret	 8
$LN82@Assign_cou:

; 1722 :             _Xlength();

  001d0	e8 00 00 00 00	 call	 ?_Xlength@?$vector@V?$CRef@VCGrannyMaterial@@@@V?$allocator@V?$CRef@VCGrannyMaterial@@@@@std@@@std@@CAXXZ ; std::vector<CRef<CGrannyMaterial>,std::allocator<CRef<CGrannyMaterial> > >::_Xlength
$LN83@Assign_cou:
; File C:\Program Files\Microsoft Visual Studio\2022\Community\VC\Tools\MSVC\14.34.31933\include\xmemory

; 61   :             _Throw_bad_array_new_length(); // multiply overflow

  001d5	e8 00 00 00 00	 call	 ?_Throw_bad_array_new_length@std@@YAXXZ ; std::_Throw_bad_array_new_length
$LN53@Assign_cou:

; 164  :     _STL_VERIFY(_Back_shift >= _Min_back_shift && _Back_shift <= _Non_user_size, "invalid argument");

  001da	e8 00 00 00 00	 call	 __invalid_parameter_noinfo_noreturn
$LN80@Assign_cou:
  001df	cc		 int	 3
??$_Assign_counted_range@PAV?$CRef@VCGrannyMaterial@@@@@?$vector@V?$CRef@VCGrannyMaterial@@@@V?$allocator@V?$CRef@VCGrannyMaterial@@@@@std@@@std@@AAEXPAV?$CRef@VCGrannyMaterial@@@@I@Z ENDP ; std::vector<CRef<CGrannyMaterial>,std::allocator<CRef<CGrannyMaterial> > >::_Assign_counted_range<CRef<CGrannyMaterial> *>
_TEXT	ENDS
; Function compile flags: /Ogtp
; File C:\Program Files\Microsoft Visual Studio\2022\Community\VC\Tools\MSVC\14.34.31933\include\xmemory
; File C:\Users\flourine\Desktop\Xantios\client-src\Code\eterlib\Ref.h
; File C:\Program Files\Microsoft Visual Studio\2022\Community\VC\Tools\MSVC\14.34.31933\include\xmemory
; File C:\Users\flourine\Desktop\Xantios\client-src\Code\eterlib\Ref.h
; File C:\Program Files\Microsoft Visual Studio\2022\Community\VC\Tools\MSVC\14.34.31933\include\xmemory
;	COMDAT ??$_Destroy_range@V?$allocator@V?$CRef@VCGrannyMaterial@@@@@std@@@std@@YAXPAV?$CRef@VCGrannyMaterial@@@@QAV1@AAV?$allocator@V?$CRef@VCGrannyMaterial@@@@@0@@Z
_TEXT	SEGMENT
__$EHRec$ = -12						; size = 12
__First$ = 8						; size = 4
__Last$ = 12						; size = 4
__Al$ = 16						; size = 4
??$_Destroy_range@V?$allocator@V?$CRef@VCGrannyMaterial@@@@@std@@@std@@YAXPAV?$CRef@VCGrannyMaterial@@@@QAV1@AAV?$allocator@V?$CRef@VCGrannyMaterial@@@@@0@@Z PROC ; std::_Destroy_range<std::allocator<CRef<CGrannyMaterial> > >, COMDAT

; 943  : _CONSTEXPR20 void _Destroy_range(_Alloc_ptr_t<_Alloc> _First, const _Alloc_ptr_t<_Alloc> _Last, _Alloc& _Al) noexcept {

  00000	55		 push	 ebp
  00001	8b ec		 mov	 ebp, esp
  00003	6a ff		 push	 -1
  00005	68 00 00 00 00	 push	 __ehhandler$??$_Destroy_range@V?$allocator@V?$CRef@VCGrannyMaterial@@@@@std@@@std@@YAXPAV?$CRef@VCGrannyMaterial@@@@QAV1@AAV?$allocator@V?$CRef@VCGrannyMaterial@@@@@0@@Z
  0000a	64 a1 00 00 00
	00		 mov	 eax, DWORD PTR fs:0
  00010	50		 push	 eax
  00011	56		 push	 esi
  00012	57		 push	 edi
  00013	a1 00 00 00 00	 mov	 eax, DWORD PTR ___security_cookie
  00018	33 c5		 xor	 eax, ebp
  0001a	50		 push	 eax
  0001b	8d 45 f4	 lea	 eax, DWORD PTR __$EHRec$[ebp]
  0001e	64 a3 00 00 00
	00		 mov	 DWORD PTR fs:0, eax

; 947  :         for (; _First != _Last; ++_First) {

  00024	8b 75 08	 mov	 esi, DWORD PTR __First$[ebp]
  00027	8b 7d 0c	 mov	 edi, DWORD PTR __Last$[ebp]
  0002a	3b f7		 cmp	 esi, edi
  0002c	74 28		 je	 SHORT $LN3@Destroy_ra
  0002e	66 90		 npad	 2
$LL4@Destroy_ra:
; File C:\Users\flourine\Desktop\Xantios\client-src\Code\eterlib\Ref.h

; 53   : 		if (m_pObject)

  00030	8b 0e		 mov	 ecx, DWORD PTR [esi]

; 37   : 	{

  00032	c7 45 fc 00 00
	00 00		 mov	 DWORD PTR __$EHRec$[ebp+8], 0

; 53   : 		if (m_pObject)

  00039	85 c9		 test	 ecx, ecx
  0003b	74 0b		 je	 SHORT $LN15@Destroy_ra

; 54   : 		{
; 55   : 			m_pObject->Release();

  0003d	e8 00 00 00 00	 call	 ?Release@CReferenceObject@@QAEXXZ ; CReferenceObject::Release

; 56   : 			m_pObject = NULL;

  00042	c7 06 00 00 00
	00		 mov	 DWORD PTR [esi], 0
$LN15@Destroy_ra:
; File C:\Program Files\Microsoft Visual Studio\2022\Community\VC\Tools\MSVC\14.34.31933\include\xmemory

; 947  :         for (; _First != _Last; ++_First) {

  00048	83 c6 04	 add	 esi, 4
; File C:\Users\flourine\Desktop\Xantios\client-src\Code\eterlib\Ref.h

; 39   : 	}

  0004b	c7 45 fc ff ff
	ff ff		 mov	 DWORD PTR __$EHRec$[ebp+8], -1
; File C:\Program Files\Microsoft Visual Studio\2022\Community\VC\Tools\MSVC\14.34.31933\include\xmemory

; 947  :         for (; _First != _Last; ++_First) {

  00052	3b f7		 cmp	 esi, edi
  00054	75 da		 jne	 SHORT $LL4@Destroy_ra
$LN3@Destroy_ra:

; 948  :             allocator_traits<_Alloc>::destroy(_Al, _Unfancy(_First));
; 949  :         }
; 950  :     }
; 951  : }

  00056	8b 4d f4	 mov	 ecx, DWORD PTR __$EHRec$[ebp]
  00059	64 89 0d 00 00
	00 00		 mov	 DWORD PTR fs:0, ecx
  00060	59		 pop	 ecx
  00061	5f		 pop	 edi
  00062	5e		 pop	 esi
  00063	8b e5		 mov	 esp, ebp
  00065	5d		 pop	 ebp
  00066	c3		 ret	 0
  00067	cc		 int	 3
  00068	cc		 int	 3
  00069	cc		 int	 3
  0006a	cc		 int	 3
  0006b	cc		 int	 3
_TEXT	ENDS
;	COMDAT text$x
text$x	SEGMENT
__ehhandler$??$_Destroy_range@V?$allocator@V?$CRef@VCGrannyMaterial@@@@@std@@@std@@YAXPAV?$CRef@VCGrannyMaterial@@@@QAV1@AAV?$allocator@V?$CRef@VCGrannyMaterial@@@@@0@@Z:
  00000	90		 npad	 1
  00001	90		 npad	 1
  00002	8b 54 24 08	 mov	 edx, DWORD PTR [esp+8]
  00006	8d 42 0c	 lea	 eax, DWORD PTR [edx+12]
  00009	8b 4a f4	 mov	 ecx, DWORD PTR [edx-12]
  0000c	33 c8		 xor	 ecx, eax
  0000e	e8 00 00 00 00	 call	 @__security_check_cookie@4
  00013	b8 00 00 00 00	 mov	 eax, OFFSET __ehfuncinfo$??$_Destroy_range@V?$allocator@V?$CRef@VCGrannyMaterial@@@@@std@@@std@@YAXPAV?$CRef@VCGrannyMaterial@@@@QAV1@AAV?$allocator@V?$CRef@VCGrannyMaterial@@@@@0@@Z
  00018	e9 00 00 00 00	 jmp	 ___CxxFrameHandler3
text$x	ENDS
??$_Destroy_range@V?$allocator@V?$CRef@VCGrannyMaterial@@@@@std@@@std@@YAXPAV?$CRef@VCGrannyMaterial@@@@QAV1@AAV?$allocator@V?$CRef@VCGrannyMaterial@@@@@0@@Z ENDP ; std::_Destroy_range<std::allocator<CRef<CGrannyMaterial> > >
; Function compile flags: /Ogtp
; File C:\Users\flourine\Desktop\Xantios\client-src\Code\eterlib\Ref.h
;	COMDAT ??1?$CRef@VCGrannyMaterial@@@@QAE@XZ
_TEXT	SEGMENT
__$EHRec$ = -12						; size = 12
??1?$CRef@VCGrannyMaterial@@@@QAE@XZ PROC		; CRef<CGrannyMaterial>::~CRef<CGrannyMaterial>, COMDAT
; _this$ = ecx

; 37   : 	{

  00000	55		 push	 ebp
  00001	8b ec		 mov	 ebp, esp
  00003	6a ff		 push	 -1
  00005	68 00 00 00 00	 push	 __ehhandler$??1?$CRef@VCGrannyMaterial@@@@QAE@XZ
  0000a	64 a1 00 00 00
	00		 mov	 eax, DWORD PTR fs:0
  00010	50		 push	 eax
  00011	56		 push	 esi
  00012	a1 00 00 00 00	 mov	 eax, DWORD PTR ___security_cookie
  00017	33 c5		 xor	 eax, ebp
  00019	50		 push	 eax
  0001a	8d 45 f4	 lea	 eax, DWORD PTR __$EHRec$[ebp]
  0001d	64 a3 00 00 00
	00		 mov	 DWORD PTR fs:0, eax
  00023	8b f1		 mov	 esi, ecx

; 53   : 		if (m_pObject)

  00025	8b 0e		 mov	 ecx, DWORD PTR [esi]
  00027	85 c9		 test	 ecx, ecx
  00029	74 0b		 je	 SHORT $LN4@CRef

; 54   : 		{
; 55   : 			m_pObject->Release();

  0002b	e8 00 00 00 00	 call	 ?Release@CReferenceObject@@QAEXXZ ; CReferenceObject::Release

; 56   : 			m_pObject = NULL;

  00030	c7 06 00 00 00
	00		 mov	 DWORD PTR [esi], 0
$LN4@CRef:

; 38   : 		Clear();
; 39   : 	}

  00036	8b 4d f4	 mov	 ecx, DWORD PTR __$EHRec$[ebp]
  00039	64 89 0d 00 00
	00 00		 mov	 DWORD PTR fs:0, ecx
  00040	59		 pop	 ecx
  00041	5e		 pop	 esi
  00042	8b e5		 mov	 esp, ebp
  00044	5d		 pop	 ebp
  00045	c3		 ret	 0
  00046	cc		 int	 3
  00047	cc		 int	 3
  00048	cc		 int	 3
  00049	cc		 int	 3
  0004a	cc		 int	 3
_TEXT	ENDS
;	COMDAT text$x
text$x	SEGMENT
__ehhandler$??1?$CRef@VCGrannyMaterial@@@@QAE@XZ:
  00000	90		 npad	 1
  00001	90		 npad	 1
  00002	8b 54 24 08	 mov	 edx, DWORD PTR [esp+8]
  00006	8d 42 0c	 lea	 eax, DWORD PTR [edx+12]
  00009	8b 4a f8	 mov	 ecx, DWORD PTR [edx-8]
  0000c	33 c8		 xor	 ecx, eax
  0000e	e8 00 00 00 00	 call	 @__security_check_cookie@4
  00013	b8 00 00 00 00	 mov	 eax, OFFSET __ehfuncinfo$??1?$CRef@VCGrannyMaterial@@@@QAE@XZ
  00018	e9 00 00 00 00	 jmp	 ___CxxFrameHandler3
text$x	ENDS
??1?$CRef@VCGrannyMaterial@@@@QAE@XZ ENDP		; CRef<CGrannyMaterial>::~CRef<CGrannyMaterial>
; Function compile flags: /Ogtp
;	COMDAT ??__F?ms_akSphereMapInstance@CGrannyMaterial@@0PAVCGraphicImageInstance@@A@@YAXXZ
text$yd	SEGMENT
??__F?ms_akSphereMapInstance@CGrannyMaterial@@0PAVCGraphicImageInstance@@A@@YAXXZ PROC ; `dynamic atexit destructor for 'CGrannyMaterial::ms_akSphereMapInstance'', COMDAT
  00000	68 00 00 00 00	 push	 OFFSET ??1CGraphicImageInstance@@UAE@XZ ; CGraphicImageInstance::~CGraphicImageInstance
  00005	6a 0a		 push	 10			; 0000000aH
  00007	6a 28		 push	 40			; 00000028H
  00009	68 00 00 00 00	 push	 OFFSET ?ms_akSphereMapInstance@CGrannyMaterial@@0PAVCGraphicImageInstance@@A ; CGrannyMaterial::ms_akSphereMapInstance
  0000e	e8 00 00 00 00	 call	 ??_M@YGXPAXIIP6EX0@Z@Z
  00013	c3		 ret	 0
??__F?ms_akSphereMapInstance@CGrannyMaterial@@0PAVCGraphicImageInstance@@A@@YAXXZ ENDP ; `dynamic atexit destructor for 'CGrannyMaterial::ms_akSphereMapInstance''
text$yd	ENDS
; Function compile flags: /Ogtp
; File C:\Users\flourine\Desktop\Xantios\client-src\Code\eterGrnLib\Material.cpp
;	COMDAT ??__E?ms_akSphereMapInstance@CGrannyMaterial@@0PAVCGraphicImageInstance@@A@@YAXXZ
text$di	SEGMENT
??__E?ms_akSphereMapInstance@CGrannyMaterial@@0PAVCGraphicImageInstance@@A@@YAXXZ PROC ; `dynamic initializer for 'CGrannyMaterial::ms_akSphereMapInstance'', COMDAT

; 9    : CGraphicImageInstance CGrannyMaterial::ms_akSphereMapInstance[SPHEREMAP_NUM];

  00000	68 00 00 00 00	 push	 OFFSET ??1CGraphicImageInstance@@UAE@XZ ; CGraphicImageInstance::~CGraphicImageInstance
  00005	68 00 00 00 00	 push	 OFFSET ??0CGraphicImageInstance@@QAE@XZ ; CGraphicImageInstance::CGraphicImageInstance
  0000a	6a 0a		 push	 10			; 0000000aH
  0000c	6a 28		 push	 40			; 00000028H
  0000e	68 00 00 00 00	 push	 OFFSET ?ms_akSphereMapInstance@CGrannyMaterial@@0PAVCGraphicImageInstance@@A ; CGrannyMaterial::ms_akSphereMapInstance
  00013	e8 00 00 00 00	 call	 ??_L@YGXPAXIIP6EX0@Z1@Z
  00018	68 00 00 00 00	 push	 OFFSET ??__F?ms_akSphereMapInstance@CGrannyMaterial@@0PAVCGraphicImageInstance@@A@@YAXXZ ; `dynamic atexit destructor for 'CGrannyMaterial::ms_akSphereMapInstance''
  0001d	e8 00 00 00 00	 call	 _atexit
  00022	59		 pop	 ecx
  00023	c3		 ret	 0
??__E?ms_akSphereMapInstance@CGrannyMaterial@@0PAVCGraphicImageInstance@@A@@YAXXZ ENDP ; `dynamic initializer for 'CGrannyMaterial::ms_akSphereMapInstance''
text$di	ENDS
; Function compile flags: /Ogtp
; File C:\Users\flourine\Desktop\Xantios\client-src\Code\eterbase\Filename.h
; File C:\Program Files\Microsoft Visual Studio\2022\Community\VC\Tools\MSVC\14.34.31933\include\xstring
; File C:\Users\flourine\Desktop\Xantios\client-src\Code\eterbase\Filename.h
; File C:\Program Files\Microsoft Visual Studio\2022\Community\VC\Tools\MSVC\14.34.31933\include\xstring
; File C:\Users\flourine\Desktop\Xantios\client-src\Code\eterbase\Filename.h
; File C:\Program Files\Microsoft Visual Studio\2022\Community\VC\Tools\MSVC\14.34.31933\include\xstring
; File C:\Users\flourine\Desktop\Xantios\client-src\Code\eterbase\Filename.h
; File C:\Program Files\Microsoft Visual Studio\2022\Community\VC\Tools\MSVC\14.34.31933\include\xstring
; File C:\Users\flourine\Desktop\Xantios\client-src\Code\eterbase\Filename.h
; File C:\Program Files\Microsoft Visual Studio\2022\Community\VC\Tools\MSVC\14.34.31933\include\xstring
; File C:\Users\flourine\Desktop\Xantios\client-src\Code\eterbase\Filename.h
;	COMDAT ?StringPath@CFileNameHelper@@SAXAAV?$basic_string@DU?$char_traits@D@std@@V?$allocator@D@2@@std@@@Z
_TEXT	SEGMENT
_str$ = 8						; size = 4
?StringPath@CFileNameHelper@@SAXAAV?$basic_string@DU?$char_traits@D@std@@V?$allocator@D@2@@std@@@Z PROC ; CFileNameHelper::StringPath, COMDAT

; 105  : 	static void StringPath(std::string& str) {

  00000	55		 push	 ebp
  00001	8b ec		 mov	 ebp, esp
  00003	53		 push	 ebx
  00004	56		 push	 esi

; 106  : 		size_t nLength = str.length();		

  00005	8b 75 08	 mov	 esi, DWORD PTR _str$[ebp]
  00008	57		 push	 edi

; 107  : 
; 108  : 		for (size_t i = 0; i<nLength; ++i)

  00009	33 ff		 xor	 edi, edi
  0000b	8b 5e 10	 mov	 ebx, DWORD PTR [esi+16]
  0000e	85 db		 test	 ebx, ebx
  00010	74 51		 je	 SHORT $LN3@StringPath
$LL4@StringPath:
; File C:\Program Files\Microsoft Visual Studio\2022\Community\VC\Tools\MSVC\14.34.31933\include\xstring

; 2324 :         if (_Mysize <= _Off) {

  00012	39 7e 10	 cmp	 DWORD PTR [esi+16], edi
  00015	76 51		 jbe	 SHORT $LN57@StringPath

; 2301 :         return _BUF_SIZE <= _Myres;

  00017	8b 4e 14	 mov	 ecx, DWORD PTR [esi+20]

; 2283 :         value_type* _Result = _Bx._Buf;

  0001a	8b c6		 mov	 eax, esi

; 2301 :         return _BUF_SIZE <= _Myres;

  0001c	83 f9 10	 cmp	 ecx, 16			; 00000010H

; 2284 :         if (_Large_string_engaged()) {

  0001f	72 02		 jb	 SHORT $LN68@StringPath

; 2285 :             _Result = _Unfancy(_Bx._Ptr);

  00021	8b 06		 mov	 eax, DWORD PTR [esi]
$LN68@StringPath:
; File C:\Users\flourine\Desktop\Xantios\client-src\Code\eterbase\Filename.h

; 110  : 			if (str.at(i) == '\\') {

  00023	80 3c 38 5c	 cmp	 BYTE PTR [eax+edi], 92	; 0000005cH
  00027	8b c6		 mov	 eax, esi
  00029	75 0d		 jne	 SHORT $LN5@StringPath
; File C:\Program Files\Microsoft Visual Studio\2022\Community\VC\Tools\MSVC\14.34.31933\include\xstring

; 2301 :         return _BUF_SIZE <= _Myres;

  0002b	83 f9 10	 cmp	 ecx, 16			; 00000010H

; 2284 :         if (_Large_string_engaged()) {

  0002e	72 02		 jb	 SHORT $LN65@StringPath

; 2285 :             _Result = _Unfancy(_Bx._Ptr);

  00030	8b 06		 mov	 eax, DWORD PTR [esi]
$LN65@StringPath:
; File C:\Users\flourine\Desktop\Xantios\client-src\Code\eterbase\Filename.h

; 111  : 				str.at(i) = '/';

  00032	c6 04 38 2f	 mov	 BYTE PTR [eax+edi], 47	; 0000002fH

; 112  : 			} else {

  00036	eb 26		 jmp	 SHORT $LN2@StringPath
$LN5@StringPath:
; File C:\Program Files\Microsoft Visual Studio\2022\Community\VC\Tools\MSVC\14.34.31933\include\xstring

; 2301 :         return _BUF_SIZE <= _Myres;

  00038	83 f9 10	 cmp	 ecx, 16			; 00000010H

; 2284 :         if (_Large_string_engaged()) {

  0003b	72 02		 jb	 SHORT $LN66@StringPath

; 2285 :             _Result = _Unfancy(_Bx._Ptr);

  0003d	8b 06		 mov	 eax, DWORD PTR [esi]
$LN66@StringPath:
; File C:\Users\flourine\Desktop\Xantios\client-src\Code\eterbase\Filename.h

; 113  : 				str.at(i) = static_cast<char>(tolower(str.at(i)));

  0003f	0f be 04 38	 movsx	 eax, BYTE PTR [eax+edi]
  00043	50		 push	 eax
  00044	e8 00 00 00 00	 call	 _tolower
  00049	83 c4 04	 add	 esp, 4
; File C:\Program Files\Microsoft Visual Studio\2022\Community\VC\Tools\MSVC\14.34.31933\include\xstring

; 2324 :         if (_Mysize <= _Off) {

  0004c	39 7e 10	 cmp	 DWORD PTR [esi+16], edi
  0004f	76 17		 jbe	 SHORT $LN57@StringPath

; 2301 :         return _BUF_SIZE <= _Myres;

  00051	83 7e 14 10	 cmp	 DWORD PTR [esi+20], 16	; 00000010H

; 2283 :         value_type* _Result = _Bx._Buf;

  00055	8b ce		 mov	 ecx, esi

; 2284 :         if (_Large_string_engaged()) {

  00057	72 02		 jb	 SHORT $LN67@StringPath

; 2285 :             _Result = _Unfancy(_Bx._Ptr);

  00059	8b 0e		 mov	 ecx, DWORD PTR [esi]
$LN67@StringPath:
; File C:\Users\flourine\Desktop\Xantios\client-src\Code\eterbase\Filename.h

; 113  : 				str.at(i) = static_cast<char>(tolower(str.at(i)));

  0005b	88 04 39	 mov	 BYTE PTR [ecx+edi], al
$LN2@StringPath:

; 107  : 
; 108  : 		for (size_t i = 0; i<nLength; ++i)

  0005e	47		 inc	 edi
  0005f	3b fb		 cmp	 edi, ebx
  00061	72 af		 jb	 SHORT $LL4@StringPath
$LN3@StringPath:
  00063	5f		 pop	 edi

; 116  : 	}

  00064	5e		 pop	 esi
  00065	5b		 pop	 ebx
  00066	5d		 pop	 ebp
  00067	c3		 ret	 0
$LN57@StringPath:
; File C:\Program Files\Microsoft Visual Studio\2022\Community\VC\Tools\MSVC\14.34.31933\include\xstring

; 2325 :             _Xran();

  00068	e8 00 00 00 00	 call	 ?_Xran@?$_String_val@U?$_Simple_types@D@std@@@std@@SAXXZ ; std::_String_val<std::_Simple_types<char> >::_Xran
$LN69@StringPath:
  0006d	cc		 int	 3
?StringPath@CFileNameHelper@@SAXAAV?$basic_string@DU?$char_traits@D@std@@V?$allocator@D@2@@std@@@Z ENDP ; CFileNameHelper::StringPath
_TEXT	ENDS
; Function compile flags: /Ogtp
;	COMDAT ??_GCGrannyMaterialPalette@@UAEPAXI@Z
_TEXT	SEGMENT
___flags$ = 8						; size = 4
??_GCGrannyMaterialPalette@@UAEPAXI@Z PROC		; CGrannyMaterialPalette::`scalar deleting destructor', COMDAT
; _this$ = ecx
  00000	55		 push	 ebp
  00001	8b ec		 mov	 ebp, esp
  00003	56		 push	 esi
  00004	8b f1		 mov	 esi, ecx
  00006	e8 00 00 00 00	 call	 ??1CGrannyMaterialPalette@@UAE@XZ ; CGrannyMaterialPalette::~CGrannyMaterialPalette
  0000b	f6 45 08 01	 test	 BYTE PTR ___flags$[ebp], 1
  0000f	74 0b		 je	 SHORT $LN4@scalar
  00011	6a 10		 push	 16			; 00000010H
  00013	56		 push	 esi
  00014	e8 00 00 00 00	 call	 ??3@YAXPAXI@Z		; operator delete
  00019	83 c4 08	 add	 esp, 8
$LN4@scalar:
  0001c	8b c6		 mov	 eax, esi
  0001e	5e		 pop	 esi
  0001f	5d		 pop	 ebp
  00020	c2 04 00	 ret	 4
??_GCGrannyMaterialPalette@@UAEPAXI@Z ENDP		; CGrannyMaterialPalette::`scalar deleting destructor'
_TEXT	ENDS
; Function compile flags: /Ogtp
; File C:\Program Files\Microsoft Visual Studio\2022\Community\VC\Tools\MSVC\14.34.31933\include\vector
;	COMDAT ?_Xlength@?$vector@V?$CRef@VCGrannyMaterial@@@@V?$allocator@V?$CRef@VCGrannyMaterial@@@@@std@@@std@@CAXXZ
_TEXT	SEGMENT
?_Xlength@?$vector@V?$CRef@VCGrannyMaterial@@@@V?$allocator@V?$CRef@VCGrannyMaterial@@@@@std@@@std@@CAXXZ PROC ; std::vector<CRef<CGrannyMaterial>,std::allocator<CRef<CGrannyMaterial> > >::_Xlength, COMDAT

; 2201 :         _Xlength_error("vector too long");

  00000	68 00 00 00 00	 push	 OFFSET ??_C@_0BA@FOIKENOD@vector?5too?5long@
  00005	e8 00 00 00 00	 call	 ?_Xlength_error@std@@YAXPBD@Z ; std::_Xlength_error
$LN3@Xlength:
  0000a	cc		 int	 3
?_Xlength@?$vector@V?$CRef@VCGrannyMaterial@@@@V?$allocator@V?$CRef@VCGrannyMaterial@@@@@std@@@std@@CAXXZ ENDP ; std::vector<CRef<CGrannyMaterial>,std::allocator<CRef<CGrannyMaterial> > >::_Xlength
_TEXT	ENDS
; Function compile flags: /Ogtp
; File C:\Program Files\Microsoft Visual Studio\2022\Community\VC\Tools\MSVC\14.34.31933\include\vector
; File C:\Program Files\Microsoft Visual Studio\2022\Community\VC\Tools\MSVC\14.34.31933\include\xmemory
; File C:\Program Files\Microsoft Visual Studio\2022\Community\VC\Tools\MSVC\14.34.31933\include\vector
; File C:\Program Files\Microsoft Visual Studio\2022\Community\VC\Tools\MSVC\14.34.31933\include\xmemory
; File C:\Program Files\Microsoft Visual Studio\2022\Community\VC\Tools\MSVC\14.34.31933\include\vector
; File C:\Program Files\Microsoft Visual Studio\2022\Community\VC\Tools\MSVC\14.34.31933\include\xmemory
; File C:\Program Files\Microsoft Visual Studio\2022\Community\VC\Tools\MSVC\14.34.31933\include\vector
;	COMDAT ??1?$vector@V?$CRef@VCGrannyMaterial@@@@V?$allocator@V?$CRef@VCGrannyMaterial@@@@@std@@@std@@QAE@XZ
_TEXT	SEGMENT
??1?$vector@V?$CRef@VCGrannyMaterial@@@@V?$allocator@V?$CRef@VCGrannyMaterial@@@@@std@@@std@@QAE@XZ PROC ; std::vector<CRef<CGrannyMaterial>,std::allocator<CRef<CGrannyMaterial> > >::~vector<CRef<CGrannyMaterial>,std::allocator<CRef<CGrannyMaterial> > >, COMDAT
; _this$ = ecx

; 829  :     _CONSTEXPR20 ~vector() noexcept {

  00000	56		 push	 esi
  00001	8b f1		 mov	 esi, ecx

; 2107 :         if (_Myfirst) { // destroy and deallocate old array

  00003	8b 06		 mov	 eax, DWORD PTR [esi]
  00005	85 c0		 test	 eax, eax
  00007	74 4f		 je	 SHORT $LN4@vector

; 2108 :             _Destroy_range(_Myfirst, _Mylast, _Al);

  00009	56		 push	 esi
  0000a	ff 76 04	 push	 DWORD PTR [esi+4]
  0000d	50		 push	 eax
  0000e	e8 00 00 00 00	 call	 ??$_Destroy_range@V?$allocator@V?$CRef@VCGrannyMaterial@@@@@std@@@std@@YAXPAV?$CRef@VCGrannyMaterial@@@@QAV1@AAV?$allocator@V?$CRef@VCGrannyMaterial@@@@@0@@Z ; std::_Destroy_range<std::allocator<CRef<CGrannyMaterial> > >

; 2109 :             _ASAN_VECTOR_REMOVE;
; 2110 :             _Al.deallocate(_Myfirst, static_cast<size_type>(_Myend - _Myfirst));

  00013	8b 4e 08	 mov	 ecx, DWORD PTR [esi+8]
  00016	83 c4 0c	 add	 esp, 12			; 0000000cH
  00019	8b 06		 mov	 eax, DWORD PTR [esi]
  0001b	2b c8		 sub	 ecx, eax
; File C:\Program Files\Microsoft Visual Studio\2022\Community\VC\Tools\MSVC\14.34.31933\include\xmemory

; 830  :         _Deallocate<_New_alignof<_Ty>>(_Ptr, sizeof(_Ty) * _Count);

  0001d	83 e1 fc	 and	 ecx, -4			; fffffffcH

; 251  :         if (_Bytes >= _Big_allocation_threshold) { // boost the alignment of big allocations to help autovectorization

  00020	81 f9 00 10 00
	00		 cmp	 ecx, 4096		; 00001000H
  00026	72 12		 jb	 SHORT $LN20@vector

; 150  :     const uintptr_t _Ptr_container   = _Ptr_user[-1];

  00028	8b 50 fc	 mov	 edx, DWORD PTR [eax-4]
  0002b	83 c1 23	 add	 ecx, 35			; 00000023H

; 151  : 
; 152  :     // If the following asserts, it likely means that we are performing
; 153  :     // an aligned delete on memory coming from an unaligned allocation.
; 154  :     _STL_ASSERT(_Ptr_user[-2] == _Big_allocation_sentinel, "invalid argument");
; 155  : 
; 156  :     // Extra paranoia on aligned allocation/deallocation; ensure _Ptr_container is
; 157  :     // in range [_Min_back_shift, _Non_user_size]
; 158  : #ifdef _DEBUG
; 159  :     constexpr uintptr_t _Min_back_shift = 2 * sizeof(void*);
; 160  : #else // ^^^ _DEBUG ^^^ // vvv !_DEBUG vvv
; 161  :     constexpr uintptr_t _Min_back_shift = sizeof(void*);
; 162  : #endif // _DEBUG
; 163  :     const uintptr_t _Back_shift = reinterpret_cast<uintptr_t>(_Ptr) - _Ptr_container;

  0002e	2b c2		 sub	 eax, edx

; 164  :     _STL_VERIFY(_Back_shift >= _Min_back_shift && _Back_shift <= _Non_user_size, "invalid argument");

  00030	83 c0 fc	 add	 eax, -4			; fffffffcH
  00033	83 f8 1f	 cmp	 eax, 31			; 0000001fH
  00036	77 22		 ja	 SHORT $LN17@vector

; 165  :     _Ptr = reinterpret_cast<void*>(_Ptr_container);

  00038	8b c2		 mov	 eax, edx
$LN20@vector:

; 255  :         ::operator delete(_Ptr, _Bytes);

  0003a	51		 push	 ecx
  0003b	50		 push	 eax
  0003c	e8 00 00 00 00	 call	 ??3@YAXPAXI@Z		; operator delete
; File C:\Program Files\Microsoft Visual Studio\2022\Community\VC\Tools\MSVC\14.34.31933\include\vector

; 2112 :             _Myfirst = nullptr;

  00041	c7 06 00 00 00
	00		 mov	 DWORD PTR [esi], 0
; File C:\Program Files\Microsoft Visual Studio\2022\Community\VC\Tools\MSVC\14.34.31933\include\xmemory

; 255  :         ::operator delete(_Ptr, _Bytes);

  00047	83 c4 08	 add	 esp, 8
; File C:\Program Files\Microsoft Visual Studio\2022\Community\VC\Tools\MSVC\14.34.31933\include\vector

; 2113 :             _Mylast  = nullptr;

  0004a	c7 46 04 00 00
	00 00		 mov	 DWORD PTR [esi+4], 0

; 2114 :             _Myend   = nullptr;

  00051	c7 46 08 00 00
	00 00		 mov	 DWORD PTR [esi+8], 0
$LN4@vector:
  00058	5e		 pop	 esi

; 835  :     }

  00059	c3		 ret	 0
$LN17@vector:
; File C:\Program Files\Microsoft Visual Studio\2022\Community\VC\Tools\MSVC\14.34.31933\include\xmemory

; 164  :     _STL_VERIFY(_Back_shift >= _Min_back_shift && _Back_shift <= _Non_user_size, "invalid argument");

  0005a	e8 00 00 00 00	 call	 __invalid_parameter_noinfo_noreturn
$LN25@vector:
  0005f	cc		 int	 3
??1?$vector@V?$CRef@VCGrannyMaterial@@@@V?$allocator@V?$CRef@VCGrannyMaterial@@@@@std@@@std@@QAE@XZ ENDP ; std::vector<CRef<CGrannyMaterial>,std::allocator<CRef<CGrannyMaterial> > >::~vector<CRef<CGrannyMaterial>,std::allocator<CRef<CGrannyMaterial> > >
_TEXT	ENDS
; Function compile flags: /Ogtp
; File C:\Program Files\Microsoft Visual Studio\2022\Community\VC\Tools\MSVC\14.34.31933\include\xmemory
;	COMDAT ?deallocate@?$allocator@V?$CRef@VCGrannyMaterial@@@@@std@@QAEXQAV?$CRef@VCGrannyMaterial@@@@I@Z
_TEXT	SEGMENT
__Ptr$ = 8						; size = 4
__Count$ = 12						; size = 4
?deallocate@?$allocator@V?$CRef@VCGrannyMaterial@@@@@std@@QAEXQAV?$CRef@VCGrannyMaterial@@@@I@Z PROC ; std::allocator<CRef<CGrannyMaterial> >::deallocate, COMDAT
; _this$ = ecx

; 827  :     _CONSTEXPR20 void deallocate(_Ty* const _Ptr, const size_t _Count) {

  00000	55		 push	 ebp
  00001	8b ec		 mov	 ebp, esp

; 828  :         _STL_ASSERT(_Ptr != nullptr || _Count == 0, "null pointer cannot point to a block of non-zero size");
; 829  :         // no overflow check on the following multiply; we assume _Allocate did that check
; 830  :         _Deallocate<_New_alignof<_Ty>>(_Ptr, sizeof(_Ty) * _Count);

  00003	8b 45 0c	 mov	 eax, DWORD PTR __Count$[ebp]
  00006	8d 0c 85 00 00
	00 00		 lea	 ecx, DWORD PTR [eax*4]
  0000d	8b 45 08	 mov	 eax, DWORD PTR __Ptr$[ebp]

; 251  :         if (_Bytes >= _Big_allocation_threshold) { // boost the alignment of big allocations to help autovectorization

  00010	81 f9 00 10 00
	00		 cmp	 ecx, 4096		; 00001000H
  00016	72 12		 jb	 SHORT $LN15@deallocate

; 150  :     const uintptr_t _Ptr_container   = _Ptr_user[-1];

  00018	8b 50 fc	 mov	 edx, DWORD PTR [eax-4]
  0001b	83 c1 23	 add	 ecx, 35			; 00000023H

; 151  : 
; 152  :     // If the following asserts, it likely means that we are performing
; 153  :     // an aligned delete on memory coming from an unaligned allocation.
; 154  :     _STL_ASSERT(_Ptr_user[-2] == _Big_allocation_sentinel, "invalid argument");
; 155  : 
; 156  :     // Extra paranoia on aligned allocation/deallocation; ensure _Ptr_container is
; 157  :     // in range [_Min_back_shift, _Non_user_size]
; 158  : #ifdef _DEBUG
; 159  :     constexpr uintptr_t _Min_back_shift = 2 * sizeof(void*);
; 160  : #else // ^^^ _DEBUG ^^^ // vvv !_DEBUG vvv
; 161  :     constexpr uintptr_t _Min_back_shift = sizeof(void*);
; 162  : #endif // _DEBUG
; 163  :     const uintptr_t _Back_shift = reinterpret_cast<uintptr_t>(_Ptr) - _Ptr_container;

  0001e	2b c2		 sub	 eax, edx

; 164  :     _STL_VERIFY(_Back_shift >= _Min_back_shift && _Back_shift <= _Non_user_size, "invalid argument");

  00020	83 c0 fc	 add	 eax, -4			; fffffffcH
  00023	83 f8 1f	 cmp	 eax, 31			; 0000001fH
  00026	77 10		 ja	 SHORT $LN12@deallocate

; 165  :     _Ptr = reinterpret_cast<void*>(_Ptr_container);

  00028	8b c2		 mov	 eax, edx
$LN15@deallocate:

; 255  :         ::operator delete(_Ptr, _Bytes);

  0002a	51		 push	 ecx
  0002b	50		 push	 eax
  0002c	e8 00 00 00 00	 call	 ??3@YAXPAXI@Z		; operator delete
  00031	83 c4 08	 add	 esp, 8

; 831  :     }

  00034	5d		 pop	 ebp
  00035	c2 08 00	 ret	 8
$LN12@deallocate:

; 164  :     _STL_VERIFY(_Back_shift >= _Min_back_shift && _Back_shift <= _Non_user_size, "invalid argument");

  00038	e8 00 00 00 00	 call	 __invalid_parameter_noinfo_noreturn
$LN18@deallocate:
  0003d	cc		 int	 3
?deallocate@?$allocator@V?$CRef@VCGrannyMaterial@@@@@std@@QAEXQAV?$CRef@VCGrannyMaterial@@@@I@Z ENDP ; std::allocator<CRef<CGrannyMaterial> >::deallocate
_TEXT	ENDS
; Function compile flags: /Ogtp
; File C:\Users\flourine\Desktop\Xantios\client-src\Code\eterGrnLib\Material.cpp
; File C:\Program Files\Microsoft Visual Studio\2022\Community\VC\Tools\MSVC\14.34.31933\include\vector
; File C:\Users\flourine\Desktop\Xantios\client-src\Code\eterGrnLib\Material.cpp
;	COMDAT ?GetMaterialCount@CGrannyMaterialPalette@@QBEKXZ
_TEXT	SEGMENT
?GetMaterialCount@CGrannyMaterialPalette@@QBEKXZ PROC	; CGrannyMaterialPalette::GetMaterialCount, COMDAT
; _this$ = ecx
; File C:\Program Files\Microsoft Visual Studio\2022\Community\VC\Tools\MSVC\14.34.31933\include\vector

; 1932 :         return static_cast<size_type>(_My_data._Mylast - _My_data._Myfirst);

  00000	8b 41 08	 mov	 eax, DWORD PTR [ecx+8]
  00003	2b 41 04	 sub	 eax, DWORD PTR [ecx+4]
  00006	c1 f8 02	 sar	 eax, 2
; File C:\Users\flourine\Desktop\Xantios\client-src\Code\eterGrnLib\Material.cpp

; 557  : }

  00009	c3		 ret	 0
?GetMaterialCount@CGrannyMaterialPalette@@QBEKXZ ENDP	; CGrannyMaterialPalette::GetMaterialCount
_TEXT	ENDS
; Function compile flags: /Ogtp
; File C:\Users\flourine\Desktop\Xantios\client-src\Code\eterGrnLib\Material.cpp
;	COMDAT ?GetMaterialRef@CGrannyMaterialPalette@@QAEAAVCGrannyMaterial@@K@Z
_TEXT	SEGMENT
_mtrlIndex$ = 8						; size = 4
?GetMaterialRef@CGrannyMaterialPalette@@QAEAAVCGrannyMaterial@@K@Z PROC ; CGrannyMaterialPalette::GetMaterialRef, COMDAT
; _this$ = ecx

; 447  : {

  00000	55		 push	 ebp
  00001	8b ec		 mov	 ebp, esp

; 448  : 	assert(mtrlIndex < m_mtrlVector.size());
; 449  : 	return *m_mtrlVector[mtrlIndex].GetPointer();

  00003	8b 49 04	 mov	 ecx, DWORD PTR [ecx+4]
  00006	8b 45 08	 mov	 eax, DWORD PTR _mtrlIndex$[ebp]
  00009	8b 04 81	 mov	 eax, DWORD PTR [ecx+eax*4]

; 450  : }

  0000c	5d		 pop	 ebp
  0000d	c2 04 00	 ret	 4
?GetMaterialRef@CGrannyMaterialPalette@@QAEAAVCGrannyMaterial@@K@Z ENDP ; CGrannyMaterialPalette::GetMaterialRef
_TEXT	ENDS
; Function compile flags: /Ogtp
; File C:\Users\flourine\Desktop\Xantios\client-src\Code\eterGrnLib\Material.cpp
; File C:\Program Files\Microsoft Visual Studio\2022\Community\VC\Tools\MSVC\14.34.31933\include\vector
; File C:\Users\flourine\Desktop\Xantios\client-src\Code\eterGrnLib\Material.cpp
; File C:\Program Files\Microsoft Visual Studio\2022\Community\VC\Tools\MSVC\14.34.31933\include\vector
; File C:\Users\flourine\Desktop\Xantios\client-src\Code\eterGrnLib\Material.cpp
; File C:\Program Files\Microsoft Visual Studio\2022\Community\VC\Tools\MSVC\14.34.31933\include\vector
; File C:\Users\flourine\Desktop\Xantios\client-src\Code\eterGrnLib\Material.cpp
;	COMDAT ?SetSpecularInfo@CGrannyMaterialPalette@@QAEXPBDHM@Z
_TEXT	SEGMENT
_iStage$1 = -8						; size = 4
tv222 = -4						; size = 4
_c_szMtrlName$ = 8					; size = 4
_bEnable$ = 12						; size = 4
_fPower$ = 16						; size = 4
?SetSpecularInfo@CGrannyMaterialPalette@@QAEXPBDHM@Z PROC ; CGrannyMaterialPalette::SetSpecularInfo, COMDAT
; _this$ = ecx

; 507  : {

  00000	55		 push	 ebp
  00001	8b ec		 mov	 ebp, esp
  00003	83 ec 08	 sub	 esp, 8
  00006	53		 push	 ebx
  00007	8b d9		 mov	 ebx, ecx

; 510  : 	if (c_szMtrlName)

  00009	8b 4d 08	 mov	 ecx, DWORD PTR _c_szMtrlName$[ebp]
  0000c	56		 push	 esi
  0000d	57		 push	 edi
  0000e	33 f6		 xor	 esi, esi
; File C:\Program Files\Microsoft Visual Studio\2022\Community\VC\Tools\MSVC\14.34.31933\include\vector

; 1932 :         return static_cast<size_type>(_My_data._Mylast - _My_data._Myfirst);

  00010	8b 7b 08	 mov	 edi, DWORD PTR [ebx+8]
  00013	2b 7b 04	 sub	 edi, DWORD PTR [ebx+4]
  00016	c1 ff 02	 sar	 edi, 2
; File C:\Users\flourine\Desktop\Xantios\client-src\Code\eterGrnLib\Material.cpp

; 510  : 	if (c_szMtrlName)

  00019	85 c9		 test	 ecx, ecx
  0001b	74 50		 je	 SHORT $LN8@SetSpecula

; 511  : 	{
; 512  : 		for (i = 0; i < size; ++i)

  0001d	85 ff		 test	 edi, edi
  0001f	74 70		 je	 SHORT $LN6@SetSpecula
$LL4@SetSpecula:
; File C:\Program Files\Microsoft Visual Studio\2022\Community\VC\Tools\MSVC\14.34.31933\include\vector

; 1952 :         return _My_data._Myfirst[_Pos];

  00021	8b 43 04	 mov	 eax, DWORD PTR [ebx+4]
; File C:\Users\flourine\Desktop\Xantios\client-src\Code\eterGrnLib\Material.cpp

; 517  : 			if (roMtrl->IsIn(c_szMtrlName, &iStage))

  00024	8d 55 f8	 lea	 edx, DWORD PTR _iStage$1[ebp]
  00027	52		 push	 edx
  00028	51		 push	 ecx
; File C:\Program Files\Microsoft Visual Studio\2022\Community\VC\Tools\MSVC\14.34.31933\include\vector

; 1952 :         return _My_data._Myfirst[_Pos];

  00029	89 45 fc	 mov	 DWORD PTR tv222[ebp], eax
; File C:\Users\flourine\Desktop\Xantios\client-src\Code\eterGrnLib\Material.cpp

; 517  : 			if (roMtrl->IsIn(c_szMtrlName, &iStage))

  0002c	8b 0c b0	 mov	 ecx, DWORD PTR [eax+esi*4]
  0002f	e8 00 00 00 00	 call	 ?IsIn@CGrannyMaterial@@QAE_NPBDPAH@Z ; CGrannyMaterial::IsIn
  00034	84 c0		 test	 al, al
  00036	75 11		 jne	 SHORT $LN20@SetSpecula

; 511  : 	{
; 512  : 		for (i = 0; i < size; ++i)

  00038	8b 4d 08	 mov	 ecx, DWORD PTR _c_szMtrlName$[ebp]
  0003b	46		 inc	 esi
  0003c	3b f7		 cmp	 esi, edi
  0003e	72 e1		 jb	 SHORT $LL4@SetSpecula

; 530  : 		}
; 531  : 	}
; 532  : }

  00040	5f		 pop	 edi
  00041	5e		 pop	 esi
  00042	5b		 pop	 ebx
  00043	8b e5		 mov	 esp, ebp
  00045	5d		 pop	 ebp
  00046	c2 0c 00	 ret	 12			; 0000000cH
$LN20@SetSpecula:

; 518  : 			{
; 519  : 				roMtrl->SetSpecularInfo(bEnable, fPower, 0);

  00049	f3 0f 10 45 10	 movss	 xmm0, DWORD PTR _fPower$[ebp]
  0004e	6a 00		 push	 0
  00050	51		 push	 ecx
  00051	8b 4d fc	 mov	 ecx, DWORD PTR tv222[ebp]
  00054	f3 0f 11 04 24	 movss	 DWORD PTR [esp], xmm0
  00059	ff 75 0c	 push	 DWORD PTR _bEnable$[ebp]
  0005c	8b 0c b1	 mov	 ecx, DWORD PTR [ecx+esi*4]
  0005f	e8 00 00 00 00	 call	 ?SetSpecularInfo@CGrannyMaterial@@QAEXHME@Z ; CGrannyMaterial::SetSpecularInfo
  00064	5f		 pop	 edi

; 530  : 		}
; 531  : 	}
; 532  : }

  00065	5e		 pop	 esi
  00066	5b		 pop	 ebx
  00067	8b e5		 mov	 esp, ebp
  00069	5d		 pop	 ebp
  0006a	c2 0c 00	 ret	 12			; 0000000cH
$LN8@SetSpecula:

; 520  : 				return;
; 521  : 			}
; 522  : 		}
; 523  : 	}
; 524  : 	else
; 525  : 	{
; 526  : 		for (i = 0; i < size; ++i)

  0006d	85 ff		 test	 edi, edi
  0006f	74 20		 je	 SHORT $LN6@SetSpecula
$LL7@SetSpecula:

; 527  : 		{
; 528  : 			CGrannyMaterial::TRef& roMtrl = m_mtrlVector[i];
; 529  : 			roMtrl->SetSpecularInfo(bEnable, fPower, 0);

  00071	f3 0f 10 45 10	 movss	 xmm0, DWORD PTR _fPower$[ebp]
  00076	6a 00		 push	 0
  00078	51		 push	 ecx
  00079	8b 4b 04	 mov	 ecx, DWORD PTR [ebx+4]
  0007c	f3 0f 11 04 24	 movss	 DWORD PTR [esp], xmm0
  00081	ff 75 0c	 push	 DWORD PTR _bEnable$[ebp]
  00084	8b 0c b1	 mov	 ecx, DWORD PTR [ecx+esi*4]
  00087	e8 00 00 00 00	 call	 ?SetSpecularInfo@CGrannyMaterial@@QAEXHME@Z ; CGrannyMaterial::SetSpecularInfo
  0008c	46		 inc	 esi
  0008d	3b f7		 cmp	 esi, edi
  0008f	72 e0		 jb	 SHORT $LL7@SetSpecula
$LN6@SetSpecula:
  00091	5f		 pop	 edi

; 530  : 		}
; 531  : 	}
; 532  : }

  00092	5e		 pop	 esi
  00093	5b		 pop	 ebx
  00094	8b e5		 mov	 esp, ebp
  00096	5d		 pop	 ebp
  00097	c2 0c 00	 ret	 12			; 0000000cH
?SetSpecularInfo@CGrannyMaterialPalette@@QAEXPBDHM@Z ENDP ; CGrannyMaterialPalette::SetSpecularInfo
_TEXT	ENDS
; Function compile flags: /Ogtp
; File C:\Users\flourine\Desktop\Xantios\client-src\Code\eterGrnLib\Material.cpp
; File C:\Program Files\Microsoft Visual Studio\2022\Community\VC\Tools\MSVC\14.34.31933\include\vector
; File C:\Users\flourine\Desktop\Xantios\client-src\Code\eterGrnLib\Material.cpp
; File C:\Users\flourine\Desktop\Xantios\client-src\Code\eterlib\Ref.h
; File C:\Users\flourine\Desktop\Xantios\client-src\Code\eterGrnLib\Material.cpp
; File C:\Program Files\Microsoft Visual Studio\2022\Community\VC\Tools\MSVC\14.34.31933\include\vector
; File C:\Users\flourine\Desktop\Xantios\client-src\Code\eterGrnLib\Material.cpp
; File C:\Program Files\Microsoft Visual Studio\2022\Community\VC\Tools\MSVC\14.34.31933\include\vector
; File C:\Users\flourine\Desktop\Xantios\client-src\Code\eterGrnLib\Material.cpp
;	COMDAT ?SetMaterialData@CGrannyMaterialPalette@@QAEXPBDABUSMaterialData@@@Z
_TEXT	SEGMENT
$T2 = -16						; size = 4
__$EHRec$ = -12						; size = 12
_iStage$3 = 8						; size = 4
_c_szMtrlName$ = 8					; size = 4
_c_rkMaterialData$ = 12					; size = 4
?SetMaterialData@CGrannyMaterialPalette@@QAEXPBDABUSMaterialData@@@Z PROC ; CGrannyMaterialPalette::SetMaterialData, COMDAT
; _this$ = ecx

; 474  : {

  00000	55		 push	 ebp
  00001	8b ec		 mov	 ebp, esp
  00003	6a ff		 push	 -1
  00005	68 00 00 00 00	 push	 __ehhandler$?SetMaterialData@CGrannyMaterialPalette@@QAEXPBDABUSMaterialData@@@Z
  0000a	64 a1 00 00 00
	00		 mov	 eax, DWORD PTR fs:0
  00010	50		 push	 eax
  00011	51		 push	 ecx
  00012	53		 push	 ebx
  00013	56		 push	 esi
  00014	57		 push	 edi
  00015	a1 00 00 00 00	 mov	 eax, DWORD PTR ___security_cookie
  0001a	33 c5		 xor	 eax, ebp
  0001c	50		 push	 eax
  0001d	8d 45 f4	 lea	 eax, DWORD PTR __$EHRec$[ebp]
  00020	64 a3 00 00 00
	00		 mov	 DWORD PTR fs:0, eax
  00026	8b f9		 mov	 edi, ecx

; 475  : 	if (c_szMtrlName)

  00028	8b 5d 08	 mov	 ebx, DWORD PTR _c_szMtrlName$[ebp]
  0002b	8b 77 04	 mov	 esi, DWORD PTR [edi+4]
  0002e	8b 47 08	 mov	 eax, DWORD PTR [edi+8]
  00031	85 db		 test	 ebx, ebx
  00033	0f 84 c0 00 00
	00		 je	 $LN8@SetMateria

; 478  : 		for (i = m_mtrlVector.begin(); i != m_mtrlVector.end(); ++i)

  00039	3b f0		 cmp	 esi, eax
  0003b	0f 84 e1 00 00
	00		 je	 $LN6@SetMateria
$LL42@SetMateria:

; 479  : 		{
; 480  : 			CGrannyMaterial::TRef& roMtrl = *i;
; 481  : 
; 482  : 			int iStage;
; 483  : 			if (roMtrl->IsIn(c_szMtrlName, &iStage))

  00041	8b 0e		 mov	 ecx, DWORD PTR [esi]
  00043	8d 45 08	 lea	 eax, DWORD PTR _iStage$3[ebp]
  00046	50		 push	 eax
  00047	53		 push	 ebx
  00048	e8 00 00 00 00	 call	 ?IsIn@CGrannyMaterial@@QAE_NPBDPAH@Z ; CGrannyMaterial::IsIn
  0004d	84 c0		 test	 al, al
  0004f	75 1c		 jne	 SHORT $LN71@SetMateria
; File C:\Program Files\Microsoft Visual Studio\2022\Community\VC\Tools\MSVC\14.34.31933\include\vector

; 74   :         ++_Ptr;

  00051	83 c6 04	 add	 esi, 4

; 156  :         return _Ptr == _Right._Ptr;

  00054	3b 77 08	 cmp	 esi, DWORD PTR [edi+8]
; File C:\Users\flourine\Desktop\Xantios\client-src\Code\eterGrnLib\Material.cpp

; 478  : 		for (i = m_mtrlVector.begin(); i != m_mtrlVector.end(); ++i)

  00057	75 e8		 jne	 SHORT $LL42@SetMateria

; 504  : }

  00059	8b 4d f4	 mov	 ecx, DWORD PTR __$EHRec$[ebp]
  0005c	64 89 0d 00 00
	00 00		 mov	 DWORD PTR fs:0, ecx
  00063	59		 pop	 ecx
  00064	5f		 pop	 edi
  00065	5e		 pop	 esi
  00066	5b		 pop	 ebx
  00067	8b e5		 mov	 esp, ebp
  00069	5d		 pop	 ebp
  0006a	c2 08 00	 ret	 8
$LN71@SetMateria:

; 484  : 			{
; 485  : 				CGrannyMaterial* pkNewMtrl = new CGrannyMaterial;

  0006d	6a 38		 push	 56			; 00000038H
  0006f	e8 00 00 00 00	 call	 ??2@YAPAXI@Z		; operator new
  00074	83 c4 04	 add	 esp, 4
  00077	89 45 f0	 mov	 DWORD PTR $T2[ebp], eax
  0007a	c7 45 fc 00 00
	00 00		 mov	 DWORD PTR __$EHRec$[ebp+8], 0
  00081	85 c0		 test	 eax, eax
  00083	74 0b		 je	 SHORT $LN12@SetMateria
  00085	8b c8		 mov	 ecx, eax
  00087	e8 00 00 00 00	 call	 ??0CGrannyMaterial@@QAE@XZ ; CGrannyMaterial::CGrannyMaterial
  0008c	8b d8		 mov	 ebx, eax
  0008e	eb 02		 jmp	 SHORT $LN13@SetMateria
$LN12@SetMateria:
  00090	33 db		 xor	 ebx, ebx
$LN13@SetMateria:

; 486  : 				pkNewMtrl->Copy(*roMtrl.GetPointer());

  00092	ff 36		 push	 DWORD PTR [esi]
  00094	8b cb		 mov	 ecx, ebx
  00096	c7 45 fc ff ff
	ff ff		 mov	 DWORD PTR __$EHRec$[ebp+8], -1
  0009d	e8 00 00 00 00	 call	 ?Copy@CGrannyMaterial@@QAEXAAV1@@Z ; CGrannyMaterial::Copy

; 487  : 				pkNewMtrl->SetImagePointer(iStage, c_rkMaterialData.pImage);

  000a2	8b 7d 0c	 mov	 edi, DWORD PTR _c_rkMaterialData$[ebp]
  000a5	8b cb		 mov	 ecx, ebx
  000a7	ff 37		 push	 DWORD PTR [edi]
  000a9	ff 75 08	 push	 DWORD PTR _iStage$3[ebp]
  000ac	e8 00 00 00 00	 call	 ?SetImagePointer@CGrannyMaterial@@QAEXHPAVCGraphicImage@@@Z ; CGrannyMaterial::SetImagePointer

; 488  : 				pkNewMtrl->SetSpecularInfo(c_rkMaterialData.isSpecularEnable, c_rkMaterialData.fSpecularPower, c_rkMaterialData.bSphereMapIndex);

  000b1	0f b6 47 0c	 movzx	 eax, BYTE PTR [edi+12]
  000b5	f3 0f 10 47 04	 movss	 xmm0, DWORD PTR [edi+4]
  000ba	50		 push	 eax
  000bb	51		 push	 ecx
  000bc	f3 0f 11 04 24	 movss	 DWORD PTR [esp], xmm0
  000c1	8b cb		 mov	 ecx, ebx
  000c3	ff 77 08	 push	 DWORD PTR [edi+8]
  000c6	e8 00 00 00 00	 call	 ?SetSpecularInfo@CGrannyMaterial@@QAEXHME@Z ; CGrannyMaterial::SetSpecularInfo
; File C:\Users\flourine\Desktop\Xantios\client-src\Code\eterlib\Ref.h

; 67   : 		CReferenceObject* pOldObject = m_pObject;

  000cb	8b 3e		 mov	 edi, DWORD PTR [esi]

; 68   : 
; 69   : 		m_pObject = pObject;

  000cd	89 1e		 mov	 DWORD PTR [esi], ebx

; 70   : 
; 71   : 		if (m_pObject)

  000cf	85 db		 test	 ebx, ebx
  000d1	74 07		 je	 SHORT $LN46@SetMateria

; 72   : 		{
; 73   : 			m_pObject->AddReference();

  000d3	8b cb		 mov	 ecx, ebx
  000d5	e8 00 00 00 00	 call	 ?AddReference@CReferenceObject@@QAEXXZ ; CReferenceObject::AddReference
$LN46@SetMateria:

; 74   : 		}
; 75   : 
; 76   : 		if (pOldObject)

  000da	85 ff		 test	 edi, edi
  000dc	74 44		 je	 SHORT $LN6@SetMateria

; 77   : 		{
; 78   : 			pOldObject->Release();

  000de	8b cf		 mov	 ecx, edi
  000e0	e8 00 00 00 00	 call	 ?Release@CReferenceObject@@QAEXXZ ; CReferenceObject::Release
; File C:\Users\flourine\Desktop\Xantios\client-src\Code\eterGrnLib\Material.cpp

; 504  : }

  000e5	8b 4d f4	 mov	 ecx, DWORD PTR __$EHRec$[ebp]
  000e8	64 89 0d 00 00
	00 00		 mov	 DWORD PTR fs:0, ecx
  000ef	59		 pop	 ecx
  000f0	5f		 pop	 edi
  000f1	5e		 pop	 esi
  000f2	5b		 pop	 ebx
  000f3	8b e5		 mov	 esp, ebp
  000f5	5d		 pop	 ebp
  000f6	c2 08 00	 ret	 8
$LN8@SetMateria:
; File C:\Program Files\Microsoft Visual Studio\2022\Community\VC\Tools\MSVC\14.34.31933\include\vector

; 41   :     _CONSTEXPR20 _Vector_const_iterator(_Tptr _Parg, const _Container_base* _Pvector) noexcept : _Ptr(_Parg) {

  000f9	3b f0		 cmp	 esi, eax
; File C:\Users\flourine\Desktop\Xantios\client-src\Code\eterGrnLib\Material.cpp

; 498  : 		for (i = m_mtrlVector.begin(); i != m_mtrlVector.end(); ++i)

  000fb	74 25		 je	 SHORT $LN6@SetMateria
  000fd	8b 5d 0c	 mov	 ebx, DWORD PTR _c_rkMaterialData$[ebp]
$LL28@SetMateria:

; 499  : 		{
; 500  : 			CGrannyMaterial::TRef& roMtrl = *i;
; 501  : 			roMtrl->SetSpecularInfo(c_rkMaterialData.isSpecularEnable, c_rkMaterialData.fSpecularPower, c_rkMaterialData.bSphereMapIndex);

  00100	0f b6 43 0c	 movzx	 eax, BYTE PTR [ebx+12]
  00104	f3 0f 10 43 04	 movss	 xmm0, DWORD PTR [ebx+4]
  00109	50		 push	 eax
  0010a	51		 push	 ecx
  0010b	8b 0e		 mov	 ecx, DWORD PTR [esi]
  0010d	f3 0f 11 04 24	 movss	 DWORD PTR [esp], xmm0
  00112	ff 73 08	 push	 DWORD PTR [ebx+8]
  00115	e8 00 00 00 00	 call	 ?SetSpecularInfo@CGrannyMaterial@@QAEXHME@Z ; CGrannyMaterial::SetSpecularInfo
; File C:\Program Files\Microsoft Visual Studio\2022\Community\VC\Tools\MSVC\14.34.31933\include\vector

; 74   :         ++_Ptr;

  0011a	83 c6 04	 add	 esi, 4

; 156  :         return _Ptr == _Right._Ptr;

  0011d	3b 77 08	 cmp	 esi, DWORD PTR [edi+8]
; File C:\Users\flourine\Desktop\Xantios\client-src\Code\eterGrnLib\Material.cpp

; 498  : 		for (i = m_mtrlVector.begin(); i != m_mtrlVector.end(); ++i)

  00120	75 de		 jne	 SHORT $LL28@SetMateria
$LN6@SetMateria:

; 504  : }

  00122	8b 4d f4	 mov	 ecx, DWORD PTR __$EHRec$[ebp]
  00125	64 89 0d 00 00
	00 00		 mov	 DWORD PTR fs:0, ecx
  0012c	59		 pop	 ecx
  0012d	5f		 pop	 edi
  0012e	5e		 pop	 esi
  0012f	5b		 pop	 ebx
  00130	8b e5		 mov	 esp, ebp
  00132	5d		 pop	 ebp
  00133	c2 08 00	 ret	 8
_TEXT	ENDS
;	COMDAT text$x
text$x	SEGMENT
__unwindfunclet$?SetMaterialData@CGrannyMaterialPalette@@QAEXPBDABUSMaterialData@@@Z$0:
  00000	6a 38		 push	 56			; 00000038H
  00002	8b 45 f0	 mov	 eax, DWORD PTR $T2[ebp]
  00005	50		 push	 eax
  00006	e8 00 00 00 00	 call	 ??3@YAXPAXI@Z		; operator delete
  0000b	83 c4 08	 add	 esp, 8
  0000e	c3		 ret	 0
  0000f	cc		 int	 3
  00010	cc		 int	 3
  00011	cc		 int	 3
  00012	cc		 int	 3
  00013	cc		 int	 3
__ehhandler$?SetMaterialData@CGrannyMaterialPalette@@QAEXPBDABUSMaterialData@@@Z:
  00014	90		 npad	 1
  00015	90		 npad	 1
  00016	8b 54 24 08	 mov	 edx, DWORD PTR [esp+8]
  0001a	8d 42 0c	 lea	 eax, DWORD PTR [edx+12]
  0001d	8b 4a ec	 mov	 ecx, DWORD PTR [edx-20]
  00020	33 c8		 xor	 ecx, eax
  00022	e8 00 00 00 00	 call	 @__security_check_cookie@4
  00027	b8 00 00 00 00	 mov	 eax, OFFSET __ehfuncinfo$?SetMaterialData@CGrannyMaterialPalette@@QAEXPBDABUSMaterialData@@@Z
  0002c	e9 00 00 00 00	 jmp	 ___CxxFrameHandler3
text$x	ENDS
?SetMaterialData@CGrannyMaterialPalette@@QAEXPBDABUSMaterialData@@@Z ENDP ; CGrannyMaterialPalette::SetMaterialData
; Function compile flags: /Ogtp
; File C:\Users\flourine\Desktop\Xantios\client-src\Code\eterGrnLib\Material.cpp
; File C:\Program Files\Microsoft Visual Studio\2022\Community\VC\Tools\MSVC\14.34.31933\include\vector
; File C:\Users\flourine\Desktop\Xantios\client-src\Code\eterGrnLib\Material.cpp
; File C:\Program Files\Microsoft Visual Studio\2022\Community\VC\Tools\MSVC\14.34.31933\include\vector
; File C:\Users\flourine\Desktop\Xantios\client-src\Code\eterGrnLib\Material.cpp
; File C:\Program Files\Microsoft Visual Studio\2022\Community\VC\Tools\MSVC\14.34.31933\include\vector
; File C:\Users\flourine\Desktop\Xantios\client-src\Code\eterGrnLib\Material.cpp
; File C:\Program Files\Microsoft Visual Studio\2022\Community\VC\Tools\MSVC\14.34.31933\include\vector
; File C:\Users\flourine\Desktop\Xantios\client-src\Code\eterGrnLib\Material.cpp
; File C:\Users\flourine\Desktop\Xantios\client-src\Code\eterlib\Ref.h
; File C:\Users\flourine\Desktop\Xantios\client-src\Code\eterGrnLib\Material.cpp
;	COMDAT ?SetMaterialImagePointer@CGrannyMaterialPalette@@QAEXPBDPAVCGraphicImage@@@Z
_TEXT	SEGMENT
_iStage$2 = -20						; size = 4
_this$1$ = -16						; size = 4
__$EHRec$ = -12						; size = 12
$T3 = 8							; size = 4
_c_szImageName$ = 8					; size = 4
_pImage$ = 12						; size = 4
?SetMaterialImagePointer@CGrannyMaterialPalette@@QAEXPBDPAVCGraphicImage@@@Z PROC ; CGrannyMaterialPalette::SetMaterialImagePointer, COMDAT
; _this$ = ecx

; 453  : {

  00000	55		 push	 ebp
  00001	8b ec		 mov	 ebp, esp
  00003	6a ff		 push	 -1
  00005	68 00 00 00 00	 push	 __ehhandler$?SetMaterialImagePointer@CGrannyMaterialPalette@@QAEXPBDPAVCGraphicImage@@@Z
  0000a	64 a1 00 00 00
	00		 mov	 eax, DWORD PTR fs:0
  00010	50		 push	 eax
  00011	83 ec 08	 sub	 esp, 8
  00014	53		 push	 ebx
  00015	56		 push	 esi
  00016	57		 push	 edi
  00017	a1 00 00 00 00	 mov	 eax, DWORD PTR ___security_cookie
  0001c	33 c5		 xor	 eax, ebp
  0001e	50		 push	 eax
  0001f	8d 45 f4	 lea	 eax, DWORD PTR __$EHRec$[ebp]
  00022	64 a3 00 00 00
	00		 mov	 DWORD PTR fs:0, eax
  00028	8b c1		 mov	 eax, ecx
  0002a	89 45 f0	 mov	 DWORD PTR _this$1$[ebp], eax
; File C:\Program Files\Microsoft Visual Studio\2022\Community\VC\Tools\MSVC\14.34.31933\include\vector

; 1932 :         return static_cast<size_type>(_My_data._Mylast - _My_data._Myfirst);

  0002d	8b 78 08	 mov	 edi, DWORD PTR [eax+8]
; File C:\Users\flourine\Desktop\Xantios\client-src\Code\eterGrnLib\Material.cpp

; 456  : 	for (i = 0; i < size; ++i)

  00030	33 f6		 xor	 esi, esi
; File C:\Program Files\Microsoft Visual Studio\2022\Community\VC\Tools\MSVC\14.34.31933\include\vector

; 1932 :         return static_cast<size_type>(_My_data._Mylast - _My_data._Myfirst);

  00032	2b 78 04	 sub	 edi, DWORD PTR [eax+4]
  00035	c1 ff 02	 sar	 edi, 2
; File C:\Users\flourine\Desktop\Xantios\client-src\Code\eterGrnLib\Material.cpp

; 456  : 	for (i = 0; i < size; ++i)

  00038	85 ff		 test	 edi, edi
  0003a	0f 84 91 00 00
	00		 je	 $LN16@SetMateria
$LL4@SetMateria:
; File C:\Program Files\Microsoft Visual Studio\2022\Community\VC\Tools\MSVC\14.34.31933\include\vector

; 1952 :         return _My_data._Myfirst[_Pos];

  00040	8b 40 04	 mov	 eax, DWORD PTR [eax+4]
; File C:\Users\flourine\Desktop\Xantios\client-src\Code\eterGrnLib\Material.cpp

; 461  : 		if (roMtrl->IsIn(c_szImageName, &iStage))

  00043	8b 0c b0	 mov	 ecx, DWORD PTR [eax+esi*4]
; File C:\Program Files\Microsoft Visual Studio\2022\Community\VC\Tools\MSVC\14.34.31933\include\vector

; 1952 :         return _My_data._Myfirst[_Pos];

  00046	8d 1c b0	 lea	 ebx, DWORD PTR [eax+esi*4]
; File C:\Users\flourine\Desktop\Xantios\client-src\Code\eterGrnLib\Material.cpp

; 461  : 		if (roMtrl->IsIn(c_szImageName, &iStage))

  00049	8d 45 ec	 lea	 eax, DWORD PTR _iStage$2[ebp]
  0004c	50		 push	 eax
  0004d	ff 75 08	 push	 DWORD PTR _c_szImageName$[ebp]
  00050	e8 00 00 00 00	 call	 ?IsIn@CGrannyMaterial@@QAE_NPBDPAH@Z ; CGrannyMaterial::IsIn
  00055	84 c0		 test	 al, al
  00057	75 1c		 jne	 SHORT $LN21@SetMateria

; 456  : 	for (i = 0; i < size; ++i)

  00059	8b 45 f0	 mov	 eax, DWORD PTR _this$1$[ebp]
  0005c	46		 inc	 esi
  0005d	3b f7		 cmp	 esi, edi
  0005f	72 df		 jb	 SHORT $LL4@SetMateria

; 471  : }

  00061	8b 4d f4	 mov	 ecx, DWORD PTR __$EHRec$[ebp]
  00064	64 89 0d 00 00
	00 00		 mov	 DWORD PTR fs:0, ecx
  0006b	59		 pop	 ecx
  0006c	5f		 pop	 edi
  0006d	5e		 pop	 esi
  0006e	5b		 pop	 ebx
  0006f	8b e5		 mov	 esp, ebp
  00071	5d		 pop	 ebp
  00072	c2 08 00	 ret	 8
$LN21@SetMateria:

; 462  : 		{
; 463  : 			CGrannyMaterial* pkNewMtrl = new CGrannyMaterial;

  00075	6a 38		 push	 56			; 00000038H
  00077	e8 00 00 00 00	 call	 ??2@YAPAXI@Z		; operator new
  0007c	83 c4 04	 add	 esp, 4
  0007f	89 45 08	 mov	 DWORD PTR $T3[ebp], eax
  00082	c7 45 fc 00 00
	00 00		 mov	 DWORD PTR __$EHRec$[ebp+8], 0
  00089	85 c0		 test	 eax, eax
  0008b	74 0b		 je	 SHORT $LN7@SetMateria
  0008d	8b c8		 mov	 ecx, eax
  0008f	e8 00 00 00 00	 call	 ??0CGrannyMaterial@@QAE@XZ ; CGrannyMaterial::CGrannyMaterial
  00094	8b f0		 mov	 esi, eax
  00096	eb 02		 jmp	 SHORT $LN8@SetMateria
$LN7@SetMateria:
  00098	33 f6		 xor	 esi, esi
$LN8@SetMateria:

; 464  : 			pkNewMtrl->Copy(*roMtrl.GetPointer());

  0009a	ff 33		 push	 DWORD PTR [ebx]
  0009c	8b ce		 mov	 ecx, esi
  0009e	c7 45 fc ff ff
	ff ff		 mov	 DWORD PTR __$EHRec$[ebp+8], -1
  000a5	e8 00 00 00 00	 call	 ?Copy@CGrannyMaterial@@QAEXAAV1@@Z ; CGrannyMaterial::Copy

; 465  : 			pkNewMtrl->SetImagePointer(iStage, pImage);

  000aa	ff 75 0c	 push	 DWORD PTR _pImage$[ebp]
  000ad	8b ce		 mov	 ecx, esi
  000af	ff 75 ec	 push	 DWORD PTR _iStage$2[ebp]
  000b2	e8 00 00 00 00	 call	 ?SetImagePointer@CGrannyMaterial@@QAEXHPAVCGraphicImage@@@Z ; CGrannyMaterial::SetImagePointer
; File C:\Users\flourine\Desktop\Xantios\client-src\Code\eterlib\Ref.h

; 67   : 		CReferenceObject* pOldObject = m_pObject;

  000b7	8b 3b		 mov	 edi, DWORD PTR [ebx]

; 68   : 
; 69   : 		m_pObject = pObject;

  000b9	89 33		 mov	 DWORD PTR [ebx], esi

; 70   : 
; 71   : 		if (m_pObject)

  000bb	85 f6		 test	 esi, esi
  000bd	74 07		 je	 SHORT $LN15@SetMateria

; 72   : 		{
; 73   : 			m_pObject->AddReference();

  000bf	8b ce		 mov	 ecx, esi
  000c1	e8 00 00 00 00	 call	 ?AddReference@CReferenceObject@@QAEXXZ ; CReferenceObject::AddReference
$LN15@SetMateria:

; 74   : 		}
; 75   : 
; 76   : 		if (pOldObject)

  000c6	85 ff		 test	 edi, edi
  000c8	74 07		 je	 SHORT $LN16@SetMateria

; 77   : 		{
; 78   : 			pOldObject->Release();

  000ca	8b cf		 mov	 ecx, edi
  000cc	e8 00 00 00 00	 call	 ?Release@CReferenceObject@@QAEXXZ ; CReferenceObject::Release
$LN16@SetMateria:
; File C:\Users\flourine\Desktop\Xantios\client-src\Code\eterGrnLib\Material.cpp

; 471  : }

  000d1	8b 4d f4	 mov	 ecx, DWORD PTR __$EHRec$[ebp]
  000d4	64 89 0d 00 00
	00 00		 mov	 DWORD PTR fs:0, ecx
  000db	59		 pop	 ecx
  000dc	5f		 pop	 edi
  000dd	5e		 pop	 esi
  000de	5b		 pop	 ebx
  000df	8b e5		 mov	 esp, ebp
  000e1	5d		 pop	 ebp
  000e2	c2 08 00	 ret	 8
_TEXT	ENDS
;	COMDAT text$x
text$x	SEGMENT
__unwindfunclet$?SetMaterialImagePointer@CGrannyMaterialPalette@@QAEXPBDPAVCGraphicImage@@@Z$0:
  00000	6a 38		 push	 56			; 00000038H
  00002	8b 45 08	 mov	 eax, DWORD PTR $T3[ebp]
  00005	50		 push	 eax
  00006	e8 00 00 00 00	 call	 ??3@YAXPAXI@Z		; operator delete
  0000b	83 c4 08	 add	 esp, 8
  0000e	c3		 ret	 0
  0000f	cc		 int	 3
  00010	cc		 int	 3
  00011	cc		 int	 3
  00012	cc		 int	 3
  00013	cc		 int	 3
__ehhandler$?SetMaterialImagePointer@CGrannyMaterialPalette@@QAEXPBDPAVCGraphicImage@@@Z:
  00014	90		 npad	 1
  00015	90		 npad	 1
  00016	8b 54 24 08	 mov	 edx, DWORD PTR [esp+8]
  0001a	8d 42 0c	 lea	 eax, DWORD PTR [edx+12]
  0001d	8b 4a e8	 mov	 ecx, DWORD PTR [edx-24]
  00020	33 c8		 xor	 ecx, eax
  00022	e8 00 00 00 00	 call	 @__security_check_cookie@4
  00027	b8 00 00 00 00	 mov	 eax, OFFSET __ehfuncinfo$?SetMaterialImagePointer@CGrannyMaterialPalette@@QAEXPBDPAVCGraphicImage@@@Z
  0002c	e9 00 00 00 00	 jmp	 ___CxxFrameHandler3
text$x	ENDS
?SetMaterialImagePointer@CGrannyMaterialPalette@@QAEXPBDPAVCGraphicImage@@@Z ENDP ; CGrannyMaterialPalette::SetMaterialImagePointer
; Function compile flags: /Ogtp
; File C:\Users\flourine\Desktop\Xantios\client-src\Code\eterGrnLib\Material.cpp
; File C:\Program Files\Microsoft Visual Studio\2022\Community\VC\Tools\MSVC\14.34.31933\include\vector
; File C:\Users\flourine\Desktop\Xantios\client-src\Code\eterGrnLib\Material.cpp
; File C:\Program Files\Microsoft Visual Studio\2022\Community\VC\Tools\MSVC\14.34.31933\include\vector
; File C:\Users\flourine\Desktop\Xantios\client-src\Code\eterGrnLib\Material.cpp
; File C:\Users\flourine\Desktop\Xantios\client-src\Code\eterlib\Ref.h
; File C:\Program Files\Microsoft Visual Studio\2022\Community\VC\Tools\MSVC\14.34.31933\include\vector
; File C:\Users\flourine\Desktop\Xantios\client-src\Code\eterGrnLib\Material.cpp
; File C:\Program Files\Microsoft Visual Studio\2022\Community\VC\Tools\MSVC\14.34.31933\include\vector
; File C:\Users\flourine\Desktop\Xantios\client-src\Code\eterlib\Ref.h
; File C:\Program Files\Microsoft Visual Studio\2022\Community\VC\Tools\MSVC\14.34.31933\include\vector
; File C:\Users\flourine\Desktop\Xantios\client-src\Code\eterlib\Ref.h
; File C:\Users\flourine\Desktop\Xantios\client-src\Code\eterGrnLib\Material.cpp
;	COMDAT ?RegisterMaterial@CGrannyMaterialPalette@@QAEKPAUgranny_material@@@Z
_TEXT	SEGMENT
$T2 = -20						; size = 4
__My_data$1$ = -16					; size = 4
__$EHRec$ = -12						; size = 12
$T3 = 8							; size = 4
_pgrnMaterial$ = 8					; size = 4
?RegisterMaterial@CGrannyMaterialPalette@@QAEKPAUgranny_material@@@Z PROC ; CGrannyMaterialPalette::RegisterMaterial, COMDAT
; _this$ = ecx

; 535  : {

  00000	55		 push	 ebp
  00001	8b ec		 mov	 ebp, esp
  00003	6a ff		 push	 -1
  00005	68 00 00 00 00	 push	 __ehhandler$?RegisterMaterial@CGrannyMaterialPalette@@QAEKPAUgranny_material@@@Z
  0000a	64 a1 00 00 00
	00		 mov	 eax, DWORD PTR fs:0
  00010	50		 push	 eax
  00011	83 ec 08	 sub	 esp, 8
  00014	53		 push	 ebx
  00015	56		 push	 esi
  00016	57		 push	 edi
  00017	a1 00 00 00 00	 mov	 eax, DWORD PTR ___security_cookie
  0001c	33 c5		 xor	 eax, ebp
  0001e	50		 push	 eax
  0001f	8d 45 f4	 lea	 eax, DWORD PTR __$EHRec$[ebp]
  00022	64 a3 00 00 00
	00		 mov	 DWORD PTR fs:0, eax
; File C:\Program Files\Microsoft Visual Studio\2022\Community\VC\Tools\MSVC\14.34.31933\include\vector

; 1932 :         return static_cast<size_type>(_My_data._Mylast - _My_data._Myfirst);

  00028	8b 59 08	 mov	 ebx, DWORD PTR [ecx+8]
  0002b	8d 41 04	 lea	 eax, DWORD PTR [ecx+4]
  0002e	8b 79 04	 mov	 edi, DWORD PTR [ecx+4]
; File C:\Users\flourine\Desktop\Xantios\client-src\Code\eterGrnLib\Material.cpp

; 538  : 	for (i = 0; i < size; ++i)

  00031	33 f6		 xor	 esi, esi
; File C:\Program Files\Microsoft Visual Studio\2022\Community\VC\Tools\MSVC\14.34.31933\include\vector

; 1932 :         return static_cast<size_type>(_My_data._Mylast - _My_data._Myfirst);

  00033	2b df		 sub	 ebx, edi
  00035	89 45 f0	 mov	 DWORD PTR __My_data$1$[ebp], eax
  00038	c1 fb 02	 sar	 ebx, 2
; File C:\Users\flourine\Desktop\Xantios\client-src\Code\eterGrnLib\Material.cpp

; 538  : 	for (i = 0; i < size; ++i)

  0003b	85 db		 test	 ebx, ebx
  0003d	74 17		 je	 SHORT $LN3@RegisterMa
  0003f	90		 npad	 1
$LL4@RegisterMa:

; 539  : 	{
; 540  : 		CGrannyMaterial::TRef& roMtrl = m_mtrlVector[i];
; 541  : 		if (roMtrl->IsEqual(pgrnMaterial))

  00040	ff 75 08	 push	 DWORD PTR _pgrnMaterial$[ebp]
  00043	8b 0f		 mov	 ecx, DWORD PTR [edi]
  00045	e8 00 00 00 00	 call	 ?IsEqual@CGrannyMaterial@@QBE_NPAUgranny_material@@@Z ; CGrannyMaterial::IsEqual
  0004a	84 c0		 test	 al, al
  0004c	75 2b		 jne	 SHORT $LN41@RegisterMa

; 538  : 	for (i = 0; i < size; ++i)

  0004e	46		 inc	 esi
  0004f	83 c7 04	 add	 edi, 4
  00052	3b f3		 cmp	 esi, ebx
  00054	72 ea		 jb	 SHORT $LL4@RegisterMa
$LN3@RegisterMa:

; 544  : 		}
; 545  : 	}
; 546  : 
; 547  : 	CGrannyMaterial* pkNewMtrl = new CGrannyMaterial;

  00056	6a 38		 push	 56			; 00000038H
  00058	e8 00 00 00 00	 call	 ??2@YAPAXI@Z		; operator new
  0005d	83 c4 04	 add	 esp, 4
  00060	89 45 ec	 mov	 DWORD PTR $T2[ebp], eax
  00063	c7 45 fc 00 00
	00 00		 mov	 DWORD PTR __$EHRec$[ebp+8], 0
  0006a	85 c0		 test	 eax, eax
  0006c	74 21		 je	 SHORT $LN7@RegisterMa
  0006e	8b c8		 mov	 ecx, eax
  00070	e8 00 00 00 00	 call	 ??0CGrannyMaterial@@QAE@XZ ; CGrannyMaterial::CGrannyMaterial
  00075	8b f0		 mov	 esi, eax
  00077	eb 18		 jmp	 SHORT $LN8@RegisterMa
$LN41@RegisterMa:

; 542  : 		{
; 543  : 			return i;

  00079	8b c6		 mov	 eax, esi

; 552  : }

  0007b	8b 4d f4	 mov	 ecx, DWORD PTR __$EHRec$[ebp]
  0007e	64 89 0d 00 00
	00 00		 mov	 DWORD PTR fs:0, ecx
  00085	59		 pop	 ecx
  00086	5f		 pop	 edi
  00087	5e		 pop	 esi
  00088	5b		 pop	 ebx
  00089	8b e5		 mov	 esp, ebp
  0008b	5d		 pop	 ebp
  0008c	c2 04 00	 ret	 4
$LN7@RegisterMa:

; 544  : 		}
; 545  : 	}
; 546  : 
; 547  : 	CGrannyMaterial* pkNewMtrl = new CGrannyMaterial;

  0008f	33 f6		 xor	 esi, esi
$LN8@RegisterMa:

; 548  : 	pkNewMtrl->CreateFromGrannyMaterialPointer(pgrnMaterial);

  00091	ff 75 08	 push	 DWORD PTR _pgrnMaterial$[ebp]
  00094	8b ce		 mov	 ecx, esi
  00096	c7 45 fc ff ff
	ff ff		 mov	 DWORD PTR __$EHRec$[ebp+8], -1
  0009d	e8 00 00 00 00	 call	 ?CreateFromGrannyMaterialPointer@CGrannyMaterial@@QAE_NPAUgranny_material@@@Z ; CGrannyMaterial::CreateFromGrannyMaterialPointer
; File C:\Users\flourine\Desktop\Xantios\client-src\Code\eterlib\Ref.h

; 98   : 		m_pObject = pObject;

  000a2	89 75 08	 mov	 DWORD PTR $T3[ebp], esi
  000a5	85 f6		 test	 esi, esi

; 99   : 
; 100  : 		if (m_pObject)

  000a7	74 07		 je	 SHORT $LN16@RegisterMa

; 101  : 		{
; 102  : 			m_pObject->AddReference();

  000a9	8b ce		 mov	 ecx, esi
  000ab	e8 00 00 00 00	 call	 ?AddReference@CReferenceObject@@QAEXXZ ; CReferenceObject::AddReference
$LN16@RegisterMa:
; File C:\Program Files\Microsoft Visual Studio\2022\Community\VC\Tools\MSVC\14.34.31933\include\vector

; 844  :         if (_Mylast != _My_data._Myend) {

  000b0	8b 7d f0	 mov	 edi, DWORD PTR __My_data$1$[ebp]
; File C:\Users\flourine\Desktop\Xantios\client-src\Code\eterGrnLib\Material.cpp

; 549  : 	m_mtrlVector.push_back(pkNewMtrl);

  000b3	c7 45 fc 01 00
	00 00		 mov	 DWORD PTR __$EHRec$[ebp+8], 1
; File C:\Program Files\Microsoft Visual Studio\2022\Community\VC\Tools\MSVC\14.34.31933\include\vector

; 844  :         if (_Mylast != _My_data._Myend) {

  000ba	8b 47 04	 mov	 eax, DWORD PTR [edi+4]
  000bd	3b 47 08	 cmp	 eax, DWORD PTR [edi+8]
  000c0	74 13		 je	 SHORT $LN21@RegisterMa
; File C:\Users\flourine\Desktop\Xantios\client-src\Code\eterlib\Ref.h

; 98   : 		m_pObject = pObject;

  000c2	89 30		 mov	 DWORD PTR [eax], esi

; 99   : 
; 100  : 		if (m_pObject)

  000c4	85 f6		 test	 esi, esi
  000c6	74 07		 je	 SHORT $LN30@RegisterMa

; 101  : 		{
; 102  : 			m_pObject->AddReference();

  000c8	8b ce		 mov	 ecx, esi
  000ca	e8 00 00 00 00	 call	 ?AddReference@CReferenceObject@@QAEXXZ ; CReferenceObject::AddReference
$LN30@RegisterMa:
; File C:\Program Files\Microsoft Visual Studio\2022\Community\VC\Tools\MSVC\14.34.31933\include\vector

; 869  :         ++_Mylast;

  000cf	83 47 04 04	 add	 DWORD PTR [edi+4], 4

; 845  :             return _Emplace_back_with_unused_capacity(_STD forward<_Valty>(_Val)...);

  000d3	eb 0f		 jmp	 SHORT $LN20@RegisterMa
$LN21@RegisterMa:

; 846  :         }
; 847  : 
; 848  :         return *_Emplace_reallocate(_Mylast, _STD forward<_Valty>(_Val)...);

  000d5	8d 4d 08	 lea	 ecx, DWORD PTR $T3[ebp]
  000d8	51		 push	 ecx
  000d9	50		 push	 eax
  000da	8b cf		 mov	 ecx, edi
  000dc	e8 00 00 00 00	 call	 ??$_Emplace_reallocate@V?$CRef@VCGrannyMaterial@@@@@?$vector@V?$CRef@VCGrannyMaterial@@@@V?$allocator@V?$CRef@VCGrannyMaterial@@@@@std@@@std@@AAEPAV?$CRef@VCGrannyMaterial@@@@QAV2@$$QAV2@@Z ; std::vector<CRef<CGrannyMaterial>,std::allocator<CRef<CGrannyMaterial> > >::_Emplace_reallocate<CRef<CGrannyMaterial> >
  000e1	8b 75 08	 mov	 esi, DWORD PTR $T3[ebp]
$LN20@RegisterMa:
; File C:\Users\flourine\Desktop\Xantios\client-src\Code\eterlib\Ref.h

; 37   : 	{

  000e4	c7 45 fc 02 00
	00 00		 mov	 DWORD PTR __$EHRec$[ebp+8], 2

; 53   : 		if (m_pObject)

  000eb	85 f6		 test	 esi, esi
  000ed	74 07		 je	 SHORT $LN36@RegisterMa

; 54   : 		{
; 55   : 			m_pObject->Release();

  000ef	8b ce		 mov	 ecx, esi
  000f1	e8 00 00 00 00	 call	 ?Release@CReferenceObject@@QAEXXZ ; CReferenceObject::Release
$LN36@RegisterMa:
; File C:\Users\flourine\Desktop\Xantios\client-src\Code\eterGrnLib\Material.cpp

; 551  : 	return size;

  000f6	8b c3		 mov	 eax, ebx

; 552  : }

  000f8	8b 4d f4	 mov	 ecx, DWORD PTR __$EHRec$[ebp]
  000fb	64 89 0d 00 00
	00 00		 mov	 DWORD PTR fs:0, ecx
  00102	59		 pop	 ecx
  00103	5f		 pop	 edi
  00104	5e		 pop	 esi
  00105	5b		 pop	 ebx
  00106	8b e5		 mov	 esp, ebp
  00108	5d		 pop	 ebp
  00109	c2 04 00	 ret	 4
_TEXT	ENDS
;	COMDAT text$x
text$x	SEGMENT
__unwindfunclet$?RegisterMaterial@CGrannyMaterialPalette@@QAEKPAUgranny_material@@@Z$0:
  00000	6a 38		 push	 56			; 00000038H
  00002	8b 45 ec	 mov	 eax, DWORD PTR $T2[ebp]
  00005	50		 push	 eax
  00006	e8 00 00 00 00	 call	 ??3@YAXPAXI@Z		; operator delete
  0000b	83 c4 08	 add	 esp, 8
  0000e	c3		 ret	 0
__unwindfunclet$?RegisterMaterial@CGrannyMaterialPalette@@QAEKPAUgranny_material@@@Z$1:
  0000f	8d 4d 08	 lea	 ecx, DWORD PTR $T3[ebp]
  00012	e9 00 00 00 00	 jmp	 ??1?$CRef@VCGrannyMaterial@@@@QAE@XZ ; CRef<CGrannyMaterial>::~CRef<CGrannyMaterial>
  00017	cc		 int	 3
  00018	cc		 int	 3
  00019	cc		 int	 3
  0001a	cc		 int	 3
  0001b	cc		 int	 3
__ehhandler$?RegisterMaterial@CGrannyMaterialPalette@@QAEKPAUgranny_material@@@Z:
  0001c	90		 npad	 1
  0001d	90		 npad	 1
  0001e	8b 54 24 08	 mov	 edx, DWORD PTR [esp+8]
  00022	8d 42 0c	 lea	 eax, DWORD PTR [edx+12]
  00025	8b 4a e8	 mov	 ecx, DWORD PTR [edx-24]
  00028	33 c8		 xor	 ecx, eax
  0002a	e8 00 00 00 00	 call	 @__security_check_cookie@4
  0002f	b8 00 00 00 00	 mov	 eax, OFFSET __ehfuncinfo$?RegisterMaterial@CGrannyMaterialPalette@@QAEKPAUgranny_material@@@Z
  00034	e9 00 00 00 00	 jmp	 ___CxxFrameHandler3
text$x	ENDS
?RegisterMaterial@CGrannyMaterialPalette@@QAEKPAUgranny_material@@@Z ENDP ; CGrannyMaterialPalette::RegisterMaterial
; Function compile flags: /Ogtp
; File C:\Users\flourine\Desktop\Xantios\client-src\Code\eterGrnLib\Material.cpp
; File C:\Program Files\Microsoft Visual Studio\2022\Community\VC\Tools\MSVC\14.34.31933\include\vector
; File C:\Users\flourine\Desktop\Xantios\client-src\Code\eterGrnLib\Material.cpp
;	COMDAT ?Copy@CGrannyMaterialPalette@@QAEXABV1@@Z
_TEXT	SEGMENT
_rkMtrlPalSrc$ = 8					; size = 4
?Copy@CGrannyMaterialPalette@@QAEXABV1@@Z PROC		; CGrannyMaterialPalette::Copy, COMDAT
; _this$ = ecx

; 437  : {

  00000	55		 push	 ebp
  00001	8b ec		 mov	 ebp, esp

; 438  : 	m_mtrlVector = rkMtrlPalSrc.m_mtrlVector;

  00003	8b 45 08	 mov	 eax, DWORD PTR _rkMtrlPalSrc$[ebp]
  00006	83 c1 04	 add	 ecx, 4
  00009	83 c0 04	 add	 eax, 4
; File C:\Program Files\Microsoft Visual Studio\2022\Community\VC\Tools\MSVC\14.34.31933\include\vector

; 1546 :         if (this == _STD addressof(_Right)) {

  0000c	3b c8		 cmp	 ecx, eax
  0000e	74 11		 je	 SHORT $LN3@Copy

; 1547 :             return *this;
; 1548 :         }
; 1549 : 
; 1550 :         auto& _Al       = _Getal();
; 1551 :         auto& _Right_al = _Right._Getal();
; 1552 :         if constexpr (_Choose_pocca_v<_Alty>) {
; 1553 :             if (_Al != _Right_al) {
; 1554 :                 _Tidy();
; 1555 :                 _Mypair._Myval2._Reload_proxy(_GET_PROXY_ALLOCATOR(_Alty, _Al), _GET_PROXY_ALLOCATOR(_Alty, _Right_al));
; 1556 :             }
; 1557 :         }
; 1558 : 
; 1559 :         _Pocca(_Al, _Right_al);
; 1560 :         auto& _Right_data = _Right._Mypair._Myval2;
; 1561 :         _Assign_counted_range(_Right_data._Myfirst, static_cast<size_type>(_Right_data._Mylast - _Right_data._Myfirst));

  00010	8b 10		 mov	 edx, DWORD PTR [eax]
  00012	8b 40 04	 mov	 eax, DWORD PTR [eax+4]
  00015	2b c2		 sub	 eax, edx
  00017	c1 f8 02	 sar	 eax, 2
  0001a	50		 push	 eax
  0001b	52		 push	 edx
  0001c	e8 00 00 00 00	 call	 ??$_Assign_counted_range@PAV?$CRef@VCGrannyMaterial@@@@@?$vector@V?$CRef@VCGrannyMaterial@@@@V?$allocator@V?$CRef@VCGrannyMaterial@@@@@std@@@std@@AAEXPAV?$CRef@VCGrannyMaterial@@@@I@Z ; std::vector<CRef<CGrannyMaterial>,std::allocator<CRef<CGrannyMaterial> > >::_Assign_counted_range<CRef<CGrannyMaterial> *>
$LN3@Copy:
; File C:\Users\flourine\Desktop\Xantios\client-src\Code\eterGrnLib\Material.cpp

; 439  : }

  00021	5d		 pop	 ebp
  00022	c2 04 00	 ret	 4
?Copy@CGrannyMaterialPalette@@QAEXABV1@@Z ENDP		; CGrannyMaterialPalette::Copy
_TEXT	ENDS
; Function compile flags: /Ogtp
; File C:\Users\flourine\Desktop\Xantios\client-src\Code\eterGrnLib\Material.cpp
; File C:\Program Files\Microsoft Visual Studio\2022\Community\VC\Tools\MSVC\14.34.31933\include\vector
; File C:\Users\flourine\Desktop\Xantios\client-src\Code\eterGrnLib\Material.cpp
; File C:\Program Files\Microsoft Visual Studio\2022\Community\VC\Tools\MSVC\14.34.31933\include\vector
; File C:\Users\flourine\Desktop\Xantios\client-src\Code\eterGrnLib\Material.cpp
;	COMDAT ?Clear@CGrannyMaterialPalette@@QAEXXZ
_TEXT	SEGMENT
?Clear@CGrannyMaterialPalette@@QAEXXZ PROC		; CGrannyMaterialPalette::Clear, COMDAT
; _this$ = ecx
; File C:\Program Files\Microsoft Visual Studio\2022\Community\VC\Tools\MSVC\14.34.31933\include\vector

; 1829 :         if (_Myfirst == _Mylast) { // already empty, nothing to do

  00000	8b 41 04	 mov	 eax, DWORD PTR [ecx+4]
; File C:\Users\flourine\Desktop\Xantios\client-src\Code\eterGrnLib\Material.cpp

; 442  : {

  00003	56		 push	 esi

; 443  : 	m_mtrlVector.clear();

  00004	8d 71 04	 lea	 esi, DWORD PTR [ecx+4]
; File C:\Program Files\Microsoft Visual Studio\2022\Community\VC\Tools\MSVC\14.34.31933\include\vector

; 1829 :         if (_Myfirst == _Mylast) { // already empty, nothing to do

  00007	8b 4e 04	 mov	 ecx, DWORD PTR [esi+4]
  0000a	3b c1		 cmp	 eax, ecx
  0000c	74 10		 je	 SHORT $LN3@Clear

; 1830 :             // This is an optimization for debug mode: we can avoid taking the debug lock to invalidate iterators.
; 1831 :             // Note that when clearing an empty vector, this will preserve past-the-end iterators, which is allowed by
; 1832 :             // N4901 [tab:container.seq.req] "a.clear() [...] may invalidate the past-the-end iterator".
; 1833 :             return;
; 1834 :         }
; 1835 : 
; 1836 :         _My_data._Orphan_all();
; 1837 :         _Destroy_range(_Myfirst, _Mylast, _Getal());

  0000e	56		 push	 esi
  0000f	51		 push	 ecx
  00010	50		 push	 eax
  00011	e8 00 00 00 00	 call	 ??$_Destroy_range@V?$allocator@V?$CRef@VCGrannyMaterial@@@@@std@@@std@@YAXPAV?$CRef@VCGrannyMaterial@@@@QAV1@AAV?$allocator@V?$CRef@VCGrannyMaterial@@@@@0@@Z ; std::_Destroy_range<std::allocator<CRef<CGrannyMaterial> > >

; 1838 :         _ASAN_VECTOR_MODIFY(static_cast<difference_type>(_Myfirst - _Mylast)); // negative when destroying elements
; 1839 :         _Mylast = _Myfirst;

  00016	8b 06		 mov	 eax, DWORD PTR [esi]
  00018	83 c4 0c	 add	 esp, 12			; 0000000cH
  0001b	89 46 04	 mov	 DWORD PTR [esi+4], eax
$LN3@Clear:
  0001e	5e		 pop	 esi
; File C:\Users\flourine\Desktop\Xantios\client-src\Code\eterGrnLib\Material.cpp

; 444  : }

  0001f	c3		 ret	 0
?Clear@CGrannyMaterialPalette@@QAEXXZ ENDP		; CGrannyMaterialPalette::Clear
_TEXT	ENDS
; Function compile flags: /Ogtp
; File C:\Users\flourine\Desktop\Xantios\client-src\Code\eterGrnLib\Material.cpp
;	COMDAT ??1CGrannyMaterialPalette@@UAE@XZ
_TEXT	SEGMENT
??1CGrannyMaterialPalette@@UAE@XZ PROC			; CGrannyMaterialPalette::~CGrannyMaterialPalette, COMDAT
; _this$ = ecx

; 432  : {

  00000	56		 push	 esi
  00001	8b f1		 mov	 esi, ecx
  00003	c7 06 00 00 00
	00		 mov	 DWORD PTR [esi], OFFSET ??_7CGrannyMaterialPalette@@6B@

; 433  : 	Clear();

  00009	e8 00 00 00 00	 call	 ?Clear@CGrannyMaterialPalette@@QAEXXZ ; CGrannyMaterialPalette::Clear

; 434  : }

  0000e	8d 4e 04	 lea	 ecx, DWORD PTR [esi+4]
  00011	5e		 pop	 esi
  00012	e9 00 00 00 00	 jmp	 ??1?$vector@V?$CRef@VCGrannyMaterial@@@@V?$allocator@V?$CRef@VCGrannyMaterial@@@@@std@@@std@@QAE@XZ ; std::vector<CRef<CGrannyMaterial>,std::allocator<CRef<CGrannyMaterial> > >::~vector<CRef<CGrannyMaterial>,std::allocator<CRef<CGrannyMaterial> > >
??1CGrannyMaterialPalette@@UAE@XZ ENDP			; CGrannyMaterialPalette::~CGrannyMaterialPalette
_TEXT	ENDS
; Function compile flags: /Ogtp
; File C:\Users\flourine\Desktop\Xantios\client-src\Code\eterGrnLib\Material.cpp
; File C:\Program Files\Microsoft Visual Studio\2022\Community\VC\Tools\MSVC\14.34.31933\include\vector
; File C:\Users\flourine\Desktop\Xantios\client-src\Code\eterGrnLib\Material.cpp
;	COMDAT ??0CGrannyMaterialPalette@@QAE@XZ
_TEXT	SEGMENT
_this$ = -4						; size = 4
??0CGrannyMaterialPalette@@QAE@XZ PROC			; CGrannyMaterialPalette::CGrannyMaterialPalette, COMDAT
; _this$ = ecx

; 428  : {

  00000	55		 push	 ebp
  00001	8b ec		 mov	 ebp, esp
  00003	51		 push	 ecx
  00004	c7 01 00 00 00
	00		 mov	 DWORD PTR [ecx], OFFSET ??_7CGrannyMaterialPalette@@6B@

; 429  : }

  0000a	8b c1		 mov	 eax, ecx
  0000c	89 4d fc	 mov	 DWORD PTR _this$[ebp], ecx
; File C:\Program Files\Microsoft Visual Studio\2022\Community\VC\Tools\MSVC\14.34.31933\include\vector

; 390  :     _CONSTEXPR20 _Vector_val() noexcept : _Myfirst(), _Mylast(), _Myend() {}

  0000f	c7 41 04 00 00
	00 00		 mov	 DWORD PTR [ecx+4], 0
  00016	c7 41 08 00 00
	00 00		 mov	 DWORD PTR [ecx+8], 0
  0001d	c7 41 0c 00 00
	00 00		 mov	 DWORD PTR [ecx+12], 0
; File C:\Users\flourine\Desktop\Xantios\client-src\Code\eterGrnLib\Material.cpp

; 429  : }

  00024	8b e5		 mov	 esp, ebp
  00026	5d		 pop	 ebp
  00027	c3		 ret	 0
??0CGrannyMaterialPalette@@QAE@XZ ENDP			; CGrannyMaterialPalette::CGrannyMaterialPalette
_TEXT	ENDS
; Function compile flags: /Ogtp
;	COMDAT ??_GCGrannyMaterial@@UAEPAXI@Z
_TEXT	SEGMENT
___flags$ = 8						; size = 4
??_GCGrannyMaterial@@UAEPAXI@Z PROC			; CGrannyMaterial::`scalar deleting destructor', COMDAT
; _this$ = ecx
  00000	55		 push	 ebp
  00001	8b ec		 mov	 ebp, esp
  00003	56		 push	 esi
  00004	8b f1		 mov	 esi, ecx
  00006	e8 00 00 00 00	 call	 ??1CGrannyMaterial@@UAE@XZ ; CGrannyMaterial::~CGrannyMaterial
  0000b	f6 45 08 01	 test	 BYTE PTR ___flags$[ebp], 1
  0000f	74 0b		 je	 SHORT $LN4@scalar
  00011	6a 38		 push	 56			; 00000038H
  00013	56		 push	 esi
  00014	e8 00 00 00 00	 call	 ??3@YAXPAXI@Z		; operator delete
  00019	83 c4 08	 add	 esp, 8
$LN4@scalar:
  0001c	8b c6		 mov	 eax, esi
  0001e	5e		 pop	 esi
  0001f	5d		 pop	 ebp
  00020	c2 04 00	 ret	 4
??_GCGrannyMaterial@@UAEPAXI@Z ENDP			; CGrannyMaterial::`scalar deleting destructor'
_TEXT	ENDS
; Function compile flags: /Ogtp
; File C:\Users\flourine\Desktop\Xantios\client-src\Code\eterGrnLib\Material.cpp
;	COMDAT ?__RestoreSpecularRenderState@CGrannyMaterial@@IAEXXZ
_TEXT	SEGMENT
?__RestoreSpecularRenderState@CGrannyMaterial@@IAEXXZ PROC ; CGrannyMaterial::__RestoreSpecularRenderState, COMDAT
; _this$ = ecx

; 385  : {

  00000	56		 push	 esi
  00001	8b f1		 mov	 esi, ecx

; 386  : 	if (TRUE == STATEMANAGER.GetRenderState(D3DRS_ALPHABLENDENABLE))

  00003	8b 0d 00 00 00
	00		 mov	 ecx, DWORD PTR ?ms_singleton@?$CSingleton@VCStateManager@@@@0PAVCStateManager@@A ; CSingleton<CStateManager>::ms_singleton
  00009	6a 1b		 push	 27			; 0000001bH
  0000b	e8 00 00 00 00	 call	 ?GetRenderState@CStateManager@@QAEKW4_D3DRENDERSTATETYPE@@@Z ; CStateManager::GetRenderState
  00010	83 f8 01	 cmp	 eax, 1
  00013	75 08		 jne	 SHORT $LN2@RestoreSpe

; 387  : 	{
; 388  : 		__RestoreDiffuseRenderState();

  00015	8b ce		 mov	 ecx, esi
  00017	5e		 pop	 esi
  00018	e9 00 00 00 00	 jmp	 ?__RestoreDiffuseRenderState@CGrannyMaterial@@IAEXXZ ; CGrannyMaterial::__RestoreDiffuseRenderState
$LN2@RestoreSpe:

; 389  : 		return;
; 390  : 	}
; 391  : 
; 392  : 	STATEMANAGER.RestoreTextureStageState(1, D3DTSS_TEXTURETRANSFORMFLAGS);

  0001d	8b 0d 00 00 00
	00		 mov	 ecx, DWORD PTR ?ms_singleton@?$CSingleton@VCStateManager@@@@0PAVCStateManager@@A ; CSingleton<CStateManager>::ms_singleton
  00023	6a 18		 push	 24			; 00000018H
  00025	6a 01		 push	 1
  00027	e8 00 00 00 00	 call	 ?RestoreTextureStageState@CStateManager@@QAEXKW4_D3DTEXTURESTAGESTATETYPE@@@Z ; CStateManager::RestoreTextureStageState

; 393  : 	STATEMANAGER.RestoreSamplerState(1, D3DSAMP_ADDRESSU);

  0002c	8b 0d 00 00 00
	00		 mov	 ecx, DWORD PTR ?ms_singleton@?$CSingleton@VCStateManager@@@@0PAVCStateManager@@A ; CSingleton<CStateManager>::ms_singleton
  00032	6a 01		 push	 1
  00034	6a 01		 push	 1
  00036	e8 00 00 00 00	 call	 ?RestoreSamplerState@CStateManager@@QAEXKW4_D3DSAMPLERSTATETYPE@@@Z ; CStateManager::RestoreSamplerState

; 394  : 	STATEMANAGER.RestoreSamplerState(1, D3DSAMP_ADDRESSV);

  0003b	8b 0d 00 00 00
	00		 mov	 ecx, DWORD PTR ?ms_singleton@?$CSingleton@VCStateManager@@@@0PAVCStateManager@@A ; CSingleton<CStateManager>::ms_singleton
  00041	6a 02		 push	 2
  00043	6a 01		 push	 1
  00045	e8 00 00 00 00	 call	 ?RestoreSamplerState@CStateManager@@QAEXKW4_D3DSAMPLERSTATETYPE@@@Z ; CStateManager::RestoreSamplerState

; 395  : 
; 396  : 	STATEMANAGER.RestoreTextureStageState(1, D3DTSS_TEXCOORDINDEX);

  0004a	8b 0d 00 00 00
	00		 mov	 ecx, DWORD PTR ?ms_singleton@?$CSingleton@VCStateManager@@@@0PAVCStateManager@@A ; CSingleton<CStateManager>::ms_singleton
  00050	6a 0b		 push	 11			; 0000000bH
  00052	6a 01		 push	 1
  00054	e8 00 00 00 00	 call	 ?RestoreTextureStageState@CStateManager@@QAEXKW4_D3DTEXTURESTAGESTATETYPE@@@Z ; CStateManager::RestoreTextureStageState

; 397  : 	STATEMANAGER.SetTextureStageState(1, D3DTSS_COLOROP, D3DTOP_DISABLE);

  00059	8b 0d 00 00 00
	00		 mov	 ecx, DWORD PTR ?ms_singleton@?$CSingleton@VCStateManager@@@@0PAVCStateManager@@A ; CSingleton<CStateManager>::ms_singleton
  0005f	6a 01		 push	 1
  00061	6a 01		 push	 1
  00063	6a 01		 push	 1
  00065	e8 00 00 00 00	 call	 ?SetTextureStageState@CStateManager@@QAEXKW4_D3DTEXTURESTAGESTATETYPE@@K@Z ; CStateManager::SetTextureStageState

; 398  : 	STATEMANAGER.SetTextureStageState(1, D3DTSS_ALPHAOP, D3DTOP_DISABLE);

  0006a	8b 0d 00 00 00
	00		 mov	 ecx, DWORD PTR ?ms_singleton@?$CSingleton@VCStateManager@@@@0PAVCStateManager@@A ; CSingleton<CStateManager>::ms_singleton
  00070	6a 01		 push	 1
  00072	6a 04		 push	 4
  00074	6a 01		 push	 1
  00076	e8 00 00 00 00	 call	 ?SetTextureStageState@CStateManager@@QAEXKW4_D3DTEXTURESTAGESTATETYPE@@K@Z ; CStateManager::SetTextureStageState

; 399  : 
; 400  : 	STATEMANAGER.RestoreTextureStageState(0, D3DTSS_COLORARG1);

  0007b	8b 0d 00 00 00
	00		 mov	 ecx, DWORD PTR ?ms_singleton@?$CSingleton@VCStateManager@@@@0PAVCStateManager@@A ; CSingleton<CStateManager>::ms_singleton
  00081	6a 02		 push	 2
  00083	6a 00		 push	 0
  00085	e8 00 00 00 00	 call	 ?RestoreTextureStageState@CStateManager@@QAEXKW4_D3DTEXTURESTAGESTATETYPE@@@Z ; CStateManager::RestoreTextureStageState

; 401  : 	STATEMANAGER.RestoreTextureStageState(0, D3DTSS_COLORARG2);

  0008a	8b 0d 00 00 00
	00		 mov	 ecx, DWORD PTR ?ms_singleton@?$CSingleton@VCStateManager@@@@0PAVCStateManager@@A ; CSingleton<CStateManager>::ms_singleton
  00090	6a 03		 push	 3
  00092	6a 00		 push	 0
  00094	e8 00 00 00 00	 call	 ?RestoreTextureStageState@CStateManager@@QAEXKW4_D3DTEXTURESTAGESTATETYPE@@@Z ; CStateManager::RestoreTextureStageState

; 402  : 	STATEMANAGER.RestoreTextureStageState(0, D3DTSS_COLOROP);

  00099	8b 0d 00 00 00
	00		 mov	 ecx, DWORD PTR ?ms_singleton@?$CSingleton@VCStateManager@@@@0PAVCStateManager@@A ; CSingleton<CStateManager>::ms_singleton
  0009f	6a 01		 push	 1
  000a1	6a 00		 push	 0
  000a3	e8 00 00 00 00	 call	 ?RestoreTextureStageState@CStateManager@@QAEXKW4_D3DTEXTURESTAGESTATETYPE@@@Z ; CStateManager::RestoreTextureStageState

; 403  : 	STATEMANAGER.RestoreTextureStageState(0, D3DTSS_ALPHAARG1);

  000a8	8b 0d 00 00 00
	00		 mov	 ecx, DWORD PTR ?ms_singleton@?$CSingleton@VCStateManager@@@@0PAVCStateManager@@A ; CSingleton<CStateManager>::ms_singleton
  000ae	6a 05		 push	 5
  000b0	6a 00		 push	 0
  000b2	e8 00 00 00 00	 call	 ?RestoreTextureStageState@CStateManager@@QAEXKW4_D3DTEXTURESTAGESTATETYPE@@@Z ; CStateManager::RestoreTextureStageState

; 404  : 	STATEMANAGER.RestoreTextureStageState(0, D3DTSS_ALPHAARG2);

  000b7	8b 0d 00 00 00
	00		 mov	 ecx, DWORD PTR ?ms_singleton@?$CSingleton@VCStateManager@@@@0PAVCStateManager@@A ; CSingleton<CStateManager>::ms_singleton
  000bd	6a 06		 push	 6
  000bf	6a 00		 push	 0
  000c1	e8 00 00 00 00	 call	 ?RestoreTextureStageState@CStateManager@@QAEXKW4_D3DTEXTURESTAGESTATETYPE@@@Z ; CStateManager::RestoreTextureStageState

; 405  : 	STATEMANAGER.RestoreTextureStageState(0, D3DTSS_ALPHAOP);

  000c6	8b 0d 00 00 00
	00		 mov	 ecx, DWORD PTR ?ms_singleton@?$CSingleton@VCStateManager@@@@0PAVCStateManager@@A ; CSingleton<CStateManager>::ms_singleton
  000cc	6a 04		 push	 4
  000ce	6a 00		 push	 0
  000d0	e8 00 00 00 00	 call	 ?RestoreTextureStageState@CStateManager@@QAEXKW4_D3DTEXTURESTAGESTATETYPE@@@Z ; CStateManager::RestoreTextureStageState
  000d5	5e		 pop	 esi

; 406  : }

  000d6	c3		 ret	 0
?__RestoreSpecularRenderState@CGrannyMaterial@@IAEXXZ ENDP ; CGrannyMaterial::__RestoreSpecularRenderState
_TEXT	ENDS
; Function compile flags: /Ogtp
; File C:\Users\flourine\Desktop\Xantios\client-src\Code\eterGrnLib\Material.cpp
; File C:\Users\flourine\Desktop\Xantios\client-src\extern\include\DirectX\d3dx9math.inl
; File C:\Users\flourine\Desktop\Xantios\client-src\Code\eterGrnLib\Material.cpp
; File C:\Users\flourine\Desktop\Xantios\client-src\extern\include\DirectX\d3dx9math.inl
; File C:\Users\flourine\Desktop\Xantios\client-src\Code\eterGrnLib\Material.cpp
;	COMDAT ?__ApplySpecularRenderState@CGrannyMaterial@@IAEXXZ
_TEXT	SEGMENT
$T1$sroa$139$ = -4					; size = 4
?__ApplySpecularRenderState@CGrannyMaterial@@IAEXXZ PROC ; CGrannyMaterial::__ApplySpecularRenderState, COMDAT
; _this$ = ecx

; 343  : {

  00000	55		 push	 ebp
  00001	8b ec		 mov	 ebp, esp
  00003	51		 push	 ecx
  00004	57		 push	 edi
  00005	8b f9		 mov	 edi, ecx

; 344  : 	if (TRUE == STATEMANAGER.GetRenderState(D3DRS_ALPHABLENDENABLE))

  00007	8b 0d 00 00 00
	00		 mov	 ecx, DWORD PTR ?ms_singleton@?$CSingleton@VCStateManager@@@@0PAVCStateManager@@A ; CSingleton<CStateManager>::ms_singleton
  0000d	6a 1b		 push	 27			; 0000001bH
  0000f	e8 00 00 00 00	 call	 ?GetRenderState@CStateManager@@QAEKW4_D3DRENDERSTATETYPE@@@Z ; CStateManager::GetRenderState
  00014	83 f8 01	 cmp	 eax, 1
  00017	75 0c		 jne	 SHORT $LN2@ApplySpecu

; 345  : 	{
; 346  : 		__ApplyDiffuseRenderState();

  00019	8b cf		 mov	 ecx, edi
  0001b	e8 00 00 00 00	 call	 ?__ApplyDiffuseRenderState@CGrannyMaterial@@IAEXXZ ; CGrannyMaterial::__ApplyDiffuseRenderState
  00020	5f		 pop	 edi

; 382  : }

  00021	8b e5		 mov	 esp, ebp
  00023	5d		 pop	 ebp
  00024	c3		 ret	 0
$LN2@ApplySpecu:

; 347  : 		return;
; 348  : 	}
; 349  : 
; 350  : 	CGraphicTexture* pkTexture = ms_akSphereMapInstance[m_bSphereMapIndex].GetTexturePointer();

  00025	0f b6 47 2c	 movzx	 eax, BYTE PTR [edi+44]
  00029	53		 push	 ebx
  0002a	56		 push	 esi
  0002b	8d 04 80	 lea	 eax, DWORD PTR [eax+eax*4]
  0002e	8d 0c c5 00 00
	00 00		 lea	 ecx, DWORD PTR ?ms_akSphereMapInstance@CGrannyMaterial@@0PAVCGraphicImageInstance@@A[eax*8]
  00035	e8 00 00 00 00	 call	 ?GetTexturePointer@CGraphicImageInstance@@QAEPAVCGraphicTexture@@XZ ; CGraphicImageInstance::GetTexturePointer

; 351  : 
; 352  : 	STATEMANAGER.SetTexture(0, GetD3DTexture(0));

  0003a	8b 35 00 00 00
	00		 mov	 esi, DWORD PTR ?ms_singleton@?$CSingleton@VCStateManager@@@@0PAVCStateManager@@A ; CSingleton<CStateManager>::ms_singleton
  00040	8b cf		 mov	 ecx, edi
  00042	6a 00		 push	 0
  00044	8b d8		 mov	 ebx, eax
  00046	e8 00 00 00 00	 call	 ?GetD3DTexture@CGrannyMaterial@@QBEPAUIDirect3DTexture9@@H@Z ; CGrannyMaterial::GetD3DTexture
  0004b	50		 push	 eax
  0004c	6a 00		 push	 0
  0004e	8b ce		 mov	 ecx, esi
  00050	e8 00 00 00 00	 call	 ?SetTexture@CStateManager@@QAEXKPAUIDirect3DBaseTexture9@@@Z ; CStateManager::SetTexture

; 353  : 
; 354  : 	if (pkTexture)

  00055	85 db		 test	 ebx, ebx
  00057	74 12		 je	 SHORT $LN3@ApplySpecu

; 355  : 	{
; 356  : 		STATEMANAGER.SetTexture(1, pkTexture->GetD3DTexture());

  00059	8b 35 00 00 00
	00		 mov	 esi, DWORD PTR ?ms_singleton@?$CSingleton@VCStateManager@@@@0PAVCStateManager@@A ; CSingleton<CStateManager>::ms_singleton
  0005f	8b cb		 mov	 ecx, ebx
  00061	e8 00 00 00 00	 call	 ?GetD3DTexture@CGraphicTexture@@QBEPAUIDirect3DTexture9@@XZ ; CGraphicTexture::GetD3DTexture
  00066	50		 push	 eax
  00067	8b ce		 mov	 ecx, esi

; 357  : 	}

  00069	eb 08		 jmp	 SHORT $LN26@ApplySpecu
$LN3@ApplySpecu:

; 358  : 	else
; 359  : 	{
; 360  : 		STATEMANAGER.SetTexture(1, NULL);

  0006b	8b 0d 00 00 00
	00		 mov	 ecx, DWORD PTR ?ms_singleton@?$CSingleton@VCStateManager@@@@0PAVCStateManager@@A ; CSingleton<CStateManager>::ms_singleton
  00071	6a 00		 push	 0
$LN26@ApplySpecu:

; 363  : 	STATEMANAGER.SetRenderState(D3DRS_TEXTUREFACTOR, D3DXCOLOR(g_fSpecularColor.r, g_fSpecularColor.g, g_fSpecularColor.b, __GetSpecularPower()));

  00073	6a 01		 push	 1
  00075	e8 00 00 00 00	 call	 ?SetTexture@CStateManager@@QAEXKPAUIDirect3DBaseTexture9@@@Z ; CStateManager::SetTexture
  0007a	8b cf		 mov	 ecx, edi
  0007c	e8 00 00 00 00	 call	 ?__GetSpecularPower@CGrannyMaterial@@IBEMXZ ; CGrannyMaterial::__GetSpecularPower
; File C:\Users\flourine\Desktop\Xantios\client-src\extern\include\DirectX\d3dx9math.inl

; 1401 :     a = fa;

  00081	f3 0f 10 05 00
	00 00 00	 movss	 xmm0, DWORD PTR ?g_fSpecularColor@@3UD3DXCOLOR@@A

; 1409 :     DWORD dwR = r >= 1.0f ? 0xff : r <= 0.0f ? 0x00 : (DWORD) (r * 255.0f + 0.5f);

  00089	0f 57 c9	 xorps	 xmm1, xmm1

; 1401 :     a = fa;

  0008c	0f 2f 05 00 00
	00 00		 comiss	 xmm0, DWORD PTR __real@3f800000

; 1409 :     DWORD dwR = r >= 1.0f ? 0xff : r <= 0.0f ? 0x00 : (DWORD) (r * 255.0f + 0.5f);

  00093	f3 0f 10 15 00
	00 00 00	 movss	 xmm2, DWORD PTR __real@437f0000
  0009b	f3 0f 10 1d 00
	00 00 00	 movss	 xmm3, DWORD PTR __real@3f000000

; 1401 :     a = fa;

  000a3	d9 5d fc	 fstp	 DWORD PTR $T1$sroa$139$[ebp]

; 1409 :     DWORD dwR = r >= 1.0f ? 0xff : r <= 0.0f ? 0x00 : (DWORD) (r * 255.0f + 0.5f);

  000a6	72 07		 jb	 SHORT $LN12@ApplySpecu
  000a8	bb ff 00 00 00	 mov	 ebx, 255		; 000000ffH
  000ad	eb 2b		 jmp	 SHORT $LN11@ApplySpecu
$LN12@ApplySpecu:
  000af	0f 2f c8	 comiss	 xmm1, xmm0
  000b2	72 04		 jb	 SHORT $LN10@ApplySpecu
  000b4	33 db		 xor	 ebx, ebx
  000b6	eb 22		 jmp	 SHORT $LN11@ApplySpecu
$LN10@ApplySpecu:
  000b8	f3 0f 59 c2	 mulss	 xmm0, xmm2
  000bc	f3 0f 58 c3	 addss	 xmm0, xmm3
  000c0	e8 00 00 00 00	 call	 __ftol3
  000c5	f3 0f 10 15 00
	00 00 00	 movss	 xmm2, DWORD PTR __real@437f0000
  000cd	8b d8		 mov	 ebx, eax
  000cf	f3 0f 10 1d 00
	00 00 00	 movss	 xmm3, DWORD PTR __real@3f000000
  000d7	0f 57 c9	 xorps	 xmm1, xmm1
$LN11@ApplySpecu:

; 1410 :     DWORD dwG = g >= 1.0f ? 0xff : g <= 0.0f ? 0x00 : (DWORD) (g * 255.0f + 0.5f);

  000da	f3 0f 10 05 04
	00 00 00	 movss	 xmm0, DWORD PTR ?g_fSpecularColor@@3UD3DXCOLOR@@A+4
  000e2	0f 2f 05 00 00
	00 00		 comiss	 xmm0, DWORD PTR __real@3f800000
  000e9	72 07		 jb	 SHORT $LN16@ApplySpecu
  000eb	bf ff 00 00 00	 mov	 edi, 255		; 000000ffH
  000f0	eb 18		 jmp	 SHORT $LN15@ApplySpecu
$LN16@ApplySpecu:
  000f2	0f 2f c8	 comiss	 xmm1, xmm0
  000f5	72 04		 jb	 SHORT $LN14@ApplySpecu
  000f7	33 ff		 xor	 edi, edi
  000f9	eb 0f		 jmp	 SHORT $LN15@ApplySpecu
$LN14@ApplySpecu:
  000fb	f3 0f 59 c2	 mulss	 xmm0, xmm2
  000ff	f3 0f 58 c3	 addss	 xmm0, xmm3
  00103	e8 00 00 00 00	 call	 __ftol3
  00108	8b f8		 mov	 edi, eax
$LN15@ApplySpecu:

; 1411 :     DWORD dwB = b >= 1.0f ? 0xff : b <= 0.0f ? 0x00 : (DWORD) (b * 255.0f + 0.5f);

  0010a	f3 0f 10 05 08
	00 00 00	 movss	 xmm0, DWORD PTR ?g_fSpecularColor@@3UD3DXCOLOR@@A+8
  00112	0f 57 c9	 xorps	 xmm1, xmm1
  00115	0f 2f 05 00 00
	00 00		 comiss	 xmm0, DWORD PTR __real@3f800000
  0011c	72 07		 jb	 SHORT $LN20@ApplySpecu
  0011e	be ff 00 00 00	 mov	 esi, 255		; 000000ffH
  00123	eb 23		 jmp	 SHORT $LN19@ApplySpecu
$LN20@ApplySpecu:
  00125	0f 2f c8	 comiss	 xmm1, xmm0
  00128	72 04		 jb	 SHORT $LN18@ApplySpecu
  0012a	33 f6		 xor	 esi, esi
  0012c	eb 1a		 jmp	 SHORT $LN19@ApplySpecu
$LN18@ApplySpecu:
  0012e	f3 0f 59 05 00
	00 00 00	 mulss	 xmm0, DWORD PTR __real@437f0000
  00136	f3 0f 58 05 00
	00 00 00	 addss	 xmm0, DWORD PTR __real@3f000000
  0013e	e8 00 00 00 00	 call	 __ftol3
  00143	8b f0		 mov	 esi, eax
  00145	0f 57 c9	 xorps	 xmm1, xmm1
$LN19@ApplySpecu:

; 1412 :     DWORD dwA = a >= 1.0f ? 0xff : a <= 0.0f ? 0x00 : (DWORD) (a * 255.0f + 0.5f);

  00148	f3 0f 10 45 fc	 movss	 xmm0, DWORD PTR $T1$sroa$139$[ebp]
  0014d	0f 2f 05 00 00
	00 00		 comiss	 xmm0, DWORD PTR __real@3f800000
  00154	72 07		 jb	 SHORT $LN24@ApplySpecu
  00156	b8 ff 00 00 00	 mov	 eax, 255		; 000000ffH
  0015b	eb 1e		 jmp	 SHORT $LN23@ApplySpecu
$LN24@ApplySpecu:
  0015d	0f 2f c8	 comiss	 xmm1, xmm0
  00160	72 04		 jb	 SHORT $LN22@ApplySpecu
  00162	33 c0		 xor	 eax, eax
  00164	eb 15		 jmp	 SHORT $LN23@ApplySpecu
$LN22@ApplySpecu:
  00166	f3 0f 59 05 00
	00 00 00	 mulss	 xmm0, DWORD PTR __real@437f0000
  0016e	f3 0f 58 05 00
	00 00 00	 addss	 xmm0, DWORD PTR __real@3f000000
  00176	e8 00 00 00 00	 call	 __ftol3
$LN23@ApplySpecu:
; File C:\Users\flourine\Desktop\Xantios\client-src\Code\eterGrnLib\Material.cpp

; 363  : 	STATEMANAGER.SetRenderState(D3DRS_TEXTUREFACTOR, D3DXCOLOR(g_fSpecularColor.r, g_fSpecularColor.g, g_fSpecularColor.b, __GetSpecularPower()));

  0017b	8b 0d 00 00 00
	00		 mov	 ecx, DWORD PTR ?ms_singleton@?$CSingleton@VCStateManager@@@@0PAVCStateManager@@A ; CSingleton<CStateManager>::ms_singleton
; File C:\Users\flourine\Desktop\Xantios\client-src\extern\include\DirectX\d3dx9math.inl

; 1414 :     return (dwA << 24) | (dwR << 16) | (dwG << 8) | dwB;

  00181	c1 e0 08	 shl	 eax, 8
  00184	0b c3		 or	 eax, ebx
  00186	c1 e0 08	 shl	 eax, 8
  00189	0b c7		 or	 eax, edi
  0018b	c1 e0 08	 shl	 eax, 8
  0018e	0b c6		 or	 eax, esi
; File C:\Users\flourine\Desktop\Xantios\client-src\Code\eterGrnLib\Material.cpp

; 363  : 	STATEMANAGER.SetRenderState(D3DRS_TEXTUREFACTOR, D3DXCOLOR(g_fSpecularColor.r, g_fSpecularColor.g, g_fSpecularColor.b, __GetSpecularPower()));

  00190	50		 push	 eax
  00191	6a 3c		 push	 60			; 0000003cH
  00193	e8 00 00 00 00	 call	 ?SetRenderState@CStateManager@@QAEXW4_D3DRENDERSTATETYPE@@K@Z ; CStateManager::SetRenderState

; 364  : 	STATEMANAGER.SaveTextureStageState(1, D3DTSS_TEXCOORDINDEX, D3DTSS_TCI_CAMERASPACEREFLECTIONVECTOR);

  00198	8b 0d 00 00 00
	00		 mov	 ecx, DWORD PTR ?ms_singleton@?$CSingleton@VCStateManager@@@@0PAVCStateManager@@A ; CSingleton<CStateManager>::ms_singleton
  0019e	68 00 00 03 00	 push	 196608			; 00030000H
  001a3	6a 0b		 push	 11			; 0000000bH
  001a5	6a 01		 push	 1
  001a7	e8 00 00 00 00	 call	 ?SaveTextureStageState@CStateManager@@QAEXKW4_D3DTEXTURESTAGESTATETYPE@@K@Z ; CStateManager::SaveTextureStageState

; 365  : 	STATEMANAGER.SaveTextureStageState(0, D3DTSS_COLORARG1,	D3DTA_TEXTURE);

  001ac	8b 0d 00 00 00
	00		 mov	 ecx, DWORD PTR ?ms_singleton@?$CSingleton@VCStateManager@@@@0PAVCStateManager@@A ; CSingleton<CStateManager>::ms_singleton
  001b2	6a 02		 push	 2
  001b4	6a 02		 push	 2
  001b6	6a 00		 push	 0
  001b8	e8 00 00 00 00	 call	 ?SaveTextureStageState@CStateManager@@QAEXKW4_D3DTEXTURESTAGESTATETYPE@@K@Z ; CStateManager::SaveTextureStageState

; 366  : 	STATEMANAGER.SaveTextureStageState(0, D3DTSS_COLORARG2,	D3DTA_DIFFUSE);

  001bd	8b 0d 00 00 00
	00		 mov	 ecx, DWORD PTR ?ms_singleton@?$CSingleton@VCStateManager@@@@0PAVCStateManager@@A ; CSingleton<CStateManager>::ms_singleton
  001c3	6a 00		 push	 0
  001c5	6a 03		 push	 3
  001c7	6a 00		 push	 0
  001c9	e8 00 00 00 00	 call	 ?SaveTextureStageState@CStateManager@@QAEXKW4_D3DTEXTURESTAGESTATETYPE@@K@Z ; CStateManager::SaveTextureStageState

; 367  : 	STATEMANAGER.SaveTextureStageState(0, D3DTSS_COLOROP,	D3DTOP_MODULATE);

  001ce	8b 0d 00 00 00
	00		 mov	 ecx, DWORD PTR ?ms_singleton@?$CSingleton@VCStateManager@@@@0PAVCStateManager@@A ; CSingleton<CStateManager>::ms_singleton
  001d4	6a 04		 push	 4
  001d6	6a 01		 push	 1
  001d8	6a 00		 push	 0
  001da	e8 00 00 00 00	 call	 ?SaveTextureStageState@CStateManager@@QAEXKW4_D3DTEXTURESTAGESTATETYPE@@K@Z ; CStateManager::SaveTextureStageState

; 368  : 	STATEMANAGER.SaveTextureStageState(0, D3DTSS_ALPHAARG1,	D3DTA_TEXTURE);

  001df	8b 0d 00 00 00
	00		 mov	 ecx, DWORD PTR ?ms_singleton@?$CSingleton@VCStateManager@@@@0PAVCStateManager@@A ; CSingleton<CStateManager>::ms_singleton
  001e5	6a 02		 push	 2
  001e7	6a 05		 push	 5
  001e9	6a 00		 push	 0
  001eb	e8 00 00 00 00	 call	 ?SaveTextureStageState@CStateManager@@QAEXKW4_D3DTEXTURESTAGESTATETYPE@@K@Z ; CStateManager::SaveTextureStageState

; 369  : 	STATEMANAGER.SaveTextureStageState(0, D3DTSS_ALPHAARG2,	D3DTA_TFACTOR);

  001f0	8b 0d 00 00 00
	00		 mov	 ecx, DWORD PTR ?ms_singleton@?$CSingleton@VCStateManager@@@@0PAVCStateManager@@A ; CSingleton<CStateManager>::ms_singleton
  001f6	6a 03		 push	 3
  001f8	6a 06		 push	 6
  001fa	6a 00		 push	 0
  001fc	e8 00 00 00 00	 call	 ?SaveTextureStageState@CStateManager@@QAEXKW4_D3DTEXTURESTAGESTATETYPE@@K@Z ; CStateManager::SaveTextureStageState

; 370  : 	STATEMANAGER.SaveTextureStageState(0, D3DTSS_ALPHAOP,	D3DTOP_MODULATE);

  00201	8b 0d 00 00 00
	00		 mov	 ecx, DWORD PTR ?ms_singleton@?$CSingleton@VCStateManager@@@@0PAVCStateManager@@A ; CSingleton<CStateManager>::ms_singleton
  00207	6a 04		 push	 4
  00209	6a 04		 push	 4
  0020b	6a 00		 push	 0
  0020d	e8 00 00 00 00	 call	 ?SaveTextureStageState@CStateManager@@QAEXKW4_D3DTEXTURESTAGESTATETYPE@@K@Z ; CStateManager::SaveTextureStageState

; 371  : 
; 372  : 	STATEMANAGER.SetTextureStageState(1, D3DTSS_COLORARG1,	D3DTA_CURRENT);

  00212	8b 0d 00 00 00
	00		 mov	 ecx, DWORD PTR ?ms_singleton@?$CSingleton@VCStateManager@@@@0PAVCStateManager@@A ; CSingleton<CStateManager>::ms_singleton
  00218	6a 01		 push	 1
  0021a	6a 02		 push	 2
  0021c	6a 01		 push	 1
  0021e	e8 00 00 00 00	 call	 ?SetTextureStageState@CStateManager@@QAEXKW4_D3DTEXTURESTAGESTATETYPE@@K@Z ; CStateManager::SetTextureStageState

; 373  : 	STATEMANAGER.SetTextureStageState(1, D3DTSS_COLORARG2,	D3DTA_TEXTURE);

  00223	8b 0d 00 00 00
	00		 mov	 ecx, DWORD PTR ?ms_singleton@?$CSingleton@VCStateManager@@@@0PAVCStateManager@@A ; CSingleton<CStateManager>::ms_singleton
  00229	6a 02		 push	 2
  0022b	6a 03		 push	 3
  0022d	6a 01		 push	 1
  0022f	e8 00 00 00 00	 call	 ?SetTextureStageState@CStateManager@@QAEXKW4_D3DTEXTURESTAGESTATETYPE@@K@Z ; CStateManager::SetTextureStageState

; 374  : 	STATEMANAGER.SetTextureStageState(1, D3DTSS_COLOROP,	D3DTOP_MODULATEALPHA_ADDCOLOR);

  00234	8b 0d 00 00 00
	00		 mov	 ecx, DWORD PTR ?ms_singleton@?$CSingleton@VCStateManager@@@@0PAVCStateManager@@A ; CSingleton<CStateManager>::ms_singleton
  0023a	6a 12		 push	 18			; 00000012H
  0023c	6a 01		 push	 1
  0023e	6a 01		 push	 1
  00240	e8 00 00 00 00	 call	 ?SetTextureStageState@CStateManager@@QAEXKW4_D3DTEXTURESTAGESTATETYPE@@K@Z ; CStateManager::SetTextureStageState

; 375  : 	STATEMANAGER.SetTextureStageState(1, D3DTSS_ALPHAARG1,	D3DTA_CURRENT);

  00245	8b 0d 00 00 00
	00		 mov	 ecx, DWORD PTR ?ms_singleton@?$CSingleton@VCStateManager@@@@0PAVCStateManager@@A ; CSingleton<CStateManager>::ms_singleton
  0024b	6a 01		 push	 1
  0024d	6a 05		 push	 5
  0024f	6a 01		 push	 1
  00251	e8 00 00 00 00	 call	 ?SetTextureStageState@CStateManager@@QAEXKW4_D3DTEXTURESTAGESTATETYPE@@K@Z ; CStateManager::SetTextureStageState

; 376  : 	STATEMANAGER.SetTextureStageState(1, D3DTSS_ALPHAOP,	D3DTOP_SELECTARG1);

  00256	8b 0d 00 00 00
	00		 mov	 ecx, DWORD PTR ?ms_singleton@?$CSingleton@VCStateManager@@@@0PAVCStateManager@@A ; CSingleton<CStateManager>::ms_singleton
  0025c	6a 02		 push	 2
  0025e	6a 04		 push	 4
  00260	6a 01		 push	 1
  00262	e8 00 00 00 00	 call	 ?SetTextureStageState@CStateManager@@QAEXKW4_D3DTEXTURESTAGESTATETYPE@@K@Z ; CStateManager::SetTextureStageState

; 377  : 
; 378  : 	STATEMANAGER.SetTransform(D3DTS_TEXTURE1, &ms_matSpecular);

  00267	8b 0d 00 00 00
	00		 mov	 ecx, DWORD PTR ?ms_singleton@?$CSingleton@VCStateManager@@@@0PAVCStateManager@@A ; CSingleton<CStateManager>::ms_singleton
  0026d	68 00 00 00 00	 push	 OFFSET ?ms_matSpecular@CGrannyMaterial@@0UD3DXMATRIX@@A ; CGrannyMaterial::ms_matSpecular
  00272	6a 11		 push	 17			; 00000011H
  00274	e8 00 00 00 00	 call	 ?SetTransform@CStateManager@@QAEXW4_D3DTRANSFORMSTATETYPE@@PBU_D3DMATRIX@@@Z ; CStateManager::SetTransform

; 379  : 	STATEMANAGER.SaveTextureStageState(1, D3DTSS_TEXTURETRANSFORMFLAGS, D3DTTFF_COUNT2);

  00279	8b 0d 00 00 00
	00		 mov	 ecx, DWORD PTR ?ms_singleton@?$CSingleton@VCStateManager@@@@0PAVCStateManager@@A ; CSingleton<CStateManager>::ms_singleton
  0027f	6a 02		 push	 2
  00281	6a 18		 push	 24			; 00000018H
  00283	6a 01		 push	 1
  00285	e8 00 00 00 00	 call	 ?SaveTextureStageState@CStateManager@@QAEXKW4_D3DTEXTURESTAGESTATETYPE@@K@Z ; CStateManager::SaveTextureStageState

; 380  : 	STATEMANAGER.SaveSamplerState(1, D3DSAMP_ADDRESSU, D3DTADDRESS_WRAP);

  0028a	6a 01		 push	 1
  0028c	6a 01		 push	 1
  0028e	8b 0d 00 00 00
	00		 mov	 ecx, DWORD PTR ?ms_singleton@?$CSingleton@VCStateManager@@@@0PAVCStateManager@@A ; CSingleton<CStateManager>::ms_singleton
  00294	6a 01		 push	 1
  00296	e8 00 00 00 00	 call	 ?SaveSamplerState@CStateManager@@QAEXKW4_D3DSAMPLERSTATETYPE@@K@Z ; CStateManager::SaveSamplerState

; 381  : 	STATEMANAGER.SaveSamplerState(1, D3DSAMP_ADDRESSV, D3DTADDRESS_WRAP);

  0029b	8b 0d 00 00 00
	00		 mov	 ecx, DWORD PTR ?ms_singleton@?$CSingleton@VCStateManager@@@@0PAVCStateManager@@A ; CSingleton<CStateManager>::ms_singleton
  002a1	6a 01		 push	 1
  002a3	6a 02		 push	 2
  002a5	6a 01		 push	 1
  002a7	e8 00 00 00 00	 call	 ?SaveSamplerState@CStateManager@@QAEXKW4_D3DSAMPLERSTATETYPE@@K@Z ; CStateManager::SaveSamplerState
  002ac	5e		 pop	 esi
  002ad	5b		 pop	 ebx
  002ae	5f		 pop	 edi

; 382  : }

  002af	8b e5		 mov	 esp, ebp
  002b1	5d		 pop	 ebp
  002b2	c3		 ret	 0
?__ApplySpecularRenderState@CGrannyMaterial@@IAEXXZ ENDP ; CGrannyMaterial::__ApplySpecularRenderState
_TEXT	ENDS
; Function compile flags: /Ogtp
; File C:\Users\flourine\Desktop\Xantios\client-src\Code\eterGrnLib\Material.cpp
;	COMDAT ?__RestoreDiffuseRenderState@CGrannyMaterial@@IAEXXZ
_TEXT	SEGMENT
?__RestoreDiffuseRenderState@CGrannyMaterial@@IAEXXZ PROC ; CGrannyMaterial::__RestoreDiffuseRenderState, COMDAT
; _this$ = ecx

; 336  : 	if (m_bTwoSideRender)

  00000	80 79 24 00	 cmp	 BYTE PTR [ecx+36], 0
  00004	74 10		 je	 SHORT $LN2@RestoreDif

; 337  : 	{
; 338  : 		STATEMANAGER.SetRenderState(D3DRS_CULLMODE, m_dwLastCullRenderStateForTwoSideRendering);

  00006	ff 71 28	 push	 DWORD PTR [ecx+40]
  00009	8b 0d 00 00 00
	00		 mov	 ecx, DWORD PTR ?ms_singleton@?$CSingleton@VCStateManager@@@@0PAVCStateManager@@A ; CSingleton<CStateManager>::ms_singleton
  0000f	6a 16		 push	 22			; 00000016H
  00011	e8 00 00 00 00	 call	 ?SetRenderState@CStateManager@@QAEXW4_D3DRENDERSTATETYPE@@K@Z ; CStateManager::SetRenderState
$LN2@RestoreDif:

; 339  : 	}
; 340  : }

  00016	c3		 ret	 0
?__RestoreDiffuseRenderState@CGrannyMaterial@@IAEXXZ ENDP ; CGrannyMaterial::__RestoreDiffuseRenderState
_TEXT	ENDS
; Function compile flags: /Ogtp
; File C:\Users\flourine\Desktop\Xantios\client-src\Code\eterGrnLib\Material.cpp
;	COMDAT ?__ApplyDiffuseRenderState@CGrannyMaterial@@IAEXXZ
_TEXT	SEGMENT
?__ApplyDiffuseRenderState@CGrannyMaterial@@IAEXXZ PROC	; CGrannyMaterial::__ApplyDiffuseRenderState, COMDAT
; _this$ = ecx

; 324  : {

  00000	56		 push	 esi

; 325  : 	STATEMANAGER.SetTexture(0, GetD3DTexture(0));

  00001	8b 35 00 00 00
	00		 mov	 esi, DWORD PTR ?ms_singleton@?$CSingleton@VCStateManager@@@@0PAVCStateManager@@A ; CSingleton<CStateManager>::ms_singleton
  00007	57		 push	 edi
  00008	6a 00		 push	 0
  0000a	8b f9		 mov	 edi, ecx
  0000c	e8 00 00 00 00	 call	 ?GetD3DTexture@CGrannyMaterial@@QBEPAUIDirect3DTexture9@@H@Z ; CGrannyMaterial::GetD3DTexture
  00011	50		 push	 eax
  00012	6a 00		 push	 0
  00014	8b ce		 mov	 ecx, esi
  00016	e8 00 00 00 00	 call	 ?SetTexture@CStateManager@@QAEXKPAUIDirect3DBaseTexture9@@@Z ; CStateManager::SetTexture

; 326  : 
; 327  : 	if (m_bTwoSideRender)

  0001b	80 7f 24 00	 cmp	 BYTE PTR [edi+36], 0
  0001f	74 1f		 je	 SHORT $LN2@ApplyDiffu

; 328  : 	{
; 329  : 		m_dwLastCullRenderStateForTwoSideRendering = STATEMANAGER.GetRenderState(D3DRS_CULLMODE);

  00021	8b 0d 00 00 00
	00		 mov	 ecx, DWORD PTR ?ms_singleton@?$CSingleton@VCStateManager@@@@0PAVCStateManager@@A ; CSingleton<CStateManager>::ms_singleton
  00027	6a 16		 push	 22			; 00000016H
  00029	e8 00 00 00 00	 call	 ?GetRenderState@CStateManager@@QAEKW4_D3DRENDERSTATETYPE@@@Z ; CStateManager::GetRenderState

; 330  : 		STATEMANAGER.SetRenderState(D3DRS_CULLMODE, D3DCULL_NONE);

  0002e	6a 01		 push	 1
  00030	89 47 28	 mov	 DWORD PTR [edi+40], eax
  00033	8b 0d 00 00 00
	00		 mov	 ecx, DWORD PTR ?ms_singleton@?$CSingleton@VCStateManager@@@@0PAVCStateManager@@A ; CSingleton<CStateManager>::ms_singleton
  00039	6a 16		 push	 22			; 00000016H
  0003b	e8 00 00 00 00	 call	 ?SetRenderState@CStateManager@@QAEXW4_D3DRENDERSTATETYPE@@K@Z ; CStateManager::SetRenderState
$LN2@ApplyDiffu:

; 331  : 	}
; 332  : }

  00040	5f		 pop	 edi
  00041	5e		 pop	 esi
  00042	c3		 ret	 0
?__ApplyDiffuseRenderState@CGrannyMaterial@@IAEXXZ ENDP	; CGrannyMaterial::__ApplyDiffuseRenderState
_TEXT	ENDS
; Function compile flags: /Ogtp
; File C:\Users\flourine\Desktop\Xantios\client-src\Code\eterGrnLib\Material.cpp
;	COMDAT ?__GetSpecularPower@CGrannyMaterial@@IBEMXZ
_TEXT	SEGMENT
?__GetSpecularPower@CGrannyMaterial@@IBEMXZ PROC	; CGrannyMaterial::__GetSpecularPower, COMDAT
; _this$ = ecx

; 204  : 	return m_fSpecularPower;

  00000	d9 41 1c	 fld	 DWORD PTR [ecx+28]

; 205  : }

  00003	c3		 ret	 0
?__GetSpecularPower@CGrannyMaterial@@IBEMXZ ENDP	; CGrannyMaterial::__GetSpecularPower
_TEXT	ENDS
; Function compile flags: /Ogtp
; File C:\Users\flourine\Desktop\Xantios\client-src\Code\eterGrnLib\Material.cpp
;	COMDAT ?__IsSpecularEnable@CGrannyMaterial@@IBEHXZ
_TEXT	SEGMENT
?__IsSpecularEnable@CGrannyMaterial@@IBEHXZ PROC	; CGrannyMaterial::__IsSpecularEnable, COMDAT
; _this$ = ecx

; 199  : 	return m_bSpecularEnable;

  00000	8b 41 20	 mov	 eax, DWORD PTR [ecx+32]

; 200  : }

  00003	c3		 ret	 0
?__IsSpecularEnable@CGrannyMaterial@@IBEHXZ ENDP	; CGrannyMaterial::__IsSpecularEnable
_TEXT	ENDS
; Function compile flags: /Ogtp
; File C:\Users\flourine\Desktop\Xantios\client-src\Code\eterGrnLib\Material.cpp
; File C:\Program Files\Microsoft Visual Studio\2022\Community\VC\Tools\MSVC\14.34.31933\include\xstring
; File C:\Users\flourine\Desktop\Xantios\client-src\Code\eterGrnLib\Material.cpp
;	COMDAT ?__GetImagePointer@CGrannyMaterial@@IAEPAVCGraphicImage@@PBD@Z
_TEXT	SEGMENT
_localFileName$1 = -260					; size = 256
__$ArrayPad$ = -4					; size = 4
_fileName$ = 8						; size = 4
?__GetImagePointer@CGrannyMaterial@@IAEPAVCGraphicImage@@PBD@Z PROC ; CGrannyMaterial::__GetImagePointer, COMDAT
; _this$ = ecx

; 210  : {

  00000	55		 push	 ebp
  00001	8b ec		 mov	 ebp, esp
  00003	81 ec 04 01 00
	00		 sub	 esp, 260		; 00000104H
  00009	a1 00 00 00 00	 mov	 eax, DWORD PTR ___security_cookie
  0000e	33 c5		 xor	 eax, ebp
  00010	89 45 fc	 mov	 DWORD PTR __$ArrayPad$[ebp], eax
  00013	53		 push	 ebx

; 211  : 	assert(*fileName != '\0');
; 212  : 
; 213  : 	CResourceManager& rkResMgr = CResourceManager::Instance();

  00014	8b 1d 00 00 00
	00		 mov	 ebx, DWORD PTR ?ms_singleton@?$CSingleton@VCResourceManager@@@@0PAVCResourceManager@@A ; CSingleton<CResourceManager>::ms_singleton
  0001a	56		 push	 esi
  0001b	57		 push	 edi
  0001c	8b 7d 08	 mov	 edi, DWORD PTR _fileName$[ebp]

; 214  : 
; 215  : 	// SUPPORT_LOCAL_TEXTURE
; 216  : 	int fileName_len = strlen(fileName);

  0001f	8b f7		 mov	 esi, edi
  00021	8d 4e 01	 lea	 ecx, DWORD PTR [esi+1]
$LL12@GetImagePo:
  00024	8a 06		 mov	 al, BYTE PTR [esi]
  00026	46		 inc	 esi
  00027	84 c0		 test	 al, al
  00029	75 f9		 jne	 SHORT $LL12@GetImagePo
  0002b	2b f1		 sub	 esi, ecx

; 217  : 	if (fileName_len > 2 && fileName[1] != ':')

  0002d	83 fe 02	 cmp	 esi, 2
  00030	7e 49		 jle	 SHORT $LN3@GetImagePo
  00032	80 7f 01 3a	 cmp	 BYTE PTR [edi+1], 58	; 0000003aH
  00036	74 43		 je	 SHORT $LN3@GetImagePo

; 218  : 	{
; 219  : 		char localFileName[256];
; 220  : 		const std::string& modelLocalPath = GetModelLocalPath();

  00038	e8 00 00 00 00	 call	 ?GetModelLocalPath@@YAABV?$basic_string@DU?$char_traits@D@std@@V?$allocator@D@2@@std@@XZ ; GetModelLocalPath

; 221  : 
; 222  : 		int localFileName_len = modelLocalPath.length() + 1 + fileName_len;

  0003d	8b 40 10	 mov	 eax, DWORD PTR [eax+16]
  00040	40		 inc	 eax
  00041	03 c6		 add	 eax, esi

; 223  : 		if (localFileName_len < sizeof(localFileName) - 1)

  00043	3d ff 00 00 00	 cmp	 eax, 255		; 000000ffH
  00048	73 31		 jae	 SHORT $LN3@GetImagePo

; 225  : 			_snprintf(localFileName, sizeof(localFileName), "%s%s", GetModelLocalPath().c_str(), fileName);

  0004a	e8 00 00 00 00	 call	 ?GetModelLocalPath@@YAABV?$basic_string@DU?$char_traits@D@std@@V?$allocator@D@2@@std@@XZ ; GetModelLocalPath
; File C:\Program Files\Microsoft Visual Studio\2022\Community\VC\Tools\MSVC\14.34.31933\include\xstring

; 2301 :         return _BUF_SIZE <= _Myres;

  0004f	83 78 14 10	 cmp	 DWORD PTR [eax+20], 16	; 00000010H

; 2293 :         if (_Large_string_engaged()) {

  00053	72 02		 jb	 SHORT $LN8@GetImagePo

; 2294 :             _Result = _Unfancy(_Bx._Ptr);

  00055	8b 00		 mov	 eax, DWORD PTR [eax]
$LN8@GetImagePo:
; File C:\Users\flourine\Desktop\Xantios\client-src\Code\eterGrnLib\Material.cpp

; 225  : 			_snprintf(localFileName, sizeof(localFileName), "%s%s", GetModelLocalPath().c_str(), fileName);

  00057	57		 push	 edi
  00058	50		 push	 eax
  00059	68 00 00 00 00	 push	 OFFSET ??_C@_04HDOCAJNK@?$CFs?$CFs@
  0005e	8d 85 fc fe ff
	ff		 lea	 eax, DWORD PTR _localFileName$1[ebp]
  00064	68 00 01 00 00	 push	 256			; 00000100H
  00069	50		 push	 eax
  0006a	e8 00 00 00 00	 call	 __snprintf
  0006f	83 c4 14	 add	 esp, 20			; 00000014H

; 226  : 			CResource* pResource = rkResMgr.GetResourcePointer(localFileName);

  00072	8d 85 fc fe ff
	ff		 lea	 eax, DWORD PTR _localFileName$1[ebp]
  00078	50		 push	 eax

; 227  : 			return static_cast<CGraphicImage*>(pResource);

  00079	eb 01		 jmp	 SHORT $LN13@GetImagePo
$LN3@GetImagePo:

; 228  : 		}
; 229  : 	}
; 230  : 	// END_OF_SUPPORT_LOCAL_TEXTURE
; 231  : 
; 232  : 
; 233  : 	CResource* pResource = rkResMgr.GetResourcePointer(fileName);

  0007b	57		 push	 edi
$LN13@GetImagePo:

; 234  : 	return static_cast<CGraphicImage*>(pResource);
; 235  : }

  0007c	8b cb		 mov	 ecx, ebx
  0007e	e8 00 00 00 00	 call	 ?GetResourcePointer@CResourceManager@@QAEPAVCResource@@PBD@Z ; CResourceManager::GetResourcePointer
  00083	8b 4d fc	 mov	 ecx, DWORD PTR __$ArrayPad$[ebp]
  00086	5f		 pop	 edi
  00087	5e		 pop	 esi
  00088	33 cd		 xor	 ecx, ebp
  0008a	5b		 pop	 ebx
  0008b	e8 00 00 00 00	 call	 @__security_check_cookie@4
  00090	8b e5		 mov	 esp, ebp
  00092	5d		 pop	 ebp
  00093	c2 04 00	 ret	 4
?__GetImagePointer@CGrannyMaterial@@IAEPAVCGraphicImage@@PBD@Z ENDP ; CGrannyMaterial::__GetImagePointer
_TEXT	ENDS
; Function compile flags: /Ogtp
; File C:\Users\flourine\Desktop\Xantios\client-src\Code\eterGrnLib\Material.cpp
; File C:\Users\flourine\Desktop\Xantios\client-src\Code\eterlib\Ref.h
; File C:\Users\flourine\Desktop\Xantios\client-src\Code\eterGrnLib\Material.cpp
;	COMDAT ?GetD3DTexture@CGrannyMaterial@@QBEPAUIDirect3DTexture9@@H@Z
_TEXT	SEGMENT
_iStage$ = 8						; size = 4
?GetD3DTexture@CGrannyMaterial@@QBEPAUIDirect3DTexture9@@H@Z PROC ; CGrannyMaterial::GetD3DTexture, COMDAT
; _this$ = ecx

; 151  : {

  00000	55		 push	 ebp
  00001	8b ec		 mov	 ebp, esp
; File C:\Users\flourine\Desktop\Xantios\client-src\Code\eterlib\Ref.h

; 62   : 		return m_pObject == NULL ? true : false;

  00003	8b 45 08	 mov	 eax, DWORD PTR _iStage$[ebp]
  00006	8b 4c 81 10	 mov	 ecx, DWORD PTR [ecx+eax*4+16]
  0000a	85 c9		 test	 ecx, ecx
; File C:\Users\flourine\Desktop\Xantios\client-src\Code\eterGrnLib\Material.cpp

; 154  : 	if (ratImage.IsNull())

  0000c	75 06		 jne	 SHORT $LN2@GetD3DText

; 155  : 	{
; 156  : 		return NULL;

  0000e	33 c0		 xor	 eax, eax

; 162  : }

  00010	5d		 pop	 ebp
  00011	c2 04 00	 ret	 4
$LN2@GetD3DText:

; 157  : 	}
; 158  : 
; 159  : 	CGraphicImage * pImage = ratImage.GetPointer();
; 160  : 	const CGraphicTexture * pTexture = pImage->GetTexturePointer();

  00014	e8 00 00 00 00	 call	 ?GetTexturePointer@CGraphicImage@@QAEPAVCGraphicTexture@@XZ ; CGraphicImage::GetTexturePointer

; 161  : 	return pTexture->GetD3DTexture();

  00019	8b c8		 mov	 ecx, eax
  0001b	e8 00 00 00 00	 call	 ?GetD3DTexture@CGraphicTexture@@QBEPAUIDirect3DTexture9@@XZ ; CGraphicTexture::GetD3DTexture

; 162  : }

  00020	5d		 pop	 ebp
  00021	c2 04 00	 ret	 4
?GetD3DTexture@CGrannyMaterial@@QBEPAUIDirect3DTexture9@@H@Z ENDP ; CGrannyMaterial::GetD3DTexture
_TEXT	ENDS
; Function compile flags: /Ogtp
; File C:\Users\flourine\Desktop\Xantios\client-src\Code\eterGrnLib\Material.cpp
; File C:\Users\flourine\Desktop\Xantios\client-src\Code\eterlib\Ref.h
; File C:\Users\flourine\Desktop\Xantios\client-src\Code\eterGrnLib\Material.cpp
;	COMDAT ?GetOpacityTexture@CGrannyMaterial@@QBEPBVCGraphicTexture@@XZ
_TEXT	SEGMENT
?GetOpacityTexture@CGrannyMaterial@@QBEPBVCGraphicTexture@@XZ PROC ; CGrannyMaterial::GetOpacityTexture, COMDAT
; _this$ = ecx
; File C:\Users\flourine\Desktop\Xantios\client-src\Code\eterlib\Ref.h

; 62   : 		return m_pObject == NULL ? true : false;

  00000	8b 49 14	 mov	 ecx, DWORD PTR [ecx+20]
  00003	85 c9		 test	 ecx, ecx
; File C:\Users\flourine\Desktop\Xantios\client-src\Code\eterGrnLib\Material.cpp

; 189  : 	if (m_roImage[1].IsNull())

  00005	75 03		 jne	 SHORT $LN2@GetOpacity

; 190  : 	{
; 191  : 		return NULL;

  00007	33 c0		 xor	 eax, eax

; 195  : }

  00009	c3		 ret	 0
$LN2@GetOpacity:

; 192  : 	}
; 193  : 
; 194  : 	return m_roImage[1].GetPointer()->GetTexturePointer();

  0000a	e9 00 00 00 00	 jmp	 ?GetTexturePointer@CGraphicImage@@QAEPAVCGraphicTexture@@XZ ; CGraphicImage::GetTexturePointer
?GetOpacityTexture@CGrannyMaterial@@QBEPBVCGraphicTexture@@XZ ENDP ; CGrannyMaterial::GetOpacityTexture
_TEXT	ENDS
; Function compile flags: /Ogtp
; File C:\Users\flourine\Desktop\Xantios\client-src\Code\eterGrnLib\Material.cpp
; File C:\Users\flourine\Desktop\Xantios\client-src\Code\eterlib\Ref.h
; File C:\Users\flourine\Desktop\Xantios\client-src\Code\eterGrnLib\Material.cpp
;	COMDAT ?GetDiffuseTexture@CGrannyMaterial@@QBEPBVCGraphicTexture@@XZ
_TEXT	SEGMENT
?GetDiffuseTexture@CGrannyMaterial@@QBEPBVCGraphicTexture@@XZ PROC ; CGrannyMaterial::GetDiffuseTexture, COMDAT
; _this$ = ecx
; File C:\Users\flourine\Desktop\Xantios\client-src\Code\eterlib\Ref.h

; 62   : 		return m_pObject == NULL ? true : false;

  00000	8b 49 10	 mov	 ecx, DWORD PTR [ecx+16]
  00003	85 c9		 test	 ecx, ecx
; File C:\Users\flourine\Desktop\Xantios\client-src\Code\eterGrnLib\Material.cpp

; 179  : 	if (m_roImage[0].IsNull())

  00005	75 03		 jne	 SHORT $LN2@GetDiffuse

; 180  : 	{
; 181  : 		return NULL;

  00007	33 c0		 xor	 eax, eax

; 185  : }

  00009	c3		 ret	 0
$LN2@GetDiffuse:

; 182  : 	}
; 183  : 
; 184  : 	return m_roImage[0].GetPointer()->GetTexturePointer();

  0000a	e9 00 00 00 00	 jmp	 ?GetTexturePointer@CGraphicImage@@QAEPAVCGraphicTexture@@XZ ; CGraphicImage::GetTexturePointer
?GetDiffuseTexture@CGrannyMaterial@@QBEPBVCGraphicTexture@@XZ ENDP ; CGrannyMaterial::GetDiffuseTexture
_TEXT	ENDS
; Function compile flags: /Ogtp
; File C:\Users\flourine\Desktop\Xantios\client-src\Code\eterGrnLib\Material.cpp
; File C:\Users\flourine\Desktop\Xantios\client-src\Code\eterlib\Ref.h
; File C:\Users\flourine\Desktop\Xantios\client-src\Code\eterGrnLib\Material.cpp
;	COMDAT ?GetImagePointer@CGrannyMaterial@@QBEPAVCGraphicImage@@H@Z
_TEXT	SEGMENT
_iStage$ = 8						; size = 4
?GetImagePointer@CGrannyMaterial@@QBEPAVCGraphicImage@@H@Z PROC ; CGrannyMaterial::GetImagePointer, COMDAT
; _this$ = ecx

; 165  : {

  00000	55		 push	 ebp
  00001	8b ec		 mov	 ebp, esp
; File C:\Users\flourine\Desktop\Xantios\client-src\Code\eterlib\Ref.h

; 62   : 		return m_pObject == NULL ? true : false;

  00003	8b 45 08	 mov	 eax, DWORD PTR _iStage$[ebp]
  00006	8b 44 81 10	 mov	 eax, DWORD PTR [ecx+eax*4+16]
; File C:\Users\flourine\Desktop\Xantios\client-src\Code\eterGrnLib\Material.cpp

; 175  : }

  0000a	5d		 pop	 ebp
  0000b	c2 04 00	 ret	 4
?GetImagePointer@CGrannyMaterial@@QBEPAVCGraphicImage@@H@Z ENDP ; CGrannyMaterial::GetImagePointer
_TEXT	ENDS
; Function compile flags: /Ogtp
; File C:\Users\flourine\Desktop\Xantios\client-src\Code\eterGrnLib\Material.cpp
;	COMDAT ?GetType@CGrannyMaterial@@QBE?AW4EType@1@XZ
_TEXT	SEGMENT
?GetType@CGrannyMaterial@@QBE?AW4EType@1@XZ PROC	; CGrannyMaterial::GetType, COMDAT
; _this$ = ecx

; 80   : 	return m_eType;

  00000	8b 41 18	 mov	 eax, DWORD PTR [ecx+24]

; 81   : }

  00003	c3		 ret	 0
?GetType@CGrannyMaterial@@QBE?AW4EType@1@XZ ENDP	; CGrannyMaterial::GetType
_TEXT	ENDS
; Function compile flags: /Ogtp
; File C:\Users\flourine\Desktop\Xantios\client-src\Code\eterGrnLib\Material.cpp
; File C:\Users\flourine\Desktop\Xantios\client-src\Code\eterlib\Ref.h
; File C:\Users\flourine\Desktop\Xantios\client-src\Code\eterGrnLib\Material.cpp
; File C:\Users\flourine\Desktop\Xantios\client-src\Code\eterlib\Ref.h
; File C:\Users\flourine\Desktop\Xantios\client-src\Code\eterGrnLib\Material.cpp
;	COMDAT ?SetImagePointer@CGrannyMaterial@@QAEXHPAVCGraphicImage@@@Z
_TEXT	SEGMENT
_iStage$ = 8						; size = 4
_pImage$ = 12						; size = 4
?SetImagePointer@CGrannyMaterial@@QAEXHPAVCGraphicImage@@@Z PROC ; CGrannyMaterial::SetImagePointer, COMDAT
; _this$ = ecx

; 84   : {

  00000	55		 push	 ebp
  00001	8b ec		 mov	 ebp, esp

; 85   : 	assert(iStage < 2 && "CGrannyMaterial::SetImagePointer");
; 86   : 	m_roImage[iStage] = pImage;

  00003	8b 45 08	 mov	 eax, DWORD PTR _iStage$[ebp]
; File C:\Users\flourine\Desktop\Xantios\client-src\Code\eterlib\Ref.h

; 69   : 		m_pObject = pObject;

  00006	8b 55 0c	 mov	 edx, DWORD PTR _pImage$[ebp]
; File C:\Users\flourine\Desktop\Xantios\client-src\Code\eterGrnLib\Material.cpp

; 84   : {

  00009	56		 push	 esi
; File C:\Users\flourine\Desktop\Xantios\client-src\Code\eterlib\Ref.h

; 67   : 		CReferenceObject* pOldObject = m_pObject;

  0000a	8b 74 81 10	 mov	 esi, DWORD PTR [ecx+eax*4+16]

; 69   : 		m_pObject = pObject;

  0000e	89 54 81 10	 mov	 DWORD PTR [ecx+eax*4+16], edx

; 70   : 
; 71   : 		if (m_pObject)

  00012	85 d2		 test	 edx, edx
  00014	74 07		 je	 SHORT $LN6@SetImagePo

; 72   : 		{
; 73   : 			m_pObject->AddReference();

  00016	8b ca		 mov	 ecx, edx
  00018	e8 00 00 00 00	 call	 ?AddReference@CReferenceObject@@QAEXXZ ; CReferenceObject::AddReference
$LN6@SetImagePo:

; 74   : 		}
; 75   : 
; 76   : 		if (pOldObject)

  0001d	85 f6		 test	 esi, esi
  0001f	74 07		 je	 SHORT $LN7@SetImagePo

; 77   : 		{
; 78   : 			pOldObject->Release();

  00021	8b ce		 mov	 ecx, esi
  00023	e8 00 00 00 00	 call	 ?Release@CReferenceObject@@QAEXXZ ; CReferenceObject::Release
$LN7@SetImagePo:
  00028	5e		 pop	 esi
; File C:\Users\flourine\Desktop\Xantios\client-src\Code\eterGrnLib\Material.cpp

; 87   : }

  00029	5d		 pop	 ebp
  0002a	c2 08 00	 ret	 8
?SetImagePointer@CGrannyMaterial@@QAEXHPAVCGraphicImage@@@Z ENDP ; CGrannyMaterial::SetImagePointer
_TEXT	ENDS
; Function compile flags: /Ogtp
; File C:\Users\flourine\Desktop\Xantios\client-src\Code\eterGrnLib\Material.cpp
; File C:\Users\flourine\Desktop\Xantios\client-src\Code\eterlib\Ref.h
; File C:\Users\flourine\Desktop\Xantios\client-src\Code\eterGrnLib\Material.cpp
; File C:\Users\flourine\Desktop\Xantios\client-src\Code\eterlib\Ref.h
; File C:\Users\flourine\Desktop\Xantios\client-src\Code\eterGrnLib\Material.cpp
;	COMDAT ?CreateFromGrannyMaterialPointer@CGrannyMaterial@@QAE_NPAUgranny_material@@@Z
_TEXT	SEGMENT
_twoSideResult$1 = -88					; size = 8
_pgrnOpacityTexture$1$ = -80				; size = 4
_pgrnDiffuseTexture$1$ = -76				; size = 4
_twoSided$2 = -72					; size = 4
_TwoSidedFieldType$3 = -68				; size = 64
__$ArrayPad$ = -4					; size = 4
_pgrnMaterial$ = 8					; size = 4
?CreateFromGrannyMaterialPointer@CGrannyMaterial@@QAE_NPAUgranny_material@@@Z PROC ; CGrannyMaterial::CreateFromGrannyMaterialPointer, COMDAT
; _this$ = ecx

; 238  : {

  00000	55		 push	 ebp
  00001	8b ec		 mov	 ebp, esp
  00003	83 ec 58	 sub	 esp, 88			; 00000058H
  00006	a1 00 00 00 00	 mov	 eax, DWORD PTR ___security_cookie
  0000b	33 c5		 xor	 eax, ebp
  0000d	89 45 fc	 mov	 DWORD PTR __$ArrayPad$[ebp], eax
  00010	53		 push	 ebx
  00011	8b 5d 08	 mov	 ebx, DWORD PTR _pgrnMaterial$[ebp]
  00014	57		 push	 edi
  00015	8b f9		 mov	 edi, ecx

; 239  : 	m_pgrnMaterial = pgrnMaterial;

  00017	89 5f 0c	 mov	 DWORD PTR [edi+12], ebx

; 240  : 
; 241  : 	granny_texture * pgrnDiffuseTexture = NULL;
; 242  : 	granny_texture * pgrnOpacityTexture = NULL;
; 243  : 
; 244  : 	if (pgrnMaterial)

  0001a	85 db		 test	 ebx, ebx
  0001c	0f 84 1b 01 00
	00		 je	 $LN19@CreateFrom

; 245  : 	{
; 246  : 		if (pgrnMaterial->MapCount > 1 && !_strnicmp(pgrnMaterial->Name, "Blend", 5))

  00022	83 7b 04 01	 cmp	 DWORD PTR [ebx+4], 1
  00026	56		 push	 esi
  00027	7e 2f		 jle	 SHORT $LN22@CreateFrom
  00029	6a 05		 push	 5
  0002b	68 00 00 00 00	 push	 OFFSET ??_C@_05BPEPCAMP@Blend@
  00030	ff 33		 push	 DWORD PTR [ebx]
  00032	e8 00 00 00 00	 call	 __strnicmp
  00037	83 c4 0c	 add	 esp, 12			; 0000000cH
  0003a	85 c0		 test	 eax, eax
  0003c	75 1a		 jne	 SHORT $LN22@CreateFrom

; 247  : 		{
; 248  : 			pgrnDiffuseTexture = GrannyGetMaterialTextureByType(pgrnMaterial->Maps[0].Material, GrannyDiffuseColorTexture);

  0003e	8b 43 08	 mov	 eax, DWORD PTR [ebx+8]
  00041	8b 35 00 00 00
	00		 mov	 esi, DWORD PTR __imp__GrannyGetMaterialTextureByType@8
  00047	6a 02		 push	 2
  00049	ff 70 04	 push	 DWORD PTR [eax+4]
  0004c	ff d6		 call	 esi

; 249  : 			pgrnOpacityTexture = GrannyGetMaterialTextureByType(pgrnMaterial->Maps[1].Material, GrannyDiffuseColorTexture);

  0004e	8b 4b 08	 mov	 ecx, DWORD PTR [ebx+8]
  00051	6a 02		 push	 2
  00053	ff 71 0c	 push	 DWORD PTR [ecx+12]

; 250  : 		}

  00056	eb 12		 jmp	 SHORT $LN24@CreateFrom
$LN22@CreateFrom:

; 251  : 		else
; 252  : 		{
; 253  : 			pgrnDiffuseTexture = GrannyGetMaterialTextureByType(m_pgrnMaterial, GrannyDiffuseColorTexture);

  00058	8b 35 00 00 00
	00		 mov	 esi, DWORD PTR __imp__GrannyGetMaterialTextureByType@8
  0005e	6a 02		 push	 2
  00060	ff 77 0c	 push	 DWORD PTR [edi+12]
  00063	ff d6		 call	 esi

; 254  : 			pgrnOpacityTexture = GrannyGetMaterialTextureByType(m_pgrnMaterial, GrannyOpacityTexture);

  00065	6a 05		 push	 5
  00067	ff 77 0c	 push	 DWORD PTR [edi+12]
$LN24@CreateFrom:

; 255  : 		}
; 256  : 
; 257  : 		{
; 258  : 			granny_int32 twoSided = 0;

  0006a	89 45 b4	 mov	 DWORD PTR _pgrnDiffuseTexture$1$[ebp], eax
  0006d	ff d6		 call	 esi
  0006f	89 45 b0	 mov	 DWORD PTR _pgrnOpacityTexture$1$[ebp], eax
  00072	0f 57 c0	 xorps	 xmm0, xmm0

; 259  : 			granny_data_type_definition TwoSidedFieldType[] =
; 260  : 			{
; 261  : 				{GrannyInt32Member, "Two-sided"},
; 262  : 				{GrannyEndMember},
; 263  : 			};
; 264  : #if GrannyProductMinorVersion==4
; 265  : 			granny_variant twoSideResult = GrannyFindMatchingMember(pgrnMaterial->ExtendedData.Type, pgrnMaterial->ExtendedData.Object, "Two-sided");
; 266  : 
; 267  : 			if (NULL != twoSideResult.Type)
; 268  : 			{
; 269  : 				GrannyConvertSingleObject(twoSideResult.Type, twoSideResult.Object, TwoSidedFieldType, &twoSided);
; 270  : 			}
; 271  : #elif GrannyProductMinorVersion==7
; 272  : 			granny_variant twoSideResult;
; 273  : 			bool findMatchResult = GrannyFindMatchingMember(pgrnMaterial->ExtendedData.Type, pgrnMaterial->ExtendedData.Object, "Two-sided", &twoSideResult);
; 274  : 			if (NULL != twoSideResult.Type && findMatchResult)
; 275  : 			{
; 276  : 				GrannyConvertSingleObject(twoSideResult.Type, twoSideResult.Object, TwoSidedFieldType, &twoSided);
; 277  : 			}
; 278  : #elif GrannyProductMinorVersion==11 || GrannyProductMinorVersion==9 || GrannyProductMinorVersion==8
; 279  : 			granny_variant twoSideResult;
; 280  : 			bool gfmm_bool = GrannyFindMatchingMember(pgrnMaterial->ExtendedData.Type, pgrnMaterial->ExtendedData.Object, "Two-sided", &twoSideResult);

  00075	8d 45 a8	 lea	 eax, DWORD PTR _twoSideResult$1[ebp]
  00078	c7 45 b8 00 00
	00 00		 mov	 DWORD PTR _twoSided$2[ebp], 0
  0007f	50		 push	 eax
  00080	68 00 00 00 00	 push	 OFFSET ??_C@_09HNLEFIID@Two?9sided@
  00085	ff 73 14	 push	 DWORD PTR [ebx+20]
  00088	c7 45 bc 13 00
	00 00		 mov	 DWORD PTR _TwoSidedFieldType$3[ebp], 19 ; 00000013H
  0008f	ff 73 10	 push	 DWORD PTR [ebx+16]
  00092	c7 45 c0 00 00
	00 00		 mov	 DWORD PTR _TwoSidedFieldType$3[ebp+4], OFFSET ??_C@_09HNLEFIID@Two?9sided@
  00099	0f 11 45 c4	 movups	 XMMWORD PTR _TwoSidedFieldType$3[ebp+8], xmm0
  0009d	c7 45 dc 00 00
	00 00		 mov	 DWORD PTR _TwoSidedFieldType$3[ebp+32], 0
  000a4	66 0f d6 45 d4	 movq	 QWORD PTR _TwoSidedFieldType$3[ebp+24], xmm0
  000a9	0f 11 45 e0	 movups	 XMMWORD PTR _TwoSidedFieldType$3[ebp+36], xmm0
  000ad	c7 45 f8 00 00
	00 00		 mov	 DWORD PTR _TwoSidedFieldType$3[ebp+60], 0
  000b4	66 0f d6 45 f0	 movq	 QWORD PTR _TwoSidedFieldType$3[ebp+52], xmm0
  000b9	ff 15 00 00 00
	00		 call	 DWORD PTR __imp__GrannyFindMatchingMember@16

; 281  : 			if (NULL != twoSideResult.Type)

  000bf	8b 45 a8	 mov	 eax, DWORD PTR _twoSideResult$1[ebp]
  000c2	85 c0		 test	 eax, eax
  000c4	74 14		 je	 SHORT $LN5@CreateFrom

; 282  : 			{
; 283  : 				GrannyConvertSingleObject(twoSideResult.Type, twoSideResult.Object, TwoSidedFieldType, &twoSided, 0);

  000c6	6a 00		 push	 0
  000c8	8d 4d b8	 lea	 ecx, DWORD PTR _twoSided$2[ebp]
  000cb	51		 push	 ecx
  000cc	8d 4d bc	 lea	 ecx, DWORD PTR _TwoSidedFieldType$3[ebp]
  000cf	51		 push	 ecx
  000d0	ff 75 ac	 push	 DWORD PTR _twoSideResult$1[ebp+4]
  000d3	50		 push	 eax
  000d4	ff 15 00 00 00
	00		 call	 DWORD PTR __imp__GrannyConvertSingleObject@20
$LN5@CreateFrom:

; 284  : 			}
; 285  : #else
; 286  : #error "unknown granny version"
; 287  : #endif
; 288  : 
; 289  : 			m_bTwoSideRender = 1 == twoSided;

  000da	83 7d b8 01	 cmp	 DWORD PTR _twoSided$2[ebp], 1
  000de	0f 94 c0	 sete	 al
  000e1	88 47 24	 mov	 BYTE PTR [edi+36], al

; 290  : 		}
; 291  : 	}
; 292  : 
; 293  : 	if (pgrnDiffuseTexture)

  000e4	8b 45 b4	 mov	 eax, DWORD PTR _pgrnDiffuseTexture$1$[ebp]
  000e7	85 c0		 test	 eax, eax
  000e9	74 25		 je	 SHORT $LN15@CreateFrom

; 294  : 	{
; 295  : 		m_roImage[0].SetPointer(__GetImagePointer(pgrnDiffuseTexture->FromFileName));

  000eb	ff 30		 push	 DWORD PTR [eax]
  000ed	8b cf		 mov	 ecx, edi
  000ef	e8 00 00 00 00	 call	 ?__GetImagePointer@CGrannyMaterial@@IAEPAVCGraphicImage@@PBD@Z ; CGrannyMaterial::__GetImagePointer
; File C:\Users\flourine\Desktop\Xantios\client-src\Code\eterlib\Ref.h

; 67   : 		CReferenceObject* pOldObject = m_pObject;

  000f4	8b 77 10	 mov	 esi, DWORD PTR [edi+16]

; 68   : 
; 69   : 		m_pObject = pObject;

  000f7	89 47 10	 mov	 DWORD PTR [edi+16], eax

; 70   : 
; 71   : 		if (m_pObject)

  000fa	85 c0		 test	 eax, eax
  000fc	74 07		 je	 SHORT $LN14@CreateFrom

; 72   : 		{
; 73   : 			m_pObject->AddReference();

  000fe	8b c8		 mov	 ecx, eax
  00100	e8 00 00 00 00	 call	 ?AddReference@CReferenceObject@@QAEXXZ ; CReferenceObject::AddReference
$LN14@CreateFrom:

; 74   : 		}
; 75   : 
; 76   : 		if (pOldObject)

  00105	85 f6		 test	 esi, esi
  00107	74 07		 je	 SHORT $LN15@CreateFrom

; 77   : 		{
; 78   : 			pOldObject->Release();

  00109	8b ce		 mov	 ecx, esi
  0010b	e8 00 00 00 00	 call	 ?Release@CReferenceObject@@QAEXXZ ; CReferenceObject::Release
$LN15@CreateFrom:
; File C:\Users\flourine\Desktop\Xantios\client-src\Code\eterGrnLib\Material.cpp

; 298  : 	if (pgrnOpacityTexture)

  00110	8b 45 b0	 mov	 eax, DWORD PTR _pgrnOpacityTexture$1$[ebp]
  00113	85 c0		 test	 eax, eax
  00115	74 25		 je	 SHORT $LN23@CreateFrom

; 299  : 	{
; 300  : 		m_roImage[1].SetPointer(__GetImagePointer(pgrnOpacityTexture->FromFileName));

  00117	ff 30		 push	 DWORD PTR [eax]
  00119	8b cf		 mov	 ecx, edi
  0011b	e8 00 00 00 00	 call	 ?__GetImagePointer@CGrannyMaterial@@IAEPAVCGraphicImage@@PBD@Z ; CGrannyMaterial::__GetImagePointer
; File C:\Users\flourine\Desktop\Xantios\client-src\Code\eterlib\Ref.h

; 67   : 		CReferenceObject* pOldObject = m_pObject;

  00120	8b 77 14	 mov	 esi, DWORD PTR [edi+20]

; 68   : 
; 69   : 		m_pObject = pObject;

  00123	89 47 14	 mov	 DWORD PTR [edi+20], eax

; 70   : 
; 71   : 		if (m_pObject)

  00126	85 c0		 test	 eax, eax
  00128	74 07		 je	 SHORT $LN18@CreateFrom

; 72   : 		{
; 73   : 			m_pObject->AddReference();

  0012a	8b c8		 mov	 ecx, eax
  0012c	e8 00 00 00 00	 call	 ?AddReference@CReferenceObject@@QAEXXZ ; CReferenceObject::AddReference
$LN18@CreateFrom:

; 74   : 		}
; 75   : 
; 76   : 		if (pOldObject)

  00131	85 f6		 test	 esi, esi
  00133	74 07		 je	 SHORT $LN23@CreateFrom

; 77   : 		{
; 78   : 			pOldObject->Release();

  00135	8b ce		 mov	 ecx, esi
  00137	e8 00 00 00 00	 call	 ?Release@CReferenceObject@@QAEXXZ ; CReferenceObject::Release
$LN23@CreateFrom:
  0013c	5e		 pop	 esi
$LN19@CreateFrom:
; File C:\Users\flourine\Desktop\Xantios\client-src\Code\eterGrnLib\Material.cpp

; 313  : }

  0013d	8b 4d fc	 mov	 ecx, DWORD PTR __$ArrayPad$[ebp]
  00140	33 c0		 xor	 eax, eax
  00142	39 47 14	 cmp	 DWORD PTR [edi+20], eax
  00145	0f 95 c0	 setne	 al
  00148	33 cd		 xor	 ecx, ebp
  0014a	89 47 18	 mov	 DWORD PTR [edi+24], eax
  0014d	b0 01		 mov	 al, 1
  0014f	5f		 pop	 edi
  00150	5b		 pop	 ebx
  00151	e8 00 00 00 00	 call	 @__security_check_cookie@4
  00156	8b e5		 mov	 esp, ebp
  00158	5d		 pop	 ebp
  00159	c2 04 00	 ret	 4
?CreateFromGrannyMaterialPointer@CGrannyMaterial@@QAE_NPAUgranny_material@@@Z ENDP ; CGrannyMaterial::CreateFromGrannyMaterialPointer
_TEXT	ENDS
; Function compile flags: /Ogtp
; File C:\Users\flourine\Desktop\Xantios\client-src\Code\eterGrnLib\Material.cpp
; File C:\Users\flourine\Desktop\Xantios\client-src\Code\eterlib\Ref.h
; File C:\Users\flourine\Desktop\Xantios\client-src\Code\eterGrnLib\Material.cpp
;	COMDAT ?Initialize@CGrannyMaterial@@IAEXXZ
_TEXT	SEGMENT
?Initialize@CGrannyMaterial@@IAEXXZ PROC		; CGrannyMaterial::Initialize, COMDAT
; _this$ = ecx

; 316  : {

  00000	56		 push	 esi
  00001	8b f1		 mov	 esi, ecx
; File C:\Users\flourine\Desktop\Xantios\client-src\Code\eterlib\Ref.h

; 67   : 		CReferenceObject* pOldObject = m_pObject;

  00003	8b 4e 10	 mov	 ecx, DWORD PTR [esi+16]

; 68   : 
; 69   : 		m_pObject = pObject;

  00006	c7 46 10 00 00
	00 00		 mov	 DWORD PTR [esi+16], 0

; 70   : 
; 71   : 		if (m_pObject)
; 72   : 		{
; 73   : 			m_pObject->AddReference();
; 74   : 		}
; 75   : 
; 76   : 		if (pOldObject)

  0000d	85 c9		 test	 ecx, ecx
  0000f	74 05		 je	 SHORT $LN7@Initialize

; 77   : 		{
; 78   : 			pOldObject->Release();

  00011	e8 00 00 00 00	 call	 ?Release@CReferenceObject@@QAEXXZ ; CReferenceObject::Release
$LN7@Initialize:

; 67   : 		CReferenceObject* pOldObject = m_pObject;

  00016	8b 4e 14	 mov	 ecx, DWORD PTR [esi+20]

; 68   : 
; 69   : 		m_pObject = pObject;

  00019	c7 46 14 00 00
	00 00		 mov	 DWORD PTR [esi+20], 0

; 70   : 
; 71   : 		if (m_pObject)
; 72   : 		{
; 73   : 			m_pObject->AddReference();
; 74   : 		}
; 75   : 
; 76   : 		if (pOldObject)

  00020	85 c9		 test	 ecx, ecx
  00022	74 05		 je	 SHORT $LN13@Initialize

; 77   : 		{
; 78   : 			pOldObject->Release();

  00024	e8 00 00 00 00	 call	 ?Release@CReferenceObject@@QAEXXZ ; CReferenceObject::Release
$LN13@Initialize:
; File C:\Users\flourine\Desktop\Xantios\client-src\Code\eterGrnLib\Material.cpp

; 320  : 	SetSpecularInfo(FALSE, 0.0f, 0);

  00029	6a 00		 push	 0
  0002b	51		 push	 ecx
  0002c	c7 04 24 00 00
	00 00		 mov	 DWORD PTR [esp], 0
  00033	8b ce		 mov	 ecx, esi
  00035	6a 00		 push	 0
  00037	e8 00 00 00 00	 call	 ?SetSpecularInfo@CGrannyMaterial@@QAEXHME@Z ; CGrannyMaterial::SetSpecularInfo
  0003c	5e		 pop	 esi

; 321  : }

  0003d	c3		 ret	 0
?Initialize@CGrannyMaterial@@IAEXXZ ENDP		; CGrannyMaterial::Initialize
_TEXT	ENDS
; Function compile flags: /Ogtp
; File C:\Users\flourine\Desktop\Xantios\client-src\Code\eterGrnLib\Material.cpp
;	COMDAT ?RestoreRenderState@CGrannyMaterial@@QAEXXZ
_TEXT	SEGMENT
?RestoreRenderState@CGrannyMaterial@@QAEXXZ PROC	; CGrannyMaterial::RestoreRenderState, COMDAT
; _this$ = ecx

; 53   : {

  00000	8b c1		 mov	 eax, ecx

; 54   : 	assert(m_pfnRestoreRenderState != NULL && "CGrannyMaterial::RestoreRenderState");
; 55   : 	(this->*m_pfnRestoreRenderState)();

  00002	8b 40 34	 mov	 eax, DWORD PTR [eax+52]
  00005	ff e0		 jmp	 eax
?RestoreRenderState@CGrannyMaterial@@QAEXXZ ENDP	; CGrannyMaterial::RestoreRenderState
_TEXT	ENDS
; Function compile flags: /Ogtp
; File C:\Users\flourine\Desktop\Xantios\client-src\Code\eterGrnLib\Material.cpp
;	COMDAT ?ApplyRenderState@CGrannyMaterial@@QAEXXZ
_TEXT	SEGMENT
?ApplyRenderState@CGrannyMaterial@@QAEXXZ PROC		; CGrannyMaterial::ApplyRenderState, COMDAT
; _this$ = ecx

; 47   : {

  00000	8b c1		 mov	 eax, ecx

; 48   : 	assert(m_pfnApplyRenderState != NULL && "CGrannyMaterial::SaveRenderState");
; 49   : 	(this->*m_pfnApplyRenderState)();

  00002	8b 40 30	 mov	 eax, DWORD PTR [eax+48]
  00005	ff e0		 jmp	 eax
?ApplyRenderState@CGrannyMaterial@@QAEXXZ ENDP		; CGrannyMaterial::ApplyRenderState
_TEXT	ENDS
; Function compile flags: /Ogtp
; File C:\Users\flourine\Desktop\Xantios\client-src\Code\eterGrnLib\Material.cpp
;	COMDAT ?SetSpecularInfo@CGrannyMaterial@@QAEXHME@Z
_TEXT	SEGMENT
_bFlag$ = 8						; size = 4
_fPower$ = 12						; size = 4
_uSphereMapIndex$ = 16					; size = 1
?SetSpecularInfo@CGrannyMaterial@@QAEXHME@Z PROC	; CGrannyMaterial::SetSpecularInfo, COMDAT
; _this$ = ecx

; 122  : {

  00000	55		 push	 ebp
  00001	8b ec		 mov	 ebp, esp

; 123  : 	m_fSpecularPower = fPower;
; 124  : 	m_bSphereMapIndex = uSphereMapIndex;

  00003	8a 45 10	 mov	 al, BYTE PTR _uSphereMapIndex$[ebp]

; 125  : 	m_bSpecularEnable = bFlag;

  00006	8b 55 08	 mov	 edx, DWORD PTR _bFlag$[ebp]

; 126  : 
; 127  : 	if (bFlag)
; 128  : 	{
; 129  : 		m_pfnApplyRenderState = &CGrannyMaterial::__ApplySpecularRenderState;
; 130  : 		m_pfnRestoreRenderState = &CGrannyMaterial::__RestoreSpecularRenderState;
; 131  : 	}
; 132  : 	else
; 133  : 	{
; 134  : 		m_pfnApplyRenderState = &CGrannyMaterial::__ApplyDiffuseRenderState;
; 135  : 		m_pfnRestoreRenderState = &CGrannyMaterial::__RestoreDiffuseRenderState;
; 136  : 	}
; 137  : }

  00009	85 d2		 test	 edx, edx
  0000b	f3 0f 10 45 0c	 movss	 xmm0, DWORD PTR _fPower$[ebp]
  00010	56		 push	 esi
  00011	88 41 2c	 mov	 BYTE PTR [ecx+44], al
  00014	be 00 00 00 00	 mov	 esi, OFFSET ?__RestoreSpecularRenderState@CGrannyMaterial@@IAEXXZ ; CGrannyMaterial::__RestoreSpecularRenderState
  00019	b8 00 00 00 00	 mov	 eax, OFFSET ?__RestoreDiffuseRenderState@CGrannyMaterial@@IAEXXZ ; CGrannyMaterial::__RestoreDiffuseRenderState
  0001e	f3 0f 11 41 1c	 movss	 DWORD PTR [ecx+28], xmm0
  00023	0f 44 f0	 cmove	 esi, eax
  00026	89 51 20	 mov	 DWORD PTR [ecx+32], edx
  00029	57		 push	 edi
  0002a	bf 00 00 00 00	 mov	 edi, OFFSET ?__ApplyDiffuseRenderState@CGrannyMaterial@@IAEXXZ ; CGrannyMaterial::__ApplyDiffuseRenderState
  0002f	b8 00 00 00 00	 mov	 eax, OFFSET ?__ApplySpecularRenderState@CGrannyMaterial@@IAEXXZ ; CGrannyMaterial::__ApplySpecularRenderState
  00034	0f 44 c7	 cmove	 eax, edi
  00037	89 41 30	 mov	 DWORD PTR [ecx+48], eax
  0003a	5f		 pop	 edi
  0003b	89 71 34	 mov	 DWORD PTR [ecx+52], esi
  0003e	5e		 pop	 esi
  0003f	5d		 pop	 ebp
  00040	c2 0c 00	 ret	 12			; 0000000cH
?SetSpecularInfo@CGrannyMaterial@@QAEXHME@Z ENDP	; CGrannyMaterial::SetSpecularInfo
_TEXT	ENDS
; Function compile flags: /Ogtp
; File C:\Users\flourine\Desktop\Xantios\client-src\Code\eterGrnLib\Material.cpp
; File C:\Program Files\Microsoft Visual Studio\2022\Community\VC\Tools\MSVC\14.34.31933\include\xstring
; File C:\Users\flourine\Desktop\Xantios\client-src\Code\eterGrnLib\Material.cpp
; File C:\Program Files\Microsoft Visual Studio\2022\Community\VC\Tools\MSVC\14.34.31933\include\xstring
; File C:\Users\flourine\Desktop\Xantios\client-src\Code\eterGrnLib\Material.cpp
; File C:\Program Files\Microsoft Visual Studio\2022\Community\VC\Tools\MSVC\14.34.31933\include\xstring
; File C:\Users\flourine\Desktop\Xantios\client-src\Code\eterGrnLib\Material.cpp
; File C:\Program Files\Microsoft Visual Studio\2022\Community\VC\Tools\MSVC\14.34.31933\include\xstring
; File C:\Users\flourine\Desktop\Xantios\client-src\Code\eterGrnLib\Material.cpp
; File C:\Program Files\Microsoft Visual Studio\2022\Community\VC\Tools\MSVC\14.34.31933\include\xstring
; File C:\Users\flourine\Desktop\Xantios\client-src\Code\eterGrnLib\Material.cpp
; File C:\Program Files\Microsoft Visual Studio\2022\Community\VC\Tools\MSVC\14.34.31933\include\xstring
; File C:\Program Files\Microsoft Visual Studio\2022\Community\VC\Tools\MSVC\14.34.31933\include\xmemory
; File C:\Program Files\Microsoft Visual Studio\2022\Community\VC\Tools\MSVC\14.34.31933\include\xstring
; File C:\Users\flourine\Desktop\Xantios\client-src\Code\eterGrnLib\Material.cpp
; File C:\Program Files\Microsoft Visual Studio\2022\Community\VC\Tools\MSVC\14.34.31933\include\xstring
; File C:\Program Files\Microsoft Visual Studio\2022\Community\VC\Tools\MSVC\14.34.31933\include\xmemory
; File C:\Users\flourine\Desktop\Xantios\client-src\Code\eterGrnLib\Material.cpp
; File C:\Program Files\Microsoft Visual Studio\2022\Community\VC\Tools\MSVC\14.34.31933\include\xstring
; File C:\Users\flourine\Desktop\Xantios\client-src\Code\eterGrnLib\Material.cpp
; File C:\Program Files\Microsoft Visual Studio\2022\Community\VC\Tools\MSVC\14.34.31933\include\xstring
; File C:\Users\flourine\Desktop\Xantios\client-src\Code\eterGrnLib\Material.cpp
; File C:\Program Files\Microsoft Visual Studio\2022\Community\VC\Tools\MSVC\14.34.31933\include\xstring
; File C:\Users\flourine\Desktop\Xantios\client-src\Code\eterGrnLib\Material.cpp
; File C:\Program Files\Microsoft Visual Studio\2022\Community\VC\Tools\MSVC\14.34.31933\include\xstring
; File C:\Program Files\Microsoft Visual Studio\2022\Community\VC\Tools\MSVC\14.34.31933\include\xmemory
; File C:\Program Files\Microsoft Visual Studio\2022\Community\VC\Tools\MSVC\14.34.31933\include\xstring
; File C:\Program Files\Microsoft Visual Studio\2022\Community\VC\Tools\MSVC\14.34.31933\include\xmemory
; File C:\Users\flourine\Desktop\Xantios\client-src\Code\eterGrnLib\Material.cpp
; File C:\Program Files\Microsoft Visual Studio\2022\Community\VC\Tools\MSVC\14.34.31933\include\xstring
; File C:\Program Files\Microsoft Visual Studio\2022\Community\VC\Tools\MSVC\14.34.31933\include\xmemory
; File C:\Program Files\Microsoft Visual Studio\2022\Community\VC\Tools\MSVC\14.34.31933\include\xstring
; File C:\Program Files\Microsoft Visual Studio\2022\Community\VC\Tools\MSVC\14.34.31933\include\xmemory
; File C:\Users\flourine\Desktop\Xantios\client-src\Code\eterGrnLib\Material.cpp
; File C:\Program Files\Microsoft Visual Studio\2022\Community\VC\Tools\MSVC\14.34.31933\include\xmemory
; File C:\Users\flourine\Desktop\Xantios\client-src\Code\eterGrnLib\Material.cpp
;	COMDAT ?IsIn@CGrannyMaterial@@QAE_NPBDPAH@Z
_TEXT	SEGMENT
_this$GSCopy$1$ = -76					; size = 4
_piStage$GSCopy$1$ = -72				; size = 4
$T2 = -65						; size = 1
_strImageName$ = -64					; size = 24
_strOpacityFileName$3 = -40				; size = 24
_strDiffuseFileName$4 = -40				; size = 24
__$ArrayPad$ = -16					; size = 4
__$EHRec$ = -12						; size = 12
_c_szImageName$ = 8					; size = 4
_piStage$ = 12						; size = 4
?IsIn@CGrannyMaterial@@QAE_NPBDPAH@Z PROC		; CGrannyMaterial::IsIn, COMDAT
; _this$ = ecx

; 90   : {

  00000	55		 push	 ebp
  00001	8b ec		 mov	 ebp, esp
  00003	6a ff		 push	 -1
  00005	68 00 00 00 00	 push	 __ehhandler$?IsIn@CGrannyMaterial@@QAE_NPBDPAH@Z
  0000a	64 a1 00 00 00
	00		 mov	 eax, DWORD PTR fs:0
  00010	50		 push	 eax
  00011	83 ec 40	 sub	 esp, 64			; 00000040H
  00014	a1 00 00 00 00	 mov	 eax, DWORD PTR ___security_cookie
  00019	33 c5		 xor	 eax, ebp
  0001b	89 45 f0	 mov	 DWORD PTR __$ArrayPad$[ebp], eax
  0001e	56		 push	 esi
  0001f	57		 push	 edi
  00020	50		 push	 eax
  00021	8d 45 f4	 lea	 eax, DWORD PTR __$EHRec$[ebp]
  00024	64 a3 00 00 00
	00		 mov	 DWORD PTR fs:0, eax
  0002a	8b f9		 mov	 edi, ecx
  0002c	89 7d b4	 mov	 DWORD PTR _this$GSCopy$1$[ebp], edi
  0002f	8b 55 08	 mov	 edx, DWORD PTR _c_szImageName$[ebp]
  00032	0f 57 c0	 xorps	 xmm0, xmm0
  00035	8b 45 0c	 mov	 eax, DWORD PTR _piStage$[ebp]
; File C:\Program Files\Microsoft Visual Studio\2022\Community\VC\Tools\MSVC\14.34.31933\include\xstring

; 415  :             return __builtin_strlen(_First);

  00038	8b ca		 mov	 ecx, edx
; File C:\Users\flourine\Desktop\Xantios\client-src\Code\eterGrnLib\Material.cpp

; 90   : {

  0003a	89 45 b8	 mov	 DWORD PTR _piStage$GSCopy$1$[ebp], eax
; File C:\Program Files\Microsoft Visual Studio\2022\Community\VC\Tools\MSVC\14.34.31933\include\xstring

; 2341 :         _CONSTEXPR20 _Bxty() noexcept : _Buf() {} // user-provided, for fancy pointers

  0003d	0f 11 45 c0	 movups	 XMMWORD PTR _strImageName$[ebp], xmm0

; 2349 :     size_type _Mysize = 0; // current length of string

  00041	c7 45 d0 00 00
	00 00		 mov	 DWORD PTR _strImageName$[ebp+16], 0

; 2350 :     size_type _Myres  = 0; // current storage reserved for string

  00048	c7 45 d4 00 00
	00 00		 mov	 DWORD PTR _strImageName$[ebp+20], 0

; 415  :             return __builtin_strlen(_First);

  0004f	8d 71 01	 lea	 esi, DWORD PTR [ecx+1]
$LL252@IsIn:
  00052	8a 01		 mov	 al, BYTE PTR [ecx]
  00054	41		 inc	 ecx
  00055	84 c0		 test	 al, al
  00057	75 f9		 jne	 SHORT $LL252@IsIn
  00059	2b ce		 sub	 ecx, esi

; 2675 :         _Construct<_Construct_strategy::_From_ptr>(_Ptr, _Convert_size<size_type>(_Traits::length(_Ptr)));

  0005b	51		 push	 ecx
  0005c	52		 push	 edx
  0005d	8d 4d c0	 lea	 ecx, DWORD PTR _strImageName$[ebp]
  00060	e8 00 00 00 00	 call	 ??$_Construct@$00PBD@?$basic_string@DU?$char_traits@D@std@@V?$allocator@D@2@@std@@AAEXQBDI@Z ; std::basic_string<char,std::char_traits<char>,std::allocator<char> >::_Construct<1,char const *>
; File C:\Users\flourine\Desktop\Xantios\client-src\Code\eterGrnLib\Material.cpp

; 92   : 	CFileNameHelper::StringPath(strImageName);

  00065	8d 45 c0	 lea	 eax, DWORD PTR _strImageName$[ebp]
  00068	c7 45 fc 00 00
	00 00		 mov	 DWORD PTR __$EHRec$[ebp+8], 0
  0006f	50		 push	 eax
  00070	e8 00 00 00 00	 call	 ?StringPath@CFileNameHelper@@SAXAAV?$basic_string@DU?$char_traits@D@std@@V?$allocator@D@2@@std@@@Z ; CFileNameHelper::StringPath
  00075	83 c4 04	 add	 esp, 4

; 93   : 
; 94   : 	granny_texture * pgrnDiffuseTexture = GrannyGetMaterialTextureByType(m_pgrnMaterial, GrannyDiffuseColorTexture);

  00078	6a 02		 push	 2
  0007a	ff 77 0c	 push	 DWORD PTR [edi+12]
  0007d	ff 15 00 00 00
	00		 call	 DWORD PTR __imp__GrannyGetMaterialTextureByType@8

; 95   : 	if (pgrnDiffuseTexture)

  00083	8b 7d c0	 mov	 edi, DWORD PTR _strImageName$[ebp]
  00086	85 c0		 test	 eax, eax
  00088	0f 84 45 01 00
	00		 je	 $LN155@IsIn

; 96   : 	{
; 97   : 		std::string strDiffuseFileName = pgrnDiffuseTexture->FromFileName;

  0008e	8b 10		 mov	 edx, DWORD PTR [eax]
  00090	0f 57 c0	 xorps	 xmm0, xmm0
; File C:\Program Files\Microsoft Visual Studio\2022\Community\VC\Tools\MSVC\14.34.31933\include\xstring

; 415  :             return __builtin_strlen(_First);

  00093	8b ca		 mov	 ecx, edx

; 2349 :     size_type _Mysize = 0; // current length of string

  00095	c7 45 e8 00 00
	00 00		 mov	 DWORD PTR _strDiffuseFileName$4[ebp+16], 0

; 2341 :         _CONSTEXPR20 _Bxty() noexcept : _Buf() {} // user-provided, for fancy pointers

  0009c	0f 11 45 d8	 movups	 XMMWORD PTR _strDiffuseFileName$4[ebp], xmm0

; 2350 :     size_type _Myres  = 0; // current storage reserved for string

  000a0	c7 45 ec 00 00
	00 00		 mov	 DWORD PTR _strDiffuseFileName$4[ebp+20], 0

; 415  :             return __builtin_strlen(_First);

  000a7	8d 71 01	 lea	 esi, DWORD PTR [ecx+1]
  000aa	66 0f 1f 44 00
	00		 npad	 6
$LL253@IsIn:
  000b0	8a 01		 mov	 al, BYTE PTR [ecx]
  000b2	41		 inc	 ecx
  000b3	84 c0		 test	 al, al
  000b5	75 f9		 jne	 SHORT $LL253@IsIn
  000b7	2b ce		 sub	 ecx, esi

; 2675 :         _Construct<_Construct_strategy::_From_ptr>(_Ptr, _Convert_size<size_type>(_Traits::length(_Ptr)));

  000b9	51		 push	 ecx
  000ba	52		 push	 edx
  000bb	8d 4d d8	 lea	 ecx, DWORD PTR _strDiffuseFileName$4[ebp]
  000be	e8 00 00 00 00	 call	 ??$_Construct@$00PBD@?$basic_string@DU?$char_traits@D@std@@V?$allocator@D@2@@std@@AAEXQBDI@Z ; std::basic_string<char,std::char_traits<char>,std::allocator<char> >::_Construct<1,char const *>
