; Listing generated by Microsoft (R) Optimizing Compiler Version 19.34.31942.0 

	TITLE	C:\Users\flourine\Desktop\Xantios\client-src\Code\eterGrnLib\Distribute\Mesh.obj
	.686P
	.XMM
	include listing.inc
	.model	flat

INCLUDELIB LIBCMT
INCLUDELIB OLDNAMES

PUBLIC	??_C@_08GCJNLIKG@Position@			; `string'
PUBLIC	??_C@_06EFAGIKOH@Normal@			; `string'
PUBLIC	??_C@_0BE@MAKBLMOM@TextureCoordinates0@		; `string'
PUBLIC	??_C@_0BE@NJLKINKN@TextureCoordinates1@		; `string'
PUBLIC	?GrannyPNT3322VertexType@@3PAUgranny_data_type_definition@@A ; GrannyPNT3322VertexType
_DATA	SEGMENT
?GrannyPNT3322VertexType@@3PAUgranny_data_type_definition@@A DD 0aH ; GrannyPNT3322VertexType
	DD	FLAT:??_C@_08GCJNLIKG@Position@
	DD	00H
	DD	03H
	ORG $+16
	DD	0aH
	DD	FLAT:??_C@_06EFAGIKOH@Normal@
	DD	00H
	DD	03H
	ORG $+16
	DD	0aH
	DD	FLAT:??_C@_0BE@MAKBLMOM@TextureCoordinates0@
	DD	00H
	DD	02H
	ORG $+16
	DD	0aH
	DD	FLAT:??_C@_0BE@NJLKINKN@TextureCoordinates1@
	DD	00H
	DD	02H
	ORG $+16
	DD	00H
	ORG $+28
_DATA	ENDS
;	COMDAT ??_C@_0BE@NJLKINKN@TextureCoordinates1@
CONST	SEGMENT
??_C@_0BE@NJLKINKN@TextureCoordinates1@ DB 'TextureCoordinates1', 00H ; `string'
CONST	ENDS
;	COMDAT ??_C@_0BE@MAKBLMOM@TextureCoordinates0@
CONST	SEGMENT
??_C@_0BE@MAKBLMOM@TextureCoordinates0@ DB 'TextureCoordinates0', 00H ; `string'
CONST	ENDS
;	COMDAT ??_C@_06EFAGIKOH@Normal@
CONST	SEGMENT
??_C@_06EFAGIKOH@Normal@ DB 'Normal', 00H		; `string'
CONST	ENDS
;	COMDAT ??_C@_08GCJNLIKG@Position@
CONST	SEGMENT
??_C@_08GCJNLIKG@Position@ DB 'Position', 00H		; `string'
CONST	ENDS
PUBLIC	??0exception@std@@QAE@ABV01@@Z			; std::exception::exception
PUBLIC	??1exception@std@@UAE@XZ			; std::exception::~exception
PUBLIC	?what@exception@std@@UBEPBDXZ			; std::exception::what
PUBLIC	??_Gexception@std@@UAEPAXI@Z			; std::exception::`scalar deleting destructor'
PUBLIC	??0bad_alloc@std@@QAE@ABV01@@Z			; std::bad_alloc::bad_alloc
PUBLIC	??_Gbad_alloc@std@@UAEPAXI@Z			; std::bad_alloc::`scalar deleting destructor'
PUBLIC	??0bad_array_new_length@std@@QAE@XZ		; std::bad_array_new_length::bad_array_new_length
PUBLIC	??1bad_array_new_length@std@@UAE@XZ		; std::bad_array_new_length::~bad_array_new_length
PUBLIC	??0bad_array_new_length@std@@QAE@ABV01@@Z	; std::bad_array_new_length::bad_array_new_length
PUBLIC	??_Gbad_array_new_length@std@@UAEPAXI@Z		; std::bad_array_new_length::`scalar deleting destructor'
PUBLIC	?_Throw_bad_array_new_length@std@@YAXXZ		; std::_Throw_bad_array_new_length
PUBLIC	??0CGrannyMesh@@QAE@XZ				; CGrannyMesh::CGrannyMesh
PUBLIC	??1CGrannyMesh@@UAE@XZ				; CGrannyMesh::~CGrannyMesh
PUBLIC	?IsEmpty@CGrannyMesh@@QBE_NXZ			; CGrannyMesh::IsEmpty
PUBLIC	?CreateFromGrannyMeshPointer@CGrannyMesh@@QAE_NPAUgranny_skeleton@@PAUgranny_mesh@@HHAAVCGrannyMaterialPalette@@@Z ; CGrannyMesh::CreateFromGrannyMeshPointer
PUBLIC	?LoadIndices@CGrannyMesh@@QAEXPAX@Z		; CGrannyMesh::LoadIndices
PUBLIC	?LoadPNTVertices@CGrannyMesh@@QAEXPAX@Z		; CGrannyMesh::LoadPNTVertices
PUBLIC	?NEW_LoadVertices@CGrannyMesh@@QAEXPAX@Z	; CGrannyMesh::NEW_LoadVertices
PUBLIC	?Destroy@CGrannyMesh@@QAEXXZ			; CGrannyMesh::Destroy
PUBLIC	?SetPNT2Mesh@CGrannyMesh@@QAEXXZ		; CGrannyMesh::SetPNT2Mesh
PUBLIC	?DeformPNTVertices@CGrannyMesh@@QBEXPAXPAUD3DXMATRIX@@PAUgranny_mesh_binding@@@Z ; CGrannyMesh::DeformPNTVertices
PUBLIC	?CanDeformPNTVertices@CGrannyMesh@@QBE_NXZ	; CGrannyMesh::CanDeformPNTVertices
PUBLIC	?IsTwoSide@CGrannyMesh@@QBE_NXZ			; CGrannyMesh::IsTwoSide
PUBLIC	?GetVertexCount@CGrannyMesh@@QBEHXZ		; CGrannyMesh::GetVertexCount
PUBLIC	?GetDefaultBoneIndices@CGrannyMesh@@QBEPBHXZ	; CGrannyMesh::GetDefaultBoneIndices
PUBLIC	?GetVertexBasePosition@CGrannyMesh@@QBEHXZ	; CGrannyMesh::GetVertexBasePosition
PUBLIC	?GetIndexBasePosition@CGrannyMesh@@QBEHXZ	; CGrannyMesh::GetIndexBasePosition
PUBLIC	?GetGrannyMeshPointer@CGrannyMesh@@QBEPBUgranny_mesh@@XZ ; CGrannyMesh::GetGrannyMeshPointer
PUBLIC	?GetTriGroupNodeList@CGrannyMesh@@QBEPBUSTriGroupNode@1@W4EType@CGrannyMaterial@@@Z ; CGrannyMesh::GetTriGroupNodeList
PUBLIC	?RebuildTriGroupNodeList@CGrannyMesh@@QAEXXZ	; CGrannyMesh::RebuildTriGroupNodeList
PUBLIC	?Initialize@CGrannyMesh@@IAEXXZ			; CGrannyMesh::Initialize
PUBLIC	?LoadMaterials@CGrannyMesh@@IAE_NAAVCGrannyMaterialPalette@@@Z ; CGrannyMesh::LoadMaterials
PUBLIC	?LoadTriGroupNodeList@CGrannyMesh@@IAE_NAAVCGrannyMaterialPalette@@@Z ; CGrannyMesh::LoadTriGroupNodeList
PUBLIC	?_Xlength@?$vector@KV?$allocator@K@std@@@std@@CAXXZ ; std::vector<unsigned long,std::allocator<unsigned long> >::_Xlength
PUBLIC	??_GCGrannyMesh@@UAEPAXI@Z			; CGrannyMesh::`scalar deleting destructor'
PUBLIC	??$_Emplace_reallocate@ABK@?$vector@KV?$allocator@K@std@@@std@@AAEPAKQAKABK@Z ; std::vector<unsigned long,std::allocator<unsigned long> >::_Emplace_reallocate<unsigned long const &>
PUBLIC	??$_Allocate_manually_vector_aligned@U_Default_allocate_traits@std@@@std@@YAPAXI@Z ; std::_Allocate_manually_vector_aligned<std::_Default_allocate_traits>
PUBLIC	??$_Copy_memmove@PAKPAK@std@@YAPAKPAK00@Z	; std::_Copy_memmove<unsigned long *,unsigned long *>
PUBLIC	??_7exception@std@@6B@				; std::exception::`vftable'
PUBLIC	??_C@_0BC@EOODALEL@Unknown?5exception@		; `string'
PUBLIC	??_7bad_alloc@std@@6B@				; std::bad_alloc::`vftable'
PUBLIC	??_7bad_array_new_length@std@@6B@		; std::bad_array_new_length::`vftable'
PUBLIC	??_C@_0BF@KINCDENJ@bad?5array?5new?5length@	; `string'
PUBLIC	__TI3?AVbad_array_new_length@std@@
PUBLIC	__CTA3?AVbad_array_new_length@std@@
PUBLIC	??_R0?AVbad_array_new_length@std@@@8		; std::bad_array_new_length `RTTI Type Descriptor'
PUBLIC	__CT??_R0?AVbad_array_new_length@std@@@8??0bad_array_new_length@std@@QAE@ABV01@@Z12
PUBLIC	??_R0?AVbad_alloc@std@@@8			; std::bad_alloc `RTTI Type Descriptor'
PUBLIC	__CT??_R0?AVbad_alloc@std@@@8??0bad_alloc@std@@QAE@ABV01@@Z12
PUBLIC	??_R0?AVexception@std@@@8			; std::exception `RTTI Type Descriptor'
PUBLIC	__CT??_R0?AVexception@std@@@8??0exception@std@@QAE@ABV01@@Z12
PUBLIC	??_7CGrannyMesh@@6B@				; CGrannyMesh::`vftable'
PUBLIC	??_C@_02MALHOEON@2x@				; `string'
PUBLIC	??_C@_0BA@FOIKENOD@vector?5too?5long@		; `string'
PUBLIC	??_R4exception@std@@6B@				; std::exception::`RTTI Complete Object Locator'
PUBLIC	??_R3exception@std@@8				; std::exception::`RTTI Class Hierarchy Descriptor'
PUBLIC	??_R2exception@std@@8				; std::exception::`RTTI Base Class Array'
PUBLIC	??_R1A@?0A@EA@exception@std@@8			; std::exception::`RTTI Base Class Descriptor at (0,-1,0,64)'
PUBLIC	??_R4bad_alloc@std@@6B@				; std::bad_alloc::`RTTI Complete Object Locator'
PUBLIC	??_R3bad_alloc@std@@8				; std::bad_alloc::`RTTI Class Hierarchy Descriptor'
PUBLIC	??_R2bad_alloc@std@@8				; std::bad_alloc::`RTTI Base Class Array'
PUBLIC	??_R1A@?0A@EA@bad_alloc@std@@8			; std::bad_alloc::`RTTI Base Class Descriptor at (0,-1,0,64)'
PUBLIC	??_R4bad_array_new_length@std@@6B@		; std::bad_array_new_length::`RTTI Complete Object Locator'
PUBLIC	??_R3bad_array_new_length@std@@8		; std::bad_array_new_length::`RTTI Class Hierarchy Descriptor'
PUBLIC	??_R2bad_array_new_length@std@@8		; std::bad_array_new_length::`RTTI Base Class Array'
PUBLIC	??_R1A@?0A@EA@bad_array_new_length@std@@8	; std::bad_array_new_length::`RTTI Base Class Descriptor at (0,-1,0,64)'
PUBLIC	??_R4CGrannyMesh@@6B@				; CGrannyMesh::`RTTI Complete Object Locator'
PUBLIC	??_R0?AVCGrannyMesh@@@8				; CGrannyMesh `RTTI Type Descriptor'
PUBLIC	??_R3CGrannyMesh@@8				; CGrannyMesh::`RTTI Class Hierarchy Descriptor'
PUBLIC	??_R2CGrannyMesh@@8				; CGrannyMesh::`RTTI Base Class Array'
PUBLIC	??_R1A@?0A@EA@CGrannyMesh@@8			; CGrannyMesh::`RTTI Base Class Descriptor at (0,-1,0,64)'
EXTRN	??2@YAPAXI@Z:PROC				; operator new
EXTRN	??3@YAXPAXI@Z:PROC				; operator delete
EXTRN	??_U@YAPAXI@Z:PROC				; operator new[]
EXTRN	??_V@YAXPAX@Z:PROC				; operator delete[]
EXTRN	__imp__GrannyGetMeshTriangleGroupCount@4:PROC
EXTRN	__imp__GrannyGetMeshTriangleGroups@4:PROC
EXTRN	__imp__GrannyGetMeshVertexType@4:PROC
EXTRN	__imp__GrannyGetMeshVertexCount@4:PROC
EXTRN	__imp__GrannyCopyMeshVertices@12:PROC
EXTRN	__imp__GrannyGetMeshVertices@4:PROC
EXTRN	__imp__GrannyMeshIsRigid@4:PROC
EXTRN	__imp__GrannyCopyMeshIndices@12:PROC
EXTRN	__imp__GrannyNewMeshBinding@12:PROC
EXTRN	__imp__GrannyFreeMeshBinding@4:PROC
EXTRN	__imp__GrannyGetMeshBindingToBoneIndices@4:PROC
EXTRN	__imp__GrannyNewMeshDeformer@16:PROC
EXTRN	__imp__GrannyFreeMeshDeformer@4:PROC
EXTRN	__imp__GrannyDeformVertices@24:PROC
EXTRN	__invalid_parameter_noinfo_noreturn:PROC
EXTRN	_strncmp:PROC
EXTRN	___std_exception_copy:PROC
EXTRN	___std_exception_destroy:PROC
EXTRN	??_Eexception@std@@UAEPAXI@Z:PROC		; std::exception::`vector deleting destructor'
EXTRN	??_Ebad_alloc@std@@UAEPAXI@Z:PROC		; std::bad_alloc::`vector deleting destructor'
EXTRN	??_Ebad_array_new_length@std@@UAEPAXI@Z:PROC	; std::bad_array_new_length::`vector deleting destructor'
EXTRN	?_Xlength_error@std@@YAXPBD@Z:PROC		; std::_Xlength_error
EXTRN	?GetType@CGrannyMaterial@@QBE?AW4EType@1@XZ:PROC ; CGrannyMaterial::GetType
EXTRN	?RegisterMaterial@CGrannyMaterialPalette@@QAEKPAUgranny_material@@@Z:PROC ; CGrannyMaterialPalette::RegisterMaterial
EXTRN	?GetMaterialRef@CGrannyMaterialPalette@@QAEAAVCGrannyMaterial@@K@Z:PROC ; CGrannyMaterialPalette::GetMaterialRef
EXTRN	??_ECGrannyMesh@@UAEPAXI@Z:PROC			; CGrannyMesh::`vector deleting destructor'
EXTRN	__CxxThrowException@8:PROC
EXTRN	_memmove:PROC
EXTRN	__imp__GrannyPNT332VertexType:DWORD
EXTRN	??_7type_info@@6B@:QWORD			; type_info::`vftable'
;	COMDAT ??_R1A@?0A@EA@CGrannyMesh@@8
rdata$r	SEGMENT
??_R1A@?0A@EA@CGrannyMesh@@8 DD FLAT:??_R0?AVCGrannyMesh@@@8 ; CGrannyMesh::`RTTI Base Class Descriptor at (0,-1,0,64)'
	DD	00H
	DD	00H
	DD	0ffffffffH
	DD	00H
	DD	040H
	DD	FLAT:??_R3CGrannyMesh@@8
rdata$r	ENDS
;	COMDAT ??_R2CGrannyMesh@@8
rdata$r	SEGMENT
??_R2CGrannyMesh@@8 DD FLAT:??_R1A@?0A@EA@CGrannyMesh@@8 ; CGrannyMesh::`RTTI Base Class Array'
rdata$r	ENDS
;	COMDAT ??_R3CGrannyMesh@@8
rdata$r	SEGMENT
??_R3CGrannyMesh@@8 DD 00H				; CGrannyMesh::`RTTI Class Hierarchy Descriptor'
	DD	00H
	DD	01H
	DD	FLAT:??_R2CGrannyMesh@@8
rdata$r	ENDS
;	COMDAT ??_R0?AVCGrannyMesh@@@8
data$rs	SEGMENT
??_R0?AVCGrannyMesh@@@8 DD FLAT:??_7type_info@@6B@	; CGrannyMesh `RTTI Type Descriptor'
	DD	00H
	DB	'.?AVCGrannyMesh@@', 00H
data$rs	ENDS
;	COMDAT ??_R4CGrannyMesh@@6B@
rdata$r	SEGMENT
??_R4CGrannyMesh@@6B@ DD 00H				; CGrannyMesh::`RTTI Complete Object Locator'
	DD	00H
	DD	00H
	DD	FLAT:??_R0?AVCGrannyMesh@@@8
	DD	FLAT:??_R3CGrannyMesh@@8
rdata$r	ENDS
;	COMDAT ??_R1A@?0A@EA@bad_array_new_length@std@@8
rdata$r	SEGMENT
??_R1A@?0A@EA@bad_array_new_length@std@@8 DD FLAT:??_R0?AVbad_array_new_length@std@@@8 ; std::bad_array_new_length::`RTTI Base Class Descriptor at (0,-1,0,64)'
	DD	02H
	DD	00H
	DD	0ffffffffH
	DD	00H
	DD	040H
	DD	FLAT:??_R3bad_array_new_length@std@@8
rdata$r	ENDS
;	COMDAT ??_R2bad_array_new_length@std@@8
rdata$r	SEGMENT
??_R2bad_array_new_length@std@@8 DD FLAT:??_R1A@?0A@EA@bad_array_new_length@std@@8 ; std::bad_array_new_length::`RTTI Base Class Array'
	DD	FLAT:??_R1A@?0A@EA@bad_alloc@std@@8
	DD	FLAT:??_R1A@?0A@EA@exception@std@@8
rdata$r	ENDS
;	COMDAT ??_R3bad_array_new_length@std@@8
rdata$r	SEGMENT
??_R3bad_array_new_length@std@@8 DD 00H			; std::bad_array_new_length::`RTTI Class Hierarchy Descriptor'
	DD	00H
	DD	03H
	DD	FLAT:??_R2bad_array_new_length@std@@8
rdata$r	ENDS
;	COMDAT ??_R4bad_array_new_length@std@@6B@
rdata$r	SEGMENT
??_R4bad_array_new_length@std@@6B@ DD 00H		; std::bad_array_new_length::`RTTI Complete Object Locator'
	DD	00H
	DD	00H
	DD	FLAT:??_R0?AVbad_array_new_length@std@@@8
	DD	FLAT:??_R3bad_array_new_length@std@@8
rdata$r	ENDS
;	COMDAT ??_R1A@?0A@EA@bad_alloc@std@@8
rdata$r	SEGMENT
??_R1A@?0A@EA@bad_alloc@std@@8 DD FLAT:??_R0?AVbad_alloc@std@@@8 ; std::bad_alloc::`RTTI Base Class Descriptor at (0,-1,0,64)'
	DD	01H
	DD	00H
	DD	0ffffffffH
	DD	00H
	DD	040H
	DD	FLAT:??_R3bad_alloc@std@@8
rdata$r	ENDS
;	COMDAT ??_R2bad_alloc@std@@8
rdata$r	SEGMENT
??_R2bad_alloc@std@@8 DD FLAT:??_R1A@?0A@EA@bad_alloc@std@@8 ; std::bad_alloc::`RTTI Base Class Array'
	DD	FLAT:??_R1A@?0A@EA@exception@std@@8
rdata$r	ENDS
;	COMDAT ??_R3bad_alloc@std@@8
rdata$r	SEGMENT
??_R3bad_alloc@std@@8 DD 00H				; std::bad_alloc::`RTTI Class Hierarchy Descriptor'
	DD	00H
	DD	02H
	DD	FLAT:??_R2bad_alloc@std@@8
rdata$r	ENDS
;	COMDAT ??_R4bad_alloc@std@@6B@
rdata$r	SEGMENT
??_R4bad_alloc@std@@6B@ DD 00H				; std::bad_alloc::`RTTI Complete Object Locator'
	DD	00H
	DD	00H
	DD	FLAT:??_R0?AVbad_alloc@std@@@8
	DD	FLAT:??_R3bad_alloc@std@@8
rdata$r	ENDS
;	COMDAT ??_R1A@?0A@EA@exception@std@@8
rdata$r	SEGMENT
??_R1A@?0A@EA@exception@std@@8 DD FLAT:??_R0?AVexception@std@@@8 ; std::exception::`RTTI Base Class Descriptor at (0,-1,0,64)'
	DD	00H
	DD	00H
	DD	0ffffffffH
	DD	00H
	DD	040H
	DD	FLAT:??_R3exception@std@@8
rdata$r	ENDS
;	COMDAT ??_R2exception@std@@8
rdata$r	SEGMENT
??_R2exception@std@@8 DD FLAT:??_R1A@?0A@EA@exception@std@@8 ; std::exception::`RTTI Base Class Array'
rdata$r	ENDS
;	COMDAT ??_R3exception@std@@8
rdata$r	SEGMENT
??_R3exception@std@@8 DD 00H				; std::exception::`RTTI Class Hierarchy Descriptor'
	DD	00H
	DD	01H
	DD	FLAT:??_R2exception@std@@8
rdata$r	ENDS
;	COMDAT ??_R4exception@std@@6B@
rdata$r	SEGMENT
??_R4exception@std@@6B@ DD 00H				; std::exception::`RTTI Complete Object Locator'
	DD	00H
	DD	00H
	DD	FLAT:??_R0?AVexception@std@@@8
	DD	FLAT:??_R3exception@std@@8
rdata$r	ENDS
;	COMDAT ??_C@_0BA@FOIKENOD@vector?5too?5long@
CONST	SEGMENT
??_C@_0BA@FOIKENOD@vector?5too?5long@ DB 'vector too long', 00H ; `string'
CONST	ENDS
;	COMDAT ??_C@_02MALHOEON@2x@
CONST	SEGMENT
??_C@_02MALHOEON@2x@ DB '2x', 00H			; `string'
CONST	ENDS
;	COMDAT ??_7CGrannyMesh@@6B@
CONST	SEGMENT
??_7CGrannyMesh@@6B@ DD FLAT:??_R4CGrannyMesh@@6B@	; CGrannyMesh::`vftable'
	DD	FLAT:??_ECGrannyMesh@@UAEPAXI@Z
CONST	ENDS
;	COMDAT __CT??_R0?AVexception@std@@@8??0exception@std@@QAE@ABV01@@Z12
xdata$x	SEGMENT
__CT??_R0?AVexception@std@@@8??0exception@std@@QAE@ABV01@@Z12 DD 00H
	DD	FLAT:??_R0?AVexception@std@@@8
	DD	00H
	DD	0ffffffffH
	ORG $+4
	DD	0cH
	DD	FLAT:??0exception@std@@QAE@ABV01@@Z
xdata$x	ENDS
;	COMDAT ??_R0?AVexception@std@@@8
data$r	SEGMENT
??_R0?AVexception@std@@@8 DD FLAT:??_7type_info@@6B@	; std::exception `RTTI Type Descriptor'
	DD	00H
	DB	'.?AVexception@std@@', 00H
data$r	ENDS
;	COMDAT __CT??_R0?AVbad_alloc@std@@@8??0bad_alloc@std@@QAE@ABV01@@Z12
xdata$x	SEGMENT
__CT??_R0?AVbad_alloc@std@@@8??0bad_alloc@std@@QAE@ABV01@@Z12 DD 010H
	DD	FLAT:??_R0?AVbad_alloc@std@@@8
	DD	00H
	DD	0ffffffffH
	ORG $+4
	DD	0cH
	DD	FLAT:??0bad_alloc@std@@QAE@ABV01@@Z
xdata$x	ENDS
;	COMDAT ??_R0?AVbad_alloc@std@@@8
data$r	SEGMENT
??_R0?AVbad_alloc@std@@@8 DD FLAT:??_7type_info@@6B@	; std::bad_alloc `RTTI Type Descriptor'
	DD	00H
	DB	'.?AVbad_alloc@std@@', 00H
data$r	ENDS
;	COMDAT __CT??_R0?AVbad_array_new_length@std@@@8??0bad_array_new_length@std@@QAE@ABV01@@Z12
xdata$x	SEGMENT
__CT??_R0?AVbad_array_new_length@std@@@8??0bad_array_new_length@std@@QAE@ABV01@@Z12 DD 00H
	DD	FLAT:??_R0?AVbad_array_new_length@std@@@8
	DD	00H
	DD	0ffffffffH
	ORG $+4
	DD	0cH
	DD	FLAT:??0bad_array_new_length@std@@QAE@ABV01@@Z
xdata$x	ENDS
;	COMDAT ??_R0?AVbad_array_new_length@std@@@8
data$r	SEGMENT
??_R0?AVbad_array_new_length@std@@@8 DD FLAT:??_7type_info@@6B@ ; std::bad_array_new_length `RTTI Type Descriptor'
	DD	00H
	DB	'.?AVbad_array_new_length@std@@', 00H
data$r	ENDS
;	COMDAT __CTA3?AVbad_array_new_length@std@@
xdata$x	SEGMENT
__CTA3?AVbad_array_new_length@std@@ DD 03H
	DD	FLAT:__CT??_R0?AVbad_array_new_length@std@@@8??0bad_array_new_length@std@@QAE@ABV01@@Z12
	DD	FLAT:__CT??_R0?AVbad_alloc@std@@@8??0bad_alloc@std@@QAE@ABV01@@Z12
	DD	FLAT:__CT??_R0?AVexception@std@@@8??0exception@std@@QAE@ABV01@@Z12
xdata$x	ENDS
;	COMDAT __TI3?AVbad_array_new_length@std@@
xdata$x	SEGMENT
__TI3?AVbad_array_new_length@std@@ DD 00H
	DD	FLAT:??1bad_array_new_length@std@@UAE@XZ
	DD	00H
	DD	FLAT:__CTA3?AVbad_array_new_length@std@@
xdata$x	ENDS
;	COMDAT ??_C@_0BF@KINCDENJ@bad?5array?5new?5length@
CONST	SEGMENT
??_C@_0BF@KINCDENJ@bad?5array?5new?5length@ DB 'bad array new length', 00H ; `string'
CONST	ENDS
;	COMDAT ??_7bad_array_new_length@std@@6B@
CONST	SEGMENT
??_7bad_array_new_length@std@@6B@ DD FLAT:??_R4bad_array_new_length@std@@6B@ ; std::bad_array_new_length::`vftable'
	DD	FLAT:??_Ebad_array_new_length@std@@UAEPAXI@Z
	DD	FLAT:?what@exception@std@@UBEPBDXZ
CONST	ENDS
;	COMDAT ??_7bad_alloc@std@@6B@
CONST	SEGMENT
??_7bad_alloc@std@@6B@ DD FLAT:??_R4bad_alloc@std@@6B@	; std::bad_alloc::`vftable'
	DD	FLAT:??_Ebad_alloc@std@@UAEPAXI@Z
	DD	FLAT:?what@exception@std@@UBEPBDXZ
CONST	ENDS
;	COMDAT ??_C@_0BC@EOODALEL@Unknown?5exception@
CONST	SEGMENT
??_C@_0BC@EOODALEL@Unknown?5exception@ DB 'Unknown exception', 00H ; `string'
CONST	ENDS
;	COMDAT ??_7exception@std@@6B@
CONST	SEGMENT
??_7exception@std@@6B@ DD FLAT:??_R4exception@std@@6B@	; std::exception::`vftable'
	DD	FLAT:??_Eexception@std@@UAEPAXI@Z
	DD	FLAT:?what@exception@std@@UBEPBDXZ
CONST	ENDS
; Function compile flags: /Ogtp
; File C:\Program Files\Microsoft Visual Studio\2022\Community\VC\Tools\MSVC\14.34.31933\include\xutility
;	COMDAT ??$_Copy_memmove@PAKPAK@std@@YAPAKPAK00@Z
_TEXT	SEGMENT
__First$ = 8						; size = 4
__Last$ = 12						; size = 4
__Dest$ = 16						; size = 4
??$_Copy_memmove@PAKPAK@std@@YAPAKPAK00@Z PROC		; std::_Copy_memmove<unsigned long *,unsigned long *>, COMDAT

; 3833 : _OutCtgIt _Copy_memmove(_CtgIt _First, _CtgIt _Last, _OutCtgIt _Dest) {

  00000	55		 push	 ebp
  00001	8b ec		 mov	 ebp, esp

; 3834 :     auto _FirstPtr              = _To_address(_First);
; 3835 :     auto _LastPtr               = _To_address(_Last);
; 3836 :     auto _DestPtr               = _To_address(_Dest);
; 3837 :     const char* const _First_ch = const_cast<const char*>(reinterpret_cast<const volatile char*>(_FirstPtr));
; 3838 :     const char* const _Last_ch  = const_cast<const char*>(reinterpret_cast<const volatile char*>(_LastPtr));
; 3839 :     char* const _Dest_ch        = const_cast<char*>(reinterpret_cast<const volatile char*>(_DestPtr));
; 3840 :     const auto _Count           = static_cast<size_t>(_Last_ch - _First_ch);

  00003	8b 45 08	 mov	 eax, DWORD PTR __First$[ebp]
  00006	56		 push	 esi

; 3841 :     _CSTD memmove(_Dest_ch, _First_ch, _Count);

  00007	8b 75 10	 mov	 esi, DWORD PTR __Dest$[ebp]
  0000a	57		 push	 edi
  0000b	8b 7d 0c	 mov	 edi, DWORD PTR __Last$[ebp]
  0000e	2b f8		 sub	 edi, eax
  00010	57		 push	 edi
  00011	50		 push	 eax
  00012	56		 push	 esi
  00013	e8 00 00 00 00	 call	 _memmove
  00018	83 c4 0c	 add	 esp, 12			; 0000000cH

; 3842 :     if constexpr (is_pointer_v<_OutCtgIt>) {
; 3843 :         return reinterpret_cast<_OutCtgIt>(_Dest_ch + _Count);

  0001b	8d 04 37	 lea	 eax, DWORD PTR [edi+esi]
  0001e	5f		 pop	 edi
  0001f	5e		 pop	 esi

; 3844 :     } else {
; 3845 :         return _Dest + (_LastPtr - _FirstPtr);
; 3846 :     }
; 3847 : }

  00020	5d		 pop	 ebp
  00021	c3		 ret	 0
??$_Copy_memmove@PAKPAK@std@@YAPAKPAK00@Z ENDP		; std::_Copy_memmove<unsigned long *,unsigned long *>
_TEXT	ENDS
; Function compile flags: /Ogtp
; File C:\Program Files\Microsoft Visual Studio\2022\Community\VC\Tools\MSVC\14.34.31933\include\xmemory
;	COMDAT ??$_Allocate_manually_vector_aligned@U_Default_allocate_traits@std@@@std@@YAPAXI@Z
_TEXT	SEGMENT
__Bytes$ = 8						; size = 4
??$_Allocate_manually_vector_aligned@U_Default_allocate_traits@std@@@std@@YAPAXI@Z PROC ; std::_Allocate_manually_vector_aligned<std::_Default_allocate_traits>, COMDAT

; 127  : __declspec(allocator) void* _Allocate_manually_vector_aligned(const size_t _Bytes) {

  00000	55		 push	 ebp
  00001	8b ec		 mov	 ebp, esp

; 128  :     // allocate _Bytes manually aligned to at least _Big_allocation_alignment
; 129  :     const size_t _Block_size = _Non_user_size + _Bytes;

  00003	8b 45 08	 mov	 eax, DWORD PTR __Bytes$[ebp]
  00006	8d 48 23	 lea	 ecx, DWORD PTR [eax+35]

; 130  :     if (_Block_size <= _Bytes) {

  00009	3b c8		 cmp	 ecx, eax
  0000b	0f 86 00 00 00
	00		 jbe	 ?_Throw_bad_array_new_length@std@@YAXXZ ; std::_Throw_bad_array_new_length

; 77   :         return ::operator new(_Bytes);

  00011	51		 push	 ecx
  00012	e8 00 00 00 00	 call	 ??2@YAPAXI@Z		; operator new

; 131  :         _Throw_bad_array_new_length(); // add overflow
; 132  :     }
; 133  : 
; 134  :     const uintptr_t _Ptr_container = reinterpret_cast<uintptr_t>(_Traits::_Allocate(_Block_size));

  00017	8b c8		 mov	 ecx, eax

; 77   :         return ::operator new(_Bytes);

  00019	83 c4 04	 add	 esp, 4

; 135  :     _STL_VERIFY(_Ptr_container != 0, "invalid argument"); // validate even in release since we're doing p[-1]

  0001c	85 c9		 test	 ecx, ecx
  0001e	74 0b		 je	 SHORT $LN7@Allocate_m

; 136  :     void* const _Ptr = reinterpret_cast<void*>((_Ptr_container + _Non_user_size) & ~(_Big_allocation_alignment - 1));

  00020	8d 41 23	 lea	 eax, DWORD PTR [ecx+35]
  00023	83 e0 e0	 and	 eax, -32		; ffffffe0H

; 137  :     static_cast<uintptr_t*>(_Ptr)[-1] = _Ptr_container;

  00026	89 48 fc	 mov	 DWORD PTR [eax-4], ecx

; 138  : 
; 139  : #ifdef _DEBUG
; 140  :     static_cast<uintptr_t*>(_Ptr)[-2] = _Big_allocation_sentinel;
; 141  : #endif // _DEBUG
; 142  :     return _Ptr;
; 143  : }

  00029	5d		 pop	 ebp
  0002a	c3		 ret	 0
$LN7@Allocate_m:

; 135  :     _STL_VERIFY(_Ptr_container != 0, "invalid argument"); // validate even in release since we're doing p[-1]

  0002b	e9 00 00 00 00	 jmp	 __invalid_parameter_noinfo_noreturn
??$_Allocate_manually_vector_aligned@U_Default_allocate_traits@std@@@std@@YAPAXI@Z ENDP ; std::_Allocate_manually_vector_aligned<std::_Default_allocate_traits>
_TEXT	ENDS
; Function compile flags: /Ogtp
; File C:\Program Files\Microsoft Visual Studio\2022\Community\VC\Tools\MSVC\14.34.31933\include\vector
; File C:\Program Files\Microsoft Visual Studio\2022\Community\VC\Tools\MSVC\14.34.31933\include\xmemory
; File C:\Program Files\Microsoft Visual Studio\2022\Community\VC\Tools\MSVC\14.34.31933\include\vector
; File C:\Program Files\Microsoft Visual Studio\2022\Community\VC\Tools\MSVC\14.34.31933\include\xmemory
; File C:\Program Files\Microsoft Visual Studio\2022\Community\VC\Tools\MSVC\14.34.31933\include\vector
; File C:\Program Files\Microsoft Visual Studio\2022\Community\VC\Tools\MSVC\14.34.31933\include\xmemory
; File C:\Program Files\Microsoft Visual Studio\2022\Community\VC\Tools\MSVC\14.34.31933\include\vector
; File C:\Program Files\Microsoft Visual Studio\2022\Community\VC\Tools\MSVC\14.34.31933\include\xmemory
; File C:\Program Files\Microsoft Visual Studio\2022\Community\VC\Tools\MSVC\14.34.31933\include\vector
; File C:\Program Files\Microsoft Visual Studio\2022\Community\VC\Tools\MSVC\14.34.31933\include\xmemory
; File C:\Program Files\Microsoft Visual Studio\2022\Community\VC\Tools\MSVC\14.34.31933\include\vector
; File C:\Program Files\Microsoft Visual Studio\2022\Community\VC\Tools\MSVC\14.34.31933\include\xmemory
; File C:\Program Files\Microsoft Visual Studio\2022\Community\VC\Tools\MSVC\14.34.31933\include\vector
; File C:\Program Files\Microsoft Visual Studio\2022\Community\VC\Tools\MSVC\14.34.31933\include\xmemory
; File C:\Program Files\Microsoft Visual Studio\2022\Community\VC\Tools\MSVC\14.34.31933\include\vector
; File C:\Program Files\Microsoft Visual Studio\2022\Community\VC\Tools\MSVC\14.34.31933\include\xmemory
; File C:\Program Files\Microsoft Visual Studio\2022\Community\VC\Tools\MSVC\14.34.31933\include\vector
; File C:\Program Files\Microsoft Visual Studio\2022\Community\VC\Tools\MSVC\14.34.31933\include\xmemory
; File C:\Program Files\Microsoft Visual Studio\2022\Community\VC\Tools\MSVC\14.34.31933\include\vector
;	COMDAT ??$_Emplace_reallocate@ABK@?$vector@KV?$allocator@K@std@@@std@@AAEPAKQAKABK@Z
_TEXT	SEGMENT
__Newsize$1$ = -12					; size = 4
tv639 = -8						; size = 4
tv622 = -4						; size = 4
__Whereptr$ = 8						; size = 4
_<_Val_0>$ = 12						; size = 4
??$_Emplace_reallocate@ABK@?$vector@KV?$allocator@K@std@@@std@@AAEPAKQAKABK@Z PROC ; std::vector<unsigned long,std::allocator<unsigned long> >::_Emplace_reallocate<unsigned long const &>, COMDAT
; _this$ = ecx

; 875  :     _CONSTEXPR20 pointer _Emplace_reallocate(const pointer _Whereptr, _Valty&&... _Val) {

  00000	55		 push	 ebp
  00001	8b ec		 mov	 ebp, esp
  00003	83 ec 0c	 sub	 esp, 12			; 0000000cH
  00006	53		 push	 ebx

; 876  :         // reallocate and insert by perfectly forwarding _Val at _Whereptr
; 877  :         _Alty& _Al        = _Getal();
; 878  :         auto& _My_data    = _Mypair._Myval2;
; 879  :         pointer& _Myfirst = _My_data._Myfirst;
; 880  :         pointer& _Mylast  = _My_data._Mylast;
; 881  : 
; 882  :         _STL_INTERNAL_CHECK(_Mylast == _My_data._Myend); // check that we have no unused capacity
; 883  : 
; 884  :         const auto _Whereoff = static_cast<size_type>(_Whereptr - _Myfirst);

  00007	8b 5d 08	 mov	 ebx, DWORD PTR __Whereptr$[ebp]
  0000a	56		 push	 esi
  0000b	8b f1		 mov	 esi, ecx
  0000d	57		 push	 edi
  0000e	8b 0e		 mov	 ecx, DWORD PTR [esi]
  00010	2b d9		 sub	 ebx, ecx

; 885  :         const auto _Oldsize  = static_cast<size_type>(_Mylast - _Myfirst);

  00012	8b 46 04	 mov	 eax, DWORD PTR [esi+4]
  00015	2b c1		 sub	 eax, ecx
  00017	c1 fb 02	 sar	 ebx, 2
  0001a	c1 f8 02	 sar	 eax, 2

; 886  : 
; 887  :         if (_Oldsize == max_size()) {

  0001d	3d ff ff ff 3f	 cmp	 eax, 1073741823		; 3fffffffH
  00022	0f 84 0f 01 00
	00		 je	 $LN88@Emplace_re

; 1942 :         return static_cast<size_type>(_My_data._Myend - _My_data._Myfirst);

  00028	8b 56 08	 mov	 edx, DWORD PTR [esi+8]

; 889  :         }
; 890  : 
; 891  :         const size_type _Newsize     = _Oldsize + 1;

  0002b	8d 78 01	 lea	 edi, DWORD PTR [eax+1]

; 1942 :         return static_cast<size_type>(_My_data._Myend - _My_data._Myfirst);

  0002e	2b d1		 sub	 edx, ecx

; 889  :         }
; 890  : 
; 891  :         const size_type _Newsize     = _Oldsize + 1;

  00030	89 7d f4	 mov	 DWORD PTR __Newsize$1$[ebp], edi

; 1942 :         return static_cast<size_type>(_My_data._Myend - _My_data._Myfirst);

  00033	c1 fa 02	 sar	 edx, 2

; 2029 :         if (_Oldcapacity > _Max - _Oldcapacity / 2) {

  00036	b8 ff ff ff 3f	 mov	 eax, 1073741823		; 3fffffffH
  0003b	8b ca		 mov	 ecx, edx
  0003d	d1 e9		 shr	 ecx, 1
  0003f	2b c1		 sub	 eax, ecx
  00041	3b d0		 cmp	 edx, eax
  00043	76 15		 jbe	 SHORT $LN12@Emplace_re

; 2030 :             return _Max; // geometric growth would overflow

  00045	b8 fc ff ff ff	 mov	 eax, -4			; fffffffcH
; File C:\Program Files\Microsoft Visual Studio\2022\Community\VC\Tools\MSVC\14.34.31933\include\xmemory

; 229  :             return _Allocate_manually_vector_aligned<_Traits>(_Bytes);

  0004a	50		 push	 eax
; File C:\Program Files\Microsoft Visual Studio\2022\Community\VC\Tools\MSVC\14.34.31933\include\vector

; 2030 :             return _Max; // geometric growth would overflow

  0004b	89 45 f8	 mov	 DWORD PTR tv639[ebp], eax
; File C:\Program Files\Microsoft Visual Studio\2022\Community\VC\Tools\MSVC\14.34.31933\include\xmemory

; 229  :             return _Allocate_manually_vector_aligned<_Traits>(_Bytes);

  0004e	e8 00 00 00 00	 call	 ??$_Allocate_manually_vector_aligned@U_Default_allocate_traits@std@@@std@@YAPAXI@Z ; std::_Allocate_manually_vector_aligned<std::_Default_allocate_traits>
  00053	83 c4 04	 add	 esp, 4
  00056	8b f8		 mov	 edi, eax
  00058	eb 47		 jmp	 SHORT $LN23@Emplace_re
$LN12@Emplace_re:
; File C:\Program Files\Microsoft Visual Studio\2022\Community\VC\Tools\MSVC\14.34.31933\include\vector

; 2033 :         const size_type _Geometric = _Oldcapacity + _Oldcapacity / 2;

  0005a	8d 04 11	 lea	 eax, DWORD PTR [ecx+edx]
; File C:\Program Files\Microsoft Visual Studio\2022\Community\VC\Tools\MSVC\14.34.31933\include\xmemory

; 60   :         if (_Count > _Max_possible) {

  0005d	8b cf		 mov	 ecx, edi
  0005f	3b c7		 cmp	 eax, edi
  00061	0f 43 c8	 cmovae	 ecx, eax
  00064	81 f9 ff ff ff
	3f		 cmp	 ecx, 1073741823		; 3fffffffH
  0006a	0f 87 cc 00 00
	00		 ja	 $LN89@Emplace_re

; 62   :         }
; 63   :     }
; 64   : 
; 65   :     return _Count * _Ty_size;

  00070	8d 04 8d 00 00
	00 00		 lea	 eax, DWORD PTR [ecx*4]
  00077	89 45 f8	 mov	 DWORD PTR tv639[ebp], eax

; 228  :         if (_Bytes >= _Big_allocation_threshold) { // boost the alignment of big allocations to help autovectorization

  0007a	3d 00 10 00 00	 cmp	 eax, 4096		; 00001000H
  0007f	72 0d		 jb	 SHORT $LN24@Emplace_re

; 229  :             return _Allocate_manually_vector_aligned<_Traits>(_Bytes);

  00081	50		 push	 eax
  00082	e8 00 00 00 00	 call	 ??$_Allocate_manually_vector_aligned@U_Default_allocate_traits@std@@@std@@YAPAXI@Z ; std::_Allocate_manually_vector_aligned<std::_Default_allocate_traits>
  00087	83 c4 04	 add	 esp, 4
  0008a	8b f8		 mov	 edi, eax
  0008c	eb 13		 jmp	 SHORT $LN23@Emplace_re
$LN24@Emplace_re:

; 230  :         }
; 231  :     }
; 232  : #endif // defined(_M_IX86) || defined(_M_X64)
; 233  : 
; 234  :     if (_Bytes != 0) {

  0008e	85 c0		 test	 eax, eax
  00090	74 0d		 je	 SHORT $LN25@Emplace_re

; 77   :         return ::operator new(_Bytes);

  00092	50		 push	 eax
  00093	e8 00 00 00 00	 call	 ??2@YAPAXI@Z		; operator new
  00098	83 c4 04	 add	 esp, 4

; 235  :         return _Traits::_Allocate(_Bytes);

  0009b	8b f8		 mov	 edi, eax
  0009d	eb 02		 jmp	 SHORT $LN23@Emplace_re
$LN25@Emplace_re:

; 236  :     }
; 237  : 
; 238  :     return nullptr;

  0009f	33 ff		 xor	 edi, edi
$LN23@Emplace_re:
; File C:\Program Files\Microsoft Visual Studio\2022\Community\VC\Tools\MSVC\14.34.31933\include\vector

; 899  :         _Alty_traits::construct(_Al, _Unfancy(_Newvec + _Whereoff), _STD forward<_Valty>(_Val)...);

  000a1	8b 45 0c	 mov	 eax, DWORD PTR _<_Val_0>$[ebp]
  000a4	8d 0c 9f	 lea	 ecx, DWORD PTR [edi+ebx*4]

; 900  :         _Constructed_first = _Newvec + _Whereoff;
; 901  : 
; 902  :         if (_Whereptr == _Mylast) { // at back, provide strong guarantee

  000a7	8b 5d 08	 mov	 ebx, DWORD PTR __Whereptr$[ebp]
  000aa	89 4d fc	 mov	 DWORD PTR tv622[ebp], ecx
  000ad	8b 00		 mov	 eax, DWORD PTR [eax]
  000af	89 01		 mov	 DWORD PTR [ecx], eax
  000b1	8b 46 04	 mov	 eax, DWORD PTR [esi+4]
  000b4	8b 0e		 mov	 ecx, DWORD PTR [esi]
  000b6	3b d8		 cmp	 ebx, eax
  000b8	75 07		 jne	 SHORT $LN4@Emplace_re

; 908  :         } else { // provide basic guarantee

  000ba	8b 5d fc	 mov	 ebx, DWORD PTR tv622[ebp]
; File C:\Program Files\Microsoft Visual Studio\2022\Community\VC\Tools\MSVC\14.34.31933\include\xmemory

; 1800 :             _Copy_memmove(_UFirst, _ULast, _Unfancy(_Dest));

  000bd	8b d7		 mov	 edx, edi
; File C:\Program Files\Microsoft Visual Studio\2022\Community\VC\Tools\MSVC\14.34.31933\include\vector

; 908  :         } else { // provide basic guarantee

  000bf	eb 16		 jmp	 SHORT $LN73@Emplace_re
$LN4@Emplace_re:
; File C:\Program Files\Microsoft Visual Studio\2022\Community\VC\Tools\MSVC\14.34.31933\include\xmemory

; 1800 :             _Copy_memmove(_UFirst, _ULast, _Unfancy(_Dest));

  000c1	57		 push	 edi
  000c2	53		 push	 ebx
  000c3	51		 push	 ecx
  000c4	e8 00 00 00 00	 call	 ??$_Copy_memmove@PAKPAK@std@@YAPAKPAK00@Z ; std::_Copy_memmove<unsigned long *,unsigned long *>
  000c9	8b 46 04	 mov	 eax, DWORD PTR [esi+4]
  000cc	8b cb		 mov	 ecx, ebx
; File C:\Program Files\Microsoft Visual Studio\2022\Community\VC\Tools\MSVC\14.34.31933\include\vector

; 911  :             _Uninitialized_move(_Whereptr, _Mylast, _Newvec + _Whereoff + 1, _Al);

  000ce	8b 5d fc	 mov	 ebx, DWORD PTR tv622[ebp]
; File C:\Program Files\Microsoft Visual Studio\2022\Community\VC\Tools\MSVC\14.34.31933\include\xmemory

; 1800 :             _Copy_memmove(_UFirst, _ULast, _Unfancy(_Dest));

  000d1	83 c4 0c	 add	 esp, 12			; 0000000cH
; File C:\Program Files\Microsoft Visual Studio\2022\Community\VC\Tools\MSVC\14.34.31933\include\vector

; 911  :             _Uninitialized_move(_Whereptr, _Mylast, _Newvec + _Whereoff + 1, _Al);

  000d4	8d 53 04	 lea	 edx, DWORD PTR [ebx+4]
$LN73@Emplace_re:
  000d7	52		 push	 edx
  000d8	50		 push	 eax
  000d9	51		 push	 ecx
  000da	e8 00 00 00 00	 call	 ??$_Copy_memmove@PAKPAK@std@@YAPAKPAK00@Z ; std::_Copy_memmove<unsigned long *,unsigned long *>

; 2086 :         if (_Myfirst) { // destroy and deallocate old array

  000df	8b 06		 mov	 eax, DWORD PTR [esi]

; 911  :             _Uninitialized_move(_Whereptr, _Mylast, _Newvec + _Whereoff + 1, _Al);

  000e1	83 c4 0c	 add	 esp, 12			; 0000000cH

; 2086 :         if (_Myfirst) { // destroy and deallocate old array

  000e4	85 c0		 test	 eax, eax
  000e6	74 2c		 je	 SHORT $LN37@Emplace_re

; 2087 :             _Destroy_range(_Myfirst, _Mylast, _Al);
; 2088 :             _ASAN_VECTOR_REMOVE;
; 2089 :             _Al.deallocate(_Myfirst, static_cast<size_type>(_Myend - _Myfirst));

  000e8	8b 4e 08	 mov	 ecx, DWORD PTR [esi+8]
  000eb	2b c8		 sub	 ecx, eax
; File C:\Program Files\Microsoft Visual Studio\2022\Community\VC\Tools\MSVC\14.34.31933\include\xmemory

; 830  :         _Deallocate<_New_alignof<_Ty>>(_Ptr, sizeof(_Ty) * _Count);

  000ed	83 e1 fc	 and	 ecx, -4			; fffffffcH

; 251  :         if (_Bytes >= _Big_allocation_threshold) { // boost the alignment of big allocations to help autovectorization

  000f0	81 f9 00 10 00
	00		 cmp	 ecx, 4096		; 00001000H
  000f6	72 12		 jb	 SHORT $LN47@Emplace_re

; 150  :     const uintptr_t _Ptr_container   = _Ptr_user[-1];

  000f8	8b 50 fc	 mov	 edx, DWORD PTR [eax-4]
  000fb	83 c1 23	 add	 ecx, 35			; 00000023H

; 151  : 
; 152  :     // If the following asserts, it likely means that we are performing
; 153  :     // an aligned delete on memory coming from an unaligned allocation.
; 154  :     _STL_ASSERT(_Ptr_user[-2] == _Big_allocation_sentinel, "invalid argument");
; 155  : 
; 156  :     // Extra paranoia on aligned allocation/deallocation; ensure _Ptr_container is
; 157  :     // in range [_Min_back_shift, _Non_user_size]
; 158  : #ifdef _DEBUG
; 159  :     constexpr uintptr_t _Min_back_shift = 2 * sizeof(void*);
; 160  : #else // ^^^ _DEBUG ^^^ // vvv !_DEBUG vvv
; 161  :     constexpr uintptr_t _Min_back_shift = sizeof(void*);
; 162  : #endif // _DEBUG
; 163  :     const uintptr_t _Back_shift = reinterpret_cast<uintptr_t>(_Ptr) - _Ptr_container;

  000fe	2b c2		 sub	 eax, edx

; 164  :     _STL_VERIFY(_Back_shift >= _Min_back_shift && _Back_shift <= _Non_user_size, "invalid argument");

  00100	83 c0 fc	 add	 eax, -4			; fffffffcH
  00103	83 f8 1f	 cmp	 eax, 31			; 0000001fH
  00106	77 2a		 ja	 SHORT $LN44@Emplace_re

; 165  :     _Ptr = reinterpret_cast<void*>(_Ptr_container);

  00108	8b c2		 mov	 eax, edx
$LN47@Emplace_re:

; 255  :         ::operator delete(_Ptr, _Bytes);

  0010a	51		 push	 ecx
  0010b	50		 push	 eax
  0010c	e8 00 00 00 00	 call	 ??3@YAXPAXI@Z		; operator delete
  00111	83 c4 08	 add	 esp, 8
$LN37@Emplace_re:
; File C:\Program Files\Microsoft Visual Studio\2022\Community\VC\Tools\MSVC\14.34.31933\include\vector

; 2093 :         _Mylast  = _Newvec + _Newsize;

  00114	8b 45 f4	 mov	 eax, DWORD PTR __Newsize$1$[ebp]
  00117	89 3e		 mov	 DWORD PTR [esi], edi
  00119	8d 0c 87	 lea	 ecx, DWORD PTR [edi+eax*4]

; 912  :         }
; 913  :         _CATCH_ALL
; 914  :         _Destroy_range(_Constructed_first, _Constructed_last, _Al);
; 915  :         _Al.deallocate(_Newvec, _Newcapacity);
; 916  :         _RERAISE;
; 917  :         _CATCH_END
; 918  : 
; 919  :         _Change_array(_Newvec, _Newsize, _Newcapacity);
; 920  :         return _Newvec + _Whereoff;

  0011c	8b c3		 mov	 eax, ebx

; 2093 :         _Mylast  = _Newvec + _Newsize;

  0011e	89 4e 04	 mov	 DWORD PTR [esi+4], ecx

; 2094 :         _Myend   = _Newvec + _Newcapacity;

  00121	8b 4d f8	 mov	 ecx, DWORD PTR tv639[ebp]
  00124	03 cf		 add	 ecx, edi

; 912  :         }
; 913  :         _CATCH_ALL
; 914  :         _Destroy_range(_Constructed_first, _Constructed_last, _Al);
; 915  :         _Al.deallocate(_Newvec, _Newcapacity);
; 916  :         _RERAISE;
; 917  :         _CATCH_END
; 918  : 
; 919  :         _Change_array(_Newvec, _Newsize, _Newcapacity);
; 920  :         return _Newvec + _Whereoff;

  00126	5f		 pop	 edi

; 2094 :         _Myend   = _Newvec + _Newcapacity;

  00127	89 4e 08	 mov	 DWORD PTR [esi+8], ecx

; 912  :         }
; 913  :         _CATCH_ALL
; 914  :         _Destroy_range(_Constructed_first, _Constructed_last, _Al);
; 915  :         _Al.deallocate(_Newvec, _Newcapacity);
; 916  :         _RERAISE;
; 917  :         _CATCH_END
; 918  : 
; 919  :         _Change_array(_Newvec, _Newsize, _Newcapacity);
; 920  :         return _Newvec + _Whereoff;

  0012a	5e		 pop	 esi
  0012b	5b		 pop	 ebx

; 921  :     }

  0012c	8b e5		 mov	 esp, ebp
  0012e	5d		 pop	 ebp
  0012f	c2 08 00	 ret	 8
$LN44@Emplace_re:
; File C:\Program Files\Microsoft Visual Studio\2022\Community\VC\Tools\MSVC\14.34.31933\include\xmemory

; 164  :     _STL_VERIFY(_Back_shift >= _Min_back_shift && _Back_shift <= _Non_user_size, "invalid argument");

  00132	e8 00 00 00 00	 call	 __invalid_parameter_noinfo_noreturn
$LN88@Emplace_re:
; File C:\Program Files\Microsoft Visual Studio\2022\Community\VC\Tools\MSVC\14.34.31933\include\vector

; 888  :             _Xlength();

  00137	e8 00 00 00 00	 call	 ?_Xlength@?$vector@KV?$allocator@K@std@@@std@@CAXXZ ; std::vector<unsigned long,std::allocator<unsigned long> >::_Xlength
$LN89@Emplace_re:
; File C:\Program Files\Microsoft Visual Studio\2022\Community\VC\Tools\MSVC\14.34.31933\include\xmemory

; 61   :             _Throw_bad_array_new_length(); // multiply overflow

  0013c	e8 00 00 00 00	 call	 ?_Throw_bad_array_new_length@std@@YAXXZ ; std::_Throw_bad_array_new_length
$LN86@Emplace_re:
  00141	cc		 int	 3
??$_Emplace_reallocate@ABK@?$vector@KV?$allocator@K@std@@@std@@AAEPAKQAKABK@Z ENDP ; std::vector<unsigned long,std::allocator<unsigned long> >::_Emplace_reallocate<unsigned long const &>
_TEXT	ENDS
; Function compile flags: /Ogtp
;	COMDAT ??_GCGrannyMesh@@UAEPAXI@Z
_TEXT	SEGMENT
___flags$ = 8						; size = 4
??_GCGrannyMesh@@UAEPAXI@Z PROC				; CGrannyMesh::`scalar deleting destructor', COMDAT
; _this$ = ecx
  00000	55		 push	 ebp
  00001	8b ec		 mov	 ebp, esp
  00003	56		 push	 esi
  00004	8b f1		 mov	 esi, ecx
  00006	e8 00 00 00 00	 call	 ??1CGrannyMesh@@UAE@XZ	; CGrannyMesh::~CGrannyMesh
  0000b	f6 45 08 01	 test	 BYTE PTR ___flags$[ebp], 1
  0000f	74 0b		 je	 SHORT $LN4@scalar
  00011	6a 38		 push	 56			; 00000038H
  00013	56		 push	 esi
  00014	e8 00 00 00 00	 call	 ??3@YAXPAXI@Z		; operator delete
  00019	83 c4 08	 add	 esp, 8
$LN4@scalar:
  0001c	8b c6		 mov	 eax, esi
  0001e	5e		 pop	 esi
  0001f	5d		 pop	 ebp
  00020	c2 04 00	 ret	 4
??_GCGrannyMesh@@UAEPAXI@Z ENDP				; CGrannyMesh::`scalar deleting destructor'
_TEXT	ENDS
; Function compile flags: /Ogtp
; File C:\Program Files\Microsoft Visual Studio\2022\Community\VC\Tools\MSVC\14.34.31933\include\vector
;	COMDAT ?_Xlength@?$vector@KV?$allocator@K@std@@@std@@CAXXZ
_TEXT	SEGMENT
?_Xlength@?$vector@KV?$allocator@K@std@@@std@@CAXXZ PROC ; std::vector<unsigned long,std::allocator<unsigned long> >::_Xlength, COMDAT

; 2201 :         _Xlength_error("vector too long");

  00000	68 00 00 00 00	 push	 OFFSET ??_C@_0BA@FOIKENOD@vector?5too?5long@
  00005	e8 00 00 00 00	 call	 ?_Xlength_error@std@@YAXPBD@Z ; std::_Xlength_error
$LN3@Xlength:
  0000a	cc		 int	 3
?_Xlength@?$vector@KV?$allocator@K@std@@@std@@CAXXZ ENDP ; std::vector<unsigned long,std::allocator<unsigned long> >::_Xlength
_TEXT	ENDS
; Function compile flags: /Ogtp
; File C:\Users\flourine\Desktop\Xantios\client-src\Code\eterGrnLib\Mesh.cpp
;	COMDAT ?LoadTriGroupNodeList@CGrannyMesh@@IAE_NAAVCGrannyMaterialPalette@@@Z
_TEXT	SEGMENT
_mtrlCount$1$ = -16					; size = 4
_GroupNodeCount$1$ = -12				; size = 4
tv357 = -8						; size = 4
tv356 = -4						; size = 4
_rkMtrlPal$ = 8						; size = 4
?LoadTriGroupNodeList@CGrannyMesh@@IAE_NAAVCGrannyMaterialPalette@@@Z PROC ; CGrannyMesh::LoadTriGroupNodeList, COMDAT
; _this$ = ecx

; 190  : {

  00000	55		 push	 ebp
  00001	8b ec		 mov	 ebp, esp
  00003	83 ec 10	 sub	 esp, 16			; 00000010H
  00006	53		 push	 ebx
  00007	8b d9		 mov	 ebx, ecx
  00009	57		 push	 edi

; 191  : 	assert(m_pgrnMesh != NULL);
; 192  : 	assert(m_triGroupNodes == NULL);
; 193  : 
; 194  : 	int mtrlCount		= m_pgrnMesh->MaterialBindingCount;

  0000a	8b 43 08	 mov	 eax, DWORD PTR [ebx+8]
  0000d	8b 78 14	 mov	 edi, DWORD PTR [eax+20]
  00010	89 7d f0	 mov	 DWORD PTR _mtrlCount$1$[ebp], edi

; 195  : 	if (mtrlCount <= 0)

  00013	85 ff		 test	 edi, edi
  00015	0f 8e b2 00 00
	00		 jle	 $LN19@LoadTriGro

; 196  : 	{
; 197  : 		return true;
; 198  : 	}
; 199  : 
; 200  : 	int GroupNodeCount	= GrannyGetMeshTriangleGroupCount(m_pgrnMesh);

  0001b	50		 push	 eax
  0001c	ff 15 00 00 00
	00		 call	 DWORD PTR __imp__GrannyGetMeshTriangleGroupCount@4
  00022	89 45 f4	 mov	 DWORD PTR _GroupNodeCount$1$[ebp], eax

; 201  : 	if (GroupNodeCount <= 0)

  00025	85 c0		 test	 eax, eax
  00027	0f 8e a0 00 00
	00		 jle	 $LN19@LoadTriGro

; 202  : 	{
; 203  : 		return true;
; 204  : 	}
; 205  : 
; 206  : 	m_triGroupNodes		= new TTriGroupNode[GroupNodeCount];

  0002d	33 c9		 xor	 ecx, ecx
  0002f	ba 10 00 00 00	 mov	 edx, 16			; 00000010H
  00034	f7 e2		 mul	 edx
  00036	0f 90 c1	 seto	 cl
  00039	f7 d9		 neg	 ecx
  0003b	0b c8		 or	 ecx, eax
  0003d	51		 push	 ecx
  0003e	e8 00 00 00 00	 call	 ??_U@YAPAXI@Z		; operator new[]
  00043	83 c4 04	 add	 esp, 4
  00046	89 43 20	 mov	 DWORD PTR [ebx+32], eax

; 207  : 
; 208  : 	const granny_tri_material_group * c_pgrnTriGroups = GrannyGetMeshTriangleGroups(m_pgrnMesh);

  00049	ff 73 08	 push	 DWORD PTR [ebx+8]
  0004c	ff 15 00 00 00
	00		 call	 DWORD PTR __imp__GrannyGetMeshTriangleGroups@4
  00052	33 d2		 xor	 edx, edx
  00054	89 55 f8	 mov	 DWORD PTR tv357[ebp], edx
  00057	56		 push	 esi
  00058	8d 48 08	 lea	 ecx, DWORD PTR [eax+8]
  0005b	89 4d fc	 mov	 DWORD PTR tv356[ebp], ecx
  0005e	66 90		 npad	 2
$LL4@LoadTriGro:

; 209  : 
; 210  : 	for (int g = 0; g < GroupNodeCount; ++g)
; 211  : 	{
; 212  : 		const granny_tri_material_group & c_rgrnTriGroup = c_pgrnTriGroups[g];
; 213  : 		TTriGroupNode * pTriGroupNode = m_triGroupNodes + g;
; 214  : 
; 215  : 		pTriGroupNode->idxPos = m_idxBasePos + c_rgrnTriGroup.TriFirst * 3;

  00060	8b 41 fc	 mov	 eax, DWORD PTR [ecx-4]
  00063	8b 73 20	 mov	 esi, DWORD PTR [ebx+32]
  00066	03 f2		 add	 esi, edx
  00068	8d 04 40	 lea	 eax, DWORD PTR [eax+eax*2]
  0006b	03 43 30	 add	 eax, DWORD PTR [ebx+48]
  0006e	89 46 04	 mov	 DWORD PTR [esi+4], eax

; 216  : 		pTriGroupNode->triCount = c_rgrnTriGroup.TriCount;

  00071	8b 01		 mov	 eax, DWORD PTR [ecx]
  00073	89 46 08	 mov	 DWORD PTR [esi+8], eax

; 217  : 
; 218  : 		int iMtrl = c_rgrnTriGroup.MaterialIndex;

  00076	8b 49 f8	 mov	 ecx, DWORD PTR [ecx-8]

; 219  : 		if (iMtrl < 0 || iMtrl >= mtrlCount)

  00079	85 c9		 test	 ecx, ecx
  0007b	78 0c		 js	 SHORT $LN9@LoadTriGro
  0007d	3b cf		 cmp	 ecx, edi
  0007f	7d 08		 jge	 SHORT $LN9@LoadTriGro

; 222  : 		}
; 223  : 		else
; 224  : 		{
; 225  : 			pTriGroupNode->mtrlIndex = m_mtrlIndexVector[iMtrl];

  00081	8b 43 14	 mov	 eax, DWORD PTR [ebx+20]
  00084	8b 04 88	 mov	 eax, DWORD PTR [eax+ecx*4]
  00087	eb 02		 jmp	 SHORT $LN8@LoadTriGro
$LN9@LoadTriGro:

; 220  : 		{
; 221  : 			pTriGroupNode->mtrlIndex = 0; //m_mtrlIndexVector[iMtrl];

  00089	33 c0		 xor	 eax, eax
$LN8@LoadTriGro:

; 226  : 		}
; 227  : 
; 228  : 		const CGrannyMaterial& rkMtrl = rkMtrlPal.GetMaterialRef(pTriGroupNode->mtrlIndex);

  0008b	8b 4d 08	 mov	 ecx, DWORD PTR _rkMtrlPal$[ebp]
  0008e	50		 push	 eax
  0008f	89 46 0c	 mov	 DWORD PTR [esi+12], eax
  00092	e8 00 00 00 00	 call	 ?GetMaterialRef@CGrannyMaterialPalette@@QAEAAVCGrannyMaterial@@K@Z ; CGrannyMaterialPalette::GetMaterialRef
  00097	8b f8		 mov	 edi, eax

; 229  : 		pTriGroupNode->pNextTriGroupNode		= m_triGroupNodeLists[rkMtrl.GetType()];

  00099	8b cf		 mov	 ecx, edi
  0009b	e8 00 00 00 00	 call	 ?GetType@CGrannyMaterial@@QBE?AW4EType@1@XZ ; CGrannyMaterial::GetType
  000a0	8b 4c 83 24	 mov	 ecx, DWORD PTR [ebx+eax*4+36]
  000a4	89 0e		 mov	 DWORD PTR [esi], ecx

; 230  : 		m_triGroupNodeLists[rkMtrl.GetType()]	= pTriGroupNode;

  000a6	8b cf		 mov	 ecx, edi
  000a8	e8 00 00 00 00	 call	 ?GetType@CGrannyMaterial@@QBE?AW4EType@1@XZ ; CGrannyMaterial::GetType
  000ad	8b 4d fc	 mov	 ecx, DWORD PTR tv356[ebp]
  000b0	8b 55 f8	 mov	 edx, DWORD PTR tv357[ebp]
  000b3	83 c1 0c	 add	 ecx, 12			; 0000000cH
  000b6	8b 7d f0	 mov	 edi, DWORD PTR _mtrlCount$1$[ebp]
  000b9	83 c2 10	 add	 edx, 16			; 00000010H
  000bc	83 6d f4 01	 sub	 DWORD PTR _GroupNodeCount$1$[ebp], 1
  000c0	89 74 83 24	 mov	 DWORD PTR [ebx+eax*4+36], esi
  000c4	89 4d fc	 mov	 DWORD PTR tv356[ebp], ecx
  000c7	89 55 f8	 mov	 DWORD PTR tv357[ebp], edx
  000ca	75 94		 jne	 SHORT $LL4@LoadTriGro

; 231  : 
; 232  : 	}
; 233  : 
; 234  : 	return true;

  000cc	5e		 pop	 esi
$LN19@LoadTriGro:
  000cd	5f		 pop	 edi

; 235  : }

  000ce	b0 01		 mov	 al, 1
  000d0	5b		 pop	 ebx
  000d1	8b e5		 mov	 esp, ebp
  000d3	5d		 pop	 ebp
  000d4	c2 04 00	 ret	 4
?LoadTriGroupNodeList@CGrannyMesh@@IAE_NAAVCGrannyMaterialPalette@@@Z ENDP ; CGrannyMesh::LoadTriGroupNodeList
_TEXT	ENDS
; Function compile flags: /Ogtp
; File C:\Users\flourine\Desktop\Xantios\client-src\Code\eterGrnLib\Mesh.cpp
; File C:\Program Files\Microsoft Visual Studio\2022\Community\VC\Tools\MSVC\14.34.31933\include\vector
; File C:\Users\flourine\Desktop\Xantios\client-src\Code\eterGrnLib\Mesh.cpp
; File C:\Program Files\Microsoft Visual Studio\2022\Community\VC\Tools\MSVC\14.34.31933\include\vector
; File C:\Users\flourine\Desktop\Xantios\client-src\Code\eterGrnLib\Mesh.cpp
;	COMDAT ?LoadMaterials@CGrannyMesh@@IAE_NAAVCGrannyMaterialPalette@@@Z
_TEXT	SEGMENT
_mtrlCount$1$ = -8					; size = 4
_mtrlIndex$1 = -4					; size = 4
_rkMtrlPal$ = 8						; size = 4
?LoadMaterials@CGrannyMesh@@IAE_NAAVCGrannyMaterialPalette@@@Z PROC ; CGrannyMesh::LoadMaterials, COMDAT
; _this$ = ecx

; 269  : {

  00000	55		 push	 ebp
  00001	8b ec		 mov	 ebp, esp
  00003	83 ec 08	 sub	 esp, 8
  00006	56		 push	 esi
  00007	8b f1		 mov	 esi, ecx

; 270  : 	assert(m_pgrnMesh != NULL);
; 271  : 
; 272  : 	if (m_pgrnMesh->MaterialBindingCount <= 0)

  00009	8b 46 08	 mov	 eax, DWORD PTR [esi+8]
  0000c	8b 40 14	 mov	 eax, DWORD PTR [eax+20]
  0000f	89 45 f8	 mov	 DWORD PTR _mtrlCount$1$[ebp], eax
  00012	85 c0		 test	 eax, eax
  00014	7e 61		 jle	 SHORT $LN18@LoadMateri

; 273  : 	{
; 274  : 		return true;
; 275  : 	}
; 276  : 
; 277  : 	int mtrlCount = m_pgrnMesh->MaterialBindingCount;
; 278  : 	bool bHaveBlendThing = false;

  00016	53		 push	 ebx
  00017	57		 push	 edi
  00018	32 db		 xor	 bl, bl
  0001a	33 ff		 xor	 edi, edi
  0001c	0f 1f 40 00	 npad	 4
$LL4@LoadMateri:

; 279  : 
; 280  : 	for (int m = 0; m < mtrlCount; ++m)
; 281  : 	{
; 282  : 		granny_material* pgrnMaterial = m_pgrnMesh->MaterialBindings[m].Material;

  00020	8b 46 08	 mov	 eax, DWORD PTR [esi+8]

; 283  : 		DWORD mtrlIndex = rkMtrlPal.RegisterMaterial(pgrnMaterial);

  00023	8b 4d 08	 mov	 ecx, DWORD PTR _rkMtrlPal$[ebp]
  00026	8b 40 18	 mov	 eax, DWORD PTR [eax+24]
  00029	ff 34 b8	 push	 DWORD PTR [eax+edi*4]
  0002c	e8 00 00 00 00	 call	 ?RegisterMaterial@CGrannyMaterialPalette@@QAEKPAUgranny_material@@@Z ; CGrannyMaterialPalette::RegisterMaterial
; File C:\Program Files\Microsoft Visual Studio\2022\Community\VC\Tools\MSVC\14.34.31933\include\vector

; 844  :         if (_Mylast != _My_data._Myend) {

  00031	8b 4e 18	 mov	 ecx, DWORD PTR [esi+24]
; File C:\Users\flourine\Desktop\Xantios\client-src\Code\eterGrnLib\Mesh.cpp

; 283  : 		DWORD mtrlIndex = rkMtrlPal.RegisterMaterial(pgrnMaterial);

  00034	89 45 fc	 mov	 DWORD PTR _mtrlIndex$1[ebp], eax
; File C:\Program Files\Microsoft Visual Studio\2022\Community\VC\Tools\MSVC\14.34.31933\include\vector

; 844  :         if (_Mylast != _My_data._Myend) {

  00037	3b 4e 1c	 cmp	 ecx, DWORD PTR [esi+28]
  0003a	74 08		 je	 SHORT $LN10@LoadMateri

; 860  :             _Construct_in_place(*_Mylast, _STD forward<_Valty>(_Val)...);

  0003c	89 01		 mov	 DWORD PTR [ecx], eax

; 861  :         } else {
; 862  :             _ASAN_VECTOR_EXTEND_GUARD(static_cast<size_type>(_Mylast - _My_data._Myfirst) + 1);
; 863  :             _Alty_traits::construct(_Getal(), _Unfancy(_Mylast), _STD forward<_Valty>(_Val)...);
; 864  :             _ASAN_VECTOR_RELEASE_GUARD;
; 865  :         }
; 866  : 
; 867  :         _Orphan_range(_Mylast, _Mylast);
; 868  :         _Ty& _Result = *_Mylast;
; 869  :         ++_Mylast;

  0003e	83 46 18 04	 add	 DWORD PTR [esi+24], 4

; 845  :             return _Emplace_back_with_unused_capacity(_STD forward<_Valty>(_Val)...);

  00042	eb 10		 jmp	 SHORT $LN9@LoadMateri
$LN10@LoadMateri:

; 846  :         }
; 847  : 
; 848  :         return *_Emplace_reallocate(_Mylast, _STD forward<_Valty>(_Val)...);

  00044	8d 45 fc	 lea	 eax, DWORD PTR _mtrlIndex$1[ebp]
  00047	50		 push	 eax
  00048	51		 push	 ecx
  00049	8d 4e 14	 lea	 ecx, DWORD PTR [esi+20]
  0004c	e8 00 00 00 00	 call	 ??$_Emplace_reallocate@ABK@?$vector@KV?$allocator@K@std@@@std@@AAEPAKQAKABK@Z ; std::vector<unsigned long,std::allocator<unsigned long> >::_Emplace_reallocate<unsigned long const &>
  00051	8b 45 fc	 mov	 eax, DWORD PTR _mtrlIndex$1[ebp]
$LN9@LoadMateri:
; File C:\Users\flourine\Desktop\Xantios\client-src\Code\eterGrnLib\Mesh.cpp

; 285  : 		bHaveBlendThing |= rkMtrlPal.GetMaterialRef(mtrlIndex).GetType() == CGrannyMaterial::TYPE_BLEND_PNT;

  00054	8b 4d 08	 mov	 ecx, DWORD PTR _rkMtrlPal$[ebp]
  00057	50		 push	 eax
  00058	e8 00 00 00 00	 call	 ?GetMaterialRef@CGrannyMaterialPalette@@QAEAAVCGrannyMaterial@@K@Z ; CGrannyMaterialPalette::GetMaterialRef
  0005d	8b c8		 mov	 ecx, eax
  0005f	e8 00 00 00 00	 call	 ?GetType@CGrannyMaterial@@QBE?AW4EType@1@XZ ; CGrannyMaterial::GetType
  00064	83 f8 01	 cmp	 eax, 1
  00067	0f 94 c0	 sete	 al
  0006a	47		 inc	 edi
  0006b	0a d8		 or	 bl, al
  0006d	3b 7d f8	 cmp	 edi, DWORD PTR _mtrlCount$1$[ebp]
  00070	7c ae		 jl	 SHORT $LL4@LoadMateri

; 286  : 	}
; 287  : 	m_bHaveBlendThing = bHaveBlendThing;
; 288  : 
; 289  : 	return true;

  00072	5f		 pop	 edi
  00073	88 5e 36	 mov	 BYTE PTR [esi+54], bl
  00076	5b		 pop	 ebx
$LN18@LoadMateri:

; 290  : }

  00077	b0 01		 mov	 al, 1
  00079	5e		 pop	 esi
  0007a	8b e5		 mov	 esp, ebp
  0007c	5d		 pop	 ebp
  0007d	c2 04 00	 ret	 4
?LoadMaterials@CGrannyMesh@@IAE_NAAVCGrannyMaterialPalette@@@Z ENDP ; CGrannyMesh::LoadMaterials
_TEXT	ENDS
; Function compile flags: /Ogtp
; File C:\Users\flourine\Desktop\Xantios\client-src\Code\eterGrnLib\Mesh.cpp
;	COMDAT ?Initialize@CGrannyMesh@@IAEXXZ
_TEXT	SEGMENT
?Initialize@CGrannyMesh@@IAEXXZ PROC			; CGrannyMesh::Initialize, COMDAT
; _this$ = ecx

; 328  : 	for (int r = 0; r < CGrannyMaterial::TYPE_MAX_NUM; ++r)
; 329  : 	{
; 330  : 		m_triGroupNodeLists[r] = NULL;

  00000	c7 41 24 00 00
	00 00		 mov	 DWORD PTR [ecx+36], 0
  00007	c7 41 28 00 00
	00 00		 mov	 DWORD PTR [ecx+40], 0

; 331  : 	}
; 332  : 
; 333  : 	m_pgrnMeshType = GrannyPNT332VertexType;

  0000e	a1 00 00 00 00	 mov	 eax, DWORD PTR __imp__GrannyPNT332VertexType
  00013	8b 00		 mov	 eax, DWORD PTR [eax]
  00015	89 41 04	 mov	 DWORD PTR [ecx+4], eax

; 334  : 	m_pgrnMesh = NULL;

  00018	c7 41 08 00 00
	00 00		 mov	 DWORD PTR [ecx+8], 0

; 335  : 	// WORK
; 336  : 	m_pgrnMeshBindingTemp = NULL;

  0001f	c7 41 0c 00 00
	00 00		 mov	 DWORD PTR [ecx+12], 0

; 337  : 	// END_OF_WORK
; 338  : 	m_pgrnMeshDeformer = NULL;

  00026	c7 41 10 00 00
	00 00		 mov	 DWORD PTR [ecx+16], 0

; 339  : 
; 340  : 	m_triGroupNodes = NULL;

  0002d	c7 41 20 00 00
	00 00		 mov	 DWORD PTR [ecx+32], 0

; 341  : 
; 342  : 	m_vtxBasePos = 0;

  00034	c7 41 2c 00 00
	00 00		 mov	 DWORD PTR [ecx+44], 0

; 343  : 	m_idxBasePos = 0;

  0003b	c7 41 30 00 00
	00 00		 mov	 DWORD PTR [ecx+48], 0

; 344  : 
; 345  : 	m_canDeformPNTVertex = false;

  00042	66 c7 41 34 00
	00		 mov	 WORD PTR [ecx+52], 0

; 346  : 	m_isTwoSide = false;
; 347  : 	m_bHaveBlendThing = false;

  00048	c6 41 36 00	 mov	 BYTE PTR [ecx+54], 0

; 348  : }

  0004c	c3		 ret	 0
?Initialize@CGrannyMesh@@IAEXXZ ENDP			; CGrannyMesh::Initialize
_TEXT	ENDS
; Function compile flags: /Ogtp
; File C:\Users\flourine\Desktop\Xantios\client-src\Code\eterGrnLib\Mesh.cpp
;	COMDAT ?RebuildTriGroupNodeList@CGrannyMesh@@QAEXXZ
_TEXT	SEGMENT
?RebuildTriGroupNodeList@CGrannyMesh@@QAEXXZ PROC	; CGrannyMesh::RebuildTriGroupNodeList, COMDAT
; _this$ = ecx

; 239  : 	assert(!"CGrannyMesh::RebuildTriGroupNodeList() - Why should you rebuild it -?");
; 240  : 	/*
; 241  : 	int mtrlCount = m_pgrnMesh->MaterialBindingCount;
; 242  : 	int GroupNodeCount = GrannyGetMeshTriangleGroupCount(m_pgrnMesh);
; 243  : 
; 244  : 	if (GroupNodeCount <= 0)
; 245  : 		return;
; 246  : 
; 247  : 	const granny_tri_material_group * c_pgrnTriGroups = GrannyGetMeshTriangleGroups(m_pgrnMesh);
; 248  : 
; 249  : 	for (int g = 0; g < GroupNodeCount; ++g)
; 250  : 	{
; 251  : 		const granny_tri_material_group& c_rgrnTriGroup = c_pgrnTriGroups[g];
; 252  : 		TTriGroupNode * pTriGroupNode = m_triGroupNodes + g;
; 253  : 
; 254  : 		int iMtrl = c_rgrnTriGroup.MaterialIndex;
; 255  : 
; 256  : 		if (iMtrl >= 0 && iMtrl < mtrlCount)
; 257  : 		{
; 258  : 			CGrannyMaterial & rMtrl = m_mtrls[iMtrl];
; 259  : 
; 260  : 			pTriGroupNode->lpd3dTextures[0] = rMtrl.GetD3DTexture(0);
; 261  : 			pTriGroupNode->lpd3dTextures[1] = rMtrl.GetD3DTexture(1);
; 262  : 
; 263  : 		}
; 264  : 	}
; 265  : 	*/
; 266  : }

  00000	c2 00 00	 ret	 0
?RebuildTriGroupNodeList@CGrannyMesh@@QAEXXZ ENDP	; CGrannyMesh::RebuildTriGroupNodeList
_TEXT	ENDS
; Function compile flags: /Ogtp
; File C:\Users\flourine\Desktop\Xantios\client-src\Code\eterGrnLib\Mesh.cpp
;	COMDAT ?GetTriGroupNodeList@CGrannyMesh@@QBEPBUSTriGroupNode@1@W4EType@CGrannyMaterial@@@Z
_TEXT	SEGMENT
_eMtrlType$ = 8						; size = 4
?GetTriGroupNodeList@CGrannyMesh@@QBEPBUSTriGroupNode@1@W4EType@CGrannyMaterial@@@Z PROC ; CGrannyMesh::GetTriGroupNodeList, COMDAT
; _this$ = ecx

; 92   : {

  00000	55		 push	 ebp
  00001	8b ec		 mov	 ebp, esp

; 93   : 	return m_triGroupNodeLists[eMtrlType];

  00003	8b 45 08	 mov	 eax, DWORD PTR _eMtrlType$[ebp]
  00006	8b 44 81 24	 mov	 eax, DWORD PTR [ecx+eax*4+36]

; 94   : }

  0000a	5d		 pop	 ebp
  0000b	c2 04 00	 ret	 4
?GetTriGroupNodeList@CGrannyMesh@@QBEPBUSTriGroupNode@1@W4EType@CGrannyMaterial@@@Z ENDP ; CGrannyMesh::GetTriGroupNodeList
_TEXT	ENDS
; Function compile flags: /Ogtp
; File C:\Users\flourine\Desktop\Xantios\client-src\Code\eterGrnLib\Mesh.cpp
;	COMDAT ?GetGrannyMeshPointer@CGrannyMesh@@QBEPBUgranny_mesh@@XZ
_TEXT	SEGMENT
?GetGrannyMeshPointer@CGrannyMesh@@QBEPBUgranny_mesh@@XZ PROC ; CGrannyMesh::GetGrannyMeshPointer, COMDAT
; _this$ = ecx

; 88   : 	return m_pgrnMesh;

  00000	8b 41 08	 mov	 eax, DWORD PTR [ecx+8]

; 89   : }

  00003	c3		 ret	 0
?GetGrannyMeshPointer@CGrannyMesh@@QBEPBUgranny_mesh@@XZ ENDP ; CGrannyMesh::GetGrannyMeshPointer
_TEXT	ENDS
; Function compile flags: /Ogtp
; File C:\Users\flourine\Desktop\Xantios\client-src\Code\eterGrnLib\Mesh.cpp
;	COMDAT ?GetIndexBasePosition@CGrannyMesh@@QBEHXZ
_TEXT	SEGMENT
?GetIndexBasePosition@CGrannyMesh@@QBEHXZ PROC		; CGrannyMesh::GetIndexBasePosition, COMDAT
; _this$ = ecx

; 109  : 	return m_idxBasePos;

  00000	8b 41 30	 mov	 eax, DWORD PTR [ecx+48]

; 110  : }

  00003	c3		 ret	 0
?GetIndexBasePosition@CGrannyMesh@@QBEHXZ ENDP		; CGrannyMesh::GetIndexBasePosition
_TEXT	ENDS
; Function compile flags: /Ogtp
; File C:\Users\flourine\Desktop\Xantios\client-src\Code\eterGrnLib\Mesh.cpp
;	COMDAT ?GetVertexBasePosition@CGrannyMesh@@QBEHXZ
_TEXT	SEGMENT
?GetVertexBasePosition@CGrannyMesh@@QBEHXZ PROC		; CGrannyMesh::GetVertexBasePosition, COMDAT
; _this$ = ecx

; 104  : 	return m_vtxBasePos;

  00000	8b 41 2c	 mov	 eax, DWORD PTR [ecx+44]

; 105  : }

  00003	c3		 ret	 0
?GetVertexBasePosition@CGrannyMesh@@QBEHXZ ENDP		; CGrannyMesh::GetVertexBasePosition
_TEXT	ENDS
; Function compile flags: /Ogtp
; File C:\Users\flourine\Desktop\Xantios\client-src\Code\eterGrnLib\Mesh.cpp
;	COMDAT ?GetDefaultBoneIndices@CGrannyMesh@@QBEPBHXZ
_TEXT	SEGMENT
?GetDefaultBoneIndices@CGrannyMesh@@QBEPBHXZ PROC	; CGrannyMesh::GetDefaultBoneIndices, COMDAT
; _this$ = ecx

; 121  : 	return GrannyGetMeshBindingToBoneIndices(m_pgrnMeshBindingTemp);

  00000	ff 71 0c	 push	 DWORD PTR [ecx+12]
  00003	ff 15 00 00 00
	00		 call	 DWORD PTR __imp__GrannyGetMeshBindingToBoneIndices@4

; 122  : }

  00009	c3		 ret	 0
?GetDefaultBoneIndices@CGrannyMesh@@QBEPBHXZ ENDP	; CGrannyMesh::GetDefaultBoneIndices
_TEXT	ENDS
; Function compile flags: /Ogtp
; File C:\Users\flourine\Desktop\Xantios\client-src\Code\eterGrnLib\Mesh.cpp
;	COMDAT ?GetVertexCount@CGrannyMesh@@QBEHXZ
_TEXT	SEGMENT
?GetVertexCount@CGrannyMesh@@QBEHXZ PROC		; CGrannyMesh::GetVertexCount, COMDAT
; _this$ = ecx

; 98   : 	assert(m_pgrnMesh != NULL);
; 99   : 	return GrannyGetMeshVertexCount(m_pgrnMesh);

  00000	ff 71 08	 push	 DWORD PTR [ecx+8]
  00003	ff 15 00 00 00
	00		 call	 DWORD PTR __imp__GrannyGetMeshVertexCount@4

; 100  : }

  00009	c3		 ret	 0
?GetVertexCount@CGrannyMesh@@QBEHXZ ENDP		; CGrannyMesh::GetVertexCount
_TEXT	ENDS
; Function compile flags: /Ogtp
; File C:\Users\flourine\Desktop\Xantios\client-src\Code\eterGrnLib\Mesh.cpp
;	COMDAT ?IsTwoSide@CGrannyMesh@@QBE_NXZ
_TEXT	SEGMENT
?IsTwoSide@CGrannyMesh@@QBE_NXZ PROC			; CGrannyMesh::IsTwoSide, COMDAT
; _this$ = ecx

; 294  : 	return m_isTwoSide;

  00000	8a 41 35	 mov	 al, BYTE PTR [ecx+53]

; 295  : }

  00003	c3		 ret	 0
?IsTwoSide@CGrannyMesh@@QBE_NXZ ENDP			; CGrannyMesh::IsTwoSide
_TEXT	ENDS
; Function compile flags: /Ogtp
; File C:\Users\flourine\Desktop\Xantios\client-src\Code\eterGrnLib\Mesh.cpp
;	COMDAT ?CanDeformPNTVertices@CGrannyMesh@@QBE_NXZ
_TEXT	SEGMENT
?CanDeformPNTVertices@CGrannyMesh@@QBE_NXZ PROC		; CGrannyMesh::CanDeformPNTVertices, COMDAT
; _this$ = ecx

; 83   : 	return m_canDeformPNTVertex;

  00000	8a 41 34	 mov	 al, BYTE PTR [ecx+52]

; 84   : }

  00003	c3		 ret	 0
?CanDeformPNTVertices@CGrannyMesh@@QBE_NXZ ENDP		; CGrannyMesh::CanDeformPNTVertices
_TEXT	ENDS
; Function compile flags: /Ogtp
; File C:\Users\flourine\Desktop\Xantios\client-src\Code\eterGrnLib\Mesh.cpp
;	COMDAT ?DeformPNTVertices@CGrannyMesh@@QBEXPAXPAUD3DXMATRIX@@PAUgranny_mesh_binding@@@Z
_TEXT	SEGMENT
_this$1$ = -4						; size = 4
_dstBaseVertices$ = 8					; size = 4
_boneMatrices$ = 12					; size = 4
_pgrnMeshBinding$ = 16					; size = 4
?DeformPNTVertices@CGrannyMesh@@QBEXPAXPAUD3DXMATRIX@@PAUgranny_mesh_binding@@@Z PROC ; CGrannyMesh::DeformPNTVertices, COMDAT
; _this$ = ecx

; 50   : {

  00000	55		 push	 ebp
  00001	8b ec		 mov	 ebp, esp
  00003	51		 push	 ecx
  00004	53		 push	 ebx
  00005	56		 push	 esi
  00006	57		 push	 edi
  00007	8b f9		 mov	 edi, ecx
  00009	89 7d fc	 mov	 DWORD PTR _this$1$[ebp], edi

; 51   : 	assert(dstBaseVertices != NULL);
; 52   : 	assert(boneMatrices != NULL);
; 53   : 	assert(m_pgrnMeshDeformer != NULL);
; 54   : 
; 55   : 	const granny_mesh * pgrnMesh = GetGrannyMeshPointer();

  0000c	e8 00 00 00 00	 call	 ?GetGrannyMeshPointer@CGrannyMesh@@QBEPBUgranny_mesh@@XZ ; CGrannyMesh::GetGrannyMeshPointer
  00011	8b f0		 mov	 esi, eax

; 56   : 
; 57   : 	TPNTVertex * srcVertices = (TPNTVertex *) GrannyGetMeshVertices(pgrnMesh);

  00013	56		 push	 esi
  00014	ff 15 00 00 00
	00		 call	 DWORD PTR __imp__GrannyGetMeshVertices@4

; 58   : 	TPNTVertex * dstVertices = ((TPNTVertex *) dstBaseVertices) + m_vtxBasePos;

  0001a	8b 7f 2c	 mov	 edi, DWORD PTR [edi+44]
  0001d	8b d8		 mov	 ebx, eax
  0001f	c1 e7 05	 shl	 edi, 5
  00022	03 7d 08	 add	 edi, DWORD PTR _dstBaseVertices$[ebp]

; 59   : 
; 60   : 	int vtxCount = GrannyGetMeshVertexCount(pgrnMesh);

  00025	56		 push	 esi
  00026	ff 15 00 00 00
	00		 call	 DWORD PTR __imp__GrannyGetMeshVertexCount@4

; 61   : 
; 62   : 	// WORK
; 63   : #if GrannyProductMinorVersion==4
; 64   : 	int * boneIndices = GrannyGetMeshBindingToBoneIndices(pgrnMeshBinding);
; 65   : #elif GrannyProductMinorVersion==11 || GrannyProductMinorVersion==9 || GrannyProductMinorVersion==8 || GrannyProductMinorVersion==7
; 66   : 	const granny_int32x * boneIndices = GrannyGetMeshBindingToBoneIndices(pgrnMeshBinding);

  0002c	ff 75 10	 push	 DWORD PTR _pgrnMeshBinding$[ebp]
  0002f	8b f0		 mov	 esi, eax
  00031	ff 15 00 00 00
	00		 call	 DWORD PTR __imp__GrannyGetMeshBindingToBoneIndices@4

; 67   : #else
; 68   : #error "unknown granny version"
; 69   : #endif
; 70   : 	// END_OF_WORK
; 71   : 
; 72   : 	GrannyDeformVertices(

  00037	57		 push	 edi
  00038	53		 push	 ebx
  00039	56		 push	 esi
  0003a	ff 75 0c	 push	 DWORD PTR _boneMatrices$[ebp]
  0003d	50		 push	 eax
  0003e	8b 45 fc	 mov	 eax, DWORD PTR _this$1$[ebp]
  00041	ff 70 10	 push	 DWORD PTR [eax+16]
  00044	ff 15 00 00 00
	00		 call	 DWORD PTR __imp__GrannyDeformVertices@24
  0004a	5f		 pop	 edi
  0004b	5e		 pop	 esi
  0004c	5b		 pop	 ebx

; 73   : 		m_pgrnMeshDeformer,
; 74   : 		boneIndices,
; 75   : 		(float *)boneMatrices,
; 76   : 		vtxCount,
; 77   : 		srcVertices,
; 78   : 		dstVertices);
; 79   : }

  0004d	8b e5		 mov	 esp, ebp
  0004f	5d		 pop	 ebp
  00050	c2 0c 00	 ret	 12			; 0000000cH
?DeformPNTVertices@CGrannyMesh@@QBEXPAXPAUD3DXMATRIX@@PAUgranny_mesh_binding@@@Z ENDP ; CGrannyMesh::DeformPNTVertices
_TEXT	ENDS
; Function compile flags: /Ogtp
; File C:\Users\flourine\Desktop\Xantios\client-src\Code\eterGrnLib\Mesh.cpp
;	COMDAT ?SetPNT2Mesh@CGrannyMesh@@QAEXXZ
_TEXT	SEGMENT
?SetPNT2Mesh@CGrannyMesh@@QAEXXZ PROC			; CGrannyMesh::SetPNT2Mesh, COMDAT
; _this$ = ecx

; 299  : 	m_pgrnMeshType = GrannyPNT3322VertexType;

  00000	c7 41 04 00 00
	00 00		 mov	 DWORD PTR [ecx+4], OFFSET ?GrannyPNT3322VertexType@@3PAUgranny_data_type_definition@@A ; GrannyPNT3322VertexType

; 300  : }

  00007	c3		 ret	 0
?SetPNT2Mesh@CGrannyMesh@@QAEXXZ ENDP			; CGrannyMesh::SetPNT2Mesh
_TEXT	ENDS
; Function compile flags: /Ogtp
; File C:\Users\flourine\Desktop\Xantios\client-src\Code\eterGrnLib\Mesh.cpp
; File C:\Program Files\Microsoft Visual Studio\2022\Community\VC\Tools\MSVC\14.34.31933\include\vector
; File C:\Users\flourine\Desktop\Xantios\client-src\Code\eterGrnLib\Mesh.cpp
;	COMDAT ?Destroy@CGrannyMesh@@QAEXXZ
_TEXT	SEGMENT
?Destroy@CGrannyMesh@@QAEXXZ PROC			; CGrannyMesh::Destroy, COMDAT
; _this$ = ecx

; 303  : {

  00000	56		 push	 esi
  00001	8b f1		 mov	 esi, ecx

; 304  : 	if (m_triGroupNodes)

  00003	8b 46 20	 mov	 eax, DWORD PTR [esi+32]
  00006	85 c0		 test	 eax, eax
  00008	74 09		 je	 SHORT $LN2@Destroy

; 305  : 	{
; 306  : 		delete [] m_triGroupNodes;

  0000a	50		 push	 eax
  0000b	e8 00 00 00 00	 call	 ??_V@YAXPAX@Z		; operator delete[]
  00010	83 c4 04	 add	 esp, 4
$LN2@Destroy:
; File C:\Program Files\Microsoft Visual Studio\2022\Community\VC\Tools\MSVC\14.34.31933\include\vector

; 1829 :         if (_Myfirst == _Mylast) { // already empty, nothing to do

  00013	8b 46 14	 mov	 eax, DWORD PTR [esi+20]
  00016	3b 46 18	 cmp	 eax, DWORD PTR [esi+24]
  00019	74 03		 je	 SHORT $LN6@Destroy

; 1830 :             // This is an optimization for debug mode: we can avoid taking the debug lock to invalidate iterators.
; 1831 :             // Note that when clearing an empty vector, this will preserve past-the-end iterators, which is allowed by
; 1832 :             // N4901 [tab:container.seq.req] "a.clear() [...] may invalidate the past-the-end iterator".
; 1833 :             return;
; 1834 :         }
; 1835 : 
; 1836 :         _My_data._Orphan_all();
; 1837 :         _Destroy_range(_Myfirst, _Mylast, _Getal());
; 1838 :         _ASAN_VECTOR_MODIFY(static_cast<difference_type>(_Myfirst - _Mylast)); // negative when destroying elements
; 1839 :         _Mylast = _Myfirst;

  0001b	89 46 18	 mov	 DWORD PTR [esi+24], eax
$LN6@Destroy:
; File C:\Users\flourine\Desktop\Xantios\client-src\Code\eterGrnLib\Mesh.cpp

; 312  : 	if (m_pgrnMeshBindingTemp)

  0001e	8b 46 0c	 mov	 eax, DWORD PTR [esi+12]
  00021	85 c0		 test	 eax, eax
  00023	74 07		 je	 SHORT $LN3@Destroy

; 313  : 	{
; 314  : 		GrannyFreeMeshBinding(m_pgrnMeshBindingTemp);

  00025	50		 push	 eax
  00026	ff 15 00 00 00
	00		 call	 DWORD PTR __imp__GrannyFreeMeshBinding@4
$LN3@Destroy:

; 315  : 	}
; 316  : 	// END_OF_WORK
; 317  : 
; 318  : 	if (m_pgrnMeshDeformer)

  0002c	8b 46 10	 mov	 eax, DWORD PTR [esi+16]
  0002f	85 c0		 test	 eax, eax
  00031	74 07		 je	 SHORT $LN4@Destroy

; 319  : 	{
; 320  : 		GrannyFreeMeshDeformer(m_pgrnMeshDeformer);

  00033	50		 push	 eax
  00034	ff 15 00 00 00
	00		 call	 DWORD PTR __imp__GrannyFreeMeshDeformer@4
$LN4@Destroy:

; 321  : 	}
; 322  : 
; 323  : 	Initialize();

  0003a	8b ce		 mov	 ecx, esi
  0003c	5e		 pop	 esi
  0003d	e9 00 00 00 00	 jmp	 ?Initialize@CGrannyMesh@@IAEXXZ ; CGrannyMesh::Initialize
?Destroy@CGrannyMesh@@QAEXXZ ENDP			; CGrannyMesh::Destroy
_TEXT	ENDS
; Function compile flags: /Ogtp
; File C:\Users\flourine\Desktop\Xantios\client-src\Code\eterGrnLib\Mesh.cpp
;	COMDAT ?NEW_LoadVertices@CGrannyMesh@@QAEXPAX@Z
_TEXT	SEGMENT
_dstBaseVertices$ = 8					; size = 4
?NEW_LoadVertices@CGrannyMesh@@QAEXPAX@Z PROC		; CGrannyMesh::NEW_LoadVertices, COMDAT
; _this$ = ecx

; 37   : {

  00000	55		 push	 ebp
  00001	8b ec		 mov	 ebp, esp
  00003	56		 push	 esi
  00004	57		 push	 edi
  00005	8b f1		 mov	 esi, ecx

; 38   : 	const granny_mesh * pgrnMesh = GetGrannyMeshPointer();

  00007	e8 00 00 00 00	 call	 ?GetGrannyMeshPointer@CGrannyMesh@@QBEPBUgranny_mesh@@XZ ; CGrannyMesh::GetGrannyMeshPointer
  0000c	8b f8		 mov	 edi, eax

; 39   : 
; 40   : 	if (!GrannyMeshIsRigid(pgrnMesh))

  0000e	57		 push	 edi
  0000f	ff 15 00 00 00
	00		 call	 DWORD PTR __imp__GrannyMeshIsRigid@4
  00015	84 c0		 test	 al, al
  00017	74 14		 je	 SHORT $LN1@NEW_LoadVe

; 41   : 	{
; 42   : 		return;
; 43   : 	}
; 44   : 
; 45   : 	TPNTVertex * dstVertices = ((TPNTVertex *)dstBaseVertices) + m_vtxBasePos;

  00019	8b 4e 2c	 mov	 ecx, DWORD PTR [esi+44]
  0001c	c1 e1 05	 shl	 ecx, 5
  0001f	03 4d 08	 add	 ecx, DWORD PTR _dstBaseVertices$[ebp]

; 46   : 	GrannyCopyMeshVertices(pgrnMesh, m_pgrnMeshType, dstVertices);

  00022	51		 push	 ecx
  00023	ff 76 04	 push	 DWORD PTR [esi+4]
  00026	57		 push	 edi
  00027	ff 15 00 00 00
	00		 call	 DWORD PTR __imp__GrannyCopyMeshVertices@12
$LN1@NEW_LoadVe:

; 47   : }

  0002d	5f		 pop	 edi
  0002e	5e		 pop	 esi
  0002f	5d		 pop	 ebp
  00030	c2 04 00	 ret	 4
?NEW_LoadVertices@CGrannyMesh@@QAEXPAX@Z ENDP		; CGrannyMesh::NEW_LoadVertices
_TEXT	ENDS
; Function compile flags: /Ogtp
; File C:\Users\flourine\Desktop\Xantios\client-src\Code\eterGrnLib\Mesh.cpp
;	COMDAT ?LoadPNTVertices@CGrannyMesh@@QAEXPAX@Z
_TEXT	SEGMENT
_dstBaseVertices$ = 8					; size = 4
?LoadPNTVertices@CGrannyMesh@@QAEXPAX@Z PROC		; CGrannyMesh::LoadPNTVertices, COMDAT
; _this$ = ecx

; 24   : {

  00000	55		 push	 ebp
  00001	8b ec		 mov	 ebp, esp
  00003	56		 push	 esi
  00004	57		 push	 edi
  00005	8b f1		 mov	 esi, ecx

; 25   : 	const granny_mesh * pgrnMesh = GetGrannyMeshPointer();

  00007	e8 00 00 00 00	 call	 ?GetGrannyMeshPointer@CGrannyMesh@@QBEPBUgranny_mesh@@XZ ; CGrannyMesh::GetGrannyMeshPointer
  0000c	8b f8		 mov	 edi, eax

; 26   : 
; 27   : 	if (!GrannyMeshIsRigid(pgrnMesh))

  0000e	57		 push	 edi
  0000f	ff 15 00 00 00
	00		 call	 DWORD PTR __imp__GrannyMeshIsRigid@4
  00015	84 c0		 test	 al, al
  00017	74 14		 je	 SHORT $LN1@LoadPNTVer

; 28   : 	{
; 29   : 		return;
; 30   : 	}
; 31   : 
; 32   : 	TPNTVertex * dstVertices = ((TPNTVertex *)dstBaseVertices) + m_vtxBasePos;

  00019	8b 4e 2c	 mov	 ecx, DWORD PTR [esi+44]
  0001c	c1 e1 05	 shl	 ecx, 5
  0001f	03 4d 08	 add	 ecx, DWORD PTR _dstBaseVertices$[ebp]

; 33   : 	GrannyCopyMeshVertices(pgrnMesh, m_pgrnMeshType, dstVertices);

  00022	51		 push	 ecx
  00023	ff 76 04	 push	 DWORD PTR [esi+4]
  00026	57		 push	 edi
  00027	ff 15 00 00 00
	00		 call	 DWORD PTR __imp__GrannyCopyMeshVertices@12
$LN1@LoadPNTVer:

; 34   : }

  0002d	5f		 pop	 edi
  0002e	5e		 pop	 esi
  0002f	5d		 pop	 ebp
  00030	c2 04 00	 ret	 4
?LoadPNTVertices@CGrannyMesh@@QAEXPAX@Z ENDP		; CGrannyMesh::LoadPNTVertices
_TEXT	ENDS
; Function compile flags: /Ogtp
; File C:\Users\flourine\Desktop\Xantios\client-src\Code\eterGrnLib\Mesh.cpp
;	COMDAT ?LoadIndices@CGrannyMesh@@QAEXPAX@Z
_TEXT	SEGMENT
_dstBaseIndices$ = 8					; size = 4
?LoadIndices@CGrannyMesh@@QAEXPAX@Z PROC		; CGrannyMesh::LoadIndices, COMDAT
; _this$ = ecx

; 16   : {

  00000	55		 push	 ebp
  00001	8b ec		 mov	 ebp, esp
  00003	56		 push	 esi
  00004	8b f1		 mov	 esi, ecx

; 17   : 	const granny_mesh * pgrnMesh = GetGrannyMeshPointer();

  00006	e8 00 00 00 00	 call	 ?GetGrannyMeshPointer@CGrannyMesh@@QBEPBUgranny_mesh@@XZ ; CGrannyMesh::GetGrannyMeshPointer

; 18   : 
; 19   : 	TIndex * dstIndices = ((TIndex *)dstBaseIndices) + m_idxBasePos;

  0000b	8b 56 30	 mov	 edx, DWORD PTR [esi+48]
  0000e	8b 4d 08	 mov	 ecx, DWORD PTR _dstBaseIndices$[ebp]
  00011	8d 0c 51	 lea	 ecx, DWORD PTR [ecx+edx*2]

; 20   : 	GrannyCopyMeshIndices(pgrnMesh, sizeof(TIndex), dstIndices);

  00014	51		 push	 ecx
  00015	6a 02		 push	 2
  00017	50		 push	 eax
  00018	ff 15 00 00 00
	00		 call	 DWORD PTR __imp__GrannyCopyMeshIndices@12
  0001e	5e		 pop	 esi

; 21   : }

  0001f	5d		 pop	 ebp
  00020	c2 04 00	 ret	 4
?LoadIndices@CGrannyMesh@@QAEXPAX@Z ENDP		; CGrannyMesh::LoadIndices
_TEXT	ENDS
; Function compile flags: /Ogtp
; File C:\Users\flourine\Desktop\Xantios\client-src\Code\eterGrnLib\Mesh.cpp
;	COMDAT ?CreateFromGrannyMeshPointer@CGrannyMesh@@QAE_NPAUgranny_skeleton@@PAUgranny_mesh@@HHAAVCGrannyMaterialPalette@@@Z
_TEXT	SEGMENT
_pgrnSkeleton$ = 8					; size = 4
_pgrnMesh$ = 12						; size = 4
_vtxBasePos$ = 16					; size = 4
_idxBasePos$ = 20					; size = 4
_rkMtrlPal$ = 24					; size = 4
?CreateFromGrannyMeshPointer@CGrannyMesh@@QAE_NPAUgranny_skeleton@@PAUgranny_mesh@@HHAAVCGrannyMaterialPalette@@@Z PROC ; CGrannyMesh::CreateFromGrannyMeshPointer, COMDAT
; _this$ = ecx

; 136  : {

  00000	55		 push	 ebp
  00001	8b ec		 mov	 ebp, esp

; 137  : 	assert(IsEmpty());
; 138  : 
; 139  : 	m_pgrnMesh = pgrnMesh;
; 140  : 	m_vtxBasePos = vtxBasePos;

  00003	8b 45 10	 mov	 eax, DWORD PTR _vtxBasePos$[ebp]
  00006	56		 push	 esi
  00007	8b f1		 mov	 esi, ecx
  00009	8b 4d 0c	 mov	 ecx, DWORD PTR _pgrnMesh$[ebp]
  0000c	89 46 2c	 mov	 DWORD PTR [esi+44], eax

; 141  : 	m_idxBasePos = idxBasePos;

  0000f	8b 45 14	 mov	 eax, DWORD PTR _idxBasePos$[ebp]
  00012	89 4e 08	 mov	 DWORD PTR [esi+8], ecx
  00015	89 46 30	 mov	 DWORD PTR [esi+48], eax

; 142  : 
; 143  : 	if (m_pgrnMesh->BoneBindingCount < 0)

  00018	83 79 1c 00	 cmp	 DWORD PTR [ecx+28], 0
  0001c	7c 7f		 jl	 SHORT $LN6@CreateFrom

; 144  : 	{
; 145  : 		return true;
; 146  : 	}
; 147  : 
; 148  : 	// WORK
; 149  : 	m_pgrnMeshBindingTemp = GrannyNewMeshBinding(m_pgrnMesh, pgrnSkeleton, pgrnSkeleton);

  0001e	8b 45 08	 mov	 eax, DWORD PTR _pgrnSkeleton$[ebp]
  00021	50		 push	 eax
  00022	50		 push	 eax
  00023	51		 push	 ecx
  00024	ff 15 00 00 00
	00		 call	 DWORD PTR __imp__GrannyNewMeshBinding@12

; 150  : 	// END_OF_WORK
; 151  : 
; 152  : 	if (!GrannyMeshIsRigid(m_pgrnMesh))

  0002a	ff 76 08	 push	 DWORD PTR [esi+8]
  0002d	89 46 0c	 mov	 DWORD PTR [esi+12], eax
  00030	ff 15 00 00 00
	00		 call	 DWORD PTR __imp__GrannyMeshIsRigid@4
  00036	84 c0		 test	 al, al
  00038	75 1e		 jne	 SHORT $LN3@CreateFrom

; 153  : 	{
; 154  : 		m_canDeformPNTVertex = true;
; 155  : 
; 156  : 		granny_data_type_definition * pgrnInputType = GrannyGetMeshVertexType(m_pgrnMesh);

  0003a	ff 76 08	 push	 DWORD PTR [esi+8]
  0003d	c6 46 34 01	 mov	 BYTE PTR [esi+52], 1
  00041	ff 15 00 00 00
	00		 call	 DWORD PTR __imp__GrannyGetMeshVertexType@4

; 157  : 		granny_data_type_definition * pgrnOutputType = m_pgrnMeshType;
; 158  : 
; 159  : #if GrannyProductMinorVersion==4
; 160  : 		m_pgrnMeshDeformer = GrannyNewMeshDeformer(pgrnInputType, pgrnOutputType, GrannyDeformPositionNormal);
; 161  : #elif GrannyProductMinorVersion==11 || GrannyProductMinorVersion==9 || GrannyProductMinorVersion==8 || GrannyProductMinorVersion==7
; 162  : 		m_pgrnMeshDeformer = GrannyNewMeshDeformer(pgrnInputType, pgrnOutputType, GrannyDeformPositionNormal, GrannyDontAllowUncopiedTail);

  00047	6a 00		 push	 0
  00049	6a 02		 push	 2
  0004b	ff 76 04	 push	 DWORD PTR [esi+4]
  0004e	50		 push	 eax
  0004f	ff 15 00 00 00
	00		 call	 DWORD PTR __imp__GrannyNewMeshDeformer@16
  00055	89 46 10	 mov	 DWORD PTR [esi+16], eax
$LN3@CreateFrom:

; 163  : 		// m_pgrnMeshDeformer = GrannyNewMeshDeformer(pgrnInputType, pgrnOutputType, GrannyDeformPositionNormal, GrannyAllowUncopiedTail);
; 164  : #else
; 165  : #error "unknown granny version"
; 166  : #endif
; 167  : 		assert(m_pgrnMeshDeformer != NULL && "Cannot create mesh deformer");
; 168  : 	}
; 169  : 
; 170  : 	// Two Side Mesh
; 171  : 	if (!strncmp(m_pgrnMesh->Name, "2x", 2))

  00058	8b 46 08	 mov	 eax, DWORD PTR [esi+8]
  0005b	6a 02		 push	 2
  0005d	68 00 00 00 00	 push	 OFFSET ??_C@_02MALHOEON@2x@
  00062	ff 30		 push	 DWORD PTR [eax]
  00064	e8 00 00 00 00	 call	 _strncmp
  00069	83 c4 0c	 add	 esp, 12			; 0000000cH
  0006c	85 c0		 test	 eax, eax
  0006e	75 04		 jne	 SHORT $LN4@CreateFrom

; 172  : 	{
; 173  : 		m_isTwoSide = true;

  00070	c6 46 35 01	 mov	 BYTE PTR [esi+53], 1
$LN4@CreateFrom:

; 174  : 	}
; 175  : 
; 176  : 	if (!LoadMaterials(rkMtrlPal))

  00074	ff 75 18	 push	 DWORD PTR _rkMtrlPal$[ebp]
  00077	8b ce		 mov	 ecx, esi
  00079	e8 00 00 00 00	 call	 ?LoadMaterials@CGrannyMesh@@IAE_NAAVCGrannyMaterialPalette@@@Z ; CGrannyMesh::LoadMaterials
  0007e	84 c0		 test	 al, al
  00080	74 14		 je	 SHORT $LN8@CreateFrom

; 177  : 	{
; 178  : 		return false;
; 179  : 	}
; 180  : 
; 181  : 	if (!LoadTriGroupNodeList(rkMtrlPal))

  00082	ff 75 18	 push	 DWORD PTR _rkMtrlPal$[ebp]
  00085	8b ce		 mov	 ecx, esi
  00087	e8 00 00 00 00	 call	 ?LoadTriGroupNodeList@CGrannyMesh@@IAE_NAAVCGrannyMaterialPalette@@@Z ; CGrannyMesh::LoadTriGroupNodeList
  0008c	84 c0		 test	 al, al
  0008e	5e		 pop	 esi
  0008f	0f 95 c0	 setne	 al

; 187  : }

  00092	5d		 pop	 ebp
  00093	c2 14 00	 ret	 20			; 00000014H
$LN8@CreateFrom:

; 182  : 	{
; 183  : 		return false;

  00096	32 c0		 xor	 al, al
  00098	5e		 pop	 esi

; 187  : }

  00099	5d		 pop	 ebp
  0009a	c2 14 00	 ret	 20			; 00000014H
$LN6@CreateFrom:

; 184  : 	}
; 185  : 
; 186  : 	return true;

  0009d	b0 01		 mov	 al, 1
  0009f	5e		 pop	 esi

; 187  : }

  000a0	5d		 pop	 ebp
  000a1	c2 14 00	 ret	 20			; 00000014H
?CreateFromGrannyMeshPointer@CGrannyMesh@@QAE_NPAUgranny_skeleton@@PAUgranny_mesh@@HHAAVCGrannyMaterialPalette@@@Z ENDP ; CGrannyMesh::CreateFromGrannyMeshPointer
_TEXT	ENDS
; Function compile flags: /Ogtp
; File C:\Users\flourine\Desktop\Xantios\client-src\Code\eterGrnLib\Mesh.cpp
;	COMDAT ?IsEmpty@CGrannyMesh@@QBE_NXZ
_TEXT	SEGMENT
?IsEmpty@CGrannyMesh@@QBE_NXZ PROC			; CGrannyMesh::IsEmpty, COMDAT
; _this$ = ecx

; 127  : 	if (m_pgrnMesh)

  00000	83 79 08 00	 cmp	 DWORD PTR [ecx+8], 0
  00004	0f 94 c0	 sete	 al

; 128  : 	{
; 129  : 		return false;
; 130  : 	}
; 131  : 
; 132  : 	return true;
; 133  : }

  00007	c3		 ret	 0
?IsEmpty@CGrannyMesh@@QBE_NXZ ENDP			; CGrannyMesh::IsEmpty
_TEXT	ENDS
; Function compile flags: /Ogtp
; File C:\Users\flourine\Desktop\Xantios\client-src\Code\eterGrnLib\Mesh.cpp
; File C:\Program Files\Microsoft Visual Studio\2022\Community\VC\Tools\MSVC\14.34.31933\include\vector
; File C:\Program Files\Microsoft Visual Studio\2022\Community\VC\Tools\MSVC\14.34.31933\include\xmemory
; File C:\Program Files\Microsoft Visual Studio\2022\Community\VC\Tools\MSVC\14.34.31933\include\vector
; File C:\Program Files\Microsoft Visual Studio\2022\Community\VC\Tools\MSVC\14.34.31933\include\xmemory
; File C:\Program Files\Microsoft Visual Studio\2022\Community\VC\Tools\MSVC\14.34.31933\include\vector
; File C:\Users\flourine\Desktop\Xantios\client-src\Code\eterGrnLib\Mesh.cpp
; File C:\Program Files\Microsoft Visual Studio\2022\Community\VC\Tools\MSVC\14.34.31933\include\xmemory
; File C:\Users\flourine\Desktop\Xantios\client-src\Code\eterGrnLib\Mesh.cpp
;	COMDAT ??1CGrannyMesh@@UAE@XZ
_TEXT	SEGMENT
??1CGrannyMesh@@UAE@XZ PROC				; CGrannyMesh::~CGrannyMesh, COMDAT
; _this$ = ecx

; 356  : {

  00000	56		 push	 esi
  00001	8b f1		 mov	 esi, ecx
  00003	c7 06 00 00 00
	00		 mov	 DWORD PTR [esi], OFFSET ??_7CGrannyMesh@@6B@

; 357  : 	Destroy();

  00009	e8 00 00 00 00	 call	 ?Destroy@CGrannyMesh@@QAEXXZ ; CGrannyMesh::Destroy
; File C:\Program Files\Microsoft Visual Studio\2022\Community\VC\Tools\MSVC\14.34.31933\include\vector

; 2107 :         if (_Myfirst) { // destroy and deallocate old array

  0000e	8b 46 14	 mov	 eax, DWORD PTR [esi+20]
  00011	85 c0		 test	 eax, eax
  00013	74 41		 je	 SHORT $LN6@CGrannyMes

; 2108 :             _Destroy_range(_Myfirst, _Mylast, _Al);
; 2109 :             _ASAN_VECTOR_REMOVE;
; 2110 :             _Al.deallocate(_Myfirst, static_cast<size_type>(_Myend - _Myfirst));

  00015	8b 4e 1c	 mov	 ecx, DWORD PTR [esi+28]
  00018	2b c8		 sub	 ecx, eax
; File C:\Program Files\Microsoft Visual Studio\2022\Community\VC\Tools\MSVC\14.34.31933\include\xmemory

; 830  :         _Deallocate<_New_alignof<_Ty>>(_Ptr, sizeof(_Ty) * _Count);

  0001a	83 e1 fc	 and	 ecx, -4			; fffffffcH

; 251  :         if (_Bytes >= _Big_allocation_threshold) { // boost the alignment of big allocations to help autovectorization

  0001d	81 f9 00 10 00
	00		 cmp	 ecx, 4096		; 00001000H
  00023	72 12		 jb	 SHORT $LN22@CGrannyMes

; 150  :     const uintptr_t _Ptr_container   = _Ptr_user[-1];

  00025	8b 50 fc	 mov	 edx, DWORD PTR [eax-4]
  00028	83 c1 23	 add	 ecx, 35			; 00000023H

; 151  : 
; 152  :     // If the following asserts, it likely means that we are performing
; 153  :     // an aligned delete on memory coming from an unaligned allocation.
; 154  :     _STL_ASSERT(_Ptr_user[-2] == _Big_allocation_sentinel, "invalid argument");
; 155  : 
; 156  :     // Extra paranoia on aligned allocation/deallocation; ensure _Ptr_container is
; 157  :     // in range [_Min_back_shift, _Non_user_size]
; 158  : #ifdef _DEBUG
; 159  :     constexpr uintptr_t _Min_back_shift = 2 * sizeof(void*);
; 160  : #else // ^^^ _DEBUG ^^^ // vvv !_DEBUG vvv
; 161  :     constexpr uintptr_t _Min_back_shift = sizeof(void*);
; 162  : #endif // _DEBUG
; 163  :     const uintptr_t _Back_shift = reinterpret_cast<uintptr_t>(_Ptr) - _Ptr_container;

  0002b	2b c2		 sub	 eax, edx

; 164  :     _STL_VERIFY(_Back_shift >= _Min_back_shift && _Back_shift <= _Non_user_size, "invalid argument");

  0002d	83 c0 fc	 add	 eax, -4			; fffffffcH
  00030	83 f8 1f	 cmp	 eax, 31			; 0000001fH
  00033	77 23		 ja	 SHORT $LN19@CGrannyMes

; 165  :     _Ptr = reinterpret_cast<void*>(_Ptr_container);

  00035	8b c2		 mov	 eax, edx
$LN22@CGrannyMes:

; 255  :         ::operator delete(_Ptr, _Bytes);

  00037	51		 push	 ecx
  00038	50		 push	 eax
  00039	e8 00 00 00 00	 call	 ??3@YAXPAXI@Z		; operator delete
; File C:\Program Files\Microsoft Visual Studio\2022\Community\VC\Tools\MSVC\14.34.31933\include\vector

; 2112 :             _Myfirst = nullptr;

  0003e	c7 46 14 00 00
	00 00		 mov	 DWORD PTR [esi+20], 0
; File C:\Program Files\Microsoft Visual Studio\2022\Community\VC\Tools\MSVC\14.34.31933\include\xmemory

; 255  :         ::operator delete(_Ptr, _Bytes);

  00045	83 c4 08	 add	 esp, 8
; File C:\Program Files\Microsoft Visual Studio\2022\Community\VC\Tools\MSVC\14.34.31933\include\vector

; 2113 :             _Mylast  = nullptr;

  00048	c7 46 18 00 00
	00 00		 mov	 DWORD PTR [esi+24], 0

; 2114 :             _Myend   = nullptr;

  0004f	c7 46 1c 00 00
	00 00		 mov	 DWORD PTR [esi+28], 0
$LN6@CGrannyMes:
  00056	5e		 pop	 esi
; File C:\Users\flourine\Desktop\Xantios\client-src\Code\eterGrnLib\Mesh.cpp

; 358  : }

  00057	c3		 ret	 0
$LN19@CGrannyMes:
; File C:\Program Files\Microsoft Visual Studio\2022\Community\VC\Tools\MSVC\14.34.31933\include\xmemory

; 164  :     _STL_VERIFY(_Back_shift >= _Min_back_shift && _Back_shift <= _Non_user_size, "invalid argument");

  00058	e8 00 00 00 00	 call	 __invalid_parameter_noinfo_noreturn
$LN28@CGrannyMes:
  0005d	cc		 int	 3
??1CGrannyMesh@@UAE@XZ ENDP				; CGrannyMesh::~CGrannyMesh
_TEXT	ENDS
; Function compile flags: /Ogtp
; File C:\Users\flourine\Desktop\Xantios\client-src\Code\eterGrnLib\Mesh.cpp
; File C:\Program Files\Microsoft Visual Studio\2022\Community\VC\Tools\MSVC\14.34.31933\include\vector
; File C:\Users\flourine\Desktop\Xantios\client-src\Code\eterGrnLib\Mesh.cpp
;	COMDAT ??0CGrannyMesh@@QAE@XZ
_TEXT	SEGMENT
_this$ = -4						; size = 4
??0CGrannyMesh@@QAE@XZ PROC				; CGrannyMesh::CGrannyMesh, COMDAT
; _this$ = ecx

; 351  : {

  00000	55		 push	 ebp
  00001	8b ec		 mov	 ebp, esp
  00003	51		 push	 ecx
  00004	56		 push	 esi
  00005	8b f1		 mov	 esi, ecx
  00007	89 75 fc	 mov	 DWORD PTR _this$[ebp], esi
  0000a	c7 06 00 00 00
	00		 mov	 DWORD PTR [esi], OFFSET ??_7CGrannyMesh@@6B@
; File C:\Program Files\Microsoft Visual Studio\2022\Community\VC\Tools\MSVC\14.34.31933\include\vector

; 390  :     _CONSTEXPR20 _Vector_val() noexcept : _Myfirst(), _Mylast(), _Myend() {}

  00010	c7 46 14 00 00
	00 00		 mov	 DWORD PTR [esi+20], 0
  00017	c7 46 18 00 00
	00 00		 mov	 DWORD PTR [esi+24], 0
  0001e	c7 46 1c 00 00
	00 00		 mov	 DWORD PTR [esi+28], 0
; File C:\Users\flourine\Desktop\Xantios\client-src\Code\eterGrnLib\Mesh.cpp

; 352  : 	Initialize();

  00025	e8 00 00 00 00	 call	 ?Initialize@CGrannyMesh@@IAEXXZ ; CGrannyMesh::Initialize

; 353  : }

  0002a	8b c6		 mov	 eax, esi
  0002c	5e		 pop	 esi
  0002d	8b e5		 mov	 esp, ebp
  0002f	5d		 pop	 ebp
  00030	c3		 ret	 0
??0CGrannyMesh@@QAE@XZ ENDP				; CGrannyMesh::CGrannyMesh
_TEXT	ENDS
; Function compile flags: /Ogtp
; File C:\Program Files\Microsoft Visual Studio\2022\Community\VC\Tools\MSVC\14.34.31933\include\exception
;	COMDAT ?_Throw_bad_array_new_length@std@@YAXXZ
_TEXT	SEGMENT
$T1 = -12						; size = 12
?_Throw_bad_array_new_length@std@@YAXXZ PROC		; std::_Throw_bad_array_new_length, COMDAT

; 323  : [[noreturn]] inline void _Throw_bad_array_new_length() {

  00000	55		 push	 ebp
  00001	8b ec		 mov	 ebp, esp
  00003	83 ec 0c	 sub	 esp, 12			; 0000000cH

; 324  :     _THROW(bad_array_new_length{});

  00006	8d 4d f4	 lea	 ecx, DWORD PTR $T1[ebp]
  00009	e8 00 00 00 00	 call	 ??0bad_array_new_length@std@@QAE@XZ ; std::bad_array_new_length::bad_array_new_length
  0000e	68 00 00 00 00	 push	 OFFSET __TI3?AVbad_array_new_length@std@@
  00013	8d 45 f4	 lea	 eax, DWORD PTR $T1[ebp]
  00016	50		 push	 eax
  00017	e8 00 00 00 00	 call	 __CxxThrowException@8
$LN3@Throw_bad_:
  0001c	cc		 int	 3
?_Throw_bad_array_new_length@std@@YAXXZ ENDP		; std::_Throw_bad_array_new_length
_TEXT	ENDS
; Function compile flags: /Ogtp
; File C:\Program Files\Microsoft Visual Studio\2022\Community\VC\Tools\MSVC\14.34.31933\include\vcruntime_exception.h
;	COMDAT ??_Gbad_array_new_length@std@@UAEPAXI@Z
_TEXT	SEGMENT
___flags$ = 8						; size = 4
??_Gbad_array_new_length@std@@UAEPAXI@Z PROC		; std::bad_array_new_length::`scalar deleting destructor', COMDAT
; _this$ = ecx
  00000	55		 push	 ebp
  00001	8b ec		 mov	 ebp, esp

; 89   :     {

  00003	56		 push	 esi
  00004	8b f1		 mov	 esi, ecx

; 90   :         __std_exception_destroy(&_Data);

  00006	8d 46 04	 lea	 eax, DWORD PTR [esi+4]
  00009	c7 06 00 00 00
	00		 mov	 DWORD PTR [esi], OFFSET ??_7exception@std@@6B@
  0000f	50		 push	 eax
  00010	e8 00 00 00 00	 call	 ___std_exception_destroy
  00015	83 c4 04	 add	 esp, 4
  00018	f6 45 08 01	 test	 BYTE PTR ___flags$[ebp], 1
  0001c	74 0b		 je	 SHORT $LN12@scalar
  0001e	6a 0c		 push	 12			; 0000000cH
  00020	56		 push	 esi
  00021	e8 00 00 00 00	 call	 ??3@YAXPAXI@Z		; operator delete
  00026	83 c4 08	 add	 esp, 8
$LN12@scalar:
  00029	8b c6		 mov	 eax, esi
  0002b	5e		 pop	 esi
  0002c	5d		 pop	 ebp
  0002d	c2 04 00	 ret	 4
??_Gbad_array_new_length@std@@UAEPAXI@Z ENDP		; std::bad_array_new_length::`scalar deleting destructor'
_TEXT	ENDS
; Function compile flags: /Ogtp
; File C:\Program Files\Microsoft Visual Studio\2022\Community\VC\Tools\MSVC\14.34.31933\include\vcruntime_exception.h
;	COMDAT ??0bad_array_new_length@std@@QAE@ABV01@@Z
_TEXT	SEGMENT
___that$ = 8						; size = 4
??0bad_array_new_length@std@@QAE@ABV01@@Z PROC		; std::bad_array_new_length::bad_array_new_length, COMDAT
; _this$ = ecx
  00000	55		 push	 ebp
  00001	8b ec		 mov	 ebp, esp

; 72   :     {

  00003	56		 push	 esi
  00004	8b f1		 mov	 esi, ecx
  00006	0f 57 c0	 xorps	 xmm0, xmm0

; 71   :         : _Data()

  00009	8d 46 04	 lea	 eax, DWORD PTR [esi+4]

; 73   :         __std_exception_copy(&_Other._Data, &_Data);

  0000c	50		 push	 eax
  0000d	c7 06 00 00 00
	00		 mov	 DWORD PTR [esi], OFFSET ??_7exception@std@@6B@
  00013	66 0f d6 00	 movq	 QWORD PTR [eax], xmm0
  00017	8b 45 08	 mov	 eax, DWORD PTR ___that$[ebp]
  0001a	83 c0 04	 add	 eax, 4
  0001d	50		 push	 eax
  0001e	e8 00 00 00 00	 call	 ___std_exception_copy
  00023	83 c4 08	 add	 esp, 8
  00026	c7 06 00 00 00
	00		 mov	 DWORD PTR [esi], OFFSET ??_7bad_array_new_length@std@@6B@
  0002c	8b c6		 mov	 eax, esi
  0002e	5e		 pop	 esi
  0002f	5d		 pop	 ebp
  00030	c2 04 00	 ret	 4
??0bad_array_new_length@std@@QAE@ABV01@@Z ENDP		; std::bad_array_new_length::bad_array_new_length
_TEXT	ENDS
; Function compile flags: /Ogtp
; File C:\Program Files\Microsoft Visual Studio\2022\Community\VC\Tools\MSVC\14.34.31933\include\vcruntime_exception.h
;	COMDAT ??1bad_array_new_length@std@@UAE@XZ
_TEXT	SEGMENT
??1bad_array_new_length@std@@UAE@XZ PROC		; std::bad_array_new_length::~bad_array_new_length, COMDAT
; _this$ = ecx

; 90   :         __std_exception_destroy(&_Data);

  00000	8d 41 04	 lea	 eax, DWORD PTR [ecx+4]
  00003	c7 01 00 00 00
	00		 mov	 DWORD PTR [ecx], OFFSET ??_7exception@std@@6B@
  00009	50		 push	 eax
  0000a	e8 00 00 00 00	 call	 ___std_exception_destroy
  0000f	59		 pop	 ecx
  00010	c3		 ret	 0
??1bad_array_new_length@std@@UAE@XZ ENDP		; std::bad_array_new_length::~bad_array_new_length
_TEXT	ENDS
; Function compile flags: /Ogtp
; File C:\Program Files\Microsoft Visual Studio\2022\Community\VC\Tools\MSVC\14.34.31933\include\vcruntime_exception.h
;	COMDAT ??0bad_array_new_length@std@@QAE@XZ
_TEXT	SEGMENT
??0bad_array_new_length@std@@QAE@XZ PROC		; std::bad_array_new_length::bad_array_new_length, COMDAT
; _this$ = ecx

; 141  :     {

  00000	0f 57 c0	 xorps	 xmm0, xmm0

; 142  :     }

  00003	8b c1		 mov	 eax, ecx

; 65   :         : _Data()

  00005	66 0f d6 41 04	 movq	 QWORD PTR [ecx+4], xmm0

; 66   :     {
; 67   :         _Data._What = _Message;

  0000a	c7 41 04 00 00
	00 00		 mov	 DWORD PTR [ecx+4], OFFSET ??_C@_0BF@KINCDENJ@bad?5array?5new?5length@

; 141  :     {

  00011	c7 01 00 00 00
	00		 mov	 DWORD PTR [ecx], OFFSET ??_7bad_array_new_length@std@@6B@

; 142  :     }

  00017	c3		 ret	 0
??0bad_array_new_length@std@@QAE@XZ ENDP		; std::bad_array_new_length::bad_array_new_length
_TEXT	ENDS
; Function compile flags: /Ogtp
; File C:\Program Files\Microsoft Visual Studio\2022\Community\VC\Tools\MSVC\14.34.31933\include\vcruntime_exception.h
;	COMDAT ??_Gbad_alloc@std@@UAEPAXI@Z
_TEXT	SEGMENT
___flags$ = 8						; size = 4
??_Gbad_alloc@std@@UAEPAXI@Z PROC			; std::bad_alloc::`scalar deleting destructor', COMDAT
; _this$ = ecx
  00000	55		 push	 ebp
  00001	8b ec		 mov	 ebp, esp

; 89   :     {

  00003	56		 push	 esi
  00004	8b f1		 mov	 esi, ecx

; 90   :         __std_exception_destroy(&_Data);

  00006	8d 46 04	 lea	 eax, DWORD PTR [esi+4]
  00009	c7 06 00 00 00
	00		 mov	 DWORD PTR [esi], OFFSET ??_7exception@std@@6B@
  0000f	50		 push	 eax
  00010	e8 00 00 00 00	 call	 ___std_exception_destroy
  00015	83 c4 04	 add	 esp, 4
  00018	f6 45 08 01	 test	 BYTE PTR ___flags$[ebp], 1
  0001c	74 0b		 je	 SHORT $LN9@scalar
  0001e	6a 0c		 push	 12			; 0000000cH
  00020	56		 push	 esi
  00021	e8 00 00 00 00	 call	 ??3@YAXPAXI@Z		; operator delete
  00026	83 c4 08	 add	 esp, 8
$LN9@scalar:
  00029	8b c6		 mov	 eax, esi
  0002b	5e		 pop	 esi
  0002c	5d		 pop	 ebp
  0002d	c2 04 00	 ret	 4
??_Gbad_alloc@std@@UAEPAXI@Z ENDP			; std::bad_alloc::`scalar deleting destructor'
_TEXT	ENDS
; Function compile flags: /Ogtp
; File C:\Program Files\Microsoft Visual Studio\2022\Community\VC\Tools\MSVC\14.34.31933\include\vcruntime_exception.h
;	COMDAT ??0bad_alloc@std@@QAE@ABV01@@Z
_TEXT	SEGMENT
___that$ = 8						; size = 4
??0bad_alloc@std@@QAE@ABV01@@Z PROC			; std::bad_alloc::bad_alloc, COMDAT
; _this$ = ecx
  00000	55		 push	 ebp
  00001	8b ec		 mov	 ebp, esp

; 72   :     {

  00003	56		 push	 esi
  00004	8b f1		 mov	 esi, ecx
  00006	0f 57 c0	 xorps	 xmm0, xmm0

; 71   :         : _Data()

  00009	8d 46 04	 lea	 eax, DWORD PTR [esi+4]

; 73   :         __std_exception_copy(&_Other._Data, &_Data);

  0000c	50		 push	 eax
  0000d	c7 06 00 00 00
	00		 mov	 DWORD PTR [esi], OFFSET ??_7exception@std@@6B@
  00013	66 0f d6 00	 movq	 QWORD PTR [eax], xmm0
  00017	8b 45 08	 mov	 eax, DWORD PTR ___that$[ebp]
  0001a	83 c0 04	 add	 eax, 4
  0001d	50		 push	 eax
  0001e	e8 00 00 00 00	 call	 ___std_exception_copy
  00023	83 c4 08	 add	 esp, 8
  00026	c7 06 00 00 00
	00		 mov	 DWORD PTR [esi], OFFSET ??_7bad_alloc@std@@6B@
  0002c	8b c6		 mov	 eax, esi
  0002e	5e		 pop	 esi
  0002f	5d		 pop	 ebp
  00030	c2 04 00	 ret	 4
??0bad_alloc@std@@QAE@ABV01@@Z ENDP			; std::bad_alloc::bad_alloc
_TEXT	ENDS
; Function compile flags: /Ogtp
; File C:\Program Files\Microsoft Visual Studio\2022\Community\VC\Tools\MSVC\14.34.31933\include\vcruntime_exception.h
;	COMDAT ??_Gexception@std@@UAEPAXI@Z
_TEXT	SEGMENT
___flags$ = 8						; size = 4
??_Gexception@std@@UAEPAXI@Z PROC			; std::exception::`scalar deleting destructor', COMDAT
; _this$ = ecx
  00000	55		 push	 ebp
  00001	8b ec		 mov	 ebp, esp

; 89   :     {

  00003	56		 push	 esi
  00004	8b f1		 mov	 esi, ecx

; 90   :         __std_exception_destroy(&_Data);

  00006	8d 46 04	 lea	 eax, DWORD PTR [esi+4]
  00009	c7 06 00 00 00
	00		 mov	 DWORD PTR [esi], OFFSET ??_7exception@std@@6B@
  0000f	50		 push	 eax
  00010	e8 00 00 00 00	 call	 ___std_exception_destroy
  00015	83 c4 04	 add	 esp, 4
  00018	f6 45 08 01	 test	 BYTE PTR ___flags$[ebp], 1
  0001c	74 0b		 je	 SHORT $LN6@scalar
  0001e	6a 0c		 push	 12			; 0000000cH
  00020	56		 push	 esi
  00021	e8 00 00 00 00	 call	 ??3@YAXPAXI@Z		; operator delete
  00026	83 c4 08	 add	 esp, 8
$LN6@scalar:
  00029	8b c6		 mov	 eax, esi
  0002b	5e		 pop	 esi
  0002c	5d		 pop	 ebp
  0002d	c2 04 00	 ret	 4
??_Gexception@std@@UAEPAXI@Z ENDP			; std::exception::`scalar deleting destructor'
_TEXT	ENDS
; Function compile flags: /Ogtp
; File C:\Program Files\Microsoft Visual Studio\2022\Community\VC\Tools\MSVC\14.34.31933\include\vcruntime_exception.h
;	COMDAT ?what@exception@std@@UBEPBDXZ
_TEXT	SEGMENT
?what@exception@std@@UBEPBDXZ PROC			; std::exception::what, COMDAT
; _this$ = ecx

; 95   :         return _Data._What ? _Data._What : "Unknown exception";

  00000	8b 49 04	 mov	 ecx, DWORD PTR [ecx+4]
  00003	b8 00 00 00 00	 mov	 eax, OFFSET ??_C@_0BC@EOODALEL@Unknown?5exception@
  00008	85 c9		 test	 ecx, ecx
  0000a	0f 45 c1	 cmovne	 eax, ecx

; 96   :     }

  0000d	c3		 ret	 0
?what@exception@std@@UBEPBDXZ ENDP			; std::exception::what
_TEXT	ENDS
; Function compile flags: /Ogtp
; File C:\Program Files\Microsoft Visual Studio\2022\Community\VC\Tools\MSVC\14.34.31933\include\vcruntime_exception.h
;	COMDAT ??1exception@std@@UAE@XZ
_TEXT	SEGMENT
??1exception@std@@UAE@XZ PROC				; std::exception::~exception, COMDAT
; _this$ = ecx

; 90   :         __std_exception_destroy(&_Data);

  00000	8d 41 04	 lea	 eax, DWORD PTR [ecx+4]
  00003	c7 01 00 00 00
	00		 mov	 DWORD PTR [ecx], OFFSET ??_7exception@std@@6B@
  00009	50		 push	 eax
  0000a	e8 00 00 00 00	 call	 ___std_exception_destroy
  0000f	59		 pop	 ecx

; 91   :     }

  00010	c3		 ret	 0
??1exception@std@@UAE@XZ ENDP				; std::exception::~exception
_TEXT	ENDS
; Function compile flags: /Ogtp
; File C:\Program Files\Microsoft Visual Studio\2022\Community\VC\Tools\MSVC\14.34.31933\include\vcruntime_exception.h
;	COMDAT ??0exception@std@@QAE@ABV01@@Z
_TEXT	SEGMENT
__Other$ = 8						; size = 4
??0exception@std@@QAE@ABV01@@Z PROC			; std::exception::exception, COMDAT
; _this$ = ecx

; 72   :     {

  00000	55		 push	 ebp
  00001	8b ec		 mov	 ebp, esp
  00003	56		 push	 esi
  00004	8b f1		 mov	 esi, ecx
  00006	0f 57 c0	 xorps	 xmm0, xmm0
  00009	8d 46 04	 lea	 eax, DWORD PTR [esi+4]

; 73   :         __std_exception_copy(&_Other._Data, &_Data);

  0000c	50		 push	 eax
  0000d	c7 06 00 00 00
	00		 mov	 DWORD PTR [esi], OFFSET ??_7exception@std@@6B@
  00013	66 0f d6 00	 movq	 QWORD PTR [eax], xmm0
  00017	8b 45 08	 mov	 eax, DWORD PTR __Other$[ebp]
  0001a	83 c0 04	 add	 eax, 4
  0001d	50		 push	 eax
  0001e	e8 00 00 00 00	 call	 ___std_exception_copy
  00023	83 c4 08	 add	 esp, 8

; 74   :     }

  00026	8b c6		 mov	 eax, esi
  00028	5e		 pop	 esi
  00029	5d		 pop	 ebp
  0002a	c2 04 00	 ret	 4
??0exception@std@@QAE@ABV01@@Z ENDP			; std::exception::exception
_TEXT	ENDS
END
