; Listing generated by Microsoft (R) Optimizing Compiler Version 19.34.31942.0 

	TITLE	C:\Users\flourine\Desktop\Xantios\client-src\Code\eterGrnLib\Distribute\ModelInstanceRender.obj
	.686P
	.XMM
	include listing.inc
	.model	flat

INCLUDELIB LIBCMT
INCLUDELIB OLDNAMES

PUBLIC	??_H@YGXPAXIIP6EPAX0@Z@Z			; `vector constructor iterator'
PUBLIC	?DeformNoSkin@CGrannyModelInstance@@QAEXPBUD3DXMATRIX@@@Z ; CGrannyModelInstance::DeformNoSkin
PUBLIC	?RenderWithOneTexture@CGrannyModelInstance@@QAEXXZ ; CGrannyModelInstance::RenderWithOneTexture
PUBLIC	?RenderWithTwoTexture@CGrannyModelInstance@@QAEXXZ ; CGrannyModelInstance::RenderWithTwoTexture
PUBLIC	?BlendRenderWithOneTexture@CGrannyModelInstance@@QAEXXZ ; CGrannyModelInstance::BlendRenderWithOneTexture
PUBLIC	?BlendRenderWithTwoTexture@CGrannyModelInstance@@QAEXXZ ; CGrannyModelInstance::BlendRenderWithTwoTexture
PUBLIC	?RenderWithoutTexture@CGrannyModelInstance@@QAEXXZ ; CGrannyModelInstance::RenderWithoutTexture
PUBLIC	?RenderMeshNodeListWithOneTexture@CGrannyModelInstance@@IAEXW4EType@CGrannyMesh@@W42CGrannyMaterial@@@Z ; CGrannyModelInstance::RenderMeshNodeListWithOneTexture
PUBLIC	?RenderMeshNodeListWithTwoTexture@CGrannyModelInstance@@IAEXW4EType@CGrannyMesh@@W42CGrannyMaterial@@@Z ; CGrannyModelInstance::RenderMeshNodeListWithTwoTexture
PUBLIC	?RenderMeshNodeListWithoutTexture@CGrannyModelInstance@@IAEXW4EType@CGrannyMesh@@W42CGrannyMaterial@@@Z ; CGrannyModelInstance::RenderMeshNodeListWithoutTexture
PUBLIC	?ms_singleton@?$CSingleton@VCStateManager@@@@0PAVCStateManager@@A ; CSingleton<CStateManager>::ms_singleton
EXTRN	?SetTexture@CStateManager@@QAEXKPAUIDirect3DBaseTexture9@@@Z:PROC ; CStateManager::SetTexture
EXTRN	?SetFVF@CStateManager@@QAEXK@Z:PROC		; CStateManager::SetFVF
EXTRN	?SetTransform@CStateManager@@QAEXW4_D3DTRANSFORMSTATETYPE@@PBU_D3DMATRIX@@@Z:PROC ; CStateManager::SetTransform
EXTRN	?SetStreamSource@CStateManager@@QAEXIPAUIDirect3DVertexBuffer9@@I@Z:PROC ; CStateManager::SetStreamSource
EXTRN	?SetIndices@CStateManager@@QAEXPAUIDirect3DIndexBuffer9@@I@Z:PROC ; CStateManager::SetIndices
EXTRN	?DrawIndexedPrimitive@CStateManager@@QAEJW4_D3DPRIMITIVETYPE@@IIIIH@Z:PROC ; CStateManager::DrawIndexedPrimitive
EXTRN	?ApplyRenderState@CGrannyMaterial@@QAEXXZ:PROC	; CGrannyMaterial::ApplyRenderState
EXTRN	?RestoreRenderState@CGrannyMaterial@@QAEXXZ:PROC ; CGrannyMaterial::RestoreRenderState
EXTRN	?GetD3DTexture@CGrannyMaterial@@QBEPAUIDirect3DTexture9@@H@Z:PROC ; CGrannyMaterial::GetD3DTexture
EXTRN	?GetMaterialRef@CGrannyMaterialPalette@@QAEAAVCGrannyMaterial@@K@Z:PROC ; CGrannyMaterialPalette::GetMaterialRef
EXTRN	?GetVertexCount@CGrannyMesh@@QBEHXZ:PROC	; CGrannyMesh::GetVertexCount
EXTRN	?GetVertexBasePosition@CGrannyMesh@@QBEHXZ:PROC	; CGrannyMesh::GetVertexBasePosition
EXTRN	?GetTriGroupNodeList@CGrannyMesh@@QBEPBUSTriGroupNode@1@W4EType@CGrannyMaterial@@@Z:PROC ; CGrannyMesh::GetTriGroupNodeList
EXTRN	?GetPNTD3DVertexBuffer@CGrannyModel@@QBEPAUIDirect3DVertexBuffer9@@XZ:PROC ; CGrannyModel::GetPNTD3DVertexBuffer
EXTRN	?GetD3DIndexBuffer@CGrannyModel@@QBEPAUIDirect3DIndexBuffer9@@XZ:PROC ; CGrannyModel::GetD3DIndexBuffer
EXTRN	?GetMeshNodeList@CGrannyModel@@QBEPBUSMeshNode@1@W4EType@CGrannyMesh@@W43CGrannyMaterial@@@Z:PROC ; CGrannyModel::GetMeshNodeList
EXTRN	?IsEmpty@CGrannyModelInstance@@QAE_NXZ:PROC	; CGrannyModelInstance::IsEmpty
EXTRN	?__GetDeformableD3DVertexBufferPtr@CGrannyModelInstance@@IAEPAUIDirect3DVertexBuffer9@@XZ:PROC ; CGrannyModelInstance::__GetDeformableD3DVertexBufferPtr
EXTRN	?UpdateWorldPose@CGrannyModelInstance@@IAEXXZ:PROC ; CGrannyModelInstance::UpdateWorldPose
EXTRN	?UpdateWorldMatrices@CGrannyModelInstance@@IAEXPBUD3DXMATRIX@@@Z:PROC ; CGrannyModelInstance::UpdateWorldMatrices
EXTRN	?ms_faceCount@CGraphicBase@@1KA:DWORD		; CGraphicBase::ms_faceCount
EXTRN	?ms_pntVS@CGraphicBase@@1KA:DWORD		; CGraphicBase::ms_pntVS
;	COMDAT ?ms_singleton@?$CSingleton@VCStateManager@@@@0PAVCStateManager@@A
_BSS	SEGMENT
?ms_singleton@?$CSingleton@VCStateManager@@@@0PAVCStateManager@@A DD 01H DUP (?) ; CSingleton<CStateManager>::ms_singleton
_BSS	ENDS
; Function compile flags: /Ogtp
; File C:\Users\flourine\Desktop\Xantios\client-src\Code\eterGrnLib\ModelInstanceRender.cpp
;	COMDAT ?RenderMeshNodeListWithoutTexture@CGrannyModelInstance@@IAEXW4EType@CGrannyMesh@@W42CGrannyMaterial@@@Z
_TEXT	SEGMENT
_this$1$ = -16						; size = 4
_vtxCount$1$ = -12					; size = 4
_vtxMeshBasePos$1$ = -8					; size = 4
_lpd3dIdxBuf$1$ = -4					; size = 4
_pMeshNode$1$ = 8					; size = 4
_eMeshType$ = 8						; size = 4
_eMtrlType$ = 12					; size = 4
?RenderMeshNodeListWithoutTexture@CGrannyModelInstance@@IAEXW4EType@CGrannyMesh@@W42CGrannyMaterial@@@Z PROC ; CGrannyModelInstance::RenderMeshNodeListWithoutTexture, COMDAT
; _this$ = ecx

; 227  : {

  00000	55		 push	 ebp
  00001	8b ec		 mov	 ebp, esp
  00003	83 ec 10	 sub	 esp, 16			; 00000010H
  00006	53		 push	 ebx
  00007	56		 push	 esi
  00008	8b f1		 mov	 esi, ecx
  0000a	89 75 f0	 mov	 DWORD PTR _this$1$[ebp], esi

; 228  : 	assert(m_pModel != NULL);
; 229  : 
; 230  : 	LPDIRECT3DINDEXBUFFER9 lpd3dIdxBuf = m_pModel->GetD3DIndexBuffer();

  0000d	8b 4e 04	 mov	 ecx, DWORD PTR [esi+4]
  00010	e8 00 00 00 00	 call	 ?GetD3DIndexBuffer@CGrannyModel@@QBEPAUIDirect3DIndexBuffer9@@XZ ; CGrannyModel::GetD3DIndexBuffer

; 231  : 	assert(lpd3dIdxBuf != NULL);
; 232  : 
; 233  : 	const CGrannyModel::TMeshNode * pMeshNode = m_pModel->GetMeshNodeList(eMeshType, eMtrlType);

  00015	ff 75 0c	 push	 DWORD PTR _eMtrlType$[ebp]
  00018	8b 4e 04	 mov	 ecx, DWORD PTR [esi+4]
  0001b	ff 75 08	 push	 DWORD PTR _eMeshType$[ebp]
  0001e	89 45 fc	 mov	 DWORD PTR _lpd3dIdxBuf$1$[ebp], eax
  00021	e8 00 00 00 00	 call	 ?GetMeshNodeList@CGrannyModel@@QBEPBUSMeshNode@1@W4EType@CGrannyMesh@@W43CGrannyMaterial@@@Z ; CGrannyModel::GetMeshNodeList
  00026	8b d8		 mov	 ebx, eax
  00028	89 45 08	 mov	 DWORD PTR _pMeshNode$1$[ebp], eax

; 234  : 
; 235  : 	while (pMeshNode)

  0002b	85 db		 test	 ebx, ebx
  0002d	0f 84 98 00 00
	00		 je	 $LN3@RenderMesh
  00033	57		 push	 edi
$LL2@RenderMesh:

; 236  : 	{
; 237  : 		const CGrannyMesh * pMesh = pMeshNode->pMesh;

  00034	8b 7b 04	 mov	 edi, DWORD PTR [ebx+4]

; 238  : 		int vtxMeshBasePos = pMesh->GetVertexBasePosition();

  00037	8b cf		 mov	 ecx, edi
  00039	e8 00 00 00 00	 call	 ?GetVertexBasePosition@CGrannyMesh@@QBEHXZ ; CGrannyMesh::GetVertexBasePosition

; 239  : 
; 240  : 		STATEMANAGER.SetIndices(lpd3dIdxBuf, vtxMeshBasePos);

  0003e	8b 0d 00 00 00
	00		 mov	 ecx, DWORD PTR ?ms_singleton@?$CSingleton@VCStateManager@@@@0PAVCStateManager@@A ; CSingleton<CStateManager>::ms_singleton
  00044	50		 push	 eax
  00045	ff 75 fc	 push	 DWORD PTR _lpd3dIdxBuf$1$[ebp]
  00048	89 45 f8	 mov	 DWORD PTR _vtxMeshBasePos$1$[ebp], eax
  0004b	e8 00 00 00 00	 call	 ?SetIndices@CStateManager@@QAEXPAUIDirect3DIndexBuffer9@@I@Z ; CStateManager::SetIndices

; 241  : 		STATEMANAGER.SetTransform(D3DTS_WORLD, &m_meshMatrices[pMeshNode->iMesh]);

  00050	8b 13		 mov	 edx, DWORD PTR [ebx]
  00052	8b 0d 00 00 00
	00		 mov	 ecx, DWORD PTR ?ms_singleton@?$CSingleton@VCStateManager@@@@0PAVCStateManager@@A ; CSingleton<CStateManager>::ms_singleton
  00058	c1 e2 06	 shl	 edx, 6
  0005b	03 56 14	 add	 edx, DWORD PTR [esi+20]
  0005e	52		 push	 edx
  0005f	68 00 01 00 00	 push	 256			; 00000100H
  00064	e8 00 00 00 00	 call	 ?SetTransform@CStateManager@@QAEXW4_D3DTRANSFORMSTATETYPE@@PBU_D3DMATRIX@@@Z ; CStateManager::SetTransform

; 242  : 
; 243  : 		/////
; 244  : 		const CGrannyMesh::TTriGroupNode* pTriGroupNode = pMesh->GetTriGroupNodeList(eMtrlType);

  00069	ff 75 0c	 push	 DWORD PTR _eMtrlType$[ebp]
  0006c	8b cf		 mov	 ecx, edi
  0006e	e8 00 00 00 00	 call	 ?GetTriGroupNodeList@CGrannyMesh@@QBEPBUSTriGroupNode@1@W4EType@CGrannyMaterial@@@Z ; CGrannyMesh::GetTriGroupNodeList

; 245  : 		int vtxCount = pMesh->GetVertexCount();

  00073	8b cf		 mov	 ecx, edi
  00075	8b f0		 mov	 esi, eax
  00077	e8 00 00 00 00	 call	 ?GetVertexCount@CGrannyMesh@@QBEHXZ ; CGrannyMesh::GetVertexCount
  0007c	89 45 f4	 mov	 DWORD PTR _vtxCount$1$[ebp], eax

; 246  : 
; 247  : 		while (pTriGroupNode)

  0007f	85 f6		 test	 esi, esi
  00081	74 36		 je	 SHORT $LN5@RenderMesh
  00083	8b 7d f8	 mov	 edi, DWORD PTR _vtxMeshBasePos$1$[ebp]
  00086	8b d8		 mov	 ebx, eax
  00088	0f 1f 84 00 00
	00 00 00	 npad	 8
$LL4@RenderMesh:

; 248  : 		{
; 249  : 			ms_faceCount += pTriGroupNode->triCount;

  00090	8b 4e 08	 mov	 ecx, DWORD PTR [esi+8]
  00093	01 0d 00 00 00
	00		 add	 DWORD PTR ?ms_faceCount@CGraphicBase@@1KA, ecx ; CGraphicBase::ms_faceCount

; 250  : 			STATEMANAGER.DrawIndexedPrimitive(D3DPT_TRIANGLELIST, 0, vtxCount, pTriGroupNode->idxPos, pTriGroupNode->triCount, vtxMeshBasePos);

  00099	8b 0d 00 00 00
	00		 mov	 ecx, DWORD PTR ?ms_singleton@?$CSingleton@VCStateManager@@@@0PAVCStateManager@@A ; CSingleton<CStateManager>::ms_singleton
  0009f	57		 push	 edi
  000a0	ff 76 08	 push	 DWORD PTR [esi+8]
  000a3	ff 76 04	 push	 DWORD PTR [esi+4]
  000a6	53		 push	 ebx
  000a7	6a 00		 push	 0
  000a9	6a 04		 push	 4
  000ab	e8 00 00 00 00	 call	 ?DrawIndexedPrimitive@CStateManager@@QAEJW4_D3DPRIMITIVETYPE@@IIIIH@Z ; CStateManager::DrawIndexedPrimitive

; 251  : 			pTriGroupNode = pTriGroupNode->pNextTriGroupNode;

  000b0	8b 36		 mov	 esi, DWORD PTR [esi]
  000b2	85 f6		 test	 esi, esi
  000b4	75 da		 jne	 SHORT $LL4@RenderMesh
  000b6	8b 5d 08	 mov	 ebx, DWORD PTR _pMeshNode$1$[ebp]
$LN5@RenderMesh:

; 252  : 		}
; 253  : 		/////
; 254  : 
; 255  : 		pMeshNode = pMeshNode->pNextMeshNode;

  000b9	8b 5b 08	 mov	 ebx, DWORD PTR [ebx+8]
  000bc	8b 75 f0	 mov	 esi, DWORD PTR _this$1$[ebp]
  000bf	89 5d 08	 mov	 DWORD PTR _pMeshNode$1$[ebp], ebx
  000c2	85 db		 test	 ebx, ebx
  000c4	0f 85 6a ff ff
	ff		 jne	 $LL2@RenderMesh
  000ca	5f		 pop	 edi
$LN3@RenderMesh:
  000cb	5e		 pop	 esi

; 256  : 	}
; 257  : }

  000cc	5b		 pop	 ebx
  000cd	8b e5		 mov	 esp, ebp
  000cf	5d		 pop	 ebp
  000d0	c2 08 00	 ret	 8
?RenderMeshNodeListWithoutTexture@CGrannyModelInstance@@IAEXW4EType@CGrannyMesh@@W42CGrannyMaterial@@@Z ENDP ; CGrannyModelInstance::RenderMeshNodeListWithoutTexture
_TEXT	ENDS
; Function compile flags: /Ogtp
; File C:\Users\flourine\Desktop\Xantios\client-src\Code\eterGrnLib\ModelInstanceRender.cpp
;	COMDAT ?RenderMeshNodeListWithTwoTexture@CGrannyModelInstance@@IAEXW4EType@CGrannyMesh@@W42CGrannyMaterial@@@Z
_TEXT	SEGMENT
tv250 = -20						; size = 4
_vtxCount$1$ = -16					; size = 4
_vtxMeshBasePos$1$ = -12				; size = 4
_lpd3dIdxBuf$1$ = -8					; size = 4
_this$1$ = -4						; size = 4
_pMeshNode$1$ = 8					; size = 4
_eMeshType$ = 8						; size = 4
_eMtrlType$ = 12					; size = 4
?RenderMeshNodeListWithTwoTexture@CGrannyModelInstance@@IAEXW4EType@CGrannyMesh@@W42CGrannyMaterial@@@Z PROC ; CGrannyModelInstance::RenderMeshNodeListWithTwoTexture, COMDAT
; _this$ = ecx

; 190  : {

  00000	55		 push	 ebp
  00001	8b ec		 mov	 ebp, esp
  00003	83 ec 14	 sub	 esp, 20			; 00000014H
  00006	53		 push	 ebx
  00007	56		 push	 esi
  00008	8b f1		 mov	 esi, ecx
  0000a	89 75 fc	 mov	 DWORD PTR _this$1$[ebp], esi

; 191  : 	assert(m_pModel != NULL);
; 192  : 
; 193  : 	LPDIRECT3DINDEXBUFFER9 lpd3dIdxBuf = m_pModel->GetD3DIndexBuffer();

  0000d	8b 4e 04	 mov	 ecx, DWORD PTR [esi+4]
  00010	e8 00 00 00 00	 call	 ?GetD3DIndexBuffer@CGrannyModel@@QBEPAUIDirect3DIndexBuffer9@@XZ ; CGrannyModel::GetD3DIndexBuffer

; 194  : 	assert(lpd3dIdxBuf != NULL);
; 195  : 
; 196  : 	const CGrannyModel::TMeshNode * pMeshNode = m_pModel->GetMeshNodeList(eMeshType, eMtrlType);

  00015	ff 75 0c	 push	 DWORD PTR _eMtrlType$[ebp]
  00018	8b 4e 04	 mov	 ecx, DWORD PTR [esi+4]
  0001b	ff 75 08	 push	 DWORD PTR _eMeshType$[ebp]
  0001e	89 45 f8	 mov	 DWORD PTR _lpd3dIdxBuf$1$[ebp], eax
  00021	e8 00 00 00 00	 call	 ?GetMeshNodeList@CGrannyModel@@QBEPBUSMeshNode@1@W4EType@CGrannyMesh@@W43CGrannyMaterial@@@Z ; CGrannyModel::GetMeshNodeList
  00026	8b d8		 mov	 ebx, eax
  00028	89 45 08	 mov	 DWORD PTR _pMeshNode$1$[ebp], eax

; 197  : 
; 198  : 	while (pMeshNode)

  0002b	85 db		 test	 ebx, ebx
  0002d	0f 84 dd 00 00
	00		 je	 $LN3@RenderMesh
  00033	57		 push	 edi
$LL2@RenderMesh:

; 199  : 	{
; 200  : 		const CGrannyMesh * pMesh = pMeshNode->pMesh;

  00034	8b 7b 04	 mov	 edi, DWORD PTR [ebx+4]

; 201  : 		int vtxMeshBasePos = pMesh->GetVertexBasePosition();

  00037	8b cf		 mov	 ecx, edi
  00039	e8 00 00 00 00	 call	 ?GetVertexBasePosition@CGrannyMesh@@QBEHXZ ; CGrannyMesh::GetVertexBasePosition

; 202  : 
; 203  : 		STATEMANAGER.SetIndices(lpd3dIdxBuf, vtxMeshBasePos);

  0003e	8b 0d 00 00 00
	00		 mov	 ecx, DWORD PTR ?ms_singleton@?$CSingleton@VCStateManager@@@@0PAVCStateManager@@A ; CSingleton<CStateManager>::ms_singleton
  00044	50		 push	 eax
  00045	ff 75 f8	 push	 DWORD PTR _lpd3dIdxBuf$1$[ebp]
  00048	89 45 f4	 mov	 DWORD PTR _vtxMeshBasePos$1$[ebp], eax
  0004b	e8 00 00 00 00	 call	 ?SetIndices@CStateManager@@QAEXPAUIDirect3DIndexBuffer9@@I@Z ; CStateManager::SetIndices

; 204  : 		STATEMANAGER.SetTransform(D3DTS_WORLD, &m_meshMatrices[pMeshNode->iMesh]);

  00050	8b 13		 mov	 edx, DWORD PTR [ebx]
  00052	8b 0d 00 00 00
	00		 mov	 ecx, DWORD PTR ?ms_singleton@?$CSingleton@VCStateManager@@@@0PAVCStateManager@@A ; CSingleton<CStateManager>::ms_singleton
  00058	c1 e2 06	 shl	 edx, 6
  0005b	03 56 14	 add	 edx, DWORD PTR [esi+20]
  0005e	52		 push	 edx
  0005f	68 00 01 00 00	 push	 256			; 00000100H
  00064	e8 00 00 00 00	 call	 ?SetTransform@CStateManager@@QAEXW4_D3DTRANSFORMSTATETYPE@@PBU_D3DMATRIX@@@Z ; CStateManager::SetTransform

; 205  : 
; 206  : 		/////
; 207  : 		const CGrannyMesh::TTriGroupNode* pTriGroupNode = pMesh->GetTriGroupNodeList(eMtrlType);

  00069	ff 75 0c	 push	 DWORD PTR _eMtrlType$[ebp]
  0006c	8b cf		 mov	 ecx, edi
  0006e	e8 00 00 00 00	 call	 ?GetTriGroupNodeList@CGrannyMesh@@QBEPBUSTriGroupNode@1@W4EType@CGrannyMaterial@@@Z ; CGrannyMesh::GetTriGroupNodeList

; 208  : 		int vtxCount = pMesh->GetVertexCount();

  00073	8b cf		 mov	 ecx, edi
  00075	8b f0		 mov	 esi, eax
  00077	e8 00 00 00 00	 call	 ?GetVertexCount@CGrannyMesh@@QBEHXZ ; CGrannyMesh::GetVertexCount
  0007c	89 45 f0	 mov	 DWORD PTR _vtxCount$1$[ebp], eax

; 209  : 		while (pTriGroupNode)

  0007f	85 f6		 test	 esi, esi
  00081	74 7b		 je	 SHORT $LN5@RenderMesh
  00083	8b 45 fc	 mov	 eax, DWORD PTR _this$1$[ebp]
  00086	83 c0 2c	 add	 eax, 44			; 0000002cH
  00089	89 45 ec	 mov	 DWORD PTR tv250[ebp], eax
  0008c	0f 1f 40 00	 npad	 4
$LL4@RenderMesh:

; 210  : 		{
; 211  : 			ms_faceCount += pTriGroupNode->triCount;

  00090	8b 4e 08	 mov	 ecx, DWORD PTR [esi+8]
  00093	01 0d 00 00 00
	00		 add	 DWORD PTR ?ms_faceCount@CGraphicBase@@1KA, ecx ; CGraphicBase::ms_faceCount

; 212  : 
; 213  : 			const CGrannyMaterial& rkMtrl=m_kMtrlPal.GetMaterialRef(pTriGroupNode->mtrlIndex);

  00099	8b c8		 mov	 ecx, eax
  0009b	ff 76 0c	 push	 DWORD PTR [esi+12]
  0009e	e8 00 00 00 00	 call	 ?GetMaterialRef@CGrannyMaterialPalette@@QAEAAVCGrannyMaterial@@K@Z ; CGrannyMaterialPalette::GetMaterialRef

; 214  : 			STATEMANAGER.SetTexture(0, rkMtrl.GetD3DTexture(0));

  000a3	8b 3d 00 00 00
	00		 mov	 edi, DWORD PTR ?ms_singleton@?$CSingleton@VCStateManager@@@@0PAVCStateManager@@A ; CSingleton<CStateManager>::ms_singleton
  000a9	8b d8		 mov	 ebx, eax
  000ab	6a 00		 push	 0
  000ad	8b cb		 mov	 ecx, ebx
  000af	e8 00 00 00 00	 call	 ?GetD3DTexture@CGrannyMaterial@@QBEPAUIDirect3DTexture9@@H@Z ; CGrannyMaterial::GetD3DTexture
  000b4	50		 push	 eax
  000b5	6a 00		 push	 0
  000b7	8b cf		 mov	 ecx, edi
  000b9	e8 00 00 00 00	 call	 ?SetTexture@CStateManager@@QAEXKPAUIDirect3DBaseTexture9@@@Z ; CStateManager::SetTexture

; 215  : 			STATEMANAGER.SetTexture(1, rkMtrl.GetD3DTexture(1));

  000be	8b 3d 00 00 00
	00		 mov	 edi, DWORD PTR ?ms_singleton@?$CSingleton@VCStateManager@@@@0PAVCStateManager@@A ; CSingleton<CStateManager>::ms_singleton
  000c4	8b cb		 mov	 ecx, ebx
  000c6	6a 01		 push	 1
  000c8	e8 00 00 00 00	 call	 ?GetD3DTexture@CGrannyMaterial@@QBEPAUIDirect3DTexture9@@H@Z ; CGrannyMaterial::GetD3DTexture
  000cd	50		 push	 eax
  000ce	6a 01		 push	 1
  000d0	8b cf		 mov	 ecx, edi
  000d2	e8 00 00 00 00	 call	 ?SetTexture@CStateManager@@QAEXKPAUIDirect3DBaseTexture9@@@Z ; CStateManager::SetTexture

; 216  : 			STATEMANAGER.DrawIndexedPrimitive(D3DPT_TRIANGLELIST, 0, vtxCount, pTriGroupNode->idxPos, pTriGroupNode->triCount, vtxMeshBasePos);

  000d7	ff 75 f4	 push	 DWORD PTR _vtxMeshBasePos$1$[ebp]
  000da	8b 0d 00 00 00
	00		 mov	 ecx, DWORD PTR ?ms_singleton@?$CSingleton@VCStateManager@@@@0PAVCStateManager@@A ; CSingleton<CStateManager>::ms_singleton
  000e0	ff 76 08	 push	 DWORD PTR [esi+8]
  000e3	ff 76 04	 push	 DWORD PTR [esi+4]
  000e6	ff 75 f0	 push	 DWORD PTR _vtxCount$1$[ebp]
  000e9	6a 00		 push	 0
  000eb	6a 04		 push	 4
  000ed	e8 00 00 00 00	 call	 ?DrawIndexedPrimitive@CStateManager@@QAEJW4_D3DPRIMITIVETYPE@@IIIIH@Z ; CStateManager::DrawIndexedPrimitive

; 217  : 			pTriGroupNode = pTriGroupNode->pNextTriGroupNode;

  000f2	8b 36		 mov	 esi, DWORD PTR [esi]
  000f4	8b 45 ec	 mov	 eax, DWORD PTR tv250[ebp]
  000f7	85 f6		 test	 esi, esi
  000f9	75 95		 jne	 SHORT $LL4@RenderMesh
  000fb	8b 5d 08	 mov	 ebx, DWORD PTR _pMeshNode$1$[ebp]
$LN5@RenderMesh:

; 218  : 		}
; 219  : 		/////
; 220  : 
; 221  : 		pMeshNode = pMeshNode->pNextMeshNode;

  000fe	8b 5b 08	 mov	 ebx, DWORD PTR [ebx+8]
  00101	8b 75 fc	 mov	 esi, DWORD PTR _this$1$[ebp]
  00104	89 5d 08	 mov	 DWORD PTR _pMeshNode$1$[ebp], ebx
  00107	85 db		 test	 ebx, ebx
  00109	0f 85 25 ff ff
	ff		 jne	 $LL2@RenderMesh
  0010f	5f		 pop	 edi
$LN3@RenderMesh:
  00110	5e		 pop	 esi

; 222  : 	}
; 223  : }

  00111	5b		 pop	 ebx
  00112	8b e5		 mov	 esp, ebp
  00114	5d		 pop	 ebp
  00115	c2 08 00	 ret	 8
?RenderMeshNodeListWithTwoTexture@CGrannyModelInstance@@IAEXW4EType@CGrannyMesh@@W42CGrannyMaterial@@@Z ENDP ; CGrannyModelInstance::RenderMeshNodeListWithTwoTexture
_TEXT	ENDS
; Function compile flags: /Ogtp
; File C:\Users\flourine\Desktop\Xantios\client-src\Code\eterGrnLib\ModelInstanceRender.cpp
;	COMDAT ?RenderMeshNodeListWithOneTexture@CGrannyModelInstance@@IAEXW4EType@CGrannyMesh@@W42CGrannyMaterial@@@Z
_TEXT	SEGMENT
_vtxCount$1$ = -16					; size = 4
_vtxMeshBasePos$1$ = -12				; size = 4
_lpd3dIdxBuf$1$ = -8					; size = 4
_this$1$ = -4						; size = 4
_pMeshNode$1$ = 8					; size = 4
_eMeshType$ = 8						; size = 4
_eMtrlType$ = 12					; size = 4
?RenderMeshNodeListWithOneTexture@CGrannyModelInstance@@IAEXW4EType@CGrannyMesh@@W42CGrannyMaterial@@@Z PROC ; CGrannyModelInstance::RenderMeshNodeListWithOneTexture, COMDAT
; _this$ = ecx

; 152  : {

  00000	55		 push	 ebp
  00001	8b ec		 mov	 ebp, esp
  00003	83 ec 10	 sub	 esp, 16			; 00000010H
  00006	53		 push	 ebx
  00007	56		 push	 esi
  00008	8b f1		 mov	 esi, ecx
  0000a	89 75 fc	 mov	 DWORD PTR _this$1$[ebp], esi

; 153  : 	assert(m_pModel != NULL);
; 154  : 
; 155  : 	LPDIRECT3DINDEXBUFFER9 lpd3dIdxBuf = m_pModel->GetD3DIndexBuffer();

  0000d	8b 4e 04	 mov	 ecx, DWORD PTR [esi+4]
  00010	e8 00 00 00 00	 call	 ?GetD3DIndexBuffer@CGrannyModel@@QBEPAUIDirect3DIndexBuffer9@@XZ ; CGrannyModel::GetD3DIndexBuffer

; 156  : 	assert(lpd3dIdxBuf != NULL);
; 157  : 
; 158  : 	const CGrannyModel::TMeshNode * pMeshNode = m_pModel->GetMeshNodeList(eMeshType, eMtrlType);

  00015	ff 75 0c	 push	 DWORD PTR _eMtrlType$[ebp]
  00018	8b 4e 04	 mov	 ecx, DWORD PTR [esi+4]
  0001b	ff 75 08	 push	 DWORD PTR _eMeshType$[ebp]
  0001e	89 45 f8	 mov	 DWORD PTR _lpd3dIdxBuf$1$[ebp], eax
  00021	e8 00 00 00 00	 call	 ?GetMeshNodeList@CGrannyModel@@QBEPBUSMeshNode@1@W4EType@CGrannyMesh@@W43CGrannyMaterial@@@Z ; CGrannyModel::GetMeshNodeList
  00026	8b d8		 mov	 ebx, eax
  00028	89 45 08	 mov	 DWORD PTR _pMeshNode$1$[ebp], eax

; 159  : 
; 160  : 	while (pMeshNode)

  0002b	85 db		 test	 ebx, ebx
  0002d	0f 84 b7 00 00
	00		 je	 $LN3@RenderMesh
  00033	57		 push	 edi
$LL2@RenderMesh:

; 161  : 	{
; 162  : 		const CGrannyMesh * pMesh = pMeshNode->pMesh;

  00034	8b 7b 04	 mov	 edi, DWORD PTR [ebx+4]

; 163  : 		int vtxMeshBasePos = pMesh->GetVertexBasePosition();

  00037	8b cf		 mov	 ecx, edi
  00039	e8 00 00 00 00	 call	 ?GetVertexBasePosition@CGrannyMesh@@QBEHXZ ; CGrannyMesh::GetVertexBasePosition

; 164  : 
; 165  : 		STATEMANAGER.SetIndices(lpd3dIdxBuf, vtxMeshBasePos);

  0003e	8b 0d 00 00 00
	00		 mov	 ecx, DWORD PTR ?ms_singleton@?$CSingleton@VCStateManager@@@@0PAVCStateManager@@A ; CSingleton<CStateManager>::ms_singleton
  00044	50		 push	 eax
  00045	ff 75 f8	 push	 DWORD PTR _lpd3dIdxBuf$1$[ebp]
  00048	89 45 f4	 mov	 DWORD PTR _vtxMeshBasePos$1$[ebp], eax
  0004b	e8 00 00 00 00	 call	 ?SetIndices@CStateManager@@QAEXPAUIDirect3DIndexBuffer9@@I@Z ; CStateManager::SetIndices

; 166  : 		STATEMANAGER.SetTransform(D3DTS_WORLD, &m_meshMatrices[pMeshNode->iMesh]);

  00050	8b 13		 mov	 edx, DWORD PTR [ebx]
  00052	8b 0d 00 00 00
	00		 mov	 ecx, DWORD PTR ?ms_singleton@?$CSingleton@VCStateManager@@@@0PAVCStateManager@@A ; CSingleton<CStateManager>::ms_singleton
  00058	c1 e2 06	 shl	 edx, 6
  0005b	03 56 14	 add	 edx, DWORD PTR [esi+20]
  0005e	52		 push	 edx
  0005f	68 00 01 00 00	 push	 256			; 00000100H
  00064	e8 00 00 00 00	 call	 ?SetTransform@CStateManager@@QAEXW4_D3DTRANSFORMSTATETYPE@@PBU_D3DMATRIX@@@Z ; CStateManager::SetTransform

; 167  : 
; 168  : 		/////
; 169  : 		const CGrannyMesh::TTriGroupNode* pTriGroupNode = pMesh->GetTriGroupNodeList(eMtrlType);

  00069	ff 75 0c	 push	 DWORD PTR _eMtrlType$[ebp]
  0006c	8b cf		 mov	 ecx, edi
  0006e	e8 00 00 00 00	 call	 ?GetTriGroupNodeList@CGrannyMesh@@QBEPBUSTriGroupNode@1@W4EType@CGrannyMaterial@@@Z ; CGrannyMesh::GetTriGroupNodeList

; 170  : 		int vtxCount = pMesh->GetVertexCount();

  00073	8b cf		 mov	 ecx, edi
  00075	8b f0		 mov	 esi, eax
  00077	e8 00 00 00 00	 call	 ?GetVertexCount@CGrannyMesh@@QBEHXZ ; CGrannyMesh::GetVertexCount
  0007c	89 45 f0	 mov	 DWORD PTR _vtxCount$1$[ebp], eax

; 171  : 		while (pTriGroupNode)

  0007f	85 f6		 test	 esi, esi
  00081	74 55		 je	 SHORT $LN5@RenderMesh
  00083	8b 5d fc	 mov	 ebx, DWORD PTR _this$1$[ebp]
  00086	66 66 0f 1f 84
	00 00 00 00 00	 npad	 10
$LL4@RenderMesh:

; 172  : 		{
; 173  : 			ms_faceCount += pTriGroupNode->triCount;

  00090	8b 4e 08	 mov	 ecx, DWORD PTR [esi+8]
  00093	01 0d 00 00 00
	00		 add	 DWORD PTR ?ms_faceCount@CGraphicBase@@1KA, ecx ; CGraphicBase::ms_faceCount

; 174  : 
; 175  : 			CGrannyMaterial& rkMtrl=m_kMtrlPal.GetMaterialRef(pTriGroupNode->mtrlIndex);

  00099	8d 4b 2c	 lea	 ecx, DWORD PTR [ebx+44]
  0009c	ff 76 0c	 push	 DWORD PTR [esi+12]
  0009f	e8 00 00 00 00	 call	 ?GetMaterialRef@CGrannyMaterialPalette@@QAEAAVCGrannyMaterial@@K@Z ; CGrannyMaterialPalette::GetMaterialRef
  000a4	8b f8		 mov	 edi, eax

; 176  : 			rkMtrl.ApplyRenderState();

  000a6	8b cf		 mov	 ecx, edi
  000a8	e8 00 00 00 00	 call	 ?ApplyRenderState@CGrannyMaterial@@QAEXXZ ; CGrannyMaterial::ApplyRenderState

; 177  : 			STATEMANAGER.DrawIndexedPrimitive(D3DPT_TRIANGLELIST, 0, vtxCount, pTriGroupNode->idxPos, pTriGroupNode->triCount, vtxMeshBasePos);

  000ad	ff 75 f4	 push	 DWORD PTR _vtxMeshBasePos$1$[ebp]
  000b0	8b 0d 00 00 00
	00		 mov	 ecx, DWORD PTR ?ms_singleton@?$CSingleton@VCStateManager@@@@0PAVCStateManager@@A ; CSingleton<CStateManager>::ms_singleton
  000b6	ff 76 08	 push	 DWORD PTR [esi+8]
  000b9	ff 76 04	 push	 DWORD PTR [esi+4]
  000bc	ff 75 f0	 push	 DWORD PTR _vtxCount$1$[ebp]
  000bf	6a 00		 push	 0
  000c1	6a 04		 push	 4
  000c3	e8 00 00 00 00	 call	 ?DrawIndexedPrimitive@CStateManager@@QAEJW4_D3DPRIMITIVETYPE@@IIIIH@Z ; CStateManager::DrawIndexedPrimitive

; 178  : 			rkMtrl.RestoreRenderState();

  000c8	8b cf		 mov	 ecx, edi
  000ca	e8 00 00 00 00	 call	 ?RestoreRenderState@CGrannyMaterial@@QAEXXZ ; CGrannyMaterial::RestoreRenderState

; 179  : 			
; 180  : 			pTriGroupNode = pTriGroupNode->pNextTriGroupNode;

  000cf	8b 36		 mov	 esi, DWORD PTR [esi]
  000d1	85 f6		 test	 esi, esi
  000d3	75 bb		 jne	 SHORT $LL4@RenderMesh
  000d5	8b 5d 08	 mov	 ebx, DWORD PTR _pMeshNode$1$[ebp]
$LN5@RenderMesh:

; 181  : 		}
; 182  : 		/////
; 183  : 
; 184  : 		pMeshNode = pMeshNode->pNextMeshNode;

  000d8	8b 5b 08	 mov	 ebx, DWORD PTR [ebx+8]
  000db	8b 75 fc	 mov	 esi, DWORD PTR _this$1$[ebp]
  000de	89 5d 08	 mov	 DWORD PTR _pMeshNode$1$[ebp], ebx
  000e1	85 db		 test	 ebx, ebx
  000e3	0f 85 4b ff ff
	ff		 jne	 $LL2@RenderMesh
  000e9	5f		 pop	 edi
$LN3@RenderMesh:
  000ea	5e		 pop	 esi

; 185  : 	}
; 186  : }

  000eb	5b		 pop	 ebx
  000ec	8b e5		 mov	 esp, ebp
  000ee	5d		 pop	 ebp
  000ef	c2 08 00	 ret	 8
?RenderMeshNodeListWithOneTexture@CGrannyModelInstance@@IAEXW4EType@CGrannyMesh@@W42CGrannyMaterial@@@Z ENDP ; CGrannyModelInstance::RenderMeshNodeListWithOneTexture
_TEXT	ENDS
; Function compile flags: /Ogtp
; File C:\Users\flourine\Desktop\Xantios\client-src\Code\eterGrnLib\ModelInstanceRender.cpp
;	COMDAT ?RenderWithoutTexture@CGrannyModelInstance@@QAEXXZ
_TEXT	SEGMENT
?RenderWithoutTexture@CGrannyModelInstance@@QAEXXZ PROC	; CGrannyModelInstance::RenderWithoutTexture, COMDAT
; _this$ = ecx

; 118  : {

  00000	56		 push	 esi
  00001	8b f1		 mov	 esi, ecx

; 119  : 	if (IsEmpty())

  00003	e8 00 00 00 00	 call	 ?IsEmpty@CGrannyModelInstance@@QAE_NXZ ; CGrannyModelInstance::IsEmpty
  00008	84 c0		 test	 al, al
  0000a	0f 85 9a 00 00
	00		 jne	 $LN4@RenderWith

; 120  : 		return;
; 121  : 
; 122  : 	STATEMANAGER.SetFVF(ms_pntVS);

  00010	8b 0d 00 00 00
	00		 mov	 ecx, DWORD PTR ?ms_singleton@?$CSingleton@VCStateManager@@@@0PAVCStateManager@@A ; CSingleton<CStateManager>::ms_singleton
  00016	53		 push	 ebx
  00017	57		 push	 edi
  00018	ff 35 00 00 00
	00		 push	 DWORD PTR ?ms_pntVS@CGraphicBase@@1KA ; CGraphicBase::ms_pntVS
  0001e	e8 00 00 00 00	 call	 ?SetFVF@CStateManager@@QAEXK@Z ; CStateManager::SetFVF

; 123  : 	STATEMANAGER.SetTexture(0, NULL);

  00023	8b 0d 00 00 00
	00		 mov	 ecx, DWORD PTR ?ms_singleton@?$CSingleton@VCStateManager@@@@0PAVCStateManager@@A ; CSingleton<CStateManager>::ms_singleton
  00029	6a 00		 push	 0
  0002b	6a 00		 push	 0
  0002d	e8 00 00 00 00	 call	 ?SetTexture@CStateManager@@QAEXKPAUIDirect3DBaseTexture9@@@Z ; CStateManager::SetTexture

; 124  : 	STATEMANAGER.SetTexture(1, NULL);

  00032	8b 0d 00 00 00
	00		 mov	 ecx, DWORD PTR ?ms_singleton@?$CSingleton@VCStateManager@@@@0PAVCStateManager@@A ; CSingleton<CStateManager>::ms_singleton
  00038	6a 00		 push	 0
  0003a	6a 01		 push	 1
  0003c	e8 00 00 00 00	 call	 ?SetTexture@CStateManager@@QAEXKPAUIDirect3DBaseTexture9@@@Z ; CStateManager::SetTexture

; 125  : 	LPDIRECT3DVERTEXBUFFER9 lpd3dDeformPNTVtxBuf = __GetDeformableD3DVertexBufferPtr();

  00041	8b ce		 mov	 ecx, esi
  00043	e8 00 00 00 00	 call	 ?__GetDeformableD3DVertexBufferPtr@CGrannyModelInstance@@IAEPAUIDirect3DVertexBuffer9@@XZ ; CGrannyModelInstance::__GetDeformableD3DVertexBufferPtr

; 126  : 	LPDIRECT3DVERTEXBUFFER9 lpd3dRigidPNTVtxBuf = m_pModel->GetPNTD3DVertexBuffer();

  00048	8b 4e 04	 mov	 ecx, DWORD PTR [esi+4]
  0004b	8b d8		 mov	 ebx, eax
  0004d	e8 00 00 00 00	 call	 ?GetPNTD3DVertexBuffer@CGrannyModel@@QBEPAUIDirect3DVertexBuffer9@@XZ ; CGrannyModel::GetPNTD3DVertexBuffer
  00052	8b f8		 mov	 edi, eax

; 127  : 
; 128  : 	if (lpd3dDeformPNTVtxBuf)

  00054	85 db		 test	 ebx, ebx
  00056	74 26		 je	 SHORT $LN3@RenderWith

; 129  : 	{
; 130  : 		STATEMANAGER.SetStreamSource(0, lpd3dDeformPNTVtxBuf, sizeof(TPNTVertex));

  00058	8b 0d 00 00 00
	00		 mov	 ecx, DWORD PTR ?ms_singleton@?$CSingleton@VCStateManager@@@@0PAVCStateManager@@A ; CSingleton<CStateManager>::ms_singleton
  0005e	6a 20		 push	 32			; 00000020H
  00060	53		 push	 ebx
  00061	6a 00		 push	 0
  00063	e8 00 00 00 00	 call	 ?SetStreamSource@CStateManager@@QAEXIPAUIDirect3DVertexBuffer9@@I@Z ; CStateManager::SetStreamSource

; 131  : 		RenderMeshNodeListWithoutTexture(CGrannyMesh::TYPE_DEFORM, CGrannyMaterial::TYPE_DIFFUSE_PNT);

  00068	6a 00		 push	 0
  0006a	6a 01		 push	 1
  0006c	8b ce		 mov	 ecx, esi
  0006e	e8 00 00 00 00	 call	 ?RenderMeshNodeListWithoutTexture@CGrannyModelInstance@@IAEXW4EType@CGrannyMesh@@W42CGrannyMaterial@@@Z ; CGrannyModelInstance::RenderMeshNodeListWithoutTexture

; 132  : 		RenderMeshNodeListWithoutTexture(CGrannyMesh::TYPE_DEFORM, CGrannyMaterial::TYPE_BLEND_PNT);

  00073	6a 01		 push	 1
  00075	6a 01		 push	 1
  00077	8b ce		 mov	 ecx, esi
  00079	e8 00 00 00 00	 call	 ?RenderMeshNodeListWithoutTexture@CGrannyModelInstance@@IAEXW4EType@CGrannyMesh@@W42CGrannyMaterial@@@Z ; CGrannyModelInstance::RenderMeshNodeListWithoutTexture
$LN3@RenderWith:

; 133  : 	}
; 134  : 
; 135  : 	if (lpd3dRigidPNTVtxBuf)

  0007e	85 ff		 test	 edi, edi
  00080	74 26		 je	 SHORT $LN6@RenderWith

; 136  : 	{
; 137  : 		STATEMANAGER.SetStreamSource(0, lpd3dRigidPNTVtxBuf, sizeof(TPNTVertex));

  00082	8b 0d 00 00 00
	00		 mov	 ecx, DWORD PTR ?ms_singleton@?$CSingleton@VCStateManager@@@@0PAVCStateManager@@A ; CSingleton<CStateManager>::ms_singleton
  00088	6a 20		 push	 32			; 00000020H
  0008a	57		 push	 edi
  0008b	6a 00		 push	 0
  0008d	e8 00 00 00 00	 call	 ?SetStreamSource@CStateManager@@QAEXIPAUIDirect3DVertexBuffer9@@I@Z ; CStateManager::SetStreamSource

; 138  : 		RenderMeshNodeListWithoutTexture(CGrannyMesh::TYPE_RIGID, CGrannyMaterial::TYPE_DIFFUSE_PNT);

  00092	6a 00		 push	 0
  00094	6a 00		 push	 0
  00096	8b ce		 mov	 ecx, esi
  00098	e8 00 00 00 00	 call	 ?RenderMeshNodeListWithoutTexture@CGrannyModelInstance@@IAEXW4EType@CGrannyMesh@@W42CGrannyMaterial@@@Z ; CGrannyModelInstance::RenderMeshNodeListWithoutTexture

; 139  : 		RenderMeshNodeListWithoutTexture(CGrannyMesh::TYPE_RIGID, CGrannyMaterial::TYPE_BLEND_PNT);

  0009d	6a 01		 push	 1
  0009f	6a 00		 push	 0
  000a1	8b ce		 mov	 ecx, esi
  000a3	e8 00 00 00 00	 call	 ?RenderMeshNodeListWithoutTexture@CGrannyModelInstance@@IAEXW4EType@CGrannyMesh@@W42CGrannyMaterial@@@Z ; CGrannyModelInstance::RenderMeshNodeListWithoutTexture
$LN6@RenderWith:
  000a8	5f		 pop	 edi
  000a9	5b		 pop	 ebx
$LN4@RenderWith:
  000aa	5e		 pop	 esi

; 140  : 	}
; 141  : }

  000ab	c3		 ret	 0
?RenderWithoutTexture@CGrannyModelInstance@@QAEXXZ ENDP	; CGrannyModelInstance::RenderWithoutTexture
_TEXT	ENDS
; Function compile flags: /Ogtp
; File C:\Users\flourine\Desktop\Xantios\client-src\Code\eterGrnLib\ModelInstanceRender.cpp
;	COMDAT ?BlendRenderWithTwoTexture@CGrannyModelInstance@@QAEXXZ
_TEXT	SEGMENT
?BlendRenderWithTwoTexture@CGrannyModelInstance@@QAEXXZ PROC ; CGrannyModelInstance::BlendRenderWithTwoTexture, COMDAT
; _this$ = ecx

; 96   : {

  00000	56		 push	 esi
  00001	8b f1		 mov	 esi, ecx

; 97   : 	if (IsEmpty())

  00003	e8 00 00 00 00	 call	 ?IsEmpty@CGrannyModelInstance@@QAE_NXZ ; CGrannyModelInstance::IsEmpty
  00008	84 c0		 test	 al, al
  0000a	75 66		 jne	 SHORT $LN4@BlendRende

; 98   : 		return;
; 99   : 
; 100  : 	LPDIRECT3DVERTEXBUFFER9 lpd3dDeformPNTVtxBuf = __GetDeformableD3DVertexBufferPtr();

  0000c	53		 push	 ebx
  0000d	57		 push	 edi
  0000e	8b ce		 mov	 ecx, esi
  00010	e8 00 00 00 00	 call	 ?__GetDeformableD3DVertexBufferPtr@CGrannyModelInstance@@IAEPAUIDirect3DVertexBuffer9@@XZ ; CGrannyModelInstance::__GetDeformableD3DVertexBufferPtr

; 101  : 	LPDIRECT3DVERTEXBUFFER9 lpd3dRigidPNTVtxBuf = m_pModel->GetPNTD3DVertexBuffer();

  00015	8b 4e 04	 mov	 ecx, DWORD PTR [esi+4]
  00018	8b d8		 mov	 ebx, eax
  0001a	e8 00 00 00 00	 call	 ?GetPNTD3DVertexBuffer@CGrannyModel@@QBEPAUIDirect3DVertexBuffer9@@XZ ; CGrannyModel::GetPNTD3DVertexBuffer

; 102  : 	STATEMANAGER.SetFVF(ms_pntVS);

  0001f	ff 35 00 00 00
	00		 push	 DWORD PTR ?ms_pntVS@CGraphicBase@@1KA ; CGraphicBase::ms_pntVS
  00025	8b 0d 00 00 00
	00		 mov	 ecx, DWORD PTR ?ms_singleton@?$CSingleton@VCStateManager@@@@0PAVCStateManager@@A ; CSingleton<CStateManager>::ms_singleton
  0002b	8b f8		 mov	 edi, eax
  0002d	e8 00 00 00 00	 call	 ?SetFVF@CStateManager@@QAEXK@Z ; CStateManager::SetFVF

; 103  : 
; 104  : 	if (lpd3dDeformPNTVtxBuf)

  00032	85 db		 test	 ebx, ebx
  00034	74 1b		 je	 SHORT $LN3@BlendRende

; 105  : 	{
; 106  : 		STATEMANAGER.SetStreamSource(0, lpd3dDeformPNTVtxBuf, sizeof(TPNTVertex));

  00036	8b 0d 00 00 00
	00		 mov	 ecx, DWORD PTR ?ms_singleton@?$CSingleton@VCStateManager@@@@0PAVCStateManager@@A ; CSingleton<CStateManager>::ms_singleton
  0003c	6a 20		 push	 32			; 00000020H
  0003e	53		 push	 ebx
  0003f	6a 00		 push	 0
  00041	e8 00 00 00 00	 call	 ?SetStreamSource@CStateManager@@QAEXIPAUIDirect3DVertexBuffer9@@I@Z ; CStateManager::SetStreamSource

; 107  : 		RenderMeshNodeListWithTwoTexture(CGrannyMesh::TYPE_DEFORM, CGrannyMaterial::TYPE_BLEND_PNT);

  00046	6a 01		 push	 1
  00048	6a 01		 push	 1
  0004a	8b ce		 mov	 ecx, esi
  0004c	e8 00 00 00 00	 call	 ?RenderMeshNodeListWithTwoTexture@CGrannyModelInstance@@IAEXW4EType@CGrannyMesh@@W42CGrannyMaterial@@@Z ; CGrannyModelInstance::RenderMeshNodeListWithTwoTexture
$LN3@BlendRende:

; 108  : 	}
; 109  : 
; 110  : 	if (lpd3dRigidPNTVtxBuf)

  00051	85 ff		 test	 edi, edi
  00053	74 1b		 je	 SHORT $LN6@BlendRende

; 111  : 	{
; 112  : 		STATEMANAGER.SetStreamSource(0, lpd3dRigidPNTVtxBuf, sizeof(TPNTVertex));

  00055	8b 0d 00 00 00
	00		 mov	 ecx, DWORD PTR ?ms_singleton@?$CSingleton@VCStateManager@@@@0PAVCStateManager@@A ; CSingleton<CStateManager>::ms_singleton
  0005b	6a 20		 push	 32			; 00000020H
  0005d	57		 push	 edi
  0005e	6a 00		 push	 0
  00060	e8 00 00 00 00	 call	 ?SetStreamSource@CStateManager@@QAEXIPAUIDirect3DVertexBuffer9@@I@Z ; CStateManager::SetStreamSource

; 113  : 		RenderMeshNodeListWithTwoTexture(CGrannyMesh::TYPE_RIGID, CGrannyMaterial::TYPE_BLEND_PNT);

  00065	6a 01		 push	 1
  00067	6a 00		 push	 0
  00069	8b ce		 mov	 ecx, esi
  0006b	e8 00 00 00 00	 call	 ?RenderMeshNodeListWithTwoTexture@CGrannyModelInstance@@IAEXW4EType@CGrannyMesh@@W42CGrannyMaterial@@@Z ; CGrannyModelInstance::RenderMeshNodeListWithTwoTexture
$LN6@BlendRende:
  00070	5f		 pop	 edi
  00071	5b		 pop	 ebx
$LN4@BlendRende:
  00072	5e		 pop	 esi

; 114  : 	}
; 115  : }

  00073	c3		 ret	 0
?BlendRenderWithTwoTexture@CGrannyModelInstance@@QAEXXZ ENDP ; CGrannyModelInstance::BlendRenderWithTwoTexture
_TEXT	ENDS
; Function compile flags: /Ogtp
; File C:\Users\flourine\Desktop\Xantios\client-src\Code\eterGrnLib\ModelInstanceRender.cpp
;	COMDAT ?BlendRenderWithOneTexture@CGrannyModelInstance@@QAEXXZ
_TEXT	SEGMENT
?BlendRenderWithOneTexture@CGrannyModelInstance@@QAEXXZ PROC ; CGrannyModelInstance::BlendRenderWithOneTexture, COMDAT
; _this$ = ecx

; 51   : {

  00000	56		 push	 esi
  00001	8b f1		 mov	 esi, ecx

; 52   : 	if (IsEmpty())

  00003	e8 00 00 00 00	 call	 ?IsEmpty@CGrannyModelInstance@@QAE_NXZ ; CGrannyModelInstance::IsEmpty
  00008	84 c0		 test	 al, al
  0000a	75 66		 jne	 SHORT $LN4@BlendRende

; 53   : 		return;
; 54   : 
; 55   : 	LPDIRECT3DVERTEXBUFFER9 lpd3dDeformPNTVtxBuf = __GetDeformableD3DVertexBufferPtr();

  0000c	53		 push	 ebx
  0000d	57		 push	 edi
  0000e	8b ce		 mov	 ecx, esi
  00010	e8 00 00 00 00	 call	 ?__GetDeformableD3DVertexBufferPtr@CGrannyModelInstance@@IAEPAUIDirect3DVertexBuffer9@@XZ ; CGrannyModelInstance::__GetDeformableD3DVertexBufferPtr

; 56   : 	LPDIRECT3DVERTEXBUFFER9 lpd3dRigidPNTVtxBuf = m_pModel->GetPNTD3DVertexBuffer();

  00015	8b 4e 04	 mov	 ecx, DWORD PTR [esi+4]
  00018	8b d8		 mov	 ebx, eax
  0001a	e8 00 00 00 00	 call	 ?GetPNTD3DVertexBuffer@CGrannyModel@@QBEPAUIDirect3DVertexBuffer9@@XZ ; CGrannyModel::GetPNTD3DVertexBuffer

; 57   : 	STATEMANAGER.SetFVF(ms_pntVS);

  0001f	ff 35 00 00 00
	00		 push	 DWORD PTR ?ms_pntVS@CGraphicBase@@1KA ; CGraphicBase::ms_pntVS
  00025	8b 0d 00 00 00
	00		 mov	 ecx, DWORD PTR ?ms_singleton@?$CSingleton@VCStateManager@@@@0PAVCStateManager@@A ; CSingleton<CStateManager>::ms_singleton
  0002b	8b f8		 mov	 edi, eax
  0002d	e8 00 00 00 00	 call	 ?SetFVF@CStateManager@@QAEXK@Z ; CStateManager::SetFVF

; 58   : 
; 59   : 	if (lpd3dDeformPNTVtxBuf)

  00032	85 db		 test	 ebx, ebx
  00034	74 1b		 je	 SHORT $LN3@BlendRende

; 60   : 	{
; 61   : 		STATEMANAGER.SetStreamSource(0, lpd3dDeformPNTVtxBuf, sizeof(TPNTVertex));

  00036	8b 0d 00 00 00
	00		 mov	 ecx, DWORD PTR ?ms_singleton@?$CSingleton@VCStateManager@@@@0PAVCStateManager@@A ; CSingleton<CStateManager>::ms_singleton
  0003c	6a 20		 push	 32			; 00000020H
  0003e	53		 push	 ebx
  0003f	6a 00		 push	 0
  00041	e8 00 00 00 00	 call	 ?SetStreamSource@CStateManager@@QAEXIPAUIDirect3DVertexBuffer9@@I@Z ; CStateManager::SetStreamSource

; 62   : 		RenderMeshNodeListWithOneTexture(CGrannyMesh::TYPE_DEFORM, CGrannyMaterial::TYPE_BLEND_PNT);

  00046	6a 01		 push	 1
  00048	6a 01		 push	 1
  0004a	8b ce		 mov	 ecx, esi
  0004c	e8 00 00 00 00	 call	 ?RenderMeshNodeListWithOneTexture@CGrannyModelInstance@@IAEXW4EType@CGrannyMesh@@W42CGrannyMaterial@@@Z ; CGrannyModelInstance::RenderMeshNodeListWithOneTexture
$LN3@BlendRende:

; 63   : 	}
; 64   : 
; 65   : 	if (lpd3dRigidPNTVtxBuf)

  00051	85 ff		 test	 edi, edi
  00053	74 1b		 je	 SHORT $LN6@BlendRende

; 66   : 	{
; 67   : 		STATEMANAGER.SetStreamSource(0, lpd3dRigidPNTVtxBuf, sizeof(TPNTVertex));

  00055	8b 0d 00 00 00
	00		 mov	 ecx, DWORD PTR ?ms_singleton@?$CSingleton@VCStateManager@@@@0PAVCStateManager@@A ; CSingleton<CStateManager>::ms_singleton
  0005b	6a 20		 push	 32			; 00000020H
  0005d	57		 push	 edi
  0005e	6a 00		 push	 0
  00060	e8 00 00 00 00	 call	 ?SetStreamSource@CStateManager@@QAEXIPAUIDirect3DVertexBuffer9@@I@Z ; CStateManager::SetStreamSource

; 68   : 		RenderMeshNodeListWithOneTexture(CGrannyMesh::TYPE_RIGID, CGrannyMaterial::TYPE_BLEND_PNT);

  00065	6a 01		 push	 1
  00067	6a 00		 push	 0
  00069	8b ce		 mov	 ecx, esi
  0006b	e8 00 00 00 00	 call	 ?RenderMeshNodeListWithOneTexture@CGrannyModelInstance@@IAEXW4EType@CGrannyMesh@@W42CGrannyMaterial@@@Z ; CGrannyModelInstance::RenderMeshNodeListWithOneTexture
$LN6@BlendRende:
  00070	5f		 pop	 edi
  00071	5b		 pop	 ebx
$LN4@BlendRende:
  00072	5e		 pop	 esi

; 69   : 	}
; 70   : }

  00073	c3		 ret	 0
?BlendRenderWithOneTexture@CGrannyModelInstance@@QAEXXZ ENDP ; CGrannyModelInstance::BlendRenderWithOneTexture
_TEXT	ENDS
; Function compile flags: /Ogtp
; File C:\Users\flourine\Desktop\Xantios\client-src\Code\eterGrnLib\ModelInstanceRender.cpp
;	COMDAT ?RenderWithTwoTexture@CGrannyModelInstance@@QAEXXZ
_TEXT	SEGMENT
?RenderWithTwoTexture@CGrannyModelInstance@@QAEXXZ PROC	; CGrannyModelInstance::RenderWithTwoTexture, COMDAT
; _this$ = ecx

; 74   : {

  00000	56		 push	 esi
  00001	8b f1		 mov	 esi, ecx

; 75   : 	// FIXME : Deform, Render, BlendRender¸¦ ą­ľî »óŔ§żˇĽ­ °É·ŻÁÖ´Â °ÍŔĚ ´ő łŞŔ» µí - [levites]
; 76   : 	if (IsEmpty())

  00003	e8 00 00 00 00	 call	 ?IsEmpty@CGrannyModelInstance@@QAE_NXZ ; CGrannyModelInstance::IsEmpty
  00008	84 c0		 test	 al, al
  0000a	75 66		 jne	 SHORT $LN4@RenderWith

; 77   : 		return;
; 78   : 
; 79   : 	LPDIRECT3DVERTEXBUFFER9 lpd3dDeformPNTVtxBuf = __GetDeformableD3DVertexBufferPtr();

  0000c	53		 push	 ebx
  0000d	57		 push	 edi
  0000e	8b ce		 mov	 ecx, esi
  00010	e8 00 00 00 00	 call	 ?__GetDeformableD3DVertexBufferPtr@CGrannyModelInstance@@IAEPAUIDirect3DVertexBuffer9@@XZ ; CGrannyModelInstance::__GetDeformableD3DVertexBufferPtr

; 80   : 	LPDIRECT3DVERTEXBUFFER9 lpd3dRigidPNTVtxBuf = m_pModel->GetPNTD3DVertexBuffer();

  00015	8b 4e 04	 mov	 ecx, DWORD PTR [esi+4]
  00018	8b d8		 mov	 ebx, eax
  0001a	e8 00 00 00 00	 call	 ?GetPNTD3DVertexBuffer@CGrannyModel@@QBEPAUIDirect3DVertexBuffer9@@XZ ; CGrannyModel::GetPNTD3DVertexBuffer

; 81   : 	STATEMANAGER.SetFVF(ms_pntVS);

  0001f	ff 35 00 00 00
	00		 push	 DWORD PTR ?ms_pntVS@CGraphicBase@@1KA ; CGraphicBase::ms_pntVS
  00025	8b 0d 00 00 00
	00		 mov	 ecx, DWORD PTR ?ms_singleton@?$CSingleton@VCStateManager@@@@0PAVCStateManager@@A ; CSingleton<CStateManager>::ms_singleton
  0002b	8b f8		 mov	 edi, eax
  0002d	e8 00 00 00 00	 call	 ?SetFVF@CStateManager@@QAEXK@Z ; CStateManager::SetFVF

; 82   : 
; 83   : 	if (lpd3dDeformPNTVtxBuf)

  00032	85 db		 test	 ebx, ebx
  00034	74 1b		 je	 SHORT $LN3@RenderWith

; 84   : 	{
; 85   : 		STATEMANAGER.SetStreamSource(0, lpd3dDeformPNTVtxBuf, sizeof(TPNTVertex));

  00036	8b 0d 00 00 00
	00		 mov	 ecx, DWORD PTR ?ms_singleton@?$CSingleton@VCStateManager@@@@0PAVCStateManager@@A ; CSingleton<CStateManager>::ms_singleton
  0003c	6a 20		 push	 32			; 00000020H
  0003e	53		 push	 ebx
  0003f	6a 00		 push	 0
  00041	e8 00 00 00 00	 call	 ?SetStreamSource@CStateManager@@QAEXIPAUIDirect3DVertexBuffer9@@I@Z ; CStateManager::SetStreamSource

; 86   : 		RenderMeshNodeListWithTwoTexture(CGrannyMesh::TYPE_DEFORM, CGrannyMaterial::TYPE_DIFFUSE_PNT);

  00046	6a 00		 push	 0
  00048	6a 01		 push	 1
  0004a	8b ce		 mov	 ecx, esi
  0004c	e8 00 00 00 00	 call	 ?RenderMeshNodeListWithTwoTexture@CGrannyModelInstance@@IAEXW4EType@CGrannyMesh@@W42CGrannyMaterial@@@Z ; CGrannyModelInstance::RenderMeshNodeListWithTwoTexture
$LN3@RenderWith:

; 87   : 	}
; 88   : 	if (lpd3dRigidPNTVtxBuf)

  00051	85 ff		 test	 edi, edi
  00053	74 1b		 je	 SHORT $LN6@RenderWith

; 89   : 	{
; 90   : 		STATEMANAGER.SetStreamSource(0, lpd3dRigidPNTVtxBuf, sizeof(TPNTVertex));

  00055	8b 0d 00 00 00
	00		 mov	 ecx, DWORD PTR ?ms_singleton@?$CSingleton@VCStateManager@@@@0PAVCStateManager@@A ; CSingleton<CStateManager>::ms_singleton
  0005b	6a 20		 push	 32			; 00000020H
  0005d	57		 push	 edi
  0005e	6a 00		 push	 0
  00060	e8 00 00 00 00	 call	 ?SetStreamSource@CStateManager@@QAEXIPAUIDirect3DVertexBuffer9@@I@Z ; CStateManager::SetStreamSource

; 91   : 		RenderMeshNodeListWithTwoTexture(CGrannyMesh::TYPE_RIGID, CGrannyMaterial::TYPE_DIFFUSE_PNT);

  00065	6a 00		 push	 0
  00067	6a 00		 push	 0
  00069	8b ce		 mov	 ecx, esi
  0006b	e8 00 00 00 00	 call	 ?RenderMeshNodeListWithTwoTexture@CGrannyModelInstance@@IAEXW4EType@CGrannyMesh@@W42CGrannyMaterial@@@Z ; CGrannyModelInstance::RenderMeshNodeListWithTwoTexture
$LN6@RenderWith:
  00070	5f		 pop	 edi
  00071	5b		 pop	 ebx
$LN4@RenderWith:
  00072	5e		 pop	 esi

; 92   : 	}
; 93   : }

  00073	c3		 ret	 0
?RenderWithTwoTexture@CGrannyModelInstance@@QAEXXZ ENDP	; CGrannyModelInstance::RenderWithTwoTexture
_TEXT	ENDS
; Function compile flags: /Ogtp
; File C:\Users\flourine\Desktop\Xantios\client-src\Code\eterGrnLib\ModelInstanceRender.cpp
;	COMDAT ?RenderWithOneTexture@CGrannyModelInstance@@QAEXXZ
_TEXT	SEGMENT
?RenderWithOneTexture@CGrannyModelInstance@@QAEXXZ PROC	; CGrannyModelInstance::RenderWithOneTexture, COMDAT
; _this$ = ecx

; 28   : {

  00000	56		 push	 esi
  00001	8b f1		 mov	 esi, ecx

; 29   : 	// FIXME : Deform, Render, BlendRender¸¦ ą­ľî »óŔ§żˇĽ­ °É·ŻÁÖ´Â °ÍŔĚ ´ő łŞŔ» µí - [levites]
; 30   : 	if (IsEmpty())

  00003	e8 00 00 00 00	 call	 ?IsEmpty@CGrannyModelInstance@@QAE_NXZ ; CGrannyModelInstance::IsEmpty
  00008	84 c0		 test	 al, al
  0000a	75 66		 jne	 SHORT $LN4@RenderWith

; 31   : 		return;
; 32   : 
; 33   : 
; 34   : 	LPDIRECT3DVERTEXBUFFER9 lpd3dDeformPNTVtxBuf = __GetDeformableD3DVertexBufferPtr();

  0000c	53		 push	 ebx
  0000d	57		 push	 edi
  0000e	8b ce		 mov	 ecx, esi
  00010	e8 00 00 00 00	 call	 ?__GetDeformableD3DVertexBufferPtr@CGrannyModelInstance@@IAEPAUIDirect3DVertexBuffer9@@XZ ; CGrannyModelInstance::__GetDeformableD3DVertexBufferPtr

; 35   : 	LPDIRECT3DVERTEXBUFFER9 lpd3dRigidPNTVtxBuf = m_pModel->GetPNTD3DVertexBuffer();

  00015	8b 4e 04	 mov	 ecx, DWORD PTR [esi+4]
  00018	8b d8		 mov	 ebx, eax
  0001a	e8 00 00 00 00	 call	 ?GetPNTD3DVertexBuffer@CGrannyModel@@QBEPAUIDirect3DVertexBuffer9@@XZ ; CGrannyModel::GetPNTD3DVertexBuffer

; 36   : 	STATEMANAGER.SetFVF(ms_pntVS);

  0001f	ff 35 00 00 00
	00		 push	 DWORD PTR ?ms_pntVS@CGraphicBase@@1KA ; CGraphicBase::ms_pntVS
  00025	8b 0d 00 00 00
	00		 mov	 ecx, DWORD PTR ?ms_singleton@?$CSingleton@VCStateManager@@@@0PAVCStateManager@@A ; CSingleton<CStateManager>::ms_singleton
  0002b	8b f8		 mov	 edi, eax
  0002d	e8 00 00 00 00	 call	 ?SetFVF@CStateManager@@QAEXK@Z ; CStateManager::SetFVF

; 37   : 
; 38   : 	if (lpd3dDeformPNTVtxBuf)

  00032	85 db		 test	 ebx, ebx
  00034	74 1b		 je	 SHORT $LN3@RenderWith

; 39   : 	{
; 40   : 		STATEMANAGER.SetStreamSource(0, lpd3dDeformPNTVtxBuf, sizeof(TPNTVertex));

  00036	8b 0d 00 00 00
	00		 mov	 ecx, DWORD PTR ?ms_singleton@?$CSingleton@VCStateManager@@@@0PAVCStateManager@@A ; CSingleton<CStateManager>::ms_singleton
  0003c	6a 20		 push	 32			; 00000020H
  0003e	53		 push	 ebx
  0003f	6a 00		 push	 0
  00041	e8 00 00 00 00	 call	 ?SetStreamSource@CStateManager@@QAEXIPAUIDirect3DVertexBuffer9@@I@Z ; CStateManager::SetStreamSource

; 41   : 		RenderMeshNodeListWithOneTexture(CGrannyMesh::TYPE_DEFORM, CGrannyMaterial::TYPE_DIFFUSE_PNT);

  00046	6a 00		 push	 0
  00048	6a 01		 push	 1
  0004a	8b ce		 mov	 ecx, esi
  0004c	e8 00 00 00 00	 call	 ?RenderMeshNodeListWithOneTexture@CGrannyModelInstance@@IAEXW4EType@CGrannyMesh@@W42CGrannyMaterial@@@Z ; CGrannyModelInstance::RenderMeshNodeListWithOneTexture
$LN3@RenderWith:

; 42   : 	}
; 43   : 	if (lpd3dRigidPNTVtxBuf)

  00051	85 ff		 test	 edi, edi
  00053	74 1b		 je	 SHORT $LN6@RenderWith

; 44   : 	{
; 45   : 		STATEMANAGER.SetStreamSource(0, lpd3dRigidPNTVtxBuf, sizeof(TPNTVertex));

  00055	8b 0d 00 00 00
	00		 mov	 ecx, DWORD PTR ?ms_singleton@?$CSingleton@VCStateManager@@@@0PAVCStateManager@@A ; CSingleton<CStateManager>::ms_singleton
  0005b	6a 20		 push	 32			; 00000020H
  0005d	57		 push	 edi
  0005e	6a 00		 push	 0
  00060	e8 00 00 00 00	 call	 ?SetStreamSource@CStateManager@@QAEXIPAUIDirect3DVertexBuffer9@@I@Z ; CStateManager::SetStreamSource

; 46   : 		RenderMeshNodeListWithOneTexture(CGrannyMesh::TYPE_RIGID, CGrannyMaterial::TYPE_DIFFUSE_PNT);

  00065	6a 00		 push	 0
  00067	6a 00		 push	 0
  00069	8b ce		 mov	 ecx, esi
  0006b	e8 00 00 00 00	 call	 ?RenderMeshNodeListWithOneTexture@CGrannyModelInstance@@IAEXW4EType@CGrannyMesh@@W42CGrannyMaterial@@@Z ; CGrannyModelInstance::RenderMeshNodeListWithOneTexture
$LN6@RenderWith:
  00070	5f		 pop	 edi
  00071	5b		 pop	 ebx
$LN4@RenderWith:
  00072	5e		 pop	 esi

; 47   : 	}
; 48   : }

  00073	c3		 ret	 0
?RenderWithOneTexture@CGrannyModelInstance@@QAEXXZ ENDP	; CGrannyModelInstance::RenderWithOneTexture
_TEXT	ENDS
; Function compile flags: /Ogtp
; File C:\Users\flourine\Desktop\Xantios\client-src\Code\eterGrnLib\ModelInstanceRender.cpp
;	COMDAT ?DeformNoSkin@CGrannyModelInstance@@QAEXPBUD3DXMATRIX@@@Z
_TEXT	SEGMENT
_c_pWorldMatrix$ = 8					; size = 4
?DeformNoSkin@CGrannyModelInstance@@QAEXPBUD3DXMATRIX@@@Z PROC ; CGrannyModelInstance::DeformNoSkin, COMDAT
; _this$ = ecx

; 9    : {

  00000	55		 push	 ebp
  00001	8b ec		 mov	 ebp, esp
  00003	56		 push	 esi
  00004	8b f1		 mov	 esi, ecx

; 10   : 	if (IsEmpty())

  00006	e8 00 00 00 00	 call	 ?IsEmpty@CGrannyModelInstance@@QAE_NXZ ; CGrannyModelInstance::IsEmpty
  0000b	84 c0		 test	 al, al
  0000d	75 11		 jne	 SHORT $LN1@DeformNoSk

; 11   : 		return;
; 12   : 
; 13   : 	// DELETED
; 14   : 	//m_pgrnWorldPose = m_pgrnWorldPoseReal;
; 15   : 	///////////////////////////////
; 16   : 	
; 17   : 	UpdateWorldPose();

  0000f	8b ce		 mov	 ecx, esi
  00011	e8 00 00 00 00	 call	 ?UpdateWorldPose@CGrannyModelInstance@@IAEXXZ ; CGrannyModelInstance::UpdateWorldPose

; 18   : 	UpdateWorldMatrices(c_pWorldMatrix);

  00016	ff 75 08	 push	 DWORD PTR _c_pWorldMatrix$[ebp]
  00019	8b ce		 mov	 ecx, esi
  0001b	e8 00 00 00 00	 call	 ?UpdateWorldMatrices@CGrannyModelInstance@@IAEXPBUD3DXMATRIX@@@Z ; CGrannyModelInstance::UpdateWorldMatrices
$LN1@DeformNoSk:
  00020	5e		 pop	 esi

; 19   : }

  00021	5d		 pop	 ebp
  00022	c2 04 00	 ret	 4
?DeformNoSkin@CGrannyModelInstance@@QAEXPBUD3DXMATRIX@@@Z ENDP ; CGrannyModelInstance::DeformNoSkin
_TEXT	ENDS
; Function compile flags: /Ogtp
;	COMDAT ??_H@YGXPAXIIP6EPAX0@Z@Z
_TEXT	SEGMENT
___t$ = 8						; size = 4
___s$ = 12						; size = 4
___n$ = 16						; size = 4
___f$ = 20						; size = 4
??_H@YGXPAXIIP6EPAX0@Z@Z PROC				; `vector constructor iterator', COMDAT
  00000	55		 push	 ebp
  00001	8b ec		 mov	 ebp, esp
  00003	56		 push	 esi
  00004	8b 75 10	 mov	 esi, DWORD PTR ___n$[ebp]
  00007	85 f6		 test	 esi, esi
  00009	74 16		 je	 SHORT $LN6@vector
  0000b	53		 push	 ebx
  0000c	8b 5d 14	 mov	 ebx, DWORD PTR ___f$[ebp]
  0000f	57		 push	 edi
  00010	8b 7d 08	 mov	 edi, DWORD PTR ___t$[ebp]
$LL2@vector:
  00013	8b cf		 mov	 ecx, edi
  00015	ff d3		 call	 ebx
  00017	03 7d 0c	 add	 edi, DWORD PTR ___s$[ebp]
  0001a	83 ee 01	 sub	 esi, 1
  0001d	75 f4		 jne	 SHORT $LL2@vector
  0001f	5f		 pop	 edi
  00020	5b		 pop	 ebx
$LN6@vector:
  00021	5e		 pop	 esi
  00022	5d		 pop	 ebp
  00023	c2 10 00	 ret	 16			; 00000010H
??_H@YGXPAXIIP6EPAX0@Z@Z ENDP				; `vector constructor iterator'
_TEXT	ENDS
END
