; Listing generated by Microsoft (R) Optimizing Compiler Version 19.34.31942.0 

	TITLE	C:\Users\flourine\Desktop\Xantios\client-src\Code\eterGrnLib\Distribute\ModelInstanceCollisionDetection.obj
	.686P
	.XMM
	include listing.inc
	.model	flat

INCLUDELIB LIBCMT
INCLUDELIB OLDNAMES

PUBLIC	??0exception@std@@QAE@ABV01@@Z			; std::exception::exception
PUBLIC	??1exception@std@@UAE@XZ			; std::exception::~exception
PUBLIC	?what@exception@std@@UBEPBDXZ			; std::exception::what
PUBLIC	??_Gexception@std@@UAEPAXI@Z			; std::exception::`scalar deleting destructor'
PUBLIC	??0bad_alloc@std@@QAE@ABV01@@Z			; std::bad_alloc::bad_alloc
PUBLIC	??_Gbad_alloc@std@@UAEPAXI@Z			; std::bad_alloc::`scalar deleting destructor'
PUBLIC	??0bad_array_new_length@std@@QAE@XZ		; std::bad_array_new_length::bad_array_new_length
PUBLIC	??1bad_array_new_length@std@@UAE@XZ		; std::bad_array_new_length::~bad_array_new_length
PUBLIC	??0bad_array_new_length@std@@QAE@ABV01@@Z	; std::bad_array_new_length::bad_array_new_length
PUBLIC	??_Gbad_array_new_length@std@@UAEPAXI@Z		; std::bad_array_new_length::`scalar deleting destructor'
PUBLIC	?_Throw_bad_array_new_length@std@@YAXXZ		; std::_Throw_bad_array_new_length
PUBLIC	?GetMeshMatrixPointer@CGrannyModelInstance@@QBE_NHPAPBUD3DXMATRIX@@@Z ; CGrannyModelInstance::GetMeshMatrixPointer
PUBLIC	?Intersect@CGrannyModelInstance@@QAE_NPBUD3DXMATRIX@@PAM11@Z ; CGrannyModelInstance::Intersect
PUBLIC	?MakeBoundBox@CGrannyModelInstance@@QAEXPAUSBoundBox@@PBM11PAUD3DXVECTOR3@@2@Z ; CGrannyModelInstance::MakeBoundBox
PUBLIC	?GetBoundBox@CGrannyModelInstance@@QAEXPAUD3DXVECTOR3@@0@Z ; CGrannyModelInstance::GetBoundBox
PUBLIC	??1?$stl_stack_pool@USBoundBox@@@@UAE@XZ	; stl_stack_pool<SBoundBox>::~stl_stack_pool<SBoundBox>
PUBLIC	??1?$vector@USBoundBox@@V?$allocator@USBoundBox@@@std@@@std@@QAE@XZ ; std::vector<SBoundBox,std::allocator<SBoundBox> >::~vector<SBoundBox,std::allocator<SBoundBox> >
PUBLIC	?_Xlength@?$vector@USBoundBox@@V?$allocator@USBoundBox@@@std@@@std@@CAXXZ ; std::vector<SBoundBox,std::allocator<SBoundBox> >::_Xlength
PUBLIC	??_G?$stl_stack_pool@USBoundBox@@@@UAEPAXI@Z	; stl_stack_pool<SBoundBox>::`scalar deleting destructor'
PUBLIC	??$_Resize_reallocate@U_Value_init_tag@std@@@?$vector@USBoundBox@@V?$allocator@USBoundBox@@@std@@@std@@AAEXIABU_Value_init_tag@1@@Z ; std::vector<SBoundBox,std::allocator<SBoundBox> >::_Resize_reallocate<std::_Value_init_tag>
PUBLIC	??$_Allocate_manually_vector_aligned@U_Default_allocate_traits@std@@@std@@YAPAXI@Z ; std::_Allocate_manually_vector_aligned<std::_Default_allocate_traits>
PUBLIC	??$_Copy_memmove@PAUSBoundBox@@PAU1@@std@@YAPAUSBoundBox@@PAU1@00@Z ; std::_Copy_memmove<SBoundBox *,SBoundBox *>
PUBLIC	??_7exception@std@@6B@				; std::exception::`vftable'
PUBLIC	??_C@_0BC@EOODALEL@Unknown?5exception@		; `string'
PUBLIC	??_7bad_alloc@std@@6B@				; std::bad_alloc::`vftable'
PUBLIC	??_7bad_array_new_length@std@@6B@		; std::bad_array_new_length::`vftable'
PUBLIC	??_C@_0BF@KINCDENJ@bad?5array?5new?5length@	; `string'
PUBLIC	__TI3?AVbad_array_new_length@std@@
PUBLIC	__CTA3?AVbad_array_new_length@std@@
PUBLIC	??_R0?AVbad_array_new_length@std@@@8		; std::bad_array_new_length `RTTI Type Descriptor'
PUBLIC	__CT??_R0?AVbad_array_new_length@std@@@8??0bad_array_new_length@std@@QAE@ABV01@@Z12
PUBLIC	??_R0?AVbad_alloc@std@@@8			; std::bad_alloc `RTTI Type Descriptor'
PUBLIC	__CT??_R0?AVbad_alloc@std@@@8??0bad_alloc@std@@QAE@ABV01@@Z12
PUBLIC	??_R0?AVexception@std@@@8			; std::exception `RTTI Type Descriptor'
PUBLIC	__CT??_R0?AVexception@std@@@8??0exception@std@@QAE@ABV01@@Z12
PUBLIC	??_7?$stl_stack_pool@USBoundBox@@@@6B@		; stl_stack_pool<SBoundBox>::`vftable'
PUBLIC	??_C@_0BA@FOIKENOD@vector?5too?5long@		; `string'
PUBLIC	??_R4exception@std@@6B@				; std::exception::`RTTI Complete Object Locator'
PUBLIC	??_R3exception@std@@8				; std::exception::`RTTI Class Hierarchy Descriptor'
PUBLIC	??_R2exception@std@@8				; std::exception::`RTTI Base Class Array'
PUBLIC	??_R1A@?0A@EA@exception@std@@8			; std::exception::`RTTI Base Class Descriptor at (0,-1,0,64)'
PUBLIC	??_R4bad_alloc@std@@6B@				; std::bad_alloc::`RTTI Complete Object Locator'
PUBLIC	??_R3bad_alloc@std@@8				; std::bad_alloc::`RTTI Class Hierarchy Descriptor'
PUBLIC	??_R2bad_alloc@std@@8				; std::bad_alloc::`RTTI Base Class Array'
PUBLIC	??_R1A@?0A@EA@bad_alloc@std@@8			; std::bad_alloc::`RTTI Base Class Descriptor at (0,-1,0,64)'
PUBLIC	??_R4bad_array_new_length@std@@6B@		; std::bad_array_new_length::`RTTI Complete Object Locator'
PUBLIC	??_R3bad_array_new_length@std@@8		; std::bad_array_new_length::`RTTI Class Hierarchy Descriptor'
PUBLIC	??_R2bad_array_new_length@std@@8		; std::bad_array_new_length::`RTTI Base Class Array'
PUBLIC	??_R1A@?0A@EA@bad_array_new_length@std@@8	; std::bad_array_new_length::`RTTI Base Class Descriptor at (0,-1,0,64)'
PUBLIC	??_R4?$stl_stack_pool@USBoundBox@@@@6B@		; stl_stack_pool<SBoundBox>::`RTTI Complete Object Locator'
PUBLIC	??_R0?AV?$stl_stack_pool@USBoundBox@@@@@8	; stl_stack_pool<SBoundBox> `RTTI Type Descriptor'
PUBLIC	??_R3?$stl_stack_pool@USBoundBox@@@@8		; stl_stack_pool<SBoundBox>::`RTTI Class Hierarchy Descriptor'
PUBLIC	??_R2?$stl_stack_pool@USBoundBox@@@@8		; stl_stack_pool<SBoundBox>::`RTTI Base Class Array'
PUBLIC	??_R1A@?0A@EA@?$stl_stack_pool@USBoundBox@@@@8	; stl_stack_pool<SBoundBox>::`RTTI Base Class Descriptor at (0,-1,0,64)'
PUBLIC	__real@4b189680
PUBLIC	__real@cb189680
EXTRN	??2@YAPAXI@Z:PROC				; operator new
EXTRN	??3@YAXPAXI@Z:PROC				; operator delete
EXTRN	_atexit:PROC
EXTRN	__Init_thread_header:PROC
EXTRN	__Init_thread_abort:PROC
EXTRN	__Init_thread_footer:PROC
EXTRN	__imp__GrannyGetWorldPose4x4@8:PROC
EXTRN	__invalid_parameter_noinfo_noreturn:PROC
EXTRN	___std_exception_copy:PROC
EXTRN	___std_exception_destroy:PROC
EXTRN	??_Eexception@std@@UAEPAXI@Z:PROC		; std::exception::`vector deleting destructor'
EXTRN	??_Ebad_alloc@std@@UAEPAXI@Z:PROC		; std::bad_alloc::`vector deleting destructor'
EXTRN	??_Ebad_array_new_length@std@@UAEPAXI@Z:PROC	; std::bad_array_new_length::`vector deleting destructor'
EXTRN	?_Xlength_error@std@@YAXPBD@Z:PROC		; std::_Xlength_error
EXTRN	?IntersectCube@CGraphicCollisionObject@@IAE_NPBUD3DXMATRIX@@MMMMMMAAUD3DXVECTOR3@@1PAM22@Z:PROC ; CGraphicCollisionObject::IntersectCube
EXTRN	?GetMeshCount@CGrannyModel@@QBEHXZ:PROC		; CGrannyModel::GetMeshCount
EXTRN	?GetGrannyModelPointer@CGrannyModel@@QAEPAUgranny_model@@XZ:PROC ; CGrannyModel::GetGrannyModelPointer
EXTRN	?__GetMeshBoneIndices@CGrannyModelInstance@@IBEPBHI@Z:PROC ; CGrannyModelInstance::__GetMeshBoneIndices
EXTRN	?__GetWorldPosePtr@CGrannyModelInstance@@IBEPAUgranny_world_pose@@XZ:PROC ; CGrannyModelInstance::__GetWorldPosePtr
EXTRN	??_E?$stl_stack_pool@USBoundBox@@@@UAEPAXI@Z:PROC ; stl_stack_pool<SBoundBox>::`vector deleting destructor'
EXTRN	@__security_check_cookie@4:PROC
EXTRN	__CxxThrowException@8:PROC
EXTRN	___CxxFrameHandler3:PROC
EXTRN	_memmove:PROC
EXTRN	_memset:PROC
EXTRN	__Init_thread_epoch:DWORD
EXTRN	??_7type_info@@6B@:QWORD			; type_info::`vftable'
EXTRN	?ms_vtPickRayOrig@CGraphicBase@@1UD3DXVECTOR3@@A:BYTE ; CGraphicBase::ms_vtPickRayOrig
EXTRN	?ms_vtPickRayDir@CGraphicBase@@1UD3DXVECTOR3@@A:BYTE ; CGraphicBase::ms_vtPickRayDir
EXTRN	___security_cookie:DWORD
EXTRN	__fltused:DWORD
EXTRN	__tls_array:DWORD
EXTRN	__tls_index:DWORD
;	COMDAT ?$TSS0@?1??Intersect@CGrannyModelInstance@@QAE_NPBUD3DXMATRIX@@PAM11@Z@4HA
_BSS	SEGMENT
?$TSS0@?1??Intersect@CGrannyModelInstance@@QAE_NPBUD3DXMATRIX@@PAM11@Z@4HA DD 01H DUP (?) ; `CGrannyModelInstance::Intersect'::`2'::$TSS0
_BSS	ENDS
;	COMDAT __real@cb189680
CONST	SEGMENT
__real@cb189680 DD 0cb189680r			; -1e+07
CONST	ENDS
;	COMDAT __real@4b189680
CONST	SEGMENT
__real@4b189680 DD 04b189680r			; 1e+07
CONST	ENDS
;	COMDAT ??_R1A@?0A@EA@?$stl_stack_pool@USBoundBox@@@@8
rdata$r	SEGMENT
??_R1A@?0A@EA@?$stl_stack_pool@USBoundBox@@@@8 DD FLAT:??_R0?AV?$stl_stack_pool@USBoundBox@@@@@8 ; stl_stack_pool<SBoundBox>::`RTTI Base Class Descriptor at (0,-1,0,64)'
	DD	00H
	DD	00H
	DD	0ffffffffH
	DD	00H
	DD	040H
	DD	FLAT:??_R3?$stl_stack_pool@USBoundBox@@@@8
rdata$r	ENDS
;	COMDAT ??_R2?$stl_stack_pool@USBoundBox@@@@8
rdata$r	SEGMENT
??_R2?$stl_stack_pool@USBoundBox@@@@8 DD FLAT:??_R1A@?0A@EA@?$stl_stack_pool@USBoundBox@@@@8 ; stl_stack_pool<SBoundBox>::`RTTI Base Class Array'
rdata$r	ENDS
;	COMDAT ??_R3?$stl_stack_pool@USBoundBox@@@@8
rdata$r	SEGMENT
??_R3?$stl_stack_pool@USBoundBox@@@@8 DD 00H		; stl_stack_pool<SBoundBox>::`RTTI Class Hierarchy Descriptor'
	DD	00H
	DD	01H
	DD	FLAT:??_R2?$stl_stack_pool@USBoundBox@@@@8
rdata$r	ENDS
;	COMDAT ??_R0?AV?$stl_stack_pool@USBoundBox@@@@@8
data$rs	SEGMENT
??_R0?AV?$stl_stack_pool@USBoundBox@@@@@8 DD FLAT:??_7type_info@@6B@ ; stl_stack_pool<SBoundBox> `RTTI Type Descriptor'
	DD	00H
	DB	'.?AV?$stl_stack_pool@USBoundBox@@@@', 00H
data$rs	ENDS
;	COMDAT ??_R4?$stl_stack_pool@USBoundBox@@@@6B@
rdata$r	SEGMENT
??_R4?$stl_stack_pool@USBoundBox@@@@6B@ DD 00H		; stl_stack_pool<SBoundBox>::`RTTI Complete Object Locator'
	DD	00H
	DD	00H
	DD	FLAT:??_R0?AV?$stl_stack_pool@USBoundBox@@@@@8
	DD	FLAT:??_R3?$stl_stack_pool@USBoundBox@@@@8
rdata$r	ENDS
;	COMDAT ??_R1A@?0A@EA@bad_array_new_length@std@@8
rdata$r	SEGMENT
??_R1A@?0A@EA@bad_array_new_length@std@@8 DD FLAT:??_R0?AVbad_array_new_length@std@@@8 ; std::bad_array_new_length::`RTTI Base Class Descriptor at (0,-1,0,64)'
	DD	02H
	DD	00H
	DD	0ffffffffH
	DD	00H
	DD	040H
	DD	FLAT:??_R3bad_array_new_length@std@@8
rdata$r	ENDS
;	COMDAT ??_R2bad_array_new_length@std@@8
rdata$r	SEGMENT
??_R2bad_array_new_length@std@@8 DD FLAT:??_R1A@?0A@EA@bad_array_new_length@std@@8 ; std::bad_array_new_length::`RTTI Base Class Array'
	DD	FLAT:??_R1A@?0A@EA@bad_alloc@std@@8
	DD	FLAT:??_R1A@?0A@EA@exception@std@@8
rdata$r	ENDS
;	COMDAT ??_R3bad_array_new_length@std@@8
rdata$r	SEGMENT
??_R3bad_array_new_length@std@@8 DD 00H			; std::bad_array_new_length::`RTTI Class Hierarchy Descriptor'
	DD	00H
	DD	03H
	DD	FLAT:??_R2bad_array_new_length@std@@8
rdata$r	ENDS
;	COMDAT ??_R4bad_array_new_length@std@@6B@
rdata$r	SEGMENT
??_R4bad_array_new_length@std@@6B@ DD 00H		; std::bad_array_new_length::`RTTI Complete Object Locator'
	DD	00H
	DD	00H
	DD	FLAT:??_R0?AVbad_array_new_length@std@@@8
	DD	FLAT:??_R3bad_array_new_length@std@@8
rdata$r	ENDS
;	COMDAT ??_R1A@?0A@EA@bad_alloc@std@@8
rdata$r	SEGMENT
??_R1A@?0A@EA@bad_alloc@std@@8 DD FLAT:??_R0?AVbad_alloc@std@@@8 ; std::bad_alloc::`RTTI Base Class Descriptor at (0,-1,0,64)'
	DD	01H
	DD	00H
	DD	0ffffffffH
	DD	00H
	DD	040H
	DD	FLAT:??_R3bad_alloc@std@@8
rdata$r	ENDS
;	COMDAT ??_R2bad_alloc@std@@8
rdata$r	SEGMENT
??_R2bad_alloc@std@@8 DD FLAT:??_R1A@?0A@EA@bad_alloc@std@@8 ; std::bad_alloc::`RTTI Base Class Array'
	DD	FLAT:??_R1A@?0A@EA@exception@std@@8
rdata$r	ENDS
;	COMDAT ??_R3bad_alloc@std@@8
rdata$r	SEGMENT
??_R3bad_alloc@std@@8 DD 00H				; std::bad_alloc::`RTTI Class Hierarchy Descriptor'
	DD	00H
	DD	02H
	DD	FLAT:??_R2bad_alloc@std@@8
rdata$r	ENDS
;	COMDAT ??_R4bad_alloc@std@@6B@
rdata$r	SEGMENT
??_R4bad_alloc@std@@6B@ DD 00H				; std::bad_alloc::`RTTI Complete Object Locator'
	DD	00H
	DD	00H
	DD	FLAT:??_R0?AVbad_alloc@std@@@8
	DD	FLAT:??_R3bad_alloc@std@@8
rdata$r	ENDS
;	COMDAT ??_R1A@?0A@EA@exception@std@@8
rdata$r	SEGMENT
??_R1A@?0A@EA@exception@std@@8 DD FLAT:??_R0?AVexception@std@@@8 ; std::exception::`RTTI Base Class Descriptor at (0,-1,0,64)'
	DD	00H
	DD	00H
	DD	0ffffffffH
	DD	00H
	DD	040H
	DD	FLAT:??_R3exception@std@@8
rdata$r	ENDS
;	COMDAT ??_R2exception@std@@8
rdata$r	SEGMENT
??_R2exception@std@@8 DD FLAT:??_R1A@?0A@EA@exception@std@@8 ; std::exception::`RTTI Base Class Array'
rdata$r	ENDS
;	COMDAT ??_R3exception@std@@8
rdata$r	SEGMENT
??_R3exception@std@@8 DD 00H				; std::exception::`RTTI Class Hierarchy Descriptor'
	DD	00H
	DD	01H
	DD	FLAT:??_R2exception@std@@8
rdata$r	ENDS
;	COMDAT ??_R4exception@std@@6B@
rdata$r	SEGMENT
??_R4exception@std@@6B@ DD 00H				; std::exception::`RTTI Complete Object Locator'
	DD	00H
	DD	00H
	DD	FLAT:??_R0?AVexception@std@@@8
	DD	FLAT:??_R3exception@std@@8
rdata$r	ENDS
;	COMDAT ??_C@_0BA@FOIKENOD@vector?5too?5long@
CONST	SEGMENT
??_C@_0BA@FOIKENOD@vector?5too?5long@ DB 'vector too long', 00H ; `string'
CONST	ENDS
;	COMDAT ?s_boundBoxPool@?1??Intersect@CGrannyModelInstance@@QAE_NPBUD3DXMATRIX@@PAM11@Z@4V?$stl_stack_pool@USBoundBox@@@@A
_DATA	SEGMENT
?s_boundBoxPool@?1??Intersect@CGrannyModelInstance@@QAE_NPBUD3DXMATRIX@@PAM11@Z@4V?$stl_stack_pool@USBoundBox@@@@A DD FLAT:??_7?$stl_stack_pool@USBoundBox@@@@6B@ ; `CGrannyModelInstance::Intersect'::`2'::s_boundBoxPool
	DD	00H
	DD	00H
	DD	00H
	DD	00H
_DATA	ENDS
;	COMDAT ??_7?$stl_stack_pool@USBoundBox@@@@6B@
CONST	SEGMENT
??_7?$stl_stack_pool@USBoundBox@@@@6B@ DD FLAT:??_R4?$stl_stack_pool@USBoundBox@@@@6B@ ; stl_stack_pool<SBoundBox>::`vftable'
	DD	FLAT:??_E?$stl_stack_pool@USBoundBox@@@@UAEPAXI@Z
CONST	ENDS
;	COMDAT __CT??_R0?AVexception@std@@@8??0exception@std@@QAE@ABV01@@Z12
xdata$x	SEGMENT
__CT??_R0?AVexception@std@@@8??0exception@std@@QAE@ABV01@@Z12 DD 00H
	DD	FLAT:??_R0?AVexception@std@@@8
	DD	00H
	DD	0ffffffffH
	ORG $+4
	DD	0cH
	DD	FLAT:??0exception@std@@QAE@ABV01@@Z
xdata$x	ENDS
;	COMDAT ??_R0?AVexception@std@@@8
data$r	SEGMENT
??_R0?AVexception@std@@@8 DD FLAT:??_7type_info@@6B@	; std::exception `RTTI Type Descriptor'
	DD	00H
	DB	'.?AVexception@std@@', 00H
data$r	ENDS
;	COMDAT __CT??_R0?AVbad_alloc@std@@@8??0bad_alloc@std@@QAE@ABV01@@Z12
xdata$x	SEGMENT
__CT??_R0?AVbad_alloc@std@@@8??0bad_alloc@std@@QAE@ABV01@@Z12 DD 010H
	DD	FLAT:??_R0?AVbad_alloc@std@@@8
	DD	00H
	DD	0ffffffffH
	ORG $+4
	DD	0cH
	DD	FLAT:??0bad_alloc@std@@QAE@ABV01@@Z
xdata$x	ENDS
;	COMDAT ??_R0?AVbad_alloc@std@@@8
data$r	SEGMENT
??_R0?AVbad_alloc@std@@@8 DD FLAT:??_7type_info@@6B@	; std::bad_alloc `RTTI Type Descriptor'
	DD	00H
	DB	'.?AVbad_alloc@std@@', 00H
data$r	ENDS
;	COMDAT __CT??_R0?AVbad_array_new_length@std@@@8??0bad_array_new_length@std@@QAE@ABV01@@Z12
xdata$x	SEGMENT
__CT??_R0?AVbad_array_new_length@std@@@8??0bad_array_new_length@std@@QAE@ABV01@@Z12 DD 00H
	DD	FLAT:??_R0?AVbad_array_new_length@std@@@8
	DD	00H
	DD	0ffffffffH
	ORG $+4
	DD	0cH
	DD	FLAT:??0bad_array_new_length@std@@QAE@ABV01@@Z
xdata$x	ENDS
;	COMDAT ??_R0?AVbad_array_new_length@std@@@8
data$r	SEGMENT
??_R0?AVbad_array_new_length@std@@@8 DD FLAT:??_7type_info@@6B@ ; std::bad_array_new_length `RTTI Type Descriptor'
	DD	00H
	DB	'.?AVbad_array_new_length@std@@', 00H
data$r	ENDS
;	COMDAT __CTA3?AVbad_array_new_length@std@@
xdata$x	SEGMENT
__CTA3?AVbad_array_new_length@std@@ DD 03H
	DD	FLAT:__CT??_R0?AVbad_array_new_length@std@@@8??0bad_array_new_length@std@@QAE@ABV01@@Z12
	DD	FLAT:__CT??_R0?AVbad_alloc@std@@@8??0bad_alloc@std@@QAE@ABV01@@Z12
	DD	FLAT:__CT??_R0?AVexception@std@@@8??0exception@std@@QAE@ABV01@@Z12
xdata$x	ENDS
;	COMDAT __TI3?AVbad_array_new_length@std@@
xdata$x	SEGMENT
__TI3?AVbad_array_new_length@std@@ DD 00H
	DD	FLAT:??1bad_array_new_length@std@@UAE@XZ
	DD	00H
	DD	FLAT:__CTA3?AVbad_array_new_length@std@@
xdata$x	ENDS
;	COMDAT ??_C@_0BF@KINCDENJ@bad?5array?5new?5length@
CONST	SEGMENT
??_C@_0BF@KINCDENJ@bad?5array?5new?5length@ DB 'bad array new length', 00H ; `string'
CONST	ENDS
;	COMDAT ??_7bad_array_new_length@std@@6B@
CONST	SEGMENT
??_7bad_array_new_length@std@@6B@ DD FLAT:??_R4bad_array_new_length@std@@6B@ ; std::bad_array_new_length::`vftable'
	DD	FLAT:??_Ebad_array_new_length@std@@UAEPAXI@Z
	DD	FLAT:?what@exception@std@@UBEPBDXZ
CONST	ENDS
;	COMDAT ??_7bad_alloc@std@@6B@
CONST	SEGMENT
??_7bad_alloc@std@@6B@ DD FLAT:??_R4bad_alloc@std@@6B@	; std::bad_alloc::`vftable'
	DD	FLAT:??_Ebad_alloc@std@@UAEPAXI@Z
	DD	FLAT:?what@exception@std@@UBEPBDXZ
CONST	ENDS
;	COMDAT ??_C@_0BC@EOODALEL@Unknown?5exception@
CONST	SEGMENT
??_C@_0BC@EOODALEL@Unknown?5exception@ DB 'Unknown exception', 00H ; `string'
CONST	ENDS
;	COMDAT ??_7exception@std@@6B@
CONST	SEGMENT
??_7exception@std@@6B@ DD FLAT:??_R4exception@std@@6B@	; std::exception::`vftable'
	DD	FLAT:??_Eexception@std@@UAEPAXI@Z
	DD	FLAT:?what@exception@std@@UBEPBDXZ
CONST	ENDS
;	COMDAT xdata$x
xdata$x	SEGMENT
__unwindtable$??0?$stl_stack_pool@USBoundBox@@@@QAE@H@Z DD 0ffffffffH
	DD	FLAT:__unwindfunclet$??0?$stl_stack_pool@USBoundBox@@@@QAE@H@Z$0
__ehfuncinfo$??0?$stl_stack_pool@USBoundBox@@@@QAE@H@Z DD 019930522H
	DD	01H
	DD	FLAT:__unwindtable$??0?$stl_stack_pool@USBoundBox@@@@QAE@H@Z
	DD	2 DUP(00H)
	DD	2 DUP(00H)
	DD	00H
	DD	01H
xdata$x	ENDS
;	COMDAT xdata$x
xdata$x	SEGMENT
__unwindtable$?Intersect@CGrannyModelInstance@@QAE_NPBUD3DXMATRIX@@PAM11@Z DD 0ffffffffH
	DD	FLAT:__unwindfunclet$?Intersect@CGrannyModelInstance@@QAE_NPBUD3DXMATRIX@@PAM11@Z$0
	DD	00H
	DD	FLAT:__unwindfunclet$?Intersect@CGrannyModelInstance@@QAE_NPBUD3DXMATRIX@@PAM11@Z$1
__ehfuncinfo$?Intersect@CGrannyModelInstance@@QAE_NPBUD3DXMATRIX@@PAM11@Z DD 019930522H
	DD	02H
	DD	FLAT:__unwindtable$?Intersect@CGrannyModelInstance@@QAE_NPBUD3DXMATRIX@@PAM11@Z
	DD	2 DUP(00H)
	DD	2 DUP(00H)
	DD	00H
	DD	01H
xdata$x	ENDS
; Function compile flags: /Ogtp
; File C:\Program Files\Microsoft Visual Studio\2022\Community\VC\Tools\MSVC\14.34.31933\include\xutility
;	COMDAT ??$_Copy_memmove@PAUSBoundBox@@PAU1@@std@@YAPAUSBoundBox@@PAU1@00@Z
_TEXT	SEGMENT
__First$ = 8						; size = 4
__Last$ = 12						; size = 4
__Dest$ = 16						; size = 4
??$_Copy_memmove@PAUSBoundBox@@PAU1@@std@@YAPAUSBoundBox@@PAU1@00@Z PROC ; std::_Copy_memmove<SBoundBox *,SBoundBox *>, COMDAT

; 3833 : _OutCtgIt _Copy_memmove(_CtgIt _First, _CtgIt _Last, _OutCtgIt _Dest) {

  00000	55		 push	 ebp
  00001	8b ec		 mov	 ebp, esp

; 3834 :     auto _FirstPtr              = _To_address(_First);
; 3835 :     auto _LastPtr               = _To_address(_Last);
; 3836 :     auto _DestPtr               = _To_address(_Dest);
; 3837 :     const char* const _First_ch = const_cast<const char*>(reinterpret_cast<const volatile char*>(_FirstPtr));
; 3838 :     const char* const _Last_ch  = const_cast<const char*>(reinterpret_cast<const volatile char*>(_LastPtr));
; 3839 :     char* const _Dest_ch        = const_cast<char*>(reinterpret_cast<const volatile char*>(_DestPtr));
; 3840 :     const auto _Count           = static_cast<size_t>(_Last_ch - _First_ch);

  00003	8b 45 08	 mov	 eax, DWORD PTR __First$[ebp]
  00006	56		 push	 esi

; 3841 :     _CSTD memmove(_Dest_ch, _First_ch, _Count);

  00007	8b 75 10	 mov	 esi, DWORD PTR __Dest$[ebp]
  0000a	57		 push	 edi
  0000b	8b 7d 0c	 mov	 edi, DWORD PTR __Last$[ebp]
  0000e	2b f8		 sub	 edi, eax
  00010	57		 push	 edi
  00011	50		 push	 eax
  00012	56		 push	 esi
  00013	e8 00 00 00 00	 call	 _memmove
  00018	83 c4 0c	 add	 esp, 12			; 0000000cH

; 3842 :     if constexpr (is_pointer_v<_OutCtgIt>) {
; 3843 :         return reinterpret_cast<_OutCtgIt>(_Dest_ch + _Count);

  0001b	8d 04 37	 lea	 eax, DWORD PTR [edi+esi]
  0001e	5f		 pop	 edi
  0001f	5e		 pop	 esi

; 3844 :     } else {
; 3845 :         return _Dest + (_LastPtr - _FirstPtr);
; 3846 :     }
; 3847 : }

  00020	5d		 pop	 ebp
  00021	c3		 ret	 0
??$_Copy_memmove@PAUSBoundBox@@PAU1@@std@@YAPAUSBoundBox@@PAU1@00@Z ENDP ; std::_Copy_memmove<SBoundBox *,SBoundBox *>
_TEXT	ENDS
; Function compile flags: /Ogtp
; File C:\Program Files\Microsoft Visual Studio\2022\Community\VC\Tools\MSVC\14.34.31933\include\xmemory
;	COMDAT ??$_Allocate_manually_vector_aligned@U_Default_allocate_traits@std@@@std@@YAPAXI@Z
_TEXT	SEGMENT
__Bytes$ = 8						; size = 4
??$_Allocate_manually_vector_aligned@U_Default_allocate_traits@std@@@std@@YAPAXI@Z PROC ; std::_Allocate_manually_vector_aligned<std::_Default_allocate_traits>, COMDAT

; 127  : __declspec(allocator) void* _Allocate_manually_vector_aligned(const size_t _Bytes) {

  00000	55		 push	 ebp
  00001	8b ec		 mov	 ebp, esp

; 128  :     // allocate _Bytes manually aligned to at least _Big_allocation_alignment
; 129  :     const size_t _Block_size = _Non_user_size + _Bytes;

  00003	8b 45 08	 mov	 eax, DWORD PTR __Bytes$[ebp]
  00006	8d 48 23	 lea	 ecx, DWORD PTR [eax+35]

; 130  :     if (_Block_size <= _Bytes) {

  00009	3b c8		 cmp	 ecx, eax
  0000b	0f 86 00 00 00
	00		 jbe	 ?_Throw_bad_array_new_length@std@@YAXXZ ; std::_Throw_bad_array_new_length

; 77   :         return ::operator new(_Bytes);

  00011	51		 push	 ecx
  00012	e8 00 00 00 00	 call	 ??2@YAPAXI@Z		; operator new

; 131  :         _Throw_bad_array_new_length(); // add overflow
; 132  :     }
; 133  : 
; 134  :     const uintptr_t _Ptr_container = reinterpret_cast<uintptr_t>(_Traits::_Allocate(_Block_size));

  00017	8b c8		 mov	 ecx, eax

; 77   :         return ::operator new(_Bytes);

  00019	83 c4 04	 add	 esp, 4

; 135  :     _STL_VERIFY(_Ptr_container != 0, "invalid argument"); // validate even in release since we're doing p[-1]

  0001c	85 c9		 test	 ecx, ecx
  0001e	74 0b		 je	 SHORT $LN7@Allocate_m

; 136  :     void* const _Ptr = reinterpret_cast<void*>((_Ptr_container + _Non_user_size) & ~(_Big_allocation_alignment - 1));

  00020	8d 41 23	 lea	 eax, DWORD PTR [ecx+35]
  00023	83 e0 e0	 and	 eax, -32		; ffffffe0H

; 137  :     static_cast<uintptr_t*>(_Ptr)[-1] = _Ptr_container;

  00026	89 48 fc	 mov	 DWORD PTR [eax-4], ecx

; 138  : 
; 139  : #ifdef _DEBUG
; 140  :     static_cast<uintptr_t*>(_Ptr)[-2] = _Big_allocation_sentinel;
; 141  : #endif // _DEBUG
; 142  :     return _Ptr;
; 143  : }

  00029	5d		 pop	 ebp
  0002a	c3		 ret	 0
$LN7@Allocate_m:

; 135  :     _STL_VERIFY(_Ptr_container != 0, "invalid argument"); // validate even in release since we're doing p[-1]

  0002b	e9 00 00 00 00	 jmp	 __invalid_parameter_noinfo_noreturn
??$_Allocate_manually_vector_aligned@U_Default_allocate_traits@std@@@std@@YAPAXI@Z ENDP ; std::_Allocate_manually_vector_aligned<std::_Default_allocate_traits>
_TEXT	ENDS
; Function compile flags: /Ogtp
; File C:\Program Files\Microsoft Visual Studio\2022\Community\VC\Tools\MSVC\14.34.31933\include\vector
; File C:\Program Files\Microsoft Visual Studio\2022\Community\VC\Tools\MSVC\14.34.31933\include\xmemory
; File C:\Program Files\Microsoft Visual Studio\2022\Community\VC\Tools\MSVC\14.34.31933\include\vector
; File C:\Program Files\Microsoft Visual Studio\2022\Community\VC\Tools\MSVC\14.34.31933\include\xmemory
; File C:\Program Files\Microsoft Visual Studio\2022\Community\VC\Tools\MSVC\14.34.31933\include\vector
; File C:\Program Files\Microsoft Visual Studio\2022\Community\VC\Tools\MSVC\14.34.31933\include\xmemory
; File C:\Program Files\Microsoft Visual Studio\2022\Community\VC\Tools\MSVC\14.34.31933\include\vector
; File C:\Program Files\Microsoft Visual Studio\2022\Community\VC\Tools\MSVC\14.34.31933\include\xmemory
; File C:\Program Files\Microsoft Visual Studio\2022\Community\VC\Tools\MSVC\14.34.31933\include\vector
; File C:\Program Files\Microsoft Visual Studio\2022\Community\VC\Tools\MSVC\14.34.31933\include\xmemory
; File C:\Program Files\Microsoft Visual Studio\2022\Community\VC\Tools\MSVC\14.34.31933\include\vector
; File C:\Program Files\Microsoft Visual Studio\2022\Community\VC\Tools\MSVC\14.34.31933\include\xmemory
; File C:\Program Files\Microsoft Visual Studio\2022\Community\VC\Tools\MSVC\14.34.31933\include\vector
; File C:\Program Files\Microsoft Visual Studio\2022\Community\VC\Tools\MSVC\14.34.31933\include\xmemory
; File C:\Program Files\Microsoft Visual Studio\2022\Community\VC\Tools\MSVC\14.34.31933\include\vector
; File C:\Program Files\Microsoft Visual Studio\2022\Community\VC\Tools\MSVC\14.34.31933\include\xmemory
; File C:\Program Files\Microsoft Visual Studio\2022\Community\VC\Tools\MSVC\14.34.31933\include\vector
; File C:\Program Files\Microsoft Visual Studio\2022\Community\VC\Tools\MSVC\14.34.31933\include\xmemory
; File C:\Program Files\Microsoft Visual Studio\2022\Community\VC\Tools\MSVC\14.34.31933\include\vector
;	COMDAT ??$_Resize_reallocate@U_Value_init_tag@std@@@?$vector@USBoundBox@@V?$allocator@USBoundBox@@@std@@@std@@AAEXIABU_Value_init_tag@1@@Z
_TEXT	SEGMENT
__Oldsize$1$ = -4					; size = 4
tv496 = 8						; size = 4
__Newsize$ = 8						; size = 4
__Val$ = 12						; size = 4
??$_Resize_reallocate@U_Value_init_tag@std@@@?$vector@USBoundBox@@V?$allocator@USBoundBox@@@std@@@std@@AAEXIABU_Value_init_tag@1@@Z PROC ; std::vector<SBoundBox,std::allocator<SBoundBox> >::_Resize_reallocate<std::_Value_init_tag>, COMDAT
; _this$ = ecx

; 1574 :     _CONSTEXPR20 void _Resize_reallocate(const size_type _Newsize, const _Ty2& _Val) {

  00000	55		 push	 ebp
  00001	8b ec		 mov	 ebp, esp
  00003	51		 push	 ecx
  00004	53		 push	 ebx
  00005	56		 push	 esi

; 1575 :         if (_Newsize > max_size()) {

  00006	8b 75 08	 mov	 esi, DWORD PTR __Newsize$[ebp]
  00009	57		 push	 edi
  0000a	8b f9		 mov	 edi, ecx
  0000c	81 fe ff ff ff
	07		 cmp	 esi, 134217727		; 07ffffffH
  00012	0f 87 f8 00 00
	00		 ja	 $LN83@Resize_rea

; 1577 :         }
; 1578 : 
; 1579 :         auto& _Al         = _Getal();
; 1580 :         auto& _My_data    = _Mypair._Myval2;
; 1581 :         pointer& _Myfirst = _My_data._Myfirst;
; 1582 :         pointer& _Mylast  = _My_data._Mylast;
; 1583 : 
; 1584 :         const auto _Oldsize          = static_cast<size_type>(_Mylast - _Myfirst);

  00018	8b 4f 04	 mov	 ecx, DWORD PTR [edi+4]

; 2029 :         if (_Oldcapacity > _Max - _Oldcapacity / 2) {

  0001b	b8 ff ff ff 07	 mov	 eax, 134217727		; 07ffffffH

; 1577 :         }
; 1578 : 
; 1579 :         auto& _Al         = _Getal();
; 1580 :         auto& _My_data    = _Mypair._Myval2;
; 1581 :         pointer& _Myfirst = _My_data._Myfirst;
; 1582 :         pointer& _Mylast  = _My_data._Mylast;
; 1583 : 
; 1584 :         const auto _Oldsize          = static_cast<size_type>(_Mylast - _Myfirst);

  00020	2b 0f		 sub	 ecx, DWORD PTR [edi]
  00022	c1 f9 05	 sar	 ecx, 5
  00025	89 4d fc	 mov	 DWORD PTR __Oldsize$1$[ebp], ecx

; 1942 :         return static_cast<size_type>(_My_data._Myend - _My_data._Myfirst);

  00028	8b 4f 08	 mov	 ecx, DWORD PTR [edi+8]
  0002b	2b 0f		 sub	 ecx, DWORD PTR [edi]
  0002d	c1 f9 05	 sar	 ecx, 5

; 2029 :         if (_Oldcapacity > _Max - _Oldcapacity / 2) {

  00030	8b d1		 mov	 edx, ecx
  00032	d1 ea		 shr	 edx, 1
  00034	2b c2		 sub	 eax, edx
  00036	3b c8		 cmp	 ecx, eax
  00038	76 15		 jbe	 SHORT $LN10@Resize_rea

; 2030 :             return _Max; // geometric growth would overflow

  0003a	b8 e0 ff ff ff	 mov	 eax, -32		; ffffffe0H
; File C:\Program Files\Microsoft Visual Studio\2022\Community\VC\Tools\MSVC\14.34.31933\include\xmemory

; 229  :             return _Allocate_manually_vector_aligned<_Traits>(_Bytes);

  0003f	50		 push	 eax
; File C:\Program Files\Microsoft Visual Studio\2022\Community\VC\Tools\MSVC\14.34.31933\include\vector

; 2030 :             return _Max; // geometric growth would overflow

  00040	89 45 08	 mov	 DWORD PTR tv496[ebp], eax
; File C:\Program Files\Microsoft Visual Studio\2022\Community\VC\Tools\MSVC\14.34.31933\include\xmemory

; 229  :             return _Allocate_manually_vector_aligned<_Traits>(_Bytes);

  00043	e8 00 00 00 00	 call	 ??$_Allocate_manually_vector_aligned@U_Default_allocate_traits@std@@@std@@YAPAXI@Z ; std::_Allocate_manually_vector_aligned<std::_Default_allocate_traits>
  00048	83 c4 04	 add	 esp, 4
  0004b	8b d8		 mov	 ebx, eax
  0004d	eb 43		 jmp	 SHORT $LN21@Resize_rea
$LN10@Resize_rea:
; File C:\Program Files\Microsoft Visual Studio\2022\Community\VC\Tools\MSVC\14.34.31933\include\vector

; 2033 :         const size_type _Geometric = _Oldcapacity + _Oldcapacity / 2;

  0004f	8d 04 0a	 lea	 eax, DWORD PTR [edx+ecx]

; 2034 : 
; 2035 :         if (_Geometric < _Newsize) {

  00052	3b c6		 cmp	 eax, esi
  00054	73 1c		 jae	 SHORT $LN11@Resize_rea

; 2036 :             return _Newsize; // geometric growth would be insufficient

  00056	8b c6		 mov	 eax, esi
$LN79@Resize_rea:
; File C:\Program Files\Microsoft Visual Studio\2022\Community\VC\Tools\MSVC\14.34.31933\include\xmemory

; 65   :     return _Count * _Ty_size;

  00058	c1 e0 05	 shl	 eax, 5
  0005b	89 45 08	 mov	 DWORD PTR tv496[ebp], eax

; 228  :         if (_Bytes >= _Big_allocation_threshold) { // boost the alignment of big allocations to help autovectorization

  0005e	3d 00 10 00 00	 cmp	 eax, 4096		; 00001000H
  00063	72 1a		 jb	 SHORT $LN22@Resize_rea

; 229  :             return _Allocate_manually_vector_aligned<_Traits>(_Bytes);

  00065	50		 push	 eax
  00066	e8 00 00 00 00	 call	 ??$_Allocate_manually_vector_aligned@U_Default_allocate_traits@std@@@std@@YAPAXI@Z ; std::_Allocate_manually_vector_aligned<std::_Default_allocate_traits>
  0006b	83 c4 04	 add	 esp, 4
  0006e	8b d8		 mov	 ebx, eax
  00070	eb 20		 jmp	 SHORT $LN21@Resize_rea
$LN11@Resize_rea:

; 60   :         if (_Count > _Max_possible) {

  00072	3d ff ff ff 07	 cmp	 eax, 134217727		; 07ffffffH
  00077	0f 87 98 00 00
	00		 ja	 $LN84@Resize_rea
  0007d	eb d9		 jmp	 SHORT $LN79@Resize_rea
$LN22@Resize_rea:

; 234  :     if (_Bytes != 0) {

  0007f	85 c0		 test	 eax, eax
  00081	74 0d		 je	 SHORT $LN23@Resize_rea

; 77   :         return ::operator new(_Bytes);

  00083	50		 push	 eax
  00084	e8 00 00 00 00	 call	 ??2@YAPAXI@Z		; operator new
  00089	83 c4 04	 add	 esp, 4

; 235  :         return _Traits::_Allocate(_Bytes);

  0008c	8b d8		 mov	 ebx, eax
  0008e	eb 02		 jmp	 SHORT $LN21@Resize_rea
$LN23@Resize_rea:

; 236  :     }
; 237  : 
; 238  :     return nullptr;

  00090	33 db		 xor	 ebx, ebx
$LN21@Resize_rea:
; File C:\Program Files\Microsoft Visual Studio\2022\Community\VC\Tools\MSVC\14.34.31933\include\vector

; 1588 :         const pointer _Appended_first = _Newvec + _Oldsize;

  00092	8b 4d fc	 mov	 ecx, DWORD PTR __Oldsize$1$[ebp]

; 1596 :             _Appended_last = _Uninitialized_value_construct_n(_Appended_first, _Newsize - _Oldsize, _Al);

  00095	8b c6		 mov	 eax, esi
  00097	c1 e1 05	 shl	 ecx, 5
  0009a	03 cb		 add	 ecx, ebx
  0009c	2b 45 fc	 sub	 eax, DWORD PTR __Oldsize$1$[ebp]
; File C:\Program Files\Microsoft Visual Studio\2022\Community\VC\Tools\MSVC\14.34.31933\include\xmemory

; 1902 :     for (; 0 < _Count; --_Count) {

  0009f	74 0f		 je	 SHORT $LN31@Resize_rea
; File C:\Program Files\Microsoft Visual Studio\2022\Community\VC\Tools\MSVC\14.34.31933\include\vector

; 1596 :             _Appended_last = _Uninitialized_value_construct_n(_Appended_first, _Newsize - _Oldsize, _Al);

  000a1	c1 e0 05	 shl	 eax, 5
  000a4	50		 push	 eax
  000a5	6a 00		 push	 0
  000a7	51		 push	 ecx
  000a8	e8 00 00 00 00	 call	 _memset
  000ad	83 c4 0c	 add	 esp, 12			; 0000000cH
$LN31@Resize_rea:
; File C:\Program Files\Microsoft Visual Studio\2022\Community\VC\Tools\MSVC\14.34.31933\include\xmemory

; 1800 :             _Copy_memmove(_UFirst, _ULast, _Unfancy(_Dest));

  000b0	53		 push	 ebx
  000b1	ff 77 04	 push	 DWORD PTR [edi+4]
  000b4	ff 37		 push	 DWORD PTR [edi]
  000b6	e8 00 00 00 00	 call	 ??$_Copy_memmove@PAUSBoundBox@@PAU1@@std@@YAPAUSBoundBox@@PAU1@00@Z ; std::_Copy_memmove<SBoundBox *,SBoundBox *>
; File C:\Program Files\Microsoft Visual Studio\2022\Community\VC\Tools\MSVC\14.34.31933\include\vector

; 2086 :         if (_Myfirst) { // destroy and deallocate old array

  000bb	8b 07		 mov	 eax, DWORD PTR [edi]
; File C:\Program Files\Microsoft Visual Studio\2022\Community\VC\Tools\MSVC\14.34.31933\include\xmemory

; 1800 :             _Copy_memmove(_UFirst, _ULast, _Unfancy(_Dest));

  000bd	83 c4 0c	 add	 esp, 12			; 0000000cH
; File C:\Program Files\Microsoft Visual Studio\2022\Community\VC\Tools\MSVC\14.34.31933\include\vector

; 2086 :         if (_Myfirst) { // destroy and deallocate old array

  000c0	85 c0		 test	 eax, eax
  000c2	74 2c		 je	 SHORT $LN61@Resize_rea

; 2087 :             _Destroy_range(_Myfirst, _Mylast, _Al);
; 2088 :             _ASAN_VECTOR_REMOVE;
; 2089 :             _Al.deallocate(_Myfirst, static_cast<size_type>(_Myend - _Myfirst));

  000c4	8b 4f 08	 mov	 ecx, DWORD PTR [edi+8]
  000c7	2b c8		 sub	 ecx, eax
; File C:\Program Files\Microsoft Visual Studio\2022\Community\VC\Tools\MSVC\14.34.31933\include\xmemory

; 830  :         _Deallocate<_New_alignof<_Ty>>(_Ptr, sizeof(_Ty) * _Count);

  000c9	83 e1 e0	 and	 ecx, -32		; ffffffe0H

; 251  :         if (_Bytes >= _Big_allocation_threshold) { // boost the alignment of big allocations to help autovectorization

  000cc	81 f9 00 10 00
	00		 cmp	 ecx, 4096		; 00001000H
  000d2	72 12		 jb	 SHORT $LN71@Resize_rea

; 150  :     const uintptr_t _Ptr_container   = _Ptr_user[-1];

  000d4	8b 50 fc	 mov	 edx, DWORD PTR [eax-4]
  000d7	83 c1 23	 add	 ecx, 35			; 00000023H

; 151  : 
; 152  :     // If the following asserts, it likely means that we are performing
; 153  :     // an aligned delete on memory coming from an unaligned allocation.
; 154  :     _STL_ASSERT(_Ptr_user[-2] == _Big_allocation_sentinel, "invalid argument");
; 155  : 
; 156  :     // Extra paranoia on aligned allocation/deallocation; ensure _Ptr_container is
; 157  :     // in range [_Min_back_shift, _Non_user_size]
; 158  : #ifdef _DEBUG
; 159  :     constexpr uintptr_t _Min_back_shift = 2 * sizeof(void*);
; 160  : #else // ^^^ _DEBUG ^^^ // vvv !_DEBUG vvv
; 161  :     constexpr uintptr_t _Min_back_shift = sizeof(void*);
; 162  : #endif // _DEBUG
; 163  :     const uintptr_t _Back_shift = reinterpret_cast<uintptr_t>(_Ptr) - _Ptr_container;

  000da	2b c2		 sub	 eax, edx

; 164  :     _STL_VERIFY(_Back_shift >= _Min_back_shift && _Back_shift <= _Non_user_size, "invalid argument");

  000dc	83 c0 fc	 add	 eax, -4			; fffffffcH
  000df	83 f8 1f	 cmp	 eax, 31			; 0000001fH
  000e2	77 27		 ja	 SHORT $LN68@Resize_rea

; 165  :     _Ptr = reinterpret_cast<void*>(_Ptr_container);

  000e4	8b c2		 mov	 eax, edx
$LN71@Resize_rea:

; 255  :         ::operator delete(_Ptr, _Bytes);

  000e6	51		 push	 ecx
  000e7	50		 push	 eax
  000e8	e8 00 00 00 00	 call	 ??3@YAXPAXI@Z		; operator delete
  000ed	83 c4 08	 add	 esp, 8
$LN61@Resize_rea:
; File C:\Program Files\Microsoft Visual Studio\2022\Community\VC\Tools\MSVC\14.34.31933\include\vector

; 2094 :         _Myend   = _Newvec + _Newcapacity;

  000f0	8b 45 08	 mov	 eax, DWORD PTR tv496[ebp]
  000f3	c1 e6 05	 shl	 esi, 5
  000f6	03 f3		 add	 esi, ebx
  000f8	89 1f		 mov	 DWORD PTR [edi], ebx
  000fa	89 77 04	 mov	 DWORD PTR [edi+4], esi
  000fd	03 c3		 add	 eax, ebx
  000ff	89 47 08	 mov	 DWORD PTR [edi+8], eax
  00102	5f		 pop	 edi
  00103	5e		 pop	 esi
  00104	5b		 pop	 ebx

; 1611 :     }

  00105	8b e5		 mov	 esp, ebp
  00107	5d		 pop	 ebp
  00108	c2 08 00	 ret	 8
$LN68@Resize_rea:
; File C:\Program Files\Microsoft Visual Studio\2022\Community\VC\Tools\MSVC\14.34.31933\include\xmemory

; 164  :     _STL_VERIFY(_Back_shift >= _Min_back_shift && _Back_shift <= _Non_user_size, "invalid argument");

  0010b	e8 00 00 00 00	 call	 __invalid_parameter_noinfo_noreturn
$LN83@Resize_rea:
; File C:\Program Files\Microsoft Visual Studio\2022\Community\VC\Tools\MSVC\14.34.31933\include\vector

; 1576 :             _Xlength();

  00110	e8 00 00 00 00	 call	 ?_Xlength@?$vector@USBoundBox@@V?$allocator@USBoundBox@@@std@@@std@@CAXXZ ; std::vector<SBoundBox,std::allocator<SBoundBox> >::_Xlength
$LN84@Resize_rea:
; File C:\Program Files\Microsoft Visual Studio\2022\Community\VC\Tools\MSVC\14.34.31933\include\xmemory

; 61   :             _Throw_bad_array_new_length(); // multiply overflow

  00115	e8 00 00 00 00	 call	 ?_Throw_bad_array_new_length@std@@YAXXZ ; std::_Throw_bad_array_new_length
$LN81@Resize_rea:
  0011a	cc		 int	 3
??$_Resize_reallocate@U_Value_init_tag@std@@@?$vector@USBoundBox@@V?$allocator@USBoundBox@@@std@@@std@@AAEXIABU_Value_init_tag@1@@Z ENDP ; std::vector<SBoundBox,std::allocator<SBoundBox> >::_Resize_reallocate<std::_Value_init_tag>
_TEXT	ENDS
; Function compile flags: /Ogtp
;	COMDAT ??__Fs_boundBoxPool@?1??Intersect@CGrannyModelInstance@@QAE_NPBUD3DXMATRIX@@PAM11@Z@YAXXZ
text$yd	SEGMENT
??__Fs_boundBoxPool@?1??Intersect@CGrannyModelInstance@@QAE_NPBUD3DXMATRIX@@PAM11@Z@YAXXZ PROC ; `CGrannyModelInstance::Intersect'::`2'::`dynamic atexit destructor for 's_boundBoxPool'', COMDAT
  00000	b9 00 00 00 00	 mov	 ecx, OFFSET ?s_boundBoxPool@?1??Intersect@CGrannyModelInstance@@QAE_NPBUD3DXMATRIX@@PAM11@Z@4V?$stl_stack_pool@USBoundBox@@@@A
  00005	e9 00 00 00 00	 jmp	 ??1?$stl_stack_pool@USBoundBox@@@@UAE@XZ ; stl_stack_pool<SBoundBox>::~stl_stack_pool<SBoundBox>
??__Fs_boundBoxPool@?1??Intersect@CGrannyModelInstance@@QAE_NPBUD3DXMATRIX@@PAM11@Z@YAXXZ ENDP ; `CGrannyModelInstance::Intersect'::`2'::`dynamic atexit destructor for 's_boundBoxPool''
text$yd	ENDS
; Function compile flags: /Ogtp
;	COMDAT ??_G?$stl_stack_pool@USBoundBox@@@@UAEPAXI@Z
_TEXT	SEGMENT
___flags$ = 8						; size = 4
??_G?$stl_stack_pool@USBoundBox@@@@UAEPAXI@Z PROC	; stl_stack_pool<SBoundBox>::`scalar deleting destructor', COMDAT
; _this$ = ecx
  00000	55		 push	 ebp
  00001	8b ec		 mov	 ebp, esp
  00003	56		 push	 esi
  00004	8b f1		 mov	 esi, ecx
  00006	e8 00 00 00 00	 call	 ??1?$stl_stack_pool@USBoundBox@@@@UAE@XZ ; stl_stack_pool<SBoundBox>::~stl_stack_pool<SBoundBox>
  0000b	f6 45 08 01	 test	 BYTE PTR ___flags$[ebp], 1
  0000f	74 0b		 je	 SHORT $LN4@scalar
  00011	6a 14		 push	 20			; 00000014H
  00013	56		 push	 esi
  00014	e8 00 00 00 00	 call	 ??3@YAXPAXI@Z		; operator delete
  00019	83 c4 08	 add	 esp, 8
$LN4@scalar:
  0001c	8b c6		 mov	 eax, esi
  0001e	5e		 pop	 esi
  0001f	5d		 pop	 ebp
  00020	c2 04 00	 ret	 4
??_G?$stl_stack_pool@USBoundBox@@@@UAEPAXI@Z ENDP	; stl_stack_pool<SBoundBox>::`scalar deleting destructor'
_TEXT	ENDS
; Function compile flags: /Ogtp
; File C:\Program Files\Microsoft Visual Studio\2022\Community\VC\Tools\MSVC\14.34.31933\include\vector
;	COMDAT ?_Xlength@?$vector@USBoundBox@@V?$allocator@USBoundBox@@@std@@@std@@CAXXZ
_TEXT	SEGMENT
?_Xlength@?$vector@USBoundBox@@V?$allocator@USBoundBox@@@std@@@std@@CAXXZ PROC ; std::vector<SBoundBox,std::allocator<SBoundBox> >::_Xlength, COMDAT

; 2201 :         _Xlength_error("vector too long");

  00000	68 00 00 00 00	 push	 OFFSET ??_C@_0BA@FOIKENOD@vector?5too?5long@
  00005	e8 00 00 00 00	 call	 ?_Xlength_error@std@@YAXPBD@Z ; std::_Xlength_error
$LN3@Xlength:
  0000a	cc		 int	 3
?_Xlength@?$vector@USBoundBox@@V?$allocator@USBoundBox@@@std@@@std@@CAXXZ ENDP ; std::vector<SBoundBox,std::allocator<SBoundBox> >::_Xlength
_TEXT	ENDS
; Function compile flags: /Ogtp
; File C:\Program Files\Microsoft Visual Studio\2022\Community\VC\Tools\MSVC\14.34.31933\include\vector
; File C:\Program Files\Microsoft Visual Studio\2022\Community\VC\Tools\MSVC\14.34.31933\include\xmemory
; File C:\Program Files\Microsoft Visual Studio\2022\Community\VC\Tools\MSVC\14.34.31933\include\vector
; File C:\Program Files\Microsoft Visual Studio\2022\Community\VC\Tools\MSVC\14.34.31933\include\xmemory
; File C:\Program Files\Microsoft Visual Studio\2022\Community\VC\Tools\MSVC\14.34.31933\include\vector
; File C:\Program Files\Microsoft Visual Studio\2022\Community\VC\Tools\MSVC\14.34.31933\include\xmemory
; File C:\Program Files\Microsoft Visual Studio\2022\Community\VC\Tools\MSVC\14.34.31933\include\vector
;	COMDAT ??1?$vector@USBoundBox@@V?$allocator@USBoundBox@@@std@@@std@@QAE@XZ
_TEXT	SEGMENT
??1?$vector@USBoundBox@@V?$allocator@USBoundBox@@@std@@@std@@QAE@XZ PROC ; std::vector<SBoundBox,std::allocator<SBoundBox> >::~vector<SBoundBox,std::allocator<SBoundBox> >, COMDAT
; _this$ = ecx

; 829  :     _CONSTEXPR20 ~vector() noexcept {

  00000	56		 push	 esi
  00001	8b f1		 mov	 esi, ecx

; 2107 :         if (_Myfirst) { // destroy and deallocate old array

  00003	8b 06		 mov	 eax, DWORD PTR [esi]
  00005	85 c0		 test	 eax, eax
  00007	74 40		 je	 SHORT $LN4@vector

; 2108 :             _Destroy_range(_Myfirst, _Mylast, _Al);
; 2109 :             _ASAN_VECTOR_REMOVE;
; 2110 :             _Al.deallocate(_Myfirst, static_cast<size_type>(_Myend - _Myfirst));

  00009	8b 4e 08	 mov	 ecx, DWORD PTR [esi+8]
  0000c	2b c8		 sub	 ecx, eax
; File C:\Program Files\Microsoft Visual Studio\2022\Community\VC\Tools\MSVC\14.34.31933\include\xmemory

; 830  :         _Deallocate<_New_alignof<_Ty>>(_Ptr, sizeof(_Ty) * _Count);

  0000e	83 e1 e0	 and	 ecx, -32		; ffffffe0H

; 251  :         if (_Bytes >= _Big_allocation_threshold) { // boost the alignment of big allocations to help autovectorization

  00011	81 f9 00 10 00
	00		 cmp	 ecx, 4096		; 00001000H
  00017	72 12		 jb	 SHORT $LN20@vector

; 150  :     const uintptr_t _Ptr_container   = _Ptr_user[-1];

  00019	8b 50 fc	 mov	 edx, DWORD PTR [eax-4]
  0001c	83 c1 23	 add	 ecx, 35			; 00000023H

; 151  : 
; 152  :     // If the following asserts, it likely means that we are performing
; 153  :     // an aligned delete on memory coming from an unaligned allocation.
; 154  :     _STL_ASSERT(_Ptr_user[-2] == _Big_allocation_sentinel, "invalid argument");
; 155  : 
; 156  :     // Extra paranoia on aligned allocation/deallocation; ensure _Ptr_container is
; 157  :     // in range [_Min_back_shift, _Non_user_size]
; 158  : #ifdef _DEBUG
; 159  :     constexpr uintptr_t _Min_back_shift = 2 * sizeof(void*);
; 160  : #else // ^^^ _DEBUG ^^^ // vvv !_DEBUG vvv
; 161  :     constexpr uintptr_t _Min_back_shift = sizeof(void*);
; 162  : #endif // _DEBUG
; 163  :     const uintptr_t _Back_shift = reinterpret_cast<uintptr_t>(_Ptr) - _Ptr_container;

  0001f	2b c2		 sub	 eax, edx

; 164  :     _STL_VERIFY(_Back_shift >= _Min_back_shift && _Back_shift <= _Non_user_size, "invalid argument");

  00021	83 c0 fc	 add	 eax, -4			; fffffffcH
  00024	83 f8 1f	 cmp	 eax, 31			; 0000001fH
  00027	77 22		 ja	 SHORT $LN17@vector

; 165  :     _Ptr = reinterpret_cast<void*>(_Ptr_container);

  00029	8b c2		 mov	 eax, edx
$LN20@vector:

; 255  :         ::operator delete(_Ptr, _Bytes);

  0002b	51		 push	 ecx
  0002c	50		 push	 eax
  0002d	e8 00 00 00 00	 call	 ??3@YAXPAXI@Z		; operator delete
; File C:\Program Files\Microsoft Visual Studio\2022\Community\VC\Tools\MSVC\14.34.31933\include\vector

; 2112 :             _Myfirst = nullptr;

  00032	c7 06 00 00 00
	00		 mov	 DWORD PTR [esi], 0
; File C:\Program Files\Microsoft Visual Studio\2022\Community\VC\Tools\MSVC\14.34.31933\include\xmemory

; 255  :         ::operator delete(_Ptr, _Bytes);

  00038	83 c4 08	 add	 esp, 8
; File C:\Program Files\Microsoft Visual Studio\2022\Community\VC\Tools\MSVC\14.34.31933\include\vector

; 2113 :             _Mylast  = nullptr;

  0003b	c7 46 04 00 00
	00 00		 mov	 DWORD PTR [esi+4], 0

; 2114 :             _Myend   = nullptr;

  00042	c7 46 08 00 00
	00 00		 mov	 DWORD PTR [esi+8], 0
$LN4@vector:
  00049	5e		 pop	 esi

; 835  :     }

  0004a	c3		 ret	 0
$LN17@vector:
; File C:\Program Files\Microsoft Visual Studio\2022\Community\VC\Tools\MSVC\14.34.31933\include\xmemory

; 164  :     _STL_VERIFY(_Back_shift >= _Min_back_shift && _Back_shift <= _Non_user_size, "invalid argument");

  0004b	e8 00 00 00 00	 call	 __invalid_parameter_noinfo_noreturn
$LN25@vector:
  00050	cc		 int	 3
??1?$vector@USBoundBox@@V?$allocator@USBoundBox@@@std@@@std@@QAE@XZ ENDP ; std::vector<SBoundBox,std::allocator<SBoundBox> >::~vector<SBoundBox,std::allocator<SBoundBox> >
_TEXT	ENDS
; Function compile flags: /Ogtp
; File C:\Users\flourine\Desktop\Xantios\client-src\Code\eterBase\Stl.h
; File C:\Program Files\Microsoft Visual Studio\2022\Community\VC\Tools\MSVC\14.34.31933\include\vector
; File C:\Program Files\Microsoft Visual Studio\2022\Community\VC\Tools\MSVC\14.34.31933\include\xmemory
; File C:\Program Files\Microsoft Visual Studio\2022\Community\VC\Tools\MSVC\14.34.31933\include\vector
; File C:\Program Files\Microsoft Visual Studio\2022\Community\VC\Tools\MSVC\14.34.31933\include\xmemory
; File C:\Program Files\Microsoft Visual Studio\2022\Community\VC\Tools\MSVC\14.34.31933\include\vector
; File C:\Users\flourine\Desktop\Xantios\client-src\Code\eterBase\Stl.h
; File C:\Program Files\Microsoft Visual Studio\2022\Community\VC\Tools\MSVC\14.34.31933\include\xmemory
; File C:\Users\flourine\Desktop\Xantios\client-src\Code\eterBase\Stl.h
;	COMDAT ??1?$stl_stack_pool@USBoundBox@@@@UAE@XZ
_TEXT	SEGMENT
??1?$stl_stack_pool@USBoundBox@@@@UAE@XZ PROC		; stl_stack_pool<SBoundBox>::~stl_stack_pool<SBoundBox>, COMDAT
; _this$ = ecx

; 203  : 	{

  00000	56		 push	 esi
  00001	8b f1		 mov	 esi, ecx
  00003	c7 06 00 00 00
	00		 mov	 DWORD PTR [esi], OFFSET ??_7?$stl_stack_pool@USBoundBox@@@@6B@
; File C:\Program Files\Microsoft Visual Studio\2022\Community\VC\Tools\MSVC\14.34.31933\include\vector

; 2107 :         if (_Myfirst) { // destroy and deallocate old array

  00009	8b 46 08	 mov	 eax, DWORD PTR [esi+8]
  0000c	85 c0		 test	 eax, eax
  0000e	74 41		 je	 SHORT $LN6@stl_stack_

; 2108 :             _Destroy_range(_Myfirst, _Mylast, _Al);
; 2109 :             _ASAN_VECTOR_REMOVE;
; 2110 :             _Al.deallocate(_Myfirst, static_cast<size_type>(_Myend - _Myfirst));

  00010	8b 4e 10	 mov	 ecx, DWORD PTR [esi+16]
  00013	2b c8		 sub	 ecx, eax
; File C:\Program Files\Microsoft Visual Studio\2022\Community\VC\Tools\MSVC\14.34.31933\include\xmemory

; 830  :         _Deallocate<_New_alignof<_Ty>>(_Ptr, sizeof(_Ty) * _Count);

  00015	83 e1 e0	 and	 ecx, -32		; ffffffe0H

; 251  :         if (_Bytes >= _Big_allocation_threshold) { // boost the alignment of big allocations to help autovectorization

  00018	81 f9 00 10 00
	00		 cmp	 ecx, 4096		; 00001000H
  0001e	72 12		 jb	 SHORT $LN22@stl_stack_

; 150  :     const uintptr_t _Ptr_container   = _Ptr_user[-1];

  00020	8b 50 fc	 mov	 edx, DWORD PTR [eax-4]
  00023	83 c1 23	 add	 ecx, 35			; 00000023H

; 151  : 
; 152  :     // If the following asserts, it likely means that we are performing
; 153  :     // an aligned delete on memory coming from an unaligned allocation.
; 154  :     _STL_ASSERT(_Ptr_user[-2] == _Big_allocation_sentinel, "invalid argument");
; 155  : 
; 156  :     // Extra paranoia on aligned allocation/deallocation; ensure _Ptr_container is
; 157  :     // in range [_Min_back_shift, _Non_user_size]
; 158  : #ifdef _DEBUG
; 159  :     constexpr uintptr_t _Min_back_shift = 2 * sizeof(void*);
; 160  : #else // ^^^ _DEBUG ^^^ // vvv !_DEBUG vvv
; 161  :     constexpr uintptr_t _Min_back_shift = sizeof(void*);
; 162  : #endif // _DEBUG
; 163  :     const uintptr_t _Back_shift = reinterpret_cast<uintptr_t>(_Ptr) - _Ptr_container;

  00026	2b c2		 sub	 eax, edx

; 164  :     _STL_VERIFY(_Back_shift >= _Min_back_shift && _Back_shift <= _Non_user_size, "invalid argument");

  00028	83 c0 fc	 add	 eax, -4			; fffffffcH
  0002b	83 f8 1f	 cmp	 eax, 31			; 0000001fH
  0002e	77 23		 ja	 SHORT $LN19@stl_stack_

; 165  :     _Ptr = reinterpret_cast<void*>(_Ptr_container);

  00030	8b c2		 mov	 eax, edx
$LN22@stl_stack_:

; 255  :         ::operator delete(_Ptr, _Bytes);

  00032	51		 push	 ecx
  00033	50		 push	 eax
  00034	e8 00 00 00 00	 call	 ??3@YAXPAXI@Z		; operator delete
; File C:\Program Files\Microsoft Visual Studio\2022\Community\VC\Tools\MSVC\14.34.31933\include\vector

; 2112 :             _Myfirst = nullptr;

  00039	c7 46 08 00 00
	00 00		 mov	 DWORD PTR [esi+8], 0
; File C:\Program Files\Microsoft Visual Studio\2022\Community\VC\Tools\MSVC\14.34.31933\include\xmemory

; 255  :         ::operator delete(_Ptr, _Bytes);

  00040	83 c4 08	 add	 esp, 8
; File C:\Program Files\Microsoft Visual Studio\2022\Community\VC\Tools\MSVC\14.34.31933\include\vector

; 2113 :             _Mylast  = nullptr;

  00043	c7 46 0c 00 00
	00 00		 mov	 DWORD PTR [esi+12], 0

; 2114 :             _Myend   = nullptr;

  0004a	c7 46 10 00 00
	00 00		 mov	 DWORD PTR [esi+16], 0
$LN6@stl_stack_:
  00051	5e		 pop	 esi
; File C:\Users\flourine\Desktop\Xantios\client-src\Code\eterBase\Stl.h

; 204  : 	}

  00052	c3		 ret	 0
$LN19@stl_stack_:
; File C:\Program Files\Microsoft Visual Studio\2022\Community\VC\Tools\MSVC\14.34.31933\include\xmemory

; 164  :     _STL_VERIFY(_Back_shift >= _Min_back_shift && _Back_shift <= _Non_user_size, "invalid argument");

  00053	e8 00 00 00 00	 call	 __invalid_parameter_noinfo_noreturn
$LN28@stl_stack_:
  00058	cc		 int	 3
??1?$stl_stack_pool@USBoundBox@@@@UAE@XZ ENDP		; stl_stack_pool<SBoundBox>::~stl_stack_pool<SBoundBox>
_TEXT	ENDS
; Function compile flags: /Ogtp
; File C:\Users\flourine\Desktop\Xantios\client-src\Code\eterGrnLib\ModelInstanceCollisionDetection.cpp
;	COMDAT ?GetBoundBox@CGrannyModelInstance@@QAEXPAUD3DXVECTOR3@@0@Z
_TEXT	SEGMENT
_BoundBox$ = -56					; size = 32
_meshCount$1$ = -24					; size = 4
_boneIndices$1$ = -20					; size = 4
_pgrnMesh$1$ = -16					; size = 4
_m$1$ = -12						; size = 4
tv276 = -8						; size = 4
_this$1$ = -4						; size = 4
_vtMin$ = 8						; size = 4
_vtMax$ = 12						; size = 4
?GetBoundBox@CGrannyModelInstance@@QAEXPAUD3DXVECTOR3@@0@Z PROC ; CGrannyModelInstance::GetBoundBox, COMDAT
; _this$ = ecx

; 184  : {

  00000	55		 push	 ebp
  00001	8b ec		 mov	 ebp, esp
  00003	83 ec 38	 sub	 esp, 56			; 00000038H
  00006	56		 push	 esi
  00007	8b f1		 mov	 esi, ecx
  00009	89 75 fc	 mov	 DWORD PTR _this$1$[ebp], esi

; 185  : 	if (!m_pgrnModelInstance)

  0000c	83 7e 08 00	 cmp	 DWORD PTR [esi+8], 0
  00010	0f 84 d6 00 00
	00		 je	 $LN3@GetBoundBo

; 186  : 	{
; 187  : 		return;
; 188  : 	}
; 189  : 
; 190  : 	TBoundBox BoundBox;
; 191  : 
; 192  : 	vtMin->x = vtMin->y = vtMin->z = +100000.0f;

  00016	8b 45 08	 mov	 eax, DWORD PTR _vtMin$[ebp]
  00019	53		 push	 ebx
  0001a	c7 40 08 00 50
	c3 47		 mov	 DWORD PTR [eax+8], 1203982336 ; 47c35000H
  00021	c7 40 04 00 50
	c3 47		 mov	 DWORD PTR [eax+4], 1203982336 ; 47c35000H
  00028	c7 00 00 50 c3
	47		 mov	 DWORD PTR [eax], 1203982336 ; 47c35000H

; 193  : 	vtMax->x = vtMax->y = vtMax->z = -100000.0f;

  0002e	8b 45 0c	 mov	 eax, DWORD PTR _vtMax$[ebp]
  00031	c7 40 08 00 50
	c3 c7		 mov	 DWORD PTR [eax+8], -943501312 ; c7c35000H
  00038	c7 40 04 00 50
	c3 c7		 mov	 DWORD PTR [eax+4], -943501312 ; c7c35000H
  0003f	c7 00 00 50 c3
	c7		 mov	 DWORD PTR [eax], -943501312 ; c7c35000H

; 194  : 
; 195  : 	int meshCount = m_pModel->GetMeshCount();

  00045	8b 4e 04	 mov	 ecx, DWORD PTR [esi+4]
  00048	e8 00 00 00 00	 call	 ?GetMeshCount@CGrannyModel@@QBEHXZ ; CGrannyModel::GetMeshCount
  0004d	33 db		 xor	 ebx, ebx
  0004f	89 45 e8	 mov	 DWORD PTR _meshCount$1$[ebp], eax
  00052	89 5d f4	 mov	 DWORD PTR _m$1$[ebp], ebx

; 196  : 	for (int m = 0; m < meshCount; ++m)

  00055	85 c0		 test	 eax, eax
  00057	0f 8e 8e 00 00
	00		 jle	 $LN18@GetBoundBo
  0005d	57		 push	 edi
  0005e	66 90		 npad	 2
$LL4@GetBoundBo:

; 197  : 	{
; 198  : 		//const CGrannyMesh* pMesh = m_pModel->GetMeshPointer(m);
; 199  : 		const granny_mesh* pgrnMesh = m_pModel->GetGrannyModelPointer()->MeshBindings[m].Mesh;

  00060	8b 4e 04	 mov	 ecx, DWORD PTR [esi+4]
  00063	e8 00 00 00 00	 call	 ?GetGrannyModelPointer@CGrannyModel@@QAEPAUgranny_model@@XZ ; CGrannyModel::GetGrannyModelPointer

; 200  : 
; 201  : 		// WORK
; 202  : 		const granny_int32x* boneIndices = __GetMeshBoneIndices(m);

  00068	53		 push	 ebx
  00069	8b ce		 mov	 ecx, esi
  0006b	8b 40 50	 mov	 eax, DWORD PTR [eax+80]
  0006e	8b 3c 98	 mov	 edi, DWORD PTR [eax+ebx*4]
  00071	89 7d f0	 mov	 DWORD PTR _pgrnMesh$1$[ebp], edi
  00074	e8 00 00 00 00	 call	 ?__GetMeshBoneIndices@CGrannyModelInstance@@IBEPBHI@Z ; CGrannyModelInstance::__GetMeshBoneIndices

; 203  : 		// END_OF_WORK
; 204  : 		for (int b = 0; b < pgrnMesh->BoneBindingCount; ++b)

  00079	33 db		 xor	 ebx, ebx
  0007b	8b c8		 mov	 ecx, eax
  0007d	89 4d ec	 mov	 DWORD PTR _boneIndices$1$[ebp], ecx
  00080	39 5f 1c	 cmp	 DWORD PTR [edi+28], ebx
  00083	7e 55		 jle	 SHORT $LN2@GetBoundBo

; 197  : 	{
; 198  : 		//const CGrannyMesh* pMesh = m_pModel->GetMeshPointer(m);
; 199  : 		const granny_mesh* pgrnMesh = m_pModel->GetGrannyModelPointer()->MeshBindings[m].Mesh;

  00085	33 c0		 xor	 eax, eax
  00087	89 45 f8	 mov	 DWORD PTR tv276[ebp], eax
  0008a	66 0f 1f 44 00
	00		 npad	 6
$LL7@GetBoundBo:

; 205  : 		{
; 206  : 			const granny_bone_binding& rgrnBoneBinding = pgrnMesh->BoneBindings[b];

  00090	8b 7f 20	 mov	 edi, DWORD PTR [edi+32]

; 207  : 
; 208  : 			MakeBoundBox(&BoundBox,

  00093	8b 34 99	 mov	 esi, DWORD PTR [ecx+ebx*4]
  00096	03 f8		 add	 edi, eax
  00098	8b 4d fc	 mov	 ecx, DWORD PTR _this$1$[ebp]
  0009b	e8 00 00 00 00	 call	 ?__GetWorldPosePtr@CGrannyModelInstance@@IBEPAUgranny_world_pose@@XZ ; CGrannyModelInstance::__GetWorldPosePtr
  000a0	ff 75 0c	 push	 DWORD PTR _vtMax$[ebp]
  000a3	8d 4f 10	 lea	 ecx, DWORD PTR [edi+16]
  000a6	ff 75 08	 push	 DWORD PTR _vtMin$[ebp]
  000a9	51		 push	 ecx
  000aa	8d 4f 04	 lea	 ecx, DWORD PTR [edi+4]
  000ad	51		 push	 ecx
  000ae	56		 push	 esi
  000af	50		 push	 eax
  000b0	ff 15 00 00 00
	00		 call	 DWORD PTR __imp__GrannyGetWorldPose4x4@8
  000b6	8b 75 fc	 mov	 esi, DWORD PTR _this$1$[ebp]
  000b9	8b ce		 mov	 ecx, esi
  000bb	50		 push	 eax
  000bc	8d 45 c8	 lea	 eax, DWORD PTR _BoundBox$[ebp]
  000bf	50		 push	 eax
  000c0	e8 00 00 00 00	 call	 ?MakeBoundBox@CGrannyModelInstance@@QAEXPAUSBoundBox@@PBM11PAUD3DXVECTOR3@@2@Z ; CGrannyModelInstance::MakeBoundBox
  000c5	8b 7d f0	 mov	 edi, DWORD PTR _pgrnMesh$1$[ebp]
  000c8	43		 inc	 ebx
  000c9	8b 45 f8	 mov	 eax, DWORD PTR tv276[ebp]
  000cc	8b 4d ec	 mov	 ecx, DWORD PTR _boneIndices$1$[ebp]
  000cf	83 c0 24	 add	 eax, 36			; 00000024H
  000d2	89 45 f8	 mov	 DWORD PTR tv276[ebp], eax
  000d5	3b 5f 1c	 cmp	 ebx, DWORD PTR [edi+28]
  000d8	7c b6		 jl	 SHORT $LL7@GetBoundBo
$LN2@GetBoundBo:

; 196  : 	for (int m = 0; m < meshCount; ++m)

  000da	8b 5d f4	 mov	 ebx, DWORD PTR _m$1$[ebp]
  000dd	43		 inc	 ebx
  000de	89 5d f4	 mov	 DWORD PTR _m$1$[ebp], ebx
  000e1	3b 5d e8	 cmp	 ebx, DWORD PTR _meshCount$1$[ebp]
  000e4	0f 8c 76 ff ff
	ff		 jl	 $LL4@GetBoundBo
  000ea	5f		 pop	 edi
$LN18@GetBoundBo:
  000eb	5b		 pop	 ebx
$LN3@GetBoundBo:
  000ec	5e		 pop	 esi

; 209  : 						 GrannyGetWorldPose4x4(__GetWorldPosePtr(), boneIndices[b]),
; 210  : 						 rgrnBoneBinding.OBBMin, rgrnBoneBinding.OBBMax, vtMin, vtMax);
; 211  : 		}
; 212  : 	}
; 213  : }

  000ed	8b e5		 mov	 esp, ebp
  000ef	5d		 pop	 ebp
  000f0	c2 08 00	 ret	 8
?GetBoundBox@CGrannyModelInstance@@QAEXPAUD3DXVECTOR3@@0@Z ENDP ; CGrannyModelInstance::GetBoundBox
_TEXT	ENDS
; Function compile flags: /Ogtp
; File C:\Users\flourine\Desktop\Xantios\client-src\Code\eterGrnLib\ModelInstanceCollisionDetection.cpp
;	COMDAT ?MakeBoundBox@CGrannyModelInstance@@QAEXPAUSBoundBox@@PBM11PAUD3DXVECTOR3@@2@Z
_TEXT	SEGMENT
_pBoundBox$ = 8						; size = 4
_mat$ = 12						; size = 4
_OBBMin$ = 16						; size = 4
_OBBMax$ = 20						; size = 4
_vtMin$ = 24						; size = 4
_vtMax$ = 28						; size = 4
?MakeBoundBox@CGrannyModelInstance@@QAEXPAUSBoundBox@@PBM11PAUD3DXVECTOR3@@2@Z PROC ; CGrannyModelInstance::MakeBoundBox, COMDAT
; _this$ = ecx

; 11   : {

  00000	55		 push	 ebp
  00001	8b ec		 mov	 ebp, esp

; 12   : 	pBoundBox->sx = OBBMin[0] * mat[0] + OBBMin[1] * mat[4] + OBBMin[2] * mat[8] + mat[12];

  00003	8b 4d 0c	 mov	 ecx, DWORD PTR _mat$[ebp]
  00006	8b 45 10	 mov	 eax, DWORD PTR _OBBMin$[ebp]
  00009	8b 55 08	 mov	 edx, DWORD PTR _pBoundBox$[ebp]
  0000c	f3 0f 10 01	 movss	 xmm0, DWORD PTR [ecx]
  00010	f3 0f 59 00	 mulss	 xmm0, DWORD PTR [eax]
  00014	f3 0f 10 50 04	 movss	 xmm2, DWORD PTR [eax+4]
  00019	f3 0f 59 51 10	 mulss	 xmm2, DWORD PTR [ecx+16]
  0001e	f3 0f 58 d0	 addss	 xmm2, xmm0
  00022	f3 0f 10 40 08	 movss	 xmm0, DWORD PTR [eax+8]
  00027	f3 0f 59 41 20	 mulss	 xmm0, DWORD PTR [ecx+32]
  0002c	f3 0f 58 d0	 addss	 xmm2, xmm0
  00030	f3 0f 58 51 30	 addss	 xmm2, DWORD PTR [ecx+48]
  00035	f3 0f 11 12	 movss	 DWORD PTR [edx], xmm2

; 13   : 	pBoundBox->sy = OBBMin[0] * mat[1] + OBBMin[1] * mat[5] + OBBMin[2] * mat[9] + mat[13];

  00039	f3 0f 10 48 04	 movss	 xmm1, DWORD PTR [eax+4]
  0003e	f3 0f 59 49 14	 mulss	 xmm1, DWORD PTR [ecx+20]
  00043	f3 0f 10 00	 movss	 xmm0, DWORD PTR [eax]
  00047	f3 0f 59 41 04	 mulss	 xmm0, DWORD PTR [ecx+4]
  0004c	f3 0f 58 c8	 addss	 xmm1, xmm0
  00050	f3 0f 10 41 24	 movss	 xmm0, DWORD PTR [ecx+36]
  00055	f3 0f 59 40 08	 mulss	 xmm0, DWORD PTR [eax+8]
  0005a	f3 0f 58 c8	 addss	 xmm1, xmm0
  0005e	f3 0f 58 49 34	 addss	 xmm1, DWORD PTR [ecx+52]
  00063	f3 0f 11 4a 04	 movss	 DWORD PTR [edx+4], xmm1

; 14   : 	pBoundBox->sz = OBBMin[0] * mat[2] + OBBMin[1] * mat[6] + OBBMin[2] * mat[10] + mat[14];

  00068	f3 0f 10 48 04	 movss	 xmm1, DWORD PTR [eax+4]
  0006d	f3 0f 59 49 18	 mulss	 xmm1, DWORD PTR [ecx+24]
  00072	f3 0f 10 00	 movss	 xmm0, DWORD PTR [eax]
  00076	f3 0f 59 41 08	 mulss	 xmm0, DWORD PTR [ecx+8]
  0007b	f3 0f 58 c8	 addss	 xmm1, xmm0
  0007f	f3 0f 10 41 28	 movss	 xmm0, DWORD PTR [ecx+40]
  00084	f3 0f 59 40 08	 mulss	 xmm0, DWORD PTR [eax+8]

; 15   : 
; 16   : 	pBoundBox->ex = OBBMax[0] * mat[0] + OBBMax[1] * mat[4] + OBBMax[2] * mat[8] + mat[12];

  00089	8b 45 14	 mov	 eax, DWORD PTR _OBBMax$[ebp]
  0008c	f3 0f 58 c8	 addss	 xmm1, xmm0
  00090	f3 0f 58 49 38	 addss	 xmm1, DWORD PTR [ecx+56]
  00095	f3 0f 11 4a 08	 movss	 DWORD PTR [edx+8], xmm1
  0009a	f3 0f 10 40 04	 movss	 xmm0, DWORD PTR [eax+4]
  0009f	f3 0f 59 41 10	 mulss	 xmm0, DWORD PTR [ecx+16]
  000a4	f3 0f 10 09	 movss	 xmm1, DWORD PTR [ecx]
  000a8	f3 0f 59 08	 mulss	 xmm1, DWORD PTR [eax]
  000ac	f3 0f 58 c8	 addss	 xmm1, xmm0
  000b0	f3 0f 10 40 08	 movss	 xmm0, DWORD PTR [eax+8]
  000b5	f3 0f 59 41 20	 mulss	 xmm0, DWORD PTR [ecx+32]
  000ba	f3 0f 58 c8	 addss	 xmm1, xmm0
  000be	f3 0f 58 49 30	 addss	 xmm1, DWORD PTR [ecx+48]
  000c3	f3 0f 11 4a 0c	 movss	 DWORD PTR [edx+12], xmm1

; 17   : 	pBoundBox->ey = OBBMax[0] * mat[1] + OBBMax[1] * mat[5] + OBBMax[2] * mat[9] + mat[13];

  000c8	f3 0f 10 49 04	 movss	 xmm1, DWORD PTR [ecx+4]
  000cd	f3 0f 59 08	 mulss	 xmm1, DWORD PTR [eax]
  000d1	f3 0f 10 41 14	 movss	 xmm0, DWORD PTR [ecx+20]
  000d6	f3 0f 59 40 04	 mulss	 xmm0, DWORD PTR [eax+4]
  000db	f3 0f 58 c8	 addss	 xmm1, xmm0
  000df	f3 0f 10 41 24	 movss	 xmm0, DWORD PTR [ecx+36]
  000e4	f3 0f 59 40 08	 mulss	 xmm0, DWORD PTR [eax+8]
  000e9	f3 0f 58 c8	 addss	 xmm1, xmm0
  000ed	f3 0f 58 49 34	 addss	 xmm1, DWORD PTR [ecx+52]
  000f2	f3 0f 11 4a 10	 movss	 DWORD PTR [edx+16], xmm1

; 18   : 	pBoundBox->ez = OBBMax[0] * mat[2] + OBBMax[1] * mat[6] + OBBMax[2] * mat[10] + mat[14];

  000f7	f3 0f 10 41 18	 movss	 xmm0, DWORD PTR [ecx+24]
  000fc	f3 0f 59 40 04	 mulss	 xmm0, DWORD PTR [eax+4]
  00101	f3 0f 10 49 08	 movss	 xmm1, DWORD PTR [ecx+8]
  00106	f3 0f 59 08	 mulss	 xmm1, DWORD PTR [eax]
  0010a	f3 0f 58 c8	 addss	 xmm1, xmm0
  0010e	f3 0f 10 41 28	 movss	 xmm0, DWORD PTR [ecx+40]
  00113	f3 0f 59 40 08	 mulss	 xmm0, DWORD PTR [eax+8]

; 19   : 
; 20   : 	vtMin->x = min(vtMin->x, pBoundBox->sx);

  00118	8b 45 18	 mov	 eax, DWORD PTR _vtMin$[ebp]
  0011b	f3 0f 58 c8	 addss	 xmm1, xmm0
  0011f	f3 0f 58 49 38	 addss	 xmm1, DWORD PTR [ecx+56]
  00124	f3 0f 11 4a 14	 movss	 DWORD PTR [edx+20], xmm1
  00129	f3 0f 10 00	 movss	 xmm0, DWORD PTR [eax]
  0012d	f3 0f 5d c2	 minss	 xmm0, xmm2
  00131	f3 0f 11 00	 movss	 DWORD PTR [eax], xmm0

; 21   : 	vtMin->x = min(vtMin->x, pBoundBox->ex);

  00135	f3 0f 5d 42 0c	 minss	 xmm0, DWORD PTR [edx+12]
  0013a	f3 0f 11 00	 movss	 DWORD PTR [eax], xmm0

; 22   : 	vtMin->y = min(vtMin->y, pBoundBox->sy);

  0013e	f3 0f 10 40 04	 movss	 xmm0, DWORD PTR [eax+4]
  00143	f3 0f 5d 42 04	 minss	 xmm0, DWORD PTR [edx+4]
  00148	f3 0f 11 40 04	 movss	 DWORD PTR [eax+4], xmm0

; 23   : 	vtMin->y = min(vtMin->y, pBoundBox->ey);

  0014d	f3 0f 5d 42 10	 minss	 xmm0, DWORD PTR [edx+16]
  00152	f3 0f 11 40 04	 movss	 DWORD PTR [eax+4], xmm0

; 24   : 	vtMin->z = min(vtMin->z, pBoundBox->sz);

  00157	f3 0f 10 40 08	 movss	 xmm0, DWORD PTR [eax+8]
  0015c	f3 0f 5d 42 08	 minss	 xmm0, DWORD PTR [edx+8]
  00161	f3 0f 11 40 08	 movss	 DWORD PTR [eax+8], xmm0

; 25   : 	vtMin->z = min(vtMin->z, pBoundBox->ez);

  00166	f3 0f 5d 42 14	 minss	 xmm0, DWORD PTR [edx+20]
  0016b	f3 0f 11 40 08	 movss	 DWORD PTR [eax+8], xmm0

; 26   : 
; 27   : 	vtMax->x = max(vtMax->x, pBoundBox->sx);

  00170	8b 45 1c	 mov	 eax, DWORD PTR _vtMax$[ebp]
  00173	f3 0f 10 00	 movss	 xmm0, DWORD PTR [eax]
  00177	f3 0f 5f 02	 maxss	 xmm0, DWORD PTR [edx]
  0017b	f3 0f 11 00	 movss	 DWORD PTR [eax], xmm0

; 28   : 	vtMax->x = max(vtMax->x, pBoundBox->ex);

  0017f	f3 0f 5f 42 0c	 maxss	 xmm0, DWORD PTR [edx+12]
  00184	f3 0f 11 00	 movss	 DWORD PTR [eax], xmm0

; 29   : 	vtMax->y = max(vtMax->y, pBoundBox->sy);

  00188	f3 0f 10 40 04	 movss	 xmm0, DWORD PTR [eax+4]
  0018d	f3 0f 5f 42 04	 maxss	 xmm0, DWORD PTR [edx+4]
  00192	f3 0f 11 40 04	 movss	 DWORD PTR [eax+4], xmm0

; 30   : 	vtMax->y = max(vtMax->y, pBoundBox->ey);

  00197	f3 0f 5f 42 10	 maxss	 xmm0, DWORD PTR [edx+16]
  0019c	f3 0f 11 40 04	 movss	 DWORD PTR [eax+4], xmm0

; 31   : 	vtMax->z = max(vtMax->z, pBoundBox->sz);

  001a1	f3 0f 10 40 08	 movss	 xmm0, DWORD PTR [eax+8]
  001a6	f3 0f 5f 42 08	 maxss	 xmm0, DWORD PTR [edx+8]
  001ab	f3 0f 11 40 08	 movss	 DWORD PTR [eax+8], xmm0

; 32   : 	vtMax->z = max(vtMax->z, pBoundBox->ez);

  001b0	f3 0f 5f 42 14	 maxss	 xmm0, DWORD PTR [edx+20]
  001b5	f3 0f 11 40 08	 movss	 DWORD PTR [eax+8], xmm0

; 33   : }

  001ba	5d		 pop	 ebp
  001bb	c2 18 00	 ret	 24			; 00000018H
?MakeBoundBox@CGrannyModelInstance@@QAEXPAUSBoundBox@@PBM11PAUD3DXVECTOR3@@2@Z ENDP ; CGrannyModelInstance::MakeBoundBox
_TEXT	ENDS
; Function compile flags: /Ogtp
; File C:\Users\flourine\Desktop\Xantios\client-src\Code\eterGrnLib\ModelInstanceCollisionDetection.cpp
; File C:\Program Files\Microsoft Visual Studio\2022\Community\VC\Tools\MSVC\14.34.31933\include\vector
; File C:\Users\flourine\Desktop\Xantios\client-src\Code\eterGrnLib\ModelInstanceCollisionDetection.cpp
; File C:\Program Files\Microsoft Visual Studio\2022\Community\VC\Tools\MSVC\14.34.31933\include\vector
; File C:\Users\flourine\Desktop\Xantios\client-src\Code\eterBase\Stl.h
; File C:\Users\flourine\Desktop\Xantios\client-src\Code\eterGrnLib\ModelInstanceCollisionDetection.cpp
; File C:\Program Files\Microsoft Visual Studio\2022\Community\VC\Tools\MSVC\14.34.31933\include\vector
; File C:\Users\flourine\Desktop\Xantios\client-src\Code\eterBase\Stl.h
; File C:\Users\flourine\Desktop\Xantios\client-src\Code\eterGrnLib\ModelInstanceCollisionDetection.cpp
; File C:\Users\flourine\Desktop\Xantios\client-src\Code\eterBase\Stl.h
; File C:\Program Files\Microsoft Visual Studio\2022\Community\VC\Tools\MSVC\14.34.31933\include\vector
; File C:\Users\flourine\Desktop\Xantios\client-src\Code\eterBase\Stl.h
; File C:\Users\flourine\Desktop\Xantios\client-src\Code\eterGrnLib\ModelInstanceCollisionDetection.cpp
; File C:\Program Files\Microsoft Visual Studio\2022\Community\VC\Tools\MSVC\14.34.31933\include\vector
; File C:\Users\flourine\Desktop\Xantios\client-src\Code\eterBase\Stl.h
; File C:\Program Files\Microsoft Visual Studio\2022\Community\VC\Tools\MSVC\14.34.31933\include\vector
; File C:\Users\flourine\Desktop\Xantios\client-src\Code\eterGrnLib\ModelInstanceCollisionDetection.cpp
;	COMDAT ?Intersect@CGrannyModelInstance@@QAE_NPBUD3DXMATRIX@@PAM11@Z
_TEXT	SEGMENT
_vtMin$ = -68						; size = 12
_vtMax$ = -56						; size = 12
_u$ = -44						; size = 4
_v$ = -40						; size = 4
_t$ = -36						; size = 4
_meshCount$1$ = -32					; size = 4
_m$1$ = -28						; size = 4
_pgrnMesh$1$ = -24					; size = 4
tv605 = -20						; size = 4
_this$1$ = -16						; size = 4
__$EHRec$ = -12						; size = 12
_c_pMatrix$ = 8						; size = 4
___formal$ = 12						; size = 4
___formal$ = 16						; size = 4
_b$1$ = 20						; size = 4
_pt$ = 20						; size = 4
$T3 = 23						; size = 1
?Intersect@CGrannyModelInstance@@QAE_NPBUD3DXMATRIX@@PAM11@Z PROC ; CGrannyModelInstance::Intersect, COMDAT
; _this$ = ecx

; 37   : {

  00000	55		 push	 ebp
  00001	8b ec		 mov	 ebp, esp
  00003	6a ff		 push	 -1
  00005	68 00 00 00 00	 push	 __ehhandler$?Intersect@CGrannyModelInstance@@QAE_NPBUD3DXMATRIX@@PAM11@Z
  0000a	64 a1 00 00 00
	00		 mov	 eax, DWORD PTR fs:0
  00010	50		 push	 eax
  00011	83 ec 38	 sub	 esp, 56			; 00000038H
  00014	53		 push	 ebx
  00015	56		 push	 esi
  00016	57		 push	 edi
  00017	a1 00 00 00 00	 mov	 eax, DWORD PTR ___security_cookie
  0001c	33 c5		 xor	 eax, ebp
  0001e	50		 push	 eax
  0001f	8d 45 f4	 lea	 eax, DWORD PTR __$EHRec$[ebp]
  00022	64 a3 00 00 00
	00		 mov	 DWORD PTR fs:0, eax
  00028	8b d9		 mov	 ebx, ecx
  0002a	89 5d f0	 mov	 DWORD PTR _this$1$[ebp], ebx

; 38   : 	if (!m_pgrnModelInstance)

  0002d	83 7b 08 00	 cmp	 DWORD PTR [ebx+8], 0
  00031	0f 84 d9 01 00
	00		 je	 $LN67@Intersect

; 39   : 	{
; 40   : 		return false;
; 41   : 	}
; 42   : 
; 43   : 	float u, v, t;
; 44   : 	bool ret = false;
; 45   : 	*pt = 100000000.0f;

  00037	8b 45 14	 mov	 eax, DWORD PTR _pt$[ebp]

; 52   : 	static stl_stack_pool<TBoundBox> s_boundBoxPool(1024);

  0003a	8b 0d 00 00 00
	00		 mov	 ecx, DWORD PTR __tls_index
  00040	f3 0f 10 05 00
	00 00 00	 movss	 xmm0, DWORD PTR __real@4b189680
  00048	f3 0f 11 45 c4	 movss	 DWORD PTR _vtMin$[ebp+8], xmm0
  0004d	c7 00 20 bc be
	4c		 mov	 DWORD PTR [eax], 1287568416 ; 4cbebc20H
  00053	64 a1 00 00 00
	00		 mov	 eax, DWORD PTR fs:__tls_array
  00059	f3 0f 11 45 c0	 movss	 DWORD PTR _vtMin$[ebp+4], xmm0
  0005e	f3 0f 11 45 bc	 movss	 DWORD PTR _vtMin$[ebp], xmm0
  00063	f3 0f 10 05 00
	00 00 00	 movss	 xmm0, DWORD PTR __real@cb189680
  0006b	8b 0c 88	 mov	 ecx, DWORD PTR [eax+ecx*4]
  0006e	a1 00 00 00 00	 mov	 eax, DWORD PTR ?$TSS0@?1??Intersect@CGrannyModelInstance@@QAE_NPBUD3DXMATRIX@@PAM11@Z@4HA
  00073	f3 0f 11 45 d0	 movss	 DWORD PTR _vtMax$[ebp+8], xmm0
  00078	f3 0f 11 45 cc	 movss	 DWORD PTR _vtMax$[ebp+4], xmm0
  0007d	f3 0f 11 45 c8	 movss	 DWORD PTR _vtMax$[ebp], xmm0
  00082	3b 81 00 00 00
	00		 cmp	 eax, DWORD PTR __Init_thread_epoch[ecx]
  00088	0f 8f 98 01 00
	00		 jg	 $LN72@Intersect
$LN2@Intersect:

; 53   : 	s_boundBoxPool.clear();

  0008e	c7 05 04 00 00
	00 00 00 00 00	 mov	 DWORD PTR ?s_boundBoxPool@?1??Intersect@CGrannyModelInstance@@QAE_NPBUD3DXMATRIX@@PAM11@Z@4V?$stl_stack_pool@USBoundBox@@@@A+4, 0

; 54   : 
; 55   : 	int meshCount = m_pModel->GetMeshCount();

  00098	8b 4b 04	 mov	 ecx, DWORD PTR [ebx+4]
  0009b	e8 00 00 00 00	 call	 ?GetMeshCount@CGrannyModel@@QBEHXZ ; CGrannyModel::GetMeshCount
  000a0	33 f6		 xor	 esi, esi
  000a2	89 45 e0	 mov	 DWORD PTR _meshCount$1$[ebp], eax
  000a5	89 75 e4	 mov	 DWORD PTR _m$1$[ebp], esi

; 56   : 
; 57   : 	for (int m = 0; m < meshCount; ++m)

  000a8	85 c0		 test	 eax, eax
  000aa	0f 8e dd 00 00
	00		 jle	 $LN69@Intersect
$LL5@Intersect:

; 58   : 	{
; 59   : 		//const CGrannyMesh * pMesh = m_pModel->GetMeshPointer(m);
; 60   : 		const granny_mesh * pgrnMesh = m_pModel->GetGrannyModelPointer()->MeshBindings[m].Mesh;

  000b0	8b 4b 04	 mov	 ecx, DWORD PTR [ebx+4]
  000b3	e8 00 00 00 00	 call	 ?GetGrannyModelPointer@CGrannyModel@@QAEPAUgranny_model@@XZ ; CGrannyModel::GetGrannyModelPointer

; 61   : 
; 62   : 		for (int b = 0; b < pgrnMesh->BoneBindingCount; ++b)

  000b8	c7 45 14 00 00
	00 00		 mov	 DWORD PTR _b$1$[ebp], 0
  000bf	8b 40 50	 mov	 eax, DWORD PTR [eax+80]
  000c2	8b 04 b0	 mov	 eax, DWORD PTR [eax+esi*4]
  000c5	89 45 e8	 mov	 DWORD PTR _pgrnMesh$1$[ebp], eax
  000c8	83 78 1c 00	 cmp	 DWORD PTR [eax+28], 0
  000cc	0f 8e a2 00 00
	00		 jle	 $LN3@Intersect

; 58   : 	{
; 59   : 		//const CGrannyMesh * pMesh = m_pModel->GetMeshPointer(m);
; 60   : 		const granny_mesh * pgrnMesh = m_pModel->GetGrannyModelPointer()->MeshBindings[m].Mesh;

  000d2	33 d2		 xor	 edx, edx
  000d4	89 55 ec	 mov	 DWORD PTR tv605[ebp], edx
  000d7	66 0f 1f 84 00
	00 00 00 00	 npad	 9
$LL8@Intersect:

; 64   : 			const granny_bone_binding& rgrnBoneBinding = pgrnMesh->BoneBindings[b];

  000e0	8b 78 20	 mov	 edi, DWORD PTR [eax+32]
; File C:\Program Files\Microsoft Visual Studio\2022\Community\VC\Tools\MSVC\14.34.31933\include\vector

; 1932 :         return static_cast<size_type>(_My_data._Mylast - _My_data._Myfirst);

  000e3	a1 0c 00 00 00	 mov	 eax, DWORD PTR ?s_boundBoxPool@?1??Intersect@CGrannyModelInstance@@QAE_NPBUD3DXMATRIX@@PAM11@Z@4V?$stl_stack_pool@USBoundBox@@@@A+12
; File C:\Users\flourine\Desktop\Xantios\client-src\Code\eterGrnLib\ModelInstanceCollisionDetection.cpp

; 64   : 			const granny_bone_binding& rgrnBoneBinding = pgrnMesh->BoneBindings[b];

  000e8	03 fa		 add	 edi, edx
; File C:\Program Files\Microsoft Visual Studio\2022\Community\VC\Tools\MSVC\14.34.31933\include\vector

; 1932 :         return static_cast<size_type>(_My_data._Mylast - _My_data._Myfirst);

  000ea	2b 05 08 00 00
	00		 sub	 eax, DWORD PTR ?s_boundBoxPool@?1??Intersect@CGrannyModelInstance@@QAE_NPBUD3DXMATRIX@@PAM11@Z@4V?$stl_stack_pool@USBoundBox@@@@A+8
; File C:\Users\flourine\Desktop\Xantios\client-src\Code\eterBase\Stl.h

; 223  : 		if (m_pos >= max)

  000f0	33 d2		 xor	 edx, edx
  000f2	8b 1d 04 00 00
	00		 mov	 ebx, DWORD PTR ?s_boundBoxPool@?1??Intersect@CGrannyModelInstance@@QAE_NPBUD3DXMATRIX@@PAM11@Z@4V?$stl_stack_pool@USBoundBox@@@@A+4
; File C:\Users\flourine\Desktop\Xantios\client-src\Code\eterGrnLib\ModelInstanceCollisionDetection.cpp

; 69   : 			float * Transform = GrannyGetWorldPose4x4(__GetWorldPosePtr(), __GetMeshBoneIndices(m)[b]);

  000f8	8b 4d f0	 mov	 ecx, DWORD PTR _this$1$[ebp]
; File C:\Program Files\Microsoft Visual Studio\2022\Community\VC\Tools\MSVC\14.34.31933\include\vector

; 1932 :         return static_cast<size_type>(_My_data._Mylast - _My_data._Myfirst);

  000fb	c1 f8 05	 sar	 eax, 5
; File C:\Users\flourine\Desktop\Xantios\client-src\Code\eterBase\Stl.h

; 223  : 		if (m_pos >= max)

  000fe	3b d8		 cmp	 ebx, eax
; File C:\Users\flourine\Desktop\Xantios\client-src\Code\eterGrnLib\ModelInstanceCollisionDetection.cpp

; 69   : 			float * Transform = GrannyGetWorldPose4x4(__GetWorldPosePtr(), __GetMeshBoneIndices(m)[b]);

  00100	56		 push	 esi
; File C:\Users\flourine\Desktop\Xantios\client-src\Code\eterBase\Stl.h

; 223  : 		if (m_pos >= max)

  00101	0f 4d da	 cmovge	 ebx, edx

; 229  : 		return &m_dataVector[m_pos++];

  00104	8d 43 01	 lea	 eax, DWORD PTR [ebx+1]
; File C:\Program Files\Microsoft Visual Studio\2022\Community\VC\Tools\MSVC\14.34.31933\include\vector

; 1952 :         return _My_data._Myfirst[_Pos];

  00107	c1 e3 05	 shl	 ebx, 5
  0010a	03 1d 08 00 00
	00		 add	 ebx, DWORD PTR ?s_boundBoxPool@?1??Intersect@CGrannyModelInstance@@QAE_NPBUD3DXMATRIX@@PAM11@Z@4V?$stl_stack_pool@USBoundBox@@@@A+8
; File C:\Users\flourine\Desktop\Xantios\client-src\Code\eterBase\Stl.h

; 229  : 		return &m_dataVector[m_pos++];

  00110	a3 04 00 00 00	 mov	 DWORD PTR ?s_boundBoxPool@?1??Intersect@CGrannyModelInstance@@QAE_NPBUD3DXMATRIX@@PAM11@Z@4V?$stl_stack_pool@USBoundBox@@@@A+4, eax
; File C:\Users\flourine\Desktop\Xantios\client-src\Code\eterGrnLib\ModelInstanceCollisionDetection.cpp

; 69   : 			float * Transform = GrannyGetWorldPose4x4(__GetWorldPosePtr(), __GetMeshBoneIndices(m)[b]);

  00115	e8 00 00 00 00	 call	 ?__GetMeshBoneIndices@CGrannyModelInstance@@IBEPBHI@Z ; CGrannyModelInstance::__GetMeshBoneIndices
  0011a	8b 75 14	 mov	 esi, DWORD PTR _b$1$[ebp]
  0011d	8b 4d f0	 mov	 ecx, DWORD PTR _this$1$[ebp]
  00120	8b 34 b0	 mov	 esi, DWORD PTR [eax+esi*4]
  00123	e8 00 00 00 00	 call	 ?__GetWorldPosePtr@CGrannyModelInstance@@IBEPAUgranny_world_pose@@XZ ; CGrannyModelInstance::__GetWorldPosePtr
  00128	56		 push	 esi
  00129	50		 push	 eax
  0012a	ff 15 00 00 00
	00		 call	 DWORD PTR __imp__GrannyGetWorldPose4x4@8

; 70   : 			// END_OF_WORK
; 71   : 
; 72   : 			MakeBoundBox(pBoundBox,

  00130	8d 4d c8	 lea	 ecx, DWORD PTR _vtMax$[ebp]
  00133	51		 push	 ecx
  00134	8d 4d bc	 lea	 ecx, DWORD PTR _vtMin$[ebp]
  00137	51		 push	 ecx
  00138	8d 4f 10	 lea	 ecx, DWORD PTR [edi+16]
  0013b	51		 push	 ecx
  0013c	8d 4f 04	 lea	 ecx, DWORD PTR [edi+4]
  0013f	51		 push	 ecx
  00140	8b 4d f0	 mov	 ecx, DWORD PTR _this$1$[ebp]
  00143	50		 push	 eax
  00144	53		 push	 ebx
  00145	e8 00 00 00 00	 call	 ?MakeBoundBox@CGrannyModelInstance@@QAEXPAUSBoundBox@@PBM11PAUD3DXVECTOR3@@2@Z ; CGrannyModelInstance::MakeBoundBox

; 73   : 						 Transform,
; 74   : 						 rgrnBoneBinding.OBBMin,
; 75   : 						 rgrnBoneBinding.OBBMax,
; 76   : 						 &vtMin,
; 77   : 						 &vtMax);
; 78   : 
; 79   : 			pBoundBox->meshIndex = m;
; 80   : 			pBoundBox->boneIndex = b;

  0014a	8b 45 14	 mov	 eax, DWORD PTR _b$1$[ebp]
  0014d	8b 4d e8	 mov	 ecx, DWORD PTR _pgrnMesh$1$[ebp]
  00150	8b 55 ec	 mov	 edx, DWORD PTR tv605[ebp]
  00153	8b 75 e4	 mov	 esi, DWORD PTR _m$1$[ebp]
  00156	83 c2 24	 add	 edx, 36			; 00000024H
  00159	89 43 1c	 mov	 DWORD PTR [ebx+28], eax
  0015c	40		 inc	 eax
  0015d	89 73 18	 mov	 DWORD PTR [ebx+24], esi
  00160	3b 41 1c	 cmp	 eax, DWORD PTR [ecx+28]
  00163	89 45 14	 mov	 DWORD PTR _b$1$[ebp], eax
  00166	8b c1		 mov	 eax, ecx
  00168	89 55 ec	 mov	 DWORD PTR tv605[ebp], edx
  0016b	0f 8c 6f ff ff
	ff		 jl	 $LL8@Intersect
  00171	8b 5d f0	 mov	 ebx, DWORD PTR _this$1$[ebp]
$LN3@Intersect:

; 56   : 
; 57   : 	for (int m = 0; m < meshCount; ++m)

  00174	46		 inc	 esi
  00175	89 75 e4	 mov	 DWORD PTR _m$1$[ebp], esi
  00178	3b 75 e0	 cmp	 esi, DWORD PTR _meshCount$1$[ebp]
  0017b	0f 8c 2f ff ff
	ff		 jl	 $LL5@Intersect
  00181	f3 0f 10 45 c4	 movss	 xmm0, DWORD PTR _vtMin$[ebp+8]
  00186	f3 0f 10 4d d0	 movss	 xmm1, DWORD PTR _vtMax$[ebp+8]
  0018b	eb 10		 jmp	 SHORT $LN4@Intersect
$LN69@Intersect:
  0018d	f3 0f 10 05 00
	00 00 00	 movss	 xmm0, DWORD PTR __real@4b189680
  00195	f3 0f 10 0d 00
	00 00 00	 movss	 xmm1, DWORD PTR __real@cb189680
$LN4@Intersect:

; 81   : 		}
; 82   : 	}
; 83   : 
; 84   : 	if (!IntersectCube(c_pMatrix,

  0019d	8d 45 dc	 lea	 eax, DWORD PTR _t$[ebp]
  001a0	8b cb		 mov	 ecx, ebx
  001a2	50		 push	 eax
  001a3	8d 45 d8	 lea	 eax, DWORD PTR _v$[ebp]
  001a6	50		 push	 eax
  001a7	8d 45 d4	 lea	 eax, DWORD PTR _u$[ebp]
  001aa	50		 push	 eax
  001ab	68 00 00 00 00	 push	 OFFSET ?ms_vtPickRayDir@CGraphicBase@@1UD3DXVECTOR3@@A ; CGraphicBase::ms_vtPickRayDir
  001b0	68 00 00 00 00	 push	 OFFSET ?ms_vtPickRayOrig@CGraphicBase@@1UD3DXVECTOR3@@A ; CGraphicBase::ms_vtPickRayOrig
  001b5	83 ec 18	 sub	 esp, 24			; 00000018H
  001b8	f3 0f 11 4c 24
	14		 movss	 DWORD PTR [esp+20], xmm1
  001be	f3 0f 10 4d cc	 movss	 xmm1, DWORD PTR _vtMax$[ebp+4]
  001c3	f3 0f 11 4c 24
	10		 movss	 DWORD PTR [esp+16], xmm1
  001c9	f3 0f 10 4d c8	 movss	 xmm1, DWORD PTR _vtMax$[ebp]
  001ce	f3 0f 11 4c 24
	0c		 movss	 DWORD PTR [esp+12], xmm1
  001d4	f3 0f 11 44 24
	08		 movss	 DWORD PTR [esp+8], xmm0
  001da	f3 0f 10 45 c0	 movss	 xmm0, DWORD PTR _vtMin$[ebp+4]
  001df	f3 0f 11 44 24
	04		 movss	 DWORD PTR [esp+4], xmm0
  001e5	f3 0f 10 45 bc	 movss	 xmm0, DWORD PTR _vtMin$[ebp]
  001ea	f3 0f 11 04 24	 movss	 DWORD PTR [esp], xmm0
  001ef	ff 75 08	 push	 DWORD PTR _c_pMatrix$[ebp]
  001f2	e8 00 00 00 00	 call	 ?IntersectCube@CGraphicCollisionObject@@IAE_NPBUD3DXMATRIX@@MMMMMMAAUD3DXVECTOR3@@1PAM22@Z ; CGraphicCollisionObject::IntersectCube
  001f7	84 c0		 test	 al, al
  001f9	0f 95 c0	 setne	 al

; 91   : 	}
; 92   : 
; 93   : 	return true;
; 94   : 
; 95   : 	/*
; 96   : 		TBoundBox* boundBoxs = s_boundBoxPool.base();
; 97   : 		for (int i = 0; i < s_boundBoxPool.size(); ++i)
; 98   : 		{
; 99   : 			TBoundBox& rcurBoundBox=boundBoxs[i];
; 100  : 
; 101  : 			if (!IntersectBoundBox(c_pMatrix, rcurBoundBox, &u, &v, &t))
; 102  : 				continue;
; 103  : 
; 104  : 			granny_matrix_4x4* pgrnMatCompositeBuffer = GrannyGetWorldPoseComposite4x4Array(m_pgrnWorldPose);
; 105  : 			const CGrannyMesh* c_pMesh = m_pModel->GetMeshPointer(rcurBoundBox.meshIndex);
; 106  : 			const granny_mesh* c_pgrnMesh = c_pMesh->GetGrannyMeshPointer();
; 107  : 
; 108  : 			if (!GrannyMeshIsRigid(c_pgrnMesh))
; 109  : 			{
; 110  : 				//continue;
; 111  : 				ret = true;
; 112  : 			}
; 113  : 			else
; 114  : 			{
; 115  : 				D3DXMATRIX matMesh;
; 116  : 				int* toBoneIndices = c_pMesh->GetBoneIndices();
; 117  : 				D3DXMatrixMultiply(&matMesh, (D3DXMATRIX*) pgrnMatCompositeBuffer[toBoneIndices[0]], c_pMatrix);
; 118  : 
; 119  : 				granny_tri_material_group* pgrnTriGroups = GrannyGetMeshTriangleGroups(c_pgrnMesh);
; 120  : 				int mtrlCount = c_pMesh->GetGrannyMeshPointer()->MaterialBindingCount;
; 121  : 				int vtxCount = GrannyGetMeshVertexCount(c_pgrnMesh);
; 122  : 				int groupCount = GrannyGetMeshTriangleGroupCount(c_pgrnMesh);
; 123  : 
; 124  : 				TIndex*	modelIndices;
; 125  : 				TPNTVertex*	modelVertices;
; 126  : 
; 127  : 				if (m_pModel->LockVertices((void**)&modelIndices, (void**)&modelVertices))
; 128  : 				{
; 129  : 					TIndex* meshIndices = modelIndices + c_pMesh->GetIndexBasePosition();
; 130  : 					TPNTVertex* meshVertices = modelVertices + c_pMesh->GetVertexBasePosition();
; 131  : 
; 132  : 					for (int i = 0; i < groupCount; ++i)
; 133  : 					{
; 134  : 						granny_tri_material_group& rgrnTriGroup = pgrnTriGroups[i];
; 135  : 
; 136  : 						if (rgrnTriGroup.MaterialIndex < 0 || rgrnTriGroup.MaterialIndex >= mtrlCount)
; 137  : 							continue;
; 138  : 
; 139  : 						if (IntersectMesh(&matMesh,
; 140  : 										  meshVertices,
; 141  : 										  sizeof(TPNTVertex),
; 142  : 										  vtxCount,
; 143  : 										  meshIndices,
; 144  : 										  GrannyGetMeshIndexCount(c_pgrnMesh),
; 145  : 										  ms_vtPickRayOrig,
; 146  : 										  ms_vtPickRayDir,
; 147  : 										  &u, &v, &t))
; 148  : 						{
; 149  : 							ret = true;
; 150  : 							break;
; 151  : 						}
; 152  : 					}
; 153  : 
; 154  : 					m_pModel->UnlockVertices();
; 155  : 				}
; 156  : 			}
; 157  : 
; 158  : 			if (ret)
; 159  : 			{
; 160  : 				*pu = u;
; 161  : 				*pv = v;
; 162  : 				*pt = -t;
; 163  : 
; 164  : 				if (c_szModelName)
; 165  : 				{
; 166  : 					if (!strncmp(c_pgrnMesh->Name, c_szModelName, strlen(c_szModelName)))
; 167  : 						return ret;
; 168  : 
; 169  : 					ret = false;
; 170  : 					continue;
; 171  : 				}
; 172  : 
; 173  : 				return ret;
; 174  : 			}
; 175  : 		}
; 176  : 
; 177  : 		return (ret);
; 178  : 	*/
; 179  : }

  001fc	8b 4d f4	 mov	 ecx, DWORD PTR __$EHRec$[ebp]
  001ff	64 89 0d 00 00
	00 00		 mov	 DWORD PTR fs:0, ecx
  00206	59		 pop	 ecx
  00207	5f		 pop	 edi
  00208	5e		 pop	 esi
  00209	5b		 pop	 ebx
  0020a	8b e5		 mov	 esp, ebp
  0020c	5d		 pop	 ebp
  0020d	c2 10 00	 ret	 16			; 00000010H
$LN67@Intersect:

; 85   : 					   vtMin.x, vtMin.y, vtMin.z,
; 86   : 					   vtMax.x, vtMax.y, vtMax.z,
; 87   : 					   ms_vtPickRayOrig, ms_vtPickRayDir,
; 88   : 					   &u, &v, &t))
; 89   : 	{
; 90   : 		return ret;

  00210	32 c0		 xor	 al, al

; 91   : 	}
; 92   : 
; 93   : 	return true;
; 94   : 
; 95   : 	/*
; 96   : 		TBoundBox* boundBoxs = s_boundBoxPool.base();
; 97   : 		for (int i = 0; i < s_boundBoxPool.size(); ++i)
; 98   : 		{
; 99   : 			TBoundBox& rcurBoundBox=boundBoxs[i];
; 100  : 
; 101  : 			if (!IntersectBoundBox(c_pMatrix, rcurBoundBox, &u, &v, &t))
; 102  : 				continue;
; 103  : 
; 104  : 			granny_matrix_4x4* pgrnMatCompositeBuffer = GrannyGetWorldPoseComposite4x4Array(m_pgrnWorldPose);
; 105  : 			const CGrannyMesh* c_pMesh = m_pModel->GetMeshPointer(rcurBoundBox.meshIndex);
; 106  : 			const granny_mesh* c_pgrnMesh = c_pMesh->GetGrannyMeshPointer();
; 107  : 
; 108  : 			if (!GrannyMeshIsRigid(c_pgrnMesh))
; 109  : 			{
; 110  : 				//continue;
; 111  : 				ret = true;
; 112  : 			}
; 113  : 			else
; 114  : 			{
; 115  : 				D3DXMATRIX matMesh;
; 116  : 				int* toBoneIndices = c_pMesh->GetBoneIndices();
; 117  : 				D3DXMatrixMultiply(&matMesh, (D3DXMATRIX*) pgrnMatCompositeBuffer[toBoneIndices[0]], c_pMatrix);
; 118  : 
; 119  : 				granny_tri_material_group* pgrnTriGroups = GrannyGetMeshTriangleGroups(c_pgrnMesh);
; 120  : 				int mtrlCount = c_pMesh->GetGrannyMeshPointer()->MaterialBindingCount;
; 121  : 				int vtxCount = GrannyGetMeshVertexCount(c_pgrnMesh);
; 122  : 				int groupCount = GrannyGetMeshTriangleGroupCount(c_pgrnMesh);
; 123  : 
; 124  : 				TIndex*	modelIndices;
; 125  : 				TPNTVertex*	modelVertices;
; 126  : 
; 127  : 				if (m_pModel->LockVertices((void**)&modelIndices, (void**)&modelVertices))
; 128  : 				{
; 129  : 					TIndex* meshIndices = modelIndices + c_pMesh->GetIndexBasePosition();
; 130  : 					TPNTVertex* meshVertices = modelVertices + c_pMesh->GetVertexBasePosition();
; 131  : 
; 132  : 					for (int i = 0; i < groupCount; ++i)
; 133  : 					{
; 134  : 						granny_tri_material_group& rgrnTriGroup = pgrnTriGroups[i];
; 135  : 
; 136  : 						if (rgrnTriGroup.MaterialIndex < 0 || rgrnTriGroup.MaterialIndex >= mtrlCount)
; 137  : 							continue;
; 138  : 
; 139  : 						if (IntersectMesh(&matMesh,
; 140  : 										  meshVertices,
; 141  : 										  sizeof(TPNTVertex),
; 142  : 										  vtxCount,
; 143  : 										  meshIndices,
; 144  : 										  GrannyGetMeshIndexCount(c_pgrnMesh),
; 145  : 										  ms_vtPickRayOrig,
; 146  : 										  ms_vtPickRayDir,
; 147  : 										  &u, &v, &t))
; 148  : 						{
; 149  : 							ret = true;
; 150  : 							break;
; 151  : 						}
; 152  : 					}
; 153  : 
; 154  : 					m_pModel->UnlockVertices();
; 155  : 				}
; 156  : 			}
; 157  : 
; 158  : 			if (ret)
; 159  : 			{
; 160  : 				*pu = u;
; 161  : 				*pv = v;
; 162  : 				*pt = -t;
; 163  : 
; 164  : 				if (c_szModelName)
; 165  : 				{
; 166  : 					if (!strncmp(c_pgrnMesh->Name, c_szModelName, strlen(c_szModelName)))
; 167  : 						return ret;
; 168  : 
; 169  : 					ret = false;
; 170  : 					continue;
; 171  : 				}
; 172  : 
; 173  : 				return ret;
; 174  : 			}
; 175  : 		}
; 176  : 
; 177  : 		return (ret);
; 178  : 	*/
; 179  : }

  00212	8b 4d f4	 mov	 ecx, DWORD PTR __$EHRec$[ebp]
  00215	64 89 0d 00 00
	00 00		 mov	 DWORD PTR fs:0, ecx
  0021c	59		 pop	 ecx
  0021d	5f		 pop	 edi
  0021e	5e		 pop	 esi
  0021f	5b		 pop	 ebx
  00220	8b e5		 mov	 esp, ebp
  00222	5d		 pop	 ebp
  00223	c2 10 00	 ret	 16			; 00000010H
$LN72@Intersect:

; 52   : 	static stl_stack_pool<TBoundBox> s_boundBoxPool(1024);

  00226	68 00 00 00 00	 push	 OFFSET ?$TSS0@?1??Intersect@CGrannyModelInstance@@QAE_NPBUD3DXMATRIX@@PAM11@Z@4HA
  0022b	e8 00 00 00 00	 call	 __Init_thread_header
  00230	83 c4 04	 add	 esp, 4
  00233	83 3d 00 00 00
	00 ff		 cmp	 DWORD PTR ?$TSS0@?1??Intersect@CGrannyModelInstance@@QAE_NPBUD3DXMATRIX@@PAM11@Z@4HA, -1
  0023a	0f 85 4e fe ff
	ff		 jne	 $LN2@Intersect
; File C:\Program Files\Microsoft Visual Studio\2022\Community\VC\Tools\MSVC\14.34.31933\include\vector

; 1633 :                 _Resize_reallocate(_Newsize, _Val);

  00240	8d 45 17	 lea	 eax, DWORD PTR $T3[ebp]
; File C:\Users\flourine\Desktop\Xantios\client-src\Code\eterBase\Stl.h

; 197  : 	{

  00243	c7 45 fc 01 00
	00 00		 mov	 DWORD PTR __$EHRec$[ebp+8], 1
; File C:\Program Files\Microsoft Visual Studio\2022\Community\VC\Tools\MSVC\14.34.31933\include\vector

; 1633 :                 _Resize_reallocate(_Newsize, _Val);

  0024a	50		 push	 eax
  0024b	68 00 04 00 00	 push	 1024			; 00000400H
  00250	b9 08 00 00 00	 mov	 ecx, OFFSET ?s_boundBoxPool@?1??Intersect@CGrannyModelInstance@@QAE_NPBUD3DXMATRIX@@PAM11@Z@4V?$stl_stack_pool@USBoundBox@@@@A+8
  00255	e8 00 00 00 00	 call	 ??$_Resize_reallocate@U_Value_init_tag@std@@@?$vector@USBoundBox@@V?$allocator@USBoundBox@@@std@@@std@@AAEXIABU_Value_init_tag@1@@Z ; std::vector<SBoundBox,std::allocator<SBoundBox> >::_Resize_reallocate<std::_Value_init_tag>
; File C:\Users\flourine\Desktop\Xantios\client-src\Code\eterGrnLib\ModelInstanceCollisionDetection.cpp

; 52   : 	static stl_stack_pool<TBoundBox> s_boundBoxPool(1024);

  0025a	68 00 00 00 00	 push	 OFFSET ??__Fs_boundBoxPool@?1??Intersect@CGrannyModelInstance@@QAE_NPBUD3DXMATRIX@@PAM11@Z@YAXXZ ; `CGrannyModelInstance::Intersect'::`2'::`dynamic atexit destructor for 's_boundBoxPool''
  0025f	e8 00 00 00 00	 call	 _atexit
  00264	68 00 00 00 00	 push	 OFFSET ?$TSS0@?1??Intersect@CGrannyModelInstance@@QAE_NPBUD3DXMATRIX@@PAM11@Z@4HA
  00269	c7 45 fc ff ff
	ff ff		 mov	 DWORD PTR __$EHRec$[ebp+8], -1
  00270	e8 00 00 00 00	 call	 __Init_thread_footer
  00275	83 c4 08	 add	 esp, 8
  00278	e9 11 fe ff ff	 jmp	 $LN2@Intersect
_TEXT	ENDS
;	COMDAT text$x
text$x	SEGMENT
__unwindfunclet$?Intersect@CGrannyModelInstance@@QAE_NPBUD3DXMATRIX@@PAM11@Z$0:
  00000	68 00 00 00 00	 push	 OFFSET ?$TSS0@?1??Intersect@CGrannyModelInstance@@QAE_NPBUD3DXMATRIX@@PAM11@Z@4HA
  00005	e8 00 00 00 00	 call	 __Init_thread_abort
  0000a	59		 pop	 ecx
  0000b	c3		 ret	 0
__unwindfunclet$?Intersect@CGrannyModelInstance@@QAE_NPBUD3DXMATRIX@@PAM11@Z$1:
  0000c	b9 08 00 00 00	 mov	 ecx, OFFSET ?s_boundBoxPool@?1??Intersect@CGrannyModelInstance@@QAE_NPBUD3DXMATRIX@@PAM11@Z@4V?$stl_stack_pool@USBoundBox@@@@A+8
  00011	e9 00 00 00 00	 jmp	 ??1?$vector@USBoundBox@@V?$allocator@USBoundBox@@@std@@@std@@QAE@XZ ; std::vector<SBoundBox,std::allocator<SBoundBox> >::~vector<SBoundBox,std::allocator<SBoundBox> >
  00016	cc		 int	 3
  00017	cc		 int	 3
  00018	cc		 int	 3
  00019	cc		 int	 3
  0001a	cc		 int	 3
__ehhandler$?Intersect@CGrannyModelInstance@@QAE_NPBUD3DXMATRIX@@PAM11@Z:
  0001b	90		 npad	 1
  0001c	90		 npad	 1
  0001d	8b 54 24 08	 mov	 edx, DWORD PTR [esp+8]
  00021	8d 42 0c	 lea	 eax, DWORD PTR [edx+12]
  00024	8b 4a b8	 mov	 ecx, DWORD PTR [edx-72]
  00027	33 c8		 xor	 ecx, eax
  00029	e8 00 00 00 00	 call	 @__security_check_cookie@4
  0002e	b8 00 00 00 00	 mov	 eax, OFFSET __ehfuncinfo$?Intersect@CGrannyModelInstance@@QAE_NPBUD3DXMATRIX@@PAM11@Z
  00033	e9 00 00 00 00	 jmp	 ___CxxFrameHandler3
text$x	ENDS
?Intersect@CGrannyModelInstance@@QAE_NPBUD3DXMATRIX@@PAM11@Z ENDP ; CGrannyModelInstance::Intersect
; Function compile flags: /Ogtp
; File C:\Users\flourine\Desktop\Xantios\client-src\Code\eterGrnLib\ModelInstanceCollisionDetection.cpp
;	COMDAT ?GetMeshMatrixPointer@CGrannyModelInstance@@QBE_NHPAPBUD3DXMATRIX@@@Z
_TEXT	SEGMENT
_iMesh$ = 8						; size = 4
_c_ppMatrix$ = 12					; size = 4
?GetMeshMatrixPointer@CGrannyModelInstance@@QBE_NHPAPBUD3DXMATRIX@@@Z PROC ; CGrannyModelInstance::GetMeshMatrixPointer, COMDAT
; _this$ = ecx

; 216  : {

  00000	55		 push	 ebp
  00001	8b ec		 mov	 ebp, esp
  00003	57		 push	 edi
  00004	8b f9		 mov	 edi, ecx

; 217  : 	if (!m_pgrnModelInstance)

  00006	83 7f 08 00	 cmp	 DWORD PTR [edi+8], 0
  0000a	74 35		 je	 SHORT $LN5@GetMeshMat

; 218  : 	{
; 219  : 		return false;
; 220  : 	}
; 221  : 
; 222  : 	int meshCount = m_pModel->GetMeshCount();

  0000c	8b 4f 04	 mov	 ecx, DWORD PTR [edi+4]
  0000f	e8 00 00 00 00	 call	 ?GetMeshCount@CGrannyModel@@QBEHXZ ; CGrannyModel::GetMeshCount

; 223  : 
; 224  : 	if (meshCount <= 0)

  00014	85 c0		 test	 eax, eax
  00016	7e 29		 jle	 SHORT $LN5@GetMeshMat

; 227  : 	}
; 228  : 
; 229  : 	// WORK
; 230  : 	//const CGrannyMesh * pMesh = m_pModel->GetMeshPointer(iMesh);
; 231  : 	*c_ppMatrix = (D3DXMATRIX *)GrannyGetWorldPose4x4(__GetWorldPosePtr(), __GetMeshBoneIndices(iMesh)[0]);

  00018	56		 push	 esi
  00019	ff 75 08	 push	 DWORD PTR _iMesh$[ebp]
  0001c	8b cf		 mov	 ecx, edi
  0001e	e8 00 00 00 00	 call	 ?__GetMeshBoneIndices@CGrannyModelInstance@@IBEPBHI@Z ; CGrannyModelInstance::__GetMeshBoneIndices
  00023	8b cf		 mov	 ecx, edi
  00025	8b 30		 mov	 esi, DWORD PTR [eax]
  00027	e8 00 00 00 00	 call	 ?__GetWorldPosePtr@CGrannyModelInstance@@IBEPAUgranny_world_pose@@XZ ; CGrannyModelInstance::__GetWorldPosePtr
  0002c	56		 push	 esi
  0002d	50		 push	 eax
  0002e	ff 15 00 00 00
	00		 call	 DWORD PTR __imp__GrannyGetWorldPose4x4@8
  00034	8b 4d 0c	 mov	 ecx, DWORD PTR _c_ppMatrix$[ebp]

; 232  : 	// END_OF_WORK
; 233  : 
; 234  : 	return true;

  00037	5e		 pop	 esi
  00038	5f		 pop	 edi
  00039	89 01		 mov	 DWORD PTR [ecx], eax
  0003b	b0 01		 mov	 al, 1

; 235  : }

  0003d	5d		 pop	 ebp
  0003e	c2 08 00	 ret	 8
$LN5@GetMeshMat:

; 225  : 	{
; 226  : 		return false;

  00041	32 c0		 xor	 al, al
  00043	5f		 pop	 edi

; 235  : }

  00044	5d		 pop	 ebp
  00045	c2 08 00	 ret	 8
?GetMeshMatrixPointer@CGrannyModelInstance@@QBE_NHPAPBUD3DXMATRIX@@@Z ENDP ; CGrannyModelInstance::GetMeshMatrixPointer
_TEXT	ENDS
; Function compile flags: /Ogtp
; File C:\Program Files\Microsoft Visual Studio\2022\Community\VC\Tools\MSVC\14.34.31933\include\exception
;	COMDAT ?_Throw_bad_array_new_length@std@@YAXXZ
_TEXT	SEGMENT
$T1 = -12						; size = 12
?_Throw_bad_array_new_length@std@@YAXXZ PROC		; std::_Throw_bad_array_new_length, COMDAT

; 323  : [[noreturn]] inline void _Throw_bad_array_new_length() {

  00000	55		 push	 ebp
  00001	8b ec		 mov	 ebp, esp
  00003	83 ec 0c	 sub	 esp, 12			; 0000000cH

; 324  :     _THROW(bad_array_new_length{});

  00006	8d 4d f4	 lea	 ecx, DWORD PTR $T1[ebp]
  00009	e8 00 00 00 00	 call	 ??0bad_array_new_length@std@@QAE@XZ ; std::bad_array_new_length::bad_array_new_length
  0000e	68 00 00 00 00	 push	 OFFSET __TI3?AVbad_array_new_length@std@@
  00013	8d 45 f4	 lea	 eax, DWORD PTR $T1[ebp]
  00016	50		 push	 eax
  00017	e8 00 00 00 00	 call	 __CxxThrowException@8
$LN3@Throw_bad_:
  0001c	cc		 int	 3
?_Throw_bad_array_new_length@std@@YAXXZ ENDP		; std::_Throw_bad_array_new_length
_TEXT	ENDS
; Function compile flags: /Ogtp
; File C:\Program Files\Microsoft Visual Studio\2022\Community\VC\Tools\MSVC\14.34.31933\include\vcruntime_exception.h
;	COMDAT ??_Gbad_array_new_length@std@@UAEPAXI@Z
_TEXT	SEGMENT
___flags$ = 8						; size = 4
??_Gbad_array_new_length@std@@UAEPAXI@Z PROC		; std::bad_array_new_length::`scalar deleting destructor', COMDAT
; _this$ = ecx
  00000	55		 push	 ebp
  00001	8b ec		 mov	 ebp, esp

; 89   :     {

  00003	56		 push	 esi
  00004	8b f1		 mov	 esi, ecx

; 90   :         __std_exception_destroy(&_Data);

  00006	8d 46 04	 lea	 eax, DWORD PTR [esi+4]
  00009	c7 06 00 00 00
	00		 mov	 DWORD PTR [esi], OFFSET ??_7exception@std@@6B@
  0000f	50		 push	 eax
  00010	e8 00 00 00 00	 call	 ___std_exception_destroy
  00015	83 c4 04	 add	 esp, 4
  00018	f6 45 08 01	 test	 BYTE PTR ___flags$[ebp], 1
  0001c	74 0b		 je	 SHORT $LN12@scalar
  0001e	6a 0c		 push	 12			; 0000000cH
  00020	56		 push	 esi
  00021	e8 00 00 00 00	 call	 ??3@YAXPAXI@Z		; operator delete
  00026	83 c4 08	 add	 esp, 8
$LN12@scalar:
  00029	8b c6		 mov	 eax, esi
  0002b	5e		 pop	 esi
  0002c	5d		 pop	 ebp
  0002d	c2 04 00	 ret	 4
??_Gbad_array_new_length@std@@UAEPAXI@Z ENDP		; std::bad_array_new_length::`scalar deleting destructor'
_TEXT	ENDS
; Function compile flags: /Ogtp
; File C:\Program Files\Microsoft Visual Studio\2022\Community\VC\Tools\MSVC\14.34.31933\include\vcruntime_exception.h
;	COMDAT ??0bad_array_new_length@std@@QAE@ABV01@@Z
_TEXT	SEGMENT
___that$ = 8						; size = 4
??0bad_array_new_length@std@@QAE@ABV01@@Z PROC		; std::bad_array_new_length::bad_array_new_length, COMDAT
; _this$ = ecx
  00000	55		 push	 ebp
  00001	8b ec		 mov	 ebp, esp

; 72   :     {

  00003	56		 push	 esi
  00004	8b f1		 mov	 esi, ecx
  00006	0f 57 c0	 xorps	 xmm0, xmm0

; 71   :         : _Data()

  00009	8d 46 04	 lea	 eax, DWORD PTR [esi+4]

; 73   :         __std_exception_copy(&_Other._Data, &_Data);

  0000c	50		 push	 eax
  0000d	c7 06 00 00 00
	00		 mov	 DWORD PTR [esi], OFFSET ??_7exception@std@@6B@
  00013	66 0f d6 00	 movq	 QWORD PTR [eax], xmm0
  00017	8b 45 08	 mov	 eax, DWORD PTR ___that$[ebp]
  0001a	83 c0 04	 add	 eax, 4
  0001d	50		 push	 eax
  0001e	e8 00 00 00 00	 call	 ___std_exception_copy
  00023	83 c4 08	 add	 esp, 8
  00026	c7 06 00 00 00
	00		 mov	 DWORD PTR [esi], OFFSET ??_7bad_array_new_length@std@@6B@
  0002c	8b c6		 mov	 eax, esi
  0002e	5e		 pop	 esi
  0002f	5d		 pop	 ebp
  00030	c2 04 00	 ret	 4
??0bad_array_new_length@std@@QAE@ABV01@@Z ENDP		; std::bad_array_new_length::bad_array_new_length
_TEXT	ENDS
; Function compile flags: /Ogtp
; File C:\Program Files\Microsoft Visual Studio\2022\Community\VC\Tools\MSVC\14.34.31933\include\vcruntime_exception.h
;	COMDAT ??1bad_array_new_length@std@@UAE@XZ
_TEXT	SEGMENT
??1bad_array_new_length@std@@UAE@XZ PROC		; std::bad_array_new_length::~bad_array_new_length, COMDAT
; _this$ = ecx

; 90   :         __std_exception_destroy(&_Data);

  00000	8d 41 04	 lea	 eax, DWORD PTR [ecx+4]
  00003	c7 01 00 00 00
	00		 mov	 DWORD PTR [ecx], OFFSET ??_7exception@std@@6B@
  00009	50		 push	 eax
  0000a	e8 00 00 00 00	 call	 ___std_exception_destroy
  0000f	59		 pop	 ecx
  00010	c3		 ret	 0
??1bad_array_new_length@std@@UAE@XZ ENDP		; std::bad_array_new_length::~bad_array_new_length
_TEXT	ENDS
; Function compile flags: /Ogtp
; File C:\Program Files\Microsoft Visual Studio\2022\Community\VC\Tools\MSVC\14.34.31933\include\vcruntime_exception.h
;	COMDAT ??0bad_array_new_length@std@@QAE@XZ
_TEXT	SEGMENT
??0bad_array_new_length@std@@QAE@XZ PROC		; std::bad_array_new_length::bad_array_new_length, COMDAT
; _this$ = ecx

; 141  :     {

  00000	0f 57 c0	 xorps	 xmm0, xmm0

; 142  :     }

  00003	8b c1		 mov	 eax, ecx

; 65   :         : _Data()

  00005	66 0f d6 41 04	 movq	 QWORD PTR [ecx+4], xmm0

; 66   :     {
; 67   :         _Data._What = _Message;

  0000a	c7 41 04 00 00
	00 00		 mov	 DWORD PTR [ecx+4], OFFSET ??_C@_0BF@KINCDENJ@bad?5array?5new?5length@

; 141  :     {

  00011	c7 01 00 00 00
	00		 mov	 DWORD PTR [ecx], OFFSET ??_7bad_array_new_length@std@@6B@

; 142  :     }

  00017	c3		 ret	 0
??0bad_array_new_length@std@@QAE@XZ ENDP		; std::bad_array_new_length::bad_array_new_length
_TEXT	ENDS
; Function compile flags: /Ogtp
; File C:\Program Files\Microsoft Visual Studio\2022\Community\VC\Tools\MSVC\14.34.31933\include\vcruntime_exception.h
;	COMDAT ??_Gbad_alloc@std@@UAEPAXI@Z
_TEXT	SEGMENT
___flags$ = 8						; size = 4
??_Gbad_alloc@std@@UAEPAXI@Z PROC			; std::bad_alloc::`scalar deleting destructor', COMDAT
; _this$ = ecx
  00000	55		 push	 ebp
  00001	8b ec		 mov	 ebp, esp

; 89   :     {

  00003	56		 push	 esi
  00004	8b f1		 mov	 esi, ecx

; 90   :         __std_exception_destroy(&_Data);

  00006	8d 46 04	 lea	 eax, DWORD PTR [esi+4]
  00009	c7 06 00 00 00
	00		 mov	 DWORD PTR [esi], OFFSET ??_7exception@std@@6B@
  0000f	50		 push	 eax
  00010	e8 00 00 00 00	 call	 ___std_exception_destroy
  00015	83 c4 04	 add	 esp, 4
  00018	f6 45 08 01	 test	 BYTE PTR ___flags$[ebp], 1
  0001c	74 0b		 je	 SHORT $LN9@scalar
  0001e	6a 0c		 push	 12			; 0000000cH
  00020	56		 push	 esi
  00021	e8 00 00 00 00	 call	 ??3@YAXPAXI@Z		; operator delete
  00026	83 c4 08	 add	 esp, 8
$LN9@scalar:
  00029	8b c6		 mov	 eax, esi
  0002b	5e		 pop	 esi
  0002c	5d		 pop	 ebp
  0002d	c2 04 00	 ret	 4
??_Gbad_alloc@std@@UAEPAXI@Z ENDP			; std::bad_alloc::`scalar deleting destructor'
_TEXT	ENDS
; Function compile flags: /Ogtp
; File C:\Program Files\Microsoft Visual Studio\2022\Community\VC\Tools\MSVC\14.34.31933\include\vcruntime_exception.h
;	COMDAT ??0bad_alloc@std@@QAE@ABV01@@Z
_TEXT	SEGMENT
___that$ = 8						; size = 4
??0bad_alloc@std@@QAE@ABV01@@Z PROC			; std::bad_alloc::bad_alloc, COMDAT
; _this$ = ecx
  00000	55		 push	 ebp
  00001	8b ec		 mov	 ebp, esp

; 72   :     {

  00003	56		 push	 esi
  00004	8b f1		 mov	 esi, ecx
  00006	0f 57 c0	 xorps	 xmm0, xmm0

; 71   :         : _Data()

  00009	8d 46 04	 lea	 eax, DWORD PTR [esi+4]

; 73   :         __std_exception_copy(&_Other._Data, &_Data);

  0000c	50		 push	 eax
  0000d	c7 06 00 00 00
	00		 mov	 DWORD PTR [esi], OFFSET ??_7exception@std@@6B@
  00013	66 0f d6 00	 movq	 QWORD PTR [eax], xmm0
  00017	8b 45 08	 mov	 eax, DWORD PTR ___that$[ebp]
  0001a	83 c0 04	 add	 eax, 4
  0001d	50		 push	 eax
  0001e	e8 00 00 00 00	 call	 ___std_exception_copy
  00023	83 c4 08	 add	 esp, 8
  00026	c7 06 00 00 00
	00		 mov	 DWORD PTR [esi], OFFSET ??_7bad_alloc@std@@6B@
  0002c	8b c6		 mov	 eax, esi
  0002e	5e		 pop	 esi
  0002f	5d		 pop	 ebp
  00030	c2 04 00	 ret	 4
??0bad_alloc@std@@QAE@ABV01@@Z ENDP			; std::bad_alloc::bad_alloc
_TEXT	ENDS
; Function compile flags: /Ogtp
; File C:\Program Files\Microsoft Visual Studio\2022\Community\VC\Tools\MSVC\14.34.31933\include\vcruntime_exception.h
;	COMDAT ??_Gexception@std@@UAEPAXI@Z
_TEXT	SEGMENT
___flags$ = 8						; size = 4
??_Gexception@std@@UAEPAXI@Z PROC			; std::exception::`scalar deleting destructor', COMDAT
; _this$ = ecx
  00000	55		 push	 ebp
  00001	8b ec		 mov	 ebp, esp

; 89   :     {

  00003	56		 push	 esi
  00004	8b f1		 mov	 esi, ecx

; 90   :         __std_exception_destroy(&_Data);

  00006	8d 46 04	 lea	 eax, DWORD PTR [esi+4]
  00009	c7 06 00 00 00
	00		 mov	 DWORD PTR [esi], OFFSET ??_7exception@std@@6B@
  0000f	50		 push	 eax
  00010	e8 00 00 00 00	 call	 ___std_exception_destroy
  00015	83 c4 04	 add	 esp, 4
  00018	f6 45 08 01	 test	 BYTE PTR ___flags$[ebp], 1
  0001c	74 0b		 je	 SHORT $LN6@scalar
  0001e	6a 0c		 push	 12			; 0000000cH
  00020	56		 push	 esi
  00021	e8 00 00 00 00	 call	 ??3@YAXPAXI@Z		; operator delete
  00026	83 c4 08	 add	 esp, 8
$LN6@scalar:
  00029	8b c6		 mov	 eax, esi
  0002b	5e		 pop	 esi
  0002c	5d		 pop	 ebp
  0002d	c2 04 00	 ret	 4
??_Gexception@std@@UAEPAXI@Z ENDP			; std::exception::`scalar deleting destructor'
_TEXT	ENDS
; Function compile flags: /Ogtp
; File C:\Program Files\Microsoft Visual Studio\2022\Community\VC\Tools\MSVC\14.34.31933\include\vcruntime_exception.h
;	COMDAT ?what@exception@std@@UBEPBDXZ
_TEXT	SEGMENT
?what@exception@std@@UBEPBDXZ PROC			; std::exception::what, COMDAT
; _this$ = ecx

; 95   :         return _Data._What ? _Data._What : "Unknown exception";

  00000	8b 49 04	 mov	 ecx, DWORD PTR [ecx+4]
  00003	b8 00 00 00 00	 mov	 eax, OFFSET ??_C@_0BC@EOODALEL@Unknown?5exception@
  00008	85 c9		 test	 ecx, ecx
  0000a	0f 45 c1	 cmovne	 eax, ecx

; 96   :     }

  0000d	c3		 ret	 0
?what@exception@std@@UBEPBDXZ ENDP			; std::exception::what
_TEXT	ENDS
; Function compile flags: /Ogtp
; File C:\Program Files\Microsoft Visual Studio\2022\Community\VC\Tools\MSVC\14.34.31933\include\vcruntime_exception.h
;	COMDAT ??1exception@std@@UAE@XZ
_TEXT	SEGMENT
??1exception@std@@UAE@XZ PROC				; std::exception::~exception, COMDAT
; _this$ = ecx

; 90   :         __std_exception_destroy(&_Data);

  00000	8d 41 04	 lea	 eax, DWORD PTR [ecx+4]
  00003	c7 01 00 00 00
	00		 mov	 DWORD PTR [ecx], OFFSET ??_7exception@std@@6B@
  00009	50		 push	 eax
  0000a	e8 00 00 00 00	 call	 ___std_exception_destroy
  0000f	59		 pop	 ecx

; 91   :     }

  00010	c3		 ret	 0
??1exception@std@@UAE@XZ ENDP				; std::exception::~exception
_TEXT	ENDS
; Function compile flags: /Ogtp
; File C:\Program Files\Microsoft Visual Studio\2022\Community\VC\Tools\MSVC\14.34.31933\include\vcruntime_exception.h
;	COMDAT ??0exception@std@@QAE@ABV01@@Z
_TEXT	SEGMENT
__Other$ = 8						; size = 4
??0exception@std@@QAE@ABV01@@Z PROC			; std::exception::exception, COMDAT
; _this$ = ecx

; 72   :     {

  00000	55		 push	 ebp
  00001	8b ec		 mov	 ebp, esp
  00003	56		 push	 esi
  00004	8b f1		 mov	 esi, ecx
  00006	0f 57 c0	 xorps	 xmm0, xmm0
  00009	8d 46 04	 lea	 eax, DWORD PTR [esi+4]

; 73   :         __std_exception_copy(&_Other._Data, &_Data);

  0000c	50		 push	 eax
  0000d	c7 06 00 00 00
	00		 mov	 DWORD PTR [esi], OFFSET ??_7exception@std@@6B@
  00013	66 0f d6 00	 movq	 QWORD PTR [eax], xmm0
  00017	8b 45 08	 mov	 eax, DWORD PTR __Other$[ebp]
  0001a	83 c0 04	 add	 eax, 4
  0001d	50		 push	 eax
  0001e	e8 00 00 00 00	 call	 ___std_exception_copy
  00023	83 c4 08	 add	 esp, 8

; 74   :     }

  00026	8b c6		 mov	 eax, esi
  00028	5e		 pop	 esi
  00029	5d		 pop	 ebp
  0002a	c2 04 00	 ret	 4
??0exception@std@@QAE@ABV01@@Z ENDP			; std::exception::exception
_TEXT	ENDS
END
