; Listing generated by Microsoft (R) Optimizing Compiler Version 19.34.31942.0 

	TITLE	C:\Users\flourine\Desktop\Xantios\client-src\Code\eterGrnLib\Distribute\ThingInstance.obj
	.686P
	.XMM
	include listing.inc
	.model	flat

INCLUDELIB LIBCMT
INCLUDELIB OLDNAMES

PUBLIC	?_Fake_alloc@std@@3U_Fake_allocator@1@B		; std::_Fake_alloc
PUBLIC	??_7?$CDynamicPool@VCGraphicThingInstance@@@@6B@ ; CDynamicPool<CGraphicThingInstance>::`vftable'
PUBLIC	??_G?$CDynamicPool@VCGraphicThingInstance@@@@UAEPAXI@Z ; CDynamicPool<CGraphicThingInstance>::`scalar deleting destructor'
PUBLIC	??_R4?$CDynamicPool@VCGraphicThingInstance@@@@6B@ ; CDynamicPool<CGraphicThingInstance>::`RTTI Complete Object Locator'
PUBLIC	??_R0?AV?$CDynamicPool@VCGraphicThingInstance@@@@@8 ; CDynamicPool<CGraphicThingInstance> `RTTI Type Descriptor'
PUBLIC	??_R3?$CDynamicPool@VCGraphicThingInstance@@@@8	; CDynamicPool<CGraphicThingInstance>::`RTTI Class Hierarchy Descriptor'
PUBLIC	??_R2?$CDynamicPool@VCGraphicThingInstance@@@@8	; CDynamicPool<CGraphicThingInstance>::`RTTI Base Class Array'
PUBLIC	??_R1A@?0A@EA@?$CDynamicPool@VCGraphicThingInstance@@@@8 ; CDynamicPool<CGraphicThingInstance>::`RTTI Base Class Descriptor at (0,-1,0,64)'
EXTRN	??_E?$CDynamicPool@VCGraphicThingInstance@@@@UAEPAXI@Z:PROC ; CDynamicPool<CGraphicThingInstance>::`vector deleting destructor'
EXTRN	??_7type_info@@6B@:QWORD			; type_info::`vftable'
;	COMDAT ??_R1A@?0A@EA@?$CDynamicPool@VCGraphicThingInstance@@@@8
rdata$r	SEGMENT
??_R1A@?0A@EA@?$CDynamicPool@VCGraphicThingInstance@@@@8 DD FLAT:??_R0?AV?$CDynamicPool@VCGraphicThingInstance@@@@@8 ; CDynamicPool<CGraphicThingInstance>::`RTTI Base Class Descriptor at (0,-1,0,64)'
	DD	00H
	DD	00H
	DD	0ffffffffH
	DD	00H
	DD	040H
	DD	FLAT:??_R3?$CDynamicPool@VCGraphicThingInstance@@@@8
rdata$r	ENDS
;	COMDAT ??_R2?$CDynamicPool@VCGraphicThingInstance@@@@8
rdata$r	SEGMENT
??_R2?$CDynamicPool@VCGraphicThingInstance@@@@8 DD FLAT:??_R1A@?0A@EA@?$CDynamicPool@VCGraphicThingInstance@@@@8 ; CDynamicPool<CGraphicThingInstance>::`RTTI Base Class Array'
rdata$r	ENDS
;	COMDAT ??_R3?$CDynamicPool@VCGraphicThingInstance@@@@8
rdata$r	SEGMENT
??_R3?$CDynamicPool@VCGraphicThingInstance@@@@8 DD 00H	; CDynamicPool<CGraphicThingInstance>::`RTTI Class Hierarchy Descriptor'
	DD	00H
	DD	01H
	DD	FLAT:??_R2?$CDynamicPool@VCGraphicThingInstance@@@@8
rdata$r	ENDS
;	COMDAT ??_R0?AV?$CDynamicPool@VCGraphicThingInstance@@@@@8
data$rs	SEGMENT
??_R0?AV?$CDynamicPool@VCGraphicThingInstance@@@@@8 DD FLAT:??_7type_info@@6B@ ; CDynamicPool<CGraphicThingInstance> `RTTI Type Descriptor'
	DD	00H
	DB	'.?AV?$CDynamicPool@VCGraphicThingInstance@@@@', 00H
data$rs	ENDS
;	COMDAT ??_R4?$CDynamicPool@VCGraphicThingInstance@@@@6B@
rdata$r	SEGMENT
??_R4?$CDynamicPool@VCGraphicThingInstance@@@@6B@ DD 00H ; CDynamicPool<CGraphicThingInstance>::`RTTI Complete Object Locator'
	DD	00H
	DD	00H
	DD	FLAT:??_R0?AV?$CDynamicPool@VCGraphicThingInstance@@@@@8
	DD	FLAT:??_R3?$CDynamicPool@VCGraphicThingInstance@@@@8
rdata$r	ENDS
;	COMDAT ??_7?$CDynamicPool@VCGraphicThingInstance@@@@6B@
CONST	SEGMENT
??_7?$CDynamicPool@VCGraphicThingInstance@@@@6B@ DD FLAT:??_R4?$CDynamicPool@VCGraphicThingInstance@@@@6B@ ; CDynamicPool<CGraphicThingInstance>::`vftable'
	DD	FLAT:??_E?$CDynamicPool@VCGraphicThingInstance@@@@UAEPAXI@Z
CONST	ENDS
;	COMDAT ?_Fake_alloc@std@@3U_Fake_allocator@1@B
CONST	SEGMENT
?_Fake_alloc@std@@3U_Fake_allocator@1@B	ORG $+1		; std::_Fake_alloc
CONST	ENDS
PUBLIC	??0exception@std@@QAE@ABV01@@Z			; std::exception::exception
PUBLIC	??1exception@std@@UAE@XZ			; std::exception::~exception
PUBLIC	?what@exception@std@@UBEPBDXZ			; std::exception::what
PUBLIC	??_Gexception@std@@UAEPAXI@Z			; std::exception::`scalar deleting destructor'
PUBLIC	??0bad_alloc@std@@QAE@ABV01@@Z			; std::bad_alloc::bad_alloc
PUBLIC	??_Gbad_alloc@std@@UAEPAXI@Z			; std::bad_alloc::`scalar deleting destructor'
PUBLIC	??0bad_array_new_length@std@@QAE@XZ		; std::bad_array_new_length::bad_array_new_length
PUBLIC	??1bad_array_new_length@std@@UAE@XZ		; std::bad_array_new_length::~bad_array_new_length
PUBLIC	??0bad_array_new_length@std@@QAE@ABV01@@Z	; std::bad_array_new_length::bad_array_new_length
PUBLIC	??_Gbad_array_new_length@std@@UAEPAXI@Z		; std::bad_array_new_length::`scalar deleting destructor'
PUBLIC	?_Throw_bad_array_new_length@std@@YAXXZ		; std::_Throw_bad_array_new_length
PUBLIC	?_Throw_tree_length_error@std@@YAXXZ		; std::_Throw_tree_length_error
PUBLIC	?Clear@SModelThingSet@CGraphicThingInstance@@QAEXXZ ; CGraphicThingInstance::SModelThingSet::Clear
PUBLIC	?_Xlength@?$vector@PAV?$CRef@VCGraphicThing@@@@V?$allocator@PAV?$CRef@VCGraphicThing@@@@@std@@@std@@CAXXZ ; std::vector<CRef<CGraphicThing> *,std::allocator<CRef<CGraphicThing> *> >::_Xlength
PUBLIC	?GetType@CGraphicThingInstance@@UBEHXZ		; CGraphicThingInstance::GetType
PUBLIC	??0CGraphicThingInstance@@QAE@XZ		; CGraphicThingInstance::CGraphicThingInstance
PUBLIC	??1CGraphicThingInstance@@UAE@XZ		; CGraphicThingInstance::~CGraphicThingInstance
PUBLIC	?DeformNoSkin@CGraphicThingInstance@@QAEXXZ	; CGraphicThingInstance::DeformNoSkin
PUBLIC	?UpdateLODLevel@CGraphicThingInstance@@QAEXXZ	; CGraphicThingInstance::UpdateLODLevel
PUBLIC	?UpdateTime@CGraphicThingInstance@@QAEXXZ	; CGraphicThingInstance::UpdateTime
PUBLIC	?DeformAll@CGraphicThingInstance@@QAEXXZ	; CGraphicThingInstance::DeformAll
PUBLIC	?LessRenderOrder@CGraphicThingInstance@@QAE_NPAV1@@Z ; CGraphicThingInstance::LessRenderOrder
PUBLIC	?Picking@CGraphicThingInstance@@QAE_NABUD3DXVECTOR3@@0AAM1@Z ; CGraphicThingInstance::Picking
PUBLIC	?OnInitialize@CGraphicThingInstance@@UAEXXZ	; CGraphicThingInstance::OnInitialize
PUBLIC	?CreateDeviceObjects@CGraphicThingInstance@@QAE_NXZ ; CGraphicThingInstance::CreateDeviceObjects
PUBLIC	?DestroyDeviceObjects@CGraphicThingInstance@@QAEXXZ ; CGraphicThingInstance::DestroyDeviceObjects
PUBLIC	?ReserveModelInstance@CGraphicThingInstance@@QAEXH@Z ; CGraphicThingInstance::ReserveModelInstance
PUBLIC	?ReserveModelThing@CGraphicThingInstance@@QAEXH@Z ; CGraphicThingInstance::ReserveModelThing
PUBLIC	?CheckModelInstanceIndex@CGraphicThingInstance@@QAE_NH@Z ; CGraphicThingInstance::CheckModelInstanceIndex
PUBLIC	?CheckModelThingIndex@CGraphicThingInstance@@QAE_NH@Z ; CGraphicThingInstance::CheckModelThingIndex
PUBLIC	?CheckMotionThingIndex@CGraphicThingInstance@@QAE_NK@Z ; CGraphicThingInstance::CheckMotionThingIndex
PUBLIC	?GetMotionThingPointer@CGraphicThingInstance@@QAE_NKPAPAVCGraphicThing@@@Z ; CGraphicThingInstance::GetMotionThingPointer
PUBLIC	?IsMotionThing@CGraphicThingInstance@@QAE_NXZ	; CGraphicThingInstance::IsMotionThing
PUBLIC	?RegisterModelThing@CGraphicThingInstance@@QAEXHPAVCGraphicThing@@@Z ; CGraphicThingInstance::RegisterModelThing
PUBLIC	?RegisterLODThing@CGraphicThingInstance@@QAEXHPAVCGraphicThing@@@Z ; CGraphicThingInstance::RegisterLODThing
PUBLIC	?RegisterMotionThing@CGraphicThingInstance@@QAEXKPAVCGraphicThing@@@Z ; CGraphicThingInstance::RegisterMotionThing
PUBLIC	?SetModelInstance@CGraphicThingInstance@@QAE_NHHHH@Z ; CGraphicThingInstance::SetModelInstance
PUBLIC	?SetEndStopMotion@CGraphicThingInstance@@QAEXXZ	; CGraphicThingInstance::SetEndStopMotion
PUBLIC	?SetMotionAtEnd@CGraphicThingInstance@@QAEXXZ	; CGraphicThingInstance::SetMotionAtEnd
PUBLIC	?AttachModelInstance@CGraphicThingInstance@@QAEXHPBDH@Z ; CGraphicThingInstance::AttachModelInstance
PUBLIC	?AttachModelInstance@CGraphicThingInstance@@QAEXHPBDAAV1@H@Z ; CGraphicThingInstance::AttachModelInstance
PUBLIC	?DetachModelInstance@CGraphicThingInstance@@QAEXHAAV1@H@Z ; CGraphicThingInstance::DetachModelInstance
PUBLIC	?FindBoneIndex@CGraphicThingInstance@@QAE_NHPBDPAH@Z ; CGraphicThingInstance::FindBoneIndex
PUBLIC	?GetBonePosition@CGraphicThingInstance@@QAE_NHHPAM00@Z ; CGraphicThingInstance::GetBonePosition
PUBLIC	?ResetLocalTime@CGraphicThingInstance@@QAEXXZ	; CGraphicThingInstance::ResetLocalTime
PUBLIC	?InsertDelay@CGraphicThingInstance@@QAEXM@Z	; CGraphicThingInstance::InsertDelay
PUBLIC	?SetMaterialImagePointer@CGraphicThingInstance@@QAEXIPBDPAVCGraphicImage@@@Z ; CGraphicThingInstance::SetMaterialImagePointer
PUBLIC	?SetMaterialData@CGraphicThingInstance@@QAEXIPBDUSMaterialData@@@Z ; CGraphicThingInstance::SetMaterialData
PUBLIC	?SetSpecularInfo@CGraphicThingInstance@@QAEXIPBDHM@Z ; CGraphicThingInstance::SetSpecularInfo
PUBLIC	?__SetLocalTime@CGraphicThingInstance@@QAEXM@Z	; CGraphicThingInstance::__SetLocalTime
PUBLIC	?GetLastLocalTime@CGraphicThingInstance@@QAEMXZ	; CGraphicThingInstance::GetLastLocalTime
PUBLIC	?GetLocalTime@CGraphicThingInstance@@QAEMXZ	; CGraphicThingInstance::GetLocalTime
PUBLIC	?GetSecondElapsed@CGraphicThingInstance@@QAEMXZ	; CGraphicThingInstance::GetSecondElapsed
PUBLIC	?GetAverageSecondElapsed@CGraphicThingInstance@@QAEMXZ ; CGraphicThingInstance::GetAverageSecondElapsed
PUBLIC	?GetLODLevel@CGraphicThingInstance@@QAEEK@Z	; CGraphicThingInstance::GetLODLevel
PUBLIC	?GetHeight@CGraphicThingInstance@@QAEMXZ	; CGraphicThingInstance::GetHeight
PUBLIC	?RenderWithOneTexture@CGraphicThingInstance@@QAEXXZ ; CGraphicThingInstance::RenderWithOneTexture
PUBLIC	?RenderWithTwoTexture@CGraphicThingInstance@@QAEXXZ ; CGraphicThingInstance::RenderWithTwoTexture
PUBLIC	?BlendRenderWithOneTexture@CGraphicThingInstance@@QAEXXZ ; CGraphicThingInstance::BlendRenderWithOneTexture
PUBLIC	?BlendRenderWithTwoTexture@CGraphicThingInstance@@QAEXXZ ; CGraphicThingInstance::BlendRenderWithTwoTexture
PUBLIC	?GetLODControllerCount@CGraphicThingInstance@@QBEKXZ ; CGraphicThingInstance::GetLODControllerCount
PUBLIC	?GetLODControllerPointer@CGraphicThingInstance@@QBEPAVCGrannyLODController@@K@Z ; CGraphicThingInstance::GetLODControllerPointer
PUBLIC	?GetLODControllerPointer@CGraphicThingInstance@@QAEPAVCGrannyLODController@@K@Z ; CGraphicThingInstance::GetLODControllerPointer
PUBLIC	?ReloadTexture@CGraphicThingInstance@@QAEXXZ	; CGraphicThingInstance::ReloadTexture
PUBLIC	?GetBaseThingPtr@CGraphicThingInstance@@QAEPAVCGraphicThing@@XZ ; CGraphicThingInstance::GetBaseThingPtr
PUBLIC	?SetMotion@CGraphicThingInstance@@QAE_NKMHM@Z	; CGraphicThingInstance::SetMotion
PUBLIC	?ChangeMotion@CGraphicThingInstance@@QAE_NKHM@Z	; CGraphicThingInstance::ChangeMotion
PUBLIC	?Intersect@CGraphicThingInstance@@QAE_NPAM00@Z	; CGraphicThingInstance::Intersect
PUBLIC	?GetBoundBox@CGraphicThingInstance@@QAEXPAUD3DXVECTOR3@@0@Z ; CGraphicThingInstance::GetBoundBox
PUBLIC	?GetBoundBox@CGraphicThingInstance@@QAEHKPAUD3DXVECTOR3@@0@Z ; CGraphicThingInstance::GetBoundBox
PUBLIC	?GetBoneMatrix@CGraphicThingInstance@@QAEHKKPAPAUD3DXMATRIX@@@Z ; CGraphicThingInstance::GetBoneMatrix
PUBLIC	?GetCompositeBoneMatrix@CGraphicThingInstance@@QAEHKKPAPAUD3DXMATRIX@@@Z ; CGraphicThingInstance::GetCompositeBoneMatrix
PUBLIC	?UpdateTransform@CGraphicThingInstance@@QAEXPAUD3DXMATRIX@@MH@Z ; CGraphicThingInstance::UpdateTransform
PUBLIC	?BuildBoundingSphere@CGraphicThingInstance@@QAEXXZ ; CGraphicThingInstance::BuildBoundingSphere
PUBLIC	?BuildBoundingAABB@CGraphicThingInstance@@QAEXXZ ; CGraphicThingInstance::BuildBoundingAABB
PUBLIC	?CalculateBBox@CGraphicThingInstance@@UAEXXZ	; CGraphicThingInstance::CalculateBBox
PUBLIC	?GetBoundingSphere@CGraphicThingInstance@@UAE_NAAUD3DXVECTOR3@@AAM@Z ; CGraphicThingInstance::GetBoundingSphere
PUBLIC	?GetBoundingAABB@CGraphicThingInstance@@UAE_NAAUD3DXVECTOR3@@0@Z ; CGraphicThingInstance::GetBoundingAABB
PUBLIC	?OnClear@CGraphicThingInstance@@MAEXXZ		; CGraphicThingInstance::OnClear
PUBLIC	?OnDeform@CGraphicThingInstance@@MAEXXZ		; CGraphicThingInstance::OnDeform
PUBLIC	?OnUpdate@CGraphicThingInstance@@MAEXXZ		; CGraphicThingInstance::OnUpdate
PUBLIC	?OnRender@CGraphicThingInstance@@MAEXXZ		; CGraphicThingInstance::OnRender
PUBLIC	?OnBlendRender@CGraphicThingInstance@@MAEXXZ	; CGraphicThingInstance::OnBlendRender
PUBLIC	?OnRenderToShadowMap@CGraphicThingInstance@@MAEXXZ ; CGraphicThingInstance::OnRenderToShadowMap
PUBLIC	?OnRenderShadow@CGraphicThingInstance@@MAEXXZ	; CGraphicThingInstance::OnRenderShadow
PUBLIC	?OnRenderPCBlocker@CGraphicThingInstance@@MAEXXZ ; CGraphicThingInstance::OnRenderPCBlocker
PUBLIC	??1?$vector@PAVCGrannyLODController@@V?$allocator@PAVCGrannyLODController@@@std@@@std@@QAE@XZ ; std::vector<CGrannyLODController *,std::allocator<CGrannyLODController *> >::~vector<CGrannyLODController *,std::allocator<CGrannyLODController *> >
PUBLIC	?_Xlength@?$vector@PAVCGrannyLODController@@V?$allocator@PAVCGrannyLODController@@@std@@@std@@CAXXZ ; std::vector<CGrannyLODController *,std::allocator<CGrannyLODController *> >::_Xlength
PUBLIC	??1?$vector@USModelThingSet@CGraphicThingInstance@@V?$allocator@USModelThingSet@CGraphicThingInstance@@@std@@@std@@QAE@XZ ; std::vector<CGraphicThingInstance::SModelThingSet,std::allocator<CGraphicThingInstance::SModelThingSet> >::~vector<CGraphicThingInstance::SModelThingSet,std::allocator<CGraphicThingInstance::SModelThingSet> >
PUBLIC	?_Xlength@?$vector@USModelThingSet@CGraphicThingInstance@@V?$allocator@USModelThingSet@CGraphicThingInstance@@@std@@@std@@CAXXZ ; std::vector<CGraphicThingInstance::SModelThingSet,std::allocator<CGraphicThingInstance::SModelThingSet> >::_Xlength
PUBLIC	??1?$_Tree@V?$_Tmap_traits@KPAV?$CRef@VCGraphicThing@@@@U?$less@K@std@@V?$allocator@U?$pair@$$CBKPAV?$CRef@VCGraphicThing@@@@@std@@@3@$0A@@std@@@std@@QAE@XZ ; std::_Tree<std::_Tmap_traits<unsigned long,CRef<CGraphicThing> *,std::less<unsigned long>,std::allocator<std::pair<unsigned long const ,CRef<CGraphicThing> *> >,0> >::~_Tree<std::_Tmap_traits<unsigned long,CRef<CGraphicThing> *,std::less<unsigned long>,std::allocator<std::pair<unsigned long const ,CRef<CGraphicThing> *> >,0> >
PUBLIC	?_Insert_node@?$_Tree_val@U?$_Tree_simple_types@U?$pair@$$CBKPAV?$CRef@VCGraphicThing@@@@@std@@@std@@@std@@QAEPAU?$_Tree_node@U?$pair@$$CBKPAV?$CRef@VCGraphicThing@@@@@std@@PAX@2@U?$_Tree_id@PAU?$_Tree_node@U?$pair@$$CBKPAV?$CRef@VCGraphicThing@@@@@std@@PAX@std@@@2@QAU32@@Z ; std::_Tree_val<std::_Tree_simple_types<std::pair<unsigned long const ,CRef<CGraphicThing> *> > >::_Insert_node
PUBLIC	??1?$map@KPAV?$CRef@VCGraphicThing@@@@U?$less@K@std@@V?$allocator@U?$pair@$$CBKPAV?$CRef@VCGraphicThing@@@@@std@@@3@@std@@QAE@XZ ; std::map<unsigned long,CRef<CGraphicThing> *,std::less<unsigned long>,std::allocator<std::pair<unsigned long const ,CRef<CGraphicThing> *> > >::~map<unsigned long,CRef<CGraphicThing> *,std::less<unsigned long>,std::allocator<std::pair<unsigned long const ,CRef<CGraphicThing> *> > >
PUBLIC	?OnUpdateCollisionData@CGraphicThingInstance@@MAEXPBV?$vector@VCStaticCollisionData@@V?$allocator@VCStaticCollisionData@@@std@@@std@@@Z ; CGraphicThingInstance::OnUpdateCollisionData
PUBLIC	?OnUpdateHeighInstance@CGraphicThingInstance@@MAEXPAVCAttributeInstance@@@Z ; CGraphicThingInstance::OnUpdateHeighInstance
PUBLIC	?OnGetObjectHeight@CGraphicThingInstance@@MAE_NMMPAM@Z ; CGraphicThingInstance::OnGetObjectHeight
PUBLIC	?CreateSystem@CGraphicThingInstance@@SAXI@Z	; CGraphicThingInstance::CreateSystem
PUBLIC	?DestroySystem@CGraphicThingInstance@@SAXXZ	; CGraphicThingInstance::DestroySystem
PUBLIC	?New@CGraphicThingInstance@@SAPAV1@XZ		; CGraphicThingInstance::New
PUBLIC	?Delete@CGraphicThingInstance@@SAXPAV1@@Z	; CGraphicThingInstance::Delete
PUBLIC	?HaveBlendThing@CGraphicThingInstance@@QAE_NXZ	; CGraphicThingInstance::HaveBlendThing
PUBLIC	?RecalcAccePositionMatrixFromBoneMatrix@CGraphicThingInstance@@QAEXXZ ; CGraphicThingInstance::RecalcAccePositionMatrixFromBoneMatrix
PUBLIC	??_GCGraphicThingInstance@@UAEPAXI@Z		; CGraphicThingInstance::`scalar deleting destructor'
PUBLIC	??1?$CDynamicPool@VCGraphicThingInstance@@@@UAE@XZ ; CDynamicPool<CGraphicThingInstance>::~CDynamicPool<CGraphicThingInstance>
PUBLIC	?Delete@?$CDynamicPool@VCGraphicThingInstance@@@@KAXPAVCGraphicThingInstance@@@Z ; CDynamicPool<CGraphicThingInstance>::Delete
PUBLIC	?_Reallocate_exactly@?$vector@PAVCGraphicThingInstance@@V?$allocator@PAVCGraphicThingInstance@@@std@@@std@@AAEXI@Z ; std::vector<CGraphicThingInstance *,std::allocator<CGraphicThingInstance *> >::_Reallocate_exactly
PUBLIC	?_Change_array@?$vector@PAVCGraphicThingInstance@@V?$allocator@PAVCGraphicThingInstance@@@std@@@std@@AAEXQAPAVCGraphicThingInstance@@II@Z ; std::vector<CGraphicThingInstance *,std::allocator<CGraphicThingInstance *> >::_Change_array
PUBLIC	?_Xlength@?$vector@PAVCGraphicThingInstance@@V?$allocator@PAVCGraphicThingInstance@@@std@@@std@@CAXXZ ; std::vector<CGraphicThingInstance *,std::allocator<CGraphicThingInstance *> >::_Xlength
PUBLIC	??$_Destroy_range@V?$allocator@USModelThingSet@CGraphicThingInstance@@@std@@@std@@YAXPAUSModelThingSet@CGraphicThingInstance@@QAU12@AAV?$allocator@USModelThingSet@CGraphicThingInstance@@@0@@Z ; std::_Destroy_range<std::allocator<CGraphicThingInstance::SModelThingSet> >
PUBLIC	??$_Find_lower_bound@K@?$_Tree@V?$_Tmap_traits@KPAV?$CRef@VCGraphicThing@@@@U?$less@K@std@@V?$allocator@U?$pair@$$CBKPAV?$CRef@VCGraphicThing@@@@@std@@@3@$0A@@std@@@std@@IBE?AU?$_Tree_find_result@PAU?$_Tree_node@U?$pair@$$CBKPAV?$CRef@VCGraphicThing@@@@@std@@PAX@std@@@1@ABK@Z ; std::_Tree<std::_Tmap_traits<unsigned long,CRef<CGraphicThing> *,std::less<unsigned long>,std::allocator<std::pair<unsigned long const ,CRef<CGraphicThing> *> >,0> >::_Find_lower_bound<unsigned long>
PUBLIC	??1?$_Alloc_construct_ptr@V?$allocator@U?$_Tree_node@U?$pair@$$CBKPAV?$CRef@VCGraphicThing@@@@@std@@PAX@std@@@std@@@std@@QAE@XZ ; std::_Alloc_construct_ptr<std::allocator<std::_Tree_node<std::pair<unsigned long const ,CRef<CGraphicThing> *>,void *> > >::~_Alloc_construct_ptr<std::allocator<std::_Tree_node<std::pair<unsigned long const ,CRef<CGraphicThing> *>,void *> > >
PUBLIC	??$_Erase_tree@V?$allocator@U?$_Tree_node@U?$pair@$$CBKPAV?$CRef@VCGraphicThing@@@@@std@@PAX@std@@@std@@@?$_Tree_val@U?$_Tree_simple_types@U?$pair@$$CBKPAV?$CRef@VCGraphicThing@@@@@std@@@std@@@std@@QAEXAAV?$allocator@U?$_Tree_node@U?$pair@$$CBKPAV?$CRef@VCGraphicThing@@@@@std@@PAX@std@@@1@PAU?$_Tree_node@U?$pair@$$CBKPAV?$CRef@VCGraphicThing@@@@@std@@PAX@1@@Z ; std::_Tree_val<std::_Tree_simple_types<std::pair<unsigned long const ,CRef<CGraphicThing> *> > >::_Erase_tree<std::allocator<std::_Tree_node<std::pair<unsigned long const ,CRef<CGraphicThing> *>,void *> > >
PUBLIC	??$_Resize_reallocate@U_Value_init_tag@std@@@?$vector@USModelThingSet@CGraphicThingInstance@@V?$allocator@USModelThingSet@CGraphicThingInstance@@@std@@@std@@AAEXIABU_Value_init_tag@1@@Z ; std::vector<CGraphicThingInstance::SModelThingSet,std::allocator<CGraphicThingInstance::SModelThingSet> >::_Resize_reallocate<std::_Value_init_tag>
PUBLIC	??$_Uninitialized_value_construct_n@V?$allocator@USModelThingSet@CGraphicThingInstance@@@std@@@std@@YAPAUSModelThingSet@CGraphicThingInstance@@PAU12@IAAV?$allocator@USModelThingSet@CGraphicThingInstance@@@0@@Z ; std::_Uninitialized_value_construct_n<std::allocator<CGraphicThingInstance::SModelThingSet> >
PUBLIC	??$_Emplace_reallocate@ABQAVCGrannyLODController@@@?$vector@PAVCGrannyLODController@@V?$allocator@PAVCGrannyLODController@@@std@@@std@@AAEPAPAVCGrannyLODController@@QAPAV2@ABQAV2@@Z ; std::vector<CGrannyLODController *,std::allocator<CGrannyLODController *> >::_Emplace_reallocate<CGrannyLODController * const &>
PUBLIC	??$_Emplace_reallocate@ABQAV?$CRef@VCGraphicThing@@@@@?$vector@PAV?$CRef@VCGraphicThing@@@@V?$allocator@PAV?$CRef@VCGraphicThing@@@@@std@@@std@@AAEPAPAV?$CRef@VCGraphicThing@@@@QAPAV2@ABQAV2@@Z ; std::vector<CRef<CGraphicThing> *,std::allocator<CRef<CGraphicThing> *> >::_Emplace_reallocate<CRef<CGraphicThing> * const &>
PUBLIC	??$_Emplace_reallocate@ABQAVCGraphicThingInstance@@@?$vector@PAVCGraphicThingInstance@@V?$allocator@PAVCGraphicThingInstance@@@std@@@std@@AAEPAPAVCGraphicThingInstance@@QAPAV2@ABQAV2@@Z ; std::vector<CGraphicThingInstance *,std::allocator<CGraphicThingInstance *> >::_Emplace_reallocate<CGraphicThingInstance * const &>
PUBLIC	??$_Copy_memmove@PAPAVCGraphicThingInstance@@PAPAV1@@std@@YAPAPAVCGraphicThingInstance@@PAPAV1@00@Z ; std::_Copy_memmove<CGraphicThingInstance * *,CGraphicThingInstance * *>
PUBLIC	??$_Allocate_manually_vector_aligned@U_Default_allocate_traits@std@@@std@@YAPAXI@Z ; std::_Allocate_manually_vector_aligned<std::_Default_allocate_traits>
PUBLIC	??$_Copy_memmove@PAPAVCGrannyLODController@@PAPAV1@@std@@YAPAPAVCGrannyLODController@@PAPAV1@00@Z ; std::_Copy_memmove<CGrannyLODController * *,CGrannyLODController * *>
PUBLIC	??$_Copy_memmove@PAPAV?$CRef@VCGraphicThing@@@@PAPAV1@@std@@YAPAPAV?$CRef@VCGraphicThing@@@@PAPAV1@00@Z ; std::_Copy_memmove<CRef<CGraphicThing> * *,CRef<CGraphicThing> * *>
PUBLIC	??_7exception@std@@6B@				; std::exception::`vftable'
PUBLIC	??_C@_0BC@EOODALEL@Unknown?5exception@		; `string'
PUBLIC	??_7bad_alloc@std@@6B@				; std::bad_alloc::`vftable'
PUBLIC	??_7bad_array_new_length@std@@6B@		; std::bad_array_new_length::`vftable'
PUBLIC	??_C@_0BF@KINCDENJ@bad?5array?5new?5length@	; `string'
PUBLIC	__TI3?AVbad_array_new_length@std@@
PUBLIC	__CTA3?AVbad_array_new_length@std@@
PUBLIC	??_R0?AVbad_array_new_length@std@@@8		; std::bad_array_new_length `RTTI Type Descriptor'
PUBLIC	__CT??_R0?AVbad_array_new_length@std@@@8??0bad_array_new_length@std@@QAE@ABV01@@Z12
PUBLIC	??_R0?AVbad_alloc@std@@@8			; std::bad_alloc `RTTI Type Descriptor'
PUBLIC	__CT??_R0?AVbad_alloc@std@@@8??0bad_alloc@std@@QAE@ABV01@@Z12
PUBLIC	??_R0?AVexception@std@@@8			; std::exception `RTTI Type Descriptor'
PUBLIC	__CT??_R0?AVexception@std@@@8??0exception@std@@QAE@ABV01@@Z12
PUBLIC	??_C@_0BB@GCADKGJO@map?1set?5too?5long@		; `string'
PUBLIC	?ms_singleton@?$CSingleton@VCCameraManager@@@@0PAVCCameraManager@@A ; CSingleton<CCameraManager>::ms_singleton
PUBLIC	?ms_singleton@?$CSingleton@VCTimer@@@@0PAVCTimer@@A ; CSingleton<CTimer>::ms_singleton
PUBLIC	?ms_kPool@CGraphicThingInstance@@2V?$CDynamicPool@VCGraphicThingInstance@@@@A ; CGraphicThingInstance::ms_kPool
PUBLIC	??_7CGraphicThingInstance@@6B@			; CGraphicThingInstance::`vftable'
PUBLIC	??_C@_0GI@OAKDPIDM@CGraphicThingInstance?3?3AttachMo@ ; `string'
PUBLIC	??_C@_0FH@FOLHJMIP@CGraphicThingInstance?3?3AttachMo@ ; `string'
PUBLIC	??_C@_0FN@FDKPIIBK@CGraphicThingInstance?3?3SetModel@ ; `string'
PUBLIC	??_C@_0IG@CNBHAOPI@CGraphicThingInstance?3?3SetModel@ ; `string'
PUBLIC	??_C@_0HL@PNAAKLOK@CGraphicThingInstance?3?3SetMater@ ; `string'
PUBLIC	??_C@_0GM@CIGLBIHL@CGraphicThingInstance?3?3SetMater@ ; `string'
PUBLIC	??_C@_0FG@DKLHHMAO@CGraphicThingInstance?3?3SetMater@ ; `string'
PUBLIC	??_C@_0EH@ILONCBFP@CGraphicThingInstance?3?3SetMater@ ; `string'
PUBLIC	??_C@_0FG@IDFCAGB@CGraphicThingInstance?3?3SetSpecu@ ; `string'
PUBLIC	??_C@_0EH@ILOLFLHJ@CGraphicThingInstance?3?3SetSpecu@ ; `string'
PUBLIC	??_C@_0EL@BCFDDCFO@CGraphicThingInstance?3?3Register@ ; `string'
PUBLIC	??_C@_0N@DLOEJLFF@Bip01?5Spine2@		; `string'
PUBLIC	??_C@_0ED@LMOOEEKB@CGraphicThingInstance?3?3UpdateLO@ ; `string'
PUBLIC	??_C@_0BA@FOIKENOD@vector?5too?5long@		; `string'
PUBLIC	??_R4exception@std@@6B@				; std::exception::`RTTI Complete Object Locator'
PUBLIC	??_R3exception@std@@8				; std::exception::`RTTI Class Hierarchy Descriptor'
PUBLIC	??_R2exception@std@@8				; std::exception::`RTTI Base Class Array'
PUBLIC	??_R1A@?0A@EA@exception@std@@8			; std::exception::`RTTI Base Class Descriptor at (0,-1,0,64)'
PUBLIC	??_R4bad_alloc@std@@6B@				; std::bad_alloc::`RTTI Complete Object Locator'
PUBLIC	??_R3bad_alloc@std@@8				; std::bad_alloc::`RTTI Class Hierarchy Descriptor'
PUBLIC	??_R2bad_alloc@std@@8				; std::bad_alloc::`RTTI Base Class Array'
PUBLIC	??_R1A@?0A@EA@bad_alloc@std@@8			; std::bad_alloc::`RTTI Base Class Descriptor at (0,-1,0,64)'
PUBLIC	??_R4bad_array_new_length@std@@6B@		; std::bad_array_new_length::`RTTI Complete Object Locator'
PUBLIC	??_R3bad_array_new_length@std@@8		; std::bad_array_new_length::`RTTI Class Hierarchy Descriptor'
PUBLIC	??_R2bad_array_new_length@std@@8		; std::bad_array_new_length::`RTTI Base Class Array'
PUBLIC	??_R1A@?0A@EA@bad_array_new_length@std@@8	; std::bad_array_new_length::`RTTI Base Class Descriptor at (0,-1,0,64)'
PUBLIC	??_R4CGraphicThingInstance@@6B@			; CGraphicThingInstance::`RTTI Complete Object Locator'
PUBLIC	??_R0?AVCGraphicThingInstance@@@8		; CGraphicThingInstance `RTTI Type Descriptor'
PUBLIC	??_R3CGraphicThingInstance@@8			; CGraphicThingInstance::`RTTI Class Hierarchy Descriptor'
PUBLIC	??_R2CGraphicThingInstance@@8			; CGraphicThingInstance::`RTTI Base Class Array'
PUBLIC	??_R1A@?0A@EA@CGraphicThingInstance@@8		; CGraphicThingInstance::`RTTI Base Class Descriptor at (0,-1,0,64)'
PUBLIC	??_R1A@?0A@EA@CGraphicObjectInstance@@8		; CGraphicObjectInstance::`RTTI Base Class Descriptor at (0,-1,0,64)'
PUBLIC	??_R0?AVCGraphicObjectInstance@@@8		; CGraphicObjectInstance `RTTI Type Descriptor'
PUBLIC	??_R3CGraphicObjectInstance@@8			; CGraphicObjectInstance::`RTTI Class Hierarchy Descriptor'
PUBLIC	??_R2CGraphicObjectInstance@@8			; CGraphicObjectInstance::`RTTI Base Class Array'
PUBLIC	??_R1A@?0A@EA@CGraphicCollisionObject@@8	; CGraphicCollisionObject::`RTTI Base Class Descriptor at (0,-1,0,64)'
PUBLIC	??_R0?AVCGraphicCollisionObject@@@8		; CGraphicCollisionObject `RTTI Type Descriptor'
PUBLIC	??_R3CGraphicCollisionObject@@8			; CGraphicCollisionObject::`RTTI Class Hierarchy Descriptor'
PUBLIC	??_R2CGraphicCollisionObject@@8			; CGraphicCollisionObject::`RTTI Base Class Array'
PUBLIC	??_R1A@?0A@EA@CGraphicBase@@8			; CGraphicBase::`RTTI Base Class Descriptor at (0,-1,0,64)'
PUBLIC	??_R0?AVCGraphicBase@@@8			; CGraphicBase `RTTI Type Descriptor'
PUBLIC	??_R3CGraphicBase@@8				; CGraphicBase::`RTTI Class Hierarchy Descriptor'
PUBLIC	??_R2CGraphicBase@@8				; CGraphicBase::`RTTI Base Class Array'
PUBLIC	__real@00000000
PUBLIC	__real@3e800000
PUBLIC	__real@3f000000
PUBLIC	__real@41900000
PUBLIC	__real@42480000
PUBLIC	__xmm@7fffffff7fffffff7fffffff7fffffff
EXTRN	??2@YAPAXI@Z:PROC				; operator new
EXTRN	??3@YAXPAXI@Z:PROC				; operator delete
EXTRN	_atexit:PROC
EXTRN	___std_terminate:PROC
EXTRN	__invalid_parameter_noinfo_noreturn:PROC
EXTRN	___std_exception_copy:PROC
EXTRN	___std_exception_destroy:PROC
EXTRN	??_Eexception@std@@UAEPAXI@Z:PROC		; std::exception::`vector deleting destructor'
EXTRN	??_Ebad_alloc@std@@UAEPAXI@Z:PROC		; std::bad_alloc::`vector deleting destructor'
EXTRN	??_Ebad_array_new_length@std@@UAEPAXI@Z:PROC	; std::bad_array_new_length::`vector deleting destructor'
EXTRN	?_Xlength_error@std@@YAXPBD@Z:PROC		; std::_Xlength_error
EXTRN	?TraceError@@YAXPBDZZ:PROC			; TraceError
EXTRN	_D3DXVec3TransformCoord@12:PROC
EXTRN	_D3DXVec4Transform@12:PROC
EXTRN	_D3DXMatrixMultiply@12:PROC
EXTRN	_D3DXMatrixTransformation@28:PROC
EXTRN	?GetCurrentCamera@CCameraManager@@QAEPAVCCamera@@XZ:PROC ; CCameraManager::GetCurrentCamera
EXTRN	?GetElapsedSecond@CTimer@@QAEMXZ:PROC		; CTimer::GetElapsedSecond
EXTRN	?AddReference@CReferenceObject@@QAEXXZ:PROC	; CReferenceObject::AddReference
EXTRN	?Release@CReferenceObject@@QAEXXZ:PROC		; CReferenceObject::Release
EXTRN	?Picking@CAttributeInstance@@QAE_NABUD3DXVECTOR3@@0AAM1@Z:PROC ; CAttributeInstance::Picking
EXTRN	?GetHeight@CAttributeInstance@@QAEHMMPAM@Z:PROC	; CAttributeInstance::GetHeight
EXTRN	??0CGraphicObjectInstance@@QAE@XZ:PROC		; CGraphicObjectInstance::CGraphicObjectInstance
EXTRN	??1CGraphicObjectInstance@@UAE@XZ:PROC		; CGraphicObjectInstance::~CGraphicObjectInstance
EXTRN	?GetPosition@CGraphicObjectInstance@@QBEABUD3DXVECTOR3@@XZ:PROC ; CGraphicObjectInstance::GetPosition
EXTRN	?Clear@CGraphicObjectInstance@@QAEXXZ:PROC	; CGraphicObjectInstance::Clear
EXTRN	?isShow@CGraphicObjectInstance@@QAE_NXZ:PROC	; CGraphicObjectInstance::isShow
EXTRN	?GetTransform@CGraphicObjectInstance@@QAEAAUD3DXMATRIX@@XZ:PROC ; CGraphicObjectInstance::GetTransform
EXTRN	?Initialize@CGraphicObjectInstance@@QAEXXZ:PROC	; CGraphicObjectInstance::Initialize
EXTRN	?AddCollision@CGraphicObjectInstance@@QAEXPBVCStaticCollisionData@@PBUD3DXMATRIX@@@Z:PROC ; CGraphicObjectInstance::AddCollision
EXTRN	?SetHeightInstance@CGraphicObjectInstance@@QAEXPAVCAttributeInstance@@@Z:PROC ; CGraphicObjectInstance::SetHeightInstance
EXTRN	?CheckMotionIndex@CGraphicThing@@QBE_NH@Z:PROC	; CGraphicThing::CheckMotionIndex
EXTRN	?GetMotionPointer@CGraphicThing@@QAEPAVCGrannyMotion@@H@Z:PROC ; CGraphicThing::GetMotionPointer
EXTRN	?UpdateTransform@CGrannyModelInstance@@QAEXPAUD3DXMATRIX@@M@Z:PROC ; CGrannyModelInstance::UpdateTransform
EXTRN	?GetBoneMatrixPointer@CGrannyModelInstance@@QBEPBMH@Z:PROC ; CGrannyModelInstance::GetBoneMatrixPointer
EXTRN	?GetCompositeBoneMatrixPointer@CGrannyModelInstance@@QBEPBMH@Z:PROC ; CGrannyModelInstance::GetCompositeBoneMatrixPointer
EXTRN	?GetBoneIndexByName@CGrannyModelInstance@@QBE_NPBDPAH@Z:PROC ; CGrannyModelInstance::GetBoneIndexByName
EXTRN	?GetBoundBox@CGrannyModelInstance@@QAEXPAUD3DXVECTOR3@@0@Z:PROC ; CGrannyModelInstance::GetBoundBox
EXTRN	??0CGrannyLODController@@QAE@XZ:PROC		; CGrannyLODController::CGrannyLODController
EXTRN	?Clear@CGrannyLODController@@QAEXXZ:PROC	; CGrannyLODController::Clear
EXTRN	?CreateDeviceObjects@CGrannyLODController@@QAEXXZ:PROC ; CGrannyLODController::CreateDeviceObjects
EXTRN	?DestroyDeviceObjects@CGrannyLODController@@QAEXXZ:PROC ; CGrannyLODController::DestroyDeviceObjects
EXTRN	?AddModel@CGrannyLODController@@QAEXPAVCGraphicThing@@HPAV1@@Z:PROC ; CGrannyLODController::AddModel
EXTRN	?AttachModelInstance@CGrannyLODController@@QAEXPAV1@PBD@Z:PROC ; CGrannyLODController::AttachModelInstance
EXTRN	?DetachModelInstance@CGrannyLODController@@QAEXPAV1@@Z:PROC ; CGrannyLODController::DetachModelInstance
EXTRN	?SetMaterialImagePointer@CGrannyLODController@@QAEXPBDPAVCGraphicImage@@@Z:PROC ; CGrannyLODController::SetMaterialImagePointer
EXTRN	?SetMaterialData@CGrannyLODController@@QAEXPBDABUSMaterialData@@@Z:PROC ; CGrannyLODController::SetMaterialData
EXTRN	?SetSpecularInfo@CGrannyLODController@@QAEXPBDHM@Z:PROC ; CGrannyLODController::SetSpecularInfo
EXTRN	?RenderWithOneTexture@CGrannyLODController@@QAEXXZ:PROC ; CGrannyLODController::RenderWithOneTexture
EXTRN	?RenderWithTwoTexture@CGrannyLODController@@QAEXXZ:PROC ; CGrannyLODController::RenderWithTwoTexture
EXTRN	?BlendRenderWithOneTexture@CGrannyLODController@@QAEXXZ:PROC ; CGrannyLODController::BlendRenderWithOneTexture
EXTRN	?UpdateLODLevel@CGrannyLODController@@QAEXMM@Z:PROC ; CGrannyLODController::UpdateLODLevel
EXTRN	?UpdateTime@CGrannyLODController@@QAEXM@Z:PROC	; CGrannyLODController::UpdateTime
EXTRN	?Deform@CGrannyLODController@@QAEXPBUD3DXMATRIX@@@Z:PROC ; CGrannyLODController::Deform
EXTRN	?DeformNoSkin@CGrannyLODController@@QAEXPBUD3DXMATRIX@@@Z:PROC ; CGrannyLODController::DeformNoSkin
EXTRN	?DeformAll@CGrannyLODController@@QAEXPBUD3DXMATRIX@@@Z:PROC ; CGrannyLODController::DeformAll
EXTRN	?RenderToShadowMap@CGrannyLODController@@QAEXXZ:PROC ; CGrannyLODController::RenderToShadowMap
EXTRN	?RenderShadow@CGrannyLODController@@QAEXXZ:PROC	; CGrannyLODController::RenderShadow
EXTRN	?ReloadTexture@CGrannyLODController@@QAEXXZ:PROC ; CGrannyLODController::ReloadTexture
EXTRN	?GetBoundBox@CGrannyLODController@@QAEXPAUD3DXVECTOR3@@0@Z:PROC ; CGrannyLODController::GetBoundBox
EXTRN	?Intersect@CGrannyLODController@@QAE_NPBUD3DXMATRIX@@PAM11@Z:PROC ; CGrannyLODController::Intersect
EXTRN	?SetLocalTime@CGrannyLODController@@QAEXM@Z:PROC ; CGrannyLODController::SetLocalTime
EXTRN	?ResetLocalTime@CGrannyLODController@@QAEXXZ:PROC ; CGrannyLODController::ResetLocalTime
EXTRN	?SetMotionPointer@CGrannyLODController@@QAEXPBVCGrannyMotion@@MHM@Z:PROC ; CGrannyLODController::SetMotionPointer
EXTRN	?ChangeMotionPointer@CGrannyLODController@@QAEXPBVCGrannyMotion@@HM@Z:PROC ; CGrannyLODController::ChangeMotionPointer
EXTRN	?SetMotionAtEnd@CGrannyLODController@@QAEXXZ:PROC ; CGrannyLODController::SetMotionAtEnd
EXTRN	?isModelInstance@CGrannyLODController@@QAEHXZ:PROC ; CGrannyLODController::isModelInstance
EXTRN	?GetModelInstance@CGrannyLODController@@QAEPAVCGrannyModelInstance@@XZ:PROC ; CGrannyLODController::GetModelInstance
EXTRN	??_ECGraphicThingInstance@@UAEPAXI@Z:PROC	; CGraphicThingInstance::`vector deleting destructor'
EXTRN	@__security_check_cookie@4:PROC
EXTRN	__CxxThrowException@8:PROC
EXTRN	___CxxFrameHandler3:PROC
EXTRN	__libm_sse2_sqrt_precise:PROC
EXTRN	_memmove:PROC
EXTRN	___security_cookie:DWORD
EXTRN	__fltused:DWORD
;	COMDAT ?ms_singleton@?$CSingleton@VCCameraManager@@@@0PAVCCameraManager@@A
_BSS	SEGMENT
?ms_singleton@?$CSingleton@VCCameraManager@@@@0PAVCCameraManager@@A DD 01H DUP (?) ; CSingleton<CCameraManager>::ms_singleton
_BSS	ENDS
;	COMDAT ?ms_singleton@?$CSingleton@VCTimer@@@@0PAVCTimer@@A
_BSS	SEGMENT
?ms_singleton@?$CSingleton@VCTimer@@@@0PAVCTimer@@A DD 01H DUP (?) ; CSingleton<CTimer>::ms_singleton
_BSS	ENDS
CRT$XCU	SEGMENT
??ms_kPool$initializer$@CGraphicThingInstance@@2P6AXXZA@@3P6AXXZA DD FLAT:??__E?ms_kPool@CGraphicThingInstance@@2V?$CDynamicPool@VCGraphicThingInstance@@@@A@@YAXXZ ; ??ms_kPool$initializer$@CGraphicThingInstance@@2P6AXXZA@@3P6AXXZA
CRT$XCU	ENDS
;	COMDAT __xmm@7fffffff7fffffff7fffffff7fffffff
CONST	SEGMENT
__xmm@7fffffff7fffffff7fffffff7fffffff DB 0ffH, 0ffH, 0ffH, 07fH, 0ffH, 0ffH
	DB	0ffH, 07fH, 0ffH, 0ffH, 0ffH, 07fH, 0ffH, 0ffH, 0ffH, 07fH
CONST	ENDS
;	COMDAT __real@42480000
CONST	SEGMENT
__real@42480000 DD 042480000r			; 50
CONST	ENDS
;	COMDAT __real@41900000
CONST	SEGMENT
__real@41900000 DD 041900000r			; 18
CONST	ENDS
;	COMDAT __real@3f000000
CONST	SEGMENT
__real@3f000000 DD 03f000000r			; 0.5
CONST	ENDS
;	COMDAT __real@3e800000
CONST	SEGMENT
__real@3e800000 DD 03e800000r			; 0.25
CONST	ENDS
;	COMDAT __real@00000000
CONST	SEGMENT
__real@00000000 DD 000000000r			; 0
CONST	ENDS
;	COMDAT ??_R2CGraphicBase@@8
rdata$r	SEGMENT
??_R2CGraphicBase@@8 DD FLAT:??_R1A@?0A@EA@CGraphicBase@@8 ; CGraphicBase::`RTTI Base Class Array'
rdata$r	ENDS
;	COMDAT ??_R3CGraphicBase@@8
rdata$r	SEGMENT
??_R3CGraphicBase@@8 DD 00H				; CGraphicBase::`RTTI Class Hierarchy Descriptor'
	DD	00H
	DD	01H
	DD	FLAT:??_R2CGraphicBase@@8
rdata$r	ENDS
;	COMDAT ??_R0?AVCGraphicBase@@@8
data$rs	SEGMENT
??_R0?AVCGraphicBase@@@8 DD FLAT:??_7type_info@@6B@	; CGraphicBase `RTTI Type Descriptor'
	DD	00H
	DB	'.?AVCGraphicBase@@', 00H
data$rs	ENDS
;	COMDAT ??_R1A@?0A@EA@CGraphicBase@@8
rdata$r	SEGMENT
??_R1A@?0A@EA@CGraphicBase@@8 DD FLAT:??_R0?AVCGraphicBase@@@8 ; CGraphicBase::`RTTI Base Class Descriptor at (0,-1,0,64)'
	DD	00H
	DD	00H
	DD	0ffffffffH
	DD	00H
	DD	040H
	DD	FLAT:??_R3CGraphicBase@@8
rdata$r	ENDS
;	COMDAT ??_R2CGraphicCollisionObject@@8
rdata$r	SEGMENT
??_R2CGraphicCollisionObject@@8 DD FLAT:??_R1A@?0A@EA@CGraphicCollisionObject@@8 ; CGraphicCollisionObject::`RTTI Base Class Array'
	DD	FLAT:??_R1A@?0A@EA@CGraphicBase@@8
rdata$r	ENDS
;	COMDAT ??_R3CGraphicCollisionObject@@8
rdata$r	SEGMENT
??_R3CGraphicCollisionObject@@8 DD 00H			; CGraphicCollisionObject::`RTTI Class Hierarchy Descriptor'
	DD	00H
	DD	02H
	DD	FLAT:??_R2CGraphicCollisionObject@@8
rdata$r	ENDS
;	COMDAT ??_R0?AVCGraphicCollisionObject@@@8
data$rs	SEGMENT
??_R0?AVCGraphicCollisionObject@@@8 DD FLAT:??_7type_info@@6B@ ; CGraphicCollisionObject `RTTI Type Descriptor'
	DD	00H
	DB	'.?AVCGraphicCollisionObject@@', 00H
data$rs	ENDS
;	COMDAT ??_R1A@?0A@EA@CGraphicCollisionObject@@8
rdata$r	SEGMENT
??_R1A@?0A@EA@CGraphicCollisionObject@@8 DD FLAT:??_R0?AVCGraphicCollisionObject@@@8 ; CGraphicCollisionObject::`RTTI Base Class Descriptor at (0,-1,0,64)'
	DD	01H
	DD	00H
	DD	0ffffffffH
	DD	00H
	DD	040H
	DD	FLAT:??_R3CGraphicCollisionObject@@8
rdata$r	ENDS
;	COMDAT ??_R2CGraphicObjectInstance@@8
rdata$r	SEGMENT
??_R2CGraphicObjectInstance@@8 DD FLAT:??_R1A@?0A@EA@CGraphicObjectInstance@@8 ; CGraphicObjectInstance::`RTTI Base Class Array'
	DD	FLAT:??_R1A@?0A@EA@CGraphicCollisionObject@@8
	DD	FLAT:??_R1A@?0A@EA@CGraphicBase@@8
rdata$r	ENDS
;	COMDAT ??_R3CGraphicObjectInstance@@8
rdata$r	SEGMENT
??_R3CGraphicObjectInstance@@8 DD 00H			; CGraphicObjectInstance::`RTTI Class Hierarchy Descriptor'
	DD	00H
	DD	03H
	DD	FLAT:??_R2CGraphicObjectInstance@@8
rdata$r	ENDS
;	COMDAT ??_R0?AVCGraphicObjectInstance@@@8
data$rs	SEGMENT
??_R0?AVCGraphicObjectInstance@@@8 DD FLAT:??_7type_info@@6B@ ; CGraphicObjectInstance `RTTI Type Descriptor'
	DD	00H
	DB	'.?AVCGraphicObjectInstance@@', 00H
data$rs	ENDS
;	COMDAT ??_R1A@?0A@EA@CGraphicObjectInstance@@8
rdata$r	SEGMENT
??_R1A@?0A@EA@CGraphicObjectInstance@@8 DD FLAT:??_R0?AVCGraphicObjectInstance@@@8 ; CGraphicObjectInstance::`RTTI Base Class Descriptor at (0,-1,0,64)'
	DD	02H
	DD	00H
	DD	0ffffffffH
	DD	00H
	DD	040H
	DD	FLAT:??_R3CGraphicObjectInstance@@8
rdata$r	ENDS
;	COMDAT ??_R1A@?0A@EA@CGraphicThingInstance@@8
rdata$r	SEGMENT
??_R1A@?0A@EA@CGraphicThingInstance@@8 DD FLAT:??_R0?AVCGraphicThingInstance@@@8 ; CGraphicThingInstance::`RTTI Base Class Descriptor at (0,-1,0,64)'
	DD	03H
	DD	00H
	DD	0ffffffffH
	DD	00H
	DD	040H
	DD	FLAT:??_R3CGraphicThingInstance@@8
rdata$r	ENDS
;	COMDAT ??_R2CGraphicThingInstance@@8
rdata$r	SEGMENT
??_R2CGraphicThingInstance@@8 DD FLAT:??_R1A@?0A@EA@CGraphicThingInstance@@8 ; CGraphicThingInstance::`RTTI Base Class Array'
	DD	FLAT:??_R1A@?0A@EA@CGraphicObjectInstance@@8
	DD	FLAT:??_R1A@?0A@EA@CGraphicCollisionObject@@8
	DD	FLAT:??_R1A@?0A@EA@CGraphicBase@@8
rdata$r	ENDS
;	COMDAT ??_R3CGraphicThingInstance@@8
rdata$r	SEGMENT
??_R3CGraphicThingInstance@@8 DD 00H			; CGraphicThingInstance::`RTTI Class Hierarchy Descriptor'
	DD	00H
	DD	04H
	DD	FLAT:??_R2CGraphicThingInstance@@8
rdata$r	ENDS
;	COMDAT ??_R0?AVCGraphicThingInstance@@@8
data$rs	SEGMENT
??_R0?AVCGraphicThingInstance@@@8 DD FLAT:??_7type_info@@6B@ ; CGraphicThingInstance `RTTI Type Descriptor'
	DD	00H
	DB	'.?AVCGraphicThingInstance@@', 00H
data$rs	ENDS
;	COMDAT ??_R4CGraphicThingInstance@@6B@
rdata$r	SEGMENT
??_R4CGraphicThingInstance@@6B@ DD 00H			; CGraphicThingInstance::`RTTI Complete Object Locator'
	DD	00H
	DD	00H
	DD	FLAT:??_R0?AVCGraphicThingInstance@@@8
	DD	FLAT:??_R3CGraphicThingInstance@@8
rdata$r	ENDS
;	COMDAT ??_R1A@?0A@EA@bad_array_new_length@std@@8
rdata$r	SEGMENT
??_R1A@?0A@EA@bad_array_new_length@std@@8 DD FLAT:??_R0?AVbad_array_new_length@std@@@8 ; std::bad_array_new_length::`RTTI Base Class Descriptor at (0,-1,0,64)'
	DD	02H
	DD	00H
	DD	0ffffffffH
	DD	00H
	DD	040H
	DD	FLAT:??_R3bad_array_new_length@std@@8
rdata$r	ENDS
;	COMDAT ??_R2bad_array_new_length@std@@8
rdata$r	SEGMENT
??_R2bad_array_new_length@std@@8 DD FLAT:??_R1A@?0A@EA@bad_array_new_length@std@@8 ; std::bad_array_new_length::`RTTI Base Class Array'
	DD	FLAT:??_R1A@?0A@EA@bad_alloc@std@@8
	DD	FLAT:??_R1A@?0A@EA@exception@std@@8
rdata$r	ENDS
;	COMDAT ??_R3bad_array_new_length@std@@8
rdata$r	SEGMENT
??_R3bad_array_new_length@std@@8 DD 00H			; std::bad_array_new_length::`RTTI Class Hierarchy Descriptor'
	DD	00H
	DD	03H
	DD	FLAT:??_R2bad_array_new_length@std@@8
rdata$r	ENDS
;	COMDAT ??_R4bad_array_new_length@std@@6B@
rdata$r	SEGMENT
??_R4bad_array_new_length@std@@6B@ DD 00H		; std::bad_array_new_length::`RTTI Complete Object Locator'
	DD	00H
	DD	00H
	DD	FLAT:??_R0?AVbad_array_new_length@std@@@8
	DD	FLAT:??_R3bad_array_new_length@std@@8
rdata$r	ENDS
;	COMDAT ??_R1A@?0A@EA@bad_alloc@std@@8
rdata$r	SEGMENT
??_R1A@?0A@EA@bad_alloc@std@@8 DD FLAT:??_R0?AVbad_alloc@std@@@8 ; std::bad_alloc::`RTTI Base Class Descriptor at (0,-1,0,64)'
	DD	01H
	DD	00H
	DD	0ffffffffH
	DD	00H
	DD	040H
	DD	FLAT:??_R3bad_alloc@std@@8
rdata$r	ENDS
;	COMDAT ??_R2bad_alloc@std@@8
rdata$r	SEGMENT
??_R2bad_alloc@std@@8 DD FLAT:??_R1A@?0A@EA@bad_alloc@std@@8 ; std::bad_alloc::`RTTI Base Class Array'
	DD	FLAT:??_R1A@?0A@EA@exception@std@@8
rdata$r	ENDS
;	COMDAT ??_R3bad_alloc@std@@8
rdata$r	SEGMENT
??_R3bad_alloc@std@@8 DD 00H				; std::bad_alloc::`RTTI Class Hierarchy Descriptor'
	DD	00H
	DD	02H
	DD	FLAT:??_R2bad_alloc@std@@8
rdata$r	ENDS
;	COMDAT ??_R4bad_alloc@std@@6B@
rdata$r	SEGMENT
??_R4bad_alloc@std@@6B@ DD 00H				; std::bad_alloc::`RTTI Complete Object Locator'
	DD	00H
	DD	00H
	DD	FLAT:??_R0?AVbad_alloc@std@@@8
	DD	FLAT:??_R3bad_alloc@std@@8
rdata$r	ENDS
;	COMDAT ??_R1A@?0A@EA@exception@std@@8
rdata$r	SEGMENT
??_R1A@?0A@EA@exception@std@@8 DD FLAT:??_R0?AVexception@std@@@8 ; std::exception::`RTTI Base Class Descriptor at (0,-1,0,64)'
	DD	00H
	DD	00H
	DD	0ffffffffH
	DD	00H
	DD	040H
	DD	FLAT:??_R3exception@std@@8
rdata$r	ENDS
;	COMDAT ??_R2exception@std@@8
rdata$r	SEGMENT
??_R2exception@std@@8 DD FLAT:??_R1A@?0A@EA@exception@std@@8 ; std::exception::`RTTI Base Class Array'
rdata$r	ENDS
;	COMDAT ??_R3exception@std@@8
rdata$r	SEGMENT
??_R3exception@std@@8 DD 00H				; std::exception::`RTTI Class Hierarchy Descriptor'
	DD	00H
	DD	01H
	DD	FLAT:??_R2exception@std@@8
rdata$r	ENDS
;	COMDAT ??_R4exception@std@@6B@
rdata$r	SEGMENT
??_R4exception@std@@6B@ DD 00H				; std::exception::`RTTI Complete Object Locator'
	DD	00H
	DD	00H
	DD	FLAT:??_R0?AVexception@std@@@8
	DD	FLAT:??_R3exception@std@@8
rdata$r	ENDS
;	COMDAT ??_C@_0BA@FOIKENOD@vector?5too?5long@
CONST	SEGMENT
??_C@_0BA@FOIKENOD@vector?5too?5long@ DB 'vector too long', 00H ; `string'
CONST	ENDS
;	COMDAT ??_C@_0ED@LMOOEEKB@CGraphicThingInstance?3?3UpdateLO@
CONST	SEGMENT
??_C@_0ED@LMOOEEKB@CGraphicThingInstance?3?3UpdateLO@ DB 'CGraphicThingIn'
	DB	'stance::UpdateLODLevel - GetCurrentCamera() == NULL', 00H ; `string'
CONST	ENDS
;	COMDAT ??_C@_0N@DLOEJLFF@Bip01?5Spine2@
CONST	SEGMENT
??_C@_0N@DLOEJLFF@Bip01?5Spine2@ DB 'Bip01 Spine2', 00H	; `string'
CONST	ENDS
;	COMDAT ??_C@_0EL@BCFDDCFO@CGraphicThingInstance?3?3Register@
CONST	SEGMENT
??_C@_0EL@BCFDDCFO@CGraphicThingInstance?3?3Register@ DB 'CGraphicThingIn'
	DB	'stance::RegisterModelThing(iModelThing=%d, pModelThing=%s)', 0aH
	DB	00H						; `string'
CONST	ENDS
;	COMDAT ??_C@_0EH@ILOLFLHJ@CGraphicThingInstance?3?3SetSpecu@
CONST	SEGMENT
??_C@_0EH@ILOLFLHJ@CGraphicThingInstance?3?3SetSpecu@ DB 'CGraphicThingIn'
	DB	'stance::SetSpecularInfo(ePart(%d)) - ePart Data is NULL', 00H ; `string'
CONST	ENDS
;	COMDAT ??_C@_0FG@IDFCAGB@CGraphicThingInstance?3?3SetSpecu@
CONST	SEGMENT
??_C@_0FG@IDFCAGB@CGraphicThingInstance?3?3SetSpecu@ DB 'CGraphicThingIns'
	DB	'tance::SetSpecularInfo(ePart(%d)<uPartCount(%d)) - ePart OUT '
	DB	'OF RANGE', 00H				; `string'
CONST	ENDS
;	COMDAT ??_C@_0EH@ILONCBFP@CGraphicThingInstance?3?3SetMater@
CONST	SEGMENT
??_C@_0EH@ILONCBFP@CGraphicThingInstance?3?3SetMater@ DB 'CGraphicThingIn'
	DB	'stance::SetMaterialData(ePart(%d)) - ePart Data is NULL', 00H ; `string'
CONST	ENDS
;	COMDAT ??_C@_0FG@DKLHHMAO@CGraphicThingInstance?3?3SetMater@
CONST	SEGMENT
??_C@_0FG@DKLHHMAO@CGraphicThingInstance?3?3SetMater@ DB 'CGraphicThingIn'
	DB	'stance::SetMaterialData(ePart(%d)<uPartCount(%d)) - ePart OUT'
	DB	' OF RANGE', 00H				; `string'
CONST	ENDS
;	COMDAT ??_C@_0GM@CIGLBIHL@CGraphicThingInstance?3?3SetMater@
CONST	SEGMENT
??_C@_0GM@CIGLBIHL@CGraphicThingInstance?3?3SetMater@ DB 'CGraphicThingIn'
	DB	'stance::SetMaterialImagePointer(ePart(%d), c_szImageName=%s, '
	DB	'pImage=%s) - ePart Data is NULL', 00H	; `string'
CONST	ENDS
;	COMDAT ??_C@_0HL@PNAAKLOK@CGraphicThingInstance?3?3SetMater@
CONST	SEGMENT
??_C@_0HL@PNAAKLOK@CGraphicThingInstance?3?3SetMater@ DB 'CGraphicThingIn'
	DB	'stance::SetMaterialImagePointer(ePart(%d)<uPartCount(%d), c_s'
	DB	'zImageName=%s, pImage=%s) - ePart OUT OF RANGE', 00H ; `string'
CONST	ENDS
;	COMDAT ??_C@_0IG@CNBHAOPI@CGraphicThingInstance?3?3SetModel@
CONST	SEGMENT
??_C@_0IG@CNBHAOPI@CGraphicThingInstance?3?3SetModel@ DB 'CGraphicThingIn'
	DB	'stance::SetModelInstanceByOtherSkeletonInstance(iSkelInstance'
	DB	'=%d, iDstModelInstance=%d, pModelThing=%d, iSrcModel=%d)', 0aH
	DB	00H						; `string'
CONST	ENDS
;	COMDAT ??_C@_0FN@FDKPIIBK@CGraphicThingInstance?3?3SetModel@
CONST	SEGMENT
??_C@_0FN@FDKPIIBK@CGraphicThingInstance?3?3SetModel@ DB 'CGraphicThingIn'
	DB	'stance::SetModelInstance(iDstModelInstance=%d, pModelThing=%d'
	DB	', iSrcModel=%d)', 0aH, 00H			; `string'
CONST	ENDS
;	COMDAT ??_C@_0FH@FOLHJMIP@CGraphicThingInstance?3?3AttachMo@
CONST	SEGMENT
??_C@_0FH@FOLHJMIP@CGraphicThingInstance?3?3AttachMo@ DB 'CGraphicThingIn'
	DB	'stance::AttachModelInstance(iDstModelInstance=%d, iSrcModelIn'
	DB	'stance=%d)', 00H				; `string'
CONST	ENDS
;	COMDAT ??_C@_0GI@OAKDPIDM@CGraphicThingInstance?3?3AttachMo@
CONST	SEGMENT
??_C@_0GI@OAKDPIDM@CGraphicThingInstance?3?3AttachMo@ DB 'CGraphicThingIn'
	DB	'stance::AttachModelInstance(iDstModelInstance=%d, c_szBoneNam'
	DB	'e=%s, iSrcModelInstance=%d)', 00H		; `string'
CONST	ENDS
;	COMDAT ??_7CGraphicThingInstance@@6B@
CONST	SEGMENT
??_7CGraphicThingInstance@@6B@ DD FLAT:??_R4CGraphicThingInstance@@6B@ ; CGraphicThingInstance::`vftable'
	DD	FLAT:??_ECGraphicThingInstance@@UAEPAXI@Z
	DD	FLAT:?GetType@CGraphicThingInstance@@UBEHXZ
	DD	FLAT:?OnInitialize@CGraphicThingInstance@@UAEXXZ
	DD	FLAT:?GetBoundingSphere@CGraphicThingInstance@@UAE_NAAUD3DXVECTOR3@@AAM@Z
	DD	FLAT:?OnRender@CGraphicThingInstance@@MAEXXZ
	DD	FLAT:?OnBlendRender@CGraphicThingInstance@@MAEXXZ
	DD	FLAT:?OnRenderToShadowMap@CGraphicThingInstance@@MAEXXZ
	DD	FLAT:?OnRenderShadow@CGraphicThingInstance@@MAEXXZ
	DD	FLAT:?OnRenderPCBlocker@CGraphicThingInstance@@MAEXXZ
	DD	FLAT:?OnClear@CGraphicThingInstance@@MAEXXZ
	DD	FLAT:?OnUpdate@CGraphicThingInstance@@MAEXXZ
	DD	FLAT:?OnDeform@CGraphicThingInstance@@MAEXXZ
	DD	FLAT:?OnUpdateCollisionData@CGraphicThingInstance@@MAEXPBV?$vector@VCStaticCollisionData@@V?$allocator@VCStaticCollisionData@@@std@@@std@@@Z
	DD	FLAT:?OnUpdateHeighInstance@CGraphicThingInstance@@MAEXPAVCAttributeInstance@@@Z
	DD	FLAT:?OnGetObjectHeight@CGraphicThingInstance@@MAE_NMMPAM@Z
	DD	FLAT:?CalculateBBox@CGraphicThingInstance@@UAEXXZ
	DD	FLAT:?GetBoundingAABB@CGraphicThingInstance@@UAE_NAAUD3DXVECTOR3@@0@Z
CONST	ENDS
_DATA	SEGMENT
?ms_kPool@CGraphicThingInstance@@2V?$CDynamicPool@VCGraphicThingInstance@@@@A DD FLAT:??_7?$CDynamicPool@VCGraphicThingInstance@@@@6B@ ; CGraphicThingInstance::ms_kPool
	DD	00H
	DD	00H
	DD	00H
	DD	00H
	DD	00H
	DD	00H
	DD	00H
	DD	00H
_DATA	ENDS
;	COMDAT ??_C@_0BB@GCADKGJO@map?1set?5too?5long@
CONST	SEGMENT
??_C@_0BB@GCADKGJO@map?1set?5too?5long@ DB 'map/set too long', 00H ; `string'
CONST	ENDS
;	COMDAT __CT??_R0?AVexception@std@@@8??0exception@std@@QAE@ABV01@@Z12
xdata$x	SEGMENT
__CT??_R0?AVexception@std@@@8??0exception@std@@QAE@ABV01@@Z12 DD 00H
	DD	FLAT:??_R0?AVexception@std@@@8
	DD	00H
	DD	0ffffffffH
	ORG $+4
	DD	0cH
	DD	FLAT:??0exception@std@@QAE@ABV01@@Z
xdata$x	ENDS
;	COMDAT ??_R0?AVexception@std@@@8
data$r	SEGMENT
??_R0?AVexception@std@@@8 DD FLAT:??_7type_info@@6B@	; std::exception `RTTI Type Descriptor'
	DD	00H
	DB	'.?AVexception@std@@', 00H
data$r	ENDS
;	COMDAT __CT??_R0?AVbad_alloc@std@@@8??0bad_alloc@std@@QAE@ABV01@@Z12
xdata$x	SEGMENT
__CT??_R0?AVbad_alloc@std@@@8??0bad_alloc@std@@QAE@ABV01@@Z12 DD 010H
	DD	FLAT:??_R0?AVbad_alloc@std@@@8
	DD	00H
	DD	0ffffffffH
	ORG $+4
	DD	0cH
	DD	FLAT:??0bad_alloc@std@@QAE@ABV01@@Z
xdata$x	ENDS
;	COMDAT ??_R0?AVbad_alloc@std@@@8
data$r	SEGMENT
??_R0?AVbad_alloc@std@@@8 DD FLAT:??_7type_info@@6B@	; std::bad_alloc `RTTI Type Descriptor'
	DD	00H
	DB	'.?AVbad_alloc@std@@', 00H
data$r	ENDS
;	COMDAT __CT??_R0?AVbad_array_new_length@std@@@8??0bad_array_new_length@std@@QAE@ABV01@@Z12
xdata$x	SEGMENT
__CT??_R0?AVbad_array_new_length@std@@@8??0bad_array_new_length@std@@QAE@ABV01@@Z12 DD 00H
	DD	FLAT:??_R0?AVbad_array_new_length@std@@@8
	DD	00H
	DD	0ffffffffH
	ORG $+4
	DD	0cH
	DD	FLAT:??0bad_array_new_length@std@@QAE@ABV01@@Z
xdata$x	ENDS
;	COMDAT ??_R0?AVbad_array_new_length@std@@@8
data$r	SEGMENT
??_R0?AVbad_array_new_length@std@@@8 DD FLAT:??_7type_info@@6B@ ; std::bad_array_new_length `RTTI Type Descriptor'
	DD	00H
	DB	'.?AVbad_array_new_length@std@@', 00H
data$r	ENDS
;	COMDAT __CTA3?AVbad_array_new_length@std@@
xdata$x	SEGMENT
__CTA3?AVbad_array_new_length@std@@ DD 03H
	DD	FLAT:__CT??_R0?AVbad_array_new_length@std@@@8??0bad_array_new_length@std@@QAE@ABV01@@Z12
	DD	FLAT:__CT??_R0?AVbad_alloc@std@@@8??0bad_alloc@std@@QAE@ABV01@@Z12
	DD	FLAT:__CT??_R0?AVexception@std@@@8??0exception@std@@QAE@ABV01@@Z12
xdata$x	ENDS
;	COMDAT __TI3?AVbad_array_new_length@std@@
xdata$x	SEGMENT
__TI3?AVbad_array_new_length@std@@ DD 00H
	DD	FLAT:??1bad_array_new_length@std@@UAE@XZ
	DD	00H
	DD	FLAT:__CTA3?AVbad_array_new_length@std@@
xdata$x	ENDS
;	COMDAT ??_C@_0BF@KINCDENJ@bad?5array?5new?5length@
CONST	SEGMENT
??_C@_0BF@KINCDENJ@bad?5array?5new?5length@ DB 'bad array new length', 00H ; `string'
CONST	ENDS
;	COMDAT ??_7bad_array_new_length@std@@6B@
CONST	SEGMENT
??_7bad_array_new_length@std@@6B@ DD FLAT:??_R4bad_array_new_length@std@@6B@ ; std::bad_array_new_length::`vftable'
	DD	FLAT:??_Ebad_array_new_length@std@@UAEPAXI@Z
	DD	FLAT:?what@exception@std@@UBEPBDXZ
CONST	ENDS
;	COMDAT ??_7bad_alloc@std@@6B@
CONST	SEGMENT
??_7bad_alloc@std@@6B@ DD FLAT:??_R4bad_alloc@std@@6B@	; std::bad_alloc::`vftable'
	DD	FLAT:??_Ebad_alloc@std@@UAEPAXI@Z
	DD	FLAT:?what@exception@std@@UBEPBDXZ
CONST	ENDS
;	COMDAT ??_C@_0BC@EOODALEL@Unknown?5exception@
CONST	SEGMENT
??_C@_0BC@EOODALEL@Unknown?5exception@ DB 'Unknown exception', 00H ; `string'
CONST	ENDS
;	COMDAT ??_7exception@std@@6B@
CONST	SEGMENT
??_7exception@std@@6B@ DD FLAT:??_R4exception@std@@6B@	; std::exception::`vftable'
	DD	FLAT:??_Eexception@std@@UAEPAXI@Z
	DD	FLAT:?what@exception@std@@UBEPBDXZ
CONST	ENDS
;	COMDAT xdata$x
xdata$x	SEGMENT
__unwindtable$??$?0U?$pair@$$CBKPAV?$CRef@VCGraphicThing@@@@@std@@@?$_Tree_temp_node@V?$allocator@U?$_Tree_node@U?$pair@$$CBKPAV?$CRef@VCGraphicThing@@@@@std@@PAX@std@@@std@@@std@@QAE@AAV?$allocator@U?$_Tree_node@U?$pair@$$CBKPAV?$CRef@VCGraphicThing@@@@@std@@PAX@std@@@1@PAU?$_Tree_node@U?$pair@$$CBKPAV?$CRef@VCGraphicThing@@@@@std@@PAX@1@$$QAU?$pair@$$CBKPAV?$CRef@VCGraphicThing@@@@@1@@Z DD 0ffffffffH
	DD	FLAT:__unwindfunclet$??$?0U?$pair@$$CBKPAV?$CRef@VCGraphicThing@@@@@std@@@?$_Tree_temp_node@V?$allocator@U?$_Tree_node@U?$pair@$$CBKPAV?$CRef@VCGraphicThing@@@@@std@@PAX@std@@@std@@@std@@QAE@AAV?$allocator@U?$_Tree_node@U?$pair@$$CBKPAV?$CRef@VCGraphicThing@@@@@std@@PAX@std@@@1@PAU?$_Tree_node@U?$pair@$$CBKPAV?$CRef@VCGraphicThing@@@@@std@@PAX@1@$$QAU?$pair@$$CBKPAV?$CRef@VCGraphicThing@@@@@1@@Z$1
__ehfuncinfo$??$?0U?$pair@$$CBKPAV?$CRef@VCGraphicThing@@@@@std@@@?$_Tree_temp_node@V?$allocator@U?$_Tree_node@U?$pair@$$CBKPAV?$CRef@VCGraphicThing@@@@@std@@PAX@std@@@std@@@std@@QAE@AAV?$allocator@U?$_Tree_node@U?$pair@$$CBKPAV?$CRef@VCGraphicThing@@@@@std@@PAX@std@@@1@PAU?$_Tree_node@U?$pair@$$CBKPAV?$CRef@VCGraphicThing@@@@@std@@PAX@1@$$QAU?$pair@$$CBKPAV?$CRef@VCGraphicThing@@@@@1@@Z DD 019930522H
	DD	01H
	DD	FLAT:__unwindtable$??$?0U?$pair@$$CBKPAV?$CRef@VCGraphicThing@@@@@std@@@?$_Tree_temp_node@V?$allocator@U?$_Tree_node@U?$pair@$$CBKPAV?$CRef@VCGraphicThing@@@@@std@@PAX@std@@@std@@@std@@QAE@AAV?$allocator@U?$_Tree_node@U?$pair@$$CBKPAV?$CRef@VCGraphicThing@@@@@std@@PAX@std@@@1@PAU?$_Tree_node@U?$pair@$$CBKPAV?$CRef@VCGraphicThing@@@@@std@@PAX@1@$$QAU?$pair@$$CBKPAV?$CRef@VCGraphicThing@@@@@1@@Z
	DD	2 DUP(00H)
	DD	2 DUP(00H)
	DD	00H
	DD	01H
xdata$x	ENDS
;	COMDAT xdata$x
xdata$x	SEGMENT
__unwindtable$??$?0ABUpiecewise_construct_t@std@@V?$tuple@ABK@1@V?$tuple@$$V@1@@?$_Tree_temp_node@V?$allocator@U?$_Tree_node@U?$pair@$$CBKPAV?$CRef@VCGraphicThing@@@@@std@@PAX@std@@@std@@@std@@QAE@AAV?$allocator@U?$_Tree_node@U?$pair@$$CBKPAV?$CRef@VCGraphicThing@@@@@std@@PAX@std@@@1@PAU?$_Tree_node@U?$pair@$$CBKPAV?$CRef@VCGraphicThing@@@@@std@@PAX@1@ABUpiecewise_construct_t@1@$$QAV?$tuple@ABK@1@$$QAV?$tuple@$$V@1@@Z DD 0ffffffffH
	DD	FLAT:__unwindfunclet$??$?0ABUpiecewise_construct_t@std@@V?$tuple@ABK@1@V?$tuple@$$V@1@@?$_Tree_temp_node@V?$allocator@U?$_Tree_node@U?$pair@$$CBKPAV?$CRef@VCGraphicThing@@@@@std@@PAX@std@@@std@@@std@@QAE@AAV?$allocator@U?$_Tree_node@U?$pair@$$CBKPAV?$CRef@VCGraphicThing@@@@@std@@PAX@std@@@1@PAU?$_Tree_node@U?$pair@$$CBKPAV?$CRef@VCGraphicThing@@@@@std@@PAX@1@ABUpiecewise_construct_t@1@$$QAV?$tuple@ABK@1@$$QAV?$tuple@$$V@1@@Z$1
__ehfuncinfo$??$?0ABUpiecewise_construct_t@std@@V?$tuple@ABK@1@V?$tuple@$$V@1@@?$_Tree_temp_node@V?$allocator@U?$_Tree_node@U?$pair@$$CBKPAV?$CRef@VCGraphicThing@@@@@std@@PAX@std@@@std@@@std@@QAE@AAV?$allocator@U?$_Tree_node@U?$pair@$$CBKPAV?$CRef@VCGraphicThing@@@@@std@@PAX@std@@@1@PAU?$_Tree_node@U?$pair@$$CBKPAV?$CRef@VCGraphicThing@@@@@std@@PAX@1@ABUpiecewise_construct_t@1@$$QAV?$tuple@ABK@1@$$QAV?$tuple@$$V@1@@Z DD 019930522H
	DD	01H
	DD	FLAT:__unwindtable$??$?0ABUpiecewise_construct_t@std@@V?$tuple@ABK@1@V?$tuple@$$V@1@@?$_Tree_temp_node@V?$allocator@U?$_Tree_node@U?$pair@$$CBKPAV?$CRef@VCGraphicThing@@@@@std@@PAX@std@@@std@@@std@@QAE@AAV?$allocator@U?$_Tree_node@U?$pair@$$CBKPAV?$CRef@VCGraphicThing@@@@@std@@PAX@std@@@1@PAU?$_Tree_node@U?$pair@$$CBKPAV?$CRef@VCGraphicThing@@@@@std@@PAX@1@ABUpiecewise_construct_t@1@$$QAV?$tuple@ABK@1@$$QAV?$tuple@$$V@1@@Z
	DD	2 DUP(00H)
	DD	2 DUP(00H)
	DD	00H
	DD	01H
xdata$x	ENDS
;	COMDAT xdata$x
xdata$x	SEGMENT
__unwindtable$??0?$_Tree_temp_node_alloc@V?$allocator@U?$_Tree_node@U?$pair@$$CBKPAV?$CRef@VCGraphicThing@@@@@std@@PAX@std@@@std@@@std@@QAE@AAV?$allocator@U?$_Tree_node@U?$pair@$$CBKPAV?$CRef@VCGraphicThing@@@@@std@@PAX@std@@@1@@Z DD 0ffffffffH
	DD	FLAT:__unwindfunclet$??0?$_Tree_temp_node_alloc@V?$allocator@U?$_Tree_node@U?$pair@$$CBKPAV?$CRef@VCGraphicThing@@@@@std@@PAX@std@@@std@@@std@@QAE@AAV?$allocator@U?$_Tree_node@U?$pair@$$CBKPAV?$CRef@VCGraphicThing@@@@@std@@PAX@std@@@1@@Z$0
__ehfuncinfo$??0?$_Tree_temp_node_alloc@V?$allocator@U?$_Tree_node@U?$pair@$$CBKPAV?$CRef@VCGraphicThing@@@@@std@@PAX@std@@@std@@@std@@QAE@AAV?$allocator@U?$_Tree_node@U?$pair@$$CBKPAV?$CRef@VCGraphicThing@@@@@std@@PAX@std@@@1@@Z DD 019930522H
	DD	01H
	DD	FLAT:__unwindtable$??0?$_Tree_temp_node_alloc@V?$allocator@U?$_Tree_node@U?$pair@$$CBKPAV?$CRef@VCGraphicThing@@@@@std@@PAX@std@@@std@@@std@@QAE@AAV?$allocator@U?$_Tree_node@U?$pair@$$CBKPAV?$CRef@VCGraphicThing@@@@@std@@PAX@std@@@1@@Z
	DD	2 DUP(00H)
	DD	2 DUP(00H)
	DD	00H
	DD	01H
xdata$x	ENDS
;	COMDAT xdata$x
xdata$x	SEGMENT
__unwindtable$??$_Emplace@U?$pair@$$CBKPAV?$CRef@VCGraphicThing@@@@@std@@@?$_Tree@V?$_Tmap_traits@KPAV?$CRef@VCGraphicThing@@@@U?$less@K@std@@V?$allocator@U?$pair@$$CBKPAV?$CRef@VCGraphicThing@@@@@std@@@3@$0A@@std@@@std@@IAE?AU?$pair@PAU?$_Tree_node@U?$pair@$$CBKPAV?$CRef@VCGraphicThing@@@@@std@@PAX@std@@_N@1@$$QAU?$pair@$$CBKPAV?$CRef@VCGraphicThing@@@@@1@@Z DD 0ffffffffH
	DD	FLAT:__unwindfunclet$??$_Emplace@U?$pair@$$CBKPAV?$CRef@VCGraphicThing@@@@@std@@@?$_Tree@V?$_Tmap_traits@KPAV?$CRef@VCGraphicThing@@@@U?$less@K@std@@V?$allocator@U?$pair@$$CBKPAV?$CRef@VCGraphicThing@@@@@std@@@3@$0A@@std@@@std@@IAE?AU?$pair@PAU?$_Tree_node@U?$pair@$$CBKPAV?$CRef@VCGraphicThing@@@@@std@@PAX@std@@_N@1@$$QAU?$pair@$$CBKPAV?$CRef@VCGraphicThing@@@@@1@@Z$2
__ehfuncinfo$??$_Emplace@U?$pair@$$CBKPAV?$CRef@VCGraphicThing@@@@@std@@@?$_Tree@V?$_Tmap_traits@KPAV?$CRef@VCGraphicThing@@@@U?$less@K@std@@V?$allocator@U?$pair@$$CBKPAV?$CRef@VCGraphicThing@@@@@std@@@3@$0A@@std@@@std@@IAE?AU?$pair@PAU?$_Tree_node@U?$pair@$$CBKPAV?$CRef@VCGraphicThing@@@@@std@@PAX@std@@_N@1@$$QAU?$pair@$$CBKPAV?$CRef@VCGraphicThing@@@@@1@@Z DD 019930522H
	DD	01H
	DD	FLAT:__unwindtable$??$_Emplace@U?$pair@$$CBKPAV?$CRef@VCGraphicThing@@@@@std@@@?$_Tree@V?$_Tmap_traits@KPAV?$CRef@VCGraphicThing@@@@U?$less@K@std@@V?$allocator@U?$pair@$$CBKPAV?$CRef@VCGraphicThing@@@@@std@@@3@$0A@@std@@@std@@IAE?AU?$pair@PAU?$_Tree_node@U?$pair@$$CBKPAV?$CRef@VCGraphicThing@@@@@std@@PAX@std@@_N@1@$$QAU?$pair@$$CBKPAV?$CRef@VCGraphicThing@@@@@1@@Z
	DD	2 DUP(00H)
	DD	2 DUP(00H)
	DD	00H
	DD	01H
xdata$x	ENDS
;	COMDAT xdata$x
xdata$x	SEGMENT
__unwindtable$??$_Try_emplace@ABK$$V@?$map@KPAV?$CRef@VCGraphicThing@@@@U?$less@K@std@@V?$allocator@U?$pair@$$CBKPAV?$CRef@VCGraphicThing@@@@@std@@@3@@std@@AAE?AU?$pair@PAU?$_Tree_node@U?$pair@$$CBKPAV?$CRef@VCGraphicThing@@@@@std@@PAX@std@@_N@1@ABK@Z DD 0ffffffffH
	DD	FLAT:__unwindfunclet$??$_Try_emplace@ABK$$V@?$map@KPAV?$CRef@VCGraphicThing@@@@U?$less@K@std@@V?$allocator@U?$pair@$$CBKPAV?$CRef@VCGraphicThing@@@@@std@@@3@@std@@AAE?AU?$pair@PAU?$_Tree_node@U?$pair@$$CBKPAV?$CRef@VCGraphicThing@@@@@std@@PAX@std@@_N@1@ABK@Z$2
__ehfuncinfo$??$_Try_emplace@ABK$$V@?$map@KPAV?$CRef@VCGraphicThing@@@@U?$less@K@std@@V?$allocator@U?$pair@$$CBKPAV?$CRef@VCGraphicThing@@@@@std@@@3@@std@@AAE?AU?$pair@PAU?$_Tree_node@U?$pair@$$CBKPAV?$CRef@VCGraphicThing@@@@@std@@PAX@std@@_N@1@ABK@Z DD 019930522H
	DD	01H
	DD	FLAT:__unwindtable$??$_Try_emplace@ABK$$V@?$map@KPAV?$CRef@VCGraphicThing@@@@U?$less@K@std@@V?$allocator@U?$pair@$$CBKPAV?$CRef@VCGraphicThing@@@@@std@@@3@@std@@AAE?AU?$pair@PAU?$_Tree_node@U?$pair@$$CBKPAV?$CRef@VCGraphicThing@@@@@std@@PAX@std@@_N@1@ABK@Z
	DD	2 DUP(00H)
	DD	2 DUP(00H)
	DD	00H
	DD	01H
xdata$x	ENDS
;	COMDAT xdata$x
xdata$x	SEGMENT
__unwindtable$??$stl_wipe_second@V?$map@KPAV?$CRef@VCGraphicThing@@@@U?$less@K@std@@V?$allocator@U?$pair@$$CBKPAV?$CRef@VCGraphicThing@@@@@std@@@3@@std@@@@YAXAAV?$map@KPAV?$CRef@VCGraphicThing@@@@U?$less@K@std@@V?$allocator@U?$pair@$$CBKPAV?$CRef@VCGraphicThing@@@@@std@@@3@@std@@@Z DD 0ffffffffH
	DD	FLAT:___std_terminate
__ehfuncinfo$??$stl_wipe_second@V?$map@KPAV?$CRef@VCGraphicThing@@@@U?$less@K@std@@V?$allocator@U?$pair@$$CBKPAV?$CRef@VCGraphicThing@@@@@std@@@3@@std@@@@YAXAAV?$map@KPAV?$CRef@VCGraphicThing@@@@U?$less@K@std@@V?$allocator@U?$pair@$$CBKPAV?$CRef@VCGraphicThing@@@@@std@@@3@@std@@@Z DD 019930522H
	DD	01H
	DD	FLAT:__unwindtable$??$stl_wipe_second@V?$map@KPAV?$CRef@VCGraphicThing@@@@U?$less@K@std@@V?$allocator@U?$pair@$$CBKPAV?$CRef@VCGraphicThing@@@@@std@@@3@@std@@@@YAXAAV?$map@KPAV?$CRef@VCGraphicThing@@@@U?$less@K@std@@V?$allocator@U?$pair@$$CBKPAV?$CRef@VCGraphicThing@@@@@std@@@3@@std@@@Z
	DD	2 DUP(00H)
	DD	2 DUP(00H)
	DD	00H
	DD	01H
xdata$x	ENDS
;	COMDAT xdata$x
xdata$x	SEGMENT
__unwindtable$??$insert@$0A@$0A@@?$_Tree@V?$_Tmap_traits@KPAV?$CRef@VCGraphicThing@@@@U?$less@K@std@@V?$allocator@U?$pair@$$CBKPAV?$CRef@VCGraphicThing@@@@@std@@@3@$0A@@std@@@std@@QAE?AU?$pair@V?$_Tree_iterator@V?$_Tree_val@U?$_Tree_simple_types@U?$pair@$$CBKPAV?$CRef@VCGraphicThing@@@@@std@@@std@@@std@@@std@@_N@1@$$QAU?$pair@$$CBKPAV?$CRef@VCGraphicThing@@@@@1@@Z DD 0ffffffffH
	DD	FLAT:__unwindfunclet$??$insert@$0A@$0A@@?$_Tree@V?$_Tmap_traits@KPAV?$CRef@VCGraphicThing@@@@U?$less@K@std@@V?$allocator@U?$pair@$$CBKPAV?$CRef@VCGraphicThing@@@@@std@@@3@$0A@@std@@@std@@QAE?AU?$pair@V?$_Tree_iterator@V?$_Tree_val@U?$_Tree_simple_types@U?$pair@$$CBKPAV?$CRef@VCGraphicThing@@@@@std@@@std@@@std@@@std@@_N@1@$$QAU?$pair@$$CBKPAV?$CRef@VCGraphicThing@@@@@1@@Z$2
__ehfuncinfo$??$insert@$0A@$0A@@?$_Tree@V?$_Tmap_traits@KPAV?$CRef@VCGraphicThing@@@@U?$less@K@std@@V?$allocator@U?$pair@$$CBKPAV?$CRef@VCGraphicThing@@@@@std@@@3@$0A@@std@@@std@@QAE?AU?$pair@V?$_Tree_iterator@V?$_Tree_val@U?$_Tree_simple_types@U?$pair@$$CBKPAV?$CRef@VCGraphicThing@@@@@std@@@std@@@std@@@std@@_N@1@$$QAU?$pair@$$CBKPAV?$CRef@VCGraphicThing@@@@@1@@Z DD 019930522H
	DD	01H
	DD	FLAT:__unwindtable$??$insert@$0A@$0A@@?$_Tree@V?$_Tmap_traits@KPAV?$CRef@VCGraphicThing@@@@U?$less@K@std@@V?$allocator@U?$pair@$$CBKPAV?$CRef@VCGraphicThing@@@@@std@@@3@$0A@@std@@@std@@QAE?AU?$pair@V?$_Tree_iterator@V?$_Tree_val@U?$_Tree_simple_types@U?$pair@$$CBKPAV?$CRef@VCGraphicThing@@@@@std@@@std@@@std@@@std@@_N@1@$$QAU?$pair@$$CBKPAV?$CRef@VCGraphicThing@@@@@1@@Z
	DD	2 DUP(00H)
	DD	2 DUP(00H)
	DD	00H
	DD	01H
xdata$x	ENDS
;	COMDAT xdata$x
xdata$x	SEGMENT
__unwindtable$?Alloc@?$CDynamicPool@VCGraphicThingInstance@@@@QAEPAVCGraphicThingInstance@@XZ DD 0ffffffffH
	DD	FLAT:__unwindfunclet$?Alloc@?$CDynamicPool@VCGraphicThingInstance@@@@QAEPAVCGraphicThingInstance@@XZ$0
__ehfuncinfo$?Alloc@?$CDynamicPool@VCGraphicThingInstance@@@@QAEPAVCGraphicThingInstance@@XZ DD 019930522H
	DD	01H
	DD	FLAT:__unwindtable$?Alloc@?$CDynamicPool@VCGraphicThingInstance@@@@QAEPAVCGraphicThingInstance@@XZ
	DD	2 DUP(00H)
	DD	2 DUP(00H)
	DD	00H
	DD	01H
xdata$x	ENDS
;	COMDAT xdata$x
xdata$x	SEGMENT
__unwindtable$??$stl_wipe@V?$vector@PAV?$CRef@VCGraphicThing@@@@V?$allocator@PAV?$CRef@VCGraphicThing@@@@@std@@@std@@@@YAXAAV?$vector@PAV?$CRef@VCGraphicThing@@@@V?$allocator@PAV?$CRef@VCGraphicThing@@@@@std@@@std@@@Z DD 0ffffffffH
	DD	FLAT:___std_terminate
__ehfuncinfo$??$stl_wipe@V?$vector@PAV?$CRef@VCGraphicThing@@@@V?$allocator@PAV?$CRef@VCGraphicThing@@@@@std@@@std@@@@YAXAAV?$vector@PAV?$CRef@VCGraphicThing@@@@V?$allocator@PAV?$CRef@VCGraphicThing@@@@@std@@@std@@@Z DD 019930522H
	DD	01H
	DD	FLAT:__unwindtable$??$stl_wipe@V?$vector@PAV?$CRef@VCGraphicThing@@@@V?$allocator@PAV?$CRef@VCGraphicThing@@@@@std@@@std@@@@YAXAAV?$vector@PAV?$CRef@VCGraphicThing@@@@V?$allocator@PAV?$CRef@VCGraphicThing@@@@@std@@@std@@@Z
	DD	2 DUP(00H)
	DD	2 DUP(00H)
	DD	00H
	DD	01H
xdata$x	ENDS
;	COMDAT xdata$x
xdata$x	SEGMENT
__unwindtable$??_G?$CRef@VCGraphicThing@@@@QAEPAXI@Z DD 0ffffffffH
	DD	FLAT:___std_terminate
__ehfuncinfo$??_G?$CRef@VCGraphicThing@@@@QAEPAXI@Z DD 019930522H
	DD	01H
	DD	FLAT:__unwindtable$??_G?$CRef@VCGraphicThing@@@@QAEPAXI@Z
	DD	2 DUP(00H)
	DD	2 DUP(00H)
	DD	00H
	DD	05H
xdata$x	ENDS
;	COMDAT xdata$x
xdata$x	SEGMENT
__ehfuncinfo$??1?$CRef@VCGraphicThing@@@@QAE@XZ DD 019930522H
	DD	00H
	DD	00H
	DD	2 DUP(00H)
	DD	2 DUP(00H)
	DD	00H
	DD	05H
xdata$x	ENDS
;	COMDAT xdata$x
xdata$x	SEGMENT
__unwindtable$?New@CGraphicThingInstance@@SAPAV1@XZ DD 0ffffffffH
	DD	FLAT:__unwindfunclet$?New@CGraphicThingInstance@@SAPAV1@XZ$0
__ehfuncinfo$?New@CGraphicThingInstance@@SAPAV1@XZ DD 019930522H
	DD	01H
	DD	FLAT:__unwindtable$?New@CGraphicThingInstance@@SAPAV1@XZ
	DD	2 DUP(00H)
	DD	2 DUP(00H)
	DD	00H
	DD	01H
xdata$x	ENDS
;	COMDAT xdata$x
xdata$x	SEGMENT
__unwindtable$??A?$map@KPAV?$CRef@VCGraphicThing@@@@U?$less@K@std@@V?$allocator@U?$pair@$$CBKPAV?$CRef@VCGraphicThing@@@@@std@@@3@@std@@QAEAAPAV?$CRef@VCGraphicThing@@@@ABK@Z DD 0ffffffffH
	DD	FLAT:__unwindfunclet$??A?$map@KPAV?$CRef@VCGraphicThing@@@@U?$less@K@std@@V?$allocator@U?$pair@$$CBKPAV?$CRef@VCGraphicThing@@@@@std@@@3@@std@@QAEAAPAV?$CRef@VCGraphicThing@@@@ABK@Z$2
__ehfuncinfo$??A?$map@KPAV?$CRef@VCGraphicThing@@@@U?$less@K@std@@V?$allocator@U?$pair@$$CBKPAV?$CRef@VCGraphicThing@@@@@std@@@3@@std@@QAEAAPAV?$CRef@VCGraphicThing@@@@ABK@Z DD 019930522H
	DD	01H
	DD	FLAT:__unwindtable$??A?$map@KPAV?$CRef@VCGraphicThing@@@@U?$less@K@std@@V?$allocator@U?$pair@$$CBKPAV?$CRef@VCGraphicThing@@@@@std@@@3@@std@@QAEAAPAV?$CRef@VCGraphicThing@@@@ABK@Z
	DD	2 DUP(00H)
	DD	2 DUP(00H)
	DD	00H
	DD	01H
xdata$x	ENDS
;	COMDAT xdata$x
xdata$x	SEGMENT
__unwindtable$?OnClear@CGraphicThingInstance@@MAEXXZ DD 0ffffffffH
	DD	FLAT:___std_terminate
	DD	0ffffffffH
	DD	FLAT:___std_terminate
__ehfuncinfo$?OnClear@CGraphicThingInstance@@MAEXXZ DD 019930522H
	DD	02H
	DD	FLAT:__unwindtable$?OnClear@CGraphicThingInstance@@MAEXXZ
	DD	2 DUP(00H)
	DD	2 DUP(00H)
	DD	00H
	DD	01H
xdata$x	ENDS
;	COMDAT xdata$x
xdata$x	SEGMENT
__unwindtable$?GetBaseThingPtr@CGraphicThingInstance@@QAEPAVCGraphicThing@@XZ DD 0ffffffffH
	DD	FLAT:___std_terminate
__ehfuncinfo$?GetBaseThingPtr@CGraphicThingInstance@@QAEPAVCGraphicThing@@XZ DD 019930522H
	DD	01H
	DD	FLAT:__unwindtable$?GetBaseThingPtr@CGraphicThingInstance@@QAEPAVCGraphicThing@@XZ
	DD	2 DUP(00H)
	DD	2 DUP(00H)
	DD	00H
	DD	01H
xdata$x	ENDS
;	COMDAT xdata$x
xdata$x	SEGMENT
__unwindtable$?RegisterMotionThing@CGraphicThingInstance@@QAEXKPAVCGraphicThing@@@Z DD 0ffffffffH
	DD	FLAT:__unwindfunclet$?RegisterMotionThing@CGraphicThingInstance@@QAEXKPAVCGraphicThing@@@Z$3
__ehfuncinfo$?RegisterMotionThing@CGraphicThingInstance@@QAEXKPAVCGraphicThing@@@Z DD 019930522H
	DD	01H
	DD	FLAT:__unwindtable$?RegisterMotionThing@CGraphicThingInstance@@QAEXKPAVCGraphicThing@@@Z
	DD	2 DUP(00H)
	DD	2 DUP(00H)
	DD	00H
	DD	01H
xdata$x	ENDS
;	COMDAT xdata$x
xdata$x	SEGMENT
__unwindtable$?GetMotionThingPointer@CGraphicThingInstance@@QAE_NKPAPAVCGraphicThing@@@Z DD 0ffffffffH
	DD	FLAT:__unwindfunclet$?GetMotionThingPointer@CGraphicThingInstance@@QAE_NKPAPAVCGraphicThing@@@Z$2
__ehfuncinfo$?GetMotionThingPointer@CGraphicThingInstance@@QAE_NKPAPAVCGraphicThing@@@Z DD 019930522H
	DD	01H
	DD	FLAT:__unwindtable$?GetMotionThingPointer@CGraphicThingInstance@@QAE_NKPAPAVCGraphicThing@@@Z
	DD	2 DUP(00H)
	DD	2 DUP(00H)
	DD	00H
	DD	01H
xdata$x	ENDS
;	COMDAT xdata$x
xdata$x	SEGMENT
__unwindtable$?ReserveModelInstance@CGraphicThingInstance@@QAEXH@Z DD 0ffffffffH
	DD	FLAT:__unwindfunclet$?ReserveModelInstance@CGraphicThingInstance@@QAEXH@Z$0
__ehfuncinfo$?ReserveModelInstance@CGraphicThingInstance@@QAEXH@Z DD 019930522H
	DD	01H
	DD	FLAT:__unwindtable$?ReserveModelInstance@CGraphicThingInstance@@QAEXH@Z
	DD	2 DUP(00H)
	DD	2 DUP(00H)
	DD	00H
	DD	01H
xdata$x	ENDS
;	COMDAT xdata$x
xdata$x	SEGMENT
__unwindtable$??0CGraphicThingInstance@@QAE@XZ DD 0ffffffffH
	DD	FLAT:__unwindfunclet$??0CGraphicThingInstance@@QAE@XZ$0
	DD	00H
	DD	FLAT:__unwindfunclet$??0CGraphicThingInstance@@QAE@XZ$1
	DD	01H
	DD	FLAT:__unwindfunclet$??0CGraphicThingInstance@@QAE@XZ$2
	DD	02H
	DD	FLAT:__unwindfunclet$??0CGraphicThingInstance@@QAE@XZ$3
__ehfuncinfo$??0CGraphicThingInstance@@QAE@XZ DD 019930522H
	DD	04H
	DD	FLAT:__unwindtable$??0CGraphicThingInstance@@QAE@XZ
	DD	2 DUP(00H)
	DD	2 DUP(00H)
	DD	00H
	DD	01H
xdata$x	ENDS
;	COMDAT xdata$x
xdata$x	SEGMENT
__unwindtable$?Clear@SModelThingSet@CGraphicThingInstance@@QAEXXZ DD 0ffffffffH
	DD	FLAT:___std_terminate
__ehfuncinfo$?Clear@SModelThingSet@CGraphicThingInstance@@QAEXXZ DD 019930522H
	DD	01H
	DD	FLAT:__unwindtable$?Clear@SModelThingSet@CGraphicThingInstance@@QAEXXZ
	DD	2 DUP(00H)
	DD	2 DUP(00H)
	DD	00H
	DD	01H
xdata$x	ENDS
; Function compile flags: /Ogtp
; File C:\Program Files\Microsoft Visual Studio\2022\Community\VC\Tools\MSVC\14.34.31933\include\xutility
;	COMDAT ??$_Copy_memmove@PAPAV?$CRef@VCGraphicThing@@@@PAPAV1@@std@@YAPAPAV?$CRef@VCGraphicThing@@@@PAPAV1@00@Z
_TEXT	SEGMENT
__First$ = 8						; size = 4
__Last$ = 12						; size = 4
__Dest$ = 16						; size = 4
??$_Copy_memmove@PAPAV?$CRef@VCGraphicThing@@@@PAPAV1@@std@@YAPAPAV?$CRef@VCGraphicThing@@@@PAPAV1@00@Z PROC ; std::_Copy_memmove<CRef<CGraphicThing> * *,CRef<CGraphicThing> * *>, COMDAT

; 3833 : _OutCtgIt _Copy_memmove(_CtgIt _First, _CtgIt _Last, _OutCtgIt _Dest) {

  00000	55		 push	 ebp
  00001	8b ec		 mov	 ebp, esp

; 3834 :     auto _FirstPtr              = _To_address(_First);
; 3835 :     auto _LastPtr               = _To_address(_Last);
; 3836 :     auto _DestPtr               = _To_address(_Dest);
; 3837 :     const char* const _First_ch = const_cast<const char*>(reinterpret_cast<const volatile char*>(_FirstPtr));
; 3838 :     const char* const _Last_ch  = const_cast<const char*>(reinterpret_cast<const volatile char*>(_LastPtr));
; 3839 :     char* const _Dest_ch        = const_cast<char*>(reinterpret_cast<const volatile char*>(_DestPtr));
; 3840 :     const auto _Count           = static_cast<size_t>(_Last_ch - _First_ch);

  00003	8b 45 08	 mov	 eax, DWORD PTR __First$[ebp]
  00006	56		 push	 esi

; 3841 :     _CSTD memmove(_Dest_ch, _First_ch, _Count);

  00007	8b 75 10	 mov	 esi, DWORD PTR __Dest$[ebp]
  0000a	57		 push	 edi
  0000b	8b 7d 0c	 mov	 edi, DWORD PTR __Last$[ebp]
  0000e	2b f8		 sub	 edi, eax
  00010	57		 push	 edi
  00011	50		 push	 eax
  00012	56		 push	 esi
  00013	e8 00 00 00 00	 call	 _memmove
  00018	83 c4 0c	 add	 esp, 12			; 0000000cH

; 3842 :     if constexpr (is_pointer_v<_OutCtgIt>) {
; 3843 :         return reinterpret_cast<_OutCtgIt>(_Dest_ch + _Count);

  0001b	8d 04 37	 lea	 eax, DWORD PTR [edi+esi]
  0001e	5f		 pop	 edi
  0001f	5e		 pop	 esi

; 3844 :     } else {
; 3845 :         return _Dest + (_LastPtr - _FirstPtr);
; 3846 :     }
; 3847 : }

  00020	5d		 pop	 ebp
  00021	c3		 ret	 0
??$_Copy_memmove@PAPAV?$CRef@VCGraphicThing@@@@PAPAV1@@std@@YAPAPAV?$CRef@VCGraphicThing@@@@PAPAV1@00@Z ENDP ; std::_Copy_memmove<CRef<CGraphicThing> * *,CRef<CGraphicThing> * *>
_TEXT	ENDS
; Function compile flags: /Ogtp
; File C:\Program Files\Microsoft Visual Studio\2022\Community\VC\Tools\MSVC\14.34.31933\include\xutility
;	COMDAT ??$_Copy_memmove@PAPAVCGrannyLODController@@PAPAV1@@std@@YAPAPAVCGrannyLODController@@PAPAV1@00@Z
_TEXT	SEGMENT
__First$ = 8						; size = 4
__Last$ = 12						; size = 4
__Dest$ = 16						; size = 4
??$_Copy_memmove@PAPAVCGrannyLODController@@PAPAV1@@std@@YAPAPAVCGrannyLODController@@PAPAV1@00@Z PROC ; std::_Copy_memmove<CGrannyLODController * *,CGrannyLODController * *>, COMDAT

; 3833 : _OutCtgIt _Copy_memmove(_CtgIt _First, _CtgIt _Last, _OutCtgIt _Dest) {

  00000	55		 push	 ebp
  00001	8b ec		 mov	 ebp, esp

; 3834 :     auto _FirstPtr              = _To_address(_First);
; 3835 :     auto _LastPtr               = _To_address(_Last);
; 3836 :     auto _DestPtr               = _To_address(_Dest);
; 3837 :     const char* const _First_ch = const_cast<const char*>(reinterpret_cast<const volatile char*>(_FirstPtr));
; 3838 :     const char* const _Last_ch  = const_cast<const char*>(reinterpret_cast<const volatile char*>(_LastPtr));
; 3839 :     char* const _Dest_ch        = const_cast<char*>(reinterpret_cast<const volatile char*>(_DestPtr));
; 3840 :     const auto _Count           = static_cast<size_t>(_Last_ch - _First_ch);

  00003	8b 45 08	 mov	 eax, DWORD PTR __First$[ebp]
  00006	56		 push	 esi

; 3841 :     _CSTD memmove(_Dest_ch, _First_ch, _Count);

  00007	8b 75 10	 mov	 esi, DWORD PTR __Dest$[ebp]
  0000a	57		 push	 edi
  0000b	8b 7d 0c	 mov	 edi, DWORD PTR __Last$[ebp]
  0000e	2b f8		 sub	 edi, eax
  00010	57		 push	 edi
  00011	50		 push	 eax
  00012	56		 push	 esi
  00013	e8 00 00 00 00	 call	 _memmove
  00018	83 c4 0c	 add	 esp, 12			; 0000000cH

; 3842 :     if constexpr (is_pointer_v<_OutCtgIt>) {
; 3843 :         return reinterpret_cast<_OutCtgIt>(_Dest_ch + _Count);

  0001b	8d 04 37	 lea	 eax, DWORD PTR [edi+esi]
  0001e	5f		 pop	 edi
  0001f	5e		 pop	 esi

; 3844 :     } else {
; 3845 :         return _Dest + (_LastPtr - _FirstPtr);
; 3846 :     }
; 3847 : }

  00020	5d		 pop	 ebp
  00021	c3		 ret	 0
??$_Copy_memmove@PAPAVCGrannyLODController@@PAPAV1@@std@@YAPAPAVCGrannyLODController@@PAPAV1@00@Z ENDP ; std::_Copy_memmove<CGrannyLODController * *,CGrannyLODController * *>
_TEXT	ENDS
; Function compile flags: /Ogtp
; File C:\Program Files\Microsoft Visual Studio\2022\Community\VC\Tools\MSVC\14.34.31933\include\xmemory
;	COMDAT ??$_Allocate_manually_vector_aligned@U_Default_allocate_traits@std@@@std@@YAPAXI@Z
_TEXT	SEGMENT
__Bytes$ = 8						; size = 4
??$_Allocate_manually_vector_aligned@U_Default_allocate_traits@std@@@std@@YAPAXI@Z PROC ; std::_Allocate_manually_vector_aligned<std::_Default_allocate_traits>, COMDAT

; 127  : __declspec(allocator) void* _Allocate_manually_vector_aligned(const size_t _Bytes) {

  00000	55		 push	 ebp
  00001	8b ec		 mov	 ebp, esp

; 128  :     // allocate _Bytes manually aligned to at least _Big_allocation_alignment
; 129  :     const size_t _Block_size = _Non_user_size + _Bytes;

  00003	8b 45 08	 mov	 eax, DWORD PTR __Bytes$[ebp]
  00006	8d 48 23	 lea	 ecx, DWORD PTR [eax+35]

; 130  :     if (_Block_size <= _Bytes) {

  00009	3b c8		 cmp	 ecx, eax
  0000b	0f 86 00 00 00
	00		 jbe	 ?_Throw_bad_array_new_length@std@@YAXXZ ; std::_Throw_bad_array_new_length

; 77   :         return ::operator new(_Bytes);

  00011	51		 push	 ecx
  00012	e8 00 00 00 00	 call	 ??2@YAPAXI@Z		; operator new

; 131  :         _Throw_bad_array_new_length(); // add overflow
; 132  :     }
; 133  : 
; 134  :     const uintptr_t _Ptr_container = reinterpret_cast<uintptr_t>(_Traits::_Allocate(_Block_size));

  00017	8b c8		 mov	 ecx, eax

; 77   :         return ::operator new(_Bytes);

  00019	83 c4 04	 add	 esp, 4

; 135  :     _STL_VERIFY(_Ptr_container != 0, "invalid argument"); // validate even in release since we're doing p[-1]

  0001c	85 c9		 test	 ecx, ecx
  0001e	74 0b		 je	 SHORT $LN7@Allocate_m

; 136  :     void* const _Ptr = reinterpret_cast<void*>((_Ptr_container + _Non_user_size) & ~(_Big_allocation_alignment - 1));

  00020	8d 41 23	 lea	 eax, DWORD PTR [ecx+35]
  00023	83 e0 e0	 and	 eax, -32		; ffffffe0H

; 137  :     static_cast<uintptr_t*>(_Ptr)[-1] = _Ptr_container;

  00026	89 48 fc	 mov	 DWORD PTR [eax-4], ecx

; 138  : 
; 139  : #ifdef _DEBUG
; 140  :     static_cast<uintptr_t*>(_Ptr)[-2] = _Big_allocation_sentinel;
; 141  : #endif // _DEBUG
; 142  :     return _Ptr;
; 143  : }

  00029	5d		 pop	 ebp
  0002a	c3		 ret	 0
$LN7@Allocate_m:

; 135  :     _STL_VERIFY(_Ptr_container != 0, "invalid argument"); // validate even in release since we're doing p[-1]

  0002b	e9 00 00 00 00	 jmp	 __invalid_parameter_noinfo_noreturn
??$_Allocate_manually_vector_aligned@U_Default_allocate_traits@std@@@std@@YAPAXI@Z ENDP ; std::_Allocate_manually_vector_aligned<std::_Default_allocate_traits>
_TEXT	ENDS
; Function compile flags: /Ogtp
; File C:\Program Files\Microsoft Visual Studio\2022\Community\VC\Tools\MSVC\14.34.31933\include\xutility
;	COMDAT ??$_Copy_memmove@PAPAVCGraphicThingInstance@@PAPAV1@@std@@YAPAPAVCGraphicThingInstance@@PAPAV1@00@Z
_TEXT	SEGMENT
__First$ = 8						; size = 4
__Last$ = 12						; size = 4
__Dest$ = 16						; size = 4
??$_Copy_memmove@PAPAVCGraphicThingInstance@@PAPAV1@@std@@YAPAPAVCGraphicThingInstance@@PAPAV1@00@Z PROC ; std::_Copy_memmove<CGraphicThingInstance * *,CGraphicThingInstance * *>, COMDAT

; 3833 : _OutCtgIt _Copy_memmove(_CtgIt _First, _CtgIt _Last, _OutCtgIt _Dest) {

  00000	55		 push	 ebp
  00001	8b ec		 mov	 ebp, esp

; 3834 :     auto _FirstPtr              = _To_address(_First);
; 3835 :     auto _LastPtr               = _To_address(_Last);
; 3836 :     auto _DestPtr               = _To_address(_Dest);
; 3837 :     const char* const _First_ch = const_cast<const char*>(reinterpret_cast<const volatile char*>(_FirstPtr));
; 3838 :     const char* const _Last_ch  = const_cast<const char*>(reinterpret_cast<const volatile char*>(_LastPtr));
; 3839 :     char* const _Dest_ch        = const_cast<char*>(reinterpret_cast<const volatile char*>(_DestPtr));
; 3840 :     const auto _Count           = static_cast<size_t>(_Last_ch - _First_ch);

  00003	8b 45 08	 mov	 eax, DWORD PTR __First$[ebp]
  00006	56		 push	 esi

; 3841 :     _CSTD memmove(_Dest_ch, _First_ch, _Count);

  00007	8b 75 10	 mov	 esi, DWORD PTR __Dest$[ebp]
  0000a	57		 push	 edi
  0000b	8b 7d 0c	 mov	 edi, DWORD PTR __Last$[ebp]
  0000e	2b f8		 sub	 edi, eax
  00010	57		 push	 edi
  00011	50		 push	 eax
  00012	56		 push	 esi
  00013	e8 00 00 00 00	 call	 _memmove
  00018	83 c4 0c	 add	 esp, 12			; 0000000cH

; 3842 :     if constexpr (is_pointer_v<_OutCtgIt>) {
; 3843 :         return reinterpret_cast<_OutCtgIt>(_Dest_ch + _Count);

  0001b	8d 04 37	 lea	 eax, DWORD PTR [edi+esi]
  0001e	5f		 pop	 edi
  0001f	5e		 pop	 esi

; 3844 :     } else {
; 3845 :         return _Dest + (_LastPtr - _FirstPtr);
; 3846 :     }
; 3847 : }

  00020	5d		 pop	 ebp
  00021	c3		 ret	 0
??$_Copy_memmove@PAPAVCGraphicThingInstance@@PAPAV1@@std@@YAPAPAVCGraphicThingInstance@@PAPAV1@00@Z ENDP ; std::_Copy_memmove<CGraphicThingInstance * *,CGraphicThingInstance * *>
_TEXT	ENDS
; Function compile flags: /Ogtp
; File C:\Program Files\Microsoft Visual Studio\2022\Community\VC\Tools\MSVC\14.34.31933\include\vector
; File C:\Program Files\Microsoft Visual Studio\2022\Community\VC\Tools\MSVC\14.34.31933\include\xmemory
; File C:\Program Files\Microsoft Visual Studio\2022\Community\VC\Tools\MSVC\14.34.31933\include\vector
; File C:\Program Files\Microsoft Visual Studio\2022\Community\VC\Tools\MSVC\14.34.31933\include\xmemory
; File C:\Program Files\Microsoft Visual Studio\2022\Community\VC\Tools\MSVC\14.34.31933\include\vector
; File C:\Program Files\Microsoft Visual Studio\2022\Community\VC\Tools\MSVC\14.34.31933\include\xmemory
; File C:\Program Files\Microsoft Visual Studio\2022\Community\VC\Tools\MSVC\14.34.31933\include\vector
; File C:\Program Files\Microsoft Visual Studio\2022\Community\VC\Tools\MSVC\14.34.31933\include\xmemory
; File C:\Program Files\Microsoft Visual Studio\2022\Community\VC\Tools\MSVC\14.34.31933\include\vector
; File C:\Program Files\Microsoft Visual Studio\2022\Community\VC\Tools\MSVC\14.34.31933\include\xmemory
; File C:\Program Files\Microsoft Visual Studio\2022\Community\VC\Tools\MSVC\14.34.31933\include\vector
; File C:\Program Files\Microsoft Visual Studio\2022\Community\VC\Tools\MSVC\14.34.31933\include\xmemory
; File C:\Program Files\Microsoft Visual Studio\2022\Community\VC\Tools\MSVC\14.34.31933\include\vector
; File C:\Program Files\Microsoft Visual Studio\2022\Community\VC\Tools\MSVC\14.34.31933\include\xmemory
; File C:\Program Files\Microsoft Visual Studio\2022\Community\VC\Tools\MSVC\14.34.31933\include\vector
;	COMDAT ??$_Emplace_reallocate@ABQAVCGraphicThingInstance@@@?$vector@PAVCGraphicThingInstance@@V?$allocator@PAVCGraphicThingInstance@@@std@@@std@@AAEPAPAVCGraphicThingInstance@@QAPAV2@ABQAV2@@Z
_TEXT	SEGMENT
__Newsize$1$ = -8					; size = 4
tv495 = -4						; size = 4
__Whereoff$1$ = -4					; size = 4
__Whereptr$ = 8						; size = 4
_<_Val_0>$ = 12						; size = 4
??$_Emplace_reallocate@ABQAVCGraphicThingInstance@@@?$vector@PAVCGraphicThingInstance@@V?$allocator@PAVCGraphicThingInstance@@@std@@@std@@AAEPAPAVCGraphicThingInstance@@QAPAV2@ABQAV2@@Z PROC ; std::vector<CGraphicThingInstance *,std::allocator<CGraphicThingInstance *> >::_Emplace_reallocate<CGraphicThingInstance * const &>, COMDAT
; _this$ = ecx

; 875  :     _CONSTEXPR20 pointer _Emplace_reallocate(const pointer _Whereptr, _Valty&&... _Val) {

  00000	55		 push	 ebp
  00001	8b ec		 mov	 ebp, esp
  00003	83 ec 08	 sub	 esp, 8

; 876  :         // reallocate and insert by perfectly forwarding _Val at _Whereptr
; 877  :         _Alty& _Al        = _Getal();
; 878  :         auto& _My_data    = _Mypair._Myval2;
; 879  :         pointer& _Myfirst = _My_data._Myfirst;
; 880  :         pointer& _Mylast  = _My_data._Mylast;
; 881  : 
; 882  :         _STL_INTERNAL_CHECK(_Mylast == _My_data._Myend); // check that we have no unused capacity
; 883  : 
; 884  :         const auto _Whereoff = static_cast<size_type>(_Whereptr - _Myfirst);

  00006	8b 45 08	 mov	 eax, DWORD PTR __Whereptr$[ebp]
  00009	53		 push	 ebx
  0000a	8b d9		 mov	 ebx, ecx
  0000c	56		 push	 esi
  0000d	57		 push	 edi
  0000e	8b 13		 mov	 edx, DWORD PTR [ebx]
  00010	2b c2		 sub	 eax, edx
  00012	c1 f8 02	 sar	 eax, 2
  00015	89 45 fc	 mov	 DWORD PTR __Whereoff$1$[ebp], eax

; 885  :         const auto _Oldsize  = static_cast<size_type>(_Mylast - _Myfirst);

  00018	8b 43 04	 mov	 eax, DWORD PTR [ebx+4]
  0001b	2b c2		 sub	 eax, edx
  0001d	c1 f8 02	 sar	 eax, 2

; 886  : 
; 887  :         if (_Oldsize == max_size()) {

  00020	3d ff ff ff 3f	 cmp	 eax, 1073741823		; 3fffffffH
  00025	0f 84 d2 00 00
	00		 je	 $LN66@Emplace_re

; 1942 :         return static_cast<size_type>(_My_data._Myend - _My_data._Myfirst);

  0002b	8b 4b 08	 mov	 ecx, DWORD PTR [ebx+8]

; 889  :         }
; 890  : 
; 891  :         const size_type _Newsize     = _Oldsize + 1;

  0002e	8d 78 01	 lea	 edi, DWORD PTR [eax+1]

; 1942 :         return static_cast<size_type>(_My_data._Myend - _My_data._Myfirst);

  00031	2b ca		 sub	 ecx, edx

; 889  :         }
; 890  : 
; 891  :         const size_type _Newsize     = _Oldsize + 1;

  00033	89 7d f8	 mov	 DWORD PTR __Newsize$1$[ebp], edi

; 1942 :         return static_cast<size_type>(_My_data._Myend - _My_data._Myfirst);

  00036	c1 f9 02	 sar	 ecx, 2

; 2029 :         if (_Oldcapacity > _Max - _Oldcapacity / 2) {

  00039	b8 ff ff ff 3f	 mov	 eax, 1073741823		; 3fffffffH
  0003e	8b d1		 mov	 edx, ecx
  00040	d1 ea		 shr	 edx, 1
  00042	2b c2		 sub	 eax, edx
  00044	3b c8		 cmp	 ecx, eax
  00046	76 17		 jbe	 SHORT $LN12@Emplace_re

; 2030 :             return _Max; // geometric growth would overflow

  00048	b8 fc ff ff ff	 mov	 eax, -4			; fffffffcH
  0004d	be ff ff ff 3f	 mov	 esi, 1073741823		; 3fffffffH
; File C:\Program Files\Microsoft Visual Studio\2022\Community\VC\Tools\MSVC\14.34.31933\include\xmemory

; 229  :             return _Allocate_manually_vector_aligned<_Traits>(_Bytes);

  00052	50		 push	 eax
  00053	e8 00 00 00 00	 call	 ??$_Allocate_manually_vector_aligned@U_Default_allocate_traits@std@@@std@@YAPAXI@Z ; std::_Allocate_manually_vector_aligned<std::_Default_allocate_traits>
  00058	83 c4 04	 add	 esp, 4
  0005b	8b f8		 mov	 edi, eax
  0005d	eb 44		 jmp	 SHORT $LN23@Emplace_re
$LN12@Emplace_re:
; File C:\Program Files\Microsoft Visual Studio\2022\Community\VC\Tools\MSVC\14.34.31933\include\vector

; 2033 :         const size_type _Geometric = _Oldcapacity + _Oldcapacity / 2;

  0005f	8d 04 0a	 lea	 eax, DWORD PTR [edx+ecx]
; File C:\Program Files\Microsoft Visual Studio\2022\Community\VC\Tools\MSVC\14.34.31933\include\xmemory

; 60   :         if (_Count > _Max_possible) {

  00062	8b f7		 mov	 esi, edi
  00064	3b c7		 cmp	 eax, edi
  00066	0f 43 f0	 cmovae	 esi, eax
  00069	81 fe ff ff ff
	3f		 cmp	 esi, 1073741823		; 3fffffffH
  0006f	0f 87 8d 00 00
	00		 ja	 $LN67@Emplace_re

; 62   :         }
; 63   :     }
; 64   : 
; 65   :     return _Count * _Ty_size;

  00075	8d 04 b5 00 00
	00 00		 lea	 eax, DWORD PTR [esi*4]

; 228  :         if (_Bytes >= _Big_allocation_threshold) { // boost the alignment of big allocations to help autovectorization

  0007c	3d 00 10 00 00	 cmp	 eax, 4096		; 00001000H
  00081	72 0d		 jb	 SHORT $LN24@Emplace_re

; 229  :             return _Allocate_manually_vector_aligned<_Traits>(_Bytes);

  00083	50		 push	 eax
  00084	e8 00 00 00 00	 call	 ??$_Allocate_manually_vector_aligned@U_Default_allocate_traits@std@@@std@@YAPAXI@Z ; std::_Allocate_manually_vector_aligned<std::_Default_allocate_traits>
  00089	83 c4 04	 add	 esp, 4
  0008c	8b f8		 mov	 edi, eax
  0008e	eb 13		 jmp	 SHORT $LN23@Emplace_re
$LN24@Emplace_re:

; 230  :         }
; 231  :     }
; 232  : #endif // defined(_M_IX86) || defined(_M_X64)
; 233  : 
; 234  :     if (_Bytes != 0) {

  00090	85 c0		 test	 eax, eax
  00092	74 0d		 je	 SHORT $LN25@Emplace_re

; 77   :         return ::operator new(_Bytes);

  00094	50		 push	 eax
  00095	e8 00 00 00 00	 call	 ??2@YAPAXI@Z		; operator new
  0009a	83 c4 04	 add	 esp, 4

; 235  :         return _Traits::_Allocate(_Bytes);

  0009d	8b f8		 mov	 edi, eax
  0009f	eb 02		 jmp	 SHORT $LN23@Emplace_re
$LN25@Emplace_re:

; 236  :     }
; 237  : 
; 238  :     return nullptr;

  000a1	33 ff		 xor	 edi, edi
$LN23@Emplace_re:
; File C:\Program Files\Microsoft Visual Studio\2022\Community\VC\Tools\MSVC\14.34.31933\include\vector

; 899  :         _Alty_traits::construct(_Al, _Unfancy(_Newvec + _Whereoff), _STD forward<_Valty>(_Val)...);

  000a3	8b 45 fc	 mov	 eax, DWORD PTR __Whereoff$1$[ebp]
  000a6	8d 0c 87	 lea	 ecx, DWORD PTR [edi+eax*4]
  000a9	8b 45 0c	 mov	 eax, DWORD PTR _<_Val_0>$[ebp]
  000ac	89 4d fc	 mov	 DWORD PTR tv495[ebp], ecx
  000af	8b 00		 mov	 eax, DWORD PTR [eax]
  000b1	89 01		 mov	 DWORD PTR [ecx], eax

; 900  :         _Constructed_first = _Newvec + _Whereoff;
; 901  : 
; 902  :         if (_Whereptr == _Mylast) { // at back, provide strong guarantee

  000b3	8b 4b 04	 mov	 ecx, DWORD PTR [ebx+4]
  000b6	8b 45 08	 mov	 eax, DWORD PTR __Whereptr$[ebp]
  000b9	8b 13		 mov	 edx, DWORD PTR [ebx]
  000bb	3b c1		 cmp	 eax, ecx
  000bd	75 04		 jne	 SHORT $LN4@Emplace_re
; File C:\Program Files\Microsoft Visual Studio\2022\Community\VC\Tools\MSVC\14.34.31933\include\xmemory

; 1800 :             _Copy_memmove(_UFirst, _ULast, _Unfancy(_Dest));

  000bf	8b c7		 mov	 eax, edi
; File C:\Program Files\Microsoft Visual Studio\2022\Community\VC\Tools\MSVC\14.34.31933\include\vector

; 908  :         } else { // provide basic guarantee

  000c1	eb 17		 jmp	 SHORT $LN52@Emplace_re
$LN4@Emplace_re:
; File C:\Program Files\Microsoft Visual Studio\2022\Community\VC\Tools\MSVC\14.34.31933\include\xmemory

; 1800 :             _Copy_memmove(_UFirst, _ULast, _Unfancy(_Dest));

  000c3	57		 push	 edi
  000c4	50		 push	 eax
  000c5	52		 push	 edx
  000c6	e8 00 00 00 00	 call	 ??$_Copy_memmove@PAPAVCGraphicThingInstance@@PAPAV1@@std@@YAPAPAVCGraphicThingInstance@@PAPAV1@00@Z ; std::_Copy_memmove<CGraphicThingInstance * *,CGraphicThingInstance * *>
; File C:\Program Files\Microsoft Visual Studio\2022\Community\VC\Tools\MSVC\14.34.31933\include\vector

; 911  :             _Uninitialized_move(_Whereptr, _Mylast, _Newvec + _Whereoff + 1, _Al);

  000cb	8b 45 fc	 mov	 eax, DWORD PTR tv495[ebp]
; File C:\Program Files\Microsoft Visual Studio\2022\Community\VC\Tools\MSVC\14.34.31933\include\xmemory

; 1800 :             _Copy_memmove(_UFirst, _ULast, _Unfancy(_Dest));

  000ce	83 c4 0c	 add	 esp, 12			; 0000000cH
  000d1	8b 55 08	 mov	 edx, DWORD PTR __Whereptr$[ebp]
; File C:\Program Files\Microsoft Visual Studio\2022\Community\VC\Tools\MSVC\14.34.31933\include\vector

; 911  :             _Uninitialized_move(_Whereptr, _Mylast, _Newvec + _Whereoff + 1, _Al);

  000d4	83 c0 04	 add	 eax, 4
; File C:\Program Files\Microsoft Visual Studio\2022\Community\VC\Tools\MSVC\14.34.31933\include\xmemory

; 1800 :             _Copy_memmove(_UFirst, _ULast, _Unfancy(_Dest));

  000d7	8b 4b 04	 mov	 ecx, DWORD PTR [ebx+4]
$LN52@Emplace_re:
; File C:\Program Files\Microsoft Visual Studio\2022\Community\VC\Tools\MSVC\14.34.31933\include\vector

; 911  :             _Uninitialized_move(_Whereptr, _Mylast, _Newvec + _Whereoff + 1, _Al);

  000da	50		 push	 eax
  000db	51		 push	 ecx
  000dc	52		 push	 edx
  000dd	e8 00 00 00 00	 call	 ??$_Copy_memmove@PAPAVCGraphicThingInstance@@PAPAV1@@std@@YAPAPAVCGraphicThingInstance@@PAPAV1@00@Z ; std::_Copy_memmove<CGraphicThingInstance * *,CGraphicThingInstance * *>
  000e2	83 c4 0c	 add	 esp, 12			; 0000000cH

; 912  :         }
; 913  :         _CATCH_ALL
; 914  :         _Destroy_range(_Constructed_first, _Constructed_last, _Al);
; 915  :         _Al.deallocate(_Newvec, _Newcapacity);
; 916  :         _RERAISE;
; 917  :         _CATCH_END
; 918  : 
; 919  :         _Change_array(_Newvec, _Newsize, _Newcapacity);

  000e5	8b cb		 mov	 ecx, ebx
  000e7	56		 push	 esi
  000e8	ff 75 f8	 push	 DWORD PTR __Newsize$1$[ebp]
  000eb	57		 push	 edi
  000ec	e8 00 00 00 00	 call	 ?_Change_array@?$vector@PAVCGraphicThingInstance@@V?$allocator@PAVCGraphicThingInstance@@@std@@@std@@AAEXQAPAVCGraphicThingInstance@@II@Z ; std::vector<CGraphicThingInstance *,std::allocator<CGraphicThingInstance *> >::_Change_array

; 920  :         return _Newvec + _Whereoff;

  000f1	8b 45 fc	 mov	 eax, DWORD PTR tv495[ebp]
  000f4	5f		 pop	 edi
  000f5	5e		 pop	 esi
  000f6	5b		 pop	 ebx

; 921  :     }

  000f7	8b e5		 mov	 esp, ebp
  000f9	5d		 pop	 ebp
  000fa	c2 08 00	 ret	 8
$LN66@Emplace_re:

; 888  :             _Xlength();

  000fd	e8 00 00 00 00	 call	 ?_Xlength@?$vector@PAVCGraphicThingInstance@@V?$allocator@PAVCGraphicThingInstance@@@std@@@std@@CAXXZ ; std::vector<CGraphicThingInstance *,std::allocator<CGraphicThingInstance *> >::_Xlength
$LN67@Emplace_re:
; File C:\Program Files\Microsoft Visual Studio\2022\Community\VC\Tools\MSVC\14.34.31933\include\xmemory

; 61   :             _Throw_bad_array_new_length(); // multiply overflow

  00102	e8 00 00 00 00	 call	 ?_Throw_bad_array_new_length@std@@YAXXZ ; std::_Throw_bad_array_new_length
$LN64@Emplace_re:
  00107	cc		 int	 3
??$_Emplace_reallocate@ABQAVCGraphicThingInstance@@@?$vector@PAVCGraphicThingInstance@@V?$allocator@PAVCGraphicThingInstance@@@std@@@std@@AAEPAPAVCGraphicThingInstance@@QAPAV2@ABQAV2@@Z ENDP ; std::vector<CGraphicThingInstance *,std::allocator<CGraphicThingInstance *> >::_Emplace_reallocate<CGraphicThingInstance * const &>
_TEXT	ENDS
; Function compile flags: /Ogtp
; File C:\Program Files\Microsoft Visual Studio\2022\Community\VC\Tools\MSVC\14.34.31933\include\vector
; File C:\Program Files\Microsoft Visual Studio\2022\Community\VC\Tools\MSVC\14.34.31933\include\xmemory
; File C:\Program Files\Microsoft Visual Studio\2022\Community\VC\Tools\MSVC\14.34.31933\include\vector
; File C:\Program Files\Microsoft Visual Studio\2022\Community\VC\Tools\MSVC\14.34.31933\include\xmemory
; File C:\Program Files\Microsoft Visual Studio\2022\Community\VC\Tools\MSVC\14.34.31933\include\vector
; File C:\Program Files\Microsoft Visual Studio\2022\Community\VC\Tools\MSVC\14.34.31933\include\xmemory
; File C:\Program Files\Microsoft Visual Studio\2022\Community\VC\Tools\MSVC\14.34.31933\include\vector
; File C:\Program Files\Microsoft Visual Studio\2022\Community\VC\Tools\MSVC\14.34.31933\include\xmemory
; File C:\Program Files\Microsoft Visual Studio\2022\Community\VC\Tools\MSVC\14.34.31933\include\vector
; File C:\Program Files\Microsoft Visual Studio\2022\Community\VC\Tools\MSVC\14.34.31933\include\xmemory
; File C:\Program Files\Microsoft Visual Studio\2022\Community\VC\Tools\MSVC\14.34.31933\include\vector
; File C:\Program Files\Microsoft Visual Studio\2022\Community\VC\Tools\MSVC\14.34.31933\include\xmemory
; File C:\Program Files\Microsoft Visual Studio\2022\Community\VC\Tools\MSVC\14.34.31933\include\vector
; File C:\Program Files\Microsoft Visual Studio\2022\Community\VC\Tools\MSVC\14.34.31933\include\xmemory
; File C:\Program Files\Microsoft Visual Studio\2022\Community\VC\Tools\MSVC\14.34.31933\include\vector
; File C:\Program Files\Microsoft Visual Studio\2022\Community\VC\Tools\MSVC\14.34.31933\include\xmemory
; File C:\Program Files\Microsoft Visual Studio\2022\Community\VC\Tools\MSVC\14.34.31933\include\vector
; File C:\Program Files\Microsoft Visual Studio\2022\Community\VC\Tools\MSVC\14.34.31933\include\xmemory
; File C:\Program Files\Microsoft Visual Studio\2022\Community\VC\Tools\MSVC\14.34.31933\include\vector
;	COMDAT ??$_Emplace_reallocate@ABQAV?$CRef@VCGraphicThing@@@@@?$vector@PAV?$CRef@VCGraphicThing@@@@V?$allocator@PAV?$CRef@VCGraphicThing@@@@@std@@@std@@AAEPAPAV?$CRef@VCGraphicThing@@@@QAPAV2@ABQAV2@@Z
_TEXT	SEGMENT
__Newsize$1$ = -12					; size = 4
tv639 = -8						; size = 4
tv622 = -4						; size = 4
__Whereptr$ = 8						; size = 4
_<_Val_0>$ = 12						; size = 4
??$_Emplace_reallocate@ABQAV?$CRef@VCGraphicThing@@@@@?$vector@PAV?$CRef@VCGraphicThing@@@@V?$allocator@PAV?$CRef@VCGraphicThing@@@@@std@@@std@@AAEPAPAV?$CRef@VCGraphicThing@@@@QAPAV2@ABQAV2@@Z PROC ; std::vector<CRef<CGraphicThing> *,std::allocator<CRef<CGraphicThing> *> >::_Emplace_reallocate<CRef<CGraphicThing> * const &>, COMDAT
; _this$ = ecx

; 875  :     _CONSTEXPR20 pointer _Emplace_reallocate(const pointer _Whereptr, _Valty&&... _Val) {

  00000	55		 push	 ebp
  00001	8b ec		 mov	 ebp, esp
  00003	83 ec 0c	 sub	 esp, 12			; 0000000cH
  00006	53		 push	 ebx

; 876  :         // reallocate and insert by perfectly forwarding _Val at _Whereptr
; 877  :         _Alty& _Al        = _Getal();
; 878  :         auto& _My_data    = _Mypair._Myval2;
; 879  :         pointer& _Myfirst = _My_data._Myfirst;
; 880  :         pointer& _Mylast  = _My_data._Mylast;
; 881  : 
; 882  :         _STL_INTERNAL_CHECK(_Mylast == _My_data._Myend); // check that we have no unused capacity
; 883  : 
; 884  :         const auto _Whereoff = static_cast<size_type>(_Whereptr - _Myfirst);

  00007	8b 5d 08	 mov	 ebx, DWORD PTR __Whereptr$[ebp]
  0000a	56		 push	 esi
  0000b	8b f1		 mov	 esi, ecx
  0000d	57		 push	 edi
  0000e	8b 0e		 mov	 ecx, DWORD PTR [esi]
  00010	2b d9		 sub	 ebx, ecx

; 885  :         const auto _Oldsize  = static_cast<size_type>(_Mylast - _Myfirst);

  00012	8b 46 04	 mov	 eax, DWORD PTR [esi+4]
  00015	2b c1		 sub	 eax, ecx
  00017	c1 fb 02	 sar	 ebx, 2
  0001a	c1 f8 02	 sar	 eax, 2

; 886  : 
; 887  :         if (_Oldsize == max_size()) {

  0001d	3d ff ff ff 3f	 cmp	 eax, 1073741823		; 3fffffffH
  00022	0f 84 0f 01 00
	00		 je	 $LN88@Emplace_re

; 1942 :         return static_cast<size_type>(_My_data._Myend - _My_data._Myfirst);

  00028	8b 56 08	 mov	 edx, DWORD PTR [esi+8]

; 889  :         }
; 890  : 
; 891  :         const size_type _Newsize     = _Oldsize + 1;

  0002b	8d 78 01	 lea	 edi, DWORD PTR [eax+1]

; 1942 :         return static_cast<size_type>(_My_data._Myend - _My_data._Myfirst);

  0002e	2b d1		 sub	 edx, ecx

; 889  :         }
; 890  : 
; 891  :         const size_type _Newsize     = _Oldsize + 1;

  00030	89 7d f4	 mov	 DWORD PTR __Newsize$1$[ebp], edi

; 1942 :         return static_cast<size_type>(_My_data._Myend - _My_data._Myfirst);

  00033	c1 fa 02	 sar	 edx, 2

; 2029 :         if (_Oldcapacity > _Max - _Oldcapacity / 2) {

  00036	b8 ff ff ff 3f	 mov	 eax, 1073741823		; 3fffffffH
  0003b	8b ca		 mov	 ecx, edx
  0003d	d1 e9		 shr	 ecx, 1
  0003f	2b c1		 sub	 eax, ecx
  00041	3b d0		 cmp	 edx, eax
  00043	76 15		 jbe	 SHORT $LN12@Emplace_re

; 2030 :             return _Max; // geometric growth would overflow

  00045	b8 fc ff ff ff	 mov	 eax, -4			; fffffffcH
; File C:\Program Files\Microsoft Visual Studio\2022\Community\VC\Tools\MSVC\14.34.31933\include\xmemory

; 229  :             return _Allocate_manually_vector_aligned<_Traits>(_Bytes);

  0004a	50		 push	 eax
; File C:\Program Files\Microsoft Visual Studio\2022\Community\VC\Tools\MSVC\14.34.31933\include\vector

; 2030 :             return _Max; // geometric growth would overflow

  0004b	89 45 f8	 mov	 DWORD PTR tv639[ebp], eax
; File C:\Program Files\Microsoft Visual Studio\2022\Community\VC\Tools\MSVC\14.34.31933\include\xmemory

; 229  :             return _Allocate_manually_vector_aligned<_Traits>(_Bytes);

  0004e	e8 00 00 00 00	 call	 ??$_Allocate_manually_vector_aligned@U_Default_allocate_traits@std@@@std@@YAPAXI@Z ; std::_Allocate_manually_vector_aligned<std::_Default_allocate_traits>
  00053	83 c4 04	 add	 esp, 4
  00056	8b f8		 mov	 edi, eax
  00058	eb 47		 jmp	 SHORT $LN23@Emplace_re
$LN12@Emplace_re:
; File C:\Program Files\Microsoft Visual Studio\2022\Community\VC\Tools\MSVC\14.34.31933\include\vector

; 2033 :         const size_type _Geometric = _Oldcapacity + _Oldcapacity / 2;

  0005a	8d 04 11	 lea	 eax, DWORD PTR [ecx+edx]
; File C:\Program Files\Microsoft Visual Studio\2022\Community\VC\Tools\MSVC\14.34.31933\include\xmemory

; 60   :         if (_Count > _Max_possible) {

  0005d	8b cf		 mov	 ecx, edi
  0005f	3b c7		 cmp	 eax, edi
  00061	0f 43 c8	 cmovae	 ecx, eax
  00064	81 f9 ff ff ff
	3f		 cmp	 ecx, 1073741823		; 3fffffffH
  0006a	0f 87 cc 00 00
	00		 ja	 $LN89@Emplace_re

; 62   :         }
; 63   :     }
; 64   : 
; 65   :     return _Count * _Ty_size;

  00070	8d 04 8d 00 00
	00 00		 lea	 eax, DWORD PTR [ecx*4]
  00077	89 45 f8	 mov	 DWORD PTR tv639[ebp], eax

; 228  :         if (_Bytes >= _Big_allocation_threshold) { // boost the alignment of big allocations to help autovectorization

  0007a	3d 00 10 00 00	 cmp	 eax, 4096		; 00001000H
  0007f	72 0d		 jb	 SHORT $LN24@Emplace_re

; 229  :             return _Allocate_manually_vector_aligned<_Traits>(_Bytes);

  00081	50		 push	 eax
  00082	e8 00 00 00 00	 call	 ??$_Allocate_manually_vector_aligned@U_Default_allocate_traits@std@@@std@@YAPAXI@Z ; std::_Allocate_manually_vector_aligned<std::_Default_allocate_traits>
  00087	83 c4 04	 add	 esp, 4
  0008a	8b f8		 mov	 edi, eax
  0008c	eb 13		 jmp	 SHORT $LN23@Emplace_re
$LN24@Emplace_re:

; 230  :         }
; 231  :     }
; 232  : #endif // defined(_M_IX86) || defined(_M_X64)
; 233  : 
; 234  :     if (_Bytes != 0) {

  0008e	85 c0		 test	 eax, eax
  00090	74 0d		 je	 SHORT $LN25@Emplace_re

; 77   :         return ::operator new(_Bytes);

  00092	50		 push	 eax
  00093	e8 00 00 00 00	 call	 ??2@YAPAXI@Z		; operator new
  00098	83 c4 04	 add	 esp, 4

; 235  :         return _Traits::_Allocate(_Bytes);

  0009b	8b f8		 mov	 edi, eax
  0009d	eb 02		 jmp	 SHORT $LN23@Emplace_re
$LN25@Emplace_re:

; 236  :     }
; 237  : 
; 238  :     return nullptr;

  0009f	33 ff		 xor	 edi, edi
$LN23@Emplace_re:
; File C:\Program Files\Microsoft Visual Studio\2022\Community\VC\Tools\MSVC\14.34.31933\include\vector

; 899  :         _Alty_traits::construct(_Al, _Unfancy(_Newvec + _Whereoff), _STD forward<_Valty>(_Val)...);

  000a1	8b 45 0c	 mov	 eax, DWORD PTR _<_Val_0>$[ebp]
  000a4	8d 0c 9f	 lea	 ecx, DWORD PTR [edi+ebx*4]

; 900  :         _Constructed_first = _Newvec + _Whereoff;
; 901  : 
; 902  :         if (_Whereptr == _Mylast) { // at back, provide strong guarantee

  000a7	8b 5d 08	 mov	 ebx, DWORD PTR __Whereptr$[ebp]
  000aa	89 4d fc	 mov	 DWORD PTR tv622[ebp], ecx
  000ad	8b 00		 mov	 eax, DWORD PTR [eax]
  000af	89 01		 mov	 DWORD PTR [ecx], eax
  000b1	8b 46 04	 mov	 eax, DWORD PTR [esi+4]
  000b4	8b 0e		 mov	 ecx, DWORD PTR [esi]
  000b6	3b d8		 cmp	 ebx, eax
  000b8	75 07		 jne	 SHORT $LN4@Emplace_re

; 908  :         } else { // provide basic guarantee

  000ba	8b 5d fc	 mov	 ebx, DWORD PTR tv622[ebp]
; File C:\Program Files\Microsoft Visual Studio\2022\Community\VC\Tools\MSVC\14.34.31933\include\xmemory

; 1800 :             _Copy_memmove(_UFirst, _ULast, _Unfancy(_Dest));

  000bd	8b d7		 mov	 edx, edi
; File C:\Program Files\Microsoft Visual Studio\2022\Community\VC\Tools\MSVC\14.34.31933\include\vector

; 908  :         } else { // provide basic guarantee

  000bf	eb 16		 jmp	 SHORT $LN73@Emplace_re
$LN4@Emplace_re:
; File C:\Program Files\Microsoft Visual Studio\2022\Community\VC\Tools\MSVC\14.34.31933\include\xmemory

; 1800 :             _Copy_memmove(_UFirst, _ULast, _Unfancy(_Dest));

  000c1	57		 push	 edi
  000c2	53		 push	 ebx
  000c3	51		 push	 ecx
  000c4	e8 00 00 00 00	 call	 ??$_Copy_memmove@PAPAV?$CRef@VCGraphicThing@@@@PAPAV1@@std@@YAPAPAV?$CRef@VCGraphicThing@@@@PAPAV1@00@Z ; std::_Copy_memmove<CRef<CGraphicThing> * *,CRef<CGraphicThing> * *>
  000c9	8b 46 04	 mov	 eax, DWORD PTR [esi+4]
  000cc	8b cb		 mov	 ecx, ebx
; File C:\Program Files\Microsoft Visual Studio\2022\Community\VC\Tools\MSVC\14.34.31933\include\vector

; 911  :             _Uninitialized_move(_Whereptr, _Mylast, _Newvec + _Whereoff + 1, _Al);

  000ce	8b 5d fc	 mov	 ebx, DWORD PTR tv622[ebp]
; File C:\Program Files\Microsoft Visual Studio\2022\Community\VC\Tools\MSVC\14.34.31933\include\xmemory

; 1800 :             _Copy_memmove(_UFirst, _ULast, _Unfancy(_Dest));

  000d1	83 c4 0c	 add	 esp, 12			; 0000000cH
; File C:\Program Files\Microsoft Visual Studio\2022\Community\VC\Tools\MSVC\14.34.31933\include\vector

; 911  :             _Uninitialized_move(_Whereptr, _Mylast, _Newvec + _Whereoff + 1, _Al);

  000d4	8d 53 04	 lea	 edx, DWORD PTR [ebx+4]
$LN73@Emplace_re:
  000d7	52		 push	 edx
  000d8	50		 push	 eax
  000d9	51		 push	 ecx
  000da	e8 00 00 00 00	 call	 ??$_Copy_memmove@PAPAV?$CRef@VCGraphicThing@@@@PAPAV1@@std@@YAPAPAV?$CRef@VCGraphicThing@@@@PAPAV1@00@Z ; std::_Copy_memmove<CRef<CGraphicThing> * *,CRef<CGraphicThing> * *>

; 2086 :         if (_Myfirst) { // destroy and deallocate old array

  000df	8b 06		 mov	 eax, DWORD PTR [esi]

; 911  :             _Uninitialized_move(_Whereptr, _Mylast, _Newvec + _Whereoff + 1, _Al);

  000e1	83 c4 0c	 add	 esp, 12			; 0000000cH

; 2086 :         if (_Myfirst) { // destroy and deallocate old array

  000e4	85 c0		 test	 eax, eax
  000e6	74 2c		 je	 SHORT $LN37@Emplace_re

; 2087 :             _Destroy_range(_Myfirst, _Mylast, _Al);
; 2088 :             _ASAN_VECTOR_REMOVE;
; 2089 :             _Al.deallocate(_Myfirst, static_cast<size_type>(_Myend - _Myfirst));

  000e8	8b 4e 08	 mov	 ecx, DWORD PTR [esi+8]
  000eb	2b c8		 sub	 ecx, eax
; File C:\Program Files\Microsoft Visual Studio\2022\Community\VC\Tools\MSVC\14.34.31933\include\xmemory

; 830  :         _Deallocate<_New_alignof<_Ty>>(_Ptr, sizeof(_Ty) * _Count);

  000ed	83 e1 fc	 and	 ecx, -4			; fffffffcH

; 251  :         if (_Bytes >= _Big_allocation_threshold) { // boost the alignment of big allocations to help autovectorization

  000f0	81 f9 00 10 00
	00		 cmp	 ecx, 4096		; 00001000H
  000f6	72 12		 jb	 SHORT $LN47@Emplace_re

; 150  :     const uintptr_t _Ptr_container   = _Ptr_user[-1];

  000f8	8b 50 fc	 mov	 edx, DWORD PTR [eax-4]
  000fb	83 c1 23	 add	 ecx, 35			; 00000023H

; 151  : 
; 152  :     // If the following asserts, it likely means that we are performing
; 153  :     // an aligned delete on memory coming from an unaligned allocation.
; 154  :     _STL_ASSERT(_Ptr_user[-2] == _Big_allocation_sentinel, "invalid argument");
; 155  : 
; 156  :     // Extra paranoia on aligned allocation/deallocation; ensure _Ptr_container is
; 157  :     // in range [_Min_back_shift, _Non_user_size]
; 158  : #ifdef _DEBUG
; 159  :     constexpr uintptr_t _Min_back_shift = 2 * sizeof(void*);
; 160  : #else // ^^^ _DEBUG ^^^ // vvv !_DEBUG vvv
; 161  :     constexpr uintptr_t _Min_back_shift = sizeof(void*);
; 162  : #endif // _DEBUG
; 163  :     const uintptr_t _Back_shift = reinterpret_cast<uintptr_t>(_Ptr) - _Ptr_container;

  000fe	2b c2		 sub	 eax, edx

; 164  :     _STL_VERIFY(_Back_shift >= _Min_back_shift && _Back_shift <= _Non_user_size, "invalid argument");

  00100	83 c0 fc	 add	 eax, -4			; fffffffcH
  00103	83 f8 1f	 cmp	 eax, 31			; 0000001fH
  00106	77 2a		 ja	 SHORT $LN44@Emplace_re

; 165  :     _Ptr = reinterpret_cast<void*>(_Ptr_container);

  00108	8b c2		 mov	 eax, edx
$LN47@Emplace_re:

; 255  :         ::operator delete(_Ptr, _Bytes);

  0010a	51		 push	 ecx
  0010b	50		 push	 eax
  0010c	e8 00 00 00 00	 call	 ??3@YAXPAXI@Z		; operator delete
  00111	83 c4 08	 add	 esp, 8
$LN37@Emplace_re:
; File C:\Program Files\Microsoft Visual Studio\2022\Community\VC\Tools\MSVC\14.34.31933\include\vector

; 2093 :         _Mylast  = _Newvec + _Newsize;

  00114	8b 45 f4	 mov	 eax, DWORD PTR __Newsize$1$[ebp]
  00117	89 3e		 mov	 DWORD PTR [esi], edi
  00119	8d 0c 87	 lea	 ecx, DWORD PTR [edi+eax*4]

; 912  :         }
; 913  :         _CATCH_ALL
; 914  :         _Destroy_range(_Constructed_first, _Constructed_last, _Al);
; 915  :         _Al.deallocate(_Newvec, _Newcapacity);
; 916  :         _RERAISE;
; 917  :         _CATCH_END
; 918  : 
; 919  :         _Change_array(_Newvec, _Newsize, _Newcapacity);
; 920  :         return _Newvec + _Whereoff;

  0011c	8b c3		 mov	 eax, ebx

; 2093 :         _Mylast  = _Newvec + _Newsize;

  0011e	89 4e 04	 mov	 DWORD PTR [esi+4], ecx

; 2094 :         _Myend   = _Newvec + _Newcapacity;

  00121	8b 4d f8	 mov	 ecx, DWORD PTR tv639[ebp]
  00124	03 cf		 add	 ecx, edi

; 912  :         }
; 913  :         _CATCH_ALL
; 914  :         _Destroy_range(_Constructed_first, _Constructed_last, _Al);
; 915  :         _Al.deallocate(_Newvec, _Newcapacity);
; 916  :         _RERAISE;
; 917  :         _CATCH_END
; 918  : 
; 919  :         _Change_array(_Newvec, _Newsize, _Newcapacity);
; 920  :         return _Newvec + _Whereoff;

  00126	5f		 pop	 edi

; 2094 :         _Myend   = _Newvec + _Newcapacity;

  00127	89 4e 08	 mov	 DWORD PTR [esi+8], ecx

; 912  :         }
; 913  :         _CATCH_ALL
; 914  :         _Destroy_range(_Constructed_first, _Constructed_last, _Al);
; 915  :         _Al.deallocate(_Newvec, _Newcapacity);
; 916  :         _RERAISE;
; 917  :         _CATCH_END
; 918  : 
; 919  :         _Change_array(_Newvec, _Newsize, _Newcapacity);
; 920  :         return _Newvec + _Whereoff;

  0012a	5e		 pop	 esi
  0012b	5b		 pop	 ebx

; 921  :     }

  0012c	8b e5		 mov	 esp, ebp
  0012e	5d		 pop	 ebp
  0012f	c2 08 00	 ret	 8
$LN44@Emplace_re:
; File C:\Program Files\Microsoft Visual Studio\2022\Community\VC\Tools\MSVC\14.34.31933\include\xmemory

; 164  :     _STL_VERIFY(_Back_shift >= _Min_back_shift && _Back_shift <= _Non_user_size, "invalid argument");

  00132	e8 00 00 00 00	 call	 __invalid_parameter_noinfo_noreturn
$LN88@Emplace_re:
; File C:\Program Files\Microsoft Visual Studio\2022\Community\VC\Tools\MSVC\14.34.31933\include\vector

; 888  :             _Xlength();

  00137	e8 00 00 00 00	 call	 ?_Xlength@?$vector@PAV?$CRef@VCGraphicThing@@@@V?$allocator@PAV?$CRef@VCGraphicThing@@@@@std@@@std@@CAXXZ ; std::vector<CRef<CGraphicThing> *,std::allocator<CRef<CGraphicThing> *> >::_Xlength
$LN89@Emplace_re:
; File C:\Program Files\Microsoft Visual Studio\2022\Community\VC\Tools\MSVC\14.34.31933\include\xmemory

; 61   :             _Throw_bad_array_new_length(); // multiply overflow

  0013c	e8 00 00 00 00	 call	 ?_Throw_bad_array_new_length@std@@YAXXZ ; std::_Throw_bad_array_new_length
$LN86@Emplace_re:
  00141	cc		 int	 3
??$_Emplace_reallocate@ABQAV?$CRef@VCGraphicThing@@@@@?$vector@PAV?$CRef@VCGraphicThing@@@@V?$allocator@PAV?$CRef@VCGraphicThing@@@@@std@@@std@@AAEPAPAV?$CRef@VCGraphicThing@@@@QAPAV2@ABQAV2@@Z ENDP ; std::vector<CRef<CGraphicThing> *,std::allocator<CRef<CGraphicThing> *> >::_Emplace_reallocate<CRef<CGraphicThing> * const &>
_TEXT	ENDS
; Function compile flags: /Ogtp
; File C:\Program Files\Microsoft Visual Studio\2022\Community\VC\Tools\MSVC\14.34.31933\include\vector
; File C:\Program Files\Microsoft Visual Studio\2022\Community\VC\Tools\MSVC\14.34.31933\include\xmemory
; File C:\Program Files\Microsoft Visual Studio\2022\Community\VC\Tools\MSVC\14.34.31933\include\vector
; File C:\Program Files\Microsoft Visual Studio\2022\Community\VC\Tools\MSVC\14.34.31933\include\xmemory
; File C:\Program Files\Microsoft Visual Studio\2022\Community\VC\Tools\MSVC\14.34.31933\include\vector
; File C:\Program Files\Microsoft Visual Studio\2022\Community\VC\Tools\MSVC\14.34.31933\include\xmemory
; File C:\Program Files\Microsoft Visual Studio\2022\Community\VC\Tools\MSVC\14.34.31933\include\vector
; File C:\Program Files\Microsoft Visual Studio\2022\Community\VC\Tools\MSVC\14.34.31933\include\xmemory
; File C:\Program Files\Microsoft Visual Studio\2022\Community\VC\Tools\MSVC\14.34.31933\include\vector
; File C:\Program Files\Microsoft Visual Studio\2022\Community\VC\Tools\MSVC\14.34.31933\include\xmemory
; File C:\Program Files\Microsoft Visual Studio\2022\Community\VC\Tools\MSVC\14.34.31933\include\vector
; File C:\Program Files\Microsoft Visual Studio\2022\Community\VC\Tools\MSVC\14.34.31933\include\xmemory
; File C:\Program Files\Microsoft Visual Studio\2022\Community\VC\Tools\MSVC\14.34.31933\include\vector
; File C:\Program Files\Microsoft Visual Studio\2022\Community\VC\Tools\MSVC\14.34.31933\include\xmemory
; File C:\Program Files\Microsoft Visual Studio\2022\Community\VC\Tools\MSVC\14.34.31933\include\vector
; File C:\Program Files\Microsoft Visual Studio\2022\Community\VC\Tools\MSVC\14.34.31933\include\xmemory
; File C:\Program Files\Microsoft Visual Studio\2022\Community\VC\Tools\MSVC\14.34.31933\include\vector
; File C:\Program Files\Microsoft Visual Studio\2022\Community\VC\Tools\MSVC\14.34.31933\include\xmemory
; File C:\Program Files\Microsoft Visual Studio\2022\Community\VC\Tools\MSVC\14.34.31933\include\vector
;	COMDAT ??$_Emplace_reallocate@ABQAVCGrannyLODController@@@?$vector@PAVCGrannyLODController@@V?$allocator@PAVCGrannyLODController@@@std@@@std@@AAEPAPAVCGrannyLODController@@QAPAV2@ABQAV2@@Z
_TEXT	SEGMENT
__Newsize$1$ = -12					; size = 4
tv639 = -8						; size = 4
tv622 = -4						; size = 4
__Whereptr$ = 8						; size = 4
_<_Val_0>$ = 12						; size = 4
??$_Emplace_reallocate@ABQAVCGrannyLODController@@@?$vector@PAVCGrannyLODController@@V?$allocator@PAVCGrannyLODController@@@std@@@std@@AAEPAPAVCGrannyLODController@@QAPAV2@ABQAV2@@Z PROC ; std::vector<CGrannyLODController *,std::allocator<CGrannyLODController *> >::_Emplace_reallocate<CGrannyLODController * const &>, COMDAT
; _this$ = ecx

; 875  :     _CONSTEXPR20 pointer _Emplace_reallocate(const pointer _Whereptr, _Valty&&... _Val) {

  00000	55		 push	 ebp
  00001	8b ec		 mov	 ebp, esp
  00003	83 ec 0c	 sub	 esp, 12			; 0000000cH
  00006	53		 push	 ebx

; 876  :         // reallocate and insert by perfectly forwarding _Val at _Whereptr
; 877  :         _Alty& _Al        = _Getal();
; 878  :         auto& _My_data    = _Mypair._Myval2;
; 879  :         pointer& _Myfirst = _My_data._Myfirst;
; 880  :         pointer& _Mylast  = _My_data._Mylast;
; 881  : 
; 882  :         _STL_INTERNAL_CHECK(_Mylast == _My_data._Myend); // check that we have no unused capacity
; 883  : 
; 884  :         const auto _Whereoff = static_cast<size_type>(_Whereptr - _Myfirst);

  00007	8b 5d 08	 mov	 ebx, DWORD PTR __Whereptr$[ebp]
  0000a	56		 push	 esi
  0000b	8b f1		 mov	 esi, ecx
  0000d	57		 push	 edi
  0000e	8b 0e		 mov	 ecx, DWORD PTR [esi]
  00010	2b d9		 sub	 ebx, ecx

; 885  :         const auto _Oldsize  = static_cast<size_type>(_Mylast - _Myfirst);

  00012	8b 46 04	 mov	 eax, DWORD PTR [esi+4]
  00015	2b c1		 sub	 eax, ecx
  00017	c1 fb 02	 sar	 ebx, 2
  0001a	c1 f8 02	 sar	 eax, 2

; 886  : 
; 887  :         if (_Oldsize == max_size()) {

  0001d	3d ff ff ff 3f	 cmp	 eax, 1073741823		; 3fffffffH
  00022	0f 84 0f 01 00
	00		 je	 $LN88@Emplace_re

; 1942 :         return static_cast<size_type>(_My_data._Myend - _My_data._Myfirst);

  00028	8b 56 08	 mov	 edx, DWORD PTR [esi+8]

; 889  :         }
; 890  : 
; 891  :         const size_type _Newsize     = _Oldsize + 1;

  0002b	8d 78 01	 lea	 edi, DWORD PTR [eax+1]

; 1942 :         return static_cast<size_type>(_My_data._Myend - _My_data._Myfirst);

  0002e	2b d1		 sub	 edx, ecx

; 889  :         }
; 890  : 
; 891  :         const size_type _Newsize     = _Oldsize + 1;

  00030	89 7d f4	 mov	 DWORD PTR __Newsize$1$[ebp], edi

; 1942 :         return static_cast<size_type>(_My_data._Myend - _My_data._Myfirst);

  00033	c1 fa 02	 sar	 edx, 2

; 2029 :         if (_Oldcapacity > _Max - _Oldcapacity / 2) {

  00036	b8 ff ff ff 3f	 mov	 eax, 1073741823		; 3fffffffH
  0003b	8b ca		 mov	 ecx, edx
  0003d	d1 e9		 shr	 ecx, 1
  0003f	2b c1		 sub	 eax, ecx
  00041	3b d0		 cmp	 edx, eax
  00043	76 15		 jbe	 SHORT $LN12@Emplace_re

; 2030 :             return _Max; // geometric growth would overflow

  00045	b8 fc ff ff ff	 mov	 eax, -4			; fffffffcH
; File C:\Program Files\Microsoft Visual Studio\2022\Community\VC\Tools\MSVC\14.34.31933\include\xmemory

; 229  :             return _Allocate_manually_vector_aligned<_Traits>(_Bytes);

  0004a	50		 push	 eax
; File C:\Program Files\Microsoft Visual Studio\2022\Community\VC\Tools\MSVC\14.34.31933\include\vector

; 2030 :             return _Max; // geometric growth would overflow

  0004b	89 45 f8	 mov	 DWORD PTR tv639[ebp], eax
; File C:\Program Files\Microsoft Visual Studio\2022\Community\VC\Tools\MSVC\14.34.31933\include\xmemory

; 229  :             return _Allocate_manually_vector_aligned<_Traits>(_Bytes);

  0004e	e8 00 00 00 00	 call	 ??$_Allocate_manually_vector_aligned@U_Default_allocate_traits@std@@@std@@YAPAXI@Z ; std::_Allocate_manually_vector_aligned<std::_Default_allocate_traits>
  00053	83 c4 04	 add	 esp, 4
  00056	8b f8		 mov	 edi, eax
  00058	eb 47		 jmp	 SHORT $LN23@Emplace_re
$LN12@Emplace_re:
; File C:\Program Files\Microsoft Visual Studio\2022\Community\VC\Tools\MSVC\14.34.31933\include\vector

; 2033 :         const size_type _Geometric = _Oldcapacity + _Oldcapacity / 2;

  0005a	8d 04 11	 lea	 eax, DWORD PTR [ecx+edx]
; File C:\Program Files\Microsoft Visual Studio\2022\Community\VC\Tools\MSVC\14.34.31933\include\xmemory

; 60   :         if (_Count > _Max_possible) {

  0005d	8b cf		 mov	 ecx, edi
  0005f	3b c7		 cmp	 eax, edi
  00061	0f 43 c8	 cmovae	 ecx, eax
  00064	81 f9 ff ff ff
	3f		 cmp	 ecx, 1073741823		; 3fffffffH
  0006a	0f 87 cc 00 00
	00		 ja	 $LN89@Emplace_re

; 62   :         }
; 63   :     }
; 64   : 
; 65   :     return _Count * _Ty_size;

  00070	8d 04 8d 00 00
	00 00		 lea	 eax, DWORD PTR [ecx*4]
  00077	89 45 f8	 mov	 DWORD PTR tv639[ebp], eax

; 228  :         if (_Bytes >= _Big_allocation_threshold) { // boost the alignment of big allocations to help autovectorization

  0007a	3d 00 10 00 00	 cmp	 eax, 4096		; 00001000H
  0007f	72 0d		 jb	 SHORT $LN24@Emplace_re

; 229  :             return _Allocate_manually_vector_aligned<_Traits>(_Bytes);

  00081	50		 push	 eax
  00082	e8 00 00 00 00	 call	 ??$_Allocate_manually_vector_aligned@U_Default_allocate_traits@std@@@std@@YAPAXI@Z ; std::_Allocate_manually_vector_aligned<std::_Default_allocate_traits>
  00087	83 c4 04	 add	 esp, 4
  0008a	8b f8		 mov	 edi, eax
  0008c	eb 13		 jmp	 SHORT $LN23@Emplace_re
$LN24@Emplace_re:

; 230  :         }
; 231  :     }
; 232  : #endif // defined(_M_IX86) || defined(_M_X64)
; 233  : 
; 234  :     if (_Bytes != 0) {

  0008e	85 c0		 test	 eax, eax
  00090	74 0d		 je	 SHORT $LN25@Emplace_re

; 77   :         return ::operator new(_Bytes);

  00092	50		 push	 eax
  00093	e8 00 00 00 00	 call	 ??2@YAPAXI@Z		; operator new
  00098	83 c4 04	 add	 esp, 4

; 235  :         return _Traits::_Allocate(_Bytes);

  0009b	8b f8		 mov	 edi, eax
  0009d	eb 02		 jmp	 SHORT $LN23@Emplace_re
$LN25@Emplace_re:

; 236  :     }
; 237  : 
; 238  :     return nullptr;

  0009f	33 ff		 xor	 edi, edi
$LN23@Emplace_re:
; File C:\Program Files\Microsoft Visual Studio\2022\Community\VC\Tools\MSVC\14.34.31933\include\vector

; 899  :         _Alty_traits::construct(_Al, _Unfancy(_Newvec + _Whereoff), _STD forward<_Valty>(_Val)...);

  000a1	8b 45 0c	 mov	 eax, DWORD PTR _<_Val_0>$[ebp]
  000a4	8d 0c 9f	 lea	 ecx, DWORD PTR [edi+ebx*4]

; 900  :         _Constructed_first = _Newvec + _Whereoff;
; 901  : 
; 902  :         if (_Whereptr == _Mylast) { // at back, provide strong guarantee

  000a7	8b 5d 08	 mov	 ebx, DWORD PTR __Whereptr$[ebp]
  000aa	89 4d fc	 mov	 DWORD PTR tv622[ebp], ecx
  000ad	8b 00		 mov	 eax, DWORD PTR [eax]
  000af	89 01		 mov	 DWORD PTR [ecx], eax
  000b1	8b 46 04	 mov	 eax, DWORD PTR [esi+4]
  000b4	8b 0e		 mov	 ecx, DWORD PTR [esi]
  000b6	3b d8		 cmp	 ebx, eax
  000b8	75 07		 jne	 SHORT $LN4@Emplace_re

; 908  :         } else { // provide basic guarantee

  000ba	8b 5d fc	 mov	 ebx, DWORD PTR tv622[ebp]
; File C:\Program Files\Microsoft Visual Studio\2022\Community\VC\Tools\MSVC\14.34.31933\include\xmemory

; 1800 :             _Copy_memmove(_UFirst, _ULast, _Unfancy(_Dest));

  000bd	8b d7		 mov	 edx, edi
; File C:\Program Files\Microsoft Visual Studio\2022\Community\VC\Tools\MSVC\14.34.31933\include\vector

; 908  :         } else { // provide basic guarantee

  000bf	eb 16		 jmp	 SHORT $LN73@Emplace_re
$LN4@Emplace_re:
; File C:\Program Files\Microsoft Visual Studio\2022\Community\VC\Tools\MSVC\14.34.31933\include\xmemory

; 1800 :             _Copy_memmove(_UFirst, _ULast, _Unfancy(_Dest));

  000c1	57		 push	 edi
  000c2	53		 push	 ebx
  000c3	51		 push	 ecx
  000c4	e8 00 00 00 00	 call	 ??$_Copy_memmove@PAPAVCGrannyLODController@@PAPAV1@@std@@YAPAPAVCGrannyLODController@@PAPAV1@00@Z ; std::_Copy_memmove<CGrannyLODController * *,CGrannyLODController * *>
  000c9	8b 46 04	 mov	 eax, DWORD PTR [esi+4]
  000cc	8b cb		 mov	 ecx, ebx
; File C:\Program Files\Microsoft Visual Studio\2022\Community\VC\Tools\MSVC\14.34.31933\include\vector

; 911  :             _Uninitialized_move(_Whereptr, _Mylast, _Newvec + _Whereoff + 1, _Al);

  000ce	8b 5d fc	 mov	 ebx, DWORD PTR tv622[ebp]
; File C:\Program Files\Microsoft Visual Studio\2022\Community\VC\Tools\MSVC\14.34.31933\include\xmemory

; 1800 :             _Copy_memmove(_UFirst, _ULast, _Unfancy(_Dest));

  000d1	83 c4 0c	 add	 esp, 12			; 0000000cH
; File C:\Program Files\Microsoft Visual Studio\2022\Community\VC\Tools\MSVC\14.34.31933\include\vector

; 911  :             _Uninitialized_move(_Whereptr, _Mylast, _Newvec + _Whereoff + 1, _Al);

  000d4	8d 53 04	 lea	 edx, DWORD PTR [ebx+4]
$LN73@Emplace_re:
  000d7	52		 push	 edx
  000d8	50		 push	 eax
  000d9	51		 push	 ecx
  000da	e8 00 00 00 00	 call	 ??$_Copy_memmove@PAPAVCGrannyLODController@@PAPAV1@@std@@YAPAPAVCGrannyLODController@@PAPAV1@00@Z ; std::_Copy_memmove<CGrannyLODController * *,CGrannyLODController * *>

; 2086 :         if (_Myfirst) { // destroy and deallocate old array

  000df	8b 06		 mov	 eax, DWORD PTR [esi]

; 911  :             _Uninitialized_move(_Whereptr, _Mylast, _Newvec + _Whereoff + 1, _Al);

  000e1	83 c4 0c	 add	 esp, 12			; 0000000cH

; 2086 :         if (_Myfirst) { // destroy and deallocate old array

  000e4	85 c0		 test	 eax, eax
  000e6	74 2c		 je	 SHORT $LN37@Emplace_re

; 2087 :             _Destroy_range(_Myfirst, _Mylast, _Al);
; 2088 :             _ASAN_VECTOR_REMOVE;
; 2089 :             _Al.deallocate(_Myfirst, static_cast<size_type>(_Myend - _Myfirst));

  000e8	8b 4e 08	 mov	 ecx, DWORD PTR [esi+8]
  000eb	2b c8		 sub	 ecx, eax
; File C:\Program Files\Microsoft Visual Studio\2022\Community\VC\Tools\MSVC\14.34.31933\include\xmemory

; 830  :         _Deallocate<_New_alignof<_Ty>>(_Ptr, sizeof(_Ty) * _Count);

  000ed	83 e1 fc	 and	 ecx, -4			; fffffffcH

; 251  :         if (_Bytes >= _Big_allocation_threshold) { // boost the alignment of big allocations to help autovectorization

  000f0	81 f9 00 10 00
	00		 cmp	 ecx, 4096		; 00001000H
  000f6	72 12		 jb	 SHORT $LN47@Emplace_re

; 150  :     const uintptr_t _Ptr_container   = _Ptr_user[-1];

  000f8	8b 50 fc	 mov	 edx, DWORD PTR [eax-4]
  000fb	83 c1 23	 add	 ecx, 35			; 00000023H

; 151  : 
; 152  :     // If the following asserts, it likely means that we are performing
; 153  :     // an aligned delete on memory coming from an unaligned allocation.
; 154  :     _STL_ASSERT(_Ptr_user[-2] == _Big_allocation_sentinel, "invalid argument");
; 155  : 
; 156  :     // Extra paranoia on aligned allocation/deallocation; ensure _Ptr_container is
; 157  :     // in range [_Min_back_shift, _Non_user_size]
; 158  : #ifdef _DEBUG
; 159  :     constexpr uintptr_t _Min_back_shift = 2 * sizeof(void*);
; 160  : #else // ^^^ _DEBUG ^^^ // vvv !_DEBUG vvv
; 161  :     constexpr uintptr_t _Min_back_shift = sizeof(void*);
; 162  : #endif // _DEBUG
; 163  :     const uintptr_t _Back_shift = reinterpret_cast<uintptr_t>(_Ptr) - _Ptr_container;

  000fe	2b c2		 sub	 eax, edx

; 164  :     _STL_VERIFY(_Back_shift >= _Min_back_shift && _Back_shift <= _Non_user_size, "invalid argument");

  00100	83 c0 fc	 add	 eax, -4			; fffffffcH
  00103	83 f8 1f	 cmp	 eax, 31			; 0000001fH
  00106	77 2a		 ja	 SHORT $LN44@Emplace_re

; 165  :     _Ptr = reinterpret_cast<void*>(_Ptr_container);

  00108	8b c2		 mov	 eax, edx
$LN47@Emplace_re:

; 255  :         ::operator delete(_Ptr, _Bytes);

  0010a	51		 push	 ecx
  0010b	50		 push	 eax
  0010c	e8 00 00 00 00	 call	 ??3@YAXPAXI@Z		; operator delete
  00111	83 c4 08	 add	 esp, 8
$LN37@Emplace_re:
; File C:\Program Files\Microsoft Visual Studio\2022\Community\VC\Tools\MSVC\14.34.31933\include\vector

; 2093 :         _Mylast  = _Newvec + _Newsize;

  00114	8b 45 f4	 mov	 eax, DWORD PTR __Newsize$1$[ebp]
  00117	89 3e		 mov	 DWORD PTR [esi], edi
  00119	8d 0c 87	 lea	 ecx, DWORD PTR [edi+eax*4]

; 912  :         }
; 913  :         _CATCH_ALL
; 914  :         _Destroy_range(_Constructed_first, _Constructed_last, _Al);
; 915  :         _Al.deallocate(_Newvec, _Newcapacity);
; 916  :         _RERAISE;
; 917  :         _CATCH_END
; 918  : 
; 919  :         _Change_array(_Newvec, _Newsize, _Newcapacity);
; 920  :         return _Newvec + _Whereoff;

  0011c	8b c3		 mov	 eax, ebx

; 2093 :         _Mylast  = _Newvec + _Newsize;

  0011e	89 4e 04	 mov	 DWORD PTR [esi+4], ecx

; 2094 :         _Myend   = _Newvec + _Newcapacity;

  00121	8b 4d f8	 mov	 ecx, DWORD PTR tv639[ebp]
  00124	03 cf		 add	 ecx, edi

; 912  :         }
; 913  :         _CATCH_ALL
; 914  :         _Destroy_range(_Constructed_first, _Constructed_last, _Al);
; 915  :         _Al.deallocate(_Newvec, _Newcapacity);
; 916  :         _RERAISE;
; 917  :         _CATCH_END
; 918  : 
; 919  :         _Change_array(_Newvec, _Newsize, _Newcapacity);
; 920  :         return _Newvec + _Whereoff;

  00126	5f		 pop	 edi

; 2094 :         _Myend   = _Newvec + _Newcapacity;

  00127	89 4e 08	 mov	 DWORD PTR [esi+8], ecx

; 912  :         }
; 913  :         _CATCH_ALL
; 914  :         _Destroy_range(_Constructed_first, _Constructed_last, _Al);
; 915  :         _Al.deallocate(_Newvec, _Newcapacity);
; 916  :         _RERAISE;
; 917  :         _CATCH_END
; 918  : 
; 919  :         _Change_array(_Newvec, _Newsize, _Newcapacity);
; 920  :         return _Newvec + _Whereoff;

  0012a	5e		 pop	 esi
  0012b	5b		 pop	 ebx

; 921  :     }

  0012c	8b e5		 mov	 esp, ebp
  0012e	5d		 pop	 ebp
  0012f	c2 08 00	 ret	 8
$LN44@Emplace_re:
; File C:\Program Files\Microsoft Visual Studio\2022\Community\VC\Tools\MSVC\14.34.31933\include\xmemory

; 164  :     _STL_VERIFY(_Back_shift >= _Min_back_shift && _Back_shift <= _Non_user_size, "invalid argument");

  00132	e8 00 00 00 00	 call	 __invalid_parameter_noinfo_noreturn
$LN88@Emplace_re:
; File C:\Program Files\Microsoft Visual Studio\2022\Community\VC\Tools\MSVC\14.34.31933\include\vector

; 888  :             _Xlength();

  00137	e8 00 00 00 00	 call	 ?_Xlength@?$vector@PAVCGrannyLODController@@V?$allocator@PAVCGrannyLODController@@@std@@@std@@CAXXZ ; std::vector<CGrannyLODController *,std::allocator<CGrannyLODController *> >::_Xlength
$LN89@Emplace_re:
; File C:\Program Files\Microsoft Visual Studio\2022\Community\VC\Tools\MSVC\14.34.31933\include\xmemory

; 61   :             _Throw_bad_array_new_length(); // multiply overflow

  0013c	e8 00 00 00 00	 call	 ?_Throw_bad_array_new_length@std@@YAXXZ ; std::_Throw_bad_array_new_length
$LN86@Emplace_re:
  00141	cc		 int	 3
??$_Emplace_reallocate@ABQAVCGrannyLODController@@@?$vector@PAVCGrannyLODController@@V?$allocator@PAVCGrannyLODController@@@std@@@std@@AAEPAPAVCGrannyLODController@@QAPAV2@ABQAV2@@Z ENDP ; std::vector<CGrannyLODController *,std::allocator<CGrannyLODController *> >::_Emplace_reallocate<CGrannyLODController * const &>
_TEXT	ENDS
; Function compile flags: /Ogtp
; File C:\Program Files\Microsoft Visual Studio\2022\Community\VC\Tools\MSVC\14.34.31933\include\xmemory
; File C:\Program Files\Microsoft Visual Studio\2022\Community\VC\Tools\MSVC\14.34.31933\include\vector
; File C:\Program Files\Microsoft Visual Studio\2022\Community\VC\Tools\MSVC\14.34.31933\include\xmemory
;	COMDAT ??$_Uninitialized_value_construct_n@V?$allocator@USModelThingSet@CGraphicThingInstance@@@std@@@std@@YAPAUSModelThingSet@CGraphicThingInstance@@PAU12@IAAV?$allocator@USModelThingSet@CGraphicThingInstance@@@0@@Z
_TEXT	SEGMENT
__First$ = 8						; size = 4
__Count$ = 12						; size = 4
__Al$ = 16						; size = 4
??$_Uninitialized_value_construct_n@V?$allocator@USModelThingSet@CGraphicThingInstance@@@std@@@std@@YAPAUSModelThingSet@CGraphicThingInstance@@PAU12@IAAV?$allocator@USModelThingSet@CGraphicThingInstance@@@0@@Z PROC ; std::_Uninitialized_value_construct_n<std::allocator<CGraphicThingInstance::SModelThingSet> >, COMDAT

; 1887 :     _Alloc_ptr_t<_Alloc> _First, _Alloc_size_t<_Alloc> _Count, _Alloc& _Al) {

  00000	55		 push	 ebp
  00001	8b ec		 mov	 ebp, esp

; 1888 :     // value-initialize _Count objects to raw _First, using _Al
; 1889 :     using _Ptrty = typename _Alloc::value_type*;
; 1890 :     if constexpr (_Use_memset_value_construct_v<_Ptrty> && _Uses_default_construct<_Alloc, _Ptrty>::value) {
; 1891 : #if _HAS_CXX20
; 1892 :         if (!_STD is_constant_evaluated())
; 1893 : #endif // _HAS_CXX20
; 1894 :         {
; 1895 :             auto _PFirst = _Unfancy(_First);
; 1896 :             _Zero_range(_PFirst, _PFirst + _Count);
; 1897 :             return _First + _Count;
; 1898 :         }
; 1899 :     }
; 1900 : 
; 1901 :     _Uninitialized_backout_al<_Alloc> _Backout{_First, _Al};
; 1902 :     for (; 0 < _Count; --_Count) {

  00003	8b 45 0c	 mov	 eax, DWORD PTR __Count$[ebp]
  00006	56		 push	 esi

; 1652 :     _CONSTEXPR20 _Uninitialized_backout_al(pointer _Dest, _Alloc& _Al_) : _First(_Dest), _Last(_Dest), _Al(_Al_) {}

  00007	8b 75 08	 mov	 esi, DWORD PTR __First$[ebp]

; 1888 :     // value-initialize _Count objects to raw _First, using _Al
; 1889 :     using _Ptrty = typename _Alloc::value_type*;
; 1890 :     if constexpr (_Use_memset_value_construct_v<_Ptrty> && _Uses_default_construct<_Alloc, _Ptrty>::value) {
; 1891 : #if _HAS_CXX20
; 1892 :         if (!_STD is_constant_evaluated())
; 1893 : #endif // _HAS_CXX20
; 1894 :         {
; 1895 :             auto _PFirst = _Unfancy(_First);
; 1896 :             _Zero_range(_PFirst, _PFirst + _Count);
; 1897 :             return _First + _Count;
; 1898 :         }
; 1899 :     }
; 1900 : 
; 1901 :     _Uninitialized_backout_al<_Alloc> _Backout{_First, _Al};
; 1902 :     for (; 0 < _Count; --_Count) {

  0000a	85 c0		 test	 eax, eax
  0000c	74 25		 je	 SHORT $LN3@Uninitiali
  0000e	66 90		 npad	 2
$LL4@Uninitiali:

; 680  :             ::new (_Voidify_iter(_Ptr)) _Objty(_STD forward<_Types>(_Args)...);

  00010	c7 46 04 00 00
	00 00		 mov	 DWORD PTR [esi+4], 0
; File C:\Program Files\Microsoft Visual Studio\2022\Community\VC\Tools\MSVC\14.34.31933\include\vector

; 390  :     _CONSTEXPR20 _Vector_val() noexcept : _Myfirst(), _Mylast(), _Myend() {}

  00017	c7 06 00 00 00
	00		 mov	 DWORD PTR [esi], 0
  0001d	c7 46 04 00 00
	00 00		 mov	 DWORD PTR [esi+4], 0
  00024	c7 46 08 00 00
	00 00		 mov	 DWORD PTR [esi+8], 0
; File C:\Program Files\Microsoft Visual Studio\2022\Community\VC\Tools\MSVC\14.34.31933\include\xmemory

; 1664 :         ++_Last;

  0002b	83 c6 0c	 add	 esi, 12			; 0000000cH

; 1888 :     // value-initialize _Count objects to raw _First, using _Al
; 1889 :     using _Ptrty = typename _Alloc::value_type*;
; 1890 :     if constexpr (_Use_memset_value_construct_v<_Ptrty> && _Uses_default_construct<_Alloc, _Ptrty>::value) {
; 1891 : #if _HAS_CXX20
; 1892 :         if (!_STD is_constant_evaluated())
; 1893 : #endif // _HAS_CXX20
; 1894 :         {
; 1895 :             auto _PFirst = _Unfancy(_First);
; 1896 :             _Zero_range(_PFirst, _PFirst + _Count);
; 1897 :             return _First + _Count;
; 1898 :         }
; 1899 :     }
; 1900 : 
; 1901 :     _Uninitialized_backout_al<_Alloc> _Backout{_First, _Al};
; 1902 :     for (; 0 < _Count; --_Count) {

  0002e	83 e8 01	 sub	 eax, 1
  00031	75 dd		 jne	 SHORT $LL4@Uninitiali
$LN3@Uninitiali:

; 1658 :         _Destroy_range(_First, _Last, _Al);

  00033	ff 75 10	 push	 DWORD PTR __Al$[ebp]
  00036	56		 push	 esi
  00037	56		 push	 esi
  00038	e8 00 00 00 00	 call	 ??$_Destroy_range@V?$allocator@USModelThingSet@CGraphicThingInstance@@@std@@@std@@YAXPAUSModelThingSet@CGraphicThingInstance@@QAU12@AAV?$allocator@USModelThingSet@CGraphicThingInstance@@@0@@Z ; std::_Destroy_range<std::allocator<CGraphicThingInstance::SModelThingSet> >
  0003d	83 c4 0c	 add	 esp, 12			; 0000000cH

; 1903 :         _Backout._Emplace_back();
; 1904 :     }
; 1905 : 
; 1906 :     return _Backout._Release();

  00040	8b c6		 mov	 eax, esi
  00042	5e		 pop	 esi

; 1907 : }

  00043	5d		 pop	 ebp
  00044	c3		 ret	 0
??$_Uninitialized_value_construct_n@V?$allocator@USModelThingSet@CGraphicThingInstance@@@std@@@std@@YAPAUSModelThingSet@CGraphicThingInstance@@PAU12@IAAV?$allocator@USModelThingSet@CGraphicThingInstance@@@0@@Z ENDP ; std::_Uninitialized_value_construct_n<std::allocator<CGraphicThingInstance::SModelThingSet> >
_TEXT	ENDS
; Function compile flags: /Ogtp
; File C:\Program Files\Microsoft Visual Studio\2022\Community\VC\Tools\MSVC\14.34.31933\include\vector
; File C:\Program Files\Microsoft Visual Studio\2022\Community\VC\Tools\MSVC\14.34.31933\include\xmemory
; File C:\Program Files\Microsoft Visual Studio\2022\Community\VC\Tools\MSVC\14.34.31933\include\vector
; File C:\Program Files\Microsoft Visual Studio\2022\Community\VC\Tools\MSVC\14.34.31933\include\xmemory
; File C:\Program Files\Microsoft Visual Studio\2022\Community\VC\Tools\MSVC\14.34.31933\include\vector
; File C:\Program Files\Microsoft Visual Studio\2022\Community\VC\Tools\MSVC\14.34.31933\include\xmemory
; File C:\Program Files\Microsoft Visual Studio\2022\Community\VC\Tools\MSVC\14.34.31933\include\vector
; File C:\Program Files\Microsoft Visual Studio\2022\Community\VC\Tools\MSVC\14.34.31933\include\xmemory
; File C:\Program Files\Microsoft Visual Studio\2022\Community\VC\Tools\MSVC\14.34.31933\include\vector
; File C:\Program Files\Microsoft Visual Studio\2022\Community\VC\Tools\MSVC\14.34.31933\include\xmemory
; File C:\Program Files\Microsoft Visual Studio\2022\Community\VC\Tools\MSVC\14.34.31933\include\utility
; File C:\Program Files\Microsoft Visual Studio\2022\Community\VC\Tools\MSVC\14.34.31933\include\xmemory
; File C:\Program Files\Microsoft Visual Studio\2022\Community\VC\Tools\MSVC\14.34.31933\include\vector
; File C:\Program Files\Microsoft Visual Studio\2022\Community\VC\Tools\MSVC\14.34.31933\include\xmemory
; File C:\Program Files\Microsoft Visual Studio\2022\Community\VC\Tools\MSVC\14.34.31933\include\vector
; File C:\Program Files\Microsoft Visual Studio\2022\Community\VC\Tools\MSVC\14.34.31933\include\xmemory
; File C:\Program Files\Microsoft Visual Studio\2022\Community\VC\Tools\MSVC\14.34.31933\include\vector
; File C:\Program Files\Microsoft Visual Studio\2022\Community\VC\Tools\MSVC\14.34.31933\include\xmemory
; File C:\Program Files\Microsoft Visual Studio\2022\Community\VC\Tools\MSVC\14.34.31933\include\vector
; File C:\Program Files\Microsoft Visual Studio\2022\Community\VC\Tools\MSVC\14.34.31933\include\xmemory
; File C:\Program Files\Microsoft Visual Studio\2022\Community\VC\Tools\MSVC\14.34.31933\include\vector
; File C:\Program Files\Microsoft Visual Studio\2022\Community\VC\Tools\MSVC\14.34.31933\include\xmemory
; File C:\Program Files\Microsoft Visual Studio\2022\Community\VC\Tools\MSVC\14.34.31933\include\vector
;	COMDAT ??$_Resize_reallocate@U_Value_init_tag@std@@@?$vector@USModelThingSet@CGraphicThingInstance@@V?$allocator@USModelThingSet@CGraphicThingInstance@@@std@@@std@@AAEXIABU_Value_init_tag@1@@Z
_TEXT	SEGMENT
_this$1$ = -16						; size = 4
__Oldsize$1$ = -12					; size = 4
tv638 = -8						; size = 4
$T2 = -4						; size = 4
__Newsize$ = 8						; size = 4
__Val$ = 12						; size = 4
??$_Resize_reallocate@U_Value_init_tag@std@@@?$vector@USModelThingSet@CGraphicThingInstance@@V?$allocator@USModelThingSet@CGraphicThingInstance@@@std@@@std@@AAEXIABU_Value_init_tag@1@@Z PROC ; std::vector<CGraphicThingInstance::SModelThingSet,std::allocator<CGraphicThingInstance::SModelThingSet> >::_Resize_reallocate<std::_Value_init_tag>, COMDAT
; _this$ = ecx

; 1574 :     _CONSTEXPR20 void _Resize_reallocate(const size_type _Newsize, const _Ty2& _Val) {

  00000	55		 push	 ebp
  00001	8b ec		 mov	 ebp, esp
  00003	83 ec 10	 sub	 esp, 16			; 00000010H
  00006	53		 push	 ebx
  00007	56		 push	 esi
  00008	57		 push	 edi

; 1575 :         if (_Newsize > max_size()) {

  00009	8b 7d 08	 mov	 edi, DWORD PTR __Newsize$[ebp]
  0000c	8b d9		 mov	 ebx, ecx
  0000e	89 5d f0	 mov	 DWORD PTR _this$1$[ebp], ebx
  00011	81 ff 55 55 55
	15		 cmp	 edi, 357913941		; 15555555H
  00017	0f 87 7a 01 00
	00		 ja	 $LN88@Resize_rea

; 1577 :         }
; 1578 : 
; 1579 :         auto& _Al         = _Getal();
; 1580 :         auto& _My_data    = _Mypair._Myval2;
; 1581 :         pointer& _Myfirst = _My_data._Myfirst;
; 1582 :         pointer& _Mylast  = _My_data._Mylast;
; 1583 : 
; 1584 :         const auto _Oldsize          = static_cast<size_type>(_Mylast - _Myfirst);

  0001d	8b 4b 04	 mov	 ecx, DWORD PTR [ebx+4]
  00020	b8 ab aa aa 2a	 mov	 eax, 715827883		; 2aaaaaabH
  00025	2b 0b		 sub	 ecx, DWORD PTR [ebx]
  00027	f7 e9		 imul	 ecx

; 1942 :         return static_cast<size_type>(_My_data._Myend - _My_data._Myfirst);

  00029	8b 4b 08	 mov	 ecx, DWORD PTR [ebx+8]
  0002c	2b 0b		 sub	 ecx, DWORD PTR [ebx]

; 1577 :         }
; 1578 : 
; 1579 :         auto& _Al         = _Getal();
; 1580 :         auto& _My_data    = _Mypair._Myval2;
; 1581 :         pointer& _Myfirst = _My_data._Myfirst;
; 1582 :         pointer& _Mylast  = _My_data._Mylast;
; 1583 : 
; 1584 :         const auto _Oldsize          = static_cast<size_type>(_Mylast - _Myfirst);

  0002e	d1 fa		 sar	 edx, 1
  00030	8b c2		 mov	 eax, edx
  00032	c1 e8 1f	 shr	 eax, 31			; 0000001fH
  00035	03 c2		 add	 eax, edx
  00037	89 45 f4	 mov	 DWORD PTR __Oldsize$1$[ebp], eax

; 1942 :         return static_cast<size_type>(_My_data._Myend - _My_data._Myfirst);

  0003a	b8 ab aa aa 2a	 mov	 eax, 715827883		; 2aaaaaabH
  0003f	f7 e9		 imul	 ecx

; 2029 :         if (_Oldcapacity > _Max - _Oldcapacity / 2) {

  00041	b8 55 55 55 15	 mov	 eax, 357913941		; 15555555H

; 1942 :         return static_cast<size_type>(_My_data._Myend - _My_data._Myfirst);

  00046	d1 fa		 sar	 edx, 1
  00048	8b ca		 mov	 ecx, edx
  0004a	c1 e9 1f	 shr	 ecx, 31			; 0000001fH
  0004d	03 ca		 add	 ecx, edx

; 2029 :         if (_Oldcapacity > _Max - _Oldcapacity / 2) {

  0004f	8b d1		 mov	 edx, ecx
  00051	d1 ea		 shr	 edx, 1
  00053	2b c2		 sub	 eax, edx
  00055	3b c8		 cmp	 ecx, eax
  00057	76 15		 jbe	 SHORT $LN10@Resize_rea

; 2030 :             return _Max; // geometric growth would overflow

  00059	b8 fc ff ff ff	 mov	 eax, -4			; fffffffcH
; File C:\Program Files\Microsoft Visual Studio\2022\Community\VC\Tools\MSVC\14.34.31933\include\xmemory

; 229  :             return _Allocate_manually_vector_aligned<_Traits>(_Bytes);

  0005e	50		 push	 eax
; File C:\Program Files\Microsoft Visual Studio\2022\Community\VC\Tools\MSVC\14.34.31933\include\vector

; 2030 :             return _Max; // geometric growth would overflow

  0005f	89 45 f8	 mov	 DWORD PTR tv638[ebp], eax
; File C:\Program Files\Microsoft Visual Studio\2022\Community\VC\Tools\MSVC\14.34.31933\include\xmemory

; 229  :             return _Allocate_manually_vector_aligned<_Traits>(_Bytes);

  00062	e8 00 00 00 00	 call	 ??$_Allocate_manually_vector_aligned@U_Default_allocate_traits@std@@@std@@YAPAXI@Z ; std::_Allocate_manually_vector_aligned<std::_Default_allocate_traits>
  00067	83 c4 04	 add	 esp, 4
  0006a	8b f0		 mov	 esi, eax
  0006c	eb 49		 jmp	 SHORT $LN86@Resize_rea
$LN10@Resize_rea:
; File C:\Program Files\Microsoft Visual Studio\2022\Community\VC\Tools\MSVC\14.34.31933\include\vector

; 2033 :         const size_type _Geometric = _Oldcapacity + _Oldcapacity / 2;

  0006e	8d 04 0a	 lea	 eax, DWORD PTR [edx+ecx]

; 2034 : 
; 2035 :         if (_Geometric < _Newsize) {

  00071	3b c7		 cmp	 eax, edi
  00073	73 1f		 jae	 SHORT $LN11@Resize_rea

; 2036 :             return _Newsize; // geometric growth would be insufficient

  00075	8b c7		 mov	 eax, edi
$LN83@Resize_rea:
; File C:\Program Files\Microsoft Visual Studio\2022\Community\VC\Tools\MSVC\14.34.31933\include\xmemory

; 65   :     return _Count * _Ty_size;

  00077	8d 04 40	 lea	 eax, DWORD PTR [eax+eax*2]
  0007a	c1 e0 02	 shl	 eax, 2
  0007d	89 45 f8	 mov	 DWORD PTR tv638[ebp], eax

; 228  :         if (_Bytes >= _Big_allocation_threshold) { // boost the alignment of big allocations to help autovectorization

  00080	3d 00 10 00 00	 cmp	 eax, 4096		; 00001000H
  00085	72 1a		 jb	 SHORT $LN22@Resize_rea

; 229  :             return _Allocate_manually_vector_aligned<_Traits>(_Bytes);

  00087	50		 push	 eax
  00088	e8 00 00 00 00	 call	 ??$_Allocate_manually_vector_aligned@U_Default_allocate_traits@std@@@std@@YAPAXI@Z ; std::_Allocate_manually_vector_aligned<std::_Default_allocate_traits>
  0008d	83 c4 04	 add	 esp, 4
  00090	8b f0		 mov	 esi, eax
  00092	eb 23		 jmp	 SHORT $LN86@Resize_rea
$LN11@Resize_rea:

; 60   :         if (_Count > _Max_possible) {

  00094	3d 55 55 55 15	 cmp	 eax, 357913941		; 15555555H
  00099	0f 87 fd 00 00
	00		 ja	 $LN89@Resize_rea
  0009f	eb d6		 jmp	 SHORT $LN83@Resize_rea
$LN22@Resize_rea:

; 234  :     if (_Bytes != 0) {

  000a1	85 c0		 test	 eax, eax
  000a3	74 10		 je	 SHORT $LN23@Resize_rea

; 77   :         return ::operator new(_Bytes);

  000a5	50		 push	 eax
  000a6	e8 00 00 00 00	 call	 ??2@YAPAXI@Z		; operator new
  000ab	83 c4 04	 add	 esp, 4

; 235  :         return _Traits::_Allocate(_Bytes);

  000ae	89 45 fc	 mov	 DWORD PTR $T2[ebp], eax
  000b1	8b f0		 mov	 esi, eax
  000b3	eb 05		 jmp	 SHORT $LN21@Resize_rea
$LN23@Resize_rea:

; 236  :     }
; 237  : 
; 238  :     return nullptr;

  000b5	33 f6		 xor	 esi, esi
$LN86@Resize_rea:
; File C:\Program Files\Microsoft Visual Studio\2022\Community\VC\Tools\MSVC\14.34.31933\include\vector

; 1596 :             _Appended_last = _Uninitialized_value_construct_n(_Appended_first, _Newsize - _Oldsize, _Al);

  000b7	89 75 fc	 mov	 DWORD PTR $T2[ebp], esi
$LN21@Resize_rea:
  000ba	8b 4d f4	 mov	 ecx, DWORD PTR __Oldsize$1$[ebp]
  000bd	8b c7		 mov	 eax, edi
  000bf	2b c1		 sub	 eax, ecx
  000c1	53		 push	 ebx
  000c2	50		 push	 eax
  000c3	8d 04 49	 lea	 eax, DWORD PTR [ecx+ecx*2]
  000c6	8d 04 86	 lea	 eax, DWORD PTR [esi+eax*4]
  000c9	50		 push	 eax
  000ca	e8 00 00 00 00	 call	 ??$_Uninitialized_value_construct_n@V?$allocator@USModelThingSet@CGraphicThingInstance@@@std@@@std@@YAPAUSModelThingSet@CGraphicThingInstance@@PAU12@IAAV?$allocator@USModelThingSet@CGraphicThingInstance@@@0@@Z ; std::_Uninitialized_value_construct_n<std::allocator<CGraphicThingInstance::SModelThingSet> >
; File C:\Program Files\Microsoft Visual Studio\2022\Community\VC\Tools\MSVC\14.34.31933\include\xmemory

; 1793 :     const auto _ULast = _Get_unwrapped(_Last);

  000cf	8b 4b 04	 mov	 ecx, DWORD PTR [ebx+4]
; File C:\Program Files\Microsoft Visual Studio\2022\Community\VC\Tools\MSVC\14.34.31933\include\vector

; 1596 :             _Appended_last = _Uninitialized_value_construct_n(_Appended_first, _Newsize - _Oldsize, _Al);

  000d2	83 c4 0c	 add	 esp, 12			; 0000000cH
; File C:\Program Files\Microsoft Visual Studio\2022\Community\VC\Tools\MSVC\14.34.31933\include\xmemory

; 835  :         return static_cast<_Ty*>(_Allocate<_New_alignof<_Ty>>(_Get_size_of_n<sizeof(_Ty)>(_Count)));

  000d5	8b 03		 mov	 eax, DWORD PTR [ebx]

; 1652 :     _CONSTEXPR20 _Uninitialized_backout_al(pointer _Dest, _Alloc& _Al_) : _First(_Dest), _Last(_Dest), _Al(_Al_) {}

  000d7	8b fe		 mov	 edi, esi

; 1806 :     for (; _UFirst != _ULast; ++_UFirst) {

  000d9	3b c1		 cmp	 eax, ecx
  000db	74 34		 je	 SHORT $LN30@Resize_rea
  000dd	8b d9		 mov	 ebx, ecx
  000df	90		 npad	 1
$LL31@Resize_rea:
; File C:\Program Files\Microsoft Visual Studio\2022\Community\VC\Tools\MSVC\14.34.31933\include\utility

; 653  :     _Ty _Old_val = static_cast<_Ty&&>(_Val);

  000e0	8b 70 08	 mov	 esi, DWORD PTR [eax+8]
  000e3	8b 50 04	 mov	 edx, DWORD PTR [eax+4]
  000e6	8b 08		 mov	 ecx, DWORD PTR [eax]

; 654  :     _Val         = static_cast<_Other&&>(_New_val);

  000e8	c7 40 08 00 00
	00 00		 mov	 DWORD PTR [eax+8], 0
  000ef	c7 40 04 00 00
	00 00		 mov	 DWORD PTR [eax+4], 0
  000f6	c7 00 00 00 00
	00		 mov	 DWORD PTR [eax], 0
; File C:\Program Files\Microsoft Visual Studio\2022\Community\VC\Tools\MSVC\14.34.31933\include\xmemory

; 1806 :     for (; _UFirst != _ULast; ++_UFirst) {

  000fc	83 c0 0c	 add	 eax, 12			; 0000000cH
; File C:\Program Files\Microsoft Visual Studio\2022\Community\VC\Tools\MSVC\14.34.31933\include\vector

; 393  :         : _Myfirst(_First), _Mylast(_Last), _Myend(_End) {}

  000ff	89 0f		 mov	 DWORD PTR [edi], ecx
  00101	89 57 04	 mov	 DWORD PTR [edi+4], edx
  00104	89 77 08	 mov	 DWORD PTR [edi+8], esi
; File C:\Program Files\Microsoft Visual Studio\2022\Community\VC\Tools\MSVC\14.34.31933\include\xmemory

; 1664 :         ++_Last;

  00107	83 c7 0c	 add	 edi, 12			; 0000000cH

; 1806 :     for (; _UFirst != _ULast; ++_UFirst) {

  0010a	3b c3		 cmp	 eax, ebx
  0010c	75 d2		 jne	 SHORT $LL31@Resize_rea
  0010e	8b 5d f0	 mov	 ebx, DWORD PTR _this$1$[ebp]
$LN30@Resize_rea:

; 1658 :         _Destroy_range(_First, _Last, _Al);

  00111	53		 push	 ebx
  00112	57		 push	 edi
  00113	57		 push	 edi
  00114	e8 00 00 00 00	 call	 ??$_Destroy_range@V?$allocator@USModelThingSet@CGraphicThingInstance@@@std@@@std@@YAXPAUSModelThingSet@CGraphicThingInstance@@QAU12@AAV?$allocator@USModelThingSet@CGraphicThingInstance@@@0@@Z ; std::_Destroy_range<std::allocator<CGraphicThingInstance::SModelThingSet> >
; File C:\Program Files\Microsoft Visual Studio\2022\Community\VC\Tools\MSVC\14.34.31933\include\vector

; 2086 :         if (_Myfirst) { // destroy and deallocate old array

  00119	8b 0b		 mov	 ecx, DWORD PTR [ebx]
; File C:\Program Files\Microsoft Visual Studio\2022\Community\VC\Tools\MSVC\14.34.31933\include\xmemory

; 1658 :         _Destroy_range(_First, _Last, _Al);

  0011b	83 c4 0c	 add	 esp, 12			; 0000000cH
; File C:\Program Files\Microsoft Visual Studio\2022\Community\VC\Tools\MSVC\14.34.31933\include\vector

; 2086 :         if (_Myfirst) { // destroy and deallocate old array

  0011e	85 c9		 test	 ecx, ecx
  00120	74 4e		 je	 SHORT $LN65@Resize_rea

; 2087 :             _Destroy_range(_Myfirst, _Mylast, _Al);

  00122	53		 push	 ebx
  00123	ff 73 04	 push	 DWORD PTR [ebx+4]
  00126	51		 push	 ecx
  00127	e8 00 00 00 00	 call	 ??$_Destroy_range@V?$allocator@USModelThingSet@CGraphicThingInstance@@@std@@@std@@YAXPAUSModelThingSet@CGraphicThingInstance@@QAU12@AAV?$allocator@USModelThingSet@CGraphicThingInstance@@@0@@Z ; std::_Destroy_range<std::allocator<CGraphicThingInstance::SModelThingSet> >

; 2088 :             _ASAN_VECTOR_REMOVE;
; 2089 :             _Al.deallocate(_Myfirst, static_cast<size_type>(_Myend - _Myfirst));

  0012c	8b 4b 08	 mov	 ecx, DWORD PTR [ebx+8]
  0012f	b8 ab aa aa 2a	 mov	 eax, 715827883		; 2aaaaaabH
  00134	8b 33		 mov	 esi, DWORD PTR [ebx]
  00136	83 c4 0c	 add	 esp, 12			; 0000000cH
  00139	2b ce		 sub	 ecx, esi
  0013b	f7 e9		 imul	 ecx
  0013d	d1 fa		 sar	 edx, 1
  0013f	8b c2		 mov	 eax, edx
  00141	c1 e8 1f	 shr	 eax, 31			; 0000001fH
  00144	03 c2		 add	 eax, edx
; File C:\Program Files\Microsoft Visual Studio\2022\Community\VC\Tools\MSVC\14.34.31933\include\xmemory

; 830  :         _Deallocate<_New_alignof<_Ty>>(_Ptr, sizeof(_Ty) * _Count);

  00146	8d 0c 40	 lea	 ecx, DWORD PTR [eax+eax*2]
  00149	c1 e1 02	 shl	 ecx, 2

; 251  :         if (_Bytes >= _Big_allocation_threshold) { // boost the alignment of big allocations to help autovectorization

  0014c	81 f9 00 10 00
	00		 cmp	 ecx, 4096		; 00001000H
  00152	72 12		 jb	 SHORT $LN75@Resize_rea

; 150  :     const uintptr_t _Ptr_container   = _Ptr_user[-1];

  00154	8b 56 fc	 mov	 edx, DWORD PTR [esi-4]
  00157	83 c1 23	 add	 ecx, 35			; 00000023H

; 151  : 
; 152  :     // If the following asserts, it likely means that we are performing
; 153  :     // an aligned delete on memory coming from an unaligned allocation.
; 154  :     _STL_ASSERT(_Ptr_user[-2] == _Big_allocation_sentinel, "invalid argument");
; 155  : 
; 156  :     // Extra paranoia on aligned allocation/deallocation; ensure _Ptr_container is
; 157  :     // in range [_Min_back_shift, _Non_user_size]
; 158  : #ifdef _DEBUG
; 159  :     constexpr uintptr_t _Min_back_shift = 2 * sizeof(void*);
; 160  : #else // ^^^ _DEBUG ^^^ // vvv !_DEBUG vvv
; 161  :     constexpr uintptr_t _Min_back_shift = sizeof(void*);
; 162  : #endif // _DEBUG
; 163  :     const uintptr_t _Back_shift = reinterpret_cast<uintptr_t>(_Ptr) - _Ptr_container;

  0015a	2b f2		 sub	 esi, edx

; 164  :     _STL_VERIFY(_Back_shift >= _Min_back_shift && _Back_shift <= _Non_user_size, "invalid argument");

  0015c	8d 46 fc	 lea	 eax, DWORD PTR [esi-4]
  0015f	83 f8 1f	 cmp	 eax, 31			; 0000001fH
  00162	77 2e		 ja	 SHORT $LN72@Resize_rea

; 165  :     _Ptr = reinterpret_cast<void*>(_Ptr_container);

  00164	8b f2		 mov	 esi, edx
$LN75@Resize_rea:

; 255  :         ::operator delete(_Ptr, _Bytes);

  00166	51		 push	 ecx
  00167	56		 push	 esi
  00168	e8 00 00 00 00	 call	 ??3@YAXPAXI@Z		; operator delete
  0016d	83 c4 08	 add	 esp, 8
$LN65@Resize_rea:
; File C:\Program Files\Microsoft Visual Studio\2022\Community\VC\Tools\MSVC\14.34.31933\include\vector

; 2092 :         _Myfirst = _Newvec;

  00170	8b 4d fc	 mov	 ecx, DWORD PTR $T2[ebp]

; 2093 :         _Mylast  = _Newvec + _Newsize;

  00173	8b 45 08	 mov	 eax, DWORD PTR __Newsize$[ebp]
  00176	89 0b		 mov	 DWORD PTR [ebx], ecx

; 2094 :         _Myend   = _Newvec + _Newcapacity;

  00178	5f		 pop	 edi
  00179	5e		 pop	 esi
  0017a	8d 04 40	 lea	 eax, DWORD PTR [eax+eax*2]
  0017d	8d 04 81	 lea	 eax, DWORD PTR [ecx+eax*4]
  00180	89 43 04	 mov	 DWORD PTR [ebx+4], eax
  00183	8b 45 f8	 mov	 eax, DWORD PTR tv638[ebp]
  00186	03 c1		 add	 eax, ecx
  00188	89 43 08	 mov	 DWORD PTR [ebx+8], eax
  0018b	5b		 pop	 ebx

; 1611 :     }

  0018c	8b e5		 mov	 esp, ebp
  0018e	5d		 pop	 ebp
  0018f	c2 08 00	 ret	 8
$LN72@Resize_rea:
; File C:\Program Files\Microsoft Visual Studio\2022\Community\VC\Tools\MSVC\14.34.31933\include\xmemory

; 164  :     _STL_VERIFY(_Back_shift >= _Min_back_shift && _Back_shift <= _Non_user_size, "invalid argument");

  00192	e8 00 00 00 00	 call	 __invalid_parameter_noinfo_noreturn
$LN88@Resize_rea:
; File C:\Program Files\Microsoft Visual Studio\2022\Community\VC\Tools\MSVC\14.34.31933\include\vector

; 1576 :             _Xlength();

  00197	e8 00 00 00 00	 call	 ?_Xlength@?$vector@USModelThingSet@CGraphicThingInstance@@V?$allocator@USModelThingSet@CGraphicThingInstance@@@std@@@std@@CAXXZ ; std::vector<CGraphicThingInstance::SModelThingSet,std::allocator<CGraphicThingInstance::SModelThingSet> >::_Xlength
$LN89@Resize_rea:
; File C:\Program Files\Microsoft Visual Studio\2022\Community\VC\Tools\MSVC\14.34.31933\include\xmemory

; 61   :             _Throw_bad_array_new_length(); // multiply overflow

  0019c	e8 00 00 00 00	 call	 ?_Throw_bad_array_new_length@std@@YAXXZ ; std::_Throw_bad_array_new_length
$LN85@Resize_rea:
  001a1	cc		 int	 3
??$_Resize_reallocate@U_Value_init_tag@std@@@?$vector@USModelThingSet@CGraphicThingInstance@@V?$allocator@USModelThingSet@CGraphicThingInstance@@@std@@@std@@AAEXIABU_Value_init_tag@1@@Z ENDP ; std::vector<CGraphicThingInstance::SModelThingSet,std::allocator<CGraphicThingInstance::SModelThingSet> >::_Resize_reallocate<std::_Value_init_tag>
_TEXT	ENDS
; Function compile flags: /Ogtp
; File C:\Program Files\Microsoft Visual Studio\2022\Community\VC\Tools\MSVC\14.34.31933\include\xtree
; File C:\Program Files\Microsoft Visual Studio\2022\Community\VC\Tools\MSVC\14.34.31933\include\utility
; File C:\Program Files\Microsoft Visual Studio\2022\Community\VC\Tools\MSVC\14.34.31933\include\xmemory
; File C:\Program Files\Microsoft Visual Studio\2022\Community\VC\Tools\MSVC\14.34.31933\include\xtree
;	COMDAT ??$_Erase_tree@V?$allocator@U?$_Tree_node@U?$pair@$$CBKPAV?$CRef@VCGraphicThing@@@@@std@@PAX@std@@@std@@@?$_Tree_val@U?$_Tree_simple_types@U?$pair@$$CBKPAV?$CRef@VCGraphicThing@@@@@std@@@std@@@std@@QAEXAAV?$allocator@U?$_Tree_node@U?$pair@$$CBKPAV?$CRef@VCGraphicThing@@@@@std@@PAX@std@@@1@PAU?$_Tree_node@U?$pair@$$CBKPAV?$CRef@VCGraphicThing@@@@@std@@PAX@1@@Z
_TEXT	SEGMENT
__Al$ = 8						; size = 4
__Rootnode$ = 12					; size = 4
??$_Erase_tree@V?$allocator@U?$_Tree_node@U?$pair@$$CBKPAV?$CRef@VCGraphicThing@@@@@std@@PAX@std@@@std@@@?$_Tree_val@U?$_Tree_simple_types@U?$pair@$$CBKPAV?$CRef@VCGraphicThing@@@@@std@@@std@@@std@@QAEXAAV?$allocator@U?$_Tree_node@U?$pair@$$CBKPAV?$CRef@VCGraphicThing@@@@@std@@PAX@std@@@1@PAU?$_Tree_node@U?$pair@$$CBKPAV?$CRef@VCGraphicThing@@@@@std@@PAX@1@@Z PROC ; std::_Tree_val<std::_Tree_simple_types<std::pair<unsigned long const ,CRef<CGraphicThing> *> > >::_Erase_tree<std::allocator<std::_Tree_node<std::pair<unsigned long const ,CRef<CGraphicThing> *>,void *> > >, COMDAT
; _this$ = ecx

; 744  :     void _Erase_tree(_Alnode& _Al, _Nodeptr _Rootnode) noexcept {

  00000	55		 push	 ebp
  00001	8b ec		 mov	 ebp, esp
  00003	53		 push	 ebx
  00004	56		 push	 esi

; 745  :         while (!_Rootnode->_Isnil) { // free subtrees, then node

  00005	8b 75 0c	 mov	 esi, DWORD PTR __Rootnode$[ebp]
  00008	8b d9		 mov	 ebx, ecx
  0000a	80 7e 0d 00	 cmp	 BYTE PTR [esi+13], 0
  0000e	75 25		 jne	 SHORT $LN3@Erase_tree
  00010	57		 push	 edi
  00011	8b 7d 08	 mov	 edi, DWORD PTR __Al$[ebp]
$LL2@Erase_tree:

; 746  :             _Erase_tree(_Al, _Rootnode->_Right);

  00014	ff 76 08	 push	 DWORD PTR [esi+8]
  00017	8b cb		 mov	 ecx, ebx
  00019	57		 push	 edi
  0001a	e8 00 00 00 00	 call	 ??$_Erase_tree@V?$allocator@U?$_Tree_node@U?$pair@$$CBKPAV?$CRef@VCGraphicThing@@@@@std@@PAX@std@@@std@@@?$_Tree_val@U?$_Tree_simple_types@U?$pair@$$CBKPAV?$CRef@VCGraphicThing@@@@@std@@@std@@@std@@QAEXAAV?$allocator@U?$_Tree_node@U?$pair@$$CBKPAV?$CRef@VCGraphicThing@@@@@std@@PAX@std@@@1@PAU?$_Tree_node@U?$pair@$$CBKPAV?$CRef@VCGraphicThing@@@@@std@@PAX@1@@Z ; std::_Tree_val<std::_Tree_simple_types<std::pair<unsigned long const ,CRef<CGraphicThing> *> > >::_Erase_tree<std::allocator<std::_Tree_node<std::pair<unsigned long const ,CRef<CGraphicThing> *>,void *> > >
; File C:\Program Files\Microsoft Visual Studio\2022\Community\VC\Tools\MSVC\14.34.31933\include\utility

; 653  :     _Ty _Old_val = static_cast<_Ty&&>(_Val);

  0001f	8b c6		 mov	 eax, esi

; 654  :     _Val         = static_cast<_Other&&>(_New_val);

  00021	8b 36		 mov	 esi, DWORD PTR [esi]
; File C:\Program Files\Microsoft Visual Studio\2022\Community\VC\Tools\MSVC\14.34.31933\include\xmemory

; 255  :         ::operator delete(_Ptr, _Bytes);

  00023	6a 18		 push	 24			; 00000018H
  00025	50		 push	 eax
  00026	e8 00 00 00 00	 call	 ??3@YAXPAXI@Z		; operator delete
  0002b	83 c4 08	 add	 esp, 8
; File C:\Program Files\Microsoft Visual Studio\2022\Community\VC\Tools\MSVC\14.34.31933\include\xtree

; 745  :         while (!_Rootnode->_Isnil) { // free subtrees, then node

  0002e	80 7e 0d 00	 cmp	 BYTE PTR [esi+13], 0
  00032	74 e0		 je	 SHORT $LL2@Erase_tree
  00034	5f		 pop	 edi
$LN3@Erase_tree:
  00035	5e		 pop	 esi

; 747  :             _Alnode::value_type::_Freenode(_Al, _STD exchange(_Rootnode, _Rootnode->_Left));
; 748  :         }
; 749  :     }

  00036	5b		 pop	 ebx
  00037	5d		 pop	 ebp
  00038	c2 08 00	 ret	 8
??$_Erase_tree@V?$allocator@U?$_Tree_node@U?$pair@$$CBKPAV?$CRef@VCGraphicThing@@@@@std@@PAX@std@@@std@@@?$_Tree_val@U?$_Tree_simple_types@U?$pair@$$CBKPAV?$CRef@VCGraphicThing@@@@@std@@@std@@@std@@QAEXAAV?$allocator@U?$_Tree_node@U?$pair@$$CBKPAV?$CRef@VCGraphicThing@@@@@std@@PAX@std@@@1@PAU?$_Tree_node@U?$pair@$$CBKPAV?$CRef@VCGraphicThing@@@@@std@@PAX@1@@Z ENDP ; std::_Tree_val<std::_Tree_simple_types<std::pair<unsigned long const ,CRef<CGraphicThing> *> > >::_Erase_tree<std::allocator<std::_Tree_node<std::pair<unsigned long const ,CRef<CGraphicThing> *>,void *> > >
_TEXT	ENDS
; Function compile flags: /Ogtp
; File C:\Program Files\Microsoft Visual Studio\2022\Community\VC\Tools\MSVC\14.34.31933\include\xmemory
;	COMDAT ??1?$_Alloc_construct_ptr@V?$allocator@U?$_Tree_node@U?$pair@$$CBKPAV?$CRef@VCGraphicThing@@@@@std@@PAX@std@@@std@@@std@@QAE@XZ
_TEXT	SEGMENT
??1?$_Alloc_construct_ptr@V?$allocator@U?$_Tree_node@U?$pair@$$CBKPAV?$CRef@VCGraphicThing@@@@@std@@PAX@std@@@std@@@std@@QAE@XZ PROC ; std::_Alloc_construct_ptr<std::allocator<std::_Tree_node<std::pair<unsigned long const ,CRef<CGraphicThing> *>,void *> > >::~_Alloc_construct_ptr<std::allocator<std::_Tree_node<std::pair<unsigned long const ,CRef<CGraphicThing> *>,void *> > >, COMDAT
; _this$ = ecx

; 1017 :         if (_Ptr) {

  00000	8b 41 04	 mov	 eax, DWORD PTR [ecx+4]
  00003	85 c0		 test	 eax, eax
  00005	74 0b		 je	 SHORT $LN8@Alloc_cons

; 255  :         ::operator delete(_Ptr, _Bytes);

  00007	6a 18		 push	 24			; 00000018H
  00009	50		 push	 eax
  0000a	e8 00 00 00 00	 call	 ??3@YAXPAXI@Z		; operator delete
  0000f	83 c4 08	 add	 esp, 8
$LN8@Alloc_cons:

; 1018 :             _Al.deallocate(_Ptr, 1);
; 1019 :         }
; 1020 :     }

  00012	c3		 ret	 0
??1?$_Alloc_construct_ptr@V?$allocator@U?$_Tree_node@U?$pair@$$CBKPAV?$CRef@VCGraphicThing@@@@@std@@PAX@std@@@std@@@std@@QAE@XZ ENDP ; std::_Alloc_construct_ptr<std::allocator<std::_Tree_node<std::pair<unsigned long const ,CRef<CGraphicThing> *>,void *> > >::~_Alloc_construct_ptr<std::allocator<std::_Tree_node<std::pair<unsigned long const ,CRef<CGraphicThing> *>,void *> > >
_TEXT	ENDS
; Function compile flags: /Ogtp
; File C:\Program Files\Microsoft Visual Studio\2022\Community\VC\Tools\MSVC\14.34.31933\include\xtree
; File C:\Program Files\Microsoft Visual Studio\2022\Community\VC\Tools\MSVC\14.34.31933\include\xstddef
; File C:\Program Files\Microsoft Visual Studio\2022\Community\VC\Tools\MSVC\14.34.31933\include\xtree
; File C:\Program Files\Microsoft Visual Studio\2022\Community\VC\Tools\MSVC\14.34.31933\include\xstddef
; File C:\Program Files\Microsoft Visual Studio\2022\Community\VC\Tools\MSVC\14.34.31933\include\xtree
;	COMDAT ??$_Find_lower_bound@K@?$_Tree@V?$_Tmap_traits@KPAV?$CRef@VCGraphicThing@@@@U?$less@K@std@@V?$allocator@U?$pair@$$CBKPAV?$CRef@VCGraphicThing@@@@@std@@@3@$0A@@std@@@std@@IBE?AU?$_Tree_find_result@PAU?$_Tree_node@U?$pair@$$CBKPAV?$CRef@VCGraphicThing@@@@@std@@PAX@std@@@1@ABK@Z
_TEXT	SEGMENT
___$ReturnUdt$ = 8					; size = 4
__Keyval$ = 12						; size = 4
??$_Find_lower_bound@K@?$_Tree@V?$_Tmap_traits@KPAV?$CRef@VCGraphicThing@@@@U?$less@K@std@@V?$allocator@U?$pair@$$CBKPAV?$CRef@VCGraphicThing@@@@@std@@@3@$0A@@std@@@std@@IBE?AU?$_Tree_find_result@PAU?$_Tree_node@U?$pair@$$CBKPAV?$CRef@VCGraphicThing@@@@@std@@PAX@std@@@1@ABK@Z PROC ; std::_Tree<std::_Tmap_traits<unsigned long,CRef<CGraphicThing> *,std::less<unsigned long>,std::allocator<std::pair<unsigned long const ,CRef<CGraphicThing> *> >,0> >::_Find_lower_bound<unsigned long>, COMDAT
; _this$ = ecx

; 1609 :     _Tree_find_result<_Nodeptr> _Find_lower_bound(const _Keyty& _Keyval) const {

  00000	55		 push	 ebp
  00001	8b ec		 mov	 ebp, esp

; 1610 :         const auto _Scary = _Get_scary();
; 1611 :         _Tree_find_result<_Nodeptr> _Result{{_Scary->_Myhead->_Parent, _Tree_child::_Right}, _Scary->_Myhead};

  00003	8b 09		 mov	 ecx, DWORD PTR [ecx]
  00005	8b 55 08	 mov	 edx, DWORD PTR ___$ReturnUdt$[ebp]
  00008	8b 41 04	 mov	 eax, DWORD PTR [ecx+4]
  0000b	89 02		 mov	 DWORD PTR [edx], eax
  0000d	c7 42 04 00 00
	00 00		 mov	 DWORD PTR [edx+4], 0
  00014	89 4a 08	 mov	 DWORD PTR [edx+8], ecx

; 1612 :         _Nodeptr _Trynode = _Result._Location._Parent;
; 1613 :         while (!_Trynode->_Isnil) {

  00017	80 78 0d 00	 cmp	 BYTE PTR [eax+13], 0
  0001b	75 28		 jne	 SHORT $LN12@Find_lower
; File C:\Program Files\Microsoft Visual Studio\2022\Community\VC\Tools\MSVC\14.34.31933\include\xstddef

; 143  :         return _Left < _Right;

  0001d	8b 4d 0c	 mov	 ecx, DWORD PTR __Keyval$[ebp]
  00020	56		 push	 esi
  00021	8b 31		 mov	 esi, DWORD PTR [ecx]
$LL2@Find_lower:
; File C:\Program Files\Microsoft Visual Studio\2022\Community\VC\Tools\MSVC\14.34.31933\include\xtree

; 1614 :             _Result._Location._Parent = _Trynode;

  00023	89 02		 mov	 DWORD PTR [edx], eax
; File C:\Program Files\Microsoft Visual Studio\2022\Community\VC\Tools\MSVC\14.34.31933\include\xstddef

; 143  :         return _Left < _Right;

  00025	39 70 10	 cmp	 DWORD PTR [eax+16], esi
; File C:\Program Files\Microsoft Visual Studio\2022\Community\VC\Tools\MSVC\14.34.31933\include\xtree

; 1615 :             if (_DEBUG_LT_PRED(_Getcomp(), _Traits::_Kfn(_Trynode->_Myval), _Keyval)) {

  00028	73 07		 jae	 SHORT $LN4@Find_lower

; 1616 :                 _Result._Location._Child = _Tree_child::_Right;
; 1617 :                 _Trynode                 = _Trynode->_Right;

  0002a	8b 40 08	 mov	 eax, DWORD PTR [eax+8]
  0002d	33 c9		 xor	 ecx, ecx

; 1618 :             } else {

  0002f	eb 0a		 jmp	 SHORT $LN5@Find_lower
$LN4@Find_lower:

; 1619 :                 _Result._Location._Child = _Tree_child::_Left;
; 1620 :                 _Result._Bound           = _Trynode;

  00031	89 42 08	 mov	 DWORD PTR [edx+8], eax

; 1621 :                 _Trynode                 = _Trynode->_Left;

  00034	b9 01 00 00 00	 mov	 ecx, 1
  00039	8b 00		 mov	 eax, DWORD PTR [eax]
$LN5@Find_lower:

; 1612 :         _Nodeptr _Trynode = _Result._Location._Parent;
; 1613 :         while (!_Trynode->_Isnil) {

  0003b	89 4a 04	 mov	 DWORD PTR [edx+4], ecx
  0003e	80 78 0d 00	 cmp	 BYTE PTR [eax+13], 0
  00042	74 df		 je	 SHORT $LL2@Find_lower

; 1622 :             }
; 1623 :         }
; 1624 : 
; 1625 :         return _Result;

  00044	5e		 pop	 esi
$LN12@Find_lower:

; 1626 :     }

  00045	8b c2		 mov	 eax, edx
  00047	5d		 pop	 ebp
  00048	c2 08 00	 ret	 8
??$_Find_lower_bound@K@?$_Tree@V?$_Tmap_traits@KPAV?$CRef@VCGraphicThing@@@@U?$less@K@std@@V?$allocator@U?$pair@$$CBKPAV?$CRef@VCGraphicThing@@@@@std@@@3@$0A@@std@@@std@@IBE?AU?$_Tree_find_result@PAU?$_Tree_node@U?$pair@$$CBKPAV?$CRef@VCGraphicThing@@@@@std@@PAX@std@@@1@ABK@Z ENDP ; std::_Tree<std::_Tmap_traits<unsigned long,CRef<CGraphicThing> *,std::less<unsigned long>,std::allocator<std::pair<unsigned long const ,CRef<CGraphicThing> *> >,0> >::_Find_lower_bound<unsigned long>
_TEXT	ENDS
; Function compile flags: /Ogtp
; File C:\Program Files\Microsoft Visual Studio\2022\Community\VC\Tools\MSVC\14.34.31933\include\xmemory
; File C:\Program Files\Microsoft Visual Studio\2022\Community\VC\Tools\MSVC\14.34.31933\include\vector
; File C:\Program Files\Microsoft Visual Studio\2022\Community\VC\Tools\MSVC\14.34.31933\include\xmemory
; File C:\Program Files\Microsoft Visual Studio\2022\Community\VC\Tools\MSVC\14.34.31933\include\vector
; File C:\Program Files\Microsoft Visual Studio\2022\Community\VC\Tools\MSVC\14.34.31933\include\xmemory
; File C:\Program Files\Microsoft Visual Studio\2022\Community\VC\Tools\MSVC\14.34.31933\include\vector
; File C:\Program Files\Microsoft Visual Studio\2022\Community\VC\Tools\MSVC\14.34.31933\include\xmemory
;	COMDAT ??$_Destroy_range@V?$allocator@USModelThingSet@CGraphicThingInstance@@@std@@@std@@YAXPAUSModelThingSet@CGraphicThingInstance@@QAU12@AAV?$allocator@USModelThingSet@CGraphicThingInstance@@@0@@Z
_TEXT	SEGMENT
__First$ = 8						; size = 4
__Last$ = 12						; size = 4
__Al$ = 16						; size = 4
??$_Destroy_range@V?$allocator@USModelThingSet@CGraphicThingInstance@@@std@@@std@@YAXPAUSModelThingSet@CGraphicThingInstance@@QAU12@AAV?$allocator@USModelThingSet@CGraphicThingInstance@@@0@@Z PROC ; std::_Destroy_range<std::allocator<CGraphicThingInstance::SModelThingSet> >, COMDAT

; 943  : _CONSTEXPR20 void _Destroy_range(_Alloc_ptr_t<_Alloc> _First, const _Alloc_ptr_t<_Alloc> _Last, _Alloc& _Al) noexcept {

  00000	55		 push	 ebp
  00001	8b ec		 mov	 ebp, esp
  00003	56		 push	 esi

; 947  :         for (; _First != _Last; ++_First) {

  00004	8b 75 08	 mov	 esi, DWORD PTR __First$[ebp]
  00007	57		 push	 edi
  00008	8b 7d 0c	 mov	 edi, DWORD PTR __Last$[ebp]
  0000b	3b f7		 cmp	 esi, edi
  0000d	74 4e		 je	 SHORT $LN46@Destroy_ra
  0000f	90		 npad	 1
$LL4@Destroy_ra:
; File C:\Program Files\Microsoft Visual Studio\2022\Community\VC\Tools\MSVC\14.34.31933\include\vector

; 2107 :         if (_Myfirst) { // destroy and deallocate old array

  00010	8b 06		 mov	 eax, DWORD PTR [esi]
  00012	85 c0		 test	 eax, eax
  00014	74 40		 je	 SHORT $LN17@Destroy_ra

; 2108 :             _Destroy_range(_Myfirst, _Mylast, _Al);
; 2109 :             _ASAN_VECTOR_REMOVE;
; 2110 :             _Al.deallocate(_Myfirst, static_cast<size_type>(_Myend - _Myfirst));

  00016	8b 4e 08	 mov	 ecx, DWORD PTR [esi+8]
  00019	2b c8		 sub	 ecx, eax
; File C:\Program Files\Microsoft Visual Studio\2022\Community\VC\Tools\MSVC\14.34.31933\include\xmemory

; 830  :         _Deallocate<_New_alignof<_Ty>>(_Ptr, sizeof(_Ty) * _Count);

  0001b	83 e1 fc	 and	 ecx, -4			; fffffffcH

; 251  :         if (_Bytes >= _Big_allocation_threshold) { // boost the alignment of big allocations to help autovectorization

  0001e	81 f9 00 10 00
	00		 cmp	 ecx, 4096		; 00001000H
  00024	72 12		 jb	 SHORT $LN33@Destroy_ra

; 150  :     const uintptr_t _Ptr_container   = _Ptr_user[-1];

  00026	8b 50 fc	 mov	 edx, DWORD PTR [eax-4]
  00029	83 c1 23	 add	 ecx, 35			; 00000023H

; 151  : 
; 152  :     // If the following asserts, it likely means that we are performing
; 153  :     // an aligned delete on memory coming from an unaligned allocation.
; 154  :     _STL_ASSERT(_Ptr_user[-2] == _Big_allocation_sentinel, "invalid argument");
; 155  : 
; 156  :     // Extra paranoia on aligned allocation/deallocation; ensure _Ptr_container is
; 157  :     // in range [_Min_back_shift, _Non_user_size]
; 158  : #ifdef _DEBUG
; 159  :     constexpr uintptr_t _Min_back_shift = 2 * sizeof(void*);
; 160  : #else // ^^^ _DEBUG ^^^ // vvv !_DEBUG vvv
; 161  :     constexpr uintptr_t _Min_back_shift = sizeof(void*);
; 162  : #endif // _DEBUG
; 163  :     const uintptr_t _Back_shift = reinterpret_cast<uintptr_t>(_Ptr) - _Ptr_container;

  0002c	2b c2		 sub	 eax, edx

; 164  :     _STL_VERIFY(_Back_shift >= _Min_back_shift && _Back_shift <= _Non_user_size, "invalid argument");

  0002e	83 c0 fc	 add	 eax, -4			; fffffffcH
  00031	83 f8 1f	 cmp	 eax, 31			; 0000001fH
  00034	77 2b		 ja	 SHORT $LN30@Destroy_ra

; 165  :     _Ptr = reinterpret_cast<void*>(_Ptr_container);

  00036	8b c2		 mov	 eax, edx
$LN33@Destroy_ra:

; 255  :         ::operator delete(_Ptr, _Bytes);

  00038	51		 push	 ecx
  00039	50		 push	 eax
  0003a	e8 00 00 00 00	 call	 ??3@YAXPAXI@Z		; operator delete
; File C:\Program Files\Microsoft Visual Studio\2022\Community\VC\Tools\MSVC\14.34.31933\include\vector

; 2112 :             _Myfirst = nullptr;

  0003f	c7 06 00 00 00
	00		 mov	 DWORD PTR [esi], 0
; File C:\Program Files\Microsoft Visual Studio\2022\Community\VC\Tools\MSVC\14.34.31933\include\xmemory

; 255  :         ::operator delete(_Ptr, _Bytes);

  00045	83 c4 08	 add	 esp, 8
; File C:\Program Files\Microsoft Visual Studio\2022\Community\VC\Tools\MSVC\14.34.31933\include\vector

; 2113 :             _Mylast  = nullptr;

  00048	c7 46 04 00 00
	00 00		 mov	 DWORD PTR [esi+4], 0

; 2114 :             _Myend   = nullptr;

  0004f	c7 46 08 00 00
	00 00		 mov	 DWORD PTR [esi+8], 0
$LN17@Destroy_ra:
; File C:\Program Files\Microsoft Visual Studio\2022\Community\VC\Tools\MSVC\14.34.31933\include\xmemory

; 947  :         for (; _First != _Last; ++_First) {

  00056	83 c6 0c	 add	 esi, 12			; 0000000cH
  00059	3b f7		 cmp	 esi, edi
  0005b	75 b3		 jne	 SHORT $LL4@Destroy_ra
$LN46@Destroy_ra:
  0005d	5f		 pop	 edi

; 948  :             allocator_traits<_Alloc>::destroy(_Al, _Unfancy(_First));
; 949  :         }
; 950  :     }
; 951  : }

  0005e	5e		 pop	 esi
  0005f	5d		 pop	 ebp
  00060	c3		 ret	 0
$LN30@Destroy_ra:

; 164  :     _STL_VERIFY(_Back_shift >= _Min_back_shift && _Back_shift <= _Non_user_size, "invalid argument");

  00061	e8 00 00 00 00	 call	 __invalid_parameter_noinfo_noreturn
$LN47@Destroy_ra:
  00066	cc		 int	 3
??$_Destroy_range@V?$allocator@USModelThingSet@CGraphicThingInstance@@@std@@@std@@YAXPAUSModelThingSet@CGraphicThingInstance@@QAU12@AAV?$allocator@USModelThingSet@CGraphicThingInstance@@@0@@Z ENDP ; std::_Destroy_range<std::allocator<CGraphicThingInstance::SModelThingSet> >
_TEXT	ENDS
; Function compile flags: /Ogtp
;	COMDAT ??__F?ms_kPool@CGraphicThingInstance@@2V?$CDynamicPool@VCGraphicThingInstance@@@@A@@YAXXZ
text$yd	SEGMENT
??__F?ms_kPool@CGraphicThingInstance@@2V?$CDynamicPool@VCGraphicThingInstance@@@@A@@YAXXZ PROC ; `dynamic atexit destructor for 'CGraphicThingInstance::ms_kPool'', COMDAT
  00000	b9 00 00 00 00	 mov	 ecx, OFFSET ?ms_kPool@CGraphicThingInstance@@2V?$CDynamicPool@VCGraphicThingInstance@@@@A ; CGraphicThingInstance::ms_kPool
  00005	e9 00 00 00 00	 jmp	 ??1?$CDynamicPool@VCGraphicThingInstance@@@@UAE@XZ ; CDynamicPool<CGraphicThingInstance>::~CDynamicPool<CGraphicThingInstance>
??__F?ms_kPool@CGraphicThingInstance@@2V?$CDynamicPool@VCGraphicThingInstance@@@@A@@YAXXZ ENDP ; `dynamic atexit destructor for 'CGraphicThingInstance::ms_kPool''
text$yd	ENDS
; Function compile flags: /Ogtp
; File C:\Users\flourine\Desktop\Xantios\client-src\Code\eterGrnLib\ThingInstance.cpp
;	COMDAT ??__E?ms_kPool@CGraphicThingInstance@@2V?$CDynamicPool@VCGraphicThingInstance@@@@A@@YAXXZ
text$di	SEGMENT
??__E?ms_kPool@CGraphicThingInstance@@2V?$CDynamicPool@VCGraphicThingInstance@@@@A@@YAXXZ PROC ; `dynamic initializer for 'CGraphicThingInstance::ms_kPool'', COMDAT

; 9    : CDynamicPool<CGraphicThingInstance>		CGraphicThingInstance::ms_kPool;

  00000	68 00 00 00 00	 push	 OFFSET ??__F?ms_kPool@CGraphicThingInstance@@2V?$CDynamicPool@VCGraphicThingInstance@@@@A@@YAXXZ ; `dynamic atexit destructor for 'CGraphicThingInstance::ms_kPool''
  00005	e8 00 00 00 00	 call	 _atexit
  0000a	59		 pop	 ecx
  0000b	c3		 ret	 0
??__E?ms_kPool@CGraphicThingInstance@@2V?$CDynamicPool@VCGraphicThingInstance@@@@A@@YAXXZ ENDP ; `dynamic initializer for 'CGraphicThingInstance::ms_kPool''
text$di	ENDS
; Function compile flags: /Ogtp
;	COMDAT ??_G?$CDynamicPool@VCGraphicThingInstance@@@@UAEPAXI@Z
_TEXT	SEGMENT
___flags$ = 8						; size = 4
??_G?$CDynamicPool@VCGraphicThingInstance@@@@UAEPAXI@Z PROC ; CDynamicPool<CGraphicThingInstance>::`scalar deleting destructor', COMDAT
; _this$ = ecx
  00000	55		 push	 ebp
  00001	8b ec		 mov	 ebp, esp
  00003	56		 push	 esi
  00004	8b f1		 mov	 esi, ecx
  00006	e8 00 00 00 00	 call	 ??1?$CDynamicPool@VCGraphicThingInstance@@@@UAE@XZ ; CDynamicPool<CGraphicThingInstance>::~CDynamicPool<CGraphicThingInstance>
  0000b	f6 45 08 01	 test	 BYTE PTR ___flags$[ebp], 1
  0000f	74 0b		 je	 SHORT $LN4@scalar
  00011	6a 24		 push	 36			; 00000024H
  00013	56		 push	 esi
  00014	e8 00 00 00 00	 call	 ??3@YAXPAXI@Z		; operator delete
  00019	83 c4 08	 add	 esp, 8
$LN4@scalar:
  0001c	8b c6		 mov	 eax, esi
  0001e	5e		 pop	 esi
  0001f	5d		 pop	 ebp
  00020	c2 04 00	 ret	 4
??_G?$CDynamicPool@VCGraphicThingInstance@@@@UAEPAXI@Z ENDP ; CDynamicPool<CGraphicThingInstance>::`scalar deleting destructor'
_TEXT	ENDS
; Function compile flags: /Ogtp
; File C:\Program Files\Microsoft Visual Studio\2022\Community\VC\Tools\MSVC\14.34.31933\include\vector
;	COMDAT ?_Xlength@?$vector@PAVCGraphicThingInstance@@V?$allocator@PAVCGraphicThingInstance@@@std@@@std@@CAXXZ
_TEXT	SEGMENT
?_Xlength@?$vector@PAVCGraphicThingInstance@@V?$allocator@PAVCGraphicThingInstance@@@std@@@std@@CAXXZ PROC ; std::vector<CGraphicThingInstance *,std::allocator<CGraphicThingInstance *> >::_Xlength, COMDAT

; 2201 :         _Xlength_error("vector too long");

  00000	68 00 00 00 00	 push	 OFFSET ??_C@_0BA@FOIKENOD@vector?5too?5long@
  00005	e8 00 00 00 00	 call	 ?_Xlength_error@std@@YAXPBD@Z ; std::_Xlength_error
$LN3@Xlength:
  0000a	cc		 int	 3
?_Xlength@?$vector@PAVCGraphicThingInstance@@V?$allocator@PAVCGraphicThingInstance@@@std@@@std@@CAXXZ ENDP ; std::vector<CGraphicThingInstance *,std::allocator<CGraphicThingInstance *> >::_Xlength
_TEXT	ENDS
; Function compile flags: /Ogtp
; File C:\Program Files\Microsoft Visual Studio\2022\Community\VC\Tools\MSVC\14.34.31933\include\vector
; File C:\Program Files\Microsoft Visual Studio\2022\Community\VC\Tools\MSVC\14.34.31933\include\xmemory
; File C:\Program Files\Microsoft Visual Studio\2022\Community\VC\Tools\MSVC\14.34.31933\include\vector
; File C:\Program Files\Microsoft Visual Studio\2022\Community\VC\Tools\MSVC\14.34.31933\include\xmemory
; File C:\Program Files\Microsoft Visual Studio\2022\Community\VC\Tools\MSVC\14.34.31933\include\vector
;	COMDAT ?_Change_array@?$vector@PAVCGraphicThingInstance@@V?$allocator@PAVCGraphicThingInstance@@@std@@@std@@AAEXQAPAVCGraphicThingInstance@@II@Z
_TEXT	SEGMENT
__Newvec$ = 8						; size = 4
__Newsize$ = 12						; size = 4
__Newcapacity$ = 16					; size = 4
?_Change_array@?$vector@PAVCGraphicThingInstance@@V?$allocator@PAVCGraphicThingInstance@@@std@@@std@@AAEXQAPAVCGraphicThingInstance@@II@Z PROC ; std::vector<CGraphicThingInstance *,std::allocator<CGraphicThingInstance *> >::_Change_array, COMDAT
; _this$ = ecx

; 2076 :     _CONSTEXPR20 void _Change_array(const pointer _Newvec, const size_type _Newsize, const size_type _Newcapacity) {

  00000	55		 push	 ebp
  00001	8b ec		 mov	 ebp, esp
  00003	56		 push	 esi
  00004	8b f1		 mov	 esi, ecx

; 2077 :         // orphan all iterators, discard old array, acquire new array
; 2078 :         auto& _Al         = _Getal();
; 2079 :         auto& _My_data    = _Mypair._Myval2;
; 2080 :         pointer& _Myfirst = _My_data._Myfirst;
; 2081 :         pointer& _Mylast  = _My_data._Mylast;
; 2082 :         pointer& _Myend   = _My_data._Myend;
; 2083 : 
; 2084 :         _My_data._Orphan_all();
; 2085 : 
; 2086 :         if (_Myfirst) { // destroy and deallocate old array

  00006	8b 06		 mov	 eax, DWORD PTR [esi]
  00008	85 c0		 test	 eax, eax
  0000a	74 2c		 je	 SHORT $LN8@Change_arr

; 2087 :             _Destroy_range(_Myfirst, _Mylast, _Al);
; 2088 :             _ASAN_VECTOR_REMOVE;
; 2089 :             _Al.deallocate(_Myfirst, static_cast<size_type>(_Myend - _Myfirst));

  0000c	8b 4e 08	 mov	 ecx, DWORD PTR [esi+8]
  0000f	2b c8		 sub	 ecx, eax
; File C:\Program Files\Microsoft Visual Studio\2022\Community\VC\Tools\MSVC\14.34.31933\include\xmemory

; 830  :         _Deallocate<_New_alignof<_Ty>>(_Ptr, sizeof(_Ty) * _Count);

  00011	83 e1 fc	 and	 ecx, -4			; fffffffcH

; 251  :         if (_Bytes >= _Big_allocation_threshold) { // boost the alignment of big allocations to help autovectorization

  00014	81 f9 00 10 00
	00		 cmp	 ecx, 4096		; 00001000H
  0001a	72 12		 jb	 SHORT $LN18@Change_arr

; 150  :     const uintptr_t _Ptr_container   = _Ptr_user[-1];

  0001c	8b 50 fc	 mov	 edx, DWORD PTR [eax-4]
  0001f	83 c1 23	 add	 ecx, 35			; 00000023H

; 151  : 
; 152  :     // If the following asserts, it likely means that we are performing
; 153  :     // an aligned delete on memory coming from an unaligned allocation.
; 154  :     _STL_ASSERT(_Ptr_user[-2] == _Big_allocation_sentinel, "invalid argument");
; 155  : 
; 156  :     // Extra paranoia on aligned allocation/deallocation; ensure _Ptr_container is
; 157  :     // in range [_Min_back_shift, _Non_user_size]
; 158  : #ifdef _DEBUG
; 159  :     constexpr uintptr_t _Min_back_shift = 2 * sizeof(void*);
; 160  : #else // ^^^ _DEBUG ^^^ // vvv !_DEBUG vvv
; 161  :     constexpr uintptr_t _Min_back_shift = sizeof(void*);
; 162  : #endif // _DEBUG
; 163  :     const uintptr_t _Back_shift = reinterpret_cast<uintptr_t>(_Ptr) - _Ptr_container;

  00022	2b c2		 sub	 eax, edx

; 164  :     _STL_VERIFY(_Back_shift >= _Min_back_shift && _Back_shift <= _Non_user_size, "invalid argument");

  00024	83 c0 fc	 add	 eax, -4			; fffffffcH
  00027	83 f8 1f	 cmp	 eax, 31			; 0000001fH
  0002a	77 28		 ja	 SHORT $LN15@Change_arr

; 165  :     _Ptr = reinterpret_cast<void*>(_Ptr_container);

  0002c	8b c2		 mov	 eax, edx
$LN18@Change_arr:

; 255  :         ::operator delete(_Ptr, _Bytes);

  0002e	51		 push	 ecx
  0002f	50		 push	 eax
  00030	e8 00 00 00 00	 call	 ??3@YAXPAXI@Z		; operator delete
  00035	83 c4 08	 add	 esp, 8
$LN8@Change_arr:
; File C:\Program Files\Microsoft Visual Studio\2022\Community\VC\Tools\MSVC\14.34.31933\include\vector

; 2092 :         _Myfirst = _Newvec;

  00038	8b 4d 08	 mov	 ecx, DWORD PTR __Newvec$[ebp]

; 2093 :         _Mylast  = _Newvec + _Newsize;

  0003b	8b 45 0c	 mov	 eax, DWORD PTR __Newsize$[ebp]
  0003e	89 0e		 mov	 DWORD PTR [esi], ecx
  00040	8d 04 81	 lea	 eax, DWORD PTR [ecx+eax*4]
  00043	89 46 04	 mov	 DWORD PTR [esi+4], eax

; 2094 :         _Myend   = _Newvec + _Newcapacity;

  00046	8b 45 10	 mov	 eax, DWORD PTR __Newcapacity$[ebp]
  00049	8d 04 81	 lea	 eax, DWORD PTR [ecx+eax*4]
  0004c	89 46 08	 mov	 DWORD PTR [esi+8], eax
  0004f	5e		 pop	 esi

; 2096 :     }

  00050	5d		 pop	 ebp
  00051	c2 0c 00	 ret	 12			; 0000000cH
$LN15@Change_arr:
; File C:\Program Files\Microsoft Visual Studio\2022\Community\VC\Tools\MSVC\14.34.31933\include\xmemory

; 164  :     _STL_VERIFY(_Back_shift >= _Min_back_shift && _Back_shift <= _Non_user_size, "invalid argument");

  00054	e8 00 00 00 00	 call	 __invalid_parameter_noinfo_noreturn
$LN22@Change_arr:
  00059	cc		 int	 3
?_Change_array@?$vector@PAVCGraphicThingInstance@@V?$allocator@PAVCGraphicThingInstance@@@std@@@std@@AAEXQAPAVCGraphicThingInstance@@II@Z ENDP ; std::vector<CGraphicThingInstance *,std::allocator<CGraphicThingInstance *> >::_Change_array
_TEXT	ENDS
; Function compile flags: /Ogtp
; File C:\Program Files\Microsoft Visual Studio\2022\Community\VC\Tools\MSVC\14.34.31933\include\vector
; File C:\Program Files\Microsoft Visual Studio\2022\Community\VC\Tools\MSVC\14.34.31933\include\xmemory
; File C:\Program Files\Microsoft Visual Studio\2022\Community\VC\Tools\MSVC\14.34.31933\include\vector
; File C:\Program Files\Microsoft Visual Studio\2022\Community\VC\Tools\MSVC\14.34.31933\include\xmemory
; File C:\Program Files\Microsoft Visual Studio\2022\Community\VC\Tools\MSVC\14.34.31933\include\vector
; File C:\Program Files\Microsoft Visual Studio\2022\Community\VC\Tools\MSVC\14.34.31933\include\xmemory
; File C:\Program Files\Microsoft Visual Studio\2022\Community\VC\Tools\MSVC\14.34.31933\include\vector
; File C:\Program Files\Microsoft Visual Studio\2022\Community\VC\Tools\MSVC\14.34.31933\include\xmemory
; File C:\Program Files\Microsoft Visual Studio\2022\Community\VC\Tools\MSVC\14.34.31933\include\vector
; File C:\Program Files\Microsoft Visual Studio\2022\Community\VC\Tools\MSVC\14.34.31933\include\xmemory
; File C:\Program Files\Microsoft Visual Studio\2022\Community\VC\Tools\MSVC\14.34.31933\include\vector
;	COMDAT ?_Reallocate_exactly@?$vector@PAVCGraphicThingInstance@@V?$allocator@PAVCGraphicThingInstance@@@std@@@std@@AAEXI@Z
_TEXT	SEGMENT
__Size$1$ = -4						; size = 4
__Newcapacity$ = 8					; size = 4
?_Reallocate_exactly@?$vector@PAVCGraphicThingInstance@@V?$allocator@PAVCGraphicThingInstance@@@std@@@std@@AAEXI@Z PROC ; std::vector<CGraphicThingInstance *,std::allocator<CGraphicThingInstance *> >::_Reallocate_exactly, COMDAT
; _this$ = ecx

; 1664 :     _CONSTEXPR20 void _Reallocate_exactly(const size_type _Newcapacity) {

  00000	55		 push	 ebp
  00001	8b ec		 mov	 ebp, esp
  00003	51		 push	 ecx
  00004	53		 push	 ebx
; File C:\Program Files\Microsoft Visual Studio\2022\Community\VC\Tools\MSVC\14.34.31933\include\xmemory

; 60   :         if (_Count > _Max_possible) {

  00005	8b 5d 08	 mov	 ebx, DWORD PTR __Newcapacity$[ebp]
; File C:\Program Files\Microsoft Visual Studio\2022\Community\VC\Tools\MSVC\14.34.31933\include\vector

; 1664 :     _CONSTEXPR20 void _Reallocate_exactly(const size_type _Newcapacity) {

  00008	56		 push	 esi
  00009	8b f1		 mov	 esi, ecx
  0000b	57		 push	 edi

; 1665 :         // set capacity to _Newcapacity (without geometric growth), provide strong guarantee
; 1666 :         auto& _Al         = _Getal();
; 1667 :         auto& _My_data    = _Mypair._Myval2;
; 1668 :         pointer& _Myfirst = _My_data._Myfirst;
; 1669 :         pointer& _Mylast  = _My_data._Mylast;
; 1670 : 
; 1671 :         const auto _Size = static_cast<size_type>(_Mylast - _Myfirst);

  0000c	8b 46 04	 mov	 eax, DWORD PTR [esi+4]
  0000f	2b 06		 sub	 eax, DWORD PTR [esi]
  00011	c1 f8 02	 sar	 eax, 2
  00014	89 45 fc	 mov	 DWORD PTR __Size$1$[ebp], eax
; File C:\Program Files\Microsoft Visual Studio\2022\Community\VC\Tools\MSVC\14.34.31933\include\xmemory

; 60   :         if (_Count > _Max_possible) {

  00017	81 fb ff ff ff
	3f		 cmp	 ebx, 1073741823		; 3fffffffH
  0001d	0f 87 8a 00 00
	00		 ja	 $LN55@Reallocate

; 62   :         }
; 63   :     }
; 64   : 
; 65   :     return _Count * _Ty_size;

  00023	c1 e3 02	 shl	 ebx, 2

; 228  :         if (_Bytes >= _Big_allocation_threshold) { // boost the alignment of big allocations to help autovectorization

  00026	81 fb 00 10 00
	00		 cmp	 ebx, 4096		; 00001000H
  0002c	72 0d		 jb	 SHORT $LN15@Reallocate

; 229  :             return _Allocate_manually_vector_aligned<_Traits>(_Bytes);

  0002e	53		 push	 ebx
  0002f	e8 00 00 00 00	 call	 ??$_Allocate_manually_vector_aligned@U_Default_allocate_traits@std@@@std@@YAPAXI@Z ; std::_Allocate_manually_vector_aligned<std::_Default_allocate_traits>
  00034	83 c4 04	 add	 esp, 4
  00037	8b f8		 mov	 edi, eax
  00039	eb 13		 jmp	 SHORT $LN14@Reallocate
$LN15@Reallocate:

; 230  :         }
; 231  :     }
; 232  : #endif // defined(_M_IX86) || defined(_M_X64)
; 233  : 
; 234  :     if (_Bytes != 0) {

  0003b	85 db		 test	 ebx, ebx
  0003d	74 0d		 je	 SHORT $LN16@Reallocate

; 77   :         return ::operator new(_Bytes);

  0003f	53		 push	 ebx
  00040	e8 00 00 00 00	 call	 ??2@YAPAXI@Z		; operator new
  00045	83 c4 04	 add	 esp, 4

; 235  :         return _Traits::_Allocate(_Bytes);

  00048	8b f8		 mov	 edi, eax
  0004a	eb 02		 jmp	 SHORT $LN14@Reallocate
$LN16@Reallocate:

; 236  :     }
; 237  : 
; 238  :     return nullptr;

  0004c	33 ff		 xor	 edi, edi
$LN14@Reallocate:

; 1800 :             _Copy_memmove(_UFirst, _ULast, _Unfancy(_Dest));

  0004e	57		 push	 edi
  0004f	ff 76 04	 push	 DWORD PTR [esi+4]
  00052	ff 36		 push	 DWORD PTR [esi]
  00054	e8 00 00 00 00	 call	 ??$_Copy_memmove@PAPAVCGraphicThingInstance@@PAPAV1@@std@@YAPAPAVCGraphicThingInstance@@PAPAV1@00@Z ; std::_Copy_memmove<CGraphicThingInstance * *,CGraphicThingInstance * *>
; File C:\Program Files\Microsoft Visual Studio\2022\Community\VC\Tools\MSVC\14.34.31933\include\vector

; 2086 :         if (_Myfirst) { // destroy and deallocate old array

  00059	8b 06		 mov	 eax, DWORD PTR [esi]
; File C:\Program Files\Microsoft Visual Studio\2022\Community\VC\Tools\MSVC\14.34.31933\include\xmemory

; 1800 :             _Copy_memmove(_UFirst, _ULast, _Unfancy(_Dest));

  0005b	83 c4 0c	 add	 esp, 12			; 0000000cH
; File C:\Program Files\Microsoft Visual Studio\2022\Community\VC\Tools\MSVC\14.34.31933\include\vector

; 2086 :         if (_Myfirst) { // destroy and deallocate old array

  0005e	85 c0		 test	 eax, eax
  00060	74 2c		 je	 SHORT $LN39@Reallocate

; 2087 :             _Destroy_range(_Myfirst, _Mylast, _Al);
; 2088 :             _ASAN_VECTOR_REMOVE;
; 2089 :             _Al.deallocate(_Myfirst, static_cast<size_type>(_Myend - _Myfirst));

  00062	8b 4e 08	 mov	 ecx, DWORD PTR [esi+8]
  00065	2b c8		 sub	 ecx, eax
; File C:\Program Files\Microsoft Visual Studio\2022\Community\VC\Tools\MSVC\14.34.31933\include\xmemory

; 830  :         _Deallocate<_New_alignof<_Ty>>(_Ptr, sizeof(_Ty) * _Count);

  00067	83 e1 fc	 and	 ecx, -4			; fffffffcH

; 251  :         if (_Bytes >= _Big_allocation_threshold) { // boost the alignment of big allocations to help autovectorization

  0006a	81 f9 00 10 00
	00		 cmp	 ecx, 4096		; 00001000H
  00070	72 12		 jb	 SHORT $LN49@Reallocate

; 150  :     const uintptr_t _Ptr_container   = _Ptr_user[-1];

  00072	8b 50 fc	 mov	 edx, DWORD PTR [eax-4]
  00075	83 c1 23	 add	 ecx, 35			; 00000023H

; 151  : 
; 152  :     // If the following asserts, it likely means that we are performing
; 153  :     // an aligned delete on memory coming from an unaligned allocation.
; 154  :     _STL_ASSERT(_Ptr_user[-2] == _Big_allocation_sentinel, "invalid argument");
; 155  : 
; 156  :     // Extra paranoia on aligned allocation/deallocation; ensure _Ptr_container is
; 157  :     // in range [_Min_back_shift, _Non_user_size]
; 158  : #ifdef _DEBUG
; 159  :     constexpr uintptr_t _Min_back_shift = 2 * sizeof(void*);
; 160  : #else // ^^^ _DEBUG ^^^ // vvv !_DEBUG vvv
; 161  :     constexpr uintptr_t _Min_back_shift = sizeof(void*);
; 162  : #endif // _DEBUG
; 163  :     const uintptr_t _Back_shift = reinterpret_cast<uintptr_t>(_Ptr) - _Ptr_container;

  00078	2b c2		 sub	 eax, edx

; 164  :     _STL_VERIFY(_Back_shift >= _Min_back_shift && _Back_shift <= _Non_user_size, "invalid argument");

  0007a	83 c0 fc	 add	 eax, -4			; fffffffcH
  0007d	83 f8 1f	 cmp	 eax, 31			; 0000001fH
  00080	77 26		 ja	 SHORT $LN46@Reallocate

; 165  :     _Ptr = reinterpret_cast<void*>(_Ptr_container);

  00082	8b c2		 mov	 eax, edx
$LN49@Reallocate:

; 255  :         ::operator delete(_Ptr, _Bytes);

  00084	51		 push	 ecx
  00085	50		 push	 eax
  00086	e8 00 00 00 00	 call	 ??3@YAXPAXI@Z		; operator delete
  0008b	83 c4 08	 add	 esp, 8
$LN39@Reallocate:
; File C:\Program Files\Microsoft Visual Studio\2022\Community\VC\Tools\MSVC\14.34.31933\include\vector

; 2093 :         _Mylast  = _Newvec + _Newsize;

  0008e	8b 45 fc	 mov	 eax, DWORD PTR __Size$1$[ebp]
  00091	89 3e		 mov	 DWORD PTR [esi], edi
  00093	8d 04 87	 lea	 eax, DWORD PTR [edi+eax*4]
  00096	89 46 04	 mov	 DWORD PTR [esi+4], eax

; 2094 :         _Myend   = _Newvec + _Newcapacity;

  00099	8d 04 3b	 lea	 eax, DWORD PTR [ebx+edi]
  0009c	5f		 pop	 edi
  0009d	89 46 08	 mov	 DWORD PTR [esi+8], eax
  000a0	5e		 pop	 esi
  000a1	5b		 pop	 ebx

; 1687 :     }

  000a2	8b e5		 mov	 esp, ebp
  000a4	5d		 pop	 ebp
  000a5	c2 04 00	 ret	 4
$LN46@Reallocate:
; File C:\Program Files\Microsoft Visual Studio\2022\Community\VC\Tools\MSVC\14.34.31933\include\xmemory

; 164  :     _STL_VERIFY(_Back_shift >= _Min_back_shift && _Back_shift <= _Non_user_size, "invalid argument");

  000a8	e8 00 00 00 00	 call	 __invalid_parameter_noinfo_noreturn
$LN55@Reallocate:

; 61   :             _Throw_bad_array_new_length(); // multiply overflow

  000ad	e8 00 00 00 00	 call	 ?_Throw_bad_array_new_length@std@@YAXXZ ; std::_Throw_bad_array_new_length
$LN53@Reallocate:
  000b2	cc		 int	 3
?_Reallocate_exactly@?$vector@PAVCGraphicThingInstance@@V?$allocator@PAVCGraphicThingInstance@@@std@@@std@@AAEXI@Z ENDP ; std::vector<CGraphicThingInstance *,std::allocator<CGraphicThingInstance *> >::_Reallocate_exactly
_TEXT	ENDS
; Function compile flags: /Ogtp
; File C:\Users\flourine\Desktop\Xantios\client-src\Code\eterlib\Pool.h
;	COMDAT ?Delete@?$CDynamicPool@VCGraphicThingInstance@@@@KAXPAVCGraphicThingInstance@@@Z
_TEXT	SEGMENT
_pkData$ = 8						; size = 4
?Delete@?$CDynamicPool@VCGraphicThingInstance@@@@KAXPAVCGraphicThingInstance@@@Z PROC ; CDynamicPool<CGraphicThingInstance>::Delete, COMDAT

; 113  : 	{

  00000	55		 push	 ebp
  00001	8b ec		 mov	 ebp, esp

; 114  : 		delete pkData;

  00003	8b 4d 08	 mov	 ecx, DWORD PTR _pkData$[ebp]
  00006	85 c9		 test	 ecx, ecx
  00008	74 06		 je	 SHORT $LN3@Delete
  0000a	8b 01		 mov	 eax, DWORD PTR [ecx]
  0000c	6a 01		 push	 1
  0000e	ff 10		 call	 DWORD PTR [eax]
$LN3@Delete:

; 115  : 	}

  00010	5d		 pop	 ebp
  00011	c3		 ret	 0
?Delete@?$CDynamicPool@VCGraphicThingInstance@@@@KAXPAVCGraphicThingInstance@@@Z ENDP ; CDynamicPool<CGraphicThingInstance>::Delete
_TEXT	ENDS
; Function compile flags: /Ogtp
; File C:\Users\flourine\Desktop\Xantios\client-src\Code\eterlib\Pool.h
; File C:\Program Files\Microsoft Visual Studio\2022\Community\VC\Tools\MSVC\14.34.31933\include\vector
; File C:\Program Files\Microsoft Visual Studio\2022\Community\VC\Tools\MSVC\14.34.31933\include\xmemory
; File C:\Program Files\Microsoft Visual Studio\2022\Community\VC\Tools\MSVC\14.34.31933\include\vector
; File C:\Program Files\Microsoft Visual Studio\2022\Community\VC\Tools\MSVC\14.34.31933\include\xmemory
; File C:\Program Files\Microsoft Visual Studio\2022\Community\VC\Tools\MSVC\14.34.31933\include\vector
; File C:\Program Files\Microsoft Visual Studio\2022\Community\VC\Tools\MSVC\14.34.31933\include\xmemory
; File C:\Program Files\Microsoft Visual Studio\2022\Community\VC\Tools\MSVC\14.34.31933\include\vector
; File C:\Program Files\Microsoft Visual Studio\2022\Community\VC\Tools\MSVC\14.34.31933\include\xmemory
; File C:\Program Files\Microsoft Visual Studio\2022\Community\VC\Tools\MSVC\14.34.31933\include\vector
; File C:\Users\flourine\Desktop\Xantios\client-src\Code\eterlib\Pool.h
; File C:\Program Files\Microsoft Visual Studio\2022\Community\VC\Tools\MSVC\14.34.31933\include\xmemory
; File C:\Users\flourine\Desktop\Xantios\client-src\Code\eterlib\Pool.h
;	COMDAT ??1?$CDynamicPool@VCGraphicThingInstance@@@@UAE@XZ
_TEXT	SEGMENT
??1?$CDynamicPool@VCGraphicThingInstance@@@@UAE@XZ PROC	; CDynamicPool<CGraphicThingInstance>::~CDynamicPool<CGraphicThingInstance>, COMDAT
; _this$ = ecx

; 18   : 	{

  00000	56		 push	 esi
  00001	8b f1		 mov	 esi, ecx
  00003	c7 06 00 00 00
	00		 mov	 DWORD PTR [esi], OFFSET ??_7?$CDynamicPool@VCGraphicThingInstance@@@@6B@
; File C:\Program Files\Microsoft Visual Studio\2022\Community\VC\Tools\MSVC\14.34.31933\include\vector

; 2107 :         if (_Myfirst) { // destroy and deallocate old array

  00009	8b 46 10	 mov	 eax, DWORD PTR [esi+16]
  0000c	85 c0		 test	 eax, eax
  0000e	74 41		 je	 SHORT $LN6@CDynamicPo

; 2108 :             _Destroy_range(_Myfirst, _Mylast, _Al);
; 2109 :             _ASAN_VECTOR_REMOVE;
; 2110 :             _Al.deallocate(_Myfirst, static_cast<size_type>(_Myend - _Myfirst));

  00010	8b 4e 18	 mov	 ecx, DWORD PTR [esi+24]
  00013	2b c8		 sub	 ecx, eax
; File C:\Program Files\Microsoft Visual Studio\2022\Community\VC\Tools\MSVC\14.34.31933\include\xmemory

; 830  :         _Deallocate<_New_alignof<_Ty>>(_Ptr, sizeof(_Ty) * _Count);

  00015	83 e1 fc	 and	 ecx, -4			; fffffffcH

; 251  :         if (_Bytes >= _Big_allocation_threshold) { // boost the alignment of big allocations to help autovectorization

  00018	81 f9 00 10 00
	00		 cmp	 ecx, 4096		; 00001000H
  0001e	72 12		 jb	 SHORT $LN22@CDynamicPo

; 150  :     const uintptr_t _Ptr_container   = _Ptr_user[-1];

  00020	8b 50 fc	 mov	 edx, DWORD PTR [eax-4]
  00023	83 c1 23	 add	 ecx, 35			; 00000023H

; 151  : 
; 152  :     // If the following asserts, it likely means that we are performing
; 153  :     // an aligned delete on memory coming from an unaligned allocation.
; 154  :     _STL_ASSERT(_Ptr_user[-2] == _Big_allocation_sentinel, "invalid argument");
; 155  : 
; 156  :     // Extra paranoia on aligned allocation/deallocation; ensure _Ptr_container is
; 157  :     // in range [_Min_back_shift, _Non_user_size]
; 158  : #ifdef _DEBUG
; 159  :     constexpr uintptr_t _Min_back_shift = 2 * sizeof(void*);
; 160  : #else // ^^^ _DEBUG ^^^ // vvv !_DEBUG vvv
; 161  :     constexpr uintptr_t _Min_back_shift = sizeof(void*);
; 162  : #endif // _DEBUG
; 163  :     const uintptr_t _Back_shift = reinterpret_cast<uintptr_t>(_Ptr) - _Ptr_container;

  00026	2b c2		 sub	 eax, edx

; 164  :     _STL_VERIFY(_Back_shift >= _Min_back_shift && _Back_shift <= _Non_user_size, "invalid argument");

  00028	83 c0 fc	 add	 eax, -4			; fffffffcH
  0002b	83 f8 1f	 cmp	 eax, 31			; 0000001fH
  0002e	77 6b		 ja	 SHORT $LN44@CDynamicPo

; 165  :     _Ptr = reinterpret_cast<void*>(_Ptr_container);

  00030	8b c2		 mov	 eax, edx
$LN22@CDynamicPo:

; 255  :         ::operator delete(_Ptr, _Bytes);

  00032	51		 push	 ecx
  00033	50		 push	 eax
  00034	e8 00 00 00 00	 call	 ??3@YAXPAXI@Z		; operator delete
; File C:\Program Files\Microsoft Visual Studio\2022\Community\VC\Tools\MSVC\14.34.31933\include\vector

; 2112 :             _Myfirst = nullptr;

  00039	c7 46 10 00 00
	00 00		 mov	 DWORD PTR [esi+16], 0
; File C:\Program Files\Microsoft Visual Studio\2022\Community\VC\Tools\MSVC\14.34.31933\include\xmemory

; 255  :         ::operator delete(_Ptr, _Bytes);

  00040	83 c4 08	 add	 esp, 8
; File C:\Program Files\Microsoft Visual Studio\2022\Community\VC\Tools\MSVC\14.34.31933\include\vector

; 2113 :             _Mylast  = nullptr;

  00043	c7 46 14 00 00
	00 00		 mov	 DWORD PTR [esi+20], 0

; 2114 :             _Myend   = nullptr;

  0004a	c7 46 18 00 00
	00 00		 mov	 DWORD PTR [esi+24], 0
$LN6@CDynamicPo:

; 2107 :         if (_Myfirst) { // destroy and deallocate old array

  00051	8b 46 04	 mov	 eax, DWORD PTR [esi+4]
  00054	85 c0		 test	 eax, eax
  00056	74 41		 je	 SHORT $LN31@CDynamicPo

; 2108 :             _Destroy_range(_Myfirst, _Mylast, _Al);
; 2109 :             _ASAN_VECTOR_REMOVE;
; 2110 :             _Al.deallocate(_Myfirst, static_cast<size_type>(_Myend - _Myfirst));

  00058	8b 4e 0c	 mov	 ecx, DWORD PTR [esi+12]
  0005b	2b c8		 sub	 ecx, eax
; File C:\Program Files\Microsoft Visual Studio\2022\Community\VC\Tools\MSVC\14.34.31933\include\xmemory

; 830  :         _Deallocate<_New_alignof<_Ty>>(_Ptr, sizeof(_Ty) * _Count);

  0005d	83 e1 fc	 and	 ecx, -4			; fffffffcH

; 251  :         if (_Bytes >= _Big_allocation_threshold) { // boost the alignment of big allocations to help autovectorization

  00060	81 f9 00 10 00
	00		 cmp	 ecx, 4096		; 00001000H
  00066	72 12		 jb	 SHORT $LN47@CDynamicPo

; 150  :     const uintptr_t _Ptr_container   = _Ptr_user[-1];

  00068	8b 50 fc	 mov	 edx, DWORD PTR [eax-4]
  0006b	83 c1 23	 add	 ecx, 35			; 00000023H

; 151  : 
; 152  :     // If the following asserts, it likely means that we are performing
; 153  :     // an aligned delete on memory coming from an unaligned allocation.
; 154  :     _STL_ASSERT(_Ptr_user[-2] == _Big_allocation_sentinel, "invalid argument");
; 155  : 
; 156  :     // Extra paranoia on aligned allocation/deallocation; ensure _Ptr_container is
; 157  :     // in range [_Min_back_shift, _Non_user_size]
; 158  : #ifdef _DEBUG
; 159  :     constexpr uintptr_t _Min_back_shift = 2 * sizeof(void*);
; 160  : #else // ^^^ _DEBUG ^^^ // vvv !_DEBUG vvv
; 161  :     constexpr uintptr_t _Min_back_shift = sizeof(void*);
; 162  : #endif // _DEBUG
; 163  :     const uintptr_t _Back_shift = reinterpret_cast<uintptr_t>(_Ptr) - _Ptr_container;

  0006e	2b c2		 sub	 eax, edx

; 164  :     _STL_VERIFY(_Back_shift >= _Min_back_shift && _Back_shift <= _Non_user_size, "invalid argument");

  00070	83 c0 fc	 add	 eax, -4			; fffffffcH
  00073	83 f8 1f	 cmp	 eax, 31			; 0000001fH
  00076	77 23		 ja	 SHORT $LN44@CDynamicPo

; 165  :     _Ptr = reinterpret_cast<void*>(_Ptr_container);

  00078	8b c2		 mov	 eax, edx
$LN47@CDynamicPo:

; 255  :         ::operator delete(_Ptr, _Bytes);

  0007a	51		 push	 ecx
  0007b	50		 push	 eax
  0007c	e8 00 00 00 00	 call	 ??3@YAXPAXI@Z		; operator delete
; File C:\Program Files\Microsoft Visual Studio\2022\Community\VC\Tools\MSVC\14.34.31933\include\vector

; 2112 :             _Myfirst = nullptr;

  00081	c7 46 04 00 00
	00 00		 mov	 DWORD PTR [esi+4], 0
; File C:\Program Files\Microsoft Visual Studio\2022\Community\VC\Tools\MSVC\14.34.31933\include\xmemory

; 255  :         ::operator delete(_Ptr, _Bytes);

  00088	83 c4 08	 add	 esp, 8
; File C:\Program Files\Microsoft Visual Studio\2022\Community\VC\Tools\MSVC\14.34.31933\include\vector

; 2113 :             _Mylast  = nullptr;

  0008b	c7 46 08 00 00
	00 00		 mov	 DWORD PTR [esi+8], 0

; 2114 :             _Myend   = nullptr;

  00092	c7 46 0c 00 00
	00 00		 mov	 DWORD PTR [esi+12], 0
$LN31@CDynamicPo:
  00099	5e		 pop	 esi
; File C:\Users\flourine\Desktop\Xantios\client-src\Code\eterlib\Pool.h

; 26   : 	}

  0009a	c3		 ret	 0
$LN44@CDynamicPo:
; File C:\Program Files\Microsoft Visual Studio\2022\Community\VC\Tools\MSVC\14.34.31933\include\xmemory

; 164  :     _STL_VERIFY(_Back_shift >= _Min_back_shift && _Back_shift <= _Non_user_size, "invalid argument");

  0009b	e8 00 00 00 00	 call	 __invalid_parameter_noinfo_noreturn
$LN52@CDynamicPo:
  000a0	cc		 int	 3
??1?$CDynamicPool@VCGraphicThingInstance@@@@UAE@XZ ENDP	; CDynamicPool<CGraphicThingInstance>::~CDynamicPool<CGraphicThingInstance>
_TEXT	ENDS
; Function compile flags: /Ogtp
;	COMDAT ??_GCGraphicThingInstance@@UAEPAXI@Z
_TEXT	SEGMENT
___flags$ = 8						; size = 4
??_GCGraphicThingInstance@@UAEPAXI@Z PROC		; CGraphicThingInstance::`scalar deleting destructor', COMDAT
; _this$ = ecx
  00000	55		 push	 ebp
  00001	8b ec		 mov	 ebp, esp
  00003	56		 push	 esi
  00004	8b f1		 mov	 esi, ecx
  00006	e8 00 00 00 00	 call	 ??1CGraphicThingInstance@@UAE@XZ ; CGraphicThingInstance::~CGraphicThingInstance
  0000b	f6 45 08 01	 test	 BYTE PTR ___flags$[ebp], 1
  0000f	74 0e		 je	 SHORT $LN4@scalar
  00011	68 ec 02 00 00	 push	 748			; 000002ecH
  00016	56		 push	 esi
  00017	e8 00 00 00 00	 call	 ??3@YAXPAXI@Z		; operator delete
  0001c	83 c4 08	 add	 esp, 8
$LN4@scalar:
  0001f	8b c6		 mov	 eax, esi
  00021	5e		 pop	 esi
  00022	5d		 pop	 ebp
  00023	c2 04 00	 ret	 4
??_GCGraphicThingInstance@@UAEPAXI@Z ENDP		; CGraphicThingInstance::`scalar deleting destructor'
_TEXT	ENDS
; Function compile flags: /Ogtp
; File C:\Users\flourine\Desktop\Xantios\client-src\Code\eterGrnLib\ThingInstance.cpp
; File C:\Program Files\Microsoft Visual Studio\2022\Community\VC\Tools\MSVC\14.34.31933\include\vector
; File C:\Users\flourine\Desktop\Xantios\client-src\Code\eterGrnLib\ThingInstance.cpp
; File C:\Users\flourine\Desktop\Xantios\client-src\extern\include\DirectX\d3dx9math.inl
; File C:\Users\flourine\Desktop\Xantios\client-src\Code\eterGrnLib\ThingInstance.cpp
; File C:\Users\flourine\Desktop\Xantios\client-src\extern\include\DirectX\d3dx9math.inl
; File C:\Users\flourine\Desktop\Xantios\client-src\Code\eterGrnLib\ThingInstance.cpp
; File C:\Users\flourine\Desktop\Xantios\client-src\extern\include\DirectX\d3dx9math.inl
; File C:\Users\flourine\Desktop\Xantios\client-src\Code\eterGrnLib\ThingInstance.cpp
;	COMDAT ?RecalcAccePositionMatrixFromBoneMatrix@CGraphicThingInstance@@QAEXXZ
_TEXT	SEGMENT
_qRot$1 = -164						; size = 16
_iBoneIndex$ = -148					; size = 4
_matTemp$ = -144					; size = 64
$T2 = -80						; size = 64
_v3ScaleCenter$3 = -16					; size = 12
__$ArrayPad$ = -4					; size = 4
?RecalcAccePositionMatrixFromBoneMatrix@CGraphicThingInstance@@QAEXXZ PROC ; CGraphicThingInstance::RecalcAccePositionMatrixFromBoneMatrix, COMDAT
; _this$ = ecx

; 757  : {

  00000	55		 push	 ebp
  00001	8b ec		 mov	 ebp, esp
  00003	81 ec a4 00 00
	00		 sub	 esp, 164		; 000000a4H
  00009	a1 00 00 00 00	 mov	 eax, DWORD PTR ___security_cookie
  0000e	33 c5		 xor	 eax, ebp
  00010	89 45 fc	 mov	 DWORD PTR __$ArrayPad$[ebp], eax
  00013	57		 push	 edi
  00014	8b f9		 mov	 edi, ecx
; File C:\Program Files\Microsoft Visual Studio\2022\Community\VC\Tools\MSVC\14.34.31933\include\vector

; 1927 :         return _My_data._Myfirst == _My_data._Mylast;

  00016	8b 8f cc 02 00
	00		 mov	 ecx, DWORD PTR [edi+716]
  0001c	3b 8f d0 02 00
	00		 cmp	 ecx, DWORD PTR [edi+720]
; File C:\Users\flourine\Desktop\Xantios\client-src\Code\eterGrnLib\ThingInstance.cpp

; 758  : 	if (m_LODControllerVector.empty())

  00022	0f 84 ad 01 00
	00		 je	 $LN1@RecalcAcce

; 759  : 		return;
; 760  : 
; 761  : 	CGrannyModelInstance* pModelInstance = m_LODControllerVector[0]->GetModelInstance();

  00028	8b 09		 mov	 ecx, DWORD PTR [ecx]
  0002a	56		 push	 esi
  0002b	e8 00 00 00 00	 call	 ?GetModelInstance@CGrannyLODController@@QAEPAVCGrannyModelInstance@@XZ ; CGrannyLODController::GetModelInstance
  00030	8b f0		 mov	 esi, eax

; 762  : 	if (!pModelInstance)

  00032	85 f6		 test	 esi, esi
  00034	0f 84 9a 01 00
	00		 je	 $LN32@RecalcAcce

; 763  : 		return;
; 764  : 
; 765  : 	int iBoneIndex = 0;
; 766  : 	pModelInstance->GetBoneIndexByName("Bip01 Spine2", &iBoneIndex);

  0003a	8d 85 6c ff ff
	ff		 lea	 eax, DWORD PTR _iBoneIndex$[ebp]
  00040	c7 85 6c ff ff
	ff 00 00 00 00	 mov	 DWORD PTR _iBoneIndex$[ebp], 0
  0004a	50		 push	 eax
  0004b	68 00 00 00 00	 push	 OFFSET ??_C@_0N@DLOEJLFF@Bip01?5Spine2@
  00050	8b ce		 mov	 ecx, esi
  00052	e8 00 00 00 00	 call	 ?GetBoneIndexByName@CGrannyModelInstance@@QBE_NPBDPAH@Z ; CGrannyModelInstance::GetBoneIndexByName

; 767  : 	const D3DXMATRIX* cmatBoneMatrix = (D3DXMATRIX*)pModelInstance->GetBoneMatrixPointer(iBoneIndex);

  00057	ff b5 6c ff ff
	ff		 push	 DWORD PTR _iBoneIndex$[ebp]
  0005d	8b ce		 mov	 ecx, esi
  0005f	e8 00 00 00 00	 call	 ?GetBoneMatrixPointer@CGrannyModelInstance@@QBEPBMH@Z ; CGrannyModelInstance::GetBoneMatrixPointer
  00064	8d b7 0c 02 00
	00		 lea	 esi, DWORD PTR [edi+524]

; 768  : 	if (cmatBoneMatrix)

  0006a	85 c0		 test	 eax, eax
  0006c	0f 84 cf 00 00
	00		 je	 $LN31@RecalcAcce

; 775  : 		if (m_bAttachedAcceRace)

  00072	80 bf bc 01 00
	00 00		 cmp	 BYTE PTR [edi+444], 0
  00079	f3 0f 10 48 30	 movss	 xmm1, DWORD PTR [eax+48]
  0007e	f3 0f 10 50 34	 movss	 xmm2, DWORD PTR [eax+52]
  00083	f3 0f 10 58 38	 movss	 xmm3, DWORD PTR [eax+56]
; File C:\Users\flourine\Desktop\Xantios\client-src\extern\include\DirectX\d3dx9math.inl

; 2261 :     pOut->m[0][1] = pOut->m[0][2] = pOut->m[0][3] =

  00088	c7 46 38 00 00
	00 00		 mov	 DWORD PTR [esi+56], 0
  0008f	c7 46 34 00 00
	00 00		 mov	 DWORD PTR [esi+52], 0
  00096	c7 46 30 00 00
	00 00		 mov	 DWORD PTR [esi+48], 0
  0009d	c7 46 2c 00 00
	00 00		 mov	 DWORD PTR [esi+44], 0
  000a4	c7 46 24 00 00
	00 00		 mov	 DWORD PTR [esi+36], 0
  000ab	c7 46 20 00 00
	00 00		 mov	 DWORD PTR [esi+32], 0
  000b2	c7 46 1c 00 00
	00 00		 mov	 DWORD PTR [esi+28], 0
  000b9	c7 46 18 00 00
	00 00		 mov	 DWORD PTR [esi+24], 0
  000c0	c7 46 10 00 00
	00 00		 mov	 DWORD PTR [esi+16], 0
  000c7	c7 46 0c 00 00
	00 00		 mov	 DWORD PTR [esi+12], 0
  000ce	c7 46 08 00 00
	00 00		 mov	 DWORD PTR [esi+8], 0
  000d5	c7 46 04 00 00
	00 00		 mov	 DWORD PTR [esi+4], 0

; 2262 :     pOut->m[1][0] = pOut->m[1][2] = pOut->m[1][3] =
; 2263 :     pOut->m[2][0] = pOut->m[2][1] = pOut->m[2][3] =
; 2264 :     pOut->m[3][0] = pOut->m[3][1] = pOut->m[3][2] = 0.0f;
; 2265 : 
; 2266 :     pOut->m[0][0] = pOut->m[1][1] = pOut->m[2][2] = pOut->m[3][3] = 1.0f;

  000dc	c7 46 3c 00 00
	80 3f		 mov	 DWORD PTR [esi+60], 1065353216 ; 3f800000H
  000e3	c7 46 28 00 00
	80 3f		 mov	 DWORD PTR [esi+40], 1065353216 ; 3f800000H
  000ea	c7 46 14 00 00
	80 3f		 mov	 DWORD PTR [esi+20], 1065353216 ; 3f800000H
  000f1	c7 06 00 00 80
	3f		 mov	 DWORD PTR [esi], 1065353216 ; 3f800000H
; File C:\Users\flourine\Desktop\Xantios\client-src\Code\eterGrnLib\ThingInstance.cpp

; 775  : 		if (m_bAttachedAcceRace)

  000f7	74 07		 je	 SHORT $LN5@RecalcAcce

; 776  : 		{
; 777  : 			v3ScaleCenter.x = fAccePosX;
; 778  : 			v3ScaleCenter.y = fAccePosY;

  000f9	f3 0f 11 55 f4	 movss	 DWORD PTR _v3ScaleCenter$3[ebp+4], xmm2

; 779  : 		}

  000fe	eb 0f		 jmp	 SHORT $LN33@RecalcAcce
$LN5@RecalcAcce:

; 780  : 		else
; 781  : 		{
; 782  : 			v3ScaleCenter.x = fAccePosX - 18.0f;

  00100	f3 0f 5c 0d 00
	00 00 00	 subss	 xmm1, DWORD PTR __real@41900000

; 783  : 			v3ScaleCenter.y = -40.0f;

  00108	c7 45 f4 00 00
	20 c2		 mov	 DWORD PTR _v3ScaleCenter$3[ebp+4], -1038090240 ; c2200000H
$LN33@RecalcAcce:

; 787  : 		D3DXMatrixTransformation(&m_matScale, &v3ScaleCenter, &qRot, &m_v3ScaleAcce, NULL, NULL, NULL);

  0010f	6a 00		 push	 0
  00111	6a 00		 push	 0
  00113	6a 00		 push	 0
  00115	8d 87 c0 01 00
	00		 lea	 eax, DWORD PTR [edi+448]
  0011b	f3 0f 11 4d f0	 movss	 DWORD PTR _v3ScaleCenter$3[ebp], xmm1
  00120	50		 push	 eax
  00121	8d 85 5c ff ff
	ff		 lea	 eax, DWORD PTR _qRot$1[ebp]
  00127	f3 0f 11 5d f8	 movss	 DWORD PTR _v3ScaleCenter$3[ebp+8], xmm3
  0012c	50		 push	 eax
  0012d	8d 45 f0	 lea	 eax, DWORD PTR _v3ScaleCenter$3[ebp]
  00130	0f 57 c0	 xorps	 xmm0, xmm0
  00133	50		 push	 eax
  00134	56		 push	 esi
; File C:\Users\flourine\Desktop\Xantios\client-src\extern\include\DirectX\d3dx9math.inl

; 1081 :     x = fx;

  00135	0f 11 85 5c ff
	ff ff		 movups	 XMMWORD PTR _qRot$1[ebp], xmm0
; File C:\Users\flourine\Desktop\Xantios\client-src\Code\eterGrnLib\ThingInstance.cpp

; 787  : 		D3DXMatrixTransformation(&m_matScale, &v3ScaleCenter, &qRot, &m_v3ScaleAcce, NULL, NULL, NULL);

  0013c	e8 00 00 00 00	 call	 _D3DXMatrixTransformation@28
$LN31@RecalcAcce:

; 788  : 	}
; 789  : 
; 790  : 	D3DXMATRIX matTemp;
; 791  : 	D3DXMatrixMultiply(&matTemp, &m_matScaleWorld, &m_matScale);

  00141	56		 push	 esi
  00142	8d 87 4c 02 00
	00		 lea	 eax, DWORD PTR [edi+588]
  00148	50		 push	 eax
  00149	8d 85 70 ff ff
	ff		 lea	 eax, DWORD PTR _matTemp$[ebp]
  0014f	50		 push	 eax
  00150	e8 00 00 00 00	 call	 _D3DXMatrixMultiply@12

; 792  : 	m_matAbsoluteTrans = matTemp * m_mRotation;

  00155	8d 47 28	 lea	 eax, DWORD PTR [edi+40]
; File C:\Users\flourine\Desktop\Xantios\client-src\extern\include\DirectX\d3dx9math.inl

; 885  :     D3DXMatrixMultiply(&matT, this, &mat);

  00158	50		 push	 eax
  00159	8d 85 70 ff ff
	ff		 lea	 eax, DWORD PTR _matTemp$[ebp]
  0015f	50		 push	 eax
  00160	8d 45 b0	 lea	 eax, DWORD PTR $T2[ebp]
  00163	50		 push	 eax
  00164	e8 00 00 00 00	 call	 _D3DXMatrixMultiply@12
; File C:\Users\flourine\Desktop\Xantios\client-src\Code\eterGrnLib\ThingInstance.cpp

; 792  : 	m_matAbsoluteTrans = matTemp * m_mRotation;

  00169	0f 10 45 b0	 movups	 xmm0, XMMWORD PTR $T2[ebp]
  0016d	0f 11 87 cc 01
	00 00		 movups	 XMMWORD PTR [edi+460], xmm0
  00174	0f 10 45 c0	 movups	 xmm0, XMMWORD PTR $T2[ebp+16]
  00178	0f 11 87 dc 01
	00 00		 movups	 XMMWORD PTR [edi+476], xmm0
  0017f	0f 10 45 d0	 movups	 xmm0, XMMWORD PTR $T2[ebp+32]
  00183	0f 11 87 ec 01
	00 00		 movups	 XMMWORD PTR [edi+492], xmm0
  0018a	0f 10 45 e0	 movups	 xmm0, XMMWORD PTR $T2[ebp+48]
  0018e	0f 11 87 fc 01
	00 00		 movups	 XMMWORD PTR [edi+508], xmm0

; 793  : 	m_matAbsoluteTrans._41 += m_v3Position.x;

  00195	f3 0f 10 47 04	 movss	 xmm0, DWORD PTR [edi+4]
  0019a	f3 0f 58 87 fc
	01 00 00	 addss	 xmm0, DWORD PTR [edi+508]
  001a2	f3 0f 11 87 fc
	01 00 00	 movss	 DWORD PTR [edi+508], xmm0

; 794  : 	m_matAbsoluteTrans._42 += m_v3Position.y;

  001aa	f3 0f 10 47 08	 movss	 xmm0, DWORD PTR [edi+8]
  001af	f3 0f 58 87 00
	02 00 00	 addss	 xmm0, DWORD PTR [edi+512]
  001b7	f3 0f 11 87 00
	02 00 00	 movss	 DWORD PTR [edi+512], xmm0

; 795  : 	m_matAbsoluteTrans._43 += m_v3Position.z;

  001bf	f3 0f 10 47 0c	 movss	 xmm0, DWORD PTR [edi+12]
  001c4	f3 0f 58 87 04
	02 00 00	 addss	 xmm0, DWORD PTR [edi+516]
  001cc	f3 0f 11 87 04
	02 00 00	 movss	 DWORD PTR [edi+516], xmm0
$LN32@RecalcAcce:
  001d4	5e		 pop	 esi
$LN1@RecalcAcce:

; 796  : }

  001d5	8b 4d fc	 mov	 ecx, DWORD PTR __$ArrayPad$[ebp]
  001d8	33 cd		 xor	 ecx, ebp
  001da	5f		 pop	 edi
  001db	e8 00 00 00 00	 call	 @__security_check_cookie@4
  001e0	8b e5		 mov	 esp, ebp
  001e2	5d		 pop	 ebp
  001e3	c3		 ret	 0
?RecalcAccePositionMatrixFromBoneMatrix@CGraphicThingInstance@@QAEXXZ ENDP ; CGraphicThingInstance::RecalcAccePositionMatrixFromBoneMatrix
_TEXT	ENDS
; Function compile flags: /Ogtp
; File C:\Users\flourine\Desktop\Xantios\client-src\Code\eterGrnLib\ThingInstance.cpp
; File C:\Program Files\Microsoft Visual Studio\2022\Community\VC\Tools\MSVC\14.34.31933\include\vector
; File C:\Users\flourine\Desktop\Xantios\client-src\Code\eterGrnLib\ThingInstance.cpp
; File C:\Users\flourine\Desktop\Xantios\client-src\Code\eterGrnLib\LODController.h
; File C:\Users\flourine\Desktop\Xantios\client-src\Code\eterGrnLib\ThingInstance.cpp
; File C:\Program Files\Microsoft Visual Studio\2022\Community\VC\Tools\MSVC\14.34.31933\include\vector
; File C:\Users\flourine\Desktop\Xantios\client-src\Code\eterGrnLib\ThingInstance.cpp
; File C:\Program Files\Microsoft Visual Studio\2022\Community\VC\Tools\MSVC\14.34.31933\include\vector
; File C:\Users\flourine\Desktop\Xantios\client-src\Code\eterGrnLib\ThingInstance.cpp
;	COMDAT ?HaveBlendThing@CGraphicThingInstance@@QAE_NXZ
_TEXT	SEGMENT
?HaveBlendThing@CGraphicThingInstance@@QAE_NXZ PROC	; CGraphicThingInstance::HaveBlendThing, COMDAT
; _this$ = ecx

; 1083 : {

  00000	53		 push	 ebx
  00001	8b d9		 mov	 ebx, ecx
  00003	56		 push	 esi

; 1084 : 	for (int i = 0; i < m_LODControllerVector.size(); i++)

  00004	33 f6		 xor	 esi, esi
  00006	57		 push	 edi
; File C:\Program Files\Microsoft Visual Studio\2022\Community\VC\Tools\MSVC\14.34.31933\include\vector

; 1932 :         return static_cast<size_type>(_My_data._Mylast - _My_data._Myfirst);

  00007	8b 83 d0 02 00
	00		 mov	 eax, DWORD PTR [ebx+720]
  0000d	8b 93 cc 02 00
	00		 mov	 edx, DWORD PTR [ebx+716]
  00013	2b c2		 sub	 eax, edx
  00015	c1 f8 02	 sar	 eax, 2
; File C:\Users\flourine\Desktop\Xantios\client-src\Code\eterGrnLib\ThingInstance.cpp

; 1084 : 	for (int i = 0; i < m_LODControllerVector.size(); i++)

  00018	85 c0		 test	 eax, eax
  0001a	74 3b		 je	 SHORT $LN23@HaveBlendT
  0001c	0f 1f 40 00	 npad	 4
$LL4@HaveBlendT:

; 1086 : 		if (m_LODControllerVector[i]->HaveBlendThing())

  00020	8b 3c b2	 mov	 edi, DWORD PTR [edx+esi*4]
; File C:\Users\flourine\Desktop\Xantios\client-src\Code\eterGrnLib\LODController.h

; 310  : 	bool	HaveBlendThing() { return 0 != GetModelInstance() ? GetModelInstance()->HaveBlendThing() : false; }

  00023	8b cf		 mov	 ecx, edi
  00025	e8 00 00 00 00	 call	 ?GetModelInstance@CGrannyLODController@@QAEPAVCGrannyModelInstance@@XZ ; CGrannyLODController::GetModelInstance
  0002a	85 c0		 test	 eax, eax
  0002c	74 13		 je	 SHORT $LN22@HaveBlendT
  0002e	8b cf		 mov	 ecx, edi
  00030	e8 00 00 00 00	 call	 ?GetModelInstance@CGrannyLODController@@QAEPAVCGrannyModelInstance@@XZ ; CGrannyLODController::GetModelInstance
; File C:\Users\flourine\Desktop\Xantios\client-src\Code\eterGrnLib\ThingInstance.cpp

; 1086 : 		if (m_LODControllerVector[i]->HaveBlendThing())

  00035	8b 40 04	 mov	 eax, DWORD PTR [eax+4]
  00038	80 b8 88 00 00
	00 00		 cmp	 BYTE PTR [eax+136], 0
  0003f	75 1c		 jne	 SHORT $LN18@HaveBlendT
$LN22@HaveBlendT:
; File C:\Program Files\Microsoft Visual Studio\2022\Community\VC\Tools\MSVC\14.34.31933\include\vector

; 1932 :         return static_cast<size_type>(_My_data._Mylast - _My_data._Myfirst);

  00041	8b 83 d0 02 00
	00		 mov	 eax, DWORD PTR [ebx+720]
; File C:\Users\flourine\Desktop\Xantios\client-src\Code\eterGrnLib\ThingInstance.cpp

; 1084 : 	for (int i = 0; i < m_LODControllerVector.size(); i++)

  00047	46		 inc	 esi
; File C:\Program Files\Microsoft Visual Studio\2022\Community\VC\Tools\MSVC\14.34.31933\include\vector

; 1932 :         return static_cast<size_type>(_My_data._Mylast - _My_data._Myfirst);

  00048	8b 93 cc 02 00
	00		 mov	 edx, DWORD PTR [ebx+716]
  0004e	2b c2		 sub	 eax, edx
  00050	c1 f8 02	 sar	 eax, 2
; File C:\Users\flourine\Desktop\Xantios\client-src\Code\eterGrnLib\ThingInstance.cpp

; 1084 : 	for (int i = 0; i < m_LODControllerVector.size(); i++)

  00053	3b f0		 cmp	 esi, eax
  00055	72 c9		 jb	 SHORT $LL4@HaveBlendT
$LN23@HaveBlendT:
  00057	5f		 pop	 edi

; 1087 : 		{
; 1088 : 			return true;
; 1089 : 		}
; 1090 : 	}
; 1091 : 	return false;
; 1092 : }

  00058	5e		 pop	 esi
  00059	32 c0		 xor	 al, al
  0005b	5b		 pop	 ebx
  0005c	c3		 ret	 0
$LN18@HaveBlendT:
  0005d	5f		 pop	 edi
  0005e	5e		 pop	 esi
  0005f	b0 01		 mov	 al, 1
  00061	5b		 pop	 ebx
  00062	c3		 ret	 0
?HaveBlendThing@CGraphicThingInstance@@QAE_NXZ ENDP	; CGraphicThingInstance::HaveBlendThing
_TEXT	ENDS
; Function compile flags: /Ogtp
; File C:\Users\flourine\Desktop\Xantios\client-src\Code\eterGrnLib\ThingInstance.cpp
; File C:\Program Files\Microsoft Visual Studio\2022\Community\VC\Tools\MSVC\14.34.31933\include\vector
; File C:\Users\flourine\Desktop\Xantios\client-src\Code\eterGrnLib\ThingInstance.cpp
; File C:\Program Files\Microsoft Visual Studio\2022\Community\VC\Tools\MSVC\14.34.31933\include\vector
; File C:\Users\flourine\Desktop\Xantios\client-src\Code\eterGrnLib\ThingInstance.cpp
; File C:\Program Files\Microsoft Visual Studio\2022\Community\VC\Tools\MSVC\14.34.31933\include\vector
; File C:\Users\flourine\Desktop\Xantios\client-src\Code\eterGrnLib\ThingInstance.cpp
;	COMDAT ?Delete@CGraphicThingInstance@@SAXPAV1@@Z
_TEXT	SEGMENT
_pkData$ = 8						; size = 4
_pkThingInst$ = 8					; size = 4
?Delete@CGraphicThingInstance@@SAXPAV1@@Z PROC		; CGraphicThingInstance::Delete, COMDAT

; 55   : {

  00000	55		 push	 ebp
  00001	8b ec		 mov	 ebp, esp
  00003	56		 push	 esi

; 56   : 	pkThingInst->Clear();

  00004	8b 75 08	 mov	 esi, DWORD PTR _pkThingInst$[ebp]
  00007	8b ce		 mov	 ecx, esi
  00009	e8 00 00 00 00	 call	 ?Clear@CGraphicObjectInstance@@QAEXXZ ; CGraphicObjectInstance::Clear
; File C:\Program Files\Microsoft Visual Studio\2022\Community\VC\Tools\MSVC\14.34.31933\include\vector

; 844  :         if (_Mylast != _My_data._Myend) {

  0000e	a1 14 00 00 00	 mov	 eax, DWORD PTR ?ms_kPool@CGraphicThingInstance@@2V?$CDynamicPool@VCGraphicThingInstance@@@@A+20
; File C:\Users\flourine\Desktop\Xantios\client-src\Code\eterGrnLib\ThingInstance.cpp

; 57   : 	ms_kPool.Free(pkThingInst);

  00013	89 75 08	 mov	 DWORD PTR _pkData$[ebp], esi
; File C:\Program Files\Microsoft Visual Studio\2022\Community\VC\Tools\MSVC\14.34.31933\include\vector

; 844  :         if (_Mylast != _My_data._Myend) {

  00016	3b 05 18 00 00
	00		 cmp	 eax, DWORD PTR ?ms_kPool@CGraphicThingInstance@@2V?$CDynamicPool@VCGraphicThingInstance@@@@A+24
  0001c	74 0c		 je	 SHORT $LN8@Delete

; 860  :             _Construct_in_place(*_Mylast, _STD forward<_Valty>(_Val)...);

  0001e	89 30		 mov	 DWORD PTR [eax], esi

; 861  :         } else {
; 862  :             _ASAN_VECTOR_EXTEND_GUARD(static_cast<size_type>(_Mylast - _My_data._Myfirst) + 1);
; 863  :             _Alty_traits::construct(_Getal(), _Unfancy(_Mylast), _STD forward<_Valty>(_Val)...);
; 864  :             _ASAN_VECTOR_RELEASE_GUARD;
; 865  :         }
; 866  : 
; 867  :         _Orphan_range(_Mylast, _Mylast);
; 868  :         _Ty& _Result = *_Mylast;
; 869  :         ++_Mylast;

  00020	83 05 14 00 00
	00 04		 add	 DWORD PTR ?ms_kPool@CGraphicThingInstance@@2V?$CDynamicPool@VCGraphicThingInstance@@@@A+20, 4
  00027	5e		 pop	 esi
; File C:\Users\flourine\Desktop\Xantios\client-src\Code\eterGrnLib\ThingInstance.cpp

; 58   : }

  00028	5d		 pop	 ebp
  00029	c3		 ret	 0
$LN8@Delete:
; File C:\Program Files\Microsoft Visual Studio\2022\Community\VC\Tools\MSVC\14.34.31933\include\vector

; 848  :         return *_Emplace_reallocate(_Mylast, _STD forward<_Valty>(_Val)...);

  0002a	8d 4d 08	 lea	 ecx, DWORD PTR _pkData$[ebp]
  0002d	51		 push	 ecx
  0002e	50		 push	 eax
  0002f	b9 10 00 00 00	 mov	 ecx, OFFSET ?ms_kPool@CGraphicThingInstance@@2V?$CDynamicPool@VCGraphicThingInstance@@@@A+16
  00034	e8 00 00 00 00	 call	 ??$_Emplace_reallocate@ABQAVCGraphicThingInstance@@@?$vector@PAVCGraphicThingInstance@@V?$allocator@PAVCGraphicThingInstance@@@std@@@std@@AAEPAPAVCGraphicThingInstance@@QAPAV2@ABQAV2@@Z ; std::vector<CGraphicThingInstance *,std::allocator<CGraphicThingInstance *> >::_Emplace_reallocate<CGraphicThingInstance * const &>
  00039	5e		 pop	 esi
; File C:\Users\flourine\Desktop\Xantios\client-src\Code\eterGrnLib\ThingInstance.cpp

; 58   : }

  0003a	5d		 pop	 ebp
  0003b	c3		 ret	 0
?Delete@CGraphicThingInstance@@SAXPAV1@@Z ENDP		; CGraphicThingInstance::Delete
_TEXT	ENDS
; Function compile flags: /Ogtp
; File C:\Users\flourine\Desktop\Xantios\client-src\Code\eterGrnLib\ThingInstance.cpp
; File C:\Program Files\Microsoft Visual Studio\2022\Community\VC\Tools\MSVC\14.34.31933\include\vector
; File C:\Users\flourine\Desktop\Xantios\client-src\Code\eterlib\Pool.h
; File C:\Program Files\Microsoft Visual Studio\2022\Community\VC\Tools\MSVC\14.34.31933\include\vector
; File C:\Users\flourine\Desktop\Xantios\client-src\Code\eterlib\Pool.h
; File C:\Program Files\Microsoft Visual Studio\2022\Community\VC\Tools\MSVC\14.34.31933\include\vector
; File C:\Users\flourine\Desktop\Xantios\client-src\Code\eterlib\Pool.h
; File C:\Users\flourine\Desktop\Xantios\client-src\Code\eterGrnLib\ThingInstance.cpp
; File C:\Program Files\Microsoft Visual Studio\2022\Community\VC\Tools\MSVC\14.34.31933\include\vector
; File C:\Users\flourine\Desktop\Xantios\client-src\Code\eterlib\Pool.h
; File C:\Users\flourine\Desktop\Xantios\client-src\Code\eterGrnLib\ThingInstance.cpp
; File C:\Users\flourine\Desktop\Xantios\client-src\Code\eterlib\Pool.h
; File C:\Program Files\Microsoft Visual Studio\2022\Community\VC\Tools\MSVC\14.34.31933\include\vector
; File C:\Users\flourine\Desktop\Xantios\client-src\Code\eterGrnLib\ThingInstance.cpp
;	COMDAT ?New@CGraphicThingInstance@@SAPAV1@XZ
_TEXT	SEGMENT
$T2 = -16						; size = 4
_pkNewData$3 = -16					; size = 4
__$EHRec$ = -12						; size = 12
?New@CGraphicThingInstance@@SAPAV1@XZ PROC		; CGraphicThingInstance::New, COMDAT

; 50   : {

  00000	55		 push	 ebp
  00001	8b ec		 mov	 ebp, esp
  00003	6a ff		 push	 -1
  00005	68 00 00 00 00	 push	 __ehhandler$?New@CGraphicThingInstance@@SAPAV1@XZ
  0000a	64 a1 00 00 00
	00		 mov	 eax, DWORD PTR fs:0
  00010	50		 push	 eax
  00011	51		 push	 ecx
  00012	a1 00 00 00 00	 mov	 eax, DWORD PTR ___security_cookie
  00017	33 c5		 xor	 eax, ebp
  00019	50		 push	 eax
  0001a	8d 45 f4	 lea	 eax, DWORD PTR __$EHRec$[ebp]
  0001d	64 a3 00 00 00
	00		 mov	 DWORD PTR fs:0, eax
; File C:\Program Files\Microsoft Visual Studio\2022\Community\VC\Tools\MSVC\14.34.31933\include\vector

; 1927 :         return _My_data._Myfirst == _My_data._Mylast;

  00023	8b 0d 14 00 00
	00		 mov	 ecx, DWORD PTR ?ms_kPool@CGraphicThingInstance@@2V?$CDynamicPool@VCGraphicThingInstance@@@@A+20
; File C:\Users\flourine\Desktop\Xantios\client-src\Code\eterlib\Pool.h

; 63   : 		if (m_kVct_pkFree.empty())

  00029	39 0d 10 00 00
	00		 cmp	 DWORD PTR ?ms_kPool@CGraphicThingInstance@@2V?$CDynamicPool@VCGraphicThingInstance@@@@A+16, ecx
  0002f	0f 85 83 00 00
	00		 jne	 $LN4@New

; 65   : 			T* pkNewData = new T;

  00035	68 ec 02 00 00	 push	 748			; 000002ecH
  0003a	e8 00 00 00 00	 call	 ??2@YAPAXI@Z		; operator new
  0003f	83 c4 04	 add	 esp, 4
  00042	89 45 f0	 mov	 DWORD PTR $T2[ebp], eax
  00045	c7 45 fc 00 00
	00 00		 mov	 DWORD PTR __$EHRec$[ebp+8], 0
  0004c	85 c0		 test	 eax, eax
  0004e	74 09		 je	 SHORT $LN6@New
  00050	8b c8		 mov	 ecx, eax
  00052	e8 00 00 00 00	 call	 ??0CGraphicThingInstance@@QAE@XZ ; CGraphicThingInstance::CGraphicThingInstance
  00057	eb 02		 jmp	 SHORT $LN7@New
$LN6@New:
  00059	33 c0		 xor	 eax, eax
$LN7@New:
; File C:\Program Files\Microsoft Visual Studio\2022\Community\VC\Tools\MSVC\14.34.31933\include\vector

; 844  :         if (_Mylast != _My_data._Myend) {

  0005b	8b 0d 08 00 00
	00		 mov	 ecx, DWORD PTR ?ms_kPool@CGraphicThingInstance@@2V?$CDynamicPool@VCGraphicThingInstance@@@@A+8
; File C:\Users\flourine\Desktop\Xantios\client-src\Code\eterlib\Pool.h

; 65   : 			T* pkNewData = new T;

  00061	c7 45 fc ff ff
	ff ff		 mov	 DWORD PTR __$EHRec$[ebp+8], -1
  00068	89 45 f0	 mov	 DWORD PTR _pkNewData$3[ebp], eax
; File C:\Program Files\Microsoft Visual Studio\2022\Community\VC\Tools\MSVC\14.34.31933\include\vector

; 844  :         if (_Mylast != _My_data._Myend) {

  0006b	3b 0d 0c 00 00
	00		 cmp	 ecx, DWORD PTR ?ms_kPool@CGraphicThingInstance@@2V?$CDynamicPool@VCGraphicThingInstance@@@@A+12
  00071	74 1e		 je	 SHORT $LN14@New

; 860  :             _Construct_in_place(*_Mylast, _STD forward<_Valty>(_Val)...);

  00073	89 01		 mov	 DWORD PTR [ecx], eax

; 861  :         } else {
; 862  :             _ASAN_VECTOR_EXTEND_GUARD(static_cast<size_type>(_Mylast - _My_data._Myfirst) + 1);
; 863  :             _Alty_traits::construct(_Getal(), _Unfancy(_Mylast), _STD forward<_Valty>(_Val)...);
; 864  :             _ASAN_VECTOR_RELEASE_GUARD;
; 865  :         }
; 866  : 
; 867  :         _Orphan_range(_Mylast, _Mylast);
; 868  :         _Ty& _Result = *_Mylast;
; 869  :         ++_Mylast;

  00075	83 05 08 00 00
	00 04		 add	 DWORD PTR ?ms_kPool@CGraphicThingInstance@@2V?$CDynamicPool@VCGraphicThingInstance@@@@A+8, 4
; File C:\Users\flourine\Desktop\Xantios\client-src\Code\eterlib\Pool.h

; 67   : 			++m_uUsedCapacity;

  0007c	ff 05 20 00 00
	00		 inc	 DWORD PTR ?ms_kPool@CGraphicThingInstance@@2V?$CDynamicPool@VCGraphicThingInstance@@@@A+32
; File C:\Users\flourine\Desktop\Xantios\client-src\Code\eterGrnLib\ThingInstance.cpp

; 52   : }

  00082	8b 4d f4	 mov	 ecx, DWORD PTR __$EHRec$[ebp]
  00085	64 89 0d 00 00
	00 00		 mov	 DWORD PTR fs:0, ecx
  0008c	59		 pop	 ecx
  0008d	8b e5		 mov	 esp, ebp
  0008f	5d		 pop	 ebp
  00090	c3		 ret	 0
$LN14@New:
; File C:\Program Files\Microsoft Visual Studio\2022\Community\VC\Tools\MSVC\14.34.31933\include\vector

; 848  :         return *_Emplace_reallocate(_Mylast, _STD forward<_Valty>(_Val)...);

  00091	8d 45 f0	 lea	 eax, DWORD PTR _pkNewData$3[ebp]
  00094	50		 push	 eax
  00095	51		 push	 ecx
  00096	b9 04 00 00 00	 mov	 ecx, OFFSET ?ms_kPool@CGraphicThingInstance@@2V?$CDynamicPool@VCGraphicThingInstance@@@@A+4
  0009b	e8 00 00 00 00	 call	 ??$_Emplace_reallocate@ABQAVCGraphicThingInstance@@@?$vector@PAVCGraphicThingInstance@@V?$allocator@PAVCGraphicThingInstance@@@std@@@std@@AAEPAPAVCGraphicThingInstance@@QAPAV2@ABQAV2@@Z ; std::vector<CGraphicThingInstance *,std::allocator<CGraphicThingInstance *> >::_Emplace_reallocate<CGraphicThingInstance * const &>
  000a0	8b 45 f0	 mov	 eax, DWORD PTR _pkNewData$3[ebp]
; File C:\Users\flourine\Desktop\Xantios\client-src\Code\eterlib\Pool.h

; 67   : 			++m_uUsedCapacity;

  000a3	ff 05 20 00 00
	00		 inc	 DWORD PTR ?ms_kPool@CGraphicThingInstance@@2V?$CDynamicPool@VCGraphicThingInstance@@@@A+32
; File C:\Users\flourine\Desktop\Xantios\client-src\Code\eterGrnLib\ThingInstance.cpp

; 52   : }

  000a9	8b 4d f4	 mov	 ecx, DWORD PTR __$EHRec$[ebp]
  000ac	64 89 0d 00 00
	00 00		 mov	 DWORD PTR fs:0, ecx
  000b3	59		 pop	 ecx
  000b4	8b e5		 mov	 esp, ebp
  000b6	5d		 pop	 ebp
  000b7	c3		 ret	 0
$LN4@New:
; File C:\Users\flourine\Desktop\Xantios\client-src\Code\eterlib\Pool.h

; 71   : 		T* pkFreeData = m_kVct_pkFree.back();

  000b8	8b 41 fc	 mov	 eax, DWORD PTR [ecx-4]
; File C:\Program Files\Microsoft Visual Studio\2022\Community\VC\Tools\MSVC\14.34.31933\include\vector

; 1776 :         --_Mylast;

  000bb	83 c1 fc	 add	 ecx, -4			; fffffffcH
  000be	89 0d 14 00 00
	00		 mov	 DWORD PTR ?ms_kPool@CGraphicThingInstance@@2V?$CDynamicPool@VCGraphicThingInstance@@@@A+20, ecx
; File C:\Users\flourine\Desktop\Xantios\client-src\Code\eterGrnLib\ThingInstance.cpp

; 52   : }

  000c4	8b 4d f4	 mov	 ecx, DWORD PTR __$EHRec$[ebp]
  000c7	64 89 0d 00 00
	00 00		 mov	 DWORD PTR fs:0, ecx
  000ce	59		 pop	 ecx
  000cf	8b e5		 mov	 esp, ebp
  000d1	5d		 pop	 ebp
  000d2	c3		 ret	 0
_TEXT	ENDS
;	COMDAT text$x
text$x	SEGMENT
__unwindfunclet$?New@CGraphicThingInstance@@SAPAV1@XZ$0:
  00000	68 ec 02 00 00	 push	 748			; 000002ecH
  00005	8b 45 f0	 mov	 eax, DWORD PTR $T2[ebp]
  00008	50		 push	 eax
  00009	e8 00 00 00 00	 call	 ??3@YAXPAXI@Z		; operator delete
  0000e	83 c4 08	 add	 esp, 8
  00011	c3		 ret	 0
  00012	cc		 int	 3
  00013	cc		 int	 3
  00014	cc		 int	 3
  00015	cc		 int	 3
  00016	cc		 int	 3
__ehhandler$?New@CGraphicThingInstance@@SAPAV1@XZ:
  00017	90		 npad	 1
  00018	90		 npad	 1
  00019	8b 54 24 08	 mov	 edx, DWORD PTR [esp+8]
  0001d	8d 42 0c	 lea	 eax, DWORD PTR [edx+12]
  00020	8b 4a f8	 mov	 ecx, DWORD PTR [edx-8]
  00023	33 c8		 xor	 ecx, eax
  00025	e8 00 00 00 00	 call	 @__security_check_cookie@4
  0002a	b8 00 00 00 00	 mov	 eax, OFFSET __ehfuncinfo$?New@CGraphicThingInstance@@SAPAV1@XZ
  0002f	e9 00 00 00 00	 jmp	 ___CxxFrameHandler3
text$x	ENDS
?New@CGraphicThingInstance@@SAPAV1@XZ ENDP		; CGraphicThingInstance::New
; Function compile flags: /Ogtp
; File C:\Users\flourine\Desktop\Xantios\client-src\Code\eterGrnLib\ThingInstance.cpp
; File C:\Program Files\Microsoft Visual Studio\2022\Community\VC\Tools\MSVC\14.34.31933\include\algorithm
; File C:\Users\flourine\Desktop\Xantios\client-src\Code\eterGrnLib\ThingInstance.cpp
; File C:\Program Files\Microsoft Visual Studio\2022\Community\VC\Tools\MSVC\14.34.31933\include\vector
; File C:\Program Files\Microsoft Visual Studio\2022\Community\VC\Tools\MSVC\14.34.31933\include\algorithm
; File C:\Users\flourine\Desktop\Xantios\client-src\Code\eterlib\Pool.h
; File C:\Program Files\Microsoft Visual Studio\2022\Community\VC\Tools\MSVC\14.34.31933\include\algorithm
; File C:\Program Files\Microsoft Visual Studio\2022\Community\VC\Tools\MSVC\14.34.31933\include\vector
; File C:\Users\flourine\Desktop\Xantios\client-src\Code\eterGrnLib\ThingInstance.cpp
;	COMDAT ?DestroySystem@CGraphicThingInstance@@SAXXZ
_TEXT	SEGMENT
?DestroySystem@CGraphicThingInstance@@SAXXZ PROC	; CGraphicThingInstance::DestroySystem, COMDAT

; 45   : {

  00000	56		 push	 esi
; File C:\Program Files\Microsoft Visual Studio\2022\Community\VC\Tools\MSVC\14.34.31933\include\algorithm

; 265  :     for (; _UFirst != _ULast; ++_UFirst) {

  00001	8b 35 04 00 00
	00		 mov	 esi, DWORD PTR ?ms_kPool@CGraphicThingInstance@@2V?$CDynamicPool@VCGraphicThingInstance@@@@A+4
; File C:\Users\flourine\Desktop\Xantios\client-src\Code\eterGrnLib\ThingInstance.cpp

; 45   : {

  00007	57		 push	 edi
; File C:\Program Files\Microsoft Visual Studio\2022\Community\VC\Tools\MSVC\14.34.31933\include\vector

; 41   :     _CONSTEXPR20 _Vector_const_iterator(_Tptr _Parg, const _Container_base* _Pvector) noexcept : _Ptr(_Parg) {

  00008	8b 3d 08 00 00
	00		 mov	 edi, DWORD PTR ?ms_kPool@CGraphicThingInstance@@2V?$CDynamicPool@VCGraphicThingInstance@@@@A+8
; File C:\Program Files\Microsoft Visual Studio\2022\Community\VC\Tools\MSVC\14.34.31933\include\algorithm

; 265  :     for (; _UFirst != _ULast; ++_UFirst) {

  0000e	3b f7		 cmp	 esi, edi
  00010	74 21		 je	 SHORT $LN38@DestroySys
$LL20@DestroySys:

; 266  :         _Func(*_UFirst);

  00012	8b 0e		 mov	 ecx, DWORD PTR [esi]
; File C:\Users\flourine\Desktop\Xantios\client-src\Code\eterlib\Pool.h

; 114  : 		delete pkData;

  00014	85 c9		 test	 ecx, ecx
  00016	74 06		 je	 SHORT $LN26@DestroySys
  00018	8b 01		 mov	 eax, DWORD PTR [ecx]
  0001a	6a 01		 push	 1
  0001c	ff 10		 call	 DWORD PTR [eax]
$LN26@DestroySys:
; File C:\Program Files\Microsoft Visual Studio\2022\Community\VC\Tools\MSVC\14.34.31933\include\algorithm

; 265  :     for (; _UFirst != _ULast; ++_UFirst) {

  0001e	83 c6 04	 add	 esi, 4
  00021	3b f7		 cmp	 esi, edi
  00023	75 ed		 jne	 SHORT $LL20@DestroySys
  00025	8b 3d 08 00 00
	00		 mov	 edi, DWORD PTR ?ms_kPool@CGraphicThingInstance@@2V?$CDynamicPool@VCGraphicThingInstance@@@@A+8
  0002b	8b 35 04 00 00
	00		 mov	 esi, DWORD PTR ?ms_kPool@CGraphicThingInstance@@2V?$CDynamicPool@VCGraphicThingInstance@@@@A+4
; File C:\Program Files\Microsoft Visual Studio\2022\Community\VC\Tools\MSVC\14.34.31933\include\vector

; 1829 :         if (_Myfirst == _Mylast) { // already empty, nothing to do

  00031	3b f7		 cmp	 esi, edi
$LN38@DestroySys:
  00033	8b 0d 14 00 00
	00		 mov	 ecx, DWORD PTR ?ms_kPool@CGraphicThingInstance@@2V?$CDynamicPool@VCGraphicThingInstance@@@@A+20
  00039	0f 45 fe	 cmovne	 edi, esi
  0003c	39 0d 10 00 00
	00		 cmp	 DWORD PTR ?ms_kPool@CGraphicThingInstance@@2V?$CDynamicPool@VCGraphicThingInstance@@@@A+16, ecx
  00042	89 3d 08 00 00
	00		 mov	 DWORD PTR ?ms_kPool@CGraphicThingInstance@@2V?$CDynamicPool@VCGraphicThingInstance@@@@A+8, edi
  00048	0f 45 0d 10 00
	00 00		 cmovne	 ecx, DWORD PTR ?ms_kPool@CGraphicThingInstance@@2V?$CDynamicPool@VCGraphicThingInstance@@@@A+16
  0004f	5f		 pop	 edi
  00050	89 0d 14 00 00
	00		 mov	 DWORD PTR ?ms_kPool@CGraphicThingInstance@@2V?$CDynamicPool@VCGraphicThingInstance@@@@A+20, ecx
  00056	5e		 pop	 esi
; File C:\Users\flourine\Desktop\Xantios\client-src\Code\eterGrnLib\ThingInstance.cpp

; 47   : }

  00057	c3		 ret	 0
?DestroySystem@CGraphicThingInstance@@SAXXZ ENDP	; CGraphicThingInstance::DestroySystem
_TEXT	ENDS
; Function compile flags: /Ogtp
; File C:\Users\flourine\Desktop\Xantios\client-src\Code\eterGrnLib\ThingInstance.cpp
; File C:\Program Files\Microsoft Visual Studio\2022\Community\VC\Tools\MSVC\14.34.31933\include\vector
; File C:\Users\flourine\Desktop\Xantios\client-src\Code\eterGrnLib\ThingInstance.cpp
; File C:\Users\flourine\Desktop\Xantios\client-src\Code\eterlib\Pool.h
; File C:\Program Files\Microsoft Visual Studio\2022\Community\VC\Tools\MSVC\14.34.31933\include\vector
; File C:\Users\flourine\Desktop\Xantios\client-src\Code\eterlib\Pool.h
; File C:\Program Files\Microsoft Visual Studio\2022\Community\VC\Tools\MSVC\14.34.31933\include\vector
; File C:\Users\flourine\Desktop\Xantios\client-src\Code\eterGrnLib\ThingInstance.cpp
; File C:\Program Files\Microsoft Visual Studio\2022\Community\VC\Tools\MSVC\14.34.31933\include\vector
; File C:\Users\flourine\Desktop\Xantios\client-src\Code\eterGrnLib\ThingInstance.cpp
;	COMDAT ?CreateSystem@CGraphicThingInstance@@SAXI@Z
_TEXT	SEGMENT
_uCapacity$ = 8						; size = 4
?CreateSystem@CGraphicThingInstance@@SAXI@Z PROC	; CGraphicThingInstance::CreateSystem, COMDAT

; 40   : {

  00000	55		 push	 ebp
  00001	8b ec		 mov	 ebp, esp
; File C:\Program Files\Microsoft Visual Studio\2022\Community\VC\Tools\MSVC\14.34.31933\include\vector

; 1942 :         return static_cast<size_type>(_My_data._Myend - _My_data._Myfirst);

  00003	a1 0c 00 00 00	 mov	 eax, DWORD PTR ?ms_kPool@CGraphicThingInstance@@2V?$CDynamicPool@VCGraphicThingInstance@@@@A+12
  00008	2b 05 04 00 00
	00		 sub	 eax, DWORD PTR ?ms_kPool@CGraphicThingInstance@@2V?$CDynamicPool@VCGraphicThingInstance@@@@A+4
; File C:\Users\flourine\Desktop\Xantios\client-src\Code\eterGrnLib\ThingInstance.cpp

; 40   : {

  0000e	56		 push	 esi
; File C:\Users\flourine\Desktop\Xantios\client-src\Code\eterlib\Pool.h

; 57   : 		m_uInitCapacity = uCapacity;

  0000f	8b 75 08	 mov	 esi, DWORD PTR _uCapacity$[ebp]
; File C:\Program Files\Microsoft Visual Studio\2022\Community\VC\Tools\MSVC\14.34.31933\include\vector

; 1942 :         return static_cast<size_type>(_My_data._Myend - _My_data._Myfirst);

  00012	c1 f8 02	 sar	 eax, 2
; File C:\Users\flourine\Desktop\Xantios\client-src\Code\eterlib\Pool.h

; 57   : 		m_uInitCapacity = uCapacity;

  00015	89 35 1c 00 00
	00		 mov	 DWORD PTR ?ms_kPool@CGraphicThingInstance@@2V?$CDynamicPool@VCGraphicThingInstance@@@@A+28, esi
; File C:\Program Files\Microsoft Visual Studio\2022\Community\VC\Tools\MSVC\14.34.31933\include\vector

; 1743 :         if (_Newcapacity > capacity()) { // something to do (reserve() never shrinks)

  0001b	3b f0		 cmp	 esi, eax
  0001d	76 13		 jbe	 SHORT $LN6@CreateSyst

; 1744 :             if (_Newcapacity > max_size()) {

  0001f	81 fe ff ff ff
	3f		 cmp	 esi, 1073741823		; 3fffffffH
  00025	77 33		 ja	 SHORT $LN19@CreateSyst

; 1746 :             }
; 1747 : 
; 1748 :             _Reallocate_exactly(_Newcapacity);

  00027	56		 push	 esi
  00028	b9 04 00 00 00	 mov	 ecx, OFFSET ?ms_kPool@CGraphicThingInstance@@2V?$CDynamicPool@VCGraphicThingInstance@@@@A+4
  0002d	e8 00 00 00 00	 call	 ?_Reallocate_exactly@?$vector@PAVCGraphicThingInstance@@V?$allocator@PAVCGraphicThingInstance@@@std@@@std@@AAEXI@Z ; std::vector<CGraphicThingInstance *,std::allocator<CGraphicThingInstance *> >::_Reallocate_exactly
$LN6@CreateSyst:

; 1942 :         return static_cast<size_type>(_My_data._Myend - _My_data._Myfirst);

  00032	a1 18 00 00 00	 mov	 eax, DWORD PTR ?ms_kPool@CGraphicThingInstance@@2V?$CDynamicPool@VCGraphicThingInstance@@@@A+24
  00037	2b 05 10 00 00
	00		 sub	 eax, DWORD PTR ?ms_kPool@CGraphicThingInstance@@2V?$CDynamicPool@VCGraphicThingInstance@@@@A+16
  0003d	c1 f8 02	 sar	 eax, 2

; 1743 :         if (_Newcapacity > capacity()) { // something to do (reserve() never shrinks)

  00040	3b f0		 cmp	 esi, eax
  00042	76 13		 jbe	 SHORT $LN13@CreateSyst

; 1744 :             if (_Newcapacity > max_size()) {

  00044	81 fe ff ff ff
	3f		 cmp	 esi, 1073741823		; 3fffffffH
  0004a	77 0e		 ja	 SHORT $LN19@CreateSyst

; 1746 :             }
; 1747 : 
; 1748 :             _Reallocate_exactly(_Newcapacity);

  0004c	56		 push	 esi
  0004d	b9 10 00 00 00	 mov	 ecx, OFFSET ?ms_kPool@CGraphicThingInstance@@2V?$CDynamicPool@VCGraphicThingInstance@@@@A+16
  00052	e8 00 00 00 00	 call	 ?_Reallocate_exactly@?$vector@PAVCGraphicThingInstance@@V?$allocator@PAVCGraphicThingInstance@@@std@@@std@@AAEXI@Z ; std::vector<CGraphicThingInstance *,std::allocator<CGraphicThingInstance *> >::_Reallocate_exactly
$LN13@CreateSyst:
  00057	5e		 pop	 esi
; File C:\Users\flourine\Desktop\Xantios\client-src\Code\eterGrnLib\ThingInstance.cpp

; 42   : }

  00058	5d		 pop	 ebp
  00059	c3		 ret	 0
$LN19@CreateSyst:
; File C:\Program Files\Microsoft Visual Studio\2022\Community\VC\Tools\MSVC\14.34.31933\include\vector

; 1745 :                 _Xlength();

  0005a	e8 00 00 00 00	 call	 ?_Xlength@?$vector@PAVCGraphicThingInstance@@V?$allocator@PAVCGraphicThingInstance@@@std@@@std@@CAXXZ ; std::vector<CGraphicThingInstance *,std::allocator<CGraphicThingInstance *> >::_Xlength
$LN21@CreateSyst:
  0005f	cc		 int	 3
?CreateSystem@CGraphicThingInstance@@SAXI@Z ENDP	; CGraphicThingInstance::CreateSystem
_TEXT	ENDS
; Function compile flags: /Ogtp
; File C:\Users\flourine\Desktop\Xantios\client-src\Code\eterGrnLib\ThingInstance.cpp
;	COMDAT ?OnGetObjectHeight@CGraphicThingInstance@@MAE_NMMPAM@Z
_TEXT	SEGMENT
_fX$ = 8						; size = 4
_fY$ = 12						; size = 4
_pfHeight$ = 16						; size = 4
?OnGetObjectHeight@CGraphicThingInstance@@MAE_NMMPAM@Z PROC ; CGraphicThingInstance::OnGetObjectHeight, COMDAT
; _this$ = ecx

; 92   : {

  00000	55		 push	 ebp
  00001	8b ec		 mov	 ebp, esp

; 93   : 	if (m_pHeightAttributeInstance && m_pHeightAttributeInstance->GetHeight(fX, fY, pfHeight))

  00003	8b 89 b8 01 00
	00		 mov	 ecx, DWORD PTR [ecx+440]
  00009	85 c9		 test	 ecx, ecx
  0000b	74 29		 je	 SHORT $LN2@OnGetObjec
  0000d	ff 75 10	 push	 DWORD PTR _pfHeight$[ebp]
  00010	f3 0f 10 45 0c	 movss	 xmm0, DWORD PTR _fY$[ebp]
  00015	83 ec 08	 sub	 esp, 8
  00018	f3 0f 11 44 24
	04		 movss	 DWORD PTR [esp+4], xmm0
  0001e	f3 0f 10 45 08	 movss	 xmm0, DWORD PTR _fX$[ebp]
  00023	f3 0f 11 04 24	 movss	 DWORD PTR [esp], xmm0
  00028	e8 00 00 00 00	 call	 ?GetHeight@CAttributeInstance@@QAEHMMPAM@Z ; CAttributeInstance::GetHeight
  0002d	85 c0		 test	 eax, eax
  0002f	0f 95 c0	 setne	 al

; 98   : }

  00032	5d		 pop	 ebp
  00033	c2 0c 00	 ret	 12			; 0000000cH
$LN2@OnGetObjec:

; 94   : 	{
; 95   : 		return true;
; 96   : 	}
; 97   : 	return false;

  00036	32 c0		 xor	 al, al

; 98   : }

  00038	5d		 pop	 ebp
  00039	c2 0c 00	 ret	 12			; 0000000cH
?OnGetObjectHeight@CGraphicThingInstance@@MAE_NMMPAM@Z ENDP ; CGraphicThingInstance::OnGetObjectHeight
_TEXT	ENDS
; Function compile flags: /Ogtp
; File C:\Users\flourine\Desktop\Xantios\client-src\Code\eterGrnLib\ThingInstance.cpp
;	COMDAT ?OnUpdateHeighInstance@CGraphicThingInstance@@MAEXPAVCAttributeInstance@@@Z
_TEXT	SEGMENT
_pAttributeInstance$ = 8				; size = 4
?OnUpdateHeighInstance@CGraphicThingInstance@@MAEXPAVCAttributeInstance@@@Z PROC ; CGraphicThingInstance::OnUpdateHeighInstance, COMDAT
; _this$ = ecx

; 86   : {

  00000	55		 push	 ebp
  00001	8b ec		 mov	 ebp, esp

; 89   : }

  00003	5d		 pop	 ebp

; 87   : 	assert(pAttributeInstance);
; 88   : 	SetHeightInstance(pAttributeInstance);

  00004	e9 00 00 00 00	 jmp	 ?SetHeightInstance@CGraphicObjectInstance@@QAEXPAVCAttributeInstance@@@Z ; CGraphicObjectInstance::SetHeightInstance
?OnUpdateHeighInstance@CGraphicThingInstance@@MAEXPAVCAttributeInstance@@@Z ENDP ; CGraphicThingInstance::OnUpdateHeighInstance
_TEXT	ENDS
; Function compile flags: /Ogtp
; File C:\Users\flourine\Desktop\Xantios\client-src\Code\eterGrnLib\ThingInstance.cpp
; File C:\Program Files\Microsoft Visual Studio\2022\Community\VC\Tools\MSVC\14.34.31933\include\vector
; File C:\Users\flourine\Desktop\Xantios\client-src\Code\eterGrnLib\ThingInstance.cpp
; File C:\Program Files\Microsoft Visual Studio\2022\Community\VC\Tools\MSVC\14.34.31933\include\vector
; File C:\Users\flourine\Desktop\Xantios\client-src\Code\eterGrnLib\ThingInstance.cpp
; File C:\Program Files\Microsoft Visual Studio\2022\Community\VC\Tools\MSVC\14.34.31933\include\vector
; File C:\Users\flourine\Desktop\Xantios\client-src\Code\eterGrnLib\ThingInstance.cpp
;	COMDAT ?OnUpdateCollisionData@CGraphicThingInstance@@MAEXPBV?$vector@VCStaticCollisionData@@V?$allocator@VCStaticCollisionData@@@std@@@std@@@Z
_TEXT	SEGMENT
_pscdVector$ = 8					; size = 4
?OnUpdateCollisionData@CGraphicThingInstance@@MAEXPBV?$vector@VCStaticCollisionData@@V?$allocator@VCStaticCollisionData@@@std@@@std@@@Z PROC ; CGraphicThingInstance::OnUpdateCollisionData, COMDAT
; _this$ = ecx

; 76   : {

  00000	55		 push	 ebp
  00001	8b ec		 mov	 ebp, esp
  00003	53		 push	 ebx
; File C:\Program Files\Microsoft Visual Studio\2022\Community\VC\Tools\MSVC\14.34.31933\include\vector

; 41   :     _CONSTEXPR20 _Vector_const_iterator(_Tptr _Parg, const _Container_base* _Pvector) noexcept : _Ptr(_Parg) {

  00004	8b 5d 08	 mov	 ebx, DWORD PTR _pscdVector$[ebp]
; File C:\Users\flourine\Desktop\Xantios\client-src\Code\eterGrnLib\ThingInstance.cpp

; 76   : {

  00007	56		 push	 esi
  00008	57		 push	 edi
  00009	8b f9		 mov	 edi, ecx
; File C:\Program Files\Microsoft Visual Studio\2022\Community\VC\Tools\MSVC\14.34.31933\include\vector

; 41   :     _CONSTEXPR20 _Vector_const_iterator(_Tptr _Parg, const _Container_base* _Pvector) noexcept : _Ptr(_Parg) {

  0000b	8b 33		 mov	 esi, DWORD PTR [ebx]
  0000d	3b 73 04	 cmp	 esi, DWORD PTR [ebx+4]
; File C:\Users\flourine\Desktop\Xantios\client-src\Code\eterGrnLib\ThingInstance.cpp

; 79   : 	for (it = pscdVector->begin(); it != pscdVector->end(); ++it)

  00010	74 18		 je	 SHORT $LN3@OnUpdateCo
$LL15@OnUpdateCo:

; 80   : 	{
; 81   : 		AddCollision(&(*it), &GetTransform());

  00012	8b cf		 mov	 ecx, edi
  00014	e8 00 00 00 00	 call	 ?GetTransform@CGraphicObjectInstance@@QAEAAUD3DXMATRIX@@XZ ; CGraphicObjectInstance::GetTransform
  00019	50		 push	 eax
  0001a	56		 push	 esi
  0001b	8b cf		 mov	 ecx, edi
  0001d	e8 00 00 00 00	 call	 ?AddCollision@CGraphicObjectInstance@@QAEXPBVCStaticCollisionData@@PBUD3DXMATRIX@@@Z ; CGraphicObjectInstance::AddCollision
; File C:\Program Files\Microsoft Visual Studio\2022\Community\VC\Tools\MSVC\14.34.31933\include\vector

; 74   :         ++_Ptr;

  00022	83 c6 50	 add	 esi, 80			; 00000050H

; 156  :         return _Ptr == _Right._Ptr;

  00025	3b 73 04	 cmp	 esi, DWORD PTR [ebx+4]
; File C:\Users\flourine\Desktop\Xantios\client-src\Code\eterGrnLib\ThingInstance.cpp

; 79   : 	for (it = pscdVector->begin(); it != pscdVector->end(); ++it)

  00028	75 e8		 jne	 SHORT $LL15@OnUpdateCo
$LN3@OnUpdateCo:
  0002a	5f		 pop	 edi

; 82   : 	}
; 83   : }

  0002b	5e		 pop	 esi
  0002c	5b		 pop	 ebx
  0002d	5d		 pop	 ebp
  0002e	c2 04 00	 ret	 4
?OnUpdateCollisionData@CGraphicThingInstance@@MAEXPBV?$vector@VCStaticCollisionData@@V?$allocator@VCStaticCollisionData@@@std@@@std@@@Z ENDP ; CGraphicThingInstance::OnUpdateCollisionData
_TEXT	ENDS
; Function compile flags: /Ogtp
;	COMDAT ??1?$map@KPAV?$CRef@VCGraphicThing@@@@U?$less@K@std@@V?$allocator@U?$pair@$$CBKPAV?$CRef@VCGraphicThing@@@@@std@@@3@@std@@QAE@XZ
_TEXT	SEGMENT
??1?$map@KPAV?$CRef@VCGraphicThing@@@@U?$less@K@std@@V?$allocator@U?$pair@$$CBKPAV?$CRef@VCGraphicThing@@@@@std@@@3@@std@@QAE@XZ PROC ; std::map<unsigned long,CRef<CGraphicThing> *,std::less<unsigned long>,std::allocator<std::pair<unsigned long const ,CRef<CGraphicThing> *> > >::~map<unsigned long,CRef<CGraphicThing> *,std::less<unsigned long>,std::allocator<std::pair<unsigned long const ,CRef<CGraphicThing> *> > >, COMDAT
; _this$ = ecx
  00000	e9 00 00 00 00	 jmp	 ??1?$_Tree@V?$_Tmap_traits@KPAV?$CRef@VCGraphicThing@@@@U?$less@K@std@@V?$allocator@U?$pair@$$CBKPAV?$CRef@VCGraphicThing@@@@@std@@@3@$0A@@std@@@std@@QAE@XZ ; std::_Tree<std::_Tmap_traits<unsigned long,CRef<CGraphicThing> *,std::less<unsigned long>,std::allocator<std::pair<unsigned long const ,CRef<CGraphicThing> *> >,0> >::~_Tree<std::_Tmap_traits<unsigned long,CRef<CGraphicThing> *,std::less<unsigned long>,std::allocator<std::pair<unsigned long const ,CRef<CGraphicThing> *> >,0> >
??1?$map@KPAV?$CRef@VCGraphicThing@@@@U?$less@K@std@@V?$allocator@U?$pair@$$CBKPAV?$CRef@VCGraphicThing@@@@@std@@@3@@std@@QAE@XZ ENDP ; std::map<unsigned long,CRef<CGraphicThing> *,std::less<unsigned long>,std::allocator<std::pair<unsigned long const ,CRef<CGraphicThing> *> > >::~map<unsigned long,CRef<CGraphicThing> *,std::less<unsigned long>,std::allocator<std::pair<unsigned long const ,CRef<CGraphicThing> *> > >
_TEXT	ENDS
; Function compile flags: /Ogtp
; File C:\Program Files\Microsoft Visual Studio\2022\Community\VC\Tools\MSVC\14.34.31933\include\xtree
;	COMDAT ?_Insert_node@?$_Tree_val@U?$_Tree_simple_types@U?$pair@$$CBKPAV?$CRef@VCGraphicThing@@@@@std@@@std@@@std@@QAEPAU?$_Tree_node@U?$pair@$$CBKPAV?$CRef@VCGraphicThing@@@@@std@@PAX@2@U?$_Tree_id@PAU?$_Tree_node@U?$pair@$$CBKPAV?$CRef@VCGraphicThing@@@@@std@@PAX@std@@@2@QAU32@@Z
_TEXT	SEGMENT
__Head$1$ = -4						; size = 4
__Loc$ = 8						; size = 8
__Newnode$ = 16						; size = 4
?_Insert_node@?$_Tree_val@U?$_Tree_simple_types@U?$pair@$$CBKPAV?$CRef@VCGraphicThing@@@@@std@@@std@@@std@@QAEPAU?$_Tree_node@U?$pair@$$CBKPAV?$CRef@VCGraphicThing@@@@@std@@PAX@2@U?$_Tree_id@PAU?$_Tree_node@U?$pair@$$CBKPAV?$CRef@VCGraphicThing@@@@@std@@PAX@std@@@2@QAU32@@Z PROC ; std::_Tree_val<std::_Tree_simple_types<std::pair<unsigned long const ,CRef<CGraphicThing> *> > >::_Insert_node, COMDAT
; _this$ = ecx

; 646  :     _Nodeptr _Insert_node(const _Tree_id<_Nodeptr> _Loc, const _Nodeptr _Newnode) noexcept {

  00000	55		 push	 ebp
  00001	8b ec		 mov	 ebp, esp
  00003	51		 push	 ecx

; 647  :         ++_Mysize;
; 648  :         const auto _Head  = _Myhead;
; 649  :         _Newnode->_Parent = _Loc._Parent;

  00004	8b 55 08	 mov	 edx, DWORD PTR __Loc$[ebp]
  00007	53		 push	 ebx
  00008	8b d9		 mov	 ebx, ecx
  0000a	57		 push	 edi
  0000b	8b 7d 10	 mov	 edi, DWORD PTR __Newnode$[ebp]
  0000e	8b 03		 mov	 eax, DWORD PTR [ebx]
  00010	ff 43 04	 inc	 DWORD PTR [ebx+4]
  00013	89 45 fc	 mov	 DWORD PTR __Head$1$[ebp], eax
  00016	89 57 04	 mov	 DWORD PTR [edi+4], edx

; 650  :         if (_Loc._Parent == _Head) { // first node in tree, just set head values

  00019	3b d0		 cmp	 edx, eax
  0001b	75 16		 jne	 SHORT $LN5@Insert_nod

; 651  :             _Head->_Left     = _Newnode;

  0001d	89 38		 mov	 DWORD PTR [eax], edi

; 652  :             _Head->_Parent   = _Newnode;

  0001f	89 78 04	 mov	 DWORD PTR [eax+4], edi

; 653  :             _Head->_Right    = _Newnode;

  00022	89 78 08	 mov	 DWORD PTR [eax+8], edi

; 712  :         return _Newnode;
; 713  :     }

  00025	8b c7		 mov	 eax, edi
  00027	c6 47 0c 01	 mov	 BYTE PTR [edi+12], 1
  0002b	5f		 pop	 edi
  0002c	5b		 pop	 ebx
  0002d	8b e5		 mov	 esp, ebp
  0002f	5d		 pop	 ebp
  00030	c2 0c 00	 ret	 12			; 0000000cH
$LN5@Insert_nod:

; 654  :             _Newnode->_Color = _Black; // the root is black
; 655  :             return _Newnode;
; 656  :         }
; 657  : 
; 658  :         _STL_INTERNAL_CHECK(_Loc._Child != _Tree_child::_Unused);
; 659  :         if (_Loc._Child == _Tree_child::_Right) { // add to right of _Loc._Parent

  00033	83 7d 0c 00	 cmp	 DWORD PTR __Loc$[ebp+4], 0
  00037	75 0d		 jne	 SHORT $LN6@Insert_nod

; 660  :             _STL_INTERNAL_CHECK(_Loc._Parent->_Right->_Isnil);
; 661  :             _Loc._Parent->_Right = _Newnode;

  00039	89 7a 08	 mov	 DWORD PTR [edx+8], edi

; 662  :             if (_Loc._Parent == _Head->_Right) { // remember rightmost node

  0003c	3b 50 08	 cmp	 edx, DWORD PTR [eax+8]
  0003f	75 0d		 jne	 SHORT $LN9@Insert_nod

; 663  :                 _Head->_Right = _Newnode;

  00041	89 78 08	 mov	 DWORD PTR [eax+8], edi

; 664  :             }
; 665  :         } else { // add to left of _Loc._Parent

  00044	eb 08		 jmp	 SHORT $LN9@Insert_nod
$LN6@Insert_nod:

; 666  :             _STL_INTERNAL_CHECK(_Loc._Parent->_Left->_Isnil);
; 667  :             _Loc._Parent->_Left = _Newnode;

  00046	89 3a		 mov	 DWORD PTR [edx], edi

; 668  :             if (_Loc._Parent == _Head->_Left) { // remember leftmost node

  00048	3b 10		 cmp	 edx, DWORD PTR [eax]
  0004a	75 02		 jne	 SHORT $LN9@Insert_nod

; 669  :                 _Head->_Left = _Newnode;

  0004c	89 38		 mov	 DWORD PTR [eax], edi
$LN9@Insert_nod:

; 670  :             }
; 671  :         }
; 672  : 
; 673  :         for (_Nodeptr _Pnode = _Newnode; _Pnode->_Parent->_Color == _Red;) {

  0004e	8b 4f 04	 mov	 ecx, DWORD PTR [edi+4]
  00051	8b c7		 mov	 eax, edi
  00053	80 79 0c 00	 cmp	 BYTE PTR [ecx+12], 0
  00057	0f 85 7d 01 00
	00		 jne	 $LN3@Insert_nod
  0005d	56		 push	 esi
  0005e	66 90		 npad	 2
$LL2@Insert_nod:

; 674  :             if (_Pnode->_Parent == _Pnode->_Parent->_Parent->_Left) { // fixup red-red in left subtree

  00060	8b 50 04	 mov	 edx, DWORD PTR [eax+4]
  00063	8b 72 04	 mov	 esi, DWORD PTR [edx+4]
  00066	8b 0e		 mov	 ecx, DWORD PTR [esi]
  00068	3b d1		 cmp	 edx, ecx
  0006a	0f 85 aa 00 00
	00		 jne	 $LN10@Insert_nod

; 675  :                 const auto _Parent_sibling = _Pnode->_Parent->_Parent->_Right;

  00070	8b 4e 08	 mov	 ecx, DWORD PTR [esi+8]

; 676  :                 if (_Parent_sibling->_Color == _Red) { // parent's sibling has two red children, blacken both

  00073	80 79 0c 00	 cmp	 BYTE PTR [ecx+12], 0
  00077	0f 84 a3 00 00
	00		 je	 $LN54@Insert_nod

; 677  :                     _Pnode->_Parent->_Color          = _Black;
; 678  :                     _Parent_sibling->_Color          = _Black;
; 679  :                     _Pnode->_Parent->_Parent->_Color = _Red;
; 680  :                     _Pnode                           = _Pnode->_Parent->_Parent;
; 681  :                 } else { // parent's sibling has red and black children
; 682  :                     if (_Pnode == _Pnode->_Parent->_Right) { // rotate right child to left

  0007d	8b 72 08	 mov	 esi, DWORD PTR [edx+8]
  00080	3b c6		 cmp	 eax, esi
  00082	75 37		 jne	 SHORT $LN51@Insert_nod

; 462  :         _Wherenode->_Right = _Pnode->_Left;

  00084	8b 0e		 mov	 ecx, DWORD PTR [esi]

; 683  :                         _Pnode = _Pnode->_Parent;

  00086	8b c2		 mov	 eax, edx

; 462  :         _Wherenode->_Right = _Pnode->_Left;

  00088	89 4a 08	 mov	 DWORD PTR [edx+8], ecx

; 463  : 
; 464  :         if (!_Pnode->_Left->_Isnil) {

  0008b	8b 0e		 mov	 ecx, DWORD PTR [esi]
  0008d	80 79 0d 00	 cmp	 BYTE PTR [ecx+13], 0
  00091	75 03		 jne	 SHORT $LN34@Insert_nod

; 465  :             _Pnode->_Left->_Parent = _Wherenode;

  00093	89 41 04	 mov	 DWORD PTR [ecx+4], eax
$LN34@Insert_nod:

; 466  :         }
; 467  : 
; 468  :         _Pnode->_Parent = _Wherenode->_Parent;

  00096	8b 4a 04	 mov	 ecx, DWORD PTR [edx+4]
  00099	89 4e 04	 mov	 DWORD PTR [esi+4], ecx

; 469  : 
; 470  :         if (_Wherenode == _Myhead->_Parent) {

  0009c	8b 0b		 mov	 ecx, DWORD PTR [ebx]
  0009e	3b 41 04	 cmp	 eax, DWORD PTR [ecx+4]
  000a1	75 05		 jne	 SHORT $LN35@Insert_nod

; 471  :             _Myhead->_Parent = _Pnode;

  000a3	89 71 04	 mov	 DWORD PTR [ecx+4], esi
  000a6	eb 0e		 jmp	 SHORT $LN38@Insert_nod
$LN35@Insert_nod:

; 472  :         } else if (_Wherenode == _Wherenode->_Parent->_Left) {

  000a8	8b 4a 04	 mov	 ecx, DWORD PTR [edx+4]
  000ab	3b 01		 cmp	 eax, DWORD PTR [ecx]
  000ad	75 04		 jne	 SHORT $LN37@Insert_nod

; 473  :             _Wherenode->_Parent->_Left = _Pnode;

  000af	89 31		 mov	 DWORD PTR [ecx], esi

; 474  :         } else {

  000b1	eb 03		 jmp	 SHORT $LN38@Insert_nod
$LN37@Insert_nod:

; 475  :             _Wherenode->_Parent->_Right = _Pnode;

  000b3	89 71 08	 mov	 DWORD PTR [ecx+8], esi
$LN38@Insert_nod:

; 476  :         }
; 477  : 
; 478  :         _Pnode->_Left       = _Wherenode;

  000b6	89 06		 mov	 DWORD PTR [esi], eax

; 479  :         _Wherenode->_Parent = _Pnode;

  000b8	89 72 04	 mov	 DWORD PTR [edx+4], esi
$LN51@Insert_nod:

; 684  :                         _Lrotate(_Pnode);
; 685  :                     }
; 686  : 
; 687  :                     _Pnode->_Parent->_Color          = _Black; // propagate red up

  000bb	8b 48 04	 mov	 ecx, DWORD PTR [eax+4]
  000be	c6 41 0c 01	 mov	 BYTE PTR [ecx+12], 1

; 688  :                     _Pnode->_Parent->_Parent->_Color = _Red;

  000c2	8b 48 04	 mov	 ecx, DWORD PTR [eax+4]
  000c5	8b 49 04	 mov	 ecx, DWORD PTR [ecx+4]
  000c8	c6 41 0c 00	 mov	 BYTE PTR [ecx+12], 0

; 689  :                     _Rrotate(_Pnode->_Parent->_Parent);

  000cc	8b 48 04	 mov	 ecx, DWORD PTR [eax+4]
  000cf	8b 51 04	 mov	 edx, DWORD PTR [ecx+4]

; 483  :         _Nodeptr _Pnode   = _Wherenode->_Left;

  000d2	8b 32		 mov	 esi, DWORD PTR [edx]

; 484  :         _Wherenode->_Left = _Pnode->_Right;

  000d4	8b 4e 08	 mov	 ecx, DWORD PTR [esi+8]
  000d7	89 0a		 mov	 DWORD PTR [edx], ecx

; 485  : 
; 486  :         if (!_Pnode->_Right->_Isnil) {

  000d9	8b 4e 08	 mov	 ecx, DWORD PTR [esi+8]
  000dc	80 79 0d 00	 cmp	 BYTE PTR [ecx+13], 0
  000e0	75 03		 jne	 SHORT $LN20@Insert_nod

; 487  :             _Pnode->_Right->_Parent = _Wherenode;

  000e2	89 51 04	 mov	 DWORD PTR [ecx+4], edx
$LN20@Insert_nod:

; 488  :         }
; 489  : 
; 490  :         _Pnode->_Parent = _Wherenode->_Parent;

  000e5	8b 4a 04	 mov	 ecx, DWORD PTR [edx+4]
  000e8	89 4e 04	 mov	 DWORD PTR [esi+4], ecx

; 491  : 
; 492  :         if (_Wherenode == _Myhead->_Parent) {

  000eb	8b 0b		 mov	 ecx, DWORD PTR [ebx]
  000ed	3b 51 04	 cmp	 edx, DWORD PTR [ecx+4]
  000f0	75 0b		 jne	 SHORT $LN21@Insert_nod

; 493  :             _Myhead->_Parent = _Pnode;

  000f2	89 71 04	 mov	 DWORD PTR [ecx+4], esi

; 498  :         }
; 499  : 
; 500  :         _Pnode->_Right      = _Wherenode;

  000f5	89 56 08	 mov	 DWORD PTR [esi+8], edx

; 690  :                 }
; 691  :             } else { // fixup red-red in right subtree

  000f8	e9 cc 00 00 00	 jmp	 $LN53@Insert_nod
$LN21@Insert_nod:

; 494  :         } else if (_Wherenode == _Wherenode->_Parent->_Right) {

  000fd	8b 4a 04	 mov	 ecx, DWORD PTR [edx+4]
  00100	3b 51 08	 cmp	 edx, DWORD PTR [ecx+8]
  00103	75 0b		 jne	 SHORT $LN23@Insert_nod

; 495  :             _Wherenode->_Parent->_Right = _Pnode;

  00105	89 71 08	 mov	 DWORD PTR [ecx+8], esi

; 498  :         }
; 499  : 
; 500  :         _Pnode->_Right      = _Wherenode;

  00108	89 56 08	 mov	 DWORD PTR [esi+8], edx

; 690  :                 }
; 691  :             } else { // fixup red-red in right subtree

  0010b	e9 b9 00 00 00	 jmp	 $LN53@Insert_nod
$LN23@Insert_nod:

; 497  :             _Wherenode->_Parent->_Left = _Pnode;

  00110	89 31		 mov	 DWORD PTR [ecx], esi

; 498  :         }
; 499  : 
; 500  :         _Pnode->_Right      = _Wherenode;

  00112	89 56 08	 mov	 DWORD PTR [esi+8], edx

; 690  :                 }
; 691  :             } else { // fixup red-red in right subtree

  00115	e9 af 00 00 00	 jmp	 $LN53@Insert_nod
$LN10@Insert_nod:

; 692  :                 const auto _Parent_sibling = _Pnode->_Parent->_Parent->_Left;
; 693  :                 if (_Parent_sibling->_Color == _Red) { // parent's sibling has two red children, blacken both

  0011a	80 79 0c 00	 cmp	 BYTE PTR [ecx+12], 0
  0011e	75 1d		 jne	 SHORT $LN15@Insert_nod
$LN54@Insert_nod:

; 670  :             }
; 671  :         }
; 672  : 
; 673  :         for (_Nodeptr _Pnode = _Newnode; _Pnode->_Parent->_Color == _Red;) {

  00120	c6 42 0c 01	 mov	 BYTE PTR [edx+12], 1
  00124	c6 41 0c 01	 mov	 BYTE PTR [ecx+12], 1
  00128	8b 48 04	 mov	 ecx, DWORD PTR [eax+4]
  0012b	8b 49 04	 mov	 ecx, DWORD PTR [ecx+4]
  0012e	c6 41 0c 00	 mov	 BYTE PTR [ecx+12], 0
  00132	8b 48 04	 mov	 ecx, DWORD PTR [eax+4]
  00135	8b 41 04	 mov	 eax, DWORD PTR [ecx+4]
  00138	e9 8f 00 00 00	 jmp	 $LN32@Insert_nod
$LN15@Insert_nod:

; 694  :                     _Pnode->_Parent->_Color          = _Black;
; 695  :                     _Parent_sibling->_Color          = _Black;
; 696  :                     _Pnode->_Parent->_Parent->_Color = _Red;
; 697  :                     _Pnode                           = _Pnode->_Parent->_Parent;
; 698  :                 } else { // parent's sibling has red and black children
; 699  :                     if (_Pnode == _Pnode->_Parent->_Left) { // rotate left child to right

  0013d	8b 32		 mov	 esi, DWORD PTR [edx]
  0013f	3b c6		 cmp	 eax, esi
  00141	75 3a		 jne	 SHORT $LN46@Insert_nod

; 484  :         _Wherenode->_Left = _Pnode->_Right;

  00143	8b 4e 08	 mov	 ecx, DWORD PTR [esi+8]

; 700  :                         _Pnode = _Pnode->_Parent;

  00146	8b c2		 mov	 eax, edx

; 484  :         _Wherenode->_Left = _Pnode->_Right;

  00148	89 08		 mov	 DWORD PTR [eax], ecx

; 485  : 
; 486  :         if (!_Pnode->_Right->_Isnil) {

  0014a	8b 4e 08	 mov	 ecx, DWORD PTR [esi+8]
  0014d	80 79 0d 00	 cmp	 BYTE PTR [ecx+13], 0
  00151	75 03		 jne	 SHORT $LN41@Insert_nod

; 487  :             _Pnode->_Right->_Parent = _Wherenode;

  00153	89 41 04	 mov	 DWORD PTR [ecx+4], eax
$LN41@Insert_nod:

; 488  :         }
; 489  : 
; 490  :         _Pnode->_Parent = _Wherenode->_Parent;

  00156	8b 4a 04	 mov	 ecx, DWORD PTR [edx+4]
  00159	89 4e 04	 mov	 DWORD PTR [esi+4], ecx

; 491  : 
; 492  :         if (_Wherenode == _Myhead->_Parent) {

  0015c	8b 0b		 mov	 ecx, DWORD PTR [ebx]
  0015e	3b 41 04	 cmp	 eax, DWORD PTR [ecx+4]
  00161	75 05		 jne	 SHORT $LN42@Insert_nod

; 493  :             _Myhead->_Parent = _Pnode;

  00163	89 71 04	 mov	 DWORD PTR [ecx+4], esi
  00166	eb 0f		 jmp	 SHORT $LN45@Insert_nod
$LN42@Insert_nod:

; 494  :         } else if (_Wherenode == _Wherenode->_Parent->_Right) {

  00168	8b 4a 04	 mov	 ecx, DWORD PTR [edx+4]
  0016b	3b 41 08	 cmp	 eax, DWORD PTR [ecx+8]
  0016e	75 05		 jne	 SHORT $LN44@Insert_nod

; 495  :             _Wherenode->_Parent->_Right = _Pnode;

  00170	89 71 08	 mov	 DWORD PTR [ecx+8], esi

; 496  :         } else {

  00173	eb 02		 jmp	 SHORT $LN45@Insert_nod
$LN44@Insert_nod:

; 497  :             _Wherenode->_Parent->_Left = _Pnode;

  00175	89 31		 mov	 DWORD PTR [ecx], esi
$LN45@Insert_nod:

; 498  :         }
; 499  : 
; 500  :         _Pnode->_Right      = _Wherenode;

  00177	89 46 08	 mov	 DWORD PTR [esi+8], eax

; 501  :         _Wherenode->_Parent = _Pnode;

  0017a	89 72 04	 mov	 DWORD PTR [edx+4], esi
$LN46@Insert_nod:

; 701  :                         _Rrotate(_Pnode);
; 702  :                     }
; 703  : 
; 704  :                     _Pnode->_Parent->_Color          = _Black; // propagate red up

  0017d	8b 48 04	 mov	 ecx, DWORD PTR [eax+4]
  00180	c6 41 0c 01	 mov	 BYTE PTR [ecx+12], 1

; 705  :                     _Pnode->_Parent->_Parent->_Color = _Red;

  00184	8b 48 04	 mov	 ecx, DWORD PTR [eax+4]
  00187	8b 49 04	 mov	 ecx, DWORD PTR [ecx+4]
  0018a	c6 41 0c 00	 mov	 BYTE PTR [ecx+12], 0

; 706  :                     _Lrotate(_Pnode->_Parent->_Parent);

  0018e	8b 48 04	 mov	 ecx, DWORD PTR [eax+4]
  00191	8b 51 04	 mov	 edx, DWORD PTR [ecx+4]

; 461  :         _Nodeptr _Pnode    = _Wherenode->_Right;

  00194	8b 72 08	 mov	 esi, DWORD PTR [edx+8]

; 462  :         _Wherenode->_Right = _Pnode->_Left;

  00197	8b 0e		 mov	 ecx, DWORD PTR [esi]
  00199	89 4a 08	 mov	 DWORD PTR [edx+8], ecx

; 463  : 
; 464  :         if (!_Pnode->_Left->_Isnil) {

  0019c	8b 0e		 mov	 ecx, DWORD PTR [esi]
  0019e	80 79 0d 00	 cmp	 BYTE PTR [ecx+13], 0
  001a2	75 03		 jne	 SHORT $LN27@Insert_nod

; 465  :             _Pnode->_Left->_Parent = _Wherenode;

  001a4	89 51 04	 mov	 DWORD PTR [ecx+4], edx
$LN27@Insert_nod:

; 466  :         }
; 467  : 
; 468  :         _Pnode->_Parent = _Wherenode->_Parent;

  001a7	8b 4a 04	 mov	 ecx, DWORD PTR [edx+4]
  001aa	89 4e 04	 mov	 DWORD PTR [esi+4], ecx

; 469  : 
; 470  :         if (_Wherenode == _Myhead->_Parent) {

  001ad	8b 0b		 mov	 ecx, DWORD PTR [ebx]
  001af	3b 51 04	 cmp	 edx, DWORD PTR [ecx+4]
  001b2	75 05		 jne	 SHORT $LN28@Insert_nod

; 471  :             _Myhead->_Parent = _Pnode;

  001b4	89 71 04	 mov	 DWORD PTR [ecx+4], esi
  001b7	eb 0e		 jmp	 SHORT $LN31@Insert_nod
$LN28@Insert_nod:

; 472  :         } else if (_Wherenode == _Wherenode->_Parent->_Left) {

  001b9	8b 4a 04	 mov	 ecx, DWORD PTR [edx+4]
  001bc	3b 11		 cmp	 edx, DWORD PTR [ecx]
  001be	75 04		 jne	 SHORT $LN30@Insert_nod

; 473  :             _Wherenode->_Parent->_Left = _Pnode;

  001c0	89 31		 mov	 DWORD PTR [ecx], esi

; 474  :         } else {

  001c2	eb 03		 jmp	 SHORT $LN31@Insert_nod
$LN30@Insert_nod:

; 475  :             _Wherenode->_Parent->_Right = _Pnode;

  001c4	89 71 08	 mov	 DWORD PTR [ecx+8], esi
$LN31@Insert_nod:

; 476  :         }
; 477  : 
; 478  :         _Pnode->_Left       = _Wherenode;

  001c7	89 16		 mov	 DWORD PTR [esi], edx
$LN53@Insert_nod:

; 670  :             }
; 671  :         }
; 672  : 
; 673  :         for (_Nodeptr _Pnode = _Newnode; _Pnode->_Parent->_Color == _Red;) {

  001c9	89 72 04	 mov	 DWORD PTR [edx+4], esi
