; Listing generated by Microsoft (R) Optimizing Compiler Version 19.34.31942.0 

	TITLE	C:\Users\flourine\Desktop\Xantios\client-src\Code\GameLib\Distribute\ActorInstance.obj
	.686P
	.XMM
	include listing.inc
	.model	flat

INCLUDELIB LIBCMT
INCLUDELIB OLDNAMES

PUBLIC	??_R4?$CDynamicPoolEx@VCHeaderDecorator@NEffectUpdateDecorator@@@@6B@ ; CDynamicPoolEx<NEffectUpdateDecorator::CHeaderDecorator>::`RTTI Complete Object Locator'
PUBLIC	??_R0?AV?$CDynamicPoolEx@VCHeaderDecorator@NEffectUpdateDecorator@@@@@8 ; CDynamicPoolEx<NEffectUpdateDecorator::CHeaderDecorator> `RTTI Type Descriptor'
PUBLIC	??_R3?$CDynamicPoolEx@VCHeaderDecorator@NEffectUpdateDecorator@@@@8 ; CDynamicPoolEx<NEffectUpdateDecorator::CHeaderDecorator>::`RTTI Class Hierarchy Descriptor'
PUBLIC	??_R2?$CDynamicPoolEx@VCHeaderDecorator@NEffectUpdateDecorator@@@@8 ; CDynamicPoolEx<NEffectUpdateDecorator::CHeaderDecorator>::`RTTI Base Class Array'
PUBLIC	??_R1A@?0A@EA@?$CDynamicPoolEx@VCHeaderDecorator@NEffectUpdateDecorator@@@@8 ; CDynamicPoolEx<NEffectUpdateDecorator::CHeaderDecorator>::`RTTI Base Class Descriptor at (0,-1,0,64)'
PUBLIC	??_R4?$CDynamicPoolEx@VCNullDecorator@NEffectUpdateDecorator@@@@6B@ ; CDynamicPoolEx<NEffectUpdateDecorator::CNullDecorator>::`RTTI Complete Object Locator'
PUBLIC	??_R0?AV?$CDynamicPoolEx@VCNullDecorator@NEffectUpdateDecorator@@@@@8 ; CDynamicPoolEx<NEffectUpdateDecorator::CNullDecorator> `RTTI Type Descriptor'
PUBLIC	??_R3?$CDynamicPoolEx@VCNullDecorator@NEffectUpdateDecorator@@@@8 ; CDynamicPoolEx<NEffectUpdateDecorator::CNullDecorator>::`RTTI Class Hierarchy Descriptor'
PUBLIC	??_R2?$CDynamicPoolEx@VCNullDecorator@NEffectUpdateDecorator@@@@8 ; CDynamicPoolEx<NEffectUpdateDecorator::CNullDecorator>::`RTTI Base Class Array'
PUBLIC	??_R1A@?0A@EA@?$CDynamicPoolEx@VCNullDecorator@NEffectUpdateDecorator@@@@8 ; CDynamicPoolEx<NEffectUpdateDecorator::CNullDecorator>::`RTTI Base Class Descriptor at (0,-1,0,64)'
PUBLIC	??_R4?$CDynamicPoolEx@VCTextureAnimationCWDecorator@NEffectUpdateDecorator@@@@6B@ ; CDynamicPoolEx<NEffectUpdateDecorator::CTextureAnimationCWDecorator>::`RTTI Complete Object Locator'
PUBLIC	??_R0?AV?$CDynamicPoolEx@VCTextureAnimationCWDecorator@NEffectUpdateDecorator@@@@@8 ; CDynamicPoolEx<NEffectUpdateDecorator::CTextureAnimationCWDecorator> `RTTI Type Descriptor'
PUBLIC	??_R3?$CDynamicPoolEx@VCTextureAnimationCWDecorator@NEffectUpdateDecorator@@@@8 ; CDynamicPoolEx<NEffectUpdateDecorator::CTextureAnimationCWDecorator>::`RTTI Class Hierarchy Descriptor'
PUBLIC	??_R2?$CDynamicPoolEx@VCTextureAnimationCWDecorator@NEffectUpdateDecorator@@@@8 ; CDynamicPoolEx<NEffectUpdateDecorator::CTextureAnimationCWDecorator>::`RTTI Base Class Array'
PUBLIC	??_R1A@?0A@EA@?$CDynamicPoolEx@VCTextureAnimationCWDecorator@NEffectUpdateDecorator@@@@8 ; CDynamicPoolEx<NEffectUpdateDecorator::CTextureAnimationCWDecorator>::`RTTI Base Class Descriptor at (0,-1,0,64)'
PUBLIC	??_R4?$CDynamicPoolEx@VCTextureAnimationCCWDecorator@NEffectUpdateDecorator@@@@6B@ ; CDynamicPoolEx<NEffectUpdateDecorator::CTextureAnimationCCWDecorator>::`RTTI Complete Object Locator'
PUBLIC	??_R0?AV?$CDynamicPoolEx@VCTextureAnimationCCWDecorator@NEffectUpdateDecorator@@@@@8 ; CDynamicPoolEx<NEffectUpdateDecorator::CTextureAnimationCCWDecorator> `RTTI Type Descriptor'
PUBLIC	??_R3?$CDynamicPoolEx@VCTextureAnimationCCWDecorator@NEffectUpdateDecorator@@@@8 ; CDynamicPoolEx<NEffectUpdateDecorator::CTextureAnimationCCWDecorator>::`RTTI Class Hierarchy Descriptor'
PUBLIC	??_R2?$CDynamicPoolEx@VCTextureAnimationCCWDecorator@NEffectUpdateDecorator@@@@8 ; CDynamicPoolEx<NEffectUpdateDecorator::CTextureAnimationCCWDecorator>::`RTTI Base Class Array'
PUBLIC	??_R1A@?0A@EA@?$CDynamicPoolEx@VCTextureAnimationCCWDecorator@NEffectUpdateDecorator@@@@8 ; CDynamicPoolEx<NEffectUpdateDecorator::CTextureAnimationCCWDecorator>::`RTTI Base Class Descriptor at (0,-1,0,64)'
PUBLIC	??_R4?$CDynamicPoolEx@VCTextureAnimationRandomDecorator@NEffectUpdateDecorator@@@@6B@ ; CDynamicPoolEx<NEffectUpdateDecorator::CTextureAnimationRandomDecorator>::`RTTI Complete Object Locator'
PUBLIC	??_R0?AV?$CDynamicPoolEx@VCTextureAnimationRandomDecorator@NEffectUpdateDecorator@@@@@8 ; CDynamicPoolEx<NEffectUpdateDecorator::CTextureAnimationRandomDecorator> `RTTI Type Descriptor'
PUBLIC	??_R3?$CDynamicPoolEx@VCTextureAnimationRandomDecorator@NEffectUpdateDecorator@@@@8 ; CDynamicPoolEx<NEffectUpdateDecorator::CTextureAnimationRandomDecorator>::`RTTI Class Hierarchy Descriptor'
PUBLIC	??_R2?$CDynamicPoolEx@VCTextureAnimationRandomDecorator@NEffectUpdateDecorator@@@@8 ; CDynamicPoolEx<NEffectUpdateDecorator::CTextureAnimationRandomDecorator>::`RTTI Base Class Array'
PUBLIC	??_R1A@?0A@EA@?$CDynamicPoolEx@VCTextureAnimationRandomDecorator@NEffectUpdateDecorator@@@@8 ; CDynamicPoolEx<NEffectUpdateDecorator::CTextureAnimationRandomDecorator>::`RTTI Base Class Descriptor at (0,-1,0,64)'
PUBLIC	??_R4?$CDynamicPoolEx@VCAirResistanceDecorator@NEffectUpdateDecorator@@@@6B@ ; CDynamicPoolEx<NEffectUpdateDecorator::CAirResistanceDecorator>::`RTTI Complete Object Locator'
PUBLIC	??_R0?AV?$CDynamicPoolEx@VCAirResistanceDecorator@NEffectUpdateDecorator@@@@@8 ; CDynamicPoolEx<NEffectUpdateDecorator::CAirResistanceDecorator> `RTTI Type Descriptor'
PUBLIC	??_R3?$CDynamicPoolEx@VCAirResistanceDecorator@NEffectUpdateDecorator@@@@8 ; CDynamicPoolEx<NEffectUpdateDecorator::CAirResistanceDecorator>::`RTTI Class Hierarchy Descriptor'
PUBLIC	??_R2?$CDynamicPoolEx@VCAirResistanceDecorator@NEffectUpdateDecorator@@@@8 ; CDynamicPoolEx<NEffectUpdateDecorator::CAirResistanceDecorator>::`RTTI Base Class Array'
PUBLIC	??_R1A@?0A@EA@?$CDynamicPoolEx@VCAirResistanceDecorator@NEffectUpdateDecorator@@@@8 ; CDynamicPoolEx<NEffectUpdateDecorator::CAirResistanceDecorator>::`RTTI Base Class Descriptor at (0,-1,0,64)'
PUBLIC	??_R4?$CDynamicPoolEx@VCGravityDecorator@NEffectUpdateDecorator@@@@6B@ ; CDynamicPoolEx<NEffectUpdateDecorator::CGravityDecorator>::`RTTI Complete Object Locator'
PUBLIC	??_R0?AV?$CDynamicPoolEx@VCGravityDecorator@NEffectUpdateDecorator@@@@@8 ; CDynamicPoolEx<NEffectUpdateDecorator::CGravityDecorator> `RTTI Type Descriptor'
PUBLIC	??_R3?$CDynamicPoolEx@VCGravityDecorator@NEffectUpdateDecorator@@@@8 ; CDynamicPoolEx<NEffectUpdateDecorator::CGravityDecorator>::`RTTI Class Hierarchy Descriptor'
PUBLIC	??_R2?$CDynamicPoolEx@VCGravityDecorator@NEffectUpdateDecorator@@@@8 ; CDynamicPoolEx<NEffectUpdateDecorator::CGravityDecorator>::`RTTI Base Class Array'
PUBLIC	??_R1A@?0A@EA@?$CDynamicPoolEx@VCGravityDecorator@NEffectUpdateDecorator@@@@8 ; CDynamicPoolEx<NEffectUpdateDecorator::CGravityDecorator>::`RTTI Base Class Descriptor at (0,-1,0,64)'
PUBLIC	??_R4?$CDynamicPoolEx@VCRotationDecorator@NEffectUpdateDecorator@@@@6B@ ; CDynamicPoolEx<NEffectUpdateDecorator::CRotationDecorator>::`RTTI Complete Object Locator'
PUBLIC	??_R0?AV?$CDynamicPoolEx@VCRotationDecorator@NEffectUpdateDecorator@@@@@8 ; CDynamicPoolEx<NEffectUpdateDecorator::CRotationDecorator> `RTTI Type Descriptor'
PUBLIC	??_R3?$CDynamicPoolEx@VCRotationDecorator@NEffectUpdateDecorator@@@@8 ; CDynamicPoolEx<NEffectUpdateDecorator::CRotationDecorator>::`RTTI Class Hierarchy Descriptor'
PUBLIC	??_R2?$CDynamicPoolEx@VCRotationDecorator@NEffectUpdateDecorator@@@@8 ; CDynamicPoolEx<NEffectUpdateDecorator::CRotationDecorator>::`RTTI Base Class Array'
PUBLIC	??_R1A@?0A@EA@?$CDynamicPoolEx@VCRotationDecorator@NEffectUpdateDecorator@@@@8 ; CDynamicPoolEx<NEffectUpdateDecorator::CRotationDecorator>::`RTTI Base Class Descriptor at (0,-1,0,64)'
PUBLIC	??_7?$CDynamicPoolEx@VCRotationDecorator@NEffectUpdateDecorator@@@@6B@ ; CDynamicPoolEx<NEffectUpdateDecorator::CRotationDecorator>::`vftable'
PUBLIC	??_G?$CDynamicPoolEx@VCRotationDecorator@NEffectUpdateDecorator@@@@UAEPAXI@Z ; CDynamicPoolEx<NEffectUpdateDecorator::CRotationDecorator>::`scalar deleting destructor'
PUBLIC	?_Fake_alloc@std@@3U_Fake_allocator@1@B		; std::_Fake_alloc
PUBLIC	??_7?$CDynamicPoolEx@VCGravityDecorator@NEffectUpdateDecorator@@@@6B@ ; CDynamicPoolEx<NEffectUpdateDecorator::CGravityDecorator>::`vftable'
PUBLIC	??_G?$CDynamicPoolEx@VCGravityDecorator@NEffectUpdateDecorator@@@@UAEPAXI@Z ; CDynamicPoolEx<NEffectUpdateDecorator::CGravityDecorator>::`scalar deleting destructor'
PUBLIC	??_7?$CDynamicPoolEx@VCAirResistanceDecorator@NEffectUpdateDecorator@@@@6B@ ; CDynamicPoolEx<NEffectUpdateDecorator::CAirResistanceDecorator>::`vftable'
PUBLIC	??_G?$CDynamicPoolEx@VCAirResistanceDecorator@NEffectUpdateDecorator@@@@UAEPAXI@Z ; CDynamicPoolEx<NEffectUpdateDecorator::CAirResistanceDecorator>::`scalar deleting destructor'
PUBLIC	??_7?$CDynamicPoolEx@VCTextureAnimationRandomDecorator@NEffectUpdateDecorator@@@@6B@ ; CDynamicPoolEx<NEffectUpdateDecorator::CTextureAnimationRandomDecorator>::`vftable'
PUBLIC	??_G?$CDynamicPoolEx@VCTextureAnimationRandomDecorator@NEffectUpdateDecorator@@@@UAEPAXI@Z ; CDynamicPoolEx<NEffectUpdateDecorator::CTextureAnimationRandomDecorator>::`scalar deleting destructor'
PUBLIC	??_7?$CDynamicPoolEx@VCTextureAnimationCCWDecorator@NEffectUpdateDecorator@@@@6B@ ; CDynamicPoolEx<NEffectUpdateDecorator::CTextureAnimationCCWDecorator>::`vftable'
PUBLIC	??_G?$CDynamicPoolEx@VCTextureAnimationCCWDecorator@NEffectUpdateDecorator@@@@UAEPAXI@Z ; CDynamicPoolEx<NEffectUpdateDecorator::CTextureAnimationCCWDecorator>::`scalar deleting destructor'
PUBLIC	??_7?$CDynamicPoolEx@VCTextureAnimationCWDecorator@NEffectUpdateDecorator@@@@6B@ ; CDynamicPoolEx<NEffectUpdateDecorator::CTextureAnimationCWDecorator>::`vftable'
PUBLIC	??_G?$CDynamicPoolEx@VCTextureAnimationCWDecorator@NEffectUpdateDecorator@@@@UAEPAXI@Z ; CDynamicPoolEx<NEffectUpdateDecorator::CTextureAnimationCWDecorator>::`scalar deleting destructor'
PUBLIC	??_7?$CDynamicPoolEx@VCNullDecorator@NEffectUpdateDecorator@@@@6B@ ; CDynamicPoolEx<NEffectUpdateDecorator::CNullDecorator>::`vftable'
PUBLIC	??_G?$CDynamicPoolEx@VCNullDecorator@NEffectUpdateDecorator@@@@UAEPAXI@Z ; CDynamicPoolEx<NEffectUpdateDecorator::CNullDecorator>::`scalar deleting destructor'
PUBLIC	??_7?$CDynamicPoolEx@VCHeaderDecorator@NEffectUpdateDecorator@@@@6B@ ; CDynamicPoolEx<NEffectUpdateDecorator::CHeaderDecorator>::`vftable'
PUBLIC	??_G?$CDynamicPoolEx@VCHeaderDecorator@NEffectUpdateDecorator@@@@UAEPAXI@Z ; CDynamicPoolEx<NEffectUpdateDecorator::CHeaderDecorator>::`scalar deleting destructor'
EXTRN	??_E?$CDynamicPoolEx@VCRotationDecorator@NEffectUpdateDecorator@@@@UAEPAXI@Z:PROC ; CDynamicPoolEx<NEffectUpdateDecorator::CRotationDecorator>::`vector deleting destructor'
EXTRN	??_E?$CDynamicPoolEx@VCGravityDecorator@NEffectUpdateDecorator@@@@UAEPAXI@Z:PROC ; CDynamicPoolEx<NEffectUpdateDecorator::CGravityDecorator>::`vector deleting destructor'
EXTRN	??_E?$CDynamicPoolEx@VCAirResistanceDecorator@NEffectUpdateDecorator@@@@UAEPAXI@Z:PROC ; CDynamicPoolEx<NEffectUpdateDecorator::CAirResistanceDecorator>::`vector deleting destructor'
EXTRN	??_E?$CDynamicPoolEx@VCTextureAnimationRandomDecorator@NEffectUpdateDecorator@@@@UAEPAXI@Z:PROC ; CDynamicPoolEx<NEffectUpdateDecorator::CTextureAnimationRandomDecorator>::`vector deleting destructor'
EXTRN	??_E?$CDynamicPoolEx@VCTextureAnimationCCWDecorator@NEffectUpdateDecorator@@@@UAEPAXI@Z:PROC ; CDynamicPoolEx<NEffectUpdateDecorator::CTextureAnimationCCWDecorator>::`vector deleting destructor'
EXTRN	??_E?$CDynamicPoolEx@VCTextureAnimationCWDecorator@NEffectUpdateDecorator@@@@UAEPAXI@Z:PROC ; CDynamicPoolEx<NEffectUpdateDecorator::CTextureAnimationCWDecorator>::`vector deleting destructor'
EXTRN	??_E?$CDynamicPoolEx@VCNullDecorator@NEffectUpdateDecorator@@@@UAEPAXI@Z:PROC ; CDynamicPoolEx<NEffectUpdateDecorator::CNullDecorator>::`vector deleting destructor'
EXTRN	??_E?$CDynamicPoolEx@VCHeaderDecorator@NEffectUpdateDecorator@@@@UAEPAXI@Z:PROC ; CDynamicPoolEx<NEffectUpdateDecorator::CHeaderDecorator>::`vector deleting destructor'
EXTRN	??_7type_info@@6B@:QWORD			; type_info::`vftable'
;	COMDAT ??_7?$CDynamicPoolEx@VCHeaderDecorator@NEffectUpdateDecorator@@@@6B@
CONST	SEGMENT
??_7?$CDynamicPoolEx@VCHeaderDecorator@NEffectUpdateDecorator@@@@6B@ DD FLAT:??_R4?$CDynamicPoolEx@VCHeaderDecorator@NEffectUpdateDecorator@@@@6B@ ; CDynamicPoolEx<NEffectUpdateDecorator::CHeaderDecorator>::`vftable'
	DD	FLAT:??_E?$CDynamicPoolEx@VCHeaderDecorator@NEffectUpdateDecorator@@@@UAEPAXI@Z
CONST	ENDS
;	COMDAT ??_7?$CDynamicPoolEx@VCNullDecorator@NEffectUpdateDecorator@@@@6B@
CONST	SEGMENT
??_7?$CDynamicPoolEx@VCNullDecorator@NEffectUpdateDecorator@@@@6B@ DD FLAT:??_R4?$CDynamicPoolEx@VCNullDecorator@NEffectUpdateDecorator@@@@6B@ ; CDynamicPoolEx<NEffectUpdateDecorator::CNullDecorator>::`vftable'
	DD	FLAT:??_E?$CDynamicPoolEx@VCNullDecorator@NEffectUpdateDecorator@@@@UAEPAXI@Z
CONST	ENDS
;	COMDAT ??_7?$CDynamicPoolEx@VCTextureAnimationCWDecorator@NEffectUpdateDecorator@@@@6B@
CONST	SEGMENT
??_7?$CDynamicPoolEx@VCTextureAnimationCWDecorator@NEffectUpdateDecorator@@@@6B@ DD FLAT:??_R4?$CDynamicPoolEx@VCTextureAnimationCWDecorator@NEffectUpdateDecorator@@@@6B@ ; CDynamicPoolEx<NEffectUpdateDecorator::CTextureAnimationCWDecorator>::`vftable'
	DD	FLAT:??_E?$CDynamicPoolEx@VCTextureAnimationCWDecorator@NEffectUpdateDecorator@@@@UAEPAXI@Z
CONST	ENDS
;	COMDAT ??_7?$CDynamicPoolEx@VCTextureAnimationCCWDecorator@NEffectUpdateDecorator@@@@6B@
CONST	SEGMENT
??_7?$CDynamicPoolEx@VCTextureAnimationCCWDecorator@NEffectUpdateDecorator@@@@6B@ DD FLAT:??_R4?$CDynamicPoolEx@VCTextureAnimationCCWDecorator@NEffectUpdateDecorator@@@@6B@ ; CDynamicPoolEx<NEffectUpdateDecorator::CTextureAnimationCCWDecorator>::`vftable'
	DD	FLAT:??_E?$CDynamicPoolEx@VCTextureAnimationCCWDecorator@NEffectUpdateDecorator@@@@UAEPAXI@Z
CONST	ENDS
;	COMDAT ??_7?$CDynamicPoolEx@VCTextureAnimationRandomDecorator@NEffectUpdateDecorator@@@@6B@
CONST	SEGMENT
??_7?$CDynamicPoolEx@VCTextureAnimationRandomDecorator@NEffectUpdateDecorator@@@@6B@ DD FLAT:??_R4?$CDynamicPoolEx@VCTextureAnimationRandomDecorator@NEffectUpdateDecorator@@@@6B@ ; CDynamicPoolEx<NEffectUpdateDecorator::CTextureAnimationRandomDecorator>::`vftable'
	DD	FLAT:??_E?$CDynamicPoolEx@VCTextureAnimationRandomDecorator@NEffectUpdateDecorator@@@@UAEPAXI@Z
CONST	ENDS
;	COMDAT ??_7?$CDynamicPoolEx@VCAirResistanceDecorator@NEffectUpdateDecorator@@@@6B@
CONST	SEGMENT
??_7?$CDynamicPoolEx@VCAirResistanceDecorator@NEffectUpdateDecorator@@@@6B@ DD FLAT:??_R4?$CDynamicPoolEx@VCAirResistanceDecorator@NEffectUpdateDecorator@@@@6B@ ; CDynamicPoolEx<NEffectUpdateDecorator::CAirResistanceDecorator>::`vftable'
	DD	FLAT:??_E?$CDynamicPoolEx@VCAirResistanceDecorator@NEffectUpdateDecorator@@@@UAEPAXI@Z
CONST	ENDS
;	COMDAT ??_7?$CDynamicPoolEx@VCGravityDecorator@NEffectUpdateDecorator@@@@6B@
CONST	SEGMENT
??_7?$CDynamicPoolEx@VCGravityDecorator@NEffectUpdateDecorator@@@@6B@ DD FLAT:??_R4?$CDynamicPoolEx@VCGravityDecorator@NEffectUpdateDecorator@@@@6B@ ; CDynamicPoolEx<NEffectUpdateDecorator::CGravityDecorator>::`vftable'
	DD	FLAT:??_E?$CDynamicPoolEx@VCGravityDecorator@NEffectUpdateDecorator@@@@UAEPAXI@Z
CONST	ENDS
;	COMDAT ?_Fake_alloc@std@@3U_Fake_allocator@1@B
CONST	SEGMENT
?_Fake_alloc@std@@3U_Fake_allocator@1@B	ORG $+1		; std::_Fake_alloc
CONST	ENDS
;	COMDAT ??_7?$CDynamicPoolEx@VCRotationDecorator@NEffectUpdateDecorator@@@@6B@
CONST	SEGMENT
??_7?$CDynamicPoolEx@VCRotationDecorator@NEffectUpdateDecorator@@@@6B@ DD FLAT:??_R4?$CDynamicPoolEx@VCRotationDecorator@NEffectUpdateDecorator@@@@6B@ ; CDynamicPoolEx<NEffectUpdateDecorator::CRotationDecorator>::`vftable'
	DD	FLAT:??_E?$CDynamicPoolEx@VCRotationDecorator@NEffectUpdateDecorator@@@@UAEPAXI@Z
CONST	ENDS
;	COMDAT ??_R1A@?0A@EA@?$CDynamicPoolEx@VCRotationDecorator@NEffectUpdateDecorator@@@@8
rdata$r	SEGMENT
??_R1A@?0A@EA@?$CDynamicPoolEx@VCRotationDecorator@NEffectUpdateDecorator@@@@8 DD FLAT:??_R0?AV?$CDynamicPoolEx@VCRotationDecorator@NEffectUpdateDecorator@@@@@8 ; CDynamicPoolEx<NEffectUpdateDecorator::CRotationDecorator>::`RTTI Base Class Descriptor at (0,-1,0,64)'
	DD	00H
	DD	00H
	DD	0ffffffffH
	DD	00H
	DD	040H
	DD	FLAT:??_R3?$CDynamicPoolEx@VCRotationDecorator@NEffectUpdateDecorator@@@@8
rdata$r	ENDS
;	COMDAT ??_R2?$CDynamicPoolEx@VCRotationDecorator@NEffectUpdateDecorator@@@@8
rdata$r	SEGMENT
??_R2?$CDynamicPoolEx@VCRotationDecorator@NEffectUpdateDecorator@@@@8 DD FLAT:??_R1A@?0A@EA@?$CDynamicPoolEx@VCRotationDecorator@NEffectUpdateDecorator@@@@8 ; CDynamicPoolEx<NEffectUpdateDecorator::CRotationDecorator>::`RTTI Base Class Array'
rdata$r	ENDS
;	COMDAT ??_R3?$CDynamicPoolEx@VCRotationDecorator@NEffectUpdateDecorator@@@@8
rdata$r	SEGMENT
??_R3?$CDynamicPoolEx@VCRotationDecorator@NEffectUpdateDecorator@@@@8 DD 00H ; CDynamicPoolEx<NEffectUpdateDecorator::CRotationDecorator>::`RTTI Class Hierarchy Descriptor'
	DD	00H
	DD	01H
	DD	FLAT:??_R2?$CDynamicPoolEx@VCRotationDecorator@NEffectUpdateDecorator@@@@8
rdata$r	ENDS
;	COMDAT ??_R0?AV?$CDynamicPoolEx@VCRotationDecorator@NEffectUpdateDecorator@@@@@8
data$rs	SEGMENT
??_R0?AV?$CDynamicPoolEx@VCRotationDecorator@NEffectUpdateDecorator@@@@@8 DD FLAT:??_7type_info@@6B@ ; CDynamicPoolEx<NEffectUpdateDecorator::CRotationDecorator> `RTTI Type Descriptor'
	DD	00H
	DB	'.?AV?$CDynamicPoolEx@VCRotationDecorator@NEffectUpdateDe'
	DB	'corator@@@@', 00H
data$rs	ENDS
;	COMDAT ??_R4?$CDynamicPoolEx@VCRotationDecorator@NEffectUpdateDecorator@@@@6B@
rdata$r	SEGMENT
??_R4?$CDynamicPoolEx@VCRotationDecorator@NEffectUpdateDecorator@@@@6B@ DD 00H ; CDynamicPoolEx<NEffectUpdateDecorator::CRotationDecorator>::`RTTI Complete Object Locator'
	DD	00H
	DD	00H
	DD	FLAT:??_R0?AV?$CDynamicPoolEx@VCRotationDecorator@NEffectUpdateDecorator@@@@@8
	DD	FLAT:??_R3?$CDynamicPoolEx@VCRotationDecorator@NEffectUpdateDecorator@@@@8
rdata$r	ENDS
;	COMDAT ??_R1A@?0A@EA@?$CDynamicPoolEx@VCGravityDecorator@NEffectUpdateDecorator@@@@8
rdata$r	SEGMENT
??_R1A@?0A@EA@?$CDynamicPoolEx@VCGravityDecorator@NEffectUpdateDecorator@@@@8 DD FLAT:??_R0?AV?$CDynamicPoolEx@VCGravityDecorator@NEffectUpdateDecorator@@@@@8 ; CDynamicPoolEx<NEffectUpdateDecorator::CGravityDecorator>::`RTTI Base Class Descriptor at (0,-1,0,64)'
	DD	00H
	DD	00H
	DD	0ffffffffH
	DD	00H
	DD	040H
	DD	FLAT:??_R3?$CDynamicPoolEx@VCGravityDecorator@NEffectUpdateDecorator@@@@8
rdata$r	ENDS
;	COMDAT ??_R2?$CDynamicPoolEx@VCGravityDecorator@NEffectUpdateDecorator@@@@8
rdata$r	SEGMENT
??_R2?$CDynamicPoolEx@VCGravityDecorator@NEffectUpdateDecorator@@@@8 DD FLAT:??_R1A@?0A@EA@?$CDynamicPoolEx@VCGravityDecorator@NEffectUpdateDecorator@@@@8 ; CDynamicPoolEx<NEffectUpdateDecorator::CGravityDecorator>::`RTTI Base Class Array'
rdata$r	ENDS
;	COMDAT ??_R3?$CDynamicPoolEx@VCGravityDecorator@NEffectUpdateDecorator@@@@8
rdata$r	SEGMENT
??_R3?$CDynamicPoolEx@VCGravityDecorator@NEffectUpdateDecorator@@@@8 DD 00H ; CDynamicPoolEx<NEffectUpdateDecorator::CGravityDecorator>::`RTTI Class Hierarchy Descriptor'
	DD	00H
	DD	01H
	DD	FLAT:??_R2?$CDynamicPoolEx@VCGravityDecorator@NEffectUpdateDecorator@@@@8
rdata$r	ENDS
;	COMDAT ??_R0?AV?$CDynamicPoolEx@VCGravityDecorator@NEffectUpdateDecorator@@@@@8
data$rs	SEGMENT
??_R0?AV?$CDynamicPoolEx@VCGravityDecorator@NEffectUpdateDecorator@@@@@8 DD FLAT:??_7type_info@@6B@ ; CDynamicPoolEx<NEffectUpdateDecorator::CGravityDecorator> `RTTI Type Descriptor'
	DD	00H
	DB	'.?AV?$CDynamicPoolEx@VCGravityDecorator@NEffectUpdateDec'
	DB	'orator@@@@', 00H
data$rs	ENDS
;	COMDAT ??_R4?$CDynamicPoolEx@VCGravityDecorator@NEffectUpdateDecorator@@@@6B@
rdata$r	SEGMENT
??_R4?$CDynamicPoolEx@VCGravityDecorator@NEffectUpdateDecorator@@@@6B@ DD 00H ; CDynamicPoolEx<NEffectUpdateDecorator::CGravityDecorator>::`RTTI Complete Object Locator'
	DD	00H
	DD	00H
	DD	FLAT:??_R0?AV?$CDynamicPoolEx@VCGravityDecorator@NEffectUpdateDecorator@@@@@8
	DD	FLAT:??_R3?$CDynamicPoolEx@VCGravityDecorator@NEffectUpdateDecorator@@@@8
rdata$r	ENDS
;	COMDAT ??_R1A@?0A@EA@?$CDynamicPoolEx@VCAirResistanceDecorator@NEffectUpdateDecorator@@@@8
rdata$r	SEGMENT
??_R1A@?0A@EA@?$CDynamicPoolEx@VCAirResistanceDecorator@NEffectUpdateDecorator@@@@8 DD FLAT:??_R0?AV?$CDynamicPoolEx@VCAirResistanceDecorator@NEffectUpdateDecorator@@@@@8 ; CDynamicPoolEx<NEffectUpdateDecorator::CAirResistanceDecorator>::`RTTI Base Class Descriptor at (0,-1,0,64)'
	DD	00H
	DD	00H
	DD	0ffffffffH
	DD	00H
	DD	040H
	DD	FLAT:??_R3?$CDynamicPoolEx@VCAirResistanceDecorator@NEffectUpdateDecorator@@@@8
rdata$r	ENDS
;	COMDAT ??_R2?$CDynamicPoolEx@VCAirResistanceDecorator@NEffectUpdateDecorator@@@@8
rdata$r	SEGMENT
??_R2?$CDynamicPoolEx@VCAirResistanceDecorator@NEffectUpdateDecorator@@@@8 DD FLAT:??_R1A@?0A@EA@?$CDynamicPoolEx@VCAirResistanceDecorator@NEffectUpdateDecorator@@@@8 ; CDynamicPoolEx<NEffectUpdateDecorator::CAirResistanceDecorator>::`RTTI Base Class Array'
rdata$r	ENDS
;	COMDAT ??_R3?$CDynamicPoolEx@VCAirResistanceDecorator@NEffectUpdateDecorator@@@@8
rdata$r	SEGMENT
??_R3?$CDynamicPoolEx@VCAirResistanceDecorator@NEffectUpdateDecorator@@@@8 DD 00H ; CDynamicPoolEx<NEffectUpdateDecorator::CAirResistanceDecorator>::`RTTI Class Hierarchy Descriptor'
	DD	00H
	DD	01H
	DD	FLAT:??_R2?$CDynamicPoolEx@VCAirResistanceDecorator@NEffectUpdateDecorator@@@@8
rdata$r	ENDS
;	COMDAT ??_R0?AV?$CDynamicPoolEx@VCAirResistanceDecorator@NEffectUpdateDecorator@@@@@8
data$rs	SEGMENT
??_R0?AV?$CDynamicPoolEx@VCAirResistanceDecorator@NEffectUpdateDecorator@@@@@8 DD FLAT:??_7type_info@@6B@ ; CDynamicPoolEx<NEffectUpdateDecorator::CAirResistanceDecorator> `RTTI Type Descriptor'
	DD	00H
	DB	'.?AV?$CDynamicPoolEx@VCAirResistanceDecorator@NEffectUpd'
	DB	'ateDecorator@@@@', 00H
data$rs	ENDS
;	COMDAT ??_R4?$CDynamicPoolEx@VCAirResistanceDecorator@NEffectUpdateDecorator@@@@6B@
rdata$r	SEGMENT
??_R4?$CDynamicPoolEx@VCAirResistanceDecorator@NEffectUpdateDecorator@@@@6B@ DD 00H ; CDynamicPoolEx<NEffectUpdateDecorator::CAirResistanceDecorator>::`RTTI Complete Object Locator'
	DD	00H
	DD	00H
	DD	FLAT:??_R0?AV?$CDynamicPoolEx@VCAirResistanceDecorator@NEffectUpdateDecorator@@@@@8
	DD	FLAT:??_R3?$CDynamicPoolEx@VCAirResistanceDecorator@NEffectUpdateDecorator@@@@8
rdata$r	ENDS
;	COMDAT ??_R1A@?0A@EA@?$CDynamicPoolEx@VCTextureAnimationRandomDecorator@NEffectUpdateDecorator@@@@8
rdata$r	SEGMENT
??_R1A@?0A@EA@?$CDynamicPoolEx@VCTextureAnimationRandomDecorator@NEffectUpdateDecorator@@@@8 DD FLAT:??_R0?AV?$CDynamicPoolEx@VCTextureAnimationRandomDecorator@NEffectUpdateDecorator@@@@@8 ; CDynamicPoolEx<NEffectUpdateDecorator::CTextureAnimationRandomDecorator>::`RTTI Base Class Descriptor at (0,-1,0,64)'
	DD	00H
	DD	00H
	DD	0ffffffffH
	DD	00H
	DD	040H
	DD	FLAT:??_R3?$CDynamicPoolEx@VCTextureAnimationRandomDecorator@NEffectUpdateDecorator@@@@8
rdata$r	ENDS
;	COMDAT ??_R2?$CDynamicPoolEx@VCTextureAnimationRandomDecorator@NEffectUpdateDecorator@@@@8
rdata$r	SEGMENT
??_R2?$CDynamicPoolEx@VCTextureAnimationRandomDecorator@NEffectUpdateDecorator@@@@8 DD FLAT:??_R1A@?0A@EA@?$CDynamicPoolEx@VCTextureAnimationRandomDecorator@NEffectUpdateDecorator@@@@8 ; CDynamicPoolEx<NEffectUpdateDecorator::CTextureAnimationRandomDecorator>::`RTTI Base Class Array'
rdata$r	ENDS
;	COMDAT ??_R3?$CDynamicPoolEx@VCTextureAnimationRandomDecorator@NEffectUpdateDecorator@@@@8
rdata$r	SEGMENT
??_R3?$CDynamicPoolEx@VCTextureAnimationRandomDecorator@NEffectUpdateDecorator@@@@8 DD 00H ; CDynamicPoolEx<NEffectUpdateDecorator::CTextureAnimationRandomDecorator>::`RTTI Class Hierarchy Descriptor'
	DD	00H
	DD	01H
	DD	FLAT:??_R2?$CDynamicPoolEx@VCTextureAnimationRandomDecorator@NEffectUpdateDecorator@@@@8
rdata$r	ENDS
;	COMDAT ??_R0?AV?$CDynamicPoolEx@VCTextureAnimationRandomDecorator@NEffectUpdateDecorator@@@@@8
data$rs	SEGMENT
??_R0?AV?$CDynamicPoolEx@VCTextureAnimationRandomDecorator@NEffectUpdateDecorator@@@@@8 DD FLAT:??_7type_info@@6B@ ; CDynamicPoolEx<NEffectUpdateDecorator::CTextureAnimationRandomDecorator> `RTTI Type Descriptor'
	DD	00H
	DB	'.?AV?$CDynamicPoolEx@VCTextureAnimationRandomDecorator@N'
	DB	'EffectUpdateDecorator@@@@', 00H
data$rs	ENDS
;	COMDAT ??_R4?$CDynamicPoolEx@VCTextureAnimationRandomDecorator@NEffectUpdateDecorator@@@@6B@
rdata$r	SEGMENT
??_R4?$CDynamicPoolEx@VCTextureAnimationRandomDecorator@NEffectUpdateDecorator@@@@6B@ DD 00H ; CDynamicPoolEx<NEffectUpdateDecorator::CTextureAnimationRandomDecorator>::`RTTI Complete Object Locator'
	DD	00H
	DD	00H
	DD	FLAT:??_R0?AV?$CDynamicPoolEx@VCTextureAnimationRandomDecorator@NEffectUpdateDecorator@@@@@8
	DD	FLAT:??_R3?$CDynamicPoolEx@VCTextureAnimationRandomDecorator@NEffectUpdateDecorator@@@@8
rdata$r	ENDS
;	COMDAT ??_R1A@?0A@EA@?$CDynamicPoolEx@VCTextureAnimationCCWDecorator@NEffectUpdateDecorator@@@@8
rdata$r	SEGMENT
??_R1A@?0A@EA@?$CDynamicPoolEx@VCTextureAnimationCCWDecorator@NEffectUpdateDecorator@@@@8 DD FLAT:??_R0?AV?$CDynamicPoolEx@VCTextureAnimationCCWDecorator@NEffectUpdateDecorator@@@@@8 ; CDynamicPoolEx<NEffectUpdateDecorator::CTextureAnimationCCWDecorator>::`RTTI Base Class Descriptor at (0,-1,0,64)'
	DD	00H
	DD	00H
	DD	0ffffffffH
	DD	00H
	DD	040H
	DD	FLAT:??_R3?$CDynamicPoolEx@VCTextureAnimationCCWDecorator@NEffectUpdateDecorator@@@@8
rdata$r	ENDS
;	COMDAT ??_R2?$CDynamicPoolEx@VCTextureAnimationCCWDecorator@NEffectUpdateDecorator@@@@8
rdata$r	SEGMENT
??_R2?$CDynamicPoolEx@VCTextureAnimationCCWDecorator@NEffectUpdateDecorator@@@@8 DD FLAT:??_R1A@?0A@EA@?$CDynamicPoolEx@VCTextureAnimationCCWDecorator@NEffectUpdateDecorator@@@@8 ; CDynamicPoolEx<NEffectUpdateDecorator::CTextureAnimationCCWDecorator>::`RTTI Base Class Array'
rdata$r	ENDS
;	COMDAT ??_R3?$CDynamicPoolEx@VCTextureAnimationCCWDecorator@NEffectUpdateDecorator@@@@8
rdata$r	SEGMENT
??_R3?$CDynamicPoolEx@VCTextureAnimationCCWDecorator@NEffectUpdateDecorator@@@@8 DD 00H ; CDynamicPoolEx<NEffectUpdateDecorator::CTextureAnimationCCWDecorator>::`RTTI Class Hierarchy Descriptor'
	DD	00H
	DD	01H
	DD	FLAT:??_R2?$CDynamicPoolEx@VCTextureAnimationCCWDecorator@NEffectUpdateDecorator@@@@8
rdata$r	ENDS
;	COMDAT ??_R0?AV?$CDynamicPoolEx@VCTextureAnimationCCWDecorator@NEffectUpdateDecorator@@@@@8
data$rs	SEGMENT
??_R0?AV?$CDynamicPoolEx@VCTextureAnimationCCWDecorator@NEffectUpdateDecorator@@@@@8 DD FLAT:??_7type_info@@6B@ ; CDynamicPoolEx<NEffectUpdateDecorator::CTextureAnimationCCWDecorator> `RTTI Type Descriptor'
	DD	00H
	DB	'.?AV?$CDynamicPoolEx@VCTextureAnimationCCWDecorator@NEff'
	DB	'ectUpdateDecorator@@@@', 00H
data$rs	ENDS
;	COMDAT ??_R4?$CDynamicPoolEx@VCTextureAnimationCCWDecorator@NEffectUpdateDecorator@@@@6B@
rdata$r	SEGMENT
??_R4?$CDynamicPoolEx@VCTextureAnimationCCWDecorator@NEffectUpdateDecorator@@@@6B@ DD 00H ; CDynamicPoolEx<NEffectUpdateDecorator::CTextureAnimationCCWDecorator>::`RTTI Complete Object Locator'
	DD	00H
	DD	00H
	DD	FLAT:??_R0?AV?$CDynamicPoolEx@VCTextureAnimationCCWDecorator@NEffectUpdateDecorator@@@@@8
	DD	FLAT:??_R3?$CDynamicPoolEx@VCTextureAnimationCCWDecorator@NEffectUpdateDecorator@@@@8
rdata$r	ENDS
;	COMDAT ??_R1A@?0A@EA@?$CDynamicPoolEx@VCTextureAnimationCWDecorator@NEffectUpdateDecorator@@@@8
rdata$r	SEGMENT
??_R1A@?0A@EA@?$CDynamicPoolEx@VCTextureAnimationCWDecorator@NEffectUpdateDecorator@@@@8 DD FLAT:??_R0?AV?$CDynamicPoolEx@VCTextureAnimationCWDecorator@NEffectUpdateDecorator@@@@@8 ; CDynamicPoolEx<NEffectUpdateDecorator::CTextureAnimationCWDecorator>::`RTTI Base Class Descriptor at (0,-1,0,64)'
	DD	00H
	DD	00H
	DD	0ffffffffH
	DD	00H
	DD	040H
	DD	FLAT:??_R3?$CDynamicPoolEx@VCTextureAnimationCWDecorator@NEffectUpdateDecorator@@@@8
rdata$r	ENDS
;	COMDAT ??_R2?$CDynamicPoolEx@VCTextureAnimationCWDecorator@NEffectUpdateDecorator@@@@8
rdata$r	SEGMENT
??_R2?$CDynamicPoolEx@VCTextureAnimationCWDecorator@NEffectUpdateDecorator@@@@8 DD FLAT:??_R1A@?0A@EA@?$CDynamicPoolEx@VCTextureAnimationCWDecorator@NEffectUpdateDecorator@@@@8 ; CDynamicPoolEx<NEffectUpdateDecorator::CTextureAnimationCWDecorator>::`RTTI Base Class Array'
rdata$r	ENDS
;	COMDAT ??_R3?$CDynamicPoolEx@VCTextureAnimationCWDecorator@NEffectUpdateDecorator@@@@8
rdata$r	SEGMENT
??_R3?$CDynamicPoolEx@VCTextureAnimationCWDecorator@NEffectUpdateDecorator@@@@8 DD 00H ; CDynamicPoolEx<NEffectUpdateDecorator::CTextureAnimationCWDecorator>::`RTTI Class Hierarchy Descriptor'
	DD	00H
	DD	01H
	DD	FLAT:??_R2?$CDynamicPoolEx@VCTextureAnimationCWDecorator@NEffectUpdateDecorator@@@@8
rdata$r	ENDS
;	COMDAT ??_R0?AV?$CDynamicPoolEx@VCTextureAnimationCWDecorator@NEffectUpdateDecorator@@@@@8
data$rs	SEGMENT
??_R0?AV?$CDynamicPoolEx@VCTextureAnimationCWDecorator@NEffectUpdateDecorator@@@@@8 DD FLAT:??_7type_info@@6B@ ; CDynamicPoolEx<NEffectUpdateDecorator::CTextureAnimationCWDecorator> `RTTI Type Descriptor'
	DD	00H
	DB	'.?AV?$CDynamicPoolEx@VCTextureAnimationCWDecorator@NEffe'
	DB	'ctUpdateDecorator@@@@', 00H
data$rs	ENDS
;	COMDAT ??_R4?$CDynamicPoolEx@VCTextureAnimationCWDecorator@NEffectUpdateDecorator@@@@6B@
rdata$r	SEGMENT
??_R4?$CDynamicPoolEx@VCTextureAnimationCWDecorator@NEffectUpdateDecorator@@@@6B@ DD 00H ; CDynamicPoolEx<NEffectUpdateDecorator::CTextureAnimationCWDecorator>::`RTTI Complete Object Locator'
	DD	00H
	DD	00H
	DD	FLAT:??_R0?AV?$CDynamicPoolEx@VCTextureAnimationCWDecorator@NEffectUpdateDecorator@@@@@8
	DD	FLAT:??_R3?$CDynamicPoolEx@VCTextureAnimationCWDecorator@NEffectUpdateDecorator@@@@8
rdata$r	ENDS
;	COMDAT ??_R1A@?0A@EA@?$CDynamicPoolEx@VCNullDecorator@NEffectUpdateDecorator@@@@8
rdata$r	SEGMENT
??_R1A@?0A@EA@?$CDynamicPoolEx@VCNullDecorator@NEffectUpdateDecorator@@@@8 DD FLAT:??_R0?AV?$CDynamicPoolEx@VCNullDecorator@NEffectUpdateDecorator@@@@@8 ; CDynamicPoolEx<NEffectUpdateDecorator::CNullDecorator>::`RTTI Base Class Descriptor at (0,-1,0,64)'
	DD	00H
	DD	00H
	DD	0ffffffffH
	DD	00H
	DD	040H
	DD	FLAT:??_R3?$CDynamicPoolEx@VCNullDecorator@NEffectUpdateDecorator@@@@8
rdata$r	ENDS
;	COMDAT ??_R2?$CDynamicPoolEx@VCNullDecorator@NEffectUpdateDecorator@@@@8
rdata$r	SEGMENT
??_R2?$CDynamicPoolEx@VCNullDecorator@NEffectUpdateDecorator@@@@8 DD FLAT:??_R1A@?0A@EA@?$CDynamicPoolEx@VCNullDecorator@NEffectUpdateDecorator@@@@8 ; CDynamicPoolEx<NEffectUpdateDecorator::CNullDecorator>::`RTTI Base Class Array'
rdata$r	ENDS
;	COMDAT ??_R3?$CDynamicPoolEx@VCNullDecorator@NEffectUpdateDecorator@@@@8
rdata$r	SEGMENT
??_R3?$CDynamicPoolEx@VCNullDecorator@NEffectUpdateDecorator@@@@8 DD 00H ; CDynamicPoolEx<NEffectUpdateDecorator::CNullDecorator>::`RTTI Class Hierarchy Descriptor'
	DD	00H
	DD	01H
	DD	FLAT:??_R2?$CDynamicPoolEx@VCNullDecorator@NEffectUpdateDecorator@@@@8
rdata$r	ENDS
;	COMDAT ??_R0?AV?$CDynamicPoolEx@VCNullDecorator@NEffectUpdateDecorator@@@@@8
data$rs	SEGMENT
??_R0?AV?$CDynamicPoolEx@VCNullDecorator@NEffectUpdateDecorator@@@@@8 DD FLAT:??_7type_info@@6B@ ; CDynamicPoolEx<NEffectUpdateDecorator::CNullDecorator> `RTTI Type Descriptor'
	DD	00H
	DB	'.?AV?$CDynamicPoolEx@VCNullDecorator@NEffectUpdateDecora'
	DB	'tor@@@@', 00H
data$rs	ENDS
;	COMDAT ??_R4?$CDynamicPoolEx@VCNullDecorator@NEffectUpdateDecorator@@@@6B@
rdata$r	SEGMENT
??_R4?$CDynamicPoolEx@VCNullDecorator@NEffectUpdateDecorator@@@@6B@ DD 00H ; CDynamicPoolEx<NEffectUpdateDecorator::CNullDecorator>::`RTTI Complete Object Locator'
	DD	00H
	DD	00H
	DD	FLAT:??_R0?AV?$CDynamicPoolEx@VCNullDecorator@NEffectUpdateDecorator@@@@@8
	DD	FLAT:??_R3?$CDynamicPoolEx@VCNullDecorator@NEffectUpdateDecorator@@@@8
rdata$r	ENDS
;	COMDAT ??_R1A@?0A@EA@?$CDynamicPoolEx@VCHeaderDecorator@NEffectUpdateDecorator@@@@8
rdata$r	SEGMENT
??_R1A@?0A@EA@?$CDynamicPoolEx@VCHeaderDecorator@NEffectUpdateDecorator@@@@8 DD FLAT:??_R0?AV?$CDynamicPoolEx@VCHeaderDecorator@NEffectUpdateDecorator@@@@@8 ; CDynamicPoolEx<NEffectUpdateDecorator::CHeaderDecorator>::`RTTI Base Class Descriptor at (0,-1,0,64)'
	DD	00H
	DD	00H
	DD	0ffffffffH
	DD	00H
	DD	040H
	DD	FLAT:??_R3?$CDynamicPoolEx@VCHeaderDecorator@NEffectUpdateDecorator@@@@8
rdata$r	ENDS
;	COMDAT ??_R2?$CDynamicPoolEx@VCHeaderDecorator@NEffectUpdateDecorator@@@@8
rdata$r	SEGMENT
??_R2?$CDynamicPoolEx@VCHeaderDecorator@NEffectUpdateDecorator@@@@8 DD FLAT:??_R1A@?0A@EA@?$CDynamicPoolEx@VCHeaderDecorator@NEffectUpdateDecorator@@@@8 ; CDynamicPoolEx<NEffectUpdateDecorator::CHeaderDecorator>::`RTTI Base Class Array'
rdata$r	ENDS
;	COMDAT ??_R3?$CDynamicPoolEx@VCHeaderDecorator@NEffectUpdateDecorator@@@@8
rdata$r	SEGMENT
??_R3?$CDynamicPoolEx@VCHeaderDecorator@NEffectUpdateDecorator@@@@8 DD 00H ; CDynamicPoolEx<NEffectUpdateDecorator::CHeaderDecorator>::`RTTI Class Hierarchy Descriptor'
	DD	00H
	DD	01H
	DD	FLAT:??_R2?$CDynamicPoolEx@VCHeaderDecorator@NEffectUpdateDecorator@@@@8
rdata$r	ENDS
;	COMDAT ??_R0?AV?$CDynamicPoolEx@VCHeaderDecorator@NEffectUpdateDecorator@@@@@8
data$rs	SEGMENT
??_R0?AV?$CDynamicPoolEx@VCHeaderDecorator@NEffectUpdateDecorator@@@@@8 DD FLAT:??_7type_info@@6B@ ; CDynamicPoolEx<NEffectUpdateDecorator::CHeaderDecorator> `RTTI Type Descriptor'
	DD	00H
	DB	'.?AV?$CDynamicPoolEx@VCHeaderDecorator@NEffectUpdateDeco'
	DB	'rator@@@@', 00H
data$rs	ENDS
;	COMDAT ??_R4?$CDynamicPoolEx@VCHeaderDecorator@NEffectUpdateDecorator@@@@6B@
rdata$r	SEGMENT
??_R4?$CDynamicPoolEx@VCHeaderDecorator@NEffectUpdateDecorator@@@@6B@ DD 00H ; CDynamicPoolEx<NEffectUpdateDecorator::CHeaderDecorator>::`RTTI Complete Object Locator'
	DD	00H
	DD	00H
	DD	FLAT:??_R0?AV?$CDynamicPoolEx@VCHeaderDecorator@NEffectUpdateDecorator@@@@@8
	DD	FLAT:??_R3?$CDynamicPoolEx@VCHeaderDecorator@NEffectUpdateDecorator@@@@8
rdata$r	ENDS
PUBLIC	??_H@YGXPAXIIP6EPAX0@Z@Z			; `vector constructor iterator'
PUBLIC	?__empty_global_delete@@YAXPAX@Z		; __empty_global_delete
PUBLIC	?__empty_global_delete@@YAXPAXI@Z		; __empty_global_delete
PUBLIC	?__empty_global_delete@@YAXPAXW4align_val_t@std@@@Z ; __empty_global_delete
PUBLIC	?__empty_global_delete@@YAXPAXIW4align_val_t@std@@@Z ; __empty_global_delete
PUBLIC	??0exception@std@@QAE@ABV01@@Z			; std::exception::exception
PUBLIC	??1exception@std@@UAE@XZ			; std::exception::~exception
PUBLIC	?what@exception@std@@UBEPBDXZ			; std::exception::what
PUBLIC	??_Gexception@std@@UAEPAXI@Z			; std::exception::`scalar deleting destructor'
PUBLIC	??0bad_alloc@std@@QAE@ABV01@@Z			; std::bad_alloc::bad_alloc
PUBLIC	??_Gbad_alloc@std@@UAEPAXI@Z			; std::bad_alloc::`scalar deleting destructor'
PUBLIC	??0bad_array_new_length@std@@QAE@XZ		; std::bad_array_new_length::bad_array_new_length
PUBLIC	??1bad_array_new_length@std@@UAE@XZ		; std::bad_array_new_length::~bad_array_new_length
PUBLIC	??0bad_array_new_length@std@@QAE@ABV01@@Z	; std::bad_array_new_length::bad_array_new_length
PUBLIC	??_Gbad_array_new_length@std@@UAEPAXI@Z		; std::bad_array_new_length::`scalar deleting destructor'
PUBLIC	?_Throw_bad_array_new_length@std@@YAXXZ		; std::_Throw_bad_array_new_length
PUBLIC	??0D3DXMATRIX@@QAE@XZ				; D3DXMATRIX::D3DXMATRIX
PUBLIC	??$_Allocate_manually_vector_aligned@U_Default_allocate_traits@std@@@std@@YAPAXI@Z ; std::_Allocate_manually_vector_aligned<std::_Default_allocate_traits>
PUBLIC	??1IFlyTargetableObject@@UAE@XZ			; IFlyTargetableObject::~IFlyTargetableObject
PUBLIC	?ClearFlyTargeter@IFlyTargetableObject@@IAEXXZ	; IFlyTargetableObject::ClearFlyTargeter
PUBLIC	??1?$_Tree@V?$_Tset_traits@PAVCFlyTarget@@U?$less@PAVCFlyTarget@@@std@@V?$allocator@PAVCFlyTarget@@@3@$0A@@std@@@std@@QAE@XZ ; std::_Tree<std::_Tset_traits<CFlyTarget *,std::less<CFlyTarget *>,std::allocator<CFlyTarget *>,0> >::~_Tree<std::_Tset_traits<CFlyTarget *,std::less<CFlyTarget *>,std::allocator<CFlyTarget *>,0> >
PUBLIC	??_GIFlyTargetableObject@@UAEPAXI@Z		; IFlyTargetableObject::`scalar deleting destructor'
PUBLIC	??E?$_Tree_unchecked_const_iterator@V?$_Tree_val@U?$_Tree_simple_types@PAVCFlyTarget@@@std@@@std@@U_Iterator_base0@2@@std@@QAEAAV01@XZ ; std::_Tree_unchecked_const_iterator<std::_Tree_val<std::_Tree_simple_types<CFlyTarget *> >,std::_Iterator_base0>::operator++
PUBLIC	?GetType@IActorInstance@@UBEHXZ			; IActorInstance::GetType
PUBLIC	??1IActorInstance@@UAE@XZ			; IActorInstance::~IActorInstance
PUBLIC	??_GIActorInstance@@UAEPAXI@Z			; IActorInstance::`scalar deleting destructor'
PUBLIC	?GetBackground@CActorInstance@@CAAAVIBackground@@XZ ; CActorInstance::GetBackground
PUBLIC	??1?$vector@UCDynamicSphereInstance@@V?$allocator@UCDynamicSphereInstance@@@std@@@std@@QAE@XZ ; std::vector<CDynamicSphereInstance,std::allocator<CDynamicSphereInstance> >::~vector<CDynamicSphereInstance,std::allocator<CDynamicSphereInstance> >
PUBLIC	??1?$list@USCollisionPointInstance@CActorInstance@@V?$allocator@USCollisionPointInstance@CActorInstance@@@std@@@std@@QAE@XZ ; std::list<CActorInstance::SCollisionPointInstance,std::allocator<CActorInstance::SCollisionPointInstance> >::~list<CActorInstance::SCollisionPointInstance,std::allocator<CActorInstance::SCollisionPointInstance> >
PUBLIC	??1?$_Tree@V?$_Tmap_traits@PAVCActorInstance@@MU?$less@PAVCActorInstance@@@std@@V?$allocator@U?$pair@QAVCActorInstance@@M@std@@@3@$0A@@std@@@std@@QAE@XZ ; std::_Tree<std::_Tmap_traits<CActorInstance *,float,std::less<CActorInstance *>,std::allocator<std::pair<CActorInstance * const,float> >,0> >::~_Tree<std::_Tmap_traits<CActorInstance *,float,std::less<CActorInstance *>,std::allocator<std::pair<CActorInstance * const,float> >,0> >
PUBLIC	??1SSplashArea@CActorInstance@@QAE@XZ		; CActorInstance::SSplashArea::~SSplashArea
PUBLIC	?DestroySystem@CActorInstance@@SAXXZ		; CActorInstance::DestroySystem
PUBLIC	??0CActorInstance@@QAE@XZ			; CActorInstance::CActorInstance
PUBLIC	??1CActorInstance@@UAE@XZ			; CActorInstance::~CActorInstance
PUBLIC	?INSTANCEBASE_Transform@CActorInstance@@QAEXXZ	; CActorInstance::INSTANCEBASE_Transform
PUBLIC	?INSTANCEBASE_Deform@CActorInstance@@QAEXXZ	; CActorInstance::INSTANCEBASE_Deform
PUBLIC	?Destroy@CActorInstance@@QAEXXZ			; CActorInstance::Destroy
PUBLIC	?Move@CActorInstance@@QAEXXZ			; CActorInstance::Move
PUBLIC	?Stop@CActorInstance@@QAEXM@Z			; CActorInstance::Stop
PUBLIC	?SetMainInstance@CActorInstance@@QAEXXZ		; CActorInstance::SetMainInstance
PUBLIC	?SetParalysis@CActorInstance@@QAEX_N@Z		; CActorInstance::SetParalysis
PUBLIC	?SetFaint@CActorInstance@@QAEX_N@Z		; CActorInstance::SetFaint
PUBLIC	?SetSleep@CActorInstance@@QAEX_N@Z		; CActorInstance::SetSleep
PUBLIC	?SetResistFallen@CActorInstance@@QAEX_N@Z	; CActorInstance::SetResistFallen
PUBLIC	?SetAttackSpeed@CActorInstance@@QAEXM@Z		; CActorInstance::SetAttackSpeed
PUBLIC	?SetMoveSpeed@CActorInstance@@QAEXM@Z		; CActorInstance::SetMoveSpeed
PUBLIC	?SetComboType@CActorInstance@@QAEXG@Z		; CActorInstance::SetComboType
PUBLIC	?GetActorType@CActorInstance@@QBEIXZ		; CActorInstance::GetActorType
PUBLIC	?SetActorType@CActorInstance@@QAEXI@Z		; CActorInstance::SetActorType
PUBLIC	?IsPC@CActorInstance@@QAE_NXZ			; CActorInstance::IsPC
PUBLIC	?IsNPC@CActorInstance@@QAE_NXZ			; CActorInstance::IsNPC
PUBLIC	?IsEnemy@CActorInstance@@QAE_NXZ		; CActorInstance::IsEnemy
PUBLIC	?IsStone@CActorInstance@@QAE_NXZ		; CActorInstance::IsStone
PUBLIC	?IsWarp@CActorInstance@@QAE_NXZ			; CActorInstance::IsWarp
PUBLIC	?IsGoto@CActorInstance@@QAE_NXZ			; CActorInstance::IsGoto
PUBLIC	?IsObject@CActorInstance@@QAE_NXZ		; CActorInstance::IsObject
PUBLIC	?IsPet@CActorInstance@@QAE_NXZ			; CActorInstance::IsPet
PUBLIC	?IsMount@CActorInstance@@QAE_NXZ		; CActorInstance::IsMount
PUBLIC	?IsRenderTarget@CActorInstance@@QAE_NXZ		; CActorInstance::IsRenderTarget
PUBLIC	?IsDoor@CActorInstance@@QAE_NXZ			; CActorInstance::IsDoor
PUBLIC	?IsPoly@CActorInstance@@QAE_NXZ			; CActorInstance::IsPoly
PUBLIC	?IsBuilding@CActorInstance@@QAE_NXZ		; CActorInstance::IsBuilding
PUBLIC	?IsHandMode@CActorInstance@@QAE_NXZ		; CActorInstance::IsHandMode
PUBLIC	?IsBowMode@CActorInstance@@QAE_NXZ		; CActorInstance::IsBowMode
PUBLIC	?IsTwoHandMode@CActorInstance@@QAE_NXZ		; CActorInstance::IsTwoHandMode
PUBLIC	?Revive@CActorInstance@@QAEXXZ			; CActorInstance::Revive
PUBLIC	?IsSleep@CActorInstance@@QAEHXZ			; CActorInstance::IsSleep
PUBLIC	?IsParalysis@CActorInstance@@QAEHXZ		; CActorInstance::IsParalysis
PUBLIC	?IsFaint@CActorInstance@@QAEHXZ			; CActorInstance::IsFaint
PUBLIC	?IsResistFallen@CActorInstance@@QAEHXZ		; CActorInstance::IsResistFallen
PUBLIC	?IsWaiting@CActorInstance@@QAEHXZ		; CActorInstance::IsWaiting
PUBLIC	?IsMoving@CActorInstance@@QAEHXZ		; CActorInstance::IsMoving
PUBLIC	?IsDead@CActorInstance@@QAEHXZ			; CActorInstance::IsDead
PUBLIC	?IsStun@CActorInstance@@QAEHXZ			; CActorInstance::IsStun
PUBLIC	?IsAttacked@CActorInstance@@QAEHXZ		; CActorInstance::IsAttacked
PUBLIC	?IsDamage@CActorInstance@@QAEHXZ		; CActorInstance::IsDamage
PUBLIC	?IsKnockDown@CActorInstance@@QAEHXZ		; CActorInstance::IsKnockDown
PUBLIC	?SetWalkMode@CActorInstance@@QAEXXZ		; CActorInstance::SetWalkMode
PUBLIC	?SetRunMode@CActorInstance@@QAEXXZ		; CActorInstance::SetRunMode
PUBLIC	?Stun@CActorInstance@@QAEXXZ			; CActorInstance::Stun
PUBLIC	?Die@CActorInstance@@QAEXXZ			; CActorInstance::Die
PUBLIC	?DieEnd@CActorInstance@@QAEXXZ			; CActorInstance::DieEnd
PUBLIC	?GetNormalAttackIndex@CActorInstance@@QAEKXZ	; CActorInstance::GetNormalAttackIndex
PUBLIC	?SetReachScale@CActorInstance@@QAEXM@Z		; CActorInstance::SetReachScale
PUBLIC	?SetOwner@CActorInstance@@QAEXK@Z		; CActorInstance::SetOwner
PUBLIC	?IsMovement@CActorInstance@@QAEHXZ		; CActorInstance::IsMovement
PUBLIC	?__AdjustCollisionMovement@CActorInstance@@IAEXPBVCGraphicObjectInstance@@@Z ; CActorInstance::__AdjustCollisionMovement
PUBLIC	?AdjustDynamicCollisionMovement@CActorInstance@@QAEXPBV1@@Z ; CActorInstance::AdjustDynamicCollisionMovement
PUBLIC	?IntersectDefendingSphere@CActorInstance@@QAE_NXZ ; CActorInstance::IntersectDefendingSphere
PUBLIC	?GetHeight@CActorInstance@@QAEMXZ		; CActorInstance::GetHeight
PUBLIC	?ClearAttachingEffect@CActorInstance@@QAEXXZ	; CActorInstance::ClearAttachingEffect
PUBLIC	?SetFishingPosition@CActorInstance@@QAEXAAUD3DXVECTOR3@@@Z ; CActorInstance::SetFishingPosition
PUBLIC	?MountHorse@CActorInstance@@QAEXPAV1@@Z		; CActorInstance::MountHorse
PUBLIC	?PhysicsProcess@CActorInstance@@QAEXXZ		; CActorInstance::PhysicsProcess
PUBLIC	?TransformProcess@CActorInstance@@QAEXXZ	; CActorInstance::TransformProcess
PUBLIC	?AccumulationMovement@CActorInstance@@QAEXXZ	; CActorInstance::AccumulationMovement
PUBLIC	?__AccumulationMovement@CActorInstance@@QAEXM@Z	; CActorInstance::__AccumulationMovement
PUBLIC	??1?$deque@VCFlyTarget@@V?$allocator@VCFlyTarget@@@std@@@std@@QAE@XZ ; std::deque<CFlyTarget,std::allocator<CFlyTarget> >::~deque<CFlyTarget,std::allocator<CFlyTarget> >
PUBLIC	?OnUpdate@CActorInstance@@MAEXXZ		; CActorInstance::OnUpdate
PUBLIC	?AddMovement@CActorInstance@@IAEXMMM@Z		; CActorInstance::AddMovement
PUBLIC	?__InitializeMovement@CActorInstance@@IAEXXZ	; CActorInstance::__InitializeMovement
PUBLIC	?__Initialize@CActorInstance@@IAEXXZ		; CActorInstance::__Initialize
PUBLIC	?__GetAttackSpeed@CActorInstance@@IAEMXZ	; CActorInstance::__GetAttackSpeed
PUBLIC	?__IsMountingHorse@CActorInstance@@IAE_NXZ	; CActorInstance::__IsMountingHorse
PUBLIC	?__GetCurrentComboType@CActorInstance@@IAEGXZ	; CActorInstance::__GetCurrentComboType
PUBLIC	?__GetReachScale@CActorInstance@@IAEMXZ		; CActorInstance::__GetReachScale
PUBLIC	?OnUpdateCollisionData@CActorInstance@@MAEXPBV?$vector@VCStaticCollisionData@@V?$allocator@VCStaticCollisionData@@@std@@@std@@@Z ; CActorInstance::OnUpdateCollisionData
PUBLIC	?OnUpdateHeighInstance@CActorInstance@@MAEXPAVCAttributeInstance@@@Z ; CActorInstance::OnUpdateHeighInstance
PUBLIC	?OnGetObjectHeight@CActorInstance@@MAE_NMMPAM@Z	; CActorInstance::OnGetObjectHeight
PUBLIC	??1?$deque@USReservingMotionNode@CActorInstance@@V?$allocator@USReservingMotionNode@CActorInstance@@@std@@@std@@QAE@XZ ; std::deque<CActorInstance::SReservingMotionNode,std::allocator<CActorInstance::SReservingMotionNode> >::~deque<CActorInstance::SReservingMotionNode,std::allocator<CActorInstance::SReservingMotionNode> >
PUBLIC	?_Tidy@?$deque@USReservingMotionNode@CActorInstance@@V?$allocator@USReservingMotionNode@CActorInstance@@@std@@@std@@AAEXXZ ; std::deque<CActorInstance::SReservingMotionNode,std::allocator<CActorInstance::SReservingMotionNode> >::_Tidy
PUBLIC	??1?$vector@PAVCWeaponTrace@@V?$allocator@PAVCWeaponTrace@@@std@@@std@@QAE@XZ ; std::vector<CWeaponTrace *,std::allocator<CWeaponTrace *> >::~vector<CWeaponTrace *,std::allocator<CWeaponTrace *> >
PUBLIC	??1?$list@UTAttachingEffect@CActorInstance@@V?$allocator@UTAttachingEffect@CActorInstance@@@std@@@std@@QAE@XZ ; std::list<CActorInstance::TAttachingEffect,std::allocator<CActorInstance::TAttachingEffect> >::~list<CActorInstance::TAttachingEffect,std::allocator<CActorInstance::TAttachingEffect> >
PUBLIC	??1?$map@PBUSHitData@NRaceData@@V?$map@PAVCActorInstance@@MU?$less@PAVCActorInstance@@@std@@V?$allocator@U?$pair@QAVCActorInstance@@M@std@@@3@@std@@U?$less@PBUSHitData@NRaceData@@@4@V?$allocator@U?$pair@QBUSHitData@NRaceData@@V?$map@PAVCActorInstance@@MU?$less@PAVCActorInstance@@@std@@V?$allocator@U?$pair@QAVCActorInstance@@M@std@@@3@@std@@@std@@@4@@std@@QAE@XZ ; std::map<NRaceData::SHitData const *,std::map<CActorInstance *,float,std::less<CActorInstance *>,std::allocator<std::pair<CActorInstance * const,float> > >,std::less<NRaceData::SHitData const *>,std::allocator<std::pair<NRaceData::SHitData const * const,std::map<CActorInstance *,float,std::less<CActorInstance *>,std::allocator<std::pair<CActorInstance * const,float> > > > > >::~map<NRaceData::SHitData const *,std::map<CActorInstance *,float,std::less<CActorInstance *>,std::allocator<std::pair<CActorInstance * const,float> > >,std::less<NRaceData::SHitData const *>,std::allocator<std::pair<NRaceData::SHitData const * const,std::map<CActorInstance *,float,std::less<CActorInstance *>,std::allocator<std::pair<CActorInstance * const,float> > > > > >
PUBLIC	?__InitializeStateData@CActorInstance@@IAEXXZ	; CActorInstance::__InitializeStateData
PUBLIC	?__InitializeMotionData@CActorInstance@@IAEXXZ	; CActorInstance::__InitializeMotionData
PUBLIC	?__InitializeRotationData@CActorInstance@@IAEXXZ ; CActorInstance::__InitializeRotationData
PUBLIC	?__CreateTree@CActorInstance@@QAEXPBD@Z		; CActorInstance::__CreateTree
PUBLIC	?__DestroyTree@CActorInstance@@QAEXXZ		; CActorInstance::__DestroyTree
PUBLIC	?__SetTreePosition@CActorInstance@@QAEXMMM@Z	; CActorInstance::__SetTreePosition
PUBLIC	??_GCActorInstance@@UAEPAXI@Z			; CActorInstance::`scalar deleting destructor'
PUBLIC	??$_Erase_tree@V?$allocator@U?$_Tree_node@U?$pair@QBUSHitData@NRaceData@@V?$map@PAVCActorInstance@@MU?$less@PAVCActorInstance@@@std@@V?$allocator@U?$pair@QAVCActorInstance@@M@std@@@3@@std@@@std@@PAX@std@@@std@@@?$_Tree_val@U?$_Tree_simple_types@U?$pair@QBUSHitData@NRaceData@@V?$map@PAVCActorInstance@@MU?$less@PAVCActorInstance@@@std@@V?$allocator@U?$pair@QAVCActorInstance@@M@std@@@3@@std@@@std@@@std@@@std@@QAEXAAV?$allocator@U?$_Tree_node@U?$pair@QBUSHitData@NRaceData@@V?$map@PAVCActorInstance@@MU?$less@PAVCActorInstance@@@std@@V?$allocator@U?$pair@QAVCActorInstance@@M@std@@@3@@std@@@std@@PAX@std@@@1@PAU?$_Tree_node@U?$pair@QBUSHitData@NRaceData@@V?$map@PAVCActorInstance@@MU?$less@PAVCActorInstance@@@std@@V?$allocator@U?$pair@QAVCActorInstance@@M@std@@@3@@std@@@std@@PAX@1@@Z ; std::_Tree_val<std::_Tree_simple_types<std::pair<NRaceData::SHitData const * const,std::map<CActorInstance *,float,std::less<CActorInstance *>,std::allocator<std::pair<CActorInstance * const,float> > > > > >::_Erase_tree<std::allocator<std::_Tree_node<std::pair<NRaceData::SHitData const * const,std::map<CActorInstance *,float,std::less<CActorInstance *>,std::allocator<std::pair<CActorInstance * const,float> > > >,void *> > >
PUBLIC	??$_Erase_tree@V?$allocator@U?$_Tree_node@U?$pair@QAVCActorInstance@@M@std@@PAX@std@@@std@@@?$_Tree_val@U?$_Tree_simple_types@U?$pair@QAVCActorInstance@@M@std@@@std@@@std@@QAEXAAV?$allocator@U?$_Tree_node@U?$pair@QAVCActorInstance@@M@std@@PAX@std@@@1@PAU?$_Tree_node@U?$pair@QAVCActorInstance@@M@std@@PAX@1@@Z ; std::_Tree_val<std::_Tree_simple_types<std::pair<CActorInstance * const,float> > >::_Erase_tree<std::allocator<std::_Tree_node<std::pair<CActorInstance * const,float>,void *> > >
PUBLIC	??1?$CDynamicPoolEx@VCRotationDecorator@NEffectUpdateDecorator@@@@UAE@XZ ; CDynamicPoolEx<NEffectUpdateDecorator::CRotationDecorator>::~CDynamicPoolEx<NEffectUpdateDecorator::CRotationDecorator>
PUBLIC	?Delete@?$CDynamicPoolEx@VCRotationDecorator@NEffectUpdateDecorator@@@@KAXPAVCRotationDecorator@NEffectUpdateDecorator@@@Z ; CDynamicPoolEx<NEffectUpdateDecorator::CRotationDecorator>::Delete
PUBLIC	??1?$CDynamicPoolEx@VCGravityDecorator@NEffectUpdateDecorator@@@@UAE@XZ ; CDynamicPoolEx<NEffectUpdateDecorator::CGravityDecorator>::~CDynamicPoolEx<NEffectUpdateDecorator::CGravityDecorator>
PUBLIC	?Delete@?$CDynamicPoolEx@VCGravityDecorator@NEffectUpdateDecorator@@@@KAXPAVCGravityDecorator@NEffectUpdateDecorator@@@Z ; CDynamicPoolEx<NEffectUpdateDecorator::CGravityDecorator>::Delete
PUBLIC	??1?$CDynamicPoolEx@VCAirResistanceDecorator@NEffectUpdateDecorator@@@@UAE@XZ ; CDynamicPoolEx<NEffectUpdateDecorator::CAirResistanceDecorator>::~CDynamicPoolEx<NEffectUpdateDecorator::CAirResistanceDecorator>
PUBLIC	?Delete@?$CDynamicPoolEx@VCAirResistanceDecorator@NEffectUpdateDecorator@@@@KAXPAVCAirResistanceDecorator@NEffectUpdateDecorator@@@Z ; CDynamicPoolEx<NEffectUpdateDecorator::CAirResistanceDecorator>::Delete
PUBLIC	??1?$CDynamicPoolEx@VCTextureAnimationRandomDecorator@NEffectUpdateDecorator@@@@UAE@XZ ; CDynamicPoolEx<NEffectUpdateDecorator::CTextureAnimationRandomDecorator>::~CDynamicPoolEx<NEffectUpdateDecorator::CTextureAnimationRandomDecorator>
PUBLIC	?Delete@?$CDynamicPoolEx@VCTextureAnimationRandomDecorator@NEffectUpdateDecorator@@@@KAXPAVCTextureAnimationRandomDecorator@NEffectUpdateDecorator@@@Z ; CDynamicPoolEx<NEffectUpdateDecorator::CTextureAnimationRandomDecorator>::Delete
PUBLIC	??1?$CDynamicPoolEx@VCTextureAnimationCCWDecorator@NEffectUpdateDecorator@@@@UAE@XZ ; CDynamicPoolEx<NEffectUpdateDecorator::CTextureAnimationCCWDecorator>::~CDynamicPoolEx<NEffectUpdateDecorator::CTextureAnimationCCWDecorator>
PUBLIC	?Delete@?$CDynamicPoolEx@VCTextureAnimationCCWDecorator@NEffectUpdateDecorator@@@@KAXPAVCTextureAnimationCCWDecorator@NEffectUpdateDecorator@@@Z ; CDynamicPoolEx<NEffectUpdateDecorator::CTextureAnimationCCWDecorator>::Delete
PUBLIC	??1?$CDynamicPoolEx@VCTextureAnimationCWDecorator@NEffectUpdateDecorator@@@@UAE@XZ ; CDynamicPoolEx<NEffectUpdateDecorator::CTextureAnimationCWDecorator>::~CDynamicPoolEx<NEffectUpdateDecorator::CTextureAnimationCWDecorator>
PUBLIC	?Delete@?$CDynamicPoolEx@VCTextureAnimationCWDecorator@NEffectUpdateDecorator@@@@KAXPAVCTextureAnimationCWDecorator@NEffectUpdateDecorator@@@Z ; CDynamicPoolEx<NEffectUpdateDecorator::CTextureAnimationCWDecorator>::Delete
PUBLIC	??1?$CDynamicPoolEx@VCNullDecorator@NEffectUpdateDecorator@@@@UAE@XZ ; CDynamicPoolEx<NEffectUpdateDecorator::CNullDecorator>::~CDynamicPoolEx<NEffectUpdateDecorator::CNullDecorator>
PUBLIC	?Delete@?$CDynamicPoolEx@VCNullDecorator@NEffectUpdateDecorator@@@@KAXPAVCNullDecorator@NEffectUpdateDecorator@@@Z ; CDynamicPoolEx<NEffectUpdateDecorator::CNullDecorator>::Delete
PUBLIC	??1?$CDynamicPoolEx@VCHeaderDecorator@NEffectUpdateDecorator@@@@UAE@XZ ; CDynamicPoolEx<NEffectUpdateDecorator::CHeaderDecorator>::~CDynamicPoolEx<NEffectUpdateDecorator::CHeaderDecorator>
PUBLIC	?Delete@?$CDynamicPoolEx@VCHeaderDecorator@NEffectUpdateDecorator@@@@KAXPAVCHeaderDecorator@NEffectUpdateDecorator@@@Z ; CDynamicPoolEx<NEffectUpdateDecorator::CHeaderDecorator>::Delete
PUBLIC	??$_Erase_tree@V?$allocator@U?$_Tree_node@PAVCFlyTarget@@PAX@std@@@std@@@?$_Tree_val@U?$_Tree_simple_types@PAVCFlyTarget@@@std@@@std@@QAEXAAV?$allocator@U?$_Tree_node@PAVCFlyTarget@@PAX@std@@@1@PAU?$_Tree_node@PAVCFlyTarget@@PAX@1@@Z ; std::_Tree_val<std::_Tree_simple_types<CFlyTarget *> >::_Erase_tree<std::allocator<std::_Tree_node<CFlyTarget *,void *> > >
PUBLIC	??_ECActorInstance@@WCOM@AEPAXI@Z		; [thunk]:CActorInstance::`vector deleting destructor'
PUBLIC	??_7exception@std@@6B@				; std::exception::`vftable'
PUBLIC	??_C@_0BC@EOODALEL@Unknown?5exception@		; `string'
PUBLIC	??_7bad_alloc@std@@6B@				; std::bad_alloc::`vftable'
PUBLIC	??_7bad_array_new_length@std@@6B@		; std::bad_array_new_length::`vftable'
PUBLIC	??_C@_0BF@KINCDENJ@bad?5array?5new?5length@	; `string'
PUBLIC	__TI3?AVbad_array_new_length@std@@
PUBLIC	__CTA3?AVbad_array_new_length@std@@
PUBLIC	??_R0?AVbad_array_new_length@std@@@8		; std::bad_array_new_length `RTTI Type Descriptor'
PUBLIC	__CT??_R0?AVbad_array_new_length@std@@@8??0bad_array_new_length@std@@QAE@ABV01@@Z12
PUBLIC	??_R0?AVbad_alloc@std@@@8			; std::bad_alloc `RTTI Type Descriptor'
PUBLIC	__CT??_R0?AVbad_alloc@std@@@8??0bad_alloc@std@@QAE@ABV01@@Z12
PUBLIC	??_R0?AVexception@std@@@8			; std::exception `RTTI Type Descriptor'
PUBLIC	__CT??_R0?AVexception@std@@@8??0exception@std@@QAE@ABV01@@Z12
PUBLIC	??_7CBaseCollisionInstance@@6B@			; CBaseCollisionInstance::`vftable'
PUBLIC	??_7CSphereCollisionInstance@@6B@		; CSphereCollisionInstance::`vftable'
PUBLIC	?ms_singleton@?$CSingleton@VIBackground@@@@0PAVIBackground@@A ; CSingleton<IBackground>::ms_singleton
PUBLIC	??_R4exception@std@@6B@				; std::exception::`RTTI Complete Object Locator'
PUBLIC	??_R3exception@std@@8				; std::exception::`RTTI Class Hierarchy Descriptor'
PUBLIC	??_R2exception@std@@8				; std::exception::`RTTI Base Class Array'
PUBLIC	??_R1A@?0A@EA@exception@std@@8			; std::exception::`RTTI Base Class Descriptor at (0,-1,0,64)'
PUBLIC	??_R4bad_alloc@std@@6B@				; std::bad_alloc::`RTTI Complete Object Locator'
PUBLIC	??_R3bad_alloc@std@@8				; std::bad_alloc::`RTTI Class Hierarchy Descriptor'
PUBLIC	??_R2bad_alloc@std@@8				; std::bad_alloc::`RTTI Base Class Array'
PUBLIC	??_R1A@?0A@EA@bad_alloc@std@@8			; std::bad_alloc::`RTTI Base Class Descriptor at (0,-1,0,64)'
PUBLIC	??_R4bad_array_new_length@std@@6B@		; std::bad_array_new_length::`RTTI Complete Object Locator'
PUBLIC	??_R3bad_array_new_length@std@@8		; std::bad_array_new_length::`RTTI Class Hierarchy Descriptor'
PUBLIC	??_R2bad_array_new_length@std@@8		; std::bad_array_new_length::`RTTI Base Class Array'
PUBLIC	??_R1A@?0A@EA@bad_array_new_length@std@@8	; std::bad_array_new_length::`RTTI Base Class Descriptor at (0,-1,0,64)'
PUBLIC	??_7IFlyTargetableObject@@6B@			; IFlyTargetableObject::`vftable'
PUBLIC	?ms_kPool@?$CPooledObject@VCHeaderDecorator@NEffectUpdateDecorator@@@@1V?$CDynamicPoolEx@VCHeaderDecorator@NEffectUpdateDecorator@@@@A ; CPooledObject<NEffectUpdateDecorator::CHeaderDecorator>::ms_kPool
PUBLIC	?ms_kPool@?$CPooledObject@VCNullDecorator@NEffectUpdateDecorator@@@@1V?$CDynamicPoolEx@VCNullDecorator@NEffectUpdateDecorator@@@@A ; CPooledObject<NEffectUpdateDecorator::CNullDecorator>::ms_kPool
PUBLIC	?ms_kPool@?$CPooledObject@VCTextureAnimationCWDecorator@NEffectUpdateDecorator@@@@1V?$CDynamicPoolEx@VCTextureAnimationCWDecorator@NEffectUpdateDecorator@@@@A ; CPooledObject<NEffectUpdateDecorator::CTextureAnimationCWDecorator>::ms_kPool
PUBLIC	?ms_kPool@?$CPooledObject@VCTextureAnimationCCWDecorator@NEffectUpdateDecorator@@@@1V?$CDynamicPoolEx@VCTextureAnimationCCWDecorator@NEffectUpdateDecorator@@@@A ; CPooledObject<NEffectUpdateDecorator::CTextureAnimationCCWDecorator>::ms_kPool
PUBLIC	?ms_kPool@?$CPooledObject@VCTextureAnimationRandomDecorator@NEffectUpdateDecorator@@@@1V?$CDynamicPoolEx@VCTextureAnimationRandomDecorator@NEffectUpdateDecorator@@@@A ; CPooledObject<NEffectUpdateDecorator::CTextureAnimationRandomDecorator>::ms_kPool
PUBLIC	?ms_kPool@?$CPooledObject@VCAirResistanceDecorator@NEffectUpdateDecorator@@@@1V?$CDynamicPoolEx@VCAirResistanceDecorator@NEffectUpdateDecorator@@@@A ; CPooledObject<NEffectUpdateDecorator::CAirResistanceDecorator>::ms_kPool
PUBLIC	?ms_kPool@?$CPooledObject@VCGravityDecorator@NEffectUpdateDecorator@@@@1V?$CDynamicPoolEx@VCGravityDecorator@NEffectUpdateDecorator@@@@A ; CPooledObject<NEffectUpdateDecorator::CGravityDecorator>::ms_kPool
PUBLIC	?ms_kPool@?$CPooledObject@VCRotationDecorator@NEffectUpdateDecorator@@@@1V?$CDynamicPoolEx@VCRotationDecorator@NEffectUpdateDecorator@@@@A ; CPooledObject<NEffectUpdateDecorator::CRotationDecorator>::ms_kPool
PUBLIC	??_7IActorInstance@@6B@				; IActorInstance::`vftable'
PUBLIC	??_7CActorInstance@@6BIActorInstance@@@		; CActorInstance::`vftable'
PUBLIC	??_7CActorInstance@@6BIFlyTargetableObject@@@	; CActorInstance::`vftable'
PUBLIC	?ms_singleton@?$CSingleton@VCSpeedTreeForest@@@@0PAVCSpeedTreeForest@@A ; CSingleton<CSpeedTreeForest>::ms_singleton
PUBLIC	??_C@_0CB@FEFEAKBM@CActorInstance?$FL?$CFp?$FN?5type?5?$CFd?5?9?$DO?5?$CF@ ; `string'
PUBLIC	??_R4CBaseCollisionInstance@@6B@		; CBaseCollisionInstance::`RTTI Complete Object Locator'
PUBLIC	??_R0?AVCBaseCollisionInstance@@@8		; CBaseCollisionInstance `RTTI Type Descriptor'
PUBLIC	??_R3CBaseCollisionInstance@@8			; CBaseCollisionInstance::`RTTI Class Hierarchy Descriptor'
PUBLIC	??_R2CBaseCollisionInstance@@8			; CBaseCollisionInstance::`RTTI Base Class Array'
PUBLIC	??_R1A@?0A@EA@CBaseCollisionInstance@@8		; CBaseCollisionInstance::`RTTI Base Class Descriptor at (0,-1,0,64)'
PUBLIC	??_R4CSphereCollisionInstance@@6B@		; CSphereCollisionInstance::`RTTI Complete Object Locator'
PUBLIC	??_R0?AVCSphereCollisionInstance@@@8		; CSphereCollisionInstance `RTTI Type Descriptor'
PUBLIC	??_R3CSphereCollisionInstance@@8		; CSphereCollisionInstance::`RTTI Class Hierarchy Descriptor'
PUBLIC	??_R2CSphereCollisionInstance@@8		; CSphereCollisionInstance::`RTTI Base Class Array'
PUBLIC	??_R1A@?0A@EA@CSphereCollisionInstance@@8	; CSphereCollisionInstance::`RTTI Base Class Descriptor at (0,-1,0,64)'
PUBLIC	??_R4IFlyTargetableObject@@6B@			; IFlyTargetableObject::`RTTI Complete Object Locator'
PUBLIC	??_R0?AVIFlyTargetableObject@@@8		; IFlyTargetableObject `RTTI Type Descriptor'
PUBLIC	??_R3IFlyTargetableObject@@8			; IFlyTargetableObject::`RTTI Class Hierarchy Descriptor'
PUBLIC	??_R2IFlyTargetableObject@@8			; IFlyTargetableObject::`RTTI Base Class Array'
PUBLIC	??_R1A@?0A@EA@IFlyTargetableObject@@8		; IFlyTargetableObject::`RTTI Base Class Descriptor at (0,-1,0,64)'
PUBLIC	??_R4CActorInstance@@6BIActorInstance@@@	; CActorInstance::`RTTI Complete Object Locator'
PUBLIC	??_R0?AVCActorInstance@@@8			; CActorInstance `RTTI Type Descriptor'
PUBLIC	??_R3CActorInstance@@8				; CActorInstance::`RTTI Class Hierarchy Descriptor'
PUBLIC	??_R2CActorInstance@@8				; CActorInstance::`RTTI Base Class Array'
PUBLIC	??_R1A@?0A@EA@CActorInstance@@8			; CActorInstance::`RTTI Base Class Descriptor at (0,-1,0,64)'
PUBLIC	??_R1A@?0A@EA@IActorInstance@@8			; IActorInstance::`RTTI Base Class Descriptor at (0,-1,0,64)'
PUBLIC	??_R0?AVIActorInstance@@@8			; IActorInstance `RTTI Type Descriptor'
PUBLIC	??_R3IActorInstance@@8				; IActorInstance::`RTTI Class Hierarchy Descriptor'
PUBLIC	??_R2IActorInstance@@8				; IActorInstance::`RTTI Base Class Array'
PUBLIC	??_R1A@?0A@EA@CGraphicThingInstance@@8		; CGraphicThingInstance::`RTTI Base Class Descriptor at (0,-1,0,64)'
PUBLIC	??_R0?AVCGraphicThingInstance@@@8		; CGraphicThingInstance `RTTI Type Descriptor'
PUBLIC	??_R3CGraphicThingInstance@@8			; CGraphicThingInstance::`RTTI Class Hierarchy Descriptor'
PUBLIC	??_R2CGraphicThingInstance@@8			; CGraphicThingInstance::`RTTI Base Class Array'
PUBLIC	??_R1A@?0A@EA@CGraphicObjectInstance@@8		; CGraphicObjectInstance::`RTTI Base Class Descriptor at (0,-1,0,64)'
PUBLIC	??_R0?AVCGraphicObjectInstance@@@8		; CGraphicObjectInstance `RTTI Type Descriptor'
PUBLIC	??_R3CGraphicObjectInstance@@8			; CGraphicObjectInstance::`RTTI Class Hierarchy Descriptor'
PUBLIC	??_R2CGraphicObjectInstance@@8			; CGraphicObjectInstance::`RTTI Base Class Array'
PUBLIC	??_R1A@?0A@EA@CGraphicCollisionObject@@8	; CGraphicCollisionObject::`RTTI Base Class Descriptor at (0,-1,0,64)'
PUBLIC	??_R0?AVCGraphicCollisionObject@@@8		; CGraphicCollisionObject `RTTI Type Descriptor'
PUBLIC	??_R3CGraphicCollisionObject@@8			; CGraphicCollisionObject::`RTTI Class Hierarchy Descriptor'
PUBLIC	??_R2CGraphicCollisionObject@@8			; CGraphicCollisionObject::`RTTI Base Class Array'
PUBLIC	??_R1A@?0A@EA@CGraphicBase@@8			; CGraphicBase::`RTTI Base Class Descriptor at (0,-1,0,64)'
PUBLIC	??_R0?AVCGraphicBase@@@8			; CGraphicBase `RTTI Type Descriptor'
PUBLIC	??_R3CGraphicBase@@8				; CGraphicBase::`RTTI Class Hierarchy Descriptor'
PUBLIC	??_R2CGraphicBase@@8				; CGraphicBase::`RTTI Base Class Array'
PUBLIC	??_R1COM@?0A@EA@IFlyTargetableObject@@8		; IFlyTargetableObject::`RTTI Base Class Descriptor at (748,-1,0,64)'
PUBLIC	??_R4CActorInstance@@6BIFlyTargetableObject@@@	; CActorInstance::`RTTI Complete Object Locator'
PUBLIC	??_R4IActorInstance@@6B@			; IActorInstance::`RTTI Complete Object Locator'
PUBLIC	__real@00000000
PUBLIC	__real@3c8efa35
PUBLIC	__real@40a00000
PUBLIC	__xmm@3f800000000000000000000000000000
PUBLIC	__xmm@80000000800000008000000080000000
EXTRN	__purecall:PROC
EXTRN	??2@YAPAXI@Z:PROC				; operator new
EXTRN	??3@YAXPAX@Z:PROC				; operator delete
EXTRN	??3@YAXPAXI@Z:PROC				; operator delete
EXTRN	_atexit:PROC
EXTRN	__invalid_parameter_noinfo_noreturn:PROC
EXTRN	___std_exception_copy:PROC
EXTRN	___std_exception_destroy:PROC
EXTRN	??_Eexception@std@@UAEPAXI@Z:PROC		; std::exception::`vector deleting destructor'
EXTRN	??_Ebad_alloc@std@@UAEPAXI@Z:PROC		; std::bad_alloc::`vector deleting destructor'
EXTRN	??_Ebad_array_new_length@std@@UAEPAXI@Z:PROC	; std::bad_array_new_length::`vector deleting destructor'
EXTRN	?GetCaseCRC32@@YAKPBDI@Z:PROC			; GetCaseCRC32
EXTRN	_D3DXMatrixRotationZ@8:PROC
EXTRN	?TraceError@@YAXPBDZZ:PROC			; TraceError
EXTRN	?GetAttribute@CSphereCollisionInstance@@QAEAAUSSphereData@@XZ:PROC ; CSphereCollisionInstance::GetAttribute
EXTRN	?Render@CSphereCollisionInstance@@UAEXW4_D3DFILLMODE@@@Z:PROC ; CSphereCollisionInstance::Render
EXTRN	?OnDestroy@CSphereCollisionInstance@@MAEXXZ:PROC ; CSphereCollisionInstance::OnDestroy
EXTRN	?OnMovementCollisionDynamicSphere@CSphereCollisionInstance@@MBE_NABUCDynamicSphereInstance@@@Z:PROC ; CSphereCollisionInstance::OnMovementCollisionDynamicSphere
EXTRN	?OnCollisionDynamicSphere@CSphereCollisionInstance@@MBE_NABUCDynamicSphereInstance@@@Z:PROC ; CSphereCollisionInstance::OnCollisionDynamicSphere
EXTRN	?OnGetCollisionMovementAdjust@CSphereCollisionInstance@@MBE?AUD3DXVECTOR3@@ABUCDynamicSphereInstance@@@Z:PROC ; CSphereCollisionInstance::OnGetCollisionMovementAdjust
EXTRN	??_EIFlyTargetableObject@@UAEPAXI@Z:PROC	; IFlyTargetableObject::`vector deleting destructor'
EXTRN	??0CFlyTarget@@QAE@XZ:PROC			; CFlyTarget::CFlyTarget
EXTRN	??1CFlyTarget@@UAE@XZ:PROC			; CFlyTarget::~CFlyTarget
EXTRN	?NotifyTargetClear@CFlyTarget@@QAEXXZ:PROC	; CFlyTarget::NotifyTargetClear
EXTRN	?GetNormalAttackIndex@CRaceData@@QAEHGPAG@Z:PROC ; CRaceData::GetNormalAttackIndex
EXTRN	?Clear@CAttributeInstance@@QAEXXZ:PROC		; CAttributeInstance::Clear
EXTRN	?GetHeight@CAttributeInstance@@QAEHMMPAM@Z:PROC	; CAttributeInstance::GetHeight
EXTRN	?Delete@CAttributeInstance@@SAXPAV1@@Z:PROC	; CAttributeInstance::Delete
EXTRN	?GetScale@CGraphicObjectInstance@@QBEABUD3DXVECTOR3@@XZ:PROC ; CGraphicObjectInstance::GetScale
EXTRN	?SetPosition@CGraphicObjectInstance@@QAEXMMM@Z:PROC ; CGraphicObjectInstance::SetPosition
EXTRN	?Clear@CGraphicObjectInstance@@QAEXXZ:PROC	; CGraphicObjectInstance::Clear
EXTRN	?Update@CGraphicObjectInstance@@QAEXXZ:PROC	; CGraphicObjectInstance::Update
EXTRN	?Deform@CGraphicObjectInstance@@QAEXXZ:PROC	; CGraphicObjectInstance::Deform
EXTRN	?Transform@CGraphicObjectInstance@@QAEXXZ:PROC	; CGraphicObjectInstance::Transform
EXTRN	?GetTransform@CGraphicObjectInstance@@QAEAAUD3DXMATRIX@@XZ:PROC ; CGraphicObjectInstance::GetTransform
EXTRN	?UpdateBoundingSphere@CGraphicObjectInstance@@QAEXXZ:PROC ; CGraphicObjectInstance::UpdateBoundingSphere
EXTRN	?AddCollision@CGraphicObjectInstance@@QAEXPBVCStaticCollisionData@@PBUD3DXMATRIX@@@Z:PROC ; CGraphicObjectInstance::AddCollision
EXTRN	?GetCollisionMovementAdjust@CGraphicObjectInstance@@QBE?AUD3DXVECTOR3@@ABUCDynamicSphereInstance@@@Z:PROC ; CGraphicObjectInstance::GetCollisionMovementAdjust
EXTRN	?UpdateCollisionData@CGraphicObjectInstance@@QAEXPBV?$vector@VCStaticCollisionData@@V?$allocator@VCStaticCollisionData@@@std@@@std@@@Z:PROC ; CGraphicObjectInstance::UpdateCollisionData
EXTRN	?SetHeightInstance@CGraphicObjectInstance@@QAEXPAVCAttributeInstance@@@Z:PROC ; CGraphicObjectInstance::SetHeightInstance
EXTRN	??0CPhysicsObject@@QAE@XZ:PROC			; CPhysicsObject::CPhysicsObject
EXTRN	??1CPhysicsObject@@UAE@XZ:PROC			; CPhysicsObject::~CPhysicsObject
EXTRN	?Initialize@CPhysicsObject@@QAEXXZ:PROC		; CPhysicsObject::Initialize
EXTRN	?Update@CPhysicsObject@@QAEXM@Z:PROC		; CPhysicsObject::Update
EXTRN	?GetXMovement@CPhysicsObject@@QAEMXZ:PROC	; CPhysicsObject::GetXMovement
EXTRN	?GetYMovement@CPhysicsObject@@QAEMXZ:PROC	; CPhysicsObject::GetYMovement
EXTRN	??0CGraphicThingInstance@@QAE@XZ:PROC		; CGraphicThingInstance::CGraphicThingInstance
EXTRN	??1CGraphicThingInstance@@UAE@XZ:PROC		; CGraphicThingInstance::~CGraphicThingInstance
EXTRN	?OnInitialize@CGraphicThingInstance@@UAEXXZ:PROC ; CGraphicThingInstance::OnInitialize
EXTRN	?SetMotionAtEnd@CGraphicThingInstance@@QAEXXZ:PROC ; CGraphicThingInstance::SetMotionAtEnd
EXTRN	?GetLocalTime@CGraphicThingInstance@@QAEMXZ:PROC ; CGraphicThingInstance::GetLocalTime
EXTRN	?GetAverageSecondElapsed@CGraphicThingInstance@@QAEMXZ:PROC ; CGraphicThingInstance::GetAverageSecondElapsed
EXTRN	?GetHeight@CGraphicThingInstance@@QAEMXZ:PROC	; CGraphicThingInstance::GetHeight
EXTRN	?UpdateTransform@CGraphicThingInstance@@QAEXPAUD3DXMATRIX@@MH@Z:PROC ; CGraphicThingInstance::UpdateTransform
EXTRN	?CalculateBBox@CGraphicThingInstance@@UAEXXZ:PROC ; CGraphicThingInstance::CalculateBBox
EXTRN	?GetBoundingSphere@CGraphicThingInstance@@UAE_NAAUD3DXVECTOR3@@AAM@Z:PROC ; CGraphicThingInstance::GetBoundingSphere
EXTRN	?GetBoundingAABB@CGraphicThingInstance@@UAE_NAAUD3DXVECTOR3@@0@Z:PROC ; CGraphicThingInstance::GetBoundingAABB
EXTRN	?OnClear@CGraphicThingInstance@@MAEXXZ:PROC	; CGraphicThingInstance::OnClear
EXTRN	?OnDeform@CGraphicThingInstance@@MAEXXZ:PROC	; CGraphicThingInstance::OnDeform
EXTRN	?OnUpdate@CGraphicThingInstance@@MAEXXZ:PROC	; CGraphicThingInstance::OnUpdate
EXTRN	?OnRender@CGraphicThingInstance@@MAEXXZ:PROC	; CGraphicThingInstance::OnRender
EXTRN	?OnBlendRender@CGraphicThingInstance@@MAEXXZ:PROC ; CGraphicThingInstance::OnBlendRender
EXTRN	?OnRenderToShadowMap@CGraphicThingInstance@@MAEXXZ:PROC ; CGraphicThingInstance::OnRenderToShadowMap
EXTRN	?OnRenderShadow@CGraphicThingInstance@@MAEXXZ:PROC ; CGraphicThingInstance::OnRenderShadow
EXTRN	?OnRenderPCBlocker@CGraphicThingInstance@@MAEXXZ:PROC ; CGraphicThingInstance::OnRenderPCBlocker
EXTRN	?OnUpdateCollisionData@CGraphicThingInstance@@MAEXPBV?$vector@VCStaticCollisionData@@V?$allocator@VCStaticCollisionData@@@std@@@std@@@Z:PROC ; CGraphicThingInstance::OnUpdateCollisionData
EXTRN	?OnUpdateHeighInstance@CGraphicThingInstance@@MAEXPAVCAttributeInstance@@@Z:PROC ; CGraphicThingInstance::OnUpdateHeighInstance
EXTRN	?OnGetObjectHeight@CGraphicThingInstance@@MAE_NMMPAM@Z:PROC ; CGraphicThingInstance::OnGetObjectHeight
EXTRN	??_EIActorInstance@@UAEPAXI@Z:PROC		; IActorInstance::`vector deleting destructor'
EXTRN	?GetVirtualID@CActorInstance@@UAEKXZ:PROC	; CActorInstance::GetVirtualID
EXTRN	?UpdateAttachingInstances@CActorInstance@@QAEXXZ:PROC ; CActorInstance::UpdateAttachingInstances
EXTRN	?GetMotionMode@CActorInstance@@QAEHXZ:PROC	; CActorInstance::GetMotionMode
EXTRN	?SetLoopMotion@CActorInstance@@QAEXKMM@Z:PROC	; CActorInstance::SetLoopMotion
EXTRN	?InterceptOnceMotion@CActorInstance@@QAE_NKMIM@Z:PROC ; CActorInstance::InterceptOnceMotion
EXTRN	?IsPushing@CActorInstance@@QAE_NXZ:PROC		; CActorInstance::IsPushing
EXTRN	?UpdatePointInstance@CActorInstance@@QAEXXZ:PROC ; CActorInstance::UpdatePointInstance
EXTRN	?TestCollisionWithDynamicSphere@CActorInstance@@UAE_NABUCDynamicSphereInstance@@@Z:PROC ; CActorInstance::TestCollisionWithDynamicSphere
EXTRN	?BlockMovement@CActorInstance@@QAEXXZ:PROC	; CActorInstance::BlockMovement
EXTRN	?isAttacking@CActorInstance@@QAEHXZ:PROC	; CActorInstance::isAttacking
EXTRN	?SetCurPixelPosition@CActorInstance@@QAEXABUD3DXVECTOR3@@@Z:PROC ; CActorInstance::SetCurPixelPosition
EXTRN	?NEW_GetCurPixelPositionRef@CActorInstance@@QAEABUD3DXVECTOR3@@XZ:PROC ; CActorInstance::NEW_GetCurPixelPositionRef
EXTRN	?GetRotation@CActorInstance@@QAEMXZ:PROC	; CActorInstance::GetRotation
EXTRN	?SetRotation@CActorInstance@@QAEXM@Z:PROC	; CActorInstance::SetRotation
EXTRN	?SetAdvancingRotation@CActorInstance@@QAEXM@Z:PROC ; CActorInstance::SetAdvancingRotation
EXTRN	?UpdateAttribute@CActorInstance@@QAEXXZ:PROC	; CActorInstance::UpdateAttribute
EXTRN	?OnGetFlyTargetPosition@CActorInstance@@UAE?AUD3DXVECTOR3@@XZ:PROC ; CActorInstance::OnGetFlyTargetPosition
EXTRN	?OnShootDamage@CActorInstance@@UAEXXZ:PROC	; CActorInstance::OnShootDamage
EXTRN	?ShakeProcess@CActorInstance@@QAEXXZ:PROC	; CActorInstance::ShakeProcess
EXTRN	?TraceProcess@CActorInstance@@QAEXXZ:PROC	; CActorInstance::TraceProcess
EXTRN	?OnRender@CActorInstance@@MAEXXZ:PROC		; CActorInstance::OnRender
EXTRN	?__ClearAttachingEffect@CActorInstance@@IAEXXZ:PROC ; CActorInstance::__ClearAttachingEffect
EXTRN	?__ClearCombo@CActorInstance@@IAEXXZ:PROC	; CActorInstance::__ClearCombo
EXTRN	?__ClearMotion@CActorInstance@@IAEXXZ:PROC	; CActorInstance::__ClearMotion
EXTRN	?__IsWaitMotion@CActorInstance@@IAE_NXZ:PROC	; CActorInstance::__IsWaitMotion
EXTRN	?__IsMoveMotion@CActorInstance@@IAE_NXZ:PROC	; CActorInstance::__IsMoveMotion
EXTRN	?__IsDamageMotion@CActorInstance@@IAE_NXZ:PROC	; CActorInstance::__IsDamageMotion
EXTRN	?__IsKnockDownMotion@CActorInstance@@IAE_NXZ:PROC ; CActorInstance::__IsKnockDownMotion
EXTRN	?__IsDieMotion@CActorInstance@@IAE_NXZ:PROC	; CActorInstance::__IsDieMotion
EXTRN	?__GetCurrentMotionIndex@CActorInstance@@IAEGXZ:PROC ; CActorInstance::__GetCurrentMotionIndex
EXTRN	?__DestroyWeaponTrace@CActorInstance@@IAEXXZ:PROC ; CActorInstance::__DestroyWeaponTrace
EXTRN	?__InitializePositionData@CActorInstance@@IAEXXZ:PROC ; CActorInstance::__InitializePositionData
EXTRN	?__InitializeCollisionData@CActorInstance@@IAEXXZ:PROC ; CActorInstance::__InitializeCollisionData
EXTRN	?__BlendAlpha_Initialize@CActorInstance@@IAEXXZ:PROC ; CActorInstance::__BlendAlpha_Initialize
EXTRN	?__BlendAlpha_Update@CActorInstance@@IAEXXZ:PROC ; CActorInstance::__BlendAlpha_Update
EXTRN	??_ECActorInstance@@UAEPAXI@Z:PROC		; CActorInstance::`vector deleting destructor'
EXTRN	?CreateInstance@CSpeedTreeForest@@QAEPAVCSpeedTreeWrapper@@MMMKPBD@Z:PROC ; CSpeedTreeForest::CreateInstance
EXTRN	?DeleteInstance@CSpeedTreeForest@@QAEXPAVCSpeedTreeWrapper@@@Z:PROC ; CSpeedTreeForest::DeleteInstance
EXTRN	@__security_check_cookie@4:PROC
EXTRN	__CxxThrowException@8:PROC
EXTRN	___CxxFrameHandler3:PROC
EXTRN	__libm_sse2_sqrt_precise:PROC
EXTRN	?ms_Ray@CGraphicBase@@1VCRay@@A:BYTE		; CGraphicBase::ms_Ray
EXTRN	___security_cookie:DWORD
EXTRN	__fltused:DWORD
;	COMDAT ?ms_singleton@?$CSingleton@VIBackground@@@@0PAVIBackground@@A
_BSS	SEGMENT
?ms_singleton@?$CSingleton@VIBackground@@@@0PAVIBackground@@A DD 01H DUP (?) ; CSingleton<IBackground>::ms_singleton
_BSS	ENDS
;	COMDAT ?ms_singleton@?$CSingleton@VCSpeedTreeForest@@@@0PAVCSpeedTreeForest@@A
_BSS	SEGMENT
?ms_singleton@?$CSingleton@VCSpeedTreeForest@@@@0PAVCSpeedTreeForest@@A DD 01H DUP (?) ; CSingleton<CSpeedTreeForest>::ms_singleton
_BSS	ENDS
;	COMDAT CRT$XCU
CRT$XCU	SEGMENT
??ms_kPool$initializer$@?$CPooledObject@VCHeaderDecorator@NEffectUpdateDecorator@@@@1P6AXXZA@@3P6AXXZA DD FLAT:??__E?ms_kPool@?$CPooledObject@VCHeaderDecorator@NEffectUpdateDecorator@@@@1V?$CDynamicPoolEx@VCHeaderDecorator@NEffectUpdateDecorator@@@@A@@YAXXZ ; ??ms_kPool$initializer$@?$CPooledObject@VCHeaderDecorator@NEffectUpdateDecorator@@@@1P6AXXZA@@3P6AXXZA
CRT$XCU	ENDS
;	COMDAT __xmm@80000000800000008000000080000000
CONST	SEGMENT
__xmm@80000000800000008000000080000000 DB 00H, 00H, 00H, 080H, 00H, 00H, 00H
	DB	080H, 00H, 00H, 00H, 080H, 00H, 00H, 00H, 080H
CONST	ENDS
;	COMDAT __xmm@3f800000000000000000000000000000
CONST	SEGMENT
__xmm@3f800000000000000000000000000000 DB 00H, 00H, 00H, 00H, 00H, 00H, 00H
	DB	00H, 00H, 00H, 00H, 00H, 00H, 00H, 080H, '?'
CONST	ENDS
;	COMDAT __real@40a00000
CONST	SEGMENT
__real@40a00000 DD 040a00000r			; 5
CONST	ENDS
;	COMDAT __real@3c8efa35
CONST	SEGMENT
__real@3c8efa35 DD 03c8efa35r			; 0.0174533
CONST	ENDS
;	COMDAT __real@00000000
CONST	SEGMENT
__real@00000000 DD 000000000r			; 0
CONST	ENDS
;	COMDAT ??_R4IActorInstance@@6B@
rdata$r	SEGMENT
??_R4IActorInstance@@6B@ DD 00H				; IActorInstance::`RTTI Complete Object Locator'
	DD	00H
	DD	00H
	DD	FLAT:??_R0?AVIActorInstance@@@8
	DD	FLAT:??_R3IActorInstance@@8
rdata$r	ENDS
;	COMDAT ??_R4CActorInstance@@6BIFlyTargetableObject@@@
rdata$r	SEGMENT
??_R4CActorInstance@@6BIFlyTargetableObject@@@ DD 00H	; CActorInstance::`RTTI Complete Object Locator'
	DD	02ecH
	DD	00H
	DD	FLAT:??_R0?AVCActorInstance@@@8
	DD	FLAT:??_R3CActorInstance@@8
rdata$r	ENDS
;	COMDAT ??_R1COM@?0A@EA@IFlyTargetableObject@@8
rdata$r	SEGMENT
??_R1COM@?0A@EA@IFlyTargetableObject@@8 DD FLAT:??_R0?AVIFlyTargetableObject@@@8 ; IFlyTargetableObject::`RTTI Base Class Descriptor at (748,-1,0,64)'
	DD	00H
	DD	02ecH
	DD	0ffffffffH
	DD	00H
	DD	040H
	DD	FLAT:??_R3IFlyTargetableObject@@8
rdata$r	ENDS
;	COMDAT ??_R2CGraphicBase@@8
rdata$r	SEGMENT
??_R2CGraphicBase@@8 DD FLAT:??_R1A@?0A@EA@CGraphicBase@@8 ; CGraphicBase::`RTTI Base Class Array'
rdata$r	ENDS
;	COMDAT ??_R3CGraphicBase@@8
rdata$r	SEGMENT
??_R3CGraphicBase@@8 DD 00H				; CGraphicBase::`RTTI Class Hierarchy Descriptor'
	DD	00H
	DD	01H
	DD	FLAT:??_R2CGraphicBase@@8
rdata$r	ENDS
;	COMDAT ??_R0?AVCGraphicBase@@@8
data$rs	SEGMENT
??_R0?AVCGraphicBase@@@8 DD FLAT:??_7type_info@@6B@	; CGraphicBase `RTTI Type Descriptor'
	DD	00H
	DB	'.?AVCGraphicBase@@', 00H
data$rs	ENDS
;	COMDAT ??_R1A@?0A@EA@CGraphicBase@@8
rdata$r	SEGMENT
??_R1A@?0A@EA@CGraphicBase@@8 DD FLAT:??_R0?AVCGraphicBase@@@8 ; CGraphicBase::`RTTI Base Class Descriptor at (0,-1,0,64)'
	DD	00H
	DD	00H
	DD	0ffffffffH
	DD	00H
	DD	040H
	DD	FLAT:??_R3CGraphicBase@@8
rdata$r	ENDS
;	COMDAT ??_R2CGraphicCollisionObject@@8
rdata$r	SEGMENT
??_R2CGraphicCollisionObject@@8 DD FLAT:??_R1A@?0A@EA@CGraphicCollisionObject@@8 ; CGraphicCollisionObject::`RTTI Base Class Array'
	DD	FLAT:??_R1A@?0A@EA@CGraphicBase@@8
rdata$r	ENDS
;	COMDAT ??_R3CGraphicCollisionObject@@8
rdata$r	SEGMENT
??_R3CGraphicCollisionObject@@8 DD 00H			; CGraphicCollisionObject::`RTTI Class Hierarchy Descriptor'
	DD	00H
	DD	02H
	DD	FLAT:??_R2CGraphicCollisionObject@@8
rdata$r	ENDS
;	COMDAT ??_R0?AVCGraphicCollisionObject@@@8
data$rs	SEGMENT
??_R0?AVCGraphicCollisionObject@@@8 DD FLAT:??_7type_info@@6B@ ; CGraphicCollisionObject `RTTI Type Descriptor'
	DD	00H
	DB	'.?AVCGraphicCollisionObject@@', 00H
data$rs	ENDS
;	COMDAT ??_R1A@?0A@EA@CGraphicCollisionObject@@8
rdata$r	SEGMENT
??_R1A@?0A@EA@CGraphicCollisionObject@@8 DD FLAT:??_R0?AVCGraphicCollisionObject@@@8 ; CGraphicCollisionObject::`RTTI Base Class Descriptor at (0,-1,0,64)'
	DD	01H
	DD	00H
	DD	0ffffffffH
	DD	00H
	DD	040H
	DD	FLAT:??_R3CGraphicCollisionObject@@8
rdata$r	ENDS
;	COMDAT ??_R2CGraphicObjectInstance@@8
rdata$r	SEGMENT
??_R2CGraphicObjectInstance@@8 DD FLAT:??_R1A@?0A@EA@CGraphicObjectInstance@@8 ; CGraphicObjectInstance::`RTTI Base Class Array'
	DD	FLAT:??_R1A@?0A@EA@CGraphicCollisionObject@@8
	DD	FLAT:??_R1A@?0A@EA@CGraphicBase@@8
rdata$r	ENDS
;	COMDAT ??_R3CGraphicObjectInstance@@8
rdata$r	SEGMENT
??_R3CGraphicObjectInstance@@8 DD 00H			; CGraphicObjectInstance::`RTTI Class Hierarchy Descriptor'
	DD	00H
	DD	03H
	DD	FLAT:??_R2CGraphicObjectInstance@@8
rdata$r	ENDS
;	COMDAT ??_R0?AVCGraphicObjectInstance@@@8
data$rs	SEGMENT
??_R0?AVCGraphicObjectInstance@@@8 DD FLAT:??_7type_info@@6B@ ; CGraphicObjectInstance `RTTI Type Descriptor'
	DD	00H
	DB	'.?AVCGraphicObjectInstance@@', 00H
data$rs	ENDS
;	COMDAT ??_R1A@?0A@EA@CGraphicObjectInstance@@8
rdata$r	SEGMENT
??_R1A@?0A@EA@CGraphicObjectInstance@@8 DD FLAT:??_R0?AVCGraphicObjectInstance@@@8 ; CGraphicObjectInstance::`RTTI Base Class Descriptor at (0,-1,0,64)'
	DD	02H
	DD	00H
	DD	0ffffffffH
	DD	00H
	DD	040H
	DD	FLAT:??_R3CGraphicObjectInstance@@8
rdata$r	ENDS
;	COMDAT ??_R2CGraphicThingInstance@@8
rdata$r	SEGMENT
??_R2CGraphicThingInstance@@8 DD FLAT:??_R1A@?0A@EA@CGraphicThingInstance@@8 ; CGraphicThingInstance::`RTTI Base Class Array'
	DD	FLAT:??_R1A@?0A@EA@CGraphicObjectInstance@@8
	DD	FLAT:??_R1A@?0A@EA@CGraphicCollisionObject@@8
	DD	FLAT:??_R1A@?0A@EA@CGraphicBase@@8
rdata$r	ENDS
;	COMDAT ??_R3CGraphicThingInstance@@8
rdata$r	SEGMENT
??_R3CGraphicThingInstance@@8 DD 00H			; CGraphicThingInstance::`RTTI Class Hierarchy Descriptor'
	DD	00H
	DD	04H
	DD	FLAT:??_R2CGraphicThingInstance@@8
rdata$r	ENDS
;	COMDAT ??_R0?AVCGraphicThingInstance@@@8
data$rs	SEGMENT
??_R0?AVCGraphicThingInstance@@@8 DD FLAT:??_7type_info@@6B@ ; CGraphicThingInstance `RTTI Type Descriptor'
	DD	00H
	DB	'.?AVCGraphicThingInstance@@', 00H
data$rs	ENDS
;	COMDAT ??_R1A@?0A@EA@CGraphicThingInstance@@8
rdata$r	SEGMENT
??_R1A@?0A@EA@CGraphicThingInstance@@8 DD FLAT:??_R0?AVCGraphicThingInstance@@@8 ; CGraphicThingInstance::`RTTI Base Class Descriptor at (0,-1,0,64)'
	DD	03H
	DD	00H
	DD	0ffffffffH
	DD	00H
	DD	040H
	DD	FLAT:??_R3CGraphicThingInstance@@8
rdata$r	ENDS
;	COMDAT ??_R2IActorInstance@@8
rdata$r	SEGMENT
??_R2IActorInstance@@8 DD FLAT:??_R1A@?0A@EA@IActorInstance@@8 ; IActorInstance::`RTTI Base Class Array'
	DD	FLAT:??_R1A@?0A@EA@CGraphicThingInstance@@8
	DD	FLAT:??_R1A@?0A@EA@CGraphicObjectInstance@@8
	DD	FLAT:??_R1A@?0A@EA@CGraphicCollisionObject@@8
	DD	FLAT:??_R1A@?0A@EA@CGraphicBase@@8
rdata$r	ENDS
;	COMDAT ??_R3IActorInstance@@8
rdata$r	SEGMENT
??_R3IActorInstance@@8 DD 00H				; IActorInstance::`RTTI Class Hierarchy Descriptor'
	DD	00H
	DD	05H
	DD	FLAT:??_R2IActorInstance@@8
rdata$r	ENDS
;	COMDAT ??_R0?AVIActorInstance@@@8
data$rs	SEGMENT
??_R0?AVIActorInstance@@@8 DD FLAT:??_7type_info@@6B@	; IActorInstance `RTTI Type Descriptor'
	DD	00H
	DB	'.?AVIActorInstance@@', 00H
data$rs	ENDS
;	COMDAT ??_R1A@?0A@EA@IActorInstance@@8
rdata$r	SEGMENT
??_R1A@?0A@EA@IActorInstance@@8 DD FLAT:??_R0?AVIActorInstance@@@8 ; IActorInstance::`RTTI Base Class Descriptor at (0,-1,0,64)'
	DD	04H
	DD	00H
	DD	0ffffffffH
	DD	00H
	DD	040H
	DD	FLAT:??_R3IActorInstance@@8
rdata$r	ENDS
;	COMDAT ??_R1A@?0A@EA@CActorInstance@@8
rdata$r	SEGMENT
??_R1A@?0A@EA@CActorInstance@@8 DD FLAT:??_R0?AVCActorInstance@@@8 ; CActorInstance::`RTTI Base Class Descriptor at (0,-1,0,64)'
	DD	06H
	DD	00H
	DD	0ffffffffH
	DD	00H
	DD	040H
	DD	FLAT:??_R3CActorInstance@@8
rdata$r	ENDS
;	COMDAT ??_R2CActorInstance@@8
rdata$r	SEGMENT
??_R2CActorInstance@@8 DD FLAT:??_R1A@?0A@EA@CActorInstance@@8 ; CActorInstance::`RTTI Base Class Array'
	DD	FLAT:??_R1A@?0A@EA@IActorInstance@@8
	DD	FLAT:??_R1A@?0A@EA@CGraphicThingInstance@@8
	DD	FLAT:??_R1A@?0A@EA@CGraphicObjectInstance@@8
	DD	FLAT:??_R1A@?0A@EA@CGraphicCollisionObject@@8
	DD	FLAT:??_R1A@?0A@EA@CGraphicBase@@8
	DD	FLAT:??_R1COM@?0A@EA@IFlyTargetableObject@@8
rdata$r	ENDS
;	COMDAT ??_R3CActorInstance@@8
rdata$r	SEGMENT
??_R3CActorInstance@@8 DD 00H				; CActorInstance::`RTTI Class Hierarchy Descriptor'
	DD	01H
	DD	07H
	DD	FLAT:??_R2CActorInstance@@8
rdata$r	ENDS
;	COMDAT ??_R0?AVCActorInstance@@@8
data$rs	SEGMENT
??_R0?AVCActorInstance@@@8 DD FLAT:??_7type_info@@6B@	; CActorInstance `RTTI Type Descriptor'
	DD	00H
	DB	'.?AVCActorInstance@@', 00H
data$rs	ENDS
;	COMDAT ??_R4CActorInstance@@6BIActorInstance@@@
rdata$r	SEGMENT
??_R4CActorInstance@@6BIActorInstance@@@ DD 00H		; CActorInstance::`RTTI Complete Object Locator'
	DD	00H
	DD	00H
	DD	FLAT:??_R0?AVCActorInstance@@@8
	DD	FLAT:??_R3CActorInstance@@8
rdata$r	ENDS
;	COMDAT ??_R1A@?0A@EA@IFlyTargetableObject@@8
rdata$r	SEGMENT
??_R1A@?0A@EA@IFlyTargetableObject@@8 DD FLAT:??_R0?AVIFlyTargetableObject@@@8 ; IFlyTargetableObject::`RTTI Base Class Descriptor at (0,-1,0,64)'
	DD	00H
	DD	00H
	DD	0ffffffffH
	DD	00H
	DD	040H
	DD	FLAT:??_R3IFlyTargetableObject@@8
rdata$r	ENDS
;	COMDAT ??_R2IFlyTargetableObject@@8
rdata$r	SEGMENT
??_R2IFlyTargetableObject@@8 DD FLAT:??_R1A@?0A@EA@IFlyTargetableObject@@8 ; IFlyTargetableObject::`RTTI Base Class Array'
rdata$r	ENDS
;	COMDAT ??_R3IFlyTargetableObject@@8
rdata$r	SEGMENT
??_R3IFlyTargetableObject@@8 DD 00H			; IFlyTargetableObject::`RTTI Class Hierarchy Descriptor'
	DD	00H
	DD	01H
	DD	FLAT:??_R2IFlyTargetableObject@@8
rdata$r	ENDS
;	COMDAT ??_R0?AVIFlyTargetableObject@@@8
data$rs	SEGMENT
??_R0?AVIFlyTargetableObject@@@8 DD FLAT:??_7type_info@@6B@ ; IFlyTargetableObject `RTTI Type Descriptor'
	DD	00H
	DB	'.?AVIFlyTargetableObject@@', 00H
data$rs	ENDS
;	COMDAT ??_R4IFlyTargetableObject@@6B@
rdata$r	SEGMENT
??_R4IFlyTargetableObject@@6B@ DD 00H			; IFlyTargetableObject::`RTTI Complete Object Locator'
	DD	00H
	DD	00H
	DD	FLAT:??_R0?AVIFlyTargetableObject@@@8
	DD	FLAT:??_R3IFlyTargetableObject@@8
rdata$r	ENDS
;	COMDAT ??_R1A@?0A@EA@CSphereCollisionInstance@@8
rdata$r	SEGMENT
??_R1A@?0A@EA@CSphereCollisionInstance@@8 DD FLAT:??_R0?AVCSphereCollisionInstance@@@8 ; CSphereCollisionInstance::`RTTI Base Class Descriptor at (0,-1,0,64)'
	DD	01H
	DD	00H
	DD	0ffffffffH
	DD	00H
	DD	040H
	DD	FLAT:??_R3CSphereCollisionInstance@@8
rdata$r	ENDS
;	COMDAT ??_R2CSphereCollisionInstance@@8
rdata$r	SEGMENT
??_R2CSphereCollisionInstance@@8 DD FLAT:??_R1A@?0A@EA@CSphereCollisionInstance@@8 ; CSphereCollisionInstance::`RTTI Base Class Array'
	DD	FLAT:??_R1A@?0A@EA@CBaseCollisionInstance@@8
rdata$r	ENDS
;	COMDAT ??_R3CSphereCollisionInstance@@8
rdata$r	SEGMENT
??_R3CSphereCollisionInstance@@8 DD 00H			; CSphereCollisionInstance::`RTTI Class Hierarchy Descriptor'
	DD	00H
	DD	02H
	DD	FLAT:??_R2CSphereCollisionInstance@@8
rdata$r	ENDS
;	COMDAT ??_R0?AVCSphereCollisionInstance@@@8
data$rs	SEGMENT
??_R0?AVCSphereCollisionInstance@@@8 DD FLAT:??_7type_info@@6B@ ; CSphereCollisionInstance `RTTI Type Descriptor'
	DD	00H
	DB	'.?AVCSphereCollisionInstance@@', 00H
data$rs	ENDS
;	COMDAT ??_R4CSphereCollisionInstance@@6B@
rdata$r	SEGMENT
??_R4CSphereCollisionInstance@@6B@ DD 00H		; CSphereCollisionInstance::`RTTI Complete Object Locator'
	DD	00H
	DD	00H
	DD	FLAT:??_R0?AVCSphereCollisionInstance@@@8
	DD	FLAT:??_R3CSphereCollisionInstance@@8
rdata$r	ENDS
;	COMDAT ??_R1A@?0A@EA@CBaseCollisionInstance@@8
rdata$r	SEGMENT
??_R1A@?0A@EA@CBaseCollisionInstance@@8 DD FLAT:??_R0?AVCBaseCollisionInstance@@@8 ; CBaseCollisionInstance::`RTTI Base Class Descriptor at (0,-1,0,64)'
	DD	00H
	DD	00H
	DD	0ffffffffH
	DD	00H
	DD	040H
	DD	FLAT:??_R3CBaseCollisionInstance@@8
rdata$r	ENDS
;	COMDAT ??_R2CBaseCollisionInstance@@8
rdata$r	SEGMENT
??_R2CBaseCollisionInstance@@8 DD FLAT:??_R1A@?0A@EA@CBaseCollisionInstance@@8 ; CBaseCollisionInstance::`RTTI Base Class Array'
rdata$r	ENDS
;	COMDAT ??_R3CBaseCollisionInstance@@8
rdata$r	SEGMENT
??_R3CBaseCollisionInstance@@8 DD 00H			; CBaseCollisionInstance::`RTTI Class Hierarchy Descriptor'
	DD	00H
	DD	01H
	DD	FLAT:??_R2CBaseCollisionInstance@@8
rdata$r	ENDS
;	COMDAT ??_R0?AVCBaseCollisionInstance@@@8
data$rs	SEGMENT
??_R0?AVCBaseCollisionInstance@@@8 DD FLAT:??_7type_info@@6B@ ; CBaseCollisionInstance `RTTI Type Descriptor'
	DD	00H
	DB	'.?AVCBaseCollisionInstance@@', 00H
data$rs	ENDS
;	COMDAT ??_R4CBaseCollisionInstance@@6B@
rdata$r	SEGMENT
??_R4CBaseCollisionInstance@@6B@ DD 00H			; CBaseCollisionInstance::`RTTI Complete Object Locator'
	DD	00H
	DD	00H
	DD	FLAT:??_R0?AVCBaseCollisionInstance@@@8
	DD	FLAT:??_R3CBaseCollisionInstance@@8
rdata$r	ENDS
;	COMDAT ??_C@_0CB@FEFEAKBM@CActorInstance?$FL?$CFp?$FN?5type?5?$CFd?5?9?$DO?5?$CF@
CONST	SEGMENT
??_C@_0CB@FEFEAKBM@CActorInstance?$FL?$CFp?$FN?5type?5?$CFd?5?9?$DO?5?$CF@ DB 'C'
	DB	'ActorInstance[%p] type %d -> %d', 00H	; `string'
CONST	ENDS
;	COMDAT ??_7CActorInstance@@6BIFlyTargetableObject@@@
CONST	SEGMENT
??_7CActorInstance@@6BIFlyTargetableObject@@@ DD FLAT:??_R4CActorInstance@@6BIFlyTargetableObject@@@ ; CActorInstance::`vftable'
	DD	FLAT:??_ECActorInstance@@WCOM@AEPAXI@Z
	DD	FLAT:?OnGetFlyTargetPosition@CActorInstance@@UAE?AUD3DXVECTOR3@@XZ
	DD	FLAT:?OnShootDamage@CActorInstance@@UAEXXZ
CONST	ENDS
;	COMDAT ??_7CActorInstance@@6BIActorInstance@@@
CONST	SEGMENT
??_7CActorInstance@@6BIActorInstance@@@ DD FLAT:??_R4CActorInstance@@6BIActorInstance@@@ ; CActorInstance::`vftable'
	DD	FLAT:??_ECActorInstance@@UAEPAXI@Z
	DD	FLAT:?GetType@IActorInstance@@UBEHXZ
	DD	FLAT:?OnInitialize@CGraphicThingInstance@@UAEXXZ
	DD	FLAT:?GetBoundingSphere@CGraphicThingInstance@@UAE_NAAUD3DXVECTOR3@@AAM@Z
	DD	FLAT:?OnRender@CActorInstance@@MAEXXZ
	DD	FLAT:?OnBlendRender@CGraphicThingInstance@@MAEXXZ
	DD	FLAT:?OnRenderToShadowMap@CGraphicThingInstance@@MAEXXZ
	DD	FLAT:?OnRenderShadow@CGraphicThingInstance@@MAEXXZ
	DD	FLAT:?OnRenderPCBlocker@CGraphicThingInstance@@MAEXXZ
	DD	FLAT:?OnClear@CGraphicThingInstance@@MAEXXZ
	DD	FLAT:?OnUpdate@CActorInstance@@MAEXXZ
	DD	FLAT:?OnDeform@CGraphicThingInstance@@MAEXXZ
	DD	FLAT:?OnUpdateCollisionData@CActorInstance@@MAEXPBV?$vector@VCStaticCollisionData@@V?$allocator@VCStaticCollisionData@@@std@@@std@@@Z
	DD	FLAT:?OnUpdateHeighInstance@CActorInstance@@MAEXPAVCAttributeInstance@@@Z
	DD	FLAT:?OnGetObjectHeight@CActorInstance@@MAE_NMMPAM@Z
	DD	FLAT:?CalculateBBox@CGraphicThingInstance@@UAEXXZ
	DD	FLAT:?GetBoundingAABB@CGraphicThingInstance@@UAE_NAAUD3DXVECTOR3@@0@Z
	DD	FLAT:?TestCollisionWithDynamicSphere@CActorInstance@@UAE_NABUCDynamicSphereInstance@@@Z
	DD	FLAT:?GetVirtualID@CActorInstance@@UAEKXZ
CONST	ENDS
;	COMDAT ??_7IActorInstance@@6B@
CONST	SEGMENT
??_7IActorInstance@@6B@ DD FLAT:??_R4IActorInstance@@6B@ ; IActorInstance::`vftable'
	DD	FLAT:??_EIActorInstance@@UAEPAXI@Z
	DD	FLAT:?GetType@IActorInstance@@UBEHXZ
	DD	FLAT:?OnInitialize@CGraphicThingInstance@@UAEXXZ
	DD	FLAT:?GetBoundingSphere@CGraphicThingInstance@@UAE_NAAUD3DXVECTOR3@@AAM@Z
	DD	FLAT:?OnRender@CGraphicThingInstance@@MAEXXZ
	DD	FLAT:?OnBlendRender@CGraphicThingInstance@@MAEXXZ
	DD	FLAT:?OnRenderToShadowMap@CGraphicThingInstance@@MAEXXZ
	DD	FLAT:?OnRenderShadow@CGraphicThingInstance@@MAEXXZ
	DD	FLAT:?OnRenderPCBlocker@CGraphicThingInstance@@MAEXXZ
	DD	FLAT:?OnClear@CGraphicThingInstance@@MAEXXZ
	DD	FLAT:?OnUpdate@CGraphicThingInstance@@MAEXXZ
	DD	FLAT:?OnDeform@CGraphicThingInstance@@MAEXXZ
	DD	FLAT:?OnUpdateCollisionData@CGraphicThingInstance@@MAEXPBV?$vector@VCStaticCollisionData@@V?$allocator@VCStaticCollisionData@@@std@@@std@@@Z
	DD	FLAT:?OnUpdateHeighInstance@CGraphicThingInstance@@MAEXPAVCAttributeInstance@@@Z
	DD	FLAT:?OnGetObjectHeight@CGraphicThingInstance@@MAE_NMMPAM@Z
	DD	FLAT:?CalculateBBox@CGraphicThingInstance@@UAEXXZ
	DD	FLAT:?GetBoundingAABB@CGraphicThingInstance@@UAE_NAAUD3DXVECTOR3@@0@Z
	DD	FLAT:__purecall
	DD	FLAT:__purecall
CONST	ENDS
;	COMDAT ?ms_kPool@?$CPooledObject@VCRotationDecorator@NEffectUpdateDecorator@@@@1V?$CDynamicPoolEx@VCRotationDecorator@NEffectUpdateDecorator@@@@A
_DATA	SEGMENT
?ms_kPool@?$CPooledObject@VCRotationDecorator@NEffectUpdateDecorator@@@@1V?$CDynamicPoolEx@VCRotationDecorator@NEffectUpdateDecorator@@@@A DD FLAT:??_7?$CDynamicPoolEx@VCRotationDecorator@NEffectUpdateDecorator@@@@6B@ ; CPooledObject<NEffectUpdateDecorator::CRotationDecorator>::ms_kPool
	DD	00H
	DD	00H
	DD	00H
	DD	00H
	DD	00H
	DD	00H
	DD	00H
	DD	00H
_DATA	ENDS
;	COMDAT ?ms_kPool@?$CPooledObject@VCGravityDecorator@NEffectUpdateDecorator@@@@1V?$CDynamicPoolEx@VCGravityDecorator@NEffectUpdateDecorator@@@@A
_DATA	SEGMENT
?ms_kPool@?$CPooledObject@VCGravityDecorator@NEffectUpdateDecorator@@@@1V?$CDynamicPoolEx@VCGravityDecorator@NEffectUpdateDecorator@@@@A DD FLAT:??_7?$CDynamicPoolEx@VCGravityDecorator@NEffectUpdateDecorator@@@@6B@ ; CPooledObject<NEffectUpdateDecorator::CGravityDecorator>::ms_kPool
	DD	00H
	DD	00H
	DD	00H
	DD	00H
	DD	00H
	DD	00H
	DD	00H
	DD	00H
_DATA	ENDS
;	COMDAT ?ms_kPool@?$CPooledObject@VCAirResistanceDecorator@NEffectUpdateDecorator@@@@1V?$CDynamicPoolEx@VCAirResistanceDecorator@NEffectUpdateDecorator@@@@A
_DATA	SEGMENT
?ms_kPool@?$CPooledObject@VCAirResistanceDecorator@NEffectUpdateDecorator@@@@1V?$CDynamicPoolEx@VCAirResistanceDecorator@NEffectUpdateDecorator@@@@A DD FLAT:??_7?$CDynamicPoolEx@VCAirResistanceDecorator@NEffectUpdateDecorator@@@@6B@ ; CPooledObject<NEffectUpdateDecorator::CAirResistanceDecorator>::ms_kPool
	DD	00H
	DD	00H
	DD	00H
	DD	00H
	DD	00H
	DD	00H
	DD	00H
	DD	00H
_DATA	ENDS
;	COMDAT ?ms_kPool@?$CPooledObject@VCTextureAnimationRandomDecorator@NEffectUpdateDecorator@@@@1V?$CDynamicPoolEx@VCTextureAnimationRandomDecorator@NEffectUpdateDecorator@@@@A
_DATA	SEGMENT
?ms_kPool@?$CPooledObject@VCTextureAnimationRandomDecorator@NEffectUpdateDecorator@@@@1V?$CDynamicPoolEx@VCTextureAnimationRandomDecorator@NEffectUpdateDecorator@@@@A DD FLAT:??_7?$CDynamicPoolEx@VCTextureAnimationRandomDecorator@NEffectUpdateDecorator@@@@6B@ ; CPooledObject<NEffectUpdateDecorator::CTextureAnimationRandomDecorator>::ms_kPool
	DD	00H
	DD	00H
	DD	00H
	DD	00H
	DD	00H
	DD	00H
	DD	00H
	DD	00H
_DATA	ENDS
;	COMDAT ?ms_kPool@?$CPooledObject@VCTextureAnimationCCWDecorator@NEffectUpdateDecorator@@@@1V?$CDynamicPoolEx@VCTextureAnimationCCWDecorator@NEffectUpdateDecorator@@@@A
_DATA	SEGMENT
?ms_kPool@?$CPooledObject@VCTextureAnimationCCWDecorator@NEffectUpdateDecorator@@@@1V?$CDynamicPoolEx@VCTextureAnimationCCWDecorator@NEffectUpdateDecorator@@@@A DD FLAT:??_7?$CDynamicPoolEx@VCTextureAnimationCCWDecorator@NEffectUpdateDecorator@@@@6B@ ; CPooledObject<NEffectUpdateDecorator::CTextureAnimationCCWDecorator>::ms_kPool
	DD	00H
	DD	00H
	DD	00H
	DD	00H
	DD	00H
	DD	00H
	DD	00H
	DD	00H
_DATA	ENDS
;	COMDAT ?ms_kPool@?$CPooledObject@VCTextureAnimationCWDecorator@NEffectUpdateDecorator@@@@1V?$CDynamicPoolEx@VCTextureAnimationCWDecorator@NEffectUpdateDecorator@@@@A
_DATA	SEGMENT
?ms_kPool@?$CPooledObject@VCTextureAnimationCWDecorator@NEffectUpdateDecorator@@@@1V?$CDynamicPoolEx@VCTextureAnimationCWDecorator@NEffectUpdateDecorator@@@@A DD FLAT:??_7?$CDynamicPoolEx@VCTextureAnimationCWDecorator@NEffectUpdateDecorator@@@@6B@ ; CPooledObject<NEffectUpdateDecorator::CTextureAnimationCWDecorator>::ms_kPool
	DD	00H
	DD	00H
	DD	00H
	DD	00H
	DD	00H
	DD	00H
	DD	00H
	DD	00H
_DATA	ENDS
;	COMDAT ?ms_kPool@?$CPooledObject@VCNullDecorator@NEffectUpdateDecorator@@@@1V?$CDynamicPoolEx@VCNullDecorator@NEffectUpdateDecorator@@@@A
_DATA	SEGMENT
?ms_kPool@?$CPooledObject@VCNullDecorator@NEffectUpdateDecorator@@@@1V?$CDynamicPoolEx@VCNullDecorator@NEffectUpdateDecorator@@@@A DD FLAT:??_7?$CDynamicPoolEx@VCNullDecorator@NEffectUpdateDecorator@@@@6B@ ; CPooledObject<NEffectUpdateDecorator::CNullDecorator>::ms_kPool
	DD	00H
	DD	00H
	DD	00H
	DD	00H
	DD	00H
	DD	00H
	DD	00H
	DD	00H
_DATA	ENDS
;	COMDAT ?ms_kPool@?$CPooledObject@VCHeaderDecorator@NEffectUpdateDecorator@@@@1V?$CDynamicPoolEx@VCHeaderDecorator@NEffectUpdateDecorator@@@@A
_DATA	SEGMENT
?ms_kPool@?$CPooledObject@VCHeaderDecorator@NEffectUpdateDecorator@@@@1V?$CDynamicPoolEx@VCHeaderDecorator@NEffectUpdateDecorator@@@@A DD FLAT:??_7?$CDynamicPoolEx@VCHeaderDecorator@NEffectUpdateDecorator@@@@6B@ ; CPooledObject<NEffectUpdateDecorator::CHeaderDecorator>::ms_kPool
	DD	00H
	DD	00H
	DD	00H
	DD	00H
	DD	00H
	DD	00H
	DD	00H
	DD	00H
_DATA	ENDS
;	COMDAT ??_7IFlyTargetableObject@@6B@
CONST	SEGMENT
??_7IFlyTargetableObject@@6B@ DD FLAT:??_R4IFlyTargetableObject@@6B@ ; IFlyTargetableObject::`vftable'
	DD	FLAT:??_EIFlyTargetableObject@@UAEPAXI@Z
	DD	FLAT:__purecall
	DD	FLAT:__purecall
CONST	ENDS
;	COMDAT ??_R1A@?0A@EA@bad_array_new_length@std@@8
rdata$r	SEGMENT
??_R1A@?0A@EA@bad_array_new_length@std@@8 DD FLAT:??_R0?AVbad_array_new_length@std@@@8 ; std::bad_array_new_length::`RTTI Base Class Descriptor at (0,-1,0,64)'
	DD	02H
	DD	00H
	DD	0ffffffffH
	DD	00H
	DD	040H
	DD	FLAT:??_R3bad_array_new_length@std@@8
rdata$r	ENDS
;	COMDAT ??_R2bad_array_new_length@std@@8
rdata$r	SEGMENT
??_R2bad_array_new_length@std@@8 DD FLAT:??_R1A@?0A@EA@bad_array_new_length@std@@8 ; std::bad_array_new_length::`RTTI Base Class Array'
	DD	FLAT:??_R1A@?0A@EA@bad_alloc@std@@8
	DD	FLAT:??_R1A@?0A@EA@exception@std@@8
rdata$r	ENDS
;	COMDAT ??_R3bad_array_new_length@std@@8
rdata$r	SEGMENT
??_R3bad_array_new_length@std@@8 DD 00H			; std::bad_array_new_length::`RTTI Class Hierarchy Descriptor'
	DD	00H
	DD	03H
	DD	FLAT:??_R2bad_array_new_length@std@@8
rdata$r	ENDS
;	COMDAT ??_R4bad_array_new_length@std@@6B@
rdata$r	SEGMENT
??_R4bad_array_new_length@std@@6B@ DD 00H		; std::bad_array_new_length::`RTTI Complete Object Locator'
	DD	00H
	DD	00H
	DD	FLAT:??_R0?AVbad_array_new_length@std@@@8
	DD	FLAT:??_R3bad_array_new_length@std@@8
rdata$r	ENDS
;	COMDAT ??_R1A@?0A@EA@bad_alloc@std@@8
rdata$r	SEGMENT
??_R1A@?0A@EA@bad_alloc@std@@8 DD FLAT:??_R0?AVbad_alloc@std@@@8 ; std::bad_alloc::`RTTI Base Class Descriptor at (0,-1,0,64)'
	DD	01H
	DD	00H
	DD	0ffffffffH
	DD	00H
	DD	040H
	DD	FLAT:??_R3bad_alloc@std@@8
rdata$r	ENDS
;	COMDAT ??_R2bad_alloc@std@@8
rdata$r	SEGMENT
??_R2bad_alloc@std@@8 DD FLAT:??_R1A@?0A@EA@bad_alloc@std@@8 ; std::bad_alloc::`RTTI Base Class Array'
	DD	FLAT:??_R1A@?0A@EA@exception@std@@8
rdata$r	ENDS
;	COMDAT ??_R3bad_alloc@std@@8
rdata$r	SEGMENT
??_R3bad_alloc@std@@8 DD 00H				; std::bad_alloc::`RTTI Class Hierarchy Descriptor'
	DD	00H
	DD	02H
	DD	FLAT:??_R2bad_alloc@std@@8
rdata$r	ENDS
;	COMDAT ??_R4bad_alloc@std@@6B@
rdata$r	SEGMENT
??_R4bad_alloc@std@@6B@ DD 00H				; std::bad_alloc::`RTTI Complete Object Locator'
	DD	00H
	DD	00H
	DD	FLAT:??_R0?AVbad_alloc@std@@@8
	DD	FLAT:??_R3bad_alloc@std@@8
rdata$r	ENDS
;	COMDAT ??_R1A@?0A@EA@exception@std@@8
rdata$r	SEGMENT
??_R1A@?0A@EA@exception@std@@8 DD FLAT:??_R0?AVexception@std@@@8 ; std::exception::`RTTI Base Class Descriptor at (0,-1,0,64)'
	DD	00H
	DD	00H
	DD	0ffffffffH
	DD	00H
	DD	040H
	DD	FLAT:??_R3exception@std@@8
rdata$r	ENDS
;	COMDAT ??_R2exception@std@@8
rdata$r	SEGMENT
??_R2exception@std@@8 DD FLAT:??_R1A@?0A@EA@exception@std@@8 ; std::exception::`RTTI Base Class Array'
rdata$r	ENDS
;	COMDAT ??_R3exception@std@@8
rdata$r	SEGMENT
??_R3exception@std@@8 DD 00H				; std::exception::`RTTI Class Hierarchy Descriptor'
	DD	00H
	DD	01H
	DD	FLAT:??_R2exception@std@@8
rdata$r	ENDS
;	COMDAT ??_R4exception@std@@6B@
rdata$r	SEGMENT
??_R4exception@std@@6B@ DD 00H				; std::exception::`RTTI Complete Object Locator'
	DD	00H
	DD	00H
	DD	FLAT:??_R0?AVexception@std@@@8
	DD	FLAT:??_R3exception@std@@8
rdata$r	ENDS
;	COMDAT ??_7CSphereCollisionInstance@@6B@
CONST	SEGMENT
??_7CSphereCollisionInstance@@6B@ DD FLAT:??_R4CSphereCollisionInstance@@6B@ ; CSphereCollisionInstance::`vftable'
	DD	FLAT:?Render@CSphereCollisionInstance@@UAEXW4_D3DFILLMODE@@@Z
	DD	FLAT:?OnGetCollisionMovementAdjust@CSphereCollisionInstance@@MBE?AUD3DXVECTOR3@@ABUCDynamicSphereInstance@@@Z
	DD	FLAT:?OnMovementCollisionDynamicSphere@CSphereCollisionInstance@@MBE_NABUCDynamicSphereInstance@@@Z
	DD	FLAT:?OnCollisionDynamicSphere@CSphereCollisionInstance@@MBE_NABUCDynamicSphereInstance@@@Z
	DD	FLAT:?OnDestroy@CSphereCollisionInstance@@MAEXXZ
CONST	ENDS
;	COMDAT ??_7CBaseCollisionInstance@@6B@
CONST	SEGMENT
??_7CBaseCollisionInstance@@6B@ DD FLAT:??_R4CBaseCollisionInstance@@6B@ ; CBaseCollisionInstance::`vftable'
	DD	FLAT:__purecall
	DD	FLAT:__purecall
	DD	FLAT:__purecall
	DD	FLAT:__purecall
	DD	FLAT:__purecall
CONST	ENDS
;	COMDAT __CT??_R0?AVexception@std@@@8??0exception@std@@QAE@ABV01@@Z12
xdata$x	SEGMENT
__CT??_R0?AVexception@std@@@8??0exception@std@@QAE@ABV01@@Z12 DD 00H
	DD	FLAT:??_R0?AVexception@std@@@8
	DD	00H
	DD	0ffffffffH
	ORG $+4
	DD	0cH
	DD	FLAT:??0exception@std@@QAE@ABV01@@Z
xdata$x	ENDS
;	COMDAT ??_R0?AVexception@std@@@8
data$r	SEGMENT
??_R0?AVexception@std@@@8 DD FLAT:??_7type_info@@6B@	; std::exception `RTTI Type Descriptor'
	DD	00H
	DB	'.?AVexception@std@@', 00H
data$r	ENDS
;	COMDAT __CT??_R0?AVbad_alloc@std@@@8??0bad_alloc@std@@QAE@ABV01@@Z12
xdata$x	SEGMENT
__CT??_R0?AVbad_alloc@std@@@8??0bad_alloc@std@@QAE@ABV01@@Z12 DD 010H
	DD	FLAT:??_R0?AVbad_alloc@std@@@8
	DD	00H
	DD	0ffffffffH
	ORG $+4
	DD	0cH
	DD	FLAT:??0bad_alloc@std@@QAE@ABV01@@Z
xdata$x	ENDS
;	COMDAT ??_R0?AVbad_alloc@std@@@8
data$r	SEGMENT
??_R0?AVbad_alloc@std@@@8 DD FLAT:??_7type_info@@6B@	; std::bad_alloc `RTTI Type Descriptor'
	DD	00H
	DB	'.?AVbad_alloc@std@@', 00H
data$r	ENDS
;	COMDAT __CT??_R0?AVbad_array_new_length@std@@@8??0bad_array_new_length@std@@QAE@ABV01@@Z12
xdata$x	SEGMENT
__CT??_R0?AVbad_array_new_length@std@@@8??0bad_array_new_length@std@@QAE@ABV01@@Z12 DD 00H
	DD	FLAT:??_R0?AVbad_array_new_length@std@@@8
	DD	00H
	DD	0ffffffffH
	ORG $+4
	DD	0cH
	DD	FLAT:??0bad_array_new_length@std@@QAE@ABV01@@Z
xdata$x	ENDS
;	COMDAT ??_R0?AVbad_array_new_length@std@@@8
data$r	SEGMENT
??_R0?AVbad_array_new_length@std@@@8 DD FLAT:??_7type_info@@6B@ ; std::bad_array_new_length `RTTI Type Descriptor'
	DD	00H
	DB	'.?AVbad_array_new_length@std@@', 00H
data$r	ENDS
;	COMDAT __CTA3?AVbad_array_new_length@std@@
xdata$x	SEGMENT
__CTA3?AVbad_array_new_length@std@@ DD 03H
	DD	FLAT:__CT??_R0?AVbad_array_new_length@std@@@8??0bad_array_new_length@std@@QAE@ABV01@@Z12
	DD	FLAT:__CT??_R0?AVbad_alloc@std@@@8??0bad_alloc@std@@QAE@ABV01@@Z12
	DD	FLAT:__CT??_R0?AVexception@std@@@8??0exception@std@@QAE@ABV01@@Z12
xdata$x	ENDS
;	COMDAT __TI3?AVbad_array_new_length@std@@
xdata$x	SEGMENT
__TI3?AVbad_array_new_length@std@@ DD 00H
	DD	FLAT:??1bad_array_new_length@std@@UAE@XZ
	DD	00H
	DD	FLAT:__CTA3?AVbad_array_new_length@std@@
xdata$x	ENDS
;	COMDAT ??_C@_0BF@KINCDENJ@bad?5array?5new?5length@
CONST	SEGMENT
??_C@_0BF@KINCDENJ@bad?5array?5new?5length@ DB 'bad array new length', 00H ; `string'
CONST	ENDS
;	COMDAT ??_7bad_array_new_length@std@@6B@
CONST	SEGMENT
??_7bad_array_new_length@std@@6B@ DD FLAT:??_R4bad_array_new_length@std@@6B@ ; std::bad_array_new_length::`vftable'
	DD	FLAT:??_Ebad_array_new_length@std@@UAEPAXI@Z
	DD	FLAT:?what@exception@std@@UBEPBDXZ
CONST	ENDS
;	COMDAT ??_7bad_alloc@std@@6B@
CONST	SEGMENT
??_7bad_alloc@std@@6B@ DD FLAT:??_R4bad_alloc@std@@6B@	; std::bad_alloc::`vftable'
	DD	FLAT:??_Ebad_alloc@std@@UAEPAXI@Z
	DD	FLAT:?what@exception@std@@UBEPBDXZ
CONST	ENDS
;	COMDAT ??_C@_0BC@EOODALEL@Unknown?5exception@
CONST	SEGMENT
??_C@_0BC@EOODALEL@Unknown?5exception@ DB 'Unknown exception', 00H ; `string'
CONST	ENDS
;	COMDAT ??_7exception@std@@6B@
CONST	SEGMENT
??_7exception@std@@6B@ DD FLAT:??_R4exception@std@@6B@	; std::exception::`vftable'
	DD	FLAT:??_Eexception@std@@UAEPAXI@Z
	DD	FLAT:?what@exception@std@@UBEPBDXZ
CONST	ENDS
;	COMDAT xdata$x
xdata$x	SEGMENT
__ehfuncinfo$??1?$CDynamicPoolEx@VCHeaderDecorator@NEffectUpdateDecorator@@@@UAE@XZ DD 019930522H
	DD	00H
	DD	00H
	DD	2 DUP(00H)
	DD	2 DUP(00H)
	DD	00H
	DD	05H
xdata$x	ENDS
;	COMDAT xdata$x
xdata$x	SEGMENT
__ehfuncinfo$??1?$CDynamicPoolEx@VCNullDecorator@NEffectUpdateDecorator@@@@UAE@XZ DD 019930522H
	DD	00H
	DD	00H
	DD	2 DUP(00H)
	DD	2 DUP(00H)
	DD	00H
	DD	05H
xdata$x	ENDS
;	COMDAT xdata$x
xdata$x	SEGMENT
__ehfuncinfo$??1?$CDynamicPoolEx@VCTextureAnimationCWDecorator@NEffectUpdateDecorator@@@@UAE@XZ DD 019930522H
	DD	00H
	DD	00H
	DD	2 DUP(00H)
	DD	2 DUP(00H)
	DD	00H
	DD	05H
xdata$x	ENDS
;	COMDAT xdata$x
xdata$x	SEGMENT
__ehfuncinfo$??1?$CDynamicPoolEx@VCTextureAnimationCCWDecorator@NEffectUpdateDecorator@@@@UAE@XZ DD 019930522H
	DD	00H
	DD	00H
	DD	2 DUP(00H)
	DD	2 DUP(00H)
	DD	00H
	DD	05H
xdata$x	ENDS
;	COMDAT xdata$x
xdata$x	SEGMENT
__ehfuncinfo$??1?$CDynamicPoolEx@VCTextureAnimationRandomDecorator@NEffectUpdateDecorator@@@@UAE@XZ DD 019930522H
	DD	00H
	DD	00H
	DD	2 DUP(00H)
	DD	2 DUP(00H)
	DD	00H
	DD	05H
xdata$x	ENDS
;	COMDAT xdata$x
xdata$x	SEGMENT
__ehfuncinfo$??1?$CDynamicPoolEx@VCAirResistanceDecorator@NEffectUpdateDecorator@@@@UAE@XZ DD 019930522H
	DD	00H
	DD	00H
	DD	2 DUP(00H)
	DD	2 DUP(00H)
	DD	00H
	DD	05H
xdata$x	ENDS
;	COMDAT xdata$x
xdata$x	SEGMENT
__ehfuncinfo$??1?$CDynamicPoolEx@VCGravityDecorator@NEffectUpdateDecorator@@@@UAE@XZ DD 019930522H
	DD	00H
	DD	00H
	DD	2 DUP(00H)
	DD	2 DUP(00H)
	DD	00H
	DD	05H
xdata$x	ENDS
;	COMDAT xdata$x
xdata$x	SEGMENT
__ehfuncinfo$??1?$CDynamicPoolEx@VCRotationDecorator@NEffectUpdateDecorator@@@@UAE@XZ DD 019930522H
	DD	00H
	DD	00H
	DD	2 DUP(00H)
	DD	2 DUP(00H)
	DD	00H
	DD	05H
xdata$x	ENDS
;	COMDAT xdata$x
xdata$x	SEGMENT
__ehfuncinfo$??1CActorInstance@@UAE@XZ DD 019930522H
	DD	00H
	DD	00H
	DD	2 DUP(00H)
	DD	2 DUP(00H)
	DD	00H
	DD	05H
xdata$x	ENDS
;	COMDAT xdata$x
xdata$x	SEGMENT
__ehfuncinfo$??0CActorInstance@@QAE@XZ DD 019930522H
	DD	0eH
	DD	FLAT:__unwindtable$??0CActorInstance@@QAE@XZ
	DD	2 DUP(00H)
	DD	2 DUP(00H)
	DD	00H
	DD	01H
__unwindtable$??0CActorInstance@@QAE@XZ DD 0ffffffffH
	DD	FLAT:__unwindfunclet$??0CActorInstance@@QAE@XZ$0
	DD	00H
	DD	FLAT:__unwindfunclet$??0CActorInstance@@QAE@XZ$1
	DD	01H
	DD	FLAT:__unwindfunclet$??0CActorInstance@@QAE@XZ$2
	DD	02H
	DD	FLAT:__unwindfunclet$??0CActorInstance@@QAE@XZ$3
	DD	03H
	DD	FLAT:__unwindfunclet$??0CActorInstance@@QAE@XZ$4
	DD	04H
	DD	FLAT:__unwindfunclet$??0CActorInstance@@QAE@XZ$5
	DD	05H
	DD	FLAT:__unwindfunclet$??0CActorInstance@@QAE@XZ$6
	DD	06H
	DD	FLAT:__unwindfunclet$??0CActorInstance@@QAE@XZ$7
	DD	07H
	DD	FLAT:__unwindfunclet$??0CActorInstance@@QAE@XZ$16
	DD	07H
	DD	FLAT:__unwindfunclet$??0CActorInstance@@QAE@XZ$8
	DD	09H
	DD	FLAT:__unwindfunclet$??0CActorInstance@@QAE@XZ$9
	DD	0aH
	DD	FLAT:__unwindfunclet$??0CActorInstance@@QAE@XZ$10
	DD	0bH
	DD	FLAT:__unwindfunclet$??0CActorInstance@@QAE@XZ$11
	DD	0cH
	DD	FLAT:__unwindfunclet$??0CActorInstance@@QAE@XZ$12
xdata$x	ENDS
;	COMDAT xdata$x
xdata$x	SEGMENT
__unwindtable$??0SSplashArea@CActorInstance@@QAE@XZ DD 0ffffffffH
	DD	FLAT:__unwindfunclet$??0SSplashArea@CActorInstance@@QAE@XZ$0
__ehfuncinfo$??0SSplashArea@CActorInstance@@QAE@XZ DD 019930522H
	DD	01H
	DD	FLAT:__unwindtable$??0SSplashArea@CActorInstance@@QAE@XZ
	DD	2 DUP(00H)
	DD	2 DUP(00H)
	DD	00H
	DD	01H
xdata$x	ENDS
;	COMDAT CRT$XCU
CRT$XCU	SEGMENT
??ms_kPool$initializer$@?$CPooledObject@VCNullDecorator@NEffectUpdateDecorator@@@@1P6AXXZA@@3P6AXXZA DD FLAT:??__E?ms_kPool@?$CPooledObject@VCNullDecorator@NEffectUpdateDecorator@@@@1V?$CDynamicPoolEx@VCNullDecorator@NEffectUpdateDecorator@@@@A@@YAXXZ ; ??ms_kPool$initializer$@?$CPooledObject@VCNullDecorator@NEffectUpdateDecorator@@@@1P6AXXZA@@3P6AXXZA
CRT$XCU	ENDS
;	COMDAT CRT$XCU
CRT$XCU	SEGMENT
??ms_kPool$initializer$@?$CPooledObject@VCTextureAnimationCWDecorator@NEffectUpdateDecorator@@@@1P6AXXZA@@3P6AXXZA DD FLAT:??__E?ms_kPool@?$CPooledObject@VCTextureAnimationCWDecorator@NEffectUpdateDecorator@@@@1V?$CDynamicPoolEx@VCTextureAnimationCWDecorator@NEffectUpdateDecorator@@@@A@@YAXXZ ; ??ms_kPool$initializer$@?$CPooledObject@VCTextureAnimationCWDecorator@NEffectUpdateDecorator@@@@1P6AXXZA@@3P6AXXZA
CRT$XCU	ENDS
;	COMDAT CRT$XCU
CRT$XCU	SEGMENT
??ms_kPool$initializer$@?$CPooledObject@VCTextureAnimationCCWDecorator@NEffectUpdateDecorator@@@@1P6AXXZA@@3P6AXXZA DD FLAT:??__E?ms_kPool@?$CPooledObject@VCTextureAnimationCCWDecorator@NEffectUpdateDecorator@@@@1V?$CDynamicPoolEx@VCTextureAnimationCCWDecorator@NEffectUpdateDecorator@@@@A@@YAXXZ ; ??ms_kPool$initializer$@?$CPooledObject@VCTextureAnimationCCWDecorator@NEffectUpdateDecorator@@@@1P6AXXZA@@3P6AXXZA
CRT$XCU	ENDS
;	COMDAT CRT$XCU
CRT$XCU	SEGMENT
??ms_kPool$initializer$@?$CPooledObject@VCTextureAnimationRandomDecorator@NEffectUpdateDecorator@@@@1P6AXXZA@@3P6AXXZA DD FLAT:??__E?ms_kPool@?$CPooledObject@VCTextureAnimationRandomDecorator@NEffectUpdateDecorator@@@@1V?$CDynamicPoolEx@VCTextureAnimationRandomDecorator@NEffectUpdateDecorator@@@@A@@YAXXZ ; ??ms_kPool$initializer$@?$CPooledObject@VCTextureAnimationRandomDecorator@NEffectUpdateDecorator@@@@1P6AXXZA@@3P6AXXZA
CRT$XCU	ENDS
;	COMDAT CRT$XCU
CRT$XCU	SEGMENT
??ms_kPool$initializer$@?$CPooledObject@VCAirResistanceDecorator@NEffectUpdateDecorator@@@@1P6AXXZA@@3P6AXXZA DD FLAT:??__E?ms_kPool@?$CPooledObject@VCAirResistanceDecorator@NEffectUpdateDecorator@@@@1V?$CDynamicPoolEx@VCAirResistanceDecorator@NEffectUpdateDecorator@@@@A@@YAXXZ ; ??ms_kPool$initializer$@?$CPooledObject@VCAirResistanceDecorator@NEffectUpdateDecorator@@@@1P6AXXZA@@3P6AXXZA
CRT$XCU	ENDS
;	COMDAT CRT$XCU
CRT$XCU	SEGMENT
??ms_kPool$initializer$@?$CPooledObject@VCGravityDecorator@NEffectUpdateDecorator@@@@1P6AXXZA@@3P6AXXZA DD FLAT:??__E?ms_kPool@?$CPooledObject@VCGravityDecorator@NEffectUpdateDecorator@@@@1V?$CDynamicPoolEx@VCGravityDecorator@NEffectUpdateDecorator@@@@A@@YAXXZ ; ??ms_kPool$initializer$@?$CPooledObject@VCGravityDecorator@NEffectUpdateDecorator@@@@1P6AXXZA@@3P6AXXZA
CRT$XCU	ENDS
;	COMDAT CRT$XCU
CRT$XCU	SEGMENT
??ms_kPool$initializer$@?$CPooledObject@VCRotationDecorator@NEffectUpdateDecorator@@@@1P6AXXZA@@3P6AXXZA DD FLAT:??__E?ms_kPool@?$CPooledObject@VCRotationDecorator@NEffectUpdateDecorator@@@@1V?$CDynamicPoolEx@VCRotationDecorator@NEffectUpdateDecorator@@@@A@@YAXXZ ; ??ms_kPool$initializer$@?$CPooledObject@VCRotationDecorator@NEffectUpdateDecorator@@@@1P6AXXZA@@3P6AXXZA
CRT$XCU	ENDS
; Function compile flags: /Odsp
;	COMDAT ??_ECActorInstance@@WCOM@AEPAXI@Z
_TEXT	SEGMENT
??_ECActorInstance@@WCOM@AEPAXI@Z PROC			; [thunk]:CActorInstance::`vector deleting destructor', COMDAT
  00000	81 e9 ec 02 00
	00		 sub	 ecx, 748		; 000002ecH
  00006	e9 00 00 00 00	 jmp	 ??_ECActorInstance@@UAEPAXI@Z
??_ECActorInstance@@WCOM@AEPAXI@Z ENDP			; [thunk]:CActorInstance::`vector deleting destructor'
_TEXT	ENDS
; Function compile flags: /Ogtp
;	COMDAT ??__F?ms_kPool@?$CPooledObject@VCRotationDecorator@NEffectUpdateDecorator@@@@1V?$CDynamicPoolEx@VCRotationDecorator@NEffectUpdateDecorator@@@@A@@YAXXZ
text$yd	SEGMENT
??__F?ms_kPool@?$CPooledObject@VCRotationDecorator@NEffectUpdateDecorator@@@@1V?$CDynamicPoolEx@VCRotationDecorator@NEffectUpdateDecorator@@@@A@@YAXXZ PROC ; `dynamic atexit destructor for 'CPooledObject<NEffectUpdateDecorator::CRotationDecorator>::ms_kPool'', COMDAT
  00000	b9 00 00 00 00	 mov	 ecx, OFFSET ?ms_kPool@?$CPooledObject@VCRotationDecorator@NEffectUpdateDecorator@@@@1V?$CDynamicPoolEx@VCRotationDecorator@NEffectUpdateDecorator@@@@A ; CPooledObject<NEffectUpdateDecorator::CRotationDecorator>::ms_kPool
  00005	e9 00 00 00 00	 jmp	 ??1?$CDynamicPoolEx@VCRotationDecorator@NEffectUpdateDecorator@@@@UAE@XZ ; CDynamicPoolEx<NEffectUpdateDecorator::CRotationDecorator>::~CDynamicPoolEx<NEffectUpdateDecorator::CRotationDecorator>
??__F?ms_kPool@?$CPooledObject@VCRotationDecorator@NEffectUpdateDecorator@@@@1V?$CDynamicPoolEx@VCRotationDecorator@NEffectUpdateDecorator@@@@A@@YAXXZ ENDP ; `dynamic atexit destructor for 'CPooledObject<NEffectUpdateDecorator::CRotationDecorator>::ms_kPool''
text$yd	ENDS
; Function compile flags: /Ogtp
; File C:\Users\flourine\Desktop\Xantios\client-src\Code\eterLib\Pool.h
;	COMDAT ??__E?ms_kPool@?$CPooledObject@VCRotationDecorator@NEffectUpdateDecorator@@@@1V?$CDynamicPoolEx@VCRotationDecorator@NEffectUpdateDecorator@@@@A@@YAXXZ
text$di	SEGMENT
??__E?ms_kPool@?$CPooledObject@VCRotationDecorator@NEffectUpdateDecorator@@@@1V?$CDynamicPoolEx@VCRotationDecorator@NEffectUpdateDecorator@@@@A@@YAXXZ PROC ; `dynamic initializer for 'CPooledObject<NEffectUpdateDecorator::CRotationDecorator>::ms_kPool'', COMDAT

; 280  : template <class T> CDynamicPoolEx<T> CPooledObject<T>::ms_kPool;

  00000	68 00 00 00 00	 push	 OFFSET ??__F?ms_kPool@?$CPooledObject@VCRotationDecorator@NEffectUpdateDecorator@@@@1V?$CDynamicPoolEx@VCRotationDecorator@NEffectUpdateDecorator@@@@A@@YAXXZ ; `dynamic atexit destructor for 'CPooledObject<NEffectUpdateDecorator::CRotationDecorator>::ms_kPool''
  00005	e8 00 00 00 00	 call	 _atexit
  0000a	59		 pop	 ecx
  0000b	c3		 ret	 0
??__E?ms_kPool@?$CPooledObject@VCRotationDecorator@NEffectUpdateDecorator@@@@1V?$CDynamicPoolEx@VCRotationDecorator@NEffectUpdateDecorator@@@@A@@YAXXZ ENDP ; `dynamic initializer for 'CPooledObject<NEffectUpdateDecorator::CRotationDecorator>::ms_kPool''
text$di	ENDS
; Function compile flags: /Ogtp
;	COMDAT ??__F?ms_kPool@?$CPooledObject@VCGravityDecorator@NEffectUpdateDecorator@@@@1V?$CDynamicPoolEx@VCGravityDecorator@NEffectUpdateDecorator@@@@A@@YAXXZ
text$yd	SEGMENT
??__F?ms_kPool@?$CPooledObject@VCGravityDecorator@NEffectUpdateDecorator@@@@1V?$CDynamicPoolEx@VCGravityDecorator@NEffectUpdateDecorator@@@@A@@YAXXZ PROC ; `dynamic atexit destructor for 'CPooledObject<NEffectUpdateDecorator::CGravityDecorator>::ms_kPool'', COMDAT
  00000	b9 00 00 00 00	 mov	 ecx, OFFSET ?ms_kPool@?$CPooledObject@VCGravityDecorator@NEffectUpdateDecorator@@@@1V?$CDynamicPoolEx@VCGravityDecorator@NEffectUpdateDecorator@@@@A ; CPooledObject<NEffectUpdateDecorator::CGravityDecorator>::ms_kPool
  00005	e9 00 00 00 00	 jmp	 ??1?$CDynamicPoolEx@VCGravityDecorator@NEffectUpdateDecorator@@@@UAE@XZ ; CDynamicPoolEx<NEffectUpdateDecorator::CGravityDecorator>::~CDynamicPoolEx<NEffectUpdateDecorator::CGravityDecorator>
??__F?ms_kPool@?$CPooledObject@VCGravityDecorator@NEffectUpdateDecorator@@@@1V?$CDynamicPoolEx@VCGravityDecorator@NEffectUpdateDecorator@@@@A@@YAXXZ ENDP ; `dynamic atexit destructor for 'CPooledObject<NEffectUpdateDecorator::CGravityDecorator>::ms_kPool''
text$yd	ENDS
; Function compile flags: /Ogtp
; File C:\Users\flourine\Desktop\Xantios\client-src\Code\eterLib\Pool.h
;	COMDAT ??__E?ms_kPool@?$CPooledObject@VCGravityDecorator@NEffectUpdateDecorator@@@@1V?$CDynamicPoolEx@VCGravityDecorator@NEffectUpdateDecorator@@@@A@@YAXXZ
text$di	SEGMENT
??__E?ms_kPool@?$CPooledObject@VCGravityDecorator@NEffectUpdateDecorator@@@@1V?$CDynamicPoolEx@VCGravityDecorator@NEffectUpdateDecorator@@@@A@@YAXXZ PROC ; `dynamic initializer for 'CPooledObject<NEffectUpdateDecorator::CGravityDecorator>::ms_kPool'', COMDAT

; 280  : template <class T> CDynamicPoolEx<T> CPooledObject<T>::ms_kPool;

  00000	68 00 00 00 00	 push	 OFFSET ??__F?ms_kPool@?$CPooledObject@VCGravityDecorator@NEffectUpdateDecorator@@@@1V?$CDynamicPoolEx@VCGravityDecorator@NEffectUpdateDecorator@@@@A@@YAXXZ ; `dynamic atexit destructor for 'CPooledObject<NEffectUpdateDecorator::CGravityDecorator>::ms_kPool''
  00005	e8 00 00 00 00	 call	 _atexit
  0000a	59		 pop	 ecx
  0000b	c3		 ret	 0
??__E?ms_kPool@?$CPooledObject@VCGravityDecorator@NEffectUpdateDecorator@@@@1V?$CDynamicPoolEx@VCGravityDecorator@NEffectUpdateDecorator@@@@A@@YAXXZ ENDP ; `dynamic initializer for 'CPooledObject<NEffectUpdateDecorator::CGravityDecorator>::ms_kPool''
text$di	ENDS
; Function compile flags: /Ogtp
;	COMDAT ??__F?ms_kPool@?$CPooledObject@VCAirResistanceDecorator@NEffectUpdateDecorator@@@@1V?$CDynamicPoolEx@VCAirResistanceDecorator@NEffectUpdateDecorator@@@@A@@YAXXZ
text$yd	SEGMENT
??__F?ms_kPool@?$CPooledObject@VCAirResistanceDecorator@NEffectUpdateDecorator@@@@1V?$CDynamicPoolEx@VCAirResistanceDecorator@NEffectUpdateDecorator@@@@A@@YAXXZ PROC ; `dynamic atexit destructor for 'CPooledObject<NEffectUpdateDecorator::CAirResistanceDecorator>::ms_kPool'', COMDAT
  00000	b9 00 00 00 00	 mov	 ecx, OFFSET ?ms_kPool@?$CPooledObject@VCAirResistanceDecorator@NEffectUpdateDecorator@@@@1V?$CDynamicPoolEx@VCAirResistanceDecorator@NEffectUpdateDecorator@@@@A ; CPooledObject<NEffectUpdateDecorator::CAirResistanceDecorator>::ms_kPool
  00005	e9 00 00 00 00	 jmp	 ??1?$CDynamicPoolEx@VCAirResistanceDecorator@NEffectUpdateDecorator@@@@UAE@XZ ; CDynamicPoolEx<NEffectUpdateDecorator::CAirResistanceDecorator>::~CDynamicPoolEx<NEffectUpdateDecorator::CAirResistanceDecorator>
??__F?ms_kPool@?$CPooledObject@VCAirResistanceDecorator@NEffectUpdateDecorator@@@@1V?$CDynamicPoolEx@VCAirResistanceDecorator@NEffectUpdateDecorator@@@@A@@YAXXZ ENDP ; `dynamic atexit destructor for 'CPooledObject<NEffectUpdateDecorator::CAirResistanceDecorator>::ms_kPool''
text$yd	ENDS
; Function compile flags: /Ogtp
; File C:\Users\flourine\Desktop\Xantios\client-src\Code\eterLib\Pool.h
;	COMDAT ??__E?ms_kPool@?$CPooledObject@VCAirResistanceDecorator@NEffectUpdateDecorator@@@@1V?$CDynamicPoolEx@VCAirResistanceDecorator@NEffectUpdateDecorator@@@@A@@YAXXZ
text$di	SEGMENT
??__E?ms_kPool@?$CPooledObject@VCAirResistanceDecorator@NEffectUpdateDecorator@@@@1V?$CDynamicPoolEx@VCAirResistanceDecorator@NEffectUpdateDecorator@@@@A@@YAXXZ PROC ; `dynamic initializer for 'CPooledObject<NEffectUpdateDecorator::CAirResistanceDecorator>::ms_kPool'', COMDAT

; 280  : template <class T> CDynamicPoolEx<T> CPooledObject<T>::ms_kPool;

  00000	68 00 00 00 00	 push	 OFFSET ??__F?ms_kPool@?$CPooledObject@VCAirResistanceDecorator@NEffectUpdateDecorator@@@@1V?$CDynamicPoolEx@VCAirResistanceDecorator@NEffectUpdateDecorator@@@@A@@YAXXZ ; `dynamic atexit destructor for 'CPooledObject<NEffectUpdateDecorator::CAirResistanceDecorator>::ms_kPool''
  00005	e8 00 00 00 00	 call	 _atexit
  0000a	59		 pop	 ecx
  0000b	c3		 ret	 0
??__E?ms_kPool@?$CPooledObject@VCAirResistanceDecorator@NEffectUpdateDecorator@@@@1V?$CDynamicPoolEx@VCAirResistanceDecorator@NEffectUpdateDecorator@@@@A@@YAXXZ ENDP ; `dynamic initializer for 'CPooledObject<NEffectUpdateDecorator::CAirResistanceDecorator>::ms_kPool''
text$di	ENDS
; Function compile flags: /Ogtp
;	COMDAT ??__F?ms_kPool@?$CPooledObject@VCTextureAnimationRandomDecorator@NEffectUpdateDecorator@@@@1V?$CDynamicPoolEx@VCTextureAnimationRandomDecorator@NEffectUpdateDecorator@@@@A@@YAXXZ
text$yd	SEGMENT
??__F?ms_kPool@?$CPooledObject@VCTextureAnimationRandomDecorator@NEffectUpdateDecorator@@@@1V?$CDynamicPoolEx@VCTextureAnimationRandomDecorator@NEffectUpdateDecorator@@@@A@@YAXXZ PROC ; `dynamic atexit destructor for 'CPooledObject<NEffectUpdateDecorator::CTextureAnimationRandomDecorator>::ms_kPool'', COMDAT
  00000	b9 00 00 00 00	 mov	 ecx, OFFSET ?ms_kPool@?$CPooledObject@VCTextureAnimationRandomDecorator@NEffectUpdateDecorator@@@@1V?$CDynamicPoolEx@VCTextureAnimationRandomDecorator@NEffectUpdateDecorator@@@@A ; CPooledObject<NEffectUpdateDecorator::CTextureAnimationRandomDecorator>::ms_kPool
  00005	e9 00 00 00 00	 jmp	 ??1?$CDynamicPoolEx@VCTextureAnimationRandomDecorator@NEffectUpdateDecorator@@@@UAE@XZ ; CDynamicPoolEx<NEffectUpdateDecorator::CTextureAnimationRandomDecorator>::~CDynamicPoolEx<NEffectUpdateDecorator::CTextureAnimationRandomDecorator>
??__F?ms_kPool@?$CPooledObject@VCTextureAnimationRandomDecorator@NEffectUpdateDecorator@@@@1V?$CDynamicPoolEx@VCTextureAnimationRandomDecorator@NEffectUpdateDecorator@@@@A@@YAXXZ ENDP ; `dynamic atexit destructor for 'CPooledObject<NEffectUpdateDecorator::CTextureAnimationRandomDecorator>::ms_kPool''
text$yd	ENDS
; Function compile flags: /Ogtp
; File C:\Users\flourine\Desktop\Xantios\client-src\Code\eterLib\Pool.h
;	COMDAT ??__E?ms_kPool@?$CPooledObject@VCTextureAnimationRandomDecorator@NEffectUpdateDecorator@@@@1V?$CDynamicPoolEx@VCTextureAnimationRandomDecorator@NEffectUpdateDecorator@@@@A@@YAXXZ
text$di	SEGMENT
??__E?ms_kPool@?$CPooledObject@VCTextureAnimationRandomDecorator@NEffectUpdateDecorator@@@@1V?$CDynamicPoolEx@VCTextureAnimationRandomDecorator@NEffectUpdateDecorator@@@@A@@YAXXZ PROC ; `dynamic initializer for 'CPooledObject<NEffectUpdateDecorator::CTextureAnimationRandomDecorator>::ms_kPool'', COMDAT

; 280  : template <class T> CDynamicPoolEx<T> CPooledObject<T>::ms_kPool;

  00000	68 00 00 00 00	 push	 OFFSET ??__F?ms_kPool@?$CPooledObject@VCTextureAnimationRandomDecorator@NEffectUpdateDecorator@@@@1V?$CDynamicPoolEx@VCTextureAnimationRandomDecorator@NEffectUpdateDecorator@@@@A@@YAXXZ ; `dynamic atexit destructor for 'CPooledObject<NEffectUpdateDecorator::CTextureAnimationRandomDecorator>::ms_kPool''
  00005	e8 00 00 00 00	 call	 _atexit
  0000a	59		 pop	 ecx
  0000b	c3		 ret	 0
??__E?ms_kPool@?$CPooledObject@VCTextureAnimationRandomDecorator@NEffectUpdateDecorator@@@@1V?$CDynamicPoolEx@VCTextureAnimationRandomDecorator@NEffectUpdateDecorator@@@@A@@YAXXZ ENDP ; `dynamic initializer for 'CPooledObject<NEffectUpdateDecorator::CTextureAnimationRandomDecorator>::ms_kPool''
text$di	ENDS
; Function compile flags: /Ogtp
;	COMDAT ??__F?ms_kPool@?$CPooledObject@VCTextureAnimationCCWDecorator@NEffectUpdateDecorator@@@@1V?$CDynamicPoolEx@VCTextureAnimationCCWDecorator@NEffectUpdateDecorator@@@@A@@YAXXZ
text$yd	SEGMENT
??__F?ms_kPool@?$CPooledObject@VCTextureAnimationCCWDecorator@NEffectUpdateDecorator@@@@1V?$CDynamicPoolEx@VCTextureAnimationCCWDecorator@NEffectUpdateDecorator@@@@A@@YAXXZ PROC ; `dynamic atexit destructor for 'CPooledObject<NEffectUpdateDecorator::CTextureAnimationCCWDecorator>::ms_kPool'', COMDAT
  00000	b9 00 00 00 00	 mov	 ecx, OFFSET ?ms_kPool@?$CPooledObject@VCTextureAnimationCCWDecorator@NEffectUpdateDecorator@@@@1V?$CDynamicPoolEx@VCTextureAnimationCCWDecorator@NEffectUpdateDecorator@@@@A ; CPooledObject<NEffectUpdateDecorator::CTextureAnimationCCWDecorator>::ms_kPool
  00005	e9 00 00 00 00	 jmp	 ??1?$CDynamicPoolEx@VCTextureAnimationCCWDecorator@NEffectUpdateDecorator@@@@UAE@XZ ; CDynamicPoolEx<NEffectUpdateDecorator::CTextureAnimationCCWDecorator>::~CDynamicPoolEx<NEffectUpdateDecorator::CTextureAnimationCCWDecorator>
??__F?ms_kPool@?$CPooledObject@VCTextureAnimationCCWDecorator@NEffectUpdateDecorator@@@@1V?$CDynamicPoolEx@VCTextureAnimationCCWDecorator@NEffectUpdateDecorator@@@@A@@YAXXZ ENDP ; `dynamic atexit destructor for 'CPooledObject<NEffectUpdateDecorator::CTextureAnimationCCWDecorator>::ms_kPool''
text$yd	ENDS
; Function compile flags: /Ogtp
; File C:\Users\flourine\Desktop\Xantios\client-src\Code\eterLib\Pool.h
;	COMDAT ??__E?ms_kPool@?$CPooledObject@VCTextureAnimationCCWDecorator@NEffectUpdateDecorator@@@@1V?$CDynamicPoolEx@VCTextureAnimationCCWDecorator@NEffectUpdateDecorator@@@@A@@YAXXZ
text$di	SEGMENT
??__E?ms_kPool@?$CPooledObject@VCTextureAnimationCCWDecorator@NEffectUpdateDecorator@@@@1V?$CDynamicPoolEx@VCTextureAnimationCCWDecorator@NEffectUpdateDecorator@@@@A@@YAXXZ PROC ; `dynamic initializer for 'CPooledObject<NEffectUpdateDecorator::CTextureAnimationCCWDecorator>::ms_kPool'', COMDAT

; 280  : template <class T> CDynamicPoolEx<T> CPooledObject<T>::ms_kPool;

  00000	68 00 00 00 00	 push	 OFFSET ??__F?ms_kPool@?$CPooledObject@VCTextureAnimationCCWDecorator@NEffectUpdateDecorator@@@@1V?$CDynamicPoolEx@VCTextureAnimationCCWDecorator@NEffectUpdateDecorator@@@@A@@YAXXZ ; `dynamic atexit destructor for 'CPooledObject<NEffectUpdateDecorator::CTextureAnimationCCWDecorator>::ms_kPool''
  00005	e8 00 00 00 00	 call	 _atexit
  0000a	59		 pop	 ecx
  0000b	c3		 ret	 0
??__E?ms_kPool@?$CPooledObject@VCTextureAnimationCCWDecorator@NEffectUpdateDecorator@@@@1V?$CDynamicPoolEx@VCTextureAnimationCCWDecorator@NEffectUpdateDecorator@@@@A@@YAXXZ ENDP ; `dynamic initializer for 'CPooledObject<NEffectUpdateDecorator::CTextureAnimationCCWDecorator>::ms_kPool''
text$di	ENDS
; Function compile flags: /Ogtp
;	COMDAT ??__F?ms_kPool@?$CPooledObject@VCTextureAnimationCWDecorator@NEffectUpdateDecorator@@@@1V?$CDynamicPoolEx@VCTextureAnimationCWDecorator@NEffectUpdateDecorator@@@@A@@YAXXZ
text$yd	SEGMENT
??__F?ms_kPool@?$CPooledObject@VCTextureAnimationCWDecorator@NEffectUpdateDecorator@@@@1V?$CDynamicPoolEx@VCTextureAnimationCWDecorator@NEffectUpdateDecorator@@@@A@@YAXXZ PROC ; `dynamic atexit destructor for 'CPooledObject<NEffectUpdateDecorator::CTextureAnimationCWDecorator>::ms_kPool'', COMDAT
  00000	b9 00 00 00 00	 mov	 ecx, OFFSET ?ms_kPool@?$CPooledObject@VCTextureAnimationCWDecorator@NEffectUpdateDecorator@@@@1V?$CDynamicPoolEx@VCTextureAnimationCWDecorator@NEffectUpdateDecorator@@@@A ; CPooledObject<NEffectUpdateDecorator::CTextureAnimationCWDecorator>::ms_kPool
  00005	e9 00 00 00 00	 jmp	 ??1?$CDynamicPoolEx@VCTextureAnimationCWDecorator@NEffectUpdateDecorator@@@@UAE@XZ ; CDynamicPoolEx<NEffectUpdateDecorator::CTextureAnimationCWDecorator>::~CDynamicPoolEx<NEffectUpdateDecorator::CTextureAnimationCWDecorator>
??__F?ms_kPool@?$CPooledObject@VCTextureAnimationCWDecorator@NEffectUpdateDecorator@@@@1V?$CDynamicPoolEx@VCTextureAnimationCWDecorator@NEffectUpdateDecorator@@@@A@@YAXXZ ENDP ; `dynamic atexit destructor for 'CPooledObject<NEffectUpdateDecorator::CTextureAnimationCWDecorator>::ms_kPool''
text$yd	ENDS
; Function compile flags: /Ogtp
; File C:\Users\flourine\Desktop\Xantios\client-src\Code\eterLib\Pool.h
;	COMDAT ??__E?ms_kPool@?$CPooledObject@VCTextureAnimationCWDecorator@NEffectUpdateDecorator@@@@1V?$CDynamicPoolEx@VCTextureAnimationCWDecorator@NEffectUpdateDecorator@@@@A@@YAXXZ
text$di	SEGMENT
??__E?ms_kPool@?$CPooledObject@VCTextureAnimationCWDecorator@NEffectUpdateDecorator@@@@1V?$CDynamicPoolEx@VCTextureAnimationCWDecorator@NEffectUpdateDecorator@@@@A@@YAXXZ PROC ; `dynamic initializer for 'CPooledObject<NEffectUpdateDecorator::CTextureAnimationCWDecorator>::ms_kPool'', COMDAT

; 280  : template <class T> CDynamicPoolEx<T> CPooledObject<T>::ms_kPool;

  00000	68 00 00 00 00	 push	 OFFSET ??__F?ms_kPool@?$CPooledObject@VCTextureAnimationCWDecorator@NEffectUpdateDecorator@@@@1V?$CDynamicPoolEx@VCTextureAnimationCWDecorator@NEffectUpdateDecorator@@@@A@@YAXXZ ; `dynamic atexit destructor for 'CPooledObject<NEffectUpdateDecorator::CTextureAnimationCWDecorator>::ms_kPool''
  00005	e8 00 00 00 00	 call	 _atexit
  0000a	59		 pop	 ecx
  0000b	c3		 ret	 0
??__E?ms_kPool@?$CPooledObject@VCTextureAnimationCWDecorator@NEffectUpdateDecorator@@@@1V?$CDynamicPoolEx@VCTextureAnimationCWDecorator@NEffectUpdateDecorator@@@@A@@YAXXZ ENDP ; `dynamic initializer for 'CPooledObject<NEffectUpdateDecorator::CTextureAnimationCWDecorator>::ms_kPool''
text$di	ENDS
; Function compile flags: /Ogtp
;	COMDAT ??__F?ms_kPool@?$CPooledObject@VCNullDecorator@NEffectUpdateDecorator@@@@1V?$CDynamicPoolEx@VCNullDecorator@NEffectUpdateDecorator@@@@A@@YAXXZ
text$yd	SEGMENT
??__F?ms_kPool@?$CPooledObject@VCNullDecorator@NEffectUpdateDecorator@@@@1V?$CDynamicPoolEx@VCNullDecorator@NEffectUpdateDecorator@@@@A@@YAXXZ PROC ; `dynamic atexit destructor for 'CPooledObject<NEffectUpdateDecorator::CNullDecorator>::ms_kPool'', COMDAT
  00000	b9 00 00 00 00	 mov	 ecx, OFFSET ?ms_kPool@?$CPooledObject@VCNullDecorator@NEffectUpdateDecorator@@@@1V?$CDynamicPoolEx@VCNullDecorator@NEffectUpdateDecorator@@@@A ; CPooledObject<NEffectUpdateDecorator::CNullDecorator>::ms_kPool
  00005	e9 00 00 00 00	 jmp	 ??1?$CDynamicPoolEx@VCNullDecorator@NEffectUpdateDecorator@@@@UAE@XZ ; CDynamicPoolEx<NEffectUpdateDecorator::CNullDecorator>::~CDynamicPoolEx<NEffectUpdateDecorator::CNullDecorator>
??__F?ms_kPool@?$CPooledObject@VCNullDecorator@NEffectUpdateDecorator@@@@1V?$CDynamicPoolEx@VCNullDecorator@NEffectUpdateDecorator@@@@A@@YAXXZ ENDP ; `dynamic atexit destructor for 'CPooledObject<NEffectUpdateDecorator::CNullDecorator>::ms_kPool''
text$yd	ENDS
; Function compile flags: /Ogtp
; File C:\Users\flourine\Desktop\Xantios\client-src\Code\eterLib\Pool.h
;	COMDAT ??__E?ms_kPool@?$CPooledObject@VCNullDecorator@NEffectUpdateDecorator@@@@1V?$CDynamicPoolEx@VCNullDecorator@NEffectUpdateDecorator@@@@A@@YAXXZ
text$di	SEGMENT
??__E?ms_kPool@?$CPooledObject@VCNullDecorator@NEffectUpdateDecorator@@@@1V?$CDynamicPoolEx@VCNullDecorator@NEffectUpdateDecorator@@@@A@@YAXXZ PROC ; `dynamic initializer for 'CPooledObject<NEffectUpdateDecorator::CNullDecorator>::ms_kPool'', COMDAT

; 280  : template <class T> CDynamicPoolEx<T> CPooledObject<T>::ms_kPool;

  00000	68 00 00 00 00	 push	 OFFSET ??__F?ms_kPool@?$CPooledObject@VCNullDecorator@NEffectUpdateDecorator@@@@1V?$CDynamicPoolEx@VCNullDecorator@NEffectUpdateDecorator@@@@A@@YAXXZ ; `dynamic atexit destructor for 'CPooledObject<NEffectUpdateDecorator::CNullDecorator>::ms_kPool''
  00005	e8 00 00 00 00	 call	 _atexit
  0000a	59		 pop	 ecx
  0000b	c3		 ret	 0
??__E?ms_kPool@?$CPooledObject@VCNullDecorator@NEffectUpdateDecorator@@@@1V?$CDynamicPoolEx@VCNullDecorator@NEffectUpdateDecorator@@@@A@@YAXXZ ENDP ; `dynamic initializer for 'CPooledObject<NEffectUpdateDecorator::CNullDecorator>::ms_kPool''
text$di	ENDS
; Function compile flags: /Ogtp
;	COMDAT ??__F?ms_kPool@?$CPooledObject@VCHeaderDecorator@NEffectUpdateDecorator@@@@1V?$CDynamicPoolEx@VCHeaderDecorator@NEffectUpdateDecorator@@@@A@@YAXXZ
text$yd	SEGMENT
??__F?ms_kPool@?$CPooledObject@VCHeaderDecorator@NEffectUpdateDecorator@@@@1V?$CDynamicPoolEx@VCHeaderDecorator@NEffectUpdateDecorator@@@@A@@YAXXZ PROC ; `dynamic atexit destructor for 'CPooledObject<NEffectUpdateDecorator::CHeaderDecorator>::ms_kPool'', COMDAT
  00000	b9 00 00 00 00	 mov	 ecx, OFFSET ?ms_kPool@?$CPooledObject@VCHeaderDecorator@NEffectUpdateDecorator@@@@1V?$CDynamicPoolEx@VCHeaderDecorator@NEffectUpdateDecorator@@@@A ; CPooledObject<NEffectUpdateDecorator::CHeaderDecorator>::ms_kPool
  00005	e9 00 00 00 00	 jmp	 ??1?$CDynamicPoolEx@VCHeaderDecorator@NEffectUpdateDecorator@@@@UAE@XZ ; CDynamicPoolEx<NEffectUpdateDecorator::CHeaderDecorator>::~CDynamicPoolEx<NEffectUpdateDecorator::CHeaderDecorator>
??__F?ms_kPool@?$CPooledObject@VCHeaderDecorator@NEffectUpdateDecorator@@@@1V?$CDynamicPoolEx@VCHeaderDecorator@NEffectUpdateDecorator@@@@A@@YAXXZ ENDP ; `dynamic atexit destructor for 'CPooledObject<NEffectUpdateDecorator::CHeaderDecorator>::ms_kPool''
text$yd	ENDS
; Function compile flags: /Ogtp
; File C:\Users\flourine\Desktop\Xantios\client-src\Code\eterLib\Pool.h
;	COMDAT ??__E?ms_kPool@?$CPooledObject@VCHeaderDecorator@NEffectUpdateDecorator@@@@1V?$CDynamicPoolEx@VCHeaderDecorator@NEffectUpdateDecorator@@@@A@@YAXXZ
text$di	SEGMENT
??__E?ms_kPool@?$CPooledObject@VCHeaderDecorator@NEffectUpdateDecorator@@@@1V?$CDynamicPoolEx@VCHeaderDecorator@NEffectUpdateDecorator@@@@A@@YAXXZ PROC ; `dynamic initializer for 'CPooledObject<NEffectUpdateDecorator::CHeaderDecorator>::ms_kPool'', COMDAT

; 280  : template <class T> CDynamicPoolEx<T> CPooledObject<T>::ms_kPool;

  00000	68 00 00 00 00	 push	 OFFSET ??__F?ms_kPool@?$CPooledObject@VCHeaderDecorator@NEffectUpdateDecorator@@@@1V?$CDynamicPoolEx@VCHeaderDecorator@NEffectUpdateDecorator@@@@A@@YAXXZ ; `dynamic atexit destructor for 'CPooledObject<NEffectUpdateDecorator::CHeaderDecorator>::ms_kPool''
  00005	e8 00 00 00 00	 call	 _atexit
  0000a	59		 pop	 ecx
  0000b	c3		 ret	 0
??__E?ms_kPool@?$CPooledObject@VCHeaderDecorator@NEffectUpdateDecorator@@@@1V?$CDynamicPoolEx@VCHeaderDecorator@NEffectUpdateDecorator@@@@A@@YAXXZ ENDP ; `dynamic initializer for 'CPooledObject<NEffectUpdateDecorator::CHeaderDecorator>::ms_kPool''
text$di	ENDS
; Function compile flags: /Ogtp
; File C:\Program Files\Microsoft Visual Studio\2022\Community\VC\Tools\MSVC\14.34.31933\include\xtree
; File C:\Program Files\Microsoft Visual Studio\2022\Community\VC\Tools\MSVC\14.34.31933\include\utility
; File C:\Program Files\Microsoft Visual Studio\2022\Community\VC\Tools\MSVC\14.34.31933\include\xmemory
; File C:\Program Files\Microsoft Visual Studio\2022\Community\VC\Tools\MSVC\14.34.31933\include\xtree
;	COMDAT ??$_Erase_tree@V?$allocator@U?$_Tree_node@PAVCFlyTarget@@PAX@std@@@std@@@?$_Tree_val@U?$_Tree_simple_types@PAVCFlyTarget@@@std@@@std@@QAEXAAV?$allocator@U?$_Tree_node@PAVCFlyTarget@@PAX@std@@@1@PAU?$_Tree_node@PAVCFlyTarget@@PAX@1@@Z
_TEXT	SEGMENT
__Al$ = 8						; size = 4
__Rootnode$ = 12					; size = 4
??$_Erase_tree@V?$allocator@U?$_Tree_node@PAVCFlyTarget@@PAX@std@@@std@@@?$_Tree_val@U?$_Tree_simple_types@PAVCFlyTarget@@@std@@@std@@QAEXAAV?$allocator@U?$_Tree_node@PAVCFlyTarget@@PAX@std@@@1@PAU?$_Tree_node@PAVCFlyTarget@@PAX@1@@Z PROC ; std::_Tree_val<std::_Tree_simple_types<CFlyTarget *> >::_Erase_tree<std::allocator<std::_Tree_node<CFlyTarget *,void *> > >, COMDAT
; _this$ = ecx

; 744  :     void _Erase_tree(_Alnode& _Al, _Nodeptr _Rootnode) noexcept {

  00000	55		 push	 ebp
  00001	8b ec		 mov	 ebp, esp
  00003	53		 push	 ebx
  00004	56		 push	 esi

; 745  :         while (!_Rootnode->_Isnil) { // free subtrees, then node

  00005	8b 75 0c	 mov	 esi, DWORD PTR __Rootnode$[ebp]
  00008	8b d9		 mov	 ebx, ecx
  0000a	80 7e 0d 00	 cmp	 BYTE PTR [esi+13], 0
  0000e	75 25		 jne	 SHORT $LN3@Erase_tree
  00010	57		 push	 edi
  00011	8b 7d 08	 mov	 edi, DWORD PTR __Al$[ebp]
$LL2@Erase_tree:

; 746  :             _Erase_tree(_Al, _Rootnode->_Right);

  00014	ff 76 08	 push	 DWORD PTR [esi+8]
  00017	8b cb		 mov	 ecx, ebx
  00019	57		 push	 edi
  0001a	e8 00 00 00 00	 call	 ??$_Erase_tree@V?$allocator@U?$_Tree_node@PAVCFlyTarget@@PAX@std@@@std@@@?$_Tree_val@U?$_Tree_simple_types@PAVCFlyTarget@@@std@@@std@@QAEXAAV?$allocator@U?$_Tree_node@PAVCFlyTarget@@PAX@std@@@1@PAU?$_Tree_node@PAVCFlyTarget@@PAX@1@@Z ; std::_Tree_val<std::_Tree_simple_types<CFlyTarget *> >::_Erase_tree<std::allocator<std::_Tree_node<CFlyTarget *,void *> > >
; File C:\Program Files\Microsoft Visual Studio\2022\Community\VC\Tools\MSVC\14.34.31933\include\utility

; 653  :     _Ty _Old_val = static_cast<_Ty&&>(_Val);

  0001f	8b c6		 mov	 eax, esi

; 654  :     _Val         = static_cast<_Other&&>(_New_val);

  00021	8b 36		 mov	 esi, DWORD PTR [esi]
; File C:\Program Files\Microsoft Visual Studio\2022\Community\VC\Tools\MSVC\14.34.31933\include\xmemory

; 255  :         ::operator delete(_Ptr, _Bytes);

  00023	6a 14		 push	 20			; 00000014H
  00025	50		 push	 eax
  00026	e8 00 00 00 00	 call	 ??3@YAXPAXI@Z		; operator delete
  0002b	83 c4 08	 add	 esp, 8
; File C:\Program Files\Microsoft Visual Studio\2022\Community\VC\Tools\MSVC\14.34.31933\include\xtree

; 745  :         while (!_Rootnode->_Isnil) { // free subtrees, then node

  0002e	80 7e 0d 00	 cmp	 BYTE PTR [esi+13], 0
  00032	74 e0		 je	 SHORT $LL2@Erase_tree
  00034	5f		 pop	 edi
$LN3@Erase_tree:
  00035	5e		 pop	 esi

; 747  :             _Alnode::value_type::_Freenode(_Al, _STD exchange(_Rootnode, _Rootnode->_Left));
; 748  :         }
; 749  :     }

  00036	5b		 pop	 ebx
  00037	5d		 pop	 ebp
  00038	c2 08 00	 ret	 8
??$_Erase_tree@V?$allocator@U?$_Tree_node@PAVCFlyTarget@@PAX@std@@@std@@@?$_Tree_val@U?$_Tree_simple_types@PAVCFlyTarget@@@std@@@std@@QAEXAAV?$allocator@U?$_Tree_node@PAVCFlyTarget@@PAX@std@@@1@PAU?$_Tree_node@PAVCFlyTarget@@PAX@1@@Z ENDP ; std::_Tree_val<std::_Tree_simple_types<CFlyTarget *> >::_Erase_tree<std::allocator<std::_Tree_node<CFlyTarget *,void *> > >
_TEXT	ENDS
; Function compile flags: /Ogtp
;	COMDAT ??_G?$CDynamicPoolEx@VCHeaderDecorator@NEffectUpdateDecorator@@@@UAEPAXI@Z
_TEXT	SEGMENT
___flags$ = 8						; size = 4
??_G?$CDynamicPoolEx@VCHeaderDecorator@NEffectUpdateDecorator@@@@UAEPAXI@Z PROC ; CDynamicPoolEx<NEffectUpdateDecorator::CHeaderDecorator>::`scalar deleting destructor', COMDAT
; _this$ = ecx
  00000	55		 push	 ebp
  00001	8b ec		 mov	 ebp, esp
  00003	56		 push	 esi
  00004	8b f1		 mov	 esi, ecx
  00006	e8 00 00 00 00	 call	 ??1?$CDynamicPoolEx@VCHeaderDecorator@NEffectUpdateDecorator@@@@UAE@XZ ; CDynamicPoolEx<NEffectUpdateDecorator::CHeaderDecorator>::~CDynamicPoolEx<NEffectUpdateDecorator::CHeaderDecorator>
  0000b	f6 45 08 01	 test	 BYTE PTR ___flags$[ebp], 1
  0000f	74 0b		 je	 SHORT $LN4@scalar
  00011	6a 24		 push	 36			; 00000024H
  00013	56		 push	 esi
  00014	e8 00 00 00 00	 call	 ??3@YAXPAXI@Z		; operator delete
  00019	83 c4 08	 add	 esp, 8
$LN4@scalar:
  0001c	8b c6		 mov	 eax, esi
  0001e	5e		 pop	 esi
  0001f	5d		 pop	 ebp
  00020	c2 04 00	 ret	 4
??_G?$CDynamicPoolEx@VCHeaderDecorator@NEffectUpdateDecorator@@@@UAEPAXI@Z ENDP ; CDynamicPoolEx<NEffectUpdateDecorator::CHeaderDecorator>::`scalar deleting destructor'
_TEXT	ENDS
; Function compile flags: /Ogtp
; File C:\Users\flourine\Desktop\Xantios\client-src\Code\eterLib\Pool.h
;	COMDAT ?Delete@?$CDynamicPoolEx@VCHeaderDecorator@NEffectUpdateDecorator@@@@KAXPAVCHeaderDecorator@NEffectUpdateDecorator@@@Z
_TEXT	SEGMENT
_pkData$ = 8						; size = 4
?Delete@?$CDynamicPoolEx@VCHeaderDecorator@NEffectUpdateDecorator@@@@KAXPAVCHeaderDecorator@NEffectUpdateDecorator@@@Z PROC ; CDynamicPoolEx<NEffectUpdateDecorator::CHeaderDecorator>::Delete, COMDAT

; 232  : 		::operator delete (pkData);

  00000	e9 00 00 00 00	 jmp	 ??3@YAXPAX@Z		; operator delete
?Delete@?$CDynamicPoolEx@VCHeaderDecorator@NEffectUpdateDecorator@@@@KAXPAVCHeaderDecorator@NEffectUpdateDecorator@@@Z ENDP ; CDynamicPoolEx<NEffectUpdateDecorator::CHeaderDecorator>::Delete
_TEXT	ENDS
; Function compile flags: /Ogtp
; File C:\Users\flourine\Desktop\Xantios\client-src\Code\eterLib\Pool.h
; File C:\Program Files\Microsoft Visual Studio\2022\Community\VC\Tools\MSVC\14.34.31933\include\vector
; File C:\Program Files\Microsoft Visual Studio\2022\Community\VC\Tools\MSVC\14.34.31933\include\algorithm
; File C:\Users\flourine\Desktop\Xantios\client-src\Code\eterLib\Pool.h
; File C:\Program Files\Microsoft Visual Studio\2022\Community\VC\Tools\MSVC\14.34.31933\include\algorithm
; File C:\Users\flourine\Desktop\Xantios\client-src\Code\eterLib\Pool.h
; File C:\Program Files\Microsoft Visual Studio\2022\Community\VC\Tools\MSVC\14.34.31933\include\algorithm
; File C:\Program Files\Microsoft Visual Studio\2022\Community\VC\Tools\MSVC\14.34.31933\include\vector
; File C:\Program Files\Microsoft Visual Studio\2022\Community\VC\Tools\MSVC\14.34.31933\include\xmemory
; File C:\Program Files\Microsoft Visual Studio\2022\Community\VC\Tools\MSVC\14.34.31933\include\vector
; File C:\Program Files\Microsoft Visual Studio\2022\Community\VC\Tools\MSVC\14.34.31933\include\xmemory
; File C:\Program Files\Microsoft Visual Studio\2022\Community\VC\Tools\MSVC\14.34.31933\include\vector
; File C:\Program Files\Microsoft Visual Studio\2022\Community\VC\Tools\MSVC\14.34.31933\include\xmemory
; File C:\Program Files\Microsoft Visual Studio\2022\Community\VC\Tools\MSVC\14.34.31933\include\vector
; File C:\Program Files\Microsoft Visual Studio\2022\Community\VC\Tools\MSVC\14.34.31933\include\xmemory
; File C:\Program Files\Microsoft Visual Studio\2022\Community\VC\Tools\MSVC\14.34.31933\include\vector
; File C:\Users\flourine\Desktop\Xantios\client-src\Code\eterLib\Pool.h
; File C:\Program Files\Microsoft Visual Studio\2022\Community\VC\Tools\MSVC\14.34.31933\include\xmemory
; File C:\Users\flourine\Desktop\Xantios\client-src\Code\eterLib\Pool.h
;	COMDAT ??1?$CDynamicPoolEx@VCHeaderDecorator@NEffectUpdateDecorator@@@@UAE@XZ
_TEXT	SEGMENT
__$EHRec$ = -12						; size = 12
??1?$CDynamicPoolEx@VCHeaderDecorator@NEffectUpdateDecorator@@@@UAE@XZ PROC ; CDynamicPoolEx<NEffectUpdateDecorator::CHeaderDecorator>::~CDynamicPoolEx<NEffectUpdateDecorator::CHeaderDecorator>, COMDAT
; _this$ = ecx

; 136  : 	{

  00000	55		 push	 ebp
  00001	8b ec		 mov	 ebp, esp
  00003	6a ff		 push	 -1
  00005	68 00 00 00 00	 push	 __ehhandler$??1?$CDynamicPoolEx@VCHeaderDecorator@NEffectUpdateDecorator@@@@UAE@XZ
  0000a	64 a1 00 00 00
	00		 mov	 eax, DWORD PTR fs:0
  00010	50		 push	 eax
  00011	53		 push	 ebx
  00012	56		 push	 esi
  00013	57		 push	 edi
  00014	a1 00 00 00 00	 mov	 eax, DWORD PTR ___security_cookie
  00019	33 c5		 xor	 eax, ebp
  0001b	50		 push	 eax
  0001c	8d 45 f4	 lea	 eax, DWORD PTR __$EHRec$[ebp]
  0001f	64 a3 00 00 00
	00		 mov	 DWORD PTR fs:0, eax
  00025	8b f9		 mov	 edi, ecx
  00027	c7 07 00 00 00
	00		 mov	 DWORD PTR [edi], OFFSET ??_7?$CDynamicPoolEx@VCHeaderDecorator@NEffectUpdateDecorator@@@@6B@
; File C:\Program Files\Microsoft Visual Studio\2022\Community\VC\Tools\MSVC\14.34.31933\include\vector

; 41   :     _CONSTEXPR20 _Vector_const_iterator(_Tptr _Parg, const _Container_base* _Pvector) noexcept : _Ptr(_Parg) {

  0002d	8b 5f 08	 mov	 ebx, DWORD PTR [edi+8]
; File C:\Program Files\Microsoft Visual Studio\2022\Community\VC\Tools\MSVC\14.34.31933\include\algorithm

; 265  :     for (; _UFirst != _ULast; ++_UFirst) {

  00030	8b 77 04	 mov	 esi, DWORD PTR [edi+4]
  00033	3b f3		 cmp	 esi, ebx
  00035	74 11		 je	 SHORT $LN19@CDynamicPo
$LL20@CDynamicPo:
; File C:\Users\flourine\Desktop\Xantios\client-src\Code\eterLib\Pool.h

; 232  : 		::operator delete (pkData);

  00037	ff 36		 push	 DWORD PTR [esi]
  00039	e8 00 00 00 00	 call	 ??3@YAXPAX@Z		; operator delete
; File C:\Program Files\Microsoft Visual Studio\2022\Community\VC\Tools\MSVC\14.34.31933\include\algorithm

; 265  :     for (; _UFirst != _ULast; ++_UFirst) {

  0003e	83 c6 04	 add	 esi, 4
; File C:\Users\flourine\Desktop\Xantios\client-src\Code\eterLib\Pool.h

; 232  : 		::operator delete (pkData);

  00041	83 c4 04	 add	 esp, 4
; File C:\Program Files\Microsoft Visual Studio\2022\Community\VC\Tools\MSVC\14.34.31933\include\algorithm

; 265  :     for (; _UFirst != _ULast; ++_UFirst) {

  00044	3b f3		 cmp	 esi, ebx
  00046	75 ef		 jne	 SHORT $LL20@CDynamicPo
$LN19@CDynamicPo:
; File C:\Program Files\Microsoft Visual Studio\2022\Community\VC\Tools\MSVC\14.34.31933\include\vector

; 1829 :         if (_Myfirst == _Mylast) { // already empty, nothing to do

  00048	8b 47 04	 mov	 eax, DWORD PTR [edi+4]
  0004b	3b 47 08	 cmp	 eax, DWORD PTR [edi+8]
  0004e	74 03		 je	 SHORT $LN26@CDynamicPo

; 1830 :             // This is an optimization for debug mode: we can avoid taking the debug lock to invalidate iterators.
; 1831 :             // Note that when clearing an empty vector, this will preserve past-the-end iterators, which is allowed by
; 1832 :             // N4901 [tab:container.seq.req] "a.clear() [...] may invalidate the past-the-end iterator".
; 1833 :             return;
; 1834 :         }
; 1835 : 
; 1836 :         _My_data._Orphan_all();
; 1837 :         _Destroy_range(_Myfirst, _Mylast, _Getal());
; 1838 :         _ASAN_VECTOR_MODIFY(static_cast<difference_type>(_Myfirst - _Mylast)); // negative when destroying elements
; 1839 :         _Mylast = _Myfirst;

  00050	89 47 08	 mov	 DWORD PTR [edi+8], eax
$LN26@CDynamicPo:

; 1829 :         if (_Myfirst == _Mylast) { // already empty, nothing to do

  00053	8b 47 10	 mov	 eax, DWORD PTR [edi+16]
  00056	3b 47 14	 cmp	 eax, DWORD PTR [edi+20]
  00059	74 03		 je	 SHORT $LN29@CDynamicPo

; 1830 :             // This is an optimization for debug mode: we can avoid taking the debug lock to invalidate iterators.
; 1831 :             // Note that when clearing an empty vector, this will preserve past-the-end iterators, which is allowed by
; 1832 :             // N4901 [tab:container.seq.req] "a.clear() [...] may invalidate the past-the-end iterator".
; 1833 :             return;
; 1834 :         }
; 1835 : 
; 1836 :         _My_data._Orphan_all();
; 1837 :         _Destroy_range(_Myfirst, _Mylast, _Getal());
; 1838 :         _ASAN_VECTOR_MODIFY(static_cast<difference_type>(_Myfirst - _Mylast)); // negative when destroying elements
; 1839 :         _Mylast = _Myfirst;

  0005b	89 47 14	 mov	 DWORD PTR [edi+20], eax
$LN29@CDynamicPo:

; 2107 :         if (_Myfirst) { // destroy and deallocate old array

  0005e	85 c0		 test	 eax, eax
  00060	74 41		 je	 SHORT $LN35@CDynamicPo

; 2108 :             _Destroy_range(_Myfirst, _Mylast, _Al);
; 2109 :             _ASAN_VECTOR_REMOVE;
; 2110 :             _Al.deallocate(_Myfirst, static_cast<size_type>(_Myend - _Myfirst));

  00062	8b 4f 18	 mov	 ecx, DWORD PTR [edi+24]
  00065	2b c8		 sub	 ecx, eax
; File C:\Program Files\Microsoft Visual Studio\2022\Community\VC\Tools\MSVC\14.34.31933\include\xmemory

; 830  :         _Deallocate<_New_alignof<_Ty>>(_Ptr, sizeof(_Ty) * _Count);

  00067	83 e1 fc	 and	 ecx, -4			; fffffffcH

; 251  :         if (_Bytes >= _Big_allocation_threshold) { // boost the alignment of big allocations to help autovectorization

  0006a	81 f9 00 10 00
	00		 cmp	 ecx, 4096		; 00001000H
  00070	72 12		 jb	 SHORT $LN51@CDynamicPo

; 150  :     const uintptr_t _Ptr_container   = _Ptr_user[-1];

  00072	8b 50 fc	 mov	 edx, DWORD PTR [eax-4]
  00075	83 c1 23	 add	 ecx, 35			; 00000023H

; 151  : 
; 152  :     // If the following asserts, it likely means that we are performing
; 153  :     // an aligned delete on memory coming from an unaligned allocation.
; 154  :     _STL_ASSERT(_Ptr_user[-2] == _Big_allocation_sentinel, "invalid argument");
; 155  : 
; 156  :     // Extra paranoia on aligned allocation/deallocation; ensure _Ptr_container is
; 157  :     // in range [_Min_back_shift, _Non_user_size]
; 158  : #ifdef _DEBUG
; 159  :     constexpr uintptr_t _Min_back_shift = 2 * sizeof(void*);
; 160  : #else // ^^^ _DEBUG ^^^ // vvv !_DEBUG vvv
; 161  :     constexpr uintptr_t _Min_back_shift = sizeof(void*);
; 162  : #endif // _DEBUG
; 163  :     const uintptr_t _Back_shift = reinterpret_cast<uintptr_t>(_Ptr) - _Ptr_container;

  00078	2b c2		 sub	 eax, edx

; 164  :     _STL_VERIFY(_Back_shift >= _Min_back_shift && _Back_shift <= _Non_user_size, "invalid argument");

  0007a	83 c0 fc	 add	 eax, -4			; fffffffcH
  0007d	83 f8 1f	 cmp	 eax, 31			; 0000001fH
  00080	77 7b		 ja	 SHORT $LN73@CDynamicPo

; 165  :     _Ptr = reinterpret_cast<void*>(_Ptr_container);

  00082	8b c2		 mov	 eax, edx
$LN51@CDynamicPo:

; 255  :         ::operator delete(_Ptr, _Bytes);

  00084	51		 push	 ecx
  00085	50		 push	 eax
  00086	e8 00 00 00 00	 call	 ??3@YAXPAXI@Z		; operator delete
; File C:\Program Files\Microsoft Visual Studio\2022\Community\VC\Tools\MSVC\14.34.31933\include\vector

; 2112 :             _Myfirst = nullptr;

  0008b	c7 47 10 00 00
	00 00		 mov	 DWORD PTR [edi+16], 0
; File C:\Program Files\Microsoft Visual Studio\2022\Community\VC\Tools\MSVC\14.34.31933\include\xmemory

; 255  :         ::operator delete(_Ptr, _Bytes);

  00092	83 c4 08	 add	 esp, 8
; File C:\Program Files\Microsoft Visual Studio\2022\Community\VC\Tools\MSVC\14.34.31933\include\vector

; 2113 :             _Mylast  = nullptr;

  00095	c7 47 14 00 00
	00 00		 mov	 DWORD PTR [edi+20], 0

; 2114 :             _Myend   = nullptr;

  0009c	c7 47 18 00 00
	00 00		 mov	 DWORD PTR [edi+24], 0
$LN35@CDynamicPo:

; 2107 :         if (_Myfirst) { // destroy and deallocate old array

  000a3	8b 47 04	 mov	 eax, DWORD PTR [edi+4]
  000a6	85 c0		 test	 eax, eax
  000a8	74 41		 je	 SHORT $LN60@CDynamicPo

; 2108 :             _Destroy_range(_Myfirst, _Mylast, _Al);
; 2109 :             _ASAN_VECTOR_REMOVE;
; 2110 :             _Al.deallocate(_Myfirst, static_cast<size_type>(_Myend - _Myfirst));

  000aa	8b 4f 0c	 mov	 ecx, DWORD PTR [edi+12]
  000ad	2b c8		 sub	 ecx, eax
; File C:\Program Files\Microsoft Visual Studio\2022\Community\VC\Tools\MSVC\14.34.31933\include\xmemory

; 830  :         _Deallocate<_New_alignof<_Ty>>(_Ptr, sizeof(_Ty) * _Count);

  000af	83 e1 fc	 and	 ecx, -4			; fffffffcH

; 251  :         if (_Bytes >= _Big_allocation_threshold) { // boost the alignment of big allocations to help autovectorization

  000b2	81 f9 00 10 00
	00		 cmp	 ecx, 4096		; 00001000H
  000b8	72 12		 jb	 SHORT $LN76@CDynamicPo

; 150  :     const uintptr_t _Ptr_container   = _Ptr_user[-1];

  000ba	8b 50 fc	 mov	 edx, DWORD PTR [eax-4]
  000bd	83 c1 23	 add	 ecx, 35			; 00000023H

; 151  : 
; 152  :     // If the following asserts, it likely means that we are performing
; 153  :     // an aligned delete on memory coming from an unaligned allocation.
; 154  :     _STL_ASSERT(_Ptr_user[-2] == _Big_allocation_sentinel, "invalid argument");
; 155  : 
; 156  :     // Extra paranoia on aligned allocation/deallocation; ensure _Ptr_container is
; 157  :     // in range [_Min_back_shift, _Non_user_size]
; 158  : #ifdef _DEBUG
; 159  :     constexpr uintptr_t _Min_back_shift = 2 * sizeof(void*);
; 160  : #else // ^^^ _DEBUG ^^^ // vvv !_DEBUG vvv
; 161  :     constexpr uintptr_t _Min_back_shift = sizeof(void*);
; 162  : #endif // _DEBUG
; 163  :     const uintptr_t _Back_shift = reinterpret_cast<uintptr_t>(_Ptr) - _Ptr_container;

  000c0	2b c2		 sub	 eax, edx

; 164  :     _STL_VERIFY(_Back_shift >= _Min_back_shift && _Back_shift <= _Non_user_size, "invalid argument");

  000c2	83 c0 fc	 add	 eax, -4			; fffffffcH
  000c5	83 f8 1f	 cmp	 eax, 31			; 0000001fH
  000c8	77 33		 ja	 SHORT $LN73@CDynamicPo

; 165  :     _Ptr = reinterpret_cast<void*>(_Ptr_container);

  000ca	8b c2		 mov	 eax, edx
$LN76@CDynamicPo:

; 255  :         ::operator delete(_Ptr, _Bytes);

  000cc	51		 push	 ecx
  000cd	50		 push	 eax
  000ce	e8 00 00 00 00	 call	 ??3@YAXPAXI@Z		; operator delete
; File C:\Program Files\Microsoft Visual Studio\2022\Community\VC\Tools\MSVC\14.34.31933\include\vector

; 2112 :             _Myfirst = nullptr;

  000d3	c7 47 04 00 00
	00 00		 mov	 DWORD PTR [edi+4], 0
; File C:\Program Files\Microsoft Visual Studio\2022\Community\VC\Tools\MSVC\14.34.31933\include\xmemory

; 255  :         ::operator delete(_Ptr, _Bytes);

  000da	83 c4 08	 add	 esp, 8
; File C:\Program Files\Microsoft Visual Studio\2022\Community\VC\Tools\MSVC\14.34.31933\include\vector

; 2113 :             _Mylast  = nullptr;

  000dd	c7 47 08 00 00
	00 00		 mov	 DWORD PTR [edi+8], 0

; 2114 :             _Myend   = nullptr;

  000e4	c7 47 0c 00 00
	00 00		 mov	 DWORD PTR [edi+12], 0
$LN60@CDynamicPo:
; File C:\Users\flourine\Desktop\Xantios\client-src\Code\eterLib\Pool.h

; 146  : 	}

  000eb	8b 4d f4	 mov	 ecx, DWORD PTR __$EHRec$[ebp]
  000ee	64 89 0d 00 00
	00 00		 mov	 DWORD PTR fs:0, ecx
  000f5	59		 pop	 ecx
  000f6	5f		 pop	 edi
  000f7	5e		 pop	 esi
  000f8	5b		 pop	 ebx
  000f9	8b e5		 mov	 esp, ebp
  000fb	5d		 pop	 ebp
  000fc	c3		 ret	 0
$LN73@CDynamicPo:
; File C:\Program Files\Microsoft Visual Studio\2022\Community\VC\Tools\MSVC\14.34.31933\include\xmemory

; 164  :     _STL_VERIFY(_Back_shift >= _Min_back_shift && _Back_shift <= _Non_user_size, "invalid argument");

  000fd	e8 00 00 00 00	 call	 __invalid_parameter_noinfo_noreturn
$LN86@CDynamicPo:
  00102	cc		 int	 3
  00103	cc		 int	 3
  00104	cc		 int	 3
  00105	cc		 int	 3
  00106	cc		 int	 3
  00107	cc		 int	 3
_TEXT	ENDS
;	COMDAT text$x
text$x	SEGMENT
__ehhandler$??1?$CDynamicPoolEx@VCHeaderDecorator@NEffectUpdateDecorator@@@@UAE@XZ:
  00000	90		 npad	 1
  00001	90		 npad	 1
  00002	8b 54 24 08	 mov	 edx, DWORD PTR [esp+8]
  00006	8d 42 0c	 lea	 eax, DWORD PTR [edx+12]
  00009	8b 4a f0	 mov	 ecx, DWORD PTR [edx-16]
  0000c	33 c8		 xor	 ecx, eax
  0000e	e8 00 00 00 00	 call	 @__security_check_cookie@4
  00013	b8 00 00 00 00	 mov	 eax, OFFSET __ehfuncinfo$??1?$CDynamicPoolEx@VCHeaderDecorator@NEffectUpdateDecorator@@@@UAE@XZ
  00018	e9 00 00 00 00	 jmp	 ___CxxFrameHandler3
text$x	ENDS
??1?$CDynamicPoolEx@VCHeaderDecorator@NEffectUpdateDecorator@@@@UAE@XZ ENDP ; CDynamicPoolEx<NEffectUpdateDecorator::CHeaderDecorator>::~CDynamicPoolEx<NEffectUpdateDecorator::CHeaderDecorator>
; Function compile flags: /Ogtp
;	COMDAT ??_G?$CDynamicPoolEx@VCNullDecorator@NEffectUpdateDecorator@@@@UAEPAXI@Z
_TEXT	SEGMENT
___flags$ = 8						; size = 4
??_G?$CDynamicPoolEx@VCNullDecorator@NEffectUpdateDecorator@@@@UAEPAXI@Z PROC ; CDynamicPoolEx<NEffectUpdateDecorator::CNullDecorator>::`scalar deleting destructor', COMDAT
; _this$ = ecx
  00000	55		 push	 ebp
  00001	8b ec		 mov	 ebp, esp
  00003	56		 push	 esi
  00004	8b f1		 mov	 esi, ecx
  00006	e8 00 00 00 00	 call	 ??1?$CDynamicPoolEx@VCNullDecorator@NEffectUpdateDecorator@@@@UAE@XZ ; CDynamicPoolEx<NEffectUpdateDecorator::CNullDecorator>::~CDynamicPoolEx<NEffectUpdateDecorator::CNullDecorator>
  0000b	f6 45 08 01	 test	 BYTE PTR ___flags$[ebp], 1
  0000f	74 0b		 je	 SHORT $LN4@scalar
  00011	6a 24		 push	 36			; 00000024H
  00013	56		 push	 esi
  00014	e8 00 00 00 00	 call	 ??3@YAXPAXI@Z		; operator delete
  00019	83 c4 08	 add	 esp, 8
$LN4@scalar:
  0001c	8b c6		 mov	 eax, esi
  0001e	5e		 pop	 esi
  0001f	5d		 pop	 ebp
  00020	c2 04 00	 ret	 4
??_G?$CDynamicPoolEx@VCNullDecorator@NEffectUpdateDecorator@@@@UAEPAXI@Z ENDP ; CDynamicPoolEx<NEffectUpdateDecorator::CNullDecorator>::`scalar deleting destructor'
_TEXT	ENDS
; Function compile flags: /Ogtp
; File C:\Users\flourine\Desktop\Xantios\client-src\Code\eterLib\Pool.h
;	COMDAT ?Delete@?$CDynamicPoolEx@VCNullDecorator@NEffectUpdateDecorator@@@@KAXPAVCNullDecorator@NEffectUpdateDecorator@@@Z
_TEXT	SEGMENT
_pkData$ = 8						; size = 4
?Delete@?$CDynamicPoolEx@VCNullDecorator@NEffectUpdateDecorator@@@@KAXPAVCNullDecorator@NEffectUpdateDecorator@@@Z PROC ; CDynamicPoolEx<NEffectUpdateDecorator::CNullDecorator>::Delete, COMDAT

; 232  : 		::operator delete (pkData);

  00000	e9 00 00 00 00	 jmp	 ??3@YAXPAX@Z		; operator delete
?Delete@?$CDynamicPoolEx@VCNullDecorator@NEffectUpdateDecorator@@@@KAXPAVCNullDecorator@NEffectUpdateDecorator@@@Z ENDP ; CDynamicPoolEx<NEffectUpdateDecorator::CNullDecorator>::Delete
_TEXT	ENDS
; Function compile flags: /Ogtp
; File C:\Users\flourine\Desktop\Xantios\client-src\Code\eterLib\Pool.h
; File C:\Program Files\Microsoft Visual Studio\2022\Community\VC\Tools\MSVC\14.34.31933\include\vector
; File C:\Program Files\Microsoft Visual Studio\2022\Community\VC\Tools\MSVC\14.34.31933\include\algorithm
; File C:\Users\flourine\Desktop\Xantios\client-src\Code\eterLib\Pool.h
; File C:\Program Files\Microsoft Visual Studio\2022\Community\VC\Tools\MSVC\14.34.31933\include\algorithm
; File C:\Users\flourine\Desktop\Xantios\client-src\Code\eterLib\Pool.h
; File C:\Program Files\Microsoft Visual Studio\2022\Community\VC\Tools\MSVC\14.34.31933\include\algorithm
; File C:\Program Files\Microsoft Visual Studio\2022\Community\VC\Tools\MSVC\14.34.31933\include\vector
; File C:\Program Files\Microsoft Visual Studio\2022\Community\VC\Tools\MSVC\14.34.31933\include\xmemory
; File C:\Program Files\Microsoft Visual Studio\2022\Community\VC\Tools\MSVC\14.34.31933\include\vector
; File C:\Program Files\Microsoft Visual Studio\2022\Community\VC\Tools\MSVC\14.34.31933\include\xmemory
; File C:\Program Files\Microsoft Visual Studio\2022\Community\VC\Tools\MSVC\14.34.31933\include\vector
; File C:\Program Files\Microsoft Visual Studio\2022\Community\VC\Tools\MSVC\14.34.31933\include\xmemory
; File C:\Program Files\Microsoft Visual Studio\2022\Community\VC\Tools\MSVC\14.34.31933\include\vector
; File C:\Program Files\Microsoft Visual Studio\2022\Community\VC\Tools\MSVC\14.34.31933\include\xmemory
; File C:\Program Files\Microsoft Visual Studio\2022\Community\VC\Tools\MSVC\14.34.31933\include\vector
; File C:\Users\flourine\Desktop\Xantios\client-src\Code\eterLib\Pool.h
; File C:\Program Files\Microsoft Visual Studio\2022\Community\VC\Tools\MSVC\14.34.31933\include\xmemory
; File C:\Users\flourine\Desktop\Xantios\client-src\Code\eterLib\Pool.h
;	COMDAT ??1?$CDynamicPoolEx@VCNullDecorator@NEffectUpdateDecorator@@@@UAE@XZ
_TEXT	SEGMENT
__$EHRec$ = -12						; size = 12
??1?$CDynamicPoolEx@VCNullDecorator@NEffectUpdateDecorator@@@@UAE@XZ PROC ; CDynamicPoolEx<NEffectUpdateDecorator::CNullDecorator>::~CDynamicPoolEx<NEffectUpdateDecorator::CNullDecorator>, COMDAT
; _this$ = ecx

; 136  : 	{

  00000	55		 push	 ebp
  00001	8b ec		 mov	 ebp, esp
  00003	6a ff		 push	 -1
  00005	68 00 00 00 00	 push	 __ehhandler$??1?$CDynamicPoolEx@VCNullDecorator@NEffectUpdateDecorator@@@@UAE@XZ
  0000a	64 a1 00 00 00
	00		 mov	 eax, DWORD PTR fs:0
  00010	50		 push	 eax
  00011	53		 push	 ebx
  00012	56		 push	 esi
  00013	57		 push	 edi
  00014	a1 00 00 00 00	 mov	 eax, DWORD PTR ___security_cookie
  00019	33 c5		 xor	 eax, ebp
  0001b	50		 push	 eax
  0001c	8d 45 f4	 lea	 eax, DWORD PTR __$EHRec$[ebp]
  0001f	64 a3 00 00 00
	00		 mov	 DWORD PTR fs:0, eax
  00025	8b f9		 mov	 edi, ecx
  00027	c7 07 00 00 00
	00		 mov	 DWORD PTR [edi], OFFSET ??_7?$CDynamicPoolEx@VCNullDecorator@NEffectUpdateDecorator@@@@6B@
; File C:\Program Files\Microsoft Visual Studio\2022\Community\VC\Tools\MSVC\14.34.31933\include\vector

; 41   :     _CONSTEXPR20 _Vector_const_iterator(_Tptr _Parg, const _Container_base* _Pvector) noexcept : _Ptr(_Parg) {

  0002d	8b 5f 08	 mov	 ebx, DWORD PTR [edi+8]
; File C:\Program Files\Microsoft Visual Studio\2022\Community\VC\Tools\MSVC\14.34.31933\include\algorithm

; 265  :     for (; _UFirst != _ULast; ++_UFirst) {

  00030	8b 77 04	 mov	 esi, DWORD PTR [edi+4]
  00033	3b f3		 cmp	 esi, ebx
  00035	74 11		 je	 SHORT $LN19@CDynamicPo
$LL20@CDynamicPo:
; File C:\Users\flourine\Desktop\Xantios\client-src\Code\eterLib\Pool.h

; 232  : 		::operator delete (pkData);

  00037	ff 36		 push	 DWORD PTR [esi]
  00039	e8 00 00 00 00	 call	 ??3@YAXPAX@Z		; operator delete
; File C:\Program Files\Microsoft Visual Studio\2022\Community\VC\Tools\MSVC\14.34.31933\include\algorithm

; 265  :     for (; _UFirst != _ULast; ++_UFirst) {

  0003e	83 c6 04	 add	 esi, 4
; File C:\Users\flourine\Desktop\Xantios\client-src\Code\eterLib\Pool.h

; 232  : 		::operator delete (pkData);

  00041	83 c4 04	 add	 esp, 4
; File C:\Program Files\Microsoft Visual Studio\2022\Community\VC\Tools\MSVC\14.34.31933\include\algorithm

; 265  :     for (; _UFirst != _ULast; ++_UFirst) {

  00044	3b f3		 cmp	 esi, ebx
  00046	75 ef		 jne	 SHORT $LL20@CDynamicPo
$LN19@CDynamicPo:
; File C:\Program Files\Microsoft Visual Studio\2022\Community\VC\Tools\MSVC\14.34.31933\include\vector

; 1829 :         if (_Myfirst == _Mylast) { // already empty, nothing to do

  00048	8b 47 04	 mov	 eax, DWORD PTR [edi+4]
  0004b	3b 47 08	 cmp	 eax, DWORD PTR [edi+8]
  0004e	74 03		 je	 SHORT $LN26@CDynamicPo

; 1830 :             // This is an optimization for debug mode: we can avoid taking the debug lock to invalidate iterators.
; 1831 :             // Note that when clearing an empty vector, this will preserve past-the-end iterators, which is allowed by
; 1832 :             // N4901 [tab:container.seq.req] "a.clear() [...] may invalidate the past-the-end iterator".
; 1833 :             return;
; 1834 :         }
; 1835 : 
; 1836 :         _My_data._Orphan_all();
; 1837 :         _Destroy_range(_Myfirst, _Mylast, _Getal());
; 1838 :         _ASAN_VECTOR_MODIFY(static_cast<difference_type>(_Myfirst - _Mylast)); // negative when destroying elements
; 1839 :         _Mylast = _Myfirst;

  00050	89 47 08	 mov	 DWORD PTR [edi+8], eax
$LN26@CDynamicPo:

; 1829 :         if (_Myfirst == _Mylast) { // already empty, nothing to do

  00053	8b 47 10	 mov	 eax, DWORD PTR [edi+16]
  00056	3b 47 14	 cmp	 eax, DWORD PTR [edi+20]
  00059	74 03		 je	 SHORT $LN29@CDynamicPo

; 1830 :             // This is an optimization for debug mode: we can avoid taking the debug lock to invalidate iterators.
; 1831 :             // Note that when clearing an empty vector, this will preserve past-the-end iterators, which is allowed by
; 1832 :             // N4901 [tab:container.seq.req] "a.clear() [...] may invalidate the past-the-end iterator".
; 1833 :             return;
; 1834 :         }
; 1835 : 
; 1836 :         _My_data._Orphan_all();
; 1837 :         _Destroy_range(_Myfirst, _Mylast, _Getal());
; 1838 :         _ASAN_VECTOR_MODIFY(static_cast<difference_type>(_Myfirst - _Mylast)); // negative when destroying elements
; 1839 :         _Mylast = _Myfirst;

  0005b	89 47 14	 mov	 DWORD PTR [edi+20], eax
$LN29@CDynamicPo:

; 2107 :         if (_Myfirst) { // destroy and deallocate old array

  0005e	85 c0		 test	 eax, eax
  00060	74 41		 je	 SHORT $LN35@CDynamicPo

; 2108 :             _Destroy_range(_Myfirst, _Mylast, _Al);
; 2109 :             _ASAN_VECTOR_REMOVE;
; 2110 :             _Al.deallocate(_Myfirst, static_cast<size_type>(_Myend - _Myfirst));

  00062	8b 4f 18	 mov	 ecx, DWORD PTR [edi+24]
  00065	2b c8		 sub	 ecx, eax
; File C:\Program Files\Microsoft Visual Studio\2022\Community\VC\Tools\MSVC\14.34.31933\include\xmemory

; 830  :         _Deallocate<_New_alignof<_Ty>>(_Ptr, sizeof(_Ty) * _Count);

  00067	83 e1 fc	 and	 ecx, -4			; fffffffcH

; 251  :         if (_Bytes >= _Big_allocation_threshold) { // boost the alignment of big allocations to help autovectorization

  0006a	81 f9 00 10 00
	00		 cmp	 ecx, 4096		; 00001000H
  00070	72 12		 jb	 SHORT $LN51@CDynamicPo

; 150  :     const uintptr_t _Ptr_container   = _Ptr_user[-1];

  00072	8b 50 fc	 mov	 edx, DWORD PTR [eax-4]
  00075	83 c1 23	 add	 ecx, 35			; 00000023H

; 151  : 
; 152  :     // If the following asserts, it likely means that we are performing
; 153  :     // an aligned delete on memory coming from an unaligned allocation.
; 154  :     _STL_ASSERT(_Ptr_user[-2] == _Big_allocation_sentinel, "invalid argument");
; 155  : 
; 156  :     // Extra paranoia on aligned allocation/deallocation; ensure _Ptr_container is
; 157  :     // in range [_Min_back_shift, _Non_user_size]
; 158  : #ifdef _DEBUG
; 159  :     constexpr uintptr_t _Min_back_shift = 2 * sizeof(void*);
; 160  : #else // ^^^ _DEBUG ^^^ // vvv !_DEBUG vvv
; 161  :     constexpr uintptr_t _Min_back_shift = sizeof(void*);
; 162  : #endif // _DEBUG
; 163  :     const uintptr_t _Back_shift = reinterpret_cast<uintptr_t>(_Ptr) - _Ptr_container;

  00078	2b c2		 sub	 eax, edx

; 164  :     _STL_VERIFY(_Back_shift >= _Min_back_shift && _Back_shift <= _Non_user_size, "invalid argument");

  0007a	83 c0 fc	 add	 eax, -4			; fffffffcH
  0007d	83 f8 1f	 cmp	 eax, 31			; 0000001fH
  00080	77 7b		 ja	 SHORT $LN73@CDynamicPo

; 165  :     _Ptr = reinterpret_cast<void*>(_Ptr_container);

  00082	8b c2		 mov	 eax, edx
$LN51@CDynamicPo:

; 255  :         ::operator delete(_Ptr, _Bytes);

  00084	51		 push	 ecx
  00085	50		 push	 eax
  00086	e8 00 00 00 00	 call	 ??3@YAXPAXI@Z		; operator delete
; File C:\Program Files\Microsoft Visual Studio\2022\Community\VC\Tools\MSVC\14.34.31933\include\vector

; 2112 :             _Myfirst = nullptr;

  0008b	c7 47 10 00 00
	00 00		 mov	 DWORD PTR [edi+16], 0
; File C:\Program Files\Microsoft Visual Studio\2022\Community\VC\Tools\MSVC\14.34.31933\include\xmemory

; 255  :         ::operator delete(_Ptr, _Bytes);

  00092	83 c4 08	 add	 esp, 8
; File C:\Program Files\Microsoft Visual Studio\2022\Community\VC\Tools\MSVC\14.34.31933\include\vector

; 2113 :             _Mylast  = nullptr;

  00095	c7 47 14 00 00
	00 00		 mov	 DWORD PTR [edi+20], 0

; 2114 :             _Myend   = nullptr;

  0009c	c7 47 18 00 00
	00 00		 mov	 DWORD PTR [edi+24], 0
$LN35@CDynamicPo:

; 2107 :         if (_Myfirst) { // destroy and deallocate old array

  000a3	8b 47 04	 mov	 eax, DWORD PTR [edi+4]
  000a6	85 c0		 test	 eax, eax
  000a8	74 41		 je	 SHORT $LN60@CDynamicPo

; 2108 :             _Destroy_range(_Myfirst, _Mylast, _Al);
; 2109 :             _ASAN_VECTOR_REMOVE;
; 2110 :             _Al.deallocate(_Myfirst, static_cast<size_type>(_Myend - _Myfirst));

  000aa	8b 4f 0c	 mov	 ecx, DWORD PTR [edi+12]
  000ad	2b c8		 sub	 ecx, eax
; File C:\Program Files\Microsoft Visual Studio\2022\Community\VC\Tools\MSVC\14.34.31933\include\xmemory

; 830  :         _Deallocate<_New_alignof<_Ty>>(_Ptr, sizeof(_Ty) * _Count);

  000af	83 e1 fc	 and	 ecx, -4			; fffffffcH

; 251  :         if (_Bytes >= _Big_allocation_threshold) { // boost the alignment of big allocations to help autovectorization

  000b2	81 f9 00 10 00
	00		 cmp	 ecx, 4096		; 00001000H
  000b8	72 12		 jb	 SHORT $LN76@CDynamicPo

; 150  :     const uintptr_t _Ptr_container   = _Ptr_user[-1];

  000ba	8b 50 fc	 mov	 edx, DWORD PTR [eax-4]
  000bd	83 c1 23	 add	 ecx, 35			; 00000023H

; 151  : 
; 152  :     // If the following asserts, it likely means that we are performing
; 153  :     // an aligned delete on memory coming from an unaligned allocation.
; 154  :     _STL_ASSERT(_Ptr_user[-2] == _Big_allocation_sentinel, "invalid argument");
; 155  : 
; 156  :     // Extra paranoia on aligned allocation/deallocation; ensure _Ptr_container is
; 157  :     // in range [_Min_back_shift, _Non_user_size]
; 158  : #ifdef _DEBUG
; 159  :     constexpr uintptr_t _Min_back_shift = 2 * sizeof(void*);
; 160  : #else // ^^^ _DEBUG ^^^ // vvv !_DEBUG vvv
; 161  :     constexpr uintptr_t _Min_back_shift = sizeof(void*);
; 162  : #endif // _DEBUG
; 163  :     const uintptr_t _Back_shift = reinterpret_cast<uintptr_t>(_Ptr) - _Ptr_container;

  000c0	2b c2		 sub	 eax, edx

; 164  :     _STL_VERIFY(_Back_shift >= _Min_back_shift && _Back_shift <= _Non_user_size, "invalid argument");

  000c2	83 c0 fc	 add	 eax, -4			; fffffffcH
  000c5	83 f8 1f	 cmp	 eax, 31			; 0000001fH
  000c8	77 33		 ja	 SHORT $LN73@CDynamicPo

; 165  :     _Ptr = reinterpret_cast<void*>(_Ptr_container);

  000ca	8b c2		 mov	 eax, edx
$LN76@CDynamicPo:

; 255  :         ::operator delete(_Ptr, _Bytes);

  000cc	51		 push	 ecx
  000cd	50		 push	 eax
  000ce	e8 00 00 00 00	 call	 ??3@YAXPAXI@Z		; operator delete
; File C:\Program Files\Microsoft Visual Studio\2022\Community\VC\Tools\MSVC\14.34.31933\include\vector

; 2112 :             _Myfirst = nullptr;

  000d3	c7 47 04 00 00
	00 00		 mov	 DWORD PTR [edi+4], 0
; File C:\Program Files\Microsoft Visual Studio\2022\Community\VC\Tools\MSVC\14.34.31933\include\xmemory

; 255  :         ::operator delete(_Ptr, _Bytes);

  000da	83 c4 08	 add	 esp, 8
; File C:\Program Files\Microsoft Visual Studio\2022\Community\VC\Tools\MSVC\14.34.31933\include\vector

; 2113 :             _Mylast  = nullptr;

  000dd	c7 47 08 00 00
	00 00		 mov	 DWORD PTR [edi+8], 0

; 2114 :             _Myend   = nullptr;

  000e4	c7 47 0c 00 00
	00 00		 mov	 DWORD PTR [edi+12], 0
$LN60@CDynamicPo:
; File C:\Users\flourine\Desktop\Xantios\client-src\Code\eterLib\Pool.h

; 146  : 	}

  000eb	8b 4d f4	 mov	 ecx, DWORD PTR __$EHRec$[ebp]
  000ee	64 89 0d 00 00
	00 00		 mov	 DWORD PTR fs:0, ecx
  000f5	59		 pop	 ecx
  000f6	5f		 pop	 edi
  000f7	5e		 pop	 esi
  000f8	5b		 pop	 ebx
  000f9	8b e5		 mov	 esp, ebp
  000fb	5d		 pop	 ebp
  000fc	c3		 ret	 0
$LN73@CDynamicPo:
; File C:\Program Files\Microsoft Visual Studio\2022\Community\VC\Tools\MSVC\14.34.31933\include\xmemory

; 164  :     _STL_VERIFY(_Back_shift >= _Min_back_shift && _Back_shift <= _Non_user_size, "invalid argument");

  000fd	e8 00 00 00 00	 call	 __invalid_parameter_noinfo_noreturn
$LN86@CDynamicPo:
  00102	cc		 int	 3
  00103	cc		 int	 3
  00104	cc		 int	 3
  00105	cc		 int	 3
  00106	cc		 int	 3
  00107	cc		 int	 3
_TEXT	ENDS
;	COMDAT text$x
text$x	SEGMENT
__ehhandler$??1?$CDynamicPoolEx@VCNullDecorator@NEffectUpdateDecorator@@@@UAE@XZ:
  00000	90		 npad	 1
  00001	90		 npad	 1
  00002	8b 54 24 08	 mov	 edx, DWORD PTR [esp+8]
  00006	8d 42 0c	 lea	 eax, DWORD PTR [edx+12]
  00009	8b 4a f0	 mov	 ecx, DWORD PTR [edx-16]
  0000c	33 c8		 xor	 ecx, eax
  0000e	e8 00 00 00 00	 call	 @__security_check_cookie@4
  00013	b8 00 00 00 00	 mov	 eax, OFFSET __ehfuncinfo$??1?$CDynamicPoolEx@VCNullDecorator@NEffectUpdateDecorator@@@@UAE@XZ
  00018	e9 00 00 00 00	 jmp	 ___CxxFrameHandler3
text$x	ENDS
??1?$CDynamicPoolEx@VCNullDecorator@NEffectUpdateDecorator@@@@UAE@XZ ENDP ; CDynamicPoolEx<NEffectUpdateDecorator::CNullDecorator>::~CDynamicPoolEx<NEffectUpdateDecorator::CNullDecorator>
; Function compile flags: /Ogtp
;	COMDAT ??_G?$CDynamicPoolEx@VCTextureAnimationCWDecorator@NEffectUpdateDecorator@@@@UAEPAXI@Z
_TEXT	SEGMENT
___flags$ = 8						; size = 4
??_G?$CDynamicPoolEx@VCTextureAnimationCWDecorator@NEffectUpdateDecorator@@@@UAEPAXI@Z PROC ; CDynamicPoolEx<NEffectUpdateDecorator::CTextureAnimationCWDecorator>::`scalar deleting destructor', COMDAT
; _this$ = ecx
  00000	55		 push	 ebp
  00001	8b ec		 mov	 ebp, esp
  00003	56		 push	 esi
  00004	8b f1		 mov	 esi, ecx
  00006	e8 00 00 00 00	 call	 ??1?$CDynamicPoolEx@VCTextureAnimationCWDecorator@NEffectUpdateDecorator@@@@UAE@XZ ; CDynamicPoolEx<NEffectUpdateDecorator::CTextureAnimationCWDecorator>::~CDynamicPoolEx<NEffectUpdateDecorator::CTextureAnimationCWDecorator>
  0000b	f6 45 08 01	 test	 BYTE PTR ___flags$[ebp], 1
  0000f	74 0b		 je	 SHORT $LN4@scalar
  00011	6a 24		 push	 36			; 00000024H
  00013	56		 push	 esi
  00014	e8 00 00 00 00	 call	 ??3@YAXPAXI@Z		; operator delete
  00019	83 c4 08	 add	 esp, 8
$LN4@scalar:
  0001c	8b c6		 mov	 eax, esi
  0001e	5e		 pop	 esi
  0001f	5d		 pop	 ebp
  00020	c2 04 00	 ret	 4
??_G?$CDynamicPoolEx@VCTextureAnimationCWDecorator@NEffectUpdateDecorator@@@@UAEPAXI@Z ENDP ; CDynamicPoolEx<NEffectUpdateDecorator::CTextureAnimationCWDecorator>::`scalar deleting destructor'
_TEXT	ENDS
; Function compile flags: /Ogtp
; File C:\Users\flourine\Desktop\Xantios\client-src\Code\eterLib\Pool.h
;	COMDAT ?Delete@?$CDynamicPoolEx@VCTextureAnimationCWDecorator@NEffectUpdateDecorator@@@@KAXPAVCTextureAnimationCWDecorator@NEffectUpdateDecorator@@@Z
_TEXT	SEGMENT
_pkData$ = 8						; size = 4
?Delete@?$CDynamicPoolEx@VCTextureAnimationCWDecorator@NEffectUpdateDecorator@@@@KAXPAVCTextureAnimationCWDecorator@NEffectUpdateDecorator@@@Z PROC ; CDynamicPoolEx<NEffectUpdateDecorator::CTextureAnimationCWDecorator>::Delete, COMDAT

; 232  : 		::operator delete (pkData);

  00000	e9 00 00 00 00	 jmp	 ??3@YAXPAX@Z		; operator delete
?Delete@?$CDynamicPoolEx@VCTextureAnimationCWDecorator@NEffectUpdateDecorator@@@@KAXPAVCTextureAnimationCWDecorator@NEffectUpdateDecorator@@@Z ENDP ; CDynamicPoolEx<NEffectUpdateDecorator::CTextureAnimationCWDecorator>::Delete
_TEXT	ENDS
; Function compile flags: /Ogtp
; File C:\Users\flourine\Desktop\Xantios\client-src\Code\eterLib\Pool.h
; File C:\Program Files\Microsoft Visual Studio\2022\Community\VC\Tools\MSVC\14.34.31933\include\vector
; File C:\Program Files\Microsoft Visual Studio\2022\Community\VC\Tools\MSVC\14.34.31933\include\algorithm
; File C:\Users\flourine\Desktop\Xantios\client-src\Code\eterLib\Pool.h
; File C:\Program Files\Microsoft Visual Studio\2022\Community\VC\Tools\MSVC\14.34.31933\include\algorithm
; File C:\Users\flourine\Desktop\Xantios\client-src\Code\eterLib\Pool.h
; File C:\Program Files\Microsoft Visual Studio\2022\Community\VC\Tools\MSVC\14.34.31933\include\algorithm
; File C:\Program Files\Microsoft Visual Studio\2022\Community\VC\Tools\MSVC\14.34.31933\include\vector
; File C:\Program Files\Microsoft Visual Studio\2022\Community\VC\Tools\MSVC\14.34.31933\include\xmemory
; File C:\Program Files\Microsoft Visual Studio\2022\Community\VC\Tools\MSVC\14.34.31933\include\vector
; File C:\Program Files\Microsoft Visual Studio\2022\Community\VC\Tools\MSVC\14.34.31933\include\xmemory
; File C:\Program Files\Microsoft Visual Studio\2022\Community\VC\Tools\MSVC\14.34.31933\include\vector
; File C:\Program Files\Microsoft Visual Studio\2022\Community\VC\Tools\MSVC\14.34.31933\include\xmemory
; File C:\Program Files\Microsoft Visual Studio\2022\Community\VC\Tools\MSVC\14.34.31933\include\vector
; File C:\Program Files\Microsoft Visual Studio\2022\Community\VC\Tools\MSVC\14.34.31933\include\xmemory
; File C:\Program Files\Microsoft Visual Studio\2022\Community\VC\Tools\MSVC\14.34.31933\include\vector
; File C:\Users\flourine\Desktop\Xantios\client-src\Code\eterLib\Pool.h
; File C:\Program Files\Microsoft Visual Studio\2022\Community\VC\Tools\MSVC\14.34.31933\include\xmemory
; File C:\Users\flourine\Desktop\Xantios\client-src\Code\eterLib\Pool.h
;	COMDAT ??1?$CDynamicPoolEx@VCTextureAnimationCWDecorator@NEffectUpdateDecorator@@@@UAE@XZ
_TEXT	SEGMENT
__$EHRec$ = -12						; size = 12
??1?$CDynamicPoolEx@VCTextureAnimationCWDecorator@NEffectUpdateDecorator@@@@UAE@XZ PROC ; CDynamicPoolEx<NEffectUpdateDecorator::CTextureAnimationCWDecorator>::~CDynamicPoolEx<NEffectUpdateDecorator::CTextureAnimationCWDecorator>, COMDAT
; _this$ = ecx

; 136  : 	{

  00000	55		 push	 ebp
  00001	8b ec		 mov	 ebp, esp
  00003	6a ff		 push	 -1
  00005	68 00 00 00 00	 push	 __ehhandler$??1?$CDynamicPoolEx@VCTextureAnimationCWDecorator@NEffectUpdateDecorator@@@@UAE@XZ
  0000a	64 a1 00 00 00
	00		 mov	 eax, DWORD PTR fs:0
  00010	50		 push	 eax
  00011	53		 push	 ebx
  00012	56		 push	 esi
  00013	57		 push	 edi
  00014	a1 00 00 00 00	 mov	 eax, DWORD PTR ___security_cookie
  00019	33 c5		 xor	 eax, ebp
  0001b	50		 push	 eax
  0001c	8d 45 f4	 lea	 eax, DWORD PTR __$EHRec$[ebp]
  0001f	64 a3 00 00 00
	00		 mov	 DWORD PTR fs:0, eax
  00025	8b f9		 mov	 edi, ecx
  00027	c7 07 00 00 00
	00		 mov	 DWORD PTR [edi], OFFSET ??_7?$CDynamicPoolEx@VCTextureAnimationCWDecorator@NEffectUpdateDecorator@@@@6B@
; File C:\Program Files\Microsoft Visual Studio\2022\Community\VC\Tools\MSVC\14.34.31933\include\vector

; 41   :     _CONSTEXPR20 _Vector_const_iterator(_Tptr _Parg, const _Container_base* _Pvector) noexcept : _Ptr(_Parg) {

  0002d	8b 5f 08	 mov	 ebx, DWORD PTR [edi+8]
; File C:\Program Files\Microsoft Visual Studio\2022\Community\VC\Tools\MSVC\14.34.31933\include\algorithm

; 265  :     for (; _UFirst != _ULast; ++_UFirst) {

  00030	8b 77 04	 mov	 esi, DWORD PTR [edi+4]
  00033	3b f3		 cmp	 esi, ebx
  00035	74 11		 je	 SHORT $LN19@CDynamicPo
$LL20@CDynamicPo:
; File C:\Users\flourine\Desktop\Xantios\client-src\Code\eterLib\Pool.h

; 232  : 		::operator delete (pkData);

  00037	ff 36		 push	 DWORD PTR [esi]
  00039	e8 00 00 00 00	 call	 ??3@YAXPAX@Z		; operator delete
; File C:\Program Files\Microsoft Visual Studio\2022\Community\VC\Tools\MSVC\14.34.31933\include\algorithm

; 265  :     for (; _UFirst != _ULast; ++_UFirst) {

  0003e	83 c6 04	 add	 esi, 4
; File C:\Users\flourine\Desktop\Xantios\client-src\Code\eterLib\Pool.h

; 232  : 		::operator delete (pkData);

  00041	83 c4 04	 add	 esp, 4
; File C:\Program Files\Microsoft Visual Studio\2022\Community\VC\Tools\MSVC\14.34.31933\include\algorithm

; 265  :     for (; _UFirst != _ULast; ++_UFirst) {

  00044	3b f3		 cmp	 esi, ebx
  00046	75 ef		 jne	 SHORT $LL20@CDynamicPo
$LN19@CDynamicPo:
; File C:\Program Files\Microsoft Visual Studio\2022\Community\VC\Tools\MSVC\14.34.31933\include\vector

; 1829 :         if (_Myfirst == _Mylast) { // already empty, nothing to do

  00048	8b 47 04	 mov	 eax, DWORD PTR [edi+4]
  0004b	3b 47 08	 cmp	 eax, DWORD PTR [edi+8]
  0004e	74 03		 je	 SHORT $LN26@CDynamicPo

; 1830 :             // This is an optimization for debug mode: we can avoid taking the debug lock to invalidate iterators.
; 1831 :             // Note that when clearing an empty vector, this will preserve past-the-end iterators, which is allowed by
; 1832 :             // N4901 [tab:container.seq.req] "a.clear() [...] may invalidate the past-the-end iterator".
; 1833 :             return;
; 1834 :         }
; 1835 : 
; 1836 :         _My_data._Orphan_all();
; 1837 :         _Destroy_range(_Myfirst, _Mylast, _Getal());
; 1838 :         _ASAN_VECTOR_MODIFY(static_cast<difference_type>(_Myfirst - _Mylast)); // negative when destroying elements
; 1839 :         _Mylast = _Myfirst;

  00050	89 47 08	 mov	 DWORD PTR [edi+8], eax
$LN26@CDynamicPo:

; 1829 :         if (_Myfirst == _Mylast) { // already empty, nothing to do

  00053	8b 47 10	 mov	 eax, DWORD PTR [edi+16]
  00056	3b 47 14	 cmp	 eax, DWORD PTR [edi+20]
  00059	74 03		 je	 SHORT $LN29@CDynamicPo

; 1830 :             // This is an optimization for debug mode: we can avoid taking the debug lock to invalidate iterators.
; 1831 :             // Note that when clearing an empty vector, this will preserve past-the-end iterators, which is allowed by
; 1832 :             // N4901 [tab:container.seq.req] "a.clear() [...] may invalidate the past-the-end iterator".
; 1833 :             return;
; 1834 :         }
; 1835 : 
; 1836 :         _My_data._Orphan_all();
; 1837 :         _Destroy_range(_Myfirst, _Mylast, _Getal());
; 1838 :         _ASAN_VECTOR_MODIFY(static_cast<difference_type>(_Myfirst - _Mylast)); // negative when destroying elements
; 1839 :         _Mylast = _Myfirst;

  0005b	89 47 14	 mov	 DWORD PTR [edi+20], eax
$LN29@CDynamicPo:

; 2107 :         if (_Myfirst) { // destroy and deallocate old array

  0005e	85 c0		 test	 eax, eax
  00060	74 41		 je	 SHORT $LN35@CDynamicPo

; 2108 :             _Destroy_range(_Myfirst, _Mylast, _Al);
; 2109 :             _ASAN_VECTOR_REMOVE;
; 2110 :             _Al.deallocate(_Myfirst, static_cast<size_type>(_Myend - _Myfirst));

  00062	8b 4f 18	 mov	 ecx, DWORD PTR [edi+24]
  00065	2b c8		 sub	 ecx, eax
; File C:\Program Files\Microsoft Visual Studio\2022\Community\VC\Tools\MSVC\14.34.31933\include\xmemory

; 830  :         _Deallocate<_New_alignof<_Ty>>(_Ptr, sizeof(_Ty) * _Count);

  00067	83 e1 fc	 and	 ecx, -4			; fffffffcH

; 251  :         if (_Bytes >= _Big_allocation_threshold) { // boost the alignment of big allocations to help autovectorization

  0006a	81 f9 00 10 00
	00		 cmp	 ecx, 4096		; 00001000H
  00070	72 12		 jb	 SHORT $LN51@CDynamicPo

; 150  :     const uintptr_t _Ptr_container   = _Ptr_user[-1];

  00072	8b 50 fc	 mov	 edx, DWORD PTR [eax-4]
  00075	83 c1 23	 add	 ecx, 35			; 00000023H

; 151  : 
; 152  :     // If the following asserts, it likely means that we are performing
; 153  :     // an aligned delete on memory coming from an unaligned allocation.
; 154  :     _STL_ASSERT(_Ptr_user[-2] == _Big_allocation_sentinel, "invalid argument");
; 155  : 
; 156  :     // Extra paranoia on aligned allocation/deallocation; ensure _Ptr_container is
; 157  :     // in range [_Min_back_shift, _Non_user_size]
; 158  : #ifdef _DEBUG
; 159  :     constexpr uintptr_t _Min_back_shift = 2 * sizeof(void*);
; 160  : #else // ^^^ _DEBUG ^^^ // vvv !_DEBUG vvv
; 161  :     constexpr uintptr_t _Min_back_shift = sizeof(void*);
; 162  : #endif // _DEBUG
; 163  :     const uintptr_t _Back_shift = reinterpret_cast<uintptr_t>(_Ptr) - _Ptr_container;

  00078	2b c2		 sub	 eax, edx

; 164  :     _STL_VERIFY(_Back_shift >= _Min_back_shift && _Back_shift <= _Non_user_size, "invalid argument");

  0007a	83 c0 fc	 add	 eax, -4			; fffffffcH
  0007d	83 f8 1f	 cmp	 eax, 31			; 0000001fH
  00080	77 7b		 ja	 SHORT $LN73@CDynamicPo

; 165  :     _Ptr = reinterpret_cast<void*>(_Ptr_container);

  00082	8b c2		 mov	 eax, edx
$LN51@CDynamicPo:

; 255  :         ::operator delete(_Ptr, _Bytes);

  00084	51		 push	 ecx
  00085	50		 push	 eax
  00086	e8 00 00 00 00	 call	 ??3@YAXPAXI@Z		; operator delete
; File C:\Program Files\Microsoft Visual Studio\2022\Community\VC\Tools\MSVC\14.34.31933\include\vector

; 2112 :             _Myfirst = nullptr;

  0008b	c7 47 10 00 00
	00 00		 mov	 DWORD PTR [edi+16], 0
; File C:\Program Files\Microsoft Visual Studio\2022\Community\VC\Tools\MSVC\14.34.31933\include\xmemory

; 255  :         ::operator delete(_Ptr, _Bytes);

  00092	83 c4 08	 add	 esp, 8
; File C:\Program Files\Microsoft Visual Studio\2022\Community\VC\Tools\MSVC\14.34.31933\include\vector

; 2113 :             _Mylast  = nullptr;

  00095	c7 47 14 00 00
	00 00		 mov	 DWORD PTR [edi+20], 0

; 2114 :             _Myend   = nullptr;

  0009c	c7 47 18 00 00
	00 00		 mov	 DWORD PTR [edi+24], 0
$LN35@CDynamicPo:

; 2107 :         if (_Myfirst) { // destroy and deallocate old array

  000a3	8b 47 04	 mov	 eax, DWORD PTR [edi+4]
  000a6	85 c0		 test	 eax, eax
  000a8	74 41		 je	 SHORT $LN60@CDynamicPo

; 2108 :             _Destroy_range(_Myfirst, _Mylast, _Al);
; 2109 :             _ASAN_VECTOR_REMOVE;
; 2110 :             _Al.deallocate(_Myfirst, static_cast<size_type>(_Myend - _Myfirst));

  000aa	8b 4f 0c	 mov	 ecx, DWORD PTR [edi+12]
  000ad	2b c8		 sub	 ecx, eax
; File C:\Program Files\Microsoft Visual Studio\2022\Community\VC\Tools\MSVC\14.34.31933\include\xmemory

; 830  :         _Deallocate<_New_alignof<_Ty>>(_Ptr, sizeof(_Ty) * _Count);

  000af	83 e1 fc	 and	 ecx, -4			; fffffffcH

; 251  :         if (_Bytes >= _Big_allocation_threshold) { // boost the alignment of big allocations to help autovectorization

  000b2	81 f9 00 10 00
	00		 cmp	 ecx, 4096		; 00001000H
  000b8	72 12		 jb	 SHORT $LN76@CDynamicPo

; 150  :     const uintptr_t _Ptr_container   = _Ptr_user[-1];

  000ba	8b 50 fc	 mov	 edx, DWORD PTR [eax-4]
  000bd	83 c1 23	 add	 ecx, 35			; 00000023H

; 151  : 
; 152  :     // If the following asserts, it likely means that we are performing
; 153  :     // an aligned delete on memory coming from an unaligned allocation.
; 154  :     _STL_ASSERT(_Ptr_user[-2] == _Big_allocation_sentinel, "invalid argument");
; 155  : 
; 156  :     // Extra paranoia on aligned allocation/deallocation; ensure _Ptr_container is
; 157  :     // in range [_Min_back_shift, _Non_user_size]
; 158  : #ifdef _DEBUG
; 159  :     constexpr uintptr_t _Min_back_shift = 2 * sizeof(void*);
; 160  : #else // ^^^ _DEBUG ^^^ // vvv !_DEBUG vvv
; 161  :     constexpr uintptr_t _Min_back_shift = sizeof(void*);
; 162  : #endif // _DEBUG
; 163  :     const uintptr_t _Back_shift = reinterpret_cast<uintptr_t>(_Ptr) - _Ptr_container;

  000c0	2b c2		 sub	 eax, edx

; 164  :     _STL_VERIFY(_Back_shift >= _Min_back_shift && _Back_shift <= _Non_user_size, "invalid argument");

  000c2	83 c0 fc	 add	 eax, -4			; fffffffcH
  000c5	83 f8 1f	 cmp	 eax, 31			; 0000001fH
  000c8	77 33		 ja	 SHORT $LN73@CDynamicPo

; 165  :     _Ptr = reinterpret_cast<void*>(_Ptr_container);

  000ca	8b c2		 mov	 eax, edx
$LN76@CDynamicPo:

; 255  :         ::operator delete(_Ptr, _Bytes);

  000cc	51		 push	 ecx
  000cd	50		 push	 eax
  000ce	e8 00 00 00 00	 call	 ??3@YAXPAXI@Z		; operator delete
; File C:\Program Files\Microsoft Visual Studio\2022\Community\VC\Tools\MSVC\14.34.31933\include\vector

; 2112 :             _Myfirst = nullptr;

  000d3	c7 47 04 00 00
	00 00		 mov	 DWORD PTR [edi+4], 0
; File C:\Program Files\Microsoft Visual Studio\2022\Community\VC\Tools\MSVC\14.34.31933\include\xmemory

; 255  :         ::operator delete(_Ptr, _Bytes);

  000da	83 c4 08	 add	 esp, 8
; File C:\Program Files\Microsoft Visual Studio\2022\Community\VC\Tools\MSVC\14.34.31933\include\vector

; 2113 :             _Mylast  = nullptr;

  000dd	c7 47 08 00 00
	00 00		 mov	 DWORD PTR [edi+8], 0

; 2114 :             _Myend   = nullptr;

  000e4	c7 47 0c 00 00
	00 00		 mov	 DWORD PTR [edi+12], 0
$LN60@CDynamicPo:
; File C:\Users\flourine\Desktop\Xantios\client-src\Code\eterLib\Pool.h

; 146  : 	}

  000eb	8b 4d f4	 mov	 ecx, DWORD PTR __$EHRec$[ebp]
  000ee	64 89 0d 00 00
	00 00		 mov	 DWORD PTR fs:0, ecx
  000f5	59		 pop	 ecx
  000f6	5f		 pop	 edi
  000f7	5e		 pop	 esi
  000f8	5b		 pop	 ebx
  000f9	8b e5		 mov	 esp, ebp
  000fb	5d		 pop	 ebp
  000fc	c3		 ret	 0
$LN73@CDynamicPo:
; File C:\Program Files\Microsoft Visual Studio\2022\Community\VC\Tools\MSVC\14.34.31933\include\xmemory

; 164  :     _STL_VERIFY(_Back_shift >= _Min_back_shift && _Back_shift <= _Non_user_size, "invalid argument");

  000fd	e8 00 00 00 00	 call	 __invalid_parameter_noinfo_noreturn
$LN86@CDynamicPo:
  00102	cc		 int	 3
  00103	cc		 int	 3
  00104	cc		 int	 3
  00105	cc		 int	 3
  00106	cc		 int	 3
  00107	cc		 int	 3
_TEXT	ENDS
;	COMDAT text$x
text$x	SEGMENT
__ehhandler$??1?$CDynamicPoolEx@VCTextureAnimationCWDecorator@NEffectUpdateDecorator@@@@UAE@XZ:
  00000	90		 npad	 1
  00001	90		 npad	 1
  00002	8b 54 24 08	 mov	 edx, DWORD PTR [esp+8]
  00006	8d 42 0c	 lea	 eax, DWORD PTR [edx+12]
  00009	8b 4a f0	 mov	 ecx, DWORD PTR [edx-16]
  0000c	33 c8		 xor	 ecx, eax
  0000e	e8 00 00 00 00	 call	 @__security_check_cookie@4
  00013	b8 00 00 00 00	 mov	 eax, OFFSET __ehfuncinfo$??1?$CDynamicPoolEx@VCTextureAnimationCWDecorator@NEffectUpdateDecorator@@@@UAE@XZ
  00018	e9 00 00 00 00	 jmp	 ___CxxFrameHandler3
text$x	ENDS
??1?$CDynamicPoolEx@VCTextureAnimationCWDecorator@NEffectUpdateDecorator@@@@UAE@XZ ENDP ; CDynamicPoolEx<NEffectUpdateDecorator::CTextureAnimationCWDecorator>::~CDynamicPoolEx<NEffectUpdateDecorator::CTextureAnimationCWDecorator>
; Function compile flags: /Ogtp
;	COMDAT ??_G?$CDynamicPoolEx@VCTextureAnimationCCWDecorator@NEffectUpdateDecorator@@@@UAEPAXI@Z
_TEXT	SEGMENT
___flags$ = 8						; size = 4
??_G?$CDynamicPoolEx@VCTextureAnimationCCWDecorator@NEffectUpdateDecorator@@@@UAEPAXI@Z PROC ; CDynamicPoolEx<NEffectUpdateDecorator::CTextureAnimationCCWDecorator>::`scalar deleting destructor', COMDAT
; _this$ = ecx
  00000	55		 push	 ebp
  00001	8b ec		 mov	 ebp, esp
  00003	56		 push	 esi
  00004	8b f1		 mov	 esi, ecx
  00006	e8 00 00 00 00	 call	 ??1?$CDynamicPoolEx@VCTextureAnimationCCWDecorator@NEffectUpdateDecorator@@@@UAE@XZ ; CDynamicPoolEx<NEffectUpdateDecorator::CTextureAnimationCCWDecorator>::~CDynamicPoolEx<NEffectUpdateDecorator::CTextureAnimationCCWDecorator>
  0000b	f6 45 08 01	 test	 BYTE PTR ___flags$[ebp], 1
  0000f	74 0b		 je	 SHORT $LN4@scalar
  00011	6a 24		 push	 36			; 00000024H
  00013	56		 push	 esi
  00014	e8 00 00 00 00	 call	 ??3@YAXPAXI@Z		; operator delete
  00019	83 c4 08	 add	 esp, 8
$LN4@scalar:
  0001c	8b c6		 mov	 eax, esi
  0001e	5e		 pop	 esi
  0001f	5d		 pop	 ebp
  00020	c2 04 00	 ret	 4
??_G?$CDynamicPoolEx@VCTextureAnimationCCWDecorator@NEffectUpdateDecorator@@@@UAEPAXI@Z ENDP ; CDynamicPoolEx<NEffectUpdateDecorator::CTextureAnimationCCWDecorator>::`scalar deleting destructor'
_TEXT	ENDS
; Function compile flags: /Ogtp
; File C:\Users\flourine\Desktop\Xantios\client-src\Code\eterLib\Pool.h
;	COMDAT ?Delete@?$CDynamicPoolEx@VCTextureAnimationCCWDecorator@NEffectUpdateDecorator@@@@KAXPAVCTextureAnimationCCWDecorator@NEffectUpdateDecorator@@@Z
_TEXT	SEGMENT
_pkData$ = 8						; size = 4
?Delete@?$CDynamicPoolEx@VCTextureAnimationCCWDecorator@NEffectUpdateDecorator@@@@KAXPAVCTextureAnimationCCWDecorator@NEffectUpdateDecorator@@@Z PROC ; CDynamicPoolEx<NEffectUpdateDecorator::CTextureAnimationCCWDecorator>::Delete, COMDAT

; 232  : 		::operator delete (pkData);

  00000	e9 00 00 00 00	 jmp	 ??3@YAXPAX@Z		; operator delete
?Delete@?$CDynamicPoolEx@VCTextureAnimationCCWDecorator@NEffectUpdateDecorator@@@@KAXPAVCTextureAnimationCCWDecorator@NEffectUpdateDecorator@@@Z ENDP ; CDynamicPoolEx<NEffectUpdateDecorator::CTextureAnimationCCWDecorator>::Delete
_TEXT	ENDS
; Function compile flags: /Ogtp
; File C:\Users\flourine\Desktop\Xantios\client-src\Code\eterLib\Pool.h
; File C:\Program Files\Microsoft Visual Studio\2022\Community\VC\Tools\MSVC\14.34.31933\include\vector
; File C:\Program Files\Microsoft Visual Studio\2022\Community\VC\Tools\MSVC\14.34.31933\include\algorithm
; File C:\Users\flourine\Desktop\Xantios\client-src\Code\eterLib\Pool.h
; File C:\Program Files\Microsoft Visual Studio\2022\Community\VC\Tools\MSVC\14.34.31933\include\algorithm
; File C:\Users\flourine\Desktop\Xantios\client-src\Code\eterLib\Pool.h
; File C:\Program Files\Microsoft Visual Studio\2022\Community\VC\Tools\MSVC\14.34.31933\include\algorithm
; File C:\Program Files\Microsoft Visual Studio\2022\Community\VC\Tools\MSVC\14.34.31933\include\vector
; File C:\Program Files\Microsoft Visual Studio\2022\Community\VC\Tools\MSVC\14.34.31933\include\xmemory
; File C:\Program Files\Microsoft Visual Studio\2022\Community\VC\Tools\MSVC\14.34.31933\include\vector
; File C:\Program Files\Microsoft Visual Studio\2022\Community\VC\Tools\MSVC\14.34.31933\include\xmemory
; File C:\Program Files\Microsoft Visual Studio\2022\Community\VC\Tools\MSVC\14.34.31933\include\vector
; File C:\Program Files\Microsoft Visual Studio\2022\Community\VC\Tools\MSVC\14.34.31933\include\xmemory
; File C:\Program Files\Microsoft Visual Studio\2022\Community\VC\Tools\MSVC\14.34.31933\include\vector
; File C:\Program Files\Microsoft Visual Studio\2022\Community\VC\Tools\MSVC\14.34.31933\include\xmemory
; File C:\Program Files\Microsoft Visual Studio\2022\Community\VC\Tools\MSVC\14.34.31933\include\vector
; File C:\Users\flourine\Desktop\Xantios\client-src\Code\eterLib\Pool.h
; File C:\Program Files\Microsoft Visual Studio\2022\Community\VC\Tools\MSVC\14.34.31933\include\xmemory
; File C:\Users\flourine\Desktop\Xantios\client-src\Code\eterLib\Pool.h
;	COMDAT ??1?$CDynamicPoolEx@VCTextureAnimationCCWDecorator@NEffectUpdateDecorator@@@@UAE@XZ
_TEXT	SEGMENT
__$EHRec$ = -12						; size = 12
??1?$CDynamicPoolEx@VCTextureAnimationCCWDecorator@NEffectUpdateDecorator@@@@UAE@XZ PROC ; CDynamicPoolEx<NEffectUpdateDecorator::CTextureAnimationCCWDecorator>::~CDynamicPoolEx<NEffectUpdateDecorator::CTextureAnimationCCWDecorator>, COMDAT
; _this$ = ecx

; 136  : 	{

  00000	55		 push	 ebp
  00001	8b ec		 mov	 ebp, esp
  00003	6a ff		 push	 -1
  00005	68 00 00 00 00	 push	 __ehhandler$??1?$CDynamicPoolEx@VCTextureAnimationCCWDecorator@NEffectUpdateDecorator@@@@UAE@XZ
  0000a	64 a1 00 00 00
	00		 mov	 eax, DWORD PTR fs:0
  00010	50		 push	 eax
  00011	53		 push	 ebx
  00012	56		 push	 esi
  00013	57		 push	 edi
  00014	a1 00 00 00 00	 mov	 eax, DWORD PTR ___security_cookie
  00019	33 c5		 xor	 eax, ebp
  0001b	50		 push	 eax
  0001c	8d 45 f4	 lea	 eax, DWORD PTR __$EHRec$[ebp]
  0001f	64 a3 00 00 00
	00		 mov	 DWORD PTR fs:0, eax
  00025	8b f9		 mov	 edi, ecx
  00027	c7 07 00 00 00
	00		 mov	 DWORD PTR [edi], OFFSET ??_7?$CDynamicPoolEx@VCTextureAnimationCCWDecorator@NEffectUpdateDecorator@@@@6B@
; File C:\Program Files\Microsoft Visual Studio\2022\Community\VC\Tools\MSVC\14.34.31933\include\vector

; 41   :     _CONSTEXPR20 _Vector_const_iterator(_Tptr _Parg, const _Container_base* _Pvector) noexcept : _Ptr(_Parg) {

  0002d	8b 5f 08	 mov	 ebx, DWORD PTR [edi+8]
; File C:\Program Files\Microsoft Visual Studio\2022\Community\VC\Tools\MSVC\14.34.31933\include\algorithm

; 265  :     for (; _UFirst != _ULast; ++_UFirst) {

  00030	8b 77 04	 mov	 esi, DWORD PTR [edi+4]
  00033	3b f3		 cmp	 esi, ebx
  00035	74 11		 je	 SHORT $LN19@CDynamicPo
$LL20@CDynamicPo:
; File C:\Users\flourine\Desktop\Xantios\client-src\Code\eterLib\Pool.h

; 232  : 		::operator delete (pkData);

  00037	ff 36		 push	 DWORD PTR [esi]
  00039	e8 00 00 00 00	 call	 ??3@YAXPAX@Z		; operator delete
; File C:\Program Files\Microsoft Visual Studio\2022\Community\VC\Tools\MSVC\14.34.31933\include\algorithm

; 265  :     for (; _UFirst != _ULast; ++_UFirst) {

  0003e	83 c6 04	 add	 esi, 4
; File C:\Users\flourine\Desktop\Xantios\client-src\Code\eterLib\Pool.h

; 232  : 		::operator delete (pkData);

  00041	83 c4 04	 add	 esp, 4
; File C:\Program Files\Microsoft Visual Studio\2022\Community\VC\Tools\MSVC\14.34.31933\include\algorithm

; 265  :     for (; _UFirst != _ULast; ++_UFirst) {

  00044	3b f3		 cmp	 esi, ebx
  00046	75 ef		 jne	 SHORT $LL20@CDynamicPo
$LN19@CDynamicPo:
; File C:\Program Files\Microsoft Visual Studio\2022\Community\VC\Tools\MSVC\14.34.31933\include\vector

; 1829 :         if (_Myfirst == _Mylast) { // already empty, nothing to do

  00048	8b 47 04	 mov	 eax, DWORD PTR [edi+4]
  0004b	3b 47 08	 cmp	 eax, DWORD PTR [edi+8]
  0004e	74 03		 je	 SHORT $LN26@CDynamicPo

; 1830 :             // This is an optimization for debug mode: we can avoid taking the debug lock to invalidate iterators.
; 1831 :             // Note that when clearing an empty vector, this will preserve past-the-end iterators, which is allowed by
; 1832 :             // N4901 [tab:container.seq.req] "a.clear() [...] may invalidate the past-the-end iterator".
; 1833 :             return;
; 1834 :         }
; 1835 : 
; 1836 :         _My_data._Orphan_all();
; 1837 :         _Destroy_range(_Myfirst, _Mylast, _Getal());
; 1838 :         _ASAN_VECTOR_MODIFY(static_cast<difference_type>(_Myfirst - _Mylast)); // negative when destroying elements
; 1839 :         _Mylast = _Myfirst;

  00050	89 47 08	 mov	 DWORD PTR [edi+8], eax
$LN26@CDynamicPo:

; 1829 :         if (_Myfirst == _Mylast) { // already empty, nothing to do

  00053	8b 47 10	 mov	 eax, DWORD PTR [edi+16]
  00056	3b 47 14	 cmp	 eax, DWORD PTR [edi+20]
  00059	74 03		 je	 SHORT $LN29@CDynamicPo

; 1830 :             // This is an optimization for debug mode: we can avoid taking the debug lock to invalidate iterators.
; 1831 :             // Note that when clearing an empty vector, this will preserve past-the-end iterators, which is allowed by
; 1832 :             // N4901 [tab:container.seq.req] "a.clear() [...] may invalidate the past-the-end iterator".
; 1833 :             return;
; 1834 :         }
; 1835 : 
; 1836 :         _My_data._Orphan_all();
; 1837 :         _Destroy_range(_Myfirst, _Mylast, _Getal());
; 1838 :         _ASAN_VECTOR_MODIFY(static_cast<difference_type>(_Myfirst - _Mylast)); // negative when destroying elements
; 1839 :         _Mylast = _Myfirst;

  0005b	89 47 14	 mov	 DWORD PTR [edi+20], eax
$LN29@CDynamicPo:

; 2107 :         if (_Myfirst) { // destroy and deallocate old array

  0005e	85 c0		 test	 eax, eax
  00060	74 41		 je	 SHORT $LN35@CDynamicPo

; 2108 :             _Destroy_range(_Myfirst, _Mylast, _Al);
; 2109 :             _ASAN_VECTOR_REMOVE;
; 2110 :             _Al.deallocate(_Myfirst, static_cast<size_type>(_Myend - _Myfirst));

  00062	8b 4f 18	 mov	 ecx, DWORD PTR [edi+24]
  00065	2b c8		 sub	 ecx, eax
; File C:\Program Files\Microsoft Visual Studio\2022\Community\VC\Tools\MSVC\14.34.31933\include\xmemory

; 830  :         _Deallocate<_New_alignof<_Ty>>(_Ptr, sizeof(_Ty) * _Count);

  00067	83 e1 fc	 and	 ecx, -4			; fffffffcH

; 251  :         if (_Bytes >= _Big_allocation_threshold) { // boost the alignment of big allocations to help autovectorization

  0006a	81 f9 00 10 00
	00		 cmp	 ecx, 4096		; 00001000H
  00070	72 12		 jb	 SHORT $LN51@CDynamicPo

; 150  :     const uintptr_t _Ptr_container   = _Ptr_user[-1];

  00072	8b 50 fc	 mov	 edx, DWORD PTR [eax-4]
  00075	83 c1 23	 add	 ecx, 35			; 00000023H

; 151  : 
; 152  :     // If the following asserts, it likely means that we are performing
; 153  :     // an aligned delete on memory coming from an unaligned allocation.
; 154  :     _STL_ASSERT(_Ptr_user[-2] == _Big_allocation_sentinel, "invalid argument");
; 155  : 
; 156  :     // Extra paranoia on aligned allocation/deallocation; ensure _Ptr_container is
; 157  :     // in range [_Min_back_shift, _Non_user_size]
; 158  : #ifdef _DEBUG
; 159  :     constexpr uintptr_t _Min_back_shift = 2 * sizeof(void*);
; 160  : #else // ^^^ _DEBUG ^^^ // vvv !_DEBUG vvv
; 161  :     constexpr uintptr_t _Min_back_shift = sizeof(void*);
; 162  : #endif // _DEBUG
; 163  :     const uintptr_t _Back_shift = reinterpret_cast<uintptr_t>(_Ptr) - _Ptr_container;

  00078	2b c2		 sub	 eax, edx

; 164  :     _STL_VERIFY(_Back_shift >= _Min_back_shift && _Back_shift <= _Non_user_size, "invalid argument");

  0007a	83 c0 fc	 add	 eax, -4			; fffffffcH
  0007d	83 f8 1f	 cmp	 eax, 31			; 0000001fH
  00080	77 7b		 ja	 SHORT $LN73@CDynamicPo

; 165  :     _Ptr = reinterpret_cast<void*>(_Ptr_container);

  00082	8b c2		 mov	 eax, edx
$LN51@CDynamicPo:

; 255  :         ::operator delete(_Ptr, _Bytes);

  00084	51		 push	 ecx
  00085	50		 push	 eax
  00086	e8 00 00 00 00	 call	 ??3@YAXPAXI@Z		; operator delete
; File C:\Program Files\Microsoft Visual Studio\2022\Community\VC\Tools\MSVC\14.34.31933\include\vector

; 2112 :             _Myfirst = nullptr;

  0008b	c7 47 10 00 00
	00 00		 mov	 DWORD PTR [edi+16], 0
; File C:\Program Files\Microsoft Visual Studio\2022\Community\VC\Tools\MSVC\14.34.31933\include\xmemory

; 255  :         ::operator delete(_Ptr, _Bytes);

  00092	83 c4 08	 add	 esp, 8
; File C:\Program Files\Microsoft Visual Studio\2022\Community\VC\Tools\MSVC\14.34.31933\include\vector

; 2113 :             _Mylast  = nullptr;

  00095	c7 47 14 00 00
	00 00		 mov	 DWORD PTR [edi+20], 0

; 2114 :             _Myend   = nullptr;

  0009c	c7 47 18 00 00
	00 00		 mov	 DWORD PTR [edi+24], 0
$LN35@CDynamicPo:

; 2107 :         if (_Myfirst) { // destroy and deallocate old array

  000a3	8b 47 04	 mov	 eax, DWORD PTR [edi+4]
  000a6	85 c0		 test	 eax, eax
  000a8	74 41		 je	 SHORT $LN60@CDynamicPo

; 2108 :             _Destroy_range(_Myfirst, _Mylast, _Al);
; 2109 :             _ASAN_VECTOR_REMOVE;
; 2110 :             _Al.deallocate(_Myfirst, static_cast<size_type>(_Myend - _Myfirst));

  000aa	8b 4f 0c	 mov	 ecx, DWORD PTR [edi+12]
  000ad	2b c8		 sub	 ecx, eax
; File C:\Program Files\Microsoft Visual Studio\2022\Community\VC\Tools\MSVC\14.34.31933\include\xmemory

; 830  :         _Deallocate<_New_alignof<_Ty>>(_Ptr, sizeof(_Ty) * _Count);

  000af	83 e1 fc	 and	 ecx, -4			; fffffffcH

; 251  :         if (_Bytes >= _Big_allocation_threshold) { // boost the alignment of big allocations to help autovectorization

  000b2	81 f9 00 10 00
	00		 cmp	 ecx, 4096		; 00001000H
  000b8	72 12		 jb	 SHORT $LN76@CDynamicPo

; 150  :     const uintptr_t _Ptr_container   = _Ptr_user[-1];

  000ba	8b 50 fc	 mov	 edx, DWORD PTR [eax-4]
  000bd	83 c1 23	 add	 ecx, 35			; 00000023H

; 151  : 
; 152  :     // If the following asserts, it likely means that we are performing
; 153  :     // an aligned delete on memory coming from an unaligned allocation.
; 154  :     _STL_ASSERT(_Ptr_user[-2] == _Big_allocation_sentinel, "invalid argument");
; 155  : 
; 156  :     // Extra paranoia on aligned allocation/deallocation; ensure _Ptr_container is
; 157  :     // in range [_Min_back_shift, _Non_user_size]
; 158  : #ifdef _DEBUG
; 159  :     constexpr uintptr_t _Min_back_shift = 2 * sizeof(void*);
; 160  : #else // ^^^ _DEBUG ^^^ // vvv !_DEBUG vvv
; 161  :     constexpr uintptr_t _Min_back_shift = sizeof(void*);
; 162  : #endif // _DEBUG
; 163  :     const uintptr_t _Back_shift = reinterpret_cast<uintptr_t>(_Ptr) - _Ptr_container;

  000c0	2b c2		 sub	 eax, edx

; 164  :     _STL_VERIFY(_Back_shift >= _Min_back_shift && _Back_shift <= _Non_user_size, "invalid argument");

  000c2	83 c0 fc	 add	 eax, -4			; fffffffcH
  000c5	83 f8 1f	 cmp	 eax, 31			; 0000001fH
  000c8	77 33		 ja	 SHORT $LN73@CDynamicPo

; 165  :     _Ptr = reinterpret_cast<void*>(_Ptr_container);

  000ca	8b c2		 mov	 eax, edx
$LN76@CDynamicPo:

; 255  :         ::operator delete(_Ptr, _Bytes);

  000cc	51		 push	 ecx
  000cd	50		 push	 eax
  000ce	e8 00 00 00 00	 call	 ??3@YAXPAXI@Z		; operator delete
; File C:\Program Files\Microsoft Visual Studio\2022\Community\VC\Tools\MSVC\14.34.31933\include\vector

; 2112 :             _Myfirst = nullptr;

  000d3	c7 47 04 00 00
	00 00		 mov	 DWORD PTR [edi+4], 0
; File C:\Program Files\Microsoft Visual Studio\2022\Community\VC\Tools\MSVC\14.34.31933\include\xmemory

; 255  :         ::operator delete(_Ptr, _Bytes);

  000da	83 c4 08	 add	 esp, 8
; File C:\Program Files\Microsoft Visual Studio\2022\Community\VC\Tools\MSVC\14.34.31933\include\vector

; 2113 :             _Mylast  = nullptr;

  000dd	c7 47 08 00 00
	00 00		 mov	 DWORD PTR [edi+8], 0

; 2114 :             _Myend   = nullptr;

  000e4	c7 47 0c 00 00
	00 00		 mov	 DWORD PTR [edi+12], 0
$LN60@CDynamicPo:
; File C:\Users\flourine\Desktop\Xantios\client-src\Code\eterLib\Pool.h

; 146  : 	}

  000eb	8b 4d f4	 mov	 ecx, DWORD PTR __$EHRec$[ebp]
  000ee	64 89 0d 00 00
	00 00		 mov	 DWORD PTR fs:0, ecx
  000f5	59		 pop	 ecx
  000f6	5f		 pop	 edi
  000f7	5e		 pop	 esi
  000f8	5b		 pop	 ebx
  000f9	8b e5		 mov	 esp, ebp
  000fb	5d		 pop	 ebp
  000fc	c3		 ret	 0
$LN73@CDynamicPo:
; File C:\Program Files\Microsoft Visual Studio\2022\Community\VC\Tools\MSVC\14.34.31933\include\xmemory

; 164  :     _STL_VERIFY(_Back_shift >= _Min_back_shift && _Back_shift <= _Non_user_size, "invalid argument");

  000fd	e8 00 00 00 00	 call	 __invalid_parameter_noinfo_noreturn
$LN86@CDynamicPo:
  00102	cc		 int	 3
  00103	cc		 int	 3
  00104	cc		 int	 3
  00105	cc		 int	 3
  00106	cc		 int	 3
  00107	cc		 int	 3
_TEXT	ENDS
;	COMDAT text$x
text$x	SEGMENT
__ehhandler$??1?$CDynamicPoolEx@VCTextureAnimationCCWDecorator@NEffectUpdateDecorator@@@@UAE@XZ:
  00000	90		 npad	 1
  00001	90		 npad	 1
  00002	8b 54 24 08	 mov	 edx, DWORD PTR [esp+8]
  00006	8d 42 0c	 lea	 eax, DWORD PTR [edx+12]
  00009	8b 4a f0	 mov	 ecx, DWORD PTR [edx-16]
  0000c	33 c8		 xor	 ecx, eax
  0000e	e8 00 00 00 00	 call	 @__security_check_cookie@4
  00013	b8 00 00 00 00	 mov	 eax, OFFSET __ehfuncinfo$??1?$CDynamicPoolEx@VCTextureAnimationCCWDecorator@NEffectUpdateDecorator@@@@UAE@XZ
  00018	e9 00 00 00 00	 jmp	 ___CxxFrameHandler3
text$x	ENDS
??1?$CDynamicPoolEx@VCTextureAnimationCCWDecorator@NEffectUpdateDecorator@@@@UAE@XZ ENDP ; CDynamicPoolEx<NEffectUpdateDecorator::CTextureAnimationCCWDecorator>::~CDynamicPoolEx<NEffectUpdateDecorator::CTextureAnimationCCWDecorator>
; Function compile flags: /Ogtp
;	COMDAT ??_G?$CDynamicPoolEx@VCTextureAnimationRandomDecorator@NEffectUpdateDecorator@@@@UAEPAXI@Z
_TEXT	SEGMENT
___flags$ = 8						; size = 4
??_G?$CDynamicPoolEx@VCTextureAnimationRandomDecorator@NEffectUpdateDecorator@@@@UAEPAXI@Z PROC ; CDynamicPoolEx<NEffectUpdateDecorator::CTextureAnimationRandomDecorator>::`scalar deleting destructor', COMDAT
; _this$ = ecx
  00000	55		 push	 ebp
  00001	8b ec		 mov	 ebp, esp
  00003	56		 push	 esi
  00004	8b f1		 mov	 esi, ecx
  00006	e8 00 00 00 00	 call	 ??1?$CDynamicPoolEx@VCTextureAnimationRandomDecorator@NEffectUpdateDecorator@@@@UAE@XZ ; CDynamicPoolEx<NEffectUpdateDecorator::CTextureAnimationRandomDecorator>::~CDynamicPoolEx<NEffectUpdateDecorator::CTextureAnimationRandomDecorator>
  0000b	f6 45 08 01	 test	 BYTE PTR ___flags$[ebp], 1
  0000f	74 0b		 je	 SHORT $LN4@scalar
  00011	6a 24		 push	 36			; 00000024H
  00013	56		 push	 esi
  00014	e8 00 00 00 00	 call	 ??3@YAXPAXI@Z		; operator delete
  00019	83 c4 08	 add	 esp, 8
$LN4@scalar:
  0001c	8b c6		 mov	 eax, esi
  0001e	5e		 pop	 esi
  0001f	5d		 pop	 ebp
  00020	c2 04 00	 ret	 4
??_G?$CDynamicPoolEx@VCTextureAnimationRandomDecorator@NEffectUpdateDecorator@@@@UAEPAXI@Z ENDP ; CDynamicPoolEx<NEffectUpdateDecorator::CTextureAnimationRandomDecorator>::`scalar deleting destructor'
_TEXT	ENDS
; Function compile flags: /Ogtp
; File C:\Users\flourine\Desktop\Xantios\client-src\Code\eterLib\Pool.h
;	COMDAT ?Delete@?$CDynamicPoolEx@VCTextureAnimationRandomDecorator@NEffectUpdateDecorator@@@@KAXPAVCTextureAnimationRandomDecorator@NEffectUpdateDecorator@@@Z
_TEXT	SEGMENT
_pkData$ = 8						; size = 4
?Delete@?$CDynamicPoolEx@VCTextureAnimationRandomDecorator@NEffectUpdateDecorator@@@@KAXPAVCTextureAnimationRandomDecorator@NEffectUpdateDecorator@@@Z PROC ; CDynamicPoolEx<NEffectUpdateDecorator::CTextureAnimationRandomDecorator>::Delete, COMDAT

; 232  : 		::operator delete (pkData);

  00000	e9 00 00 00 00	 jmp	 ??3@YAXPAX@Z		; operator delete
?Delete@?$CDynamicPoolEx@VCTextureAnimationRandomDecorator@NEffectUpdateDecorator@@@@KAXPAVCTextureAnimationRandomDecorator@NEffectUpdateDecorator@@@Z ENDP ; CDynamicPoolEx<NEffectUpdateDecorator::CTextureAnimationRandomDecorator>::Delete
_TEXT	ENDS
; Function compile flags: /Ogtp
; File C:\Users\flourine\Desktop\Xantios\client-src\Code\eterLib\Pool.h
; File C:\Program Files\Microsoft Visual Studio\2022\Community\VC\Tools\MSVC\14.34.31933\include\vector
; File C:\Program Files\Microsoft Visual Studio\2022\Community\VC\Tools\MSVC\14.34.31933\include\algorithm
; File C:\Users\flourine\Desktop\Xantios\client-src\Code\eterLib\Pool.h
; File C:\Program Files\Microsoft Visual Studio\2022\Community\VC\Tools\MSVC\14.34.31933\include\algorithm
; File C:\Users\flourine\Desktop\Xantios\client-src\Code\eterLib\Pool.h
; File C:\Program Files\Microsoft Visual Studio\2022\Community\VC\Tools\MSVC\14.34.31933\include\algorithm
; File C:\Program Files\Microsoft Visual Studio\2022\Community\VC\Tools\MSVC\14.34.31933\include\vector
; File C:\Program Files\Microsoft Visual Studio\2022\Community\VC\Tools\MSVC\14.34.31933\include\xmemory
; File C:\Program Files\Microsoft Visual Studio\2022\Community\VC\Tools\MSVC\14.34.31933\include\vector
; File C:\Program Files\Microsoft Visual Studio\2022\Community\VC\Tools\MSVC\14.34.31933\include\xmemory
; File C:\Program Files\Microsoft Visual Studio\2022\Community\VC\Tools\MSVC\14.34.31933\include\vector
; File C:\Program Files\Microsoft Visual Studio\2022\Community\VC\Tools\MSVC\14.34.31933\include\xmemory
; File C:\Program Files\Microsoft Visual Studio\2022\Community\VC\Tools\MSVC\14.34.31933\include\vector
; File C:\Program Files\Microsoft Visual Studio\2022\Community\VC\Tools\MSVC\14.34.31933\include\xmemory
; File C:\Program Files\Microsoft Visual Studio\2022\Community\VC\Tools\MSVC\14.34.31933\include\vector
; File C:\Users\flourine\Desktop\Xantios\client-src\Code\eterLib\Pool.h
; File C:\Program Files\Microsoft Visual Studio\2022\Community\VC\Tools\MSVC\14.34.31933\include\xmemory
; File C:\Users\flourine\Desktop\Xantios\client-src\Code\eterLib\Pool.h
;	COMDAT ??1?$CDynamicPoolEx@VCTextureAnimationRandomDecorator@NEffectUpdateDecorator@@@@UAE@XZ
_TEXT	SEGMENT
__$EHRec$ = -12						; size = 12
??1?$CDynamicPoolEx@VCTextureAnimationRandomDecorator@NEffectUpdateDecorator@@@@UAE@XZ PROC ; CDynamicPoolEx<NEffectUpdateDecorator::CTextureAnimationRandomDecorator>::~CDynamicPoolEx<NEffectUpdateDecorator::CTextureAnimationRandomDecorator>, COMDAT
; _this$ = ecx

; 136  : 	{

  00000	55		 push	 ebp
  00001	8b ec		 mov	 ebp, esp
  00003	6a ff		 push	 -1
  00005	68 00 00 00 00	 push	 __ehhandler$??1?$CDynamicPoolEx@VCTextureAnimationRandomDecorator@NEffectUpdateDecorator@@@@UAE@XZ
  0000a	64 a1 00 00 00
	00		 mov	 eax, DWORD PTR fs:0
  00010	50		 push	 eax
  00011	53		 push	 ebx
  00012	56		 push	 esi
  00013	57		 push	 edi
  00014	a1 00 00 00 00	 mov	 eax, DWORD PTR ___security_cookie
  00019	33 c5		 xor	 eax, ebp
  0001b	50		 push	 eax
  0001c	8d 45 f4	 lea	 eax, DWORD PTR __$EHRec$[ebp]
  0001f	64 a3 00 00 00
	00		 mov	 DWORD PTR fs:0, eax
  00025	8b f9		 mov	 edi, ecx
  00027	c7 07 00 00 00
	00		 mov	 DWORD PTR [edi], OFFSET ??_7?$CDynamicPoolEx@VCTextureAnimationRandomDecorator@NEffectUpdateDecorator@@@@6B@
; File C:\Program Files\Microsoft Visual Studio\2022\Community\VC\Tools\MSVC\14.34.31933\include\vector

; 41   :     _CONSTEXPR20 _Vector_const_iterator(_Tptr _Parg, const _Container_base* _Pvector) noexcept : _Ptr(_Parg) {

  0002d	8b 5f 08	 mov	 ebx, DWORD PTR [edi+8]
; File C:\Program Files\Microsoft Visual Studio\2022\Community\VC\Tools\MSVC\14.34.31933\include\algorithm

; 265  :     for (; _UFirst != _ULast; ++_UFirst) {

  00030	8b 77 04	 mov	 esi, DWORD PTR [edi+4]
  00033	3b f3		 cmp	 esi, ebx
  00035	74 11		 je	 SHORT $LN19@CDynamicPo
$LL20@CDynamicPo:
; File C:\Users\flourine\Desktop\Xantios\client-src\Code\eterLib\Pool.h

; 232  : 		::operator delete (pkData);

  00037	ff 36		 push	 DWORD PTR [esi]
  00039	e8 00 00 00 00	 call	 ??3@YAXPAX@Z		; operator delete
; File C:\Program Files\Microsoft Visual Studio\2022\Community\VC\Tools\MSVC\14.34.31933\include\algorithm

; 265  :     for (; _UFirst != _ULast; ++_UFirst) {

  0003e	83 c6 04	 add	 esi, 4
; File C:\Users\flourine\Desktop\Xantios\client-src\Code\eterLib\Pool.h

; 232  : 		::operator delete (pkData);

  00041	83 c4 04	 add	 esp, 4
; File C:\Program Files\Microsoft Visual Studio\2022\Community\VC\Tools\MSVC\14.34.31933\include\algorithm

; 265  :     for (; _UFirst != _ULast; ++_UFirst) {

  00044	3b f3		 cmp	 esi, ebx
  00046	75 ef		 jne	 SHORT $LL20@CDynamicPo
$LN19@CDynamicPo:
; File C:\Program Files\Microsoft Visual Studio\2022\Community\VC\Tools\MSVC\14.34.31933\include\vector

; 1829 :         if (_Myfirst == _Mylast) { // already empty, nothing to do

  00048	8b 47 04	 mov	 eax, DWORD PTR [edi+4]
  0004b	3b 47 08	 cmp	 eax, DWORD PTR [edi+8]
  0004e	74 03		 je	 SHORT $LN26@CDynamicPo

; 1830 :             // This is an optimization for debug mode: we can avoid taking the debug lock to invalidate iterators.
; 1831 :             // Note that when clearing an empty vector, this will preserve past-the-end iterators, which is allowed by
; 1832 :             // N4901 [tab:container.seq.req] "a.clear() [...] may invalidate the past-the-end iterator".
; 1833 :             return;
; 1834 :         }
; 1835 : 
; 1836 :         _My_data._Orphan_all();
; 1837 :         _Destroy_range(_Myfirst, _Mylast, _Getal());
; 1838 :         _ASAN_VECTOR_MODIFY(static_cast<difference_type>(_Myfirst - _Mylast)); // negative when destroying elements
; 1839 :         _Mylast = _Myfirst;

  00050	89 47 08	 mov	 DWORD PTR [edi+8], eax
$LN26@CDynamicPo:

; 1829 :         if (_Myfirst == _Mylast) { // already empty, nothing to do

  00053	8b 47 10	 mov	 eax, DWORD PTR [edi+16]
  00056	3b 47 14	 cmp	 eax, DWORD PTR [edi+20]
  00059	74 03		 je	 SHORT $LN29@CDynamicPo

; 1830 :             // This is an optimization for debug mode: we can avoid taking the debug lock to invalidate iterators.
; 1831 :             // Note that when clearing an empty vector, this will preserve past-the-end iterators, which is allowed by
; 1832 :             // N4901 [tab:container.seq.req] "a.clear() [...] may invalidate the past-the-end iterator".
; 1833 :             return;
; 1834 :         }
; 1835 : 
; 1836 :         _My_data._Orphan_all();
; 1837 :         _Destroy_range(_Myfirst, _Mylast, _Getal());
; 1838 :         _ASAN_VECTOR_MODIFY(static_cast<difference_type>(_Myfirst - _Mylast)); // negative when destroying elements
; 1839 :         _Mylast = _Myfirst;

  0005b	89 47 14	 mov	 DWORD PTR [edi+20], eax
$LN29@CDynamicPo:

; 2107 :         if (_Myfirst) { // destroy and deallocate old array

  0005e	85 c0		 test	 eax, eax
  00060	74 41		 je	 SHORT $LN35@CDynamicPo

; 2108 :             _Destroy_range(_Myfirst, _Mylast, _Al);
; 2109 :             _ASAN_VECTOR_REMOVE;
; 2110 :             _Al.deallocate(_Myfirst, static_cast<size_type>(_Myend - _Myfirst));

  00062	8b 4f 18	 mov	 ecx, DWORD PTR [edi+24]
  00065	2b c8		 sub	 ecx, eax
; File C:\Program Files\Microsoft Visual Studio\2022\Community\VC\Tools\MSVC\14.34.31933\include\xmemory

; 830  :         _Deallocate<_New_alignof<_Ty>>(_Ptr, sizeof(_Ty) * _Count);

  00067	83 e1 fc	 and	 ecx, -4			; fffffffcH

; 251  :         if (_Bytes >= _Big_allocation_threshold) { // boost the alignment of big allocations to help autovectorization

  0006a	81 f9 00 10 00
	00		 cmp	 ecx, 4096		; 00001000H
  00070	72 12		 jb	 SHORT $LN51@CDynamicPo

; 150  :     const uintptr_t _Ptr_container   = _Ptr_user[-1];

  00072	8b 50 fc	 mov	 edx, DWORD PTR [eax-4]
  00075	83 c1 23	 add	 ecx, 35			; 00000023H

; 151  : 
; 152  :     // If the following asserts, it likely means that we are performing
; 153  :     // an aligned delete on memory coming from an unaligned allocation.
; 154  :     _STL_ASSERT(_Ptr_user[-2] == _Big_allocation_sentinel, "invalid argument");
; 155  : 
; 156  :     // Extra paranoia on aligned allocation/deallocation; ensure _Ptr_container is
; 157  :     // in range [_Min_back_shift, _Non_user_size]
; 158  : #ifdef _DEBUG
; 159  :     constexpr uintptr_t _Min_back_shift = 2 * sizeof(void*);
; 160  : #else // ^^^ _DEBUG ^^^ // vvv !_DEBUG vvv
; 161  :     constexpr uintptr_t _Min_back_shift = sizeof(void*);
; 162  : #endif // _DEBUG
; 163  :     const uintptr_t _Back_shift = reinterpret_cast<uintptr_t>(_Ptr) - _Ptr_container;

  00078	2b c2		 sub	 eax, edx

; 164  :     _STL_VERIFY(_Back_shift >= _Min_back_shift && _Back_shift <= _Non_user_size, "invalid argument");

  0007a	83 c0 fc	 add	 eax, -4			; fffffffcH
  0007d	83 f8 1f	 cmp	 eax, 31			; 0000001fH
  00080	77 7b		 ja	 SHORT $LN73@CDynamicPo

; 165  :     _Ptr = reinterpret_cast<void*>(_Ptr_container);

  00082	8b c2		 mov	 eax, edx
$LN51@CDynamicPo:

; 255  :         ::operator delete(_Ptr, _Bytes);

  00084	51		 push	 ecx
  00085	50		 push	 eax
  00086	e8 00 00 00 00	 call	 ??3@YAXPAXI@Z		; operator delete
; File C:\Program Files\Microsoft Visual Studio\2022\Community\VC\Tools\MSVC\14.34.31933\include\vector

; 2112 :             _Myfirst = nullptr;

  0008b	c7 47 10 00 00
	00 00		 mov	 DWORD PTR [edi+16], 0
; File C:\Program Files\Microsoft Visual Studio\2022\Community\VC\Tools\MSVC\14.34.31933\include\xmemory

; 255  :         ::operator delete(_Ptr, _Bytes);

  00092	83 c4 08	 add	 esp, 8
; File C:\Program Files\Microsoft Visual Studio\2022\Community\VC\Tools\MSVC\14.34.31933\include\vector

; 2113 :             _Mylast  = nullptr;

  00095	c7 47 14 00 00
	00 00		 mov	 DWORD PTR [edi+20], 0

; 2114 :             _Myend   = nullptr;

  0009c	c7 47 18 00 00
	00 00		 mov	 DWORD PTR [edi+24], 0
$LN35@CDynamicPo:

; 2107 :         if (_Myfirst) { // destroy and deallocate old array

  000a3	8b 47 04	 mov	 eax, DWORD PTR [edi+4]
  000a6	85 c0		 test	 eax, eax
  000a8	74 41		 je	 SHORT $LN60@CDynamicPo

; 2108 :             _Destroy_range(_Myfirst, _Mylast, _Al);
; 2109 :             _ASAN_VECTOR_REMOVE;
; 2110 :             _Al.deallocate(_Myfirst, static_cast<size_type>(_Myend - _Myfirst));

  000aa	8b 4f 0c	 mov	 ecx, DWORD PTR [edi+12]
  000ad	2b c8		 sub	 ecx, eax
; File C:\Program Files\Microsoft Visual Studio\2022\Community\VC\Tools\MSVC\14.34.31933\include\xmemory

; 830  :         _Deallocate<_New_alignof<_Ty>>(_Ptr, sizeof(_Ty) * _Count);

  000af	83 e1 fc	 and	 ecx, -4			; fffffffcH

; 251  :         if (_Bytes >= _Big_allocation_threshold) { // boost the alignment of big allocations to help autovectorization

  000b2	81 f9 00 10 00
	00		 cmp	 ecx, 4096		; 00001000H
  000b8	72 12		 jb	 SHORT $LN76@CDynamicPo

; 150  :     const uintptr_t _Ptr_container   = _Ptr_user[-1];

  000ba	8b 50 fc	 mov	 edx, DWORD PTR [eax-4]
  000bd	83 c1 23	 add	 ecx, 35			; 00000023H

; 151  : 
; 152  :     // If the following asserts, it likely means that we are performing
; 153  :     // an aligned delete on memory coming from an unaligned allocation.
; 154  :     _STL_ASSERT(_Ptr_user[-2] == _Big_allocation_sentinel, "invalid argument");
; 155  : 
; 156  :     // Extra paranoia on aligned allocation/deallocation; ensure _Ptr_container is
; 157  :     // in range [_Min_back_shift, _Non_user_size]
; 158  : #ifdef _DEBUG
; 159  :     constexpr uintptr_t _Min_back_shift = 2 * sizeof(void*);
; 160  : #else // ^^^ _DEBUG ^^^ // vvv !_DEBUG vvv
; 161  :     constexpr uintptr_t _Min_back_shift = sizeof(void*);
; 162  : #endif // _DEBUG
; 163  :     const uintptr_t _Back_shift = reinterpret_cast<uintptr_t>(_Ptr) - _Ptr_container;

  000c0	2b c2		 sub	 eax, edx

; 164  :     _STL_VERIFY(_Back_shift >= _Min_back_shift && _Back_shift <= _Non_user_size, "invalid argument");

  000c2	83 c0 fc	 add	 eax, -4			; fffffffcH
  000c5	83 f8 1f	 cmp	 eax, 31			; 0000001fH
  000c8	77 33		 ja	 SHORT $LN73@CDynamicPo

; 165  :     _Ptr = reinterpret_cast<void*>(_Ptr_container);

  000ca	8b c2		 mov	 eax, edx
$LN76@CDynamicPo:

; 255  :         ::operator delete(_Ptr, _Bytes);

  000cc	51		 push	 ecx
  000cd	50		 push	 eax
  000ce	e8 00 00 00 00	 call	 ??3@YAXPAXI@Z		; operator delete
; File C:\Program Files\Microsoft Visual Studio\2022\Community\VC\Tools\MSVC\14.34.31933\include\vector

; 2112 :             _Myfirst = nullptr;

  000d3	c7 47 04 00 00
	00 00		 mov	 DWORD PTR [edi+4], 0
; File C:\Program Files\Microsoft Visual Studio\2022\Community\VC\Tools\MSVC\14.34.31933\include\xmemory

; 255  :         ::operator delete(_Ptr, _Bytes);

  000da	83 c4 08	 add	 esp, 8
; File C:\Program Files\Microsoft Visual Studio\2022\Community\VC\Tools\MSVC\14.34.31933\include\vector

; 2113 :             _Mylast  = nullptr;

  000dd	c7 47 08 00 00
	00 00		 mov	 DWORD PTR [edi+8], 0

; 2114 :             _Myend   = nullptr;

  000e4	c7 47 0c 00 00
	00 00		 mov	 DWORD PTR [edi+12], 0
$LN60@CDynamicPo:
; File C:\Users\flourine\Desktop\Xantios\client-src\Code\eterLib\Pool.h

; 146  : 	}

  000eb	8b 4d f4	 mov	 ecx, DWORD PTR __$EHRec$[ebp]
  000ee	64 89 0d 00 00
	00 00		 mov	 DWORD PTR fs:0, ecx
  000f5	59		 pop	 ecx
  000f6	5f		 pop	 edi
  000f7	5e		 pop	 esi
  000f8	5b		 pop	 ebx
  000f9	8b e5		 mov	 esp, ebp
  000fb	5d		 pop	 ebp
  000fc	c3		 ret	 0
$LN73@CDynamicPo:
; File C:\Program Files\Microsoft Visual Studio\2022\Community\VC\Tools\MSVC\14.34.31933\include\xmemory

; 164  :     _STL_VERIFY(_Back_shift >= _Min_back_shift && _Back_shift <= _Non_user_size, "invalid argument");

  000fd	e8 00 00 00 00	 call	 __invalid_parameter_noinfo_noreturn
$LN86@CDynamicPo:
  00102	cc		 int	 3
  00103	cc		 int	 3
  00104	cc		 int	 3
  00105	cc		 int	 3
  00106	cc		 int	 3
  00107	cc		 int	 3
_TEXT	ENDS
;	COMDAT text$x
text$x	SEGMENT
__ehhandler$??1?$CDynamicPoolEx@VCTextureAnimationRandomDecorator@NEffectUpdateDecorator@@@@UAE@XZ:
  00000	90		 npad	 1
  00001	90		 npad	 1
  00002	8b 54 24 08	 mov	 edx, DWORD PTR [esp+8]
  00006	8d 42 0c	 lea	 eax, DWORD PTR [edx+12]
  00009	8b 4a f0	 mov	 ecx, DWORD PTR [edx-16]
  0000c	33 c8		 xor	 ecx, eax
  0000e	e8 00 00 00 00	 call	 @__security_check_cookie@4
  00013	b8 00 00 00 00	 mov	 eax, OFFSET __ehfuncinfo$??1?$CDynamicPoolEx@VCTextureAnimationRandomDecorator@NEffectUpdateDecorator@@@@UAE@XZ
  00018	e9 00 00 00 00	 jmp	 ___CxxFrameHandler3
text$x	ENDS
??1?$CDynamicPoolEx@VCTextureAnimationRandomDecorator@NEffectUpdateDecorator@@@@UAE@XZ ENDP ; CDynamicPoolEx<NEffectUpdateDecorator::CTextureAnimationRandomDecorator>::~CDynamicPoolEx<NEffectUpdateDecorator::CTextureAnimationRandomDecorator>
; Function compile flags: /Ogtp
;	COMDAT ??_G?$CDynamicPoolEx@VCAirResistanceDecorator@NEffectUpdateDecorator@@@@UAEPAXI@Z
_TEXT	SEGMENT
___flags$ = 8						; size = 4
??_G?$CDynamicPoolEx@VCAirResistanceDecorator@NEffectUpdateDecorator@@@@UAEPAXI@Z PROC ; CDynamicPoolEx<NEffectUpdateDecorator::CAirResistanceDecorator>::`scalar deleting destructor', COMDAT
; _this$ = ecx
  00000	55		 push	 ebp
  00001	8b ec		 mov	 ebp, esp
  00003	56		 push	 esi
  00004	8b f1		 mov	 esi, ecx
  00006	e8 00 00 00 00	 call	 ??1?$CDynamicPoolEx@VCAirResistanceDecorator@NEffectUpdateDecorator@@@@UAE@XZ ; CDynamicPoolEx<NEffectUpdateDecorator::CAirResistanceDecorator>::~CDynamicPoolEx<NEffectUpdateDecorator::CAirResistanceDecorator>
  0000b	f6 45 08 01	 test	 BYTE PTR ___flags$[ebp], 1
  0000f	74 0b		 je	 SHORT $LN4@scalar
  00011	6a 24		 push	 36			; 00000024H
  00013	56		 push	 esi
  00014	e8 00 00 00 00	 call	 ??3@YAXPAXI@Z		; operator delete
  00019	83 c4 08	 add	 esp, 8
$LN4@scalar:
  0001c	8b c6		 mov	 eax, esi
  0001e	5e		 pop	 esi
  0001f	5d		 pop	 ebp
  00020	c2 04 00	 ret	 4
??_G?$CDynamicPoolEx@VCAirResistanceDecorator@NEffectUpdateDecorator@@@@UAEPAXI@Z ENDP ; CDynamicPoolEx<NEffectUpdateDecorator::CAirResistanceDecorator>::`scalar deleting destructor'
_TEXT	ENDS
; Function compile flags: /Ogtp
; File C:\Users\flourine\Desktop\Xantios\client-src\Code\eterLib\Pool.h
;	COMDAT ?Delete@?$CDynamicPoolEx@VCAirResistanceDecorator@NEffectUpdateDecorator@@@@KAXPAVCAirResistanceDecorator@NEffectUpdateDecorator@@@Z
_TEXT	SEGMENT
_pkData$ = 8						; size = 4
?Delete@?$CDynamicPoolEx@VCAirResistanceDecorator@NEffectUpdateDecorator@@@@KAXPAVCAirResistanceDecorator@NEffectUpdateDecorator@@@Z PROC ; CDynamicPoolEx<NEffectUpdateDecorator::CAirResistanceDecorator>::Delete, COMDAT

; 232  : 		::operator delete (pkData);

  00000	e9 00 00 00 00	 jmp	 ??3@YAXPAX@Z		; operator delete
?Delete@?$CDynamicPoolEx@VCAirResistanceDecorator@NEffectUpdateDecorator@@@@KAXPAVCAirResistanceDecorator@NEffectUpdateDecorator@@@Z ENDP ; CDynamicPoolEx<NEffectUpdateDecorator::CAirResistanceDecorator>::Delete
_TEXT	ENDS
; Function compile flags: /Ogtp
; File C:\Users\flourine\Desktop\Xantios\client-src\Code\eterLib\Pool.h
; File C:\Program Files\Microsoft Visual Studio\2022\Community\VC\Tools\MSVC\14.34.31933\include\vector
; File C:\Program Files\Microsoft Visual Studio\2022\Community\VC\Tools\MSVC\14.34.31933\include\algorithm
; File C:\Users\flourine\Desktop\Xantios\client-src\Code\eterLib\Pool.h
; File C:\Program Files\Microsoft Visual Studio\2022\Community\VC\Tools\MSVC\14.34.31933\include\algorithm
; File C:\Users\flourine\Desktop\Xantios\client-src\Code\eterLib\Pool.h
; File C:\Program Files\Microsoft Visual Studio\2022\Community\VC\Tools\MSVC\14.34.31933\include\algorithm
; File C:\Program Files\Microsoft Visual Studio\2022\Community\VC\Tools\MSVC\14.34.31933\include\vector
; File C:\Program Files\Microsoft Visual Studio\2022\Community\VC\Tools\MSVC\14.34.31933\include\xmemory
; File C:\Program Files\Microsoft Visual Studio\2022\Community\VC\Tools\MSVC\14.34.31933\include\vector
; File C:\Program Files\Microsoft Visual Studio\2022\Community\VC\Tools\MSVC\14.34.31933\include\xmemory
; File C:\Program Files\Microsoft Visual Studio\2022\Community\VC\Tools\MSVC\14.34.31933\include\vector
; File C:\Program Files\Microsoft Visual Studio\2022\Community\VC\Tools\MSVC\14.34.31933\include\xmemory
; File C:\Program Files\Microsoft Visual Studio\2022\Community\VC\Tools\MSVC\14.34.31933\include\vector
; File C:\Program Files\Microsoft Visual Studio\2022\Community\VC\Tools\MSVC\14.34.31933\include\xmemory
; File C:\Program Files\Microsoft Visual Studio\2022\Community\VC\Tools\MSVC\14.34.31933\include\vector
; File C:\Users\flourine\Desktop\Xantios\client-src\Code\eterLib\Pool.h
; File C:\Program Files\Microsoft Visual Studio\2022\Community\VC\Tools\MSVC\14.34.31933\include\xmemory
; File C:\Users\flourine\Desktop\Xantios\client-src\Code\eterLib\Pool.h
;	COMDAT ??1?$CDynamicPoolEx@VCAirResistanceDecorator@NEffectUpdateDecorator@@@@UAE@XZ
_TEXT	SEGMENT
__$EHRec$ = -12						; size = 12
??1?$CDynamicPoolEx@VCAirResistanceDecorator@NEffectUpdateDecorator@@@@UAE@XZ PROC ; CDynamicPoolEx<NEffectUpdateDecorator::CAirResistanceDecorator>::~CDynamicPoolEx<NEffectUpdateDecorator::CAirResistanceDecorator>, COMDAT
; _this$ = ecx

; 136  : 	{

  00000	55		 push	 ebp
  00001	8b ec		 mov	 ebp, esp
  00003	6a ff		 push	 -1
  00005	68 00 00 00 00	 push	 __ehhandler$??1?$CDynamicPoolEx@VCAirResistanceDecorator@NEffectUpdateDecorator@@@@UAE@XZ
  0000a	64 a1 00 00 00
	00		 mov	 eax, DWORD PTR fs:0
  00010	50		 push	 eax
  00011	53		 push	 ebx
  00012	56		 push	 esi
  00013	57		 push	 edi
  00014	a1 00 00 00 00	 mov	 eax, DWORD PTR ___security_cookie
  00019	33 c5		 xor	 eax, ebp
  0001b	50		 push	 eax
  0001c	8d 45 f4	 lea	 eax, DWORD PTR __$EHRec$[ebp]
  0001f	64 a3 00 00 00
	00		 mov	 DWORD PTR fs:0, eax
  00025	8b f9		 mov	 edi, ecx
  00027	c7 07 00 00 00
	00		 mov	 DWORD PTR [edi], OFFSET ??_7?$CDynamicPoolEx@VCAirResistanceDecorator@NEffectUpdateDecorator@@@@6B@
; File C:\Program Files\Microsoft Visual Studio\2022\Community\VC\Tools\MSVC\14.34.31933\include\vector

; 41   :     _CONSTEXPR20 _Vector_const_iterator(_Tptr _Parg, const _Container_base* _Pvector) noexcept : _Ptr(_Parg) {

  0002d	8b 5f 08	 mov	 ebx, DWORD PTR [edi+8]
; File C:\Program Files\Microsoft Visual Studio\2022\Community\VC\Tools\MSVC\14.34.31933\include\algorithm

; 265  :     for (; _UFirst != _ULast; ++_UFirst) {

  00030	8b 77 04	 mov	 esi, DWORD PTR [edi+4]
  00033	3b f3		 cmp	 esi, ebx
  00035	74 11		 je	 SHORT $LN19@CDynamicPo
$LL20@CDynamicPo:
; File C:\Users\flourine\Desktop\Xantios\client-src\Code\eterLib\Pool.h

; 232  : 		::operator delete (pkData);

  00037	ff 36		 push	 DWORD PTR [esi]
  00039	e8 00 00 00 00	 call	 ??3@YAXPAX@Z		; operator delete
; File C:\Program Files\Microsoft Visual Studio\2022\Community\VC\Tools\MSVC\14.34.31933\include\algorithm

; 265  :     for (; _UFirst != _ULast; ++_UFirst) {

  0003e	83 c6 04	 add	 esi, 4
; File C:\Users\flourine\Desktop\Xantios\client-src\Code\eterLib\Pool.h

; 232  : 		::operator delete (pkData);

  00041	83 c4 04	 add	 esp, 4
; File C:\Program Files\Microsoft Visual Studio\2022\Community\VC\Tools\MSVC\14.34.31933\include\algorithm

; 265  :     for (; _UFirst != _ULast; ++_UFirst) {

  00044	3b f3		 cmp	 esi, ebx
  00046	75 ef		 jne	 SHORT $LL20@CDynamicPo
$LN19@CDynamicPo:
; File C:\Program Files\Microsoft Visual Studio\2022\Community\VC\Tools\MSVC\14.34.31933\include\vector

; 1829 :         if (_Myfirst == _Mylast) { // already empty, nothing to do

  00048	8b 47 04	 mov	 eax, DWORD PTR [edi+4]
  0004b	3b 47 08	 cmp	 eax, DWORD PTR [edi+8]
  0004e	74 03		 je	 SHORT $LN26@CDynamicPo

; 1830 :             // This is an optimization for debug mode: we can avoid taking the debug lock to invalidate iterators.
; 1831 :             // Note that when clearing an empty vector, this will preserve past-the-end iterators, which is allowed by
; 1832 :             // N4901 [tab:container.seq.req] "a.clear() [...] may invalidate the past-the-end iterator".
; 1833 :             return;
; 1834 :         }
; 1835 : 
; 1836 :         _My_data._Orphan_all();
; 1837 :         _Destroy_range(_Myfirst, _Mylast, _Getal());
; 1838 :         _ASAN_VECTOR_MODIFY(static_cast<difference_type>(_Myfirst - _Mylast)); // negative when destroying elements
; 1839 :         _Mylast = _Myfirst;

  00050	89 47 08	 mov	 DWORD PTR [edi+8], eax
$LN26@CDynamicPo:

; 1829 :         if (_Myfirst == _Mylast) { // already empty, nothing to do

  00053	8b 47 10	 mov	 eax, DWORD PTR [edi+16]
  00056	3b 47 14	 cmp	 eax, DWORD PTR [edi+20]
  00059	74 03		 je	 SHORT $LN29@CDynamicPo

; 1830 :             // This is an optimization for debug mode: we can avoid taking the debug lock to invalidate iterators.
; 1831 :             // Note that when clearing an empty vector, this will preserve past-the-end iterators, which is allowed by
; 1832 :             // N4901 [tab:container.seq.req] "a.clear() [...] may invalidate the past-the-end iterator".
; 1833 :             return;
; 1834 :         }
; 1835 : 
; 1836 :         _My_data._Orphan_all();
; 1837 :         _Destroy_range(_Myfirst, _Mylast, _Getal());
; 1838 :         _ASAN_VECTOR_MODIFY(static_cast<difference_type>(_Myfirst - _Mylast)); // negative when destroying elements
; 1839 :         _Mylast = _Myfirst;

  0005b	89 47 14	 mov	 DWORD PTR [edi+20], eax
$LN29@CDynamicPo:

; 2107 :         if (_Myfirst) { // destroy and deallocate old array

  0005e	85 c0		 test	 eax, eax
  00060	74 41		 je	 SHORT $LN35@CDynamicPo

; 2108 :             _Destroy_range(_Myfirst, _Mylast, _Al);
; 2109 :             _ASAN_VECTOR_REMOVE;
; 2110 :             _Al.deallocate(_Myfirst, static_cast<size_type>(_Myend - _Myfirst));

  00062	8b 4f 18	 mov	 ecx, DWORD PTR [edi+24]
  00065	2b c8		 sub	 ecx, eax
; File C:\Program Files\Microsoft Visual Studio\2022\Community\VC\Tools\MSVC\14.34.31933\include\xmemory

; 830  :         _Deallocate<_New_alignof<_Ty>>(_Ptr, sizeof(_Ty) * _Count);

  00067	83 e1 fc	 and	 ecx, -4			; fffffffcH

; 251  :         if (_Bytes >= _Big_allocation_threshold) { // boost the alignment of big allocations to help autovectorization

  0006a	81 f9 00 10 00
	00		 cmp	 ecx, 4096		; 00001000H
  00070	72 12		 jb	 SHORT $LN51@CDynamicPo

; 150  :     const uintptr_t _Ptr_container   = _Ptr_user[-1];

  00072	8b 50 fc	 mov	 edx, DWORD PTR [eax-4]
  00075	83 c1 23	 add	 ecx, 35			; 00000023H

; 151  : 
; 152  :     // If the following asserts, it likely means that we are performing
; 153  :     // an aligned delete on memory coming from an unaligned allocation.
; 154  :     _STL_ASSERT(_Ptr_user[-2] == _Big_allocation_sentinel, "invalid argument");
; 155  : 
; 156  :     // Extra paranoia on aligned allocation/deallocation; ensure _Ptr_container is
; 157  :     // in range [_Min_back_shift, _Non_user_size]
; 158  : #ifdef _DEBUG
; 159  :     constexpr uintptr_t _Min_back_shift = 2 * sizeof(void*);
; 160  : #else // ^^^ _DEBUG ^^^ // vvv !_DEBUG vvv
; 161  :     constexpr uintptr_t _Min_back_shift = sizeof(void*);
; 162  : #endif // _DEBUG
; 163  :     const uintptr_t _Back_shift = reinterpret_cast<uintptr_t>(_Ptr) - _Ptr_container;

  00078	2b c2		 sub	 eax, edx

; 164  :     _STL_VERIFY(_Back_shift >= _Min_back_shift && _Back_shift <= _Non_user_size, "invalid argument");

  0007a	83 c0 fc	 add	 eax, -4			; fffffffcH
  0007d	83 f8 1f	 cmp	 eax, 31			; 0000001fH
  00080	77 7b		 ja	 SHORT $LN73@CDynamicPo

; 165  :     _Ptr = reinterpret_cast<void*>(_Ptr_container);

  00082	8b c2		 mov	 eax, edx
$LN51@CDynamicPo:

; 255  :         ::operator delete(_Ptr, _Bytes);

  00084	51		 push	 ecx
  00085	50		 push	 eax
  00086	e8 00 00 00 00	 call	 ??3@YAXPAXI@Z		; operator delete
; File C:\Program Files\Microsoft Visual Studio\2022\Community\VC\Tools\MSVC\14.34.31933\include\vector

; 2112 :             _Myfirst = nullptr;

  0008b	c7 47 10 00 00
	00 00		 mov	 DWORD PTR [edi+16], 0
; File C:\Program Files\Microsoft Visual Studio\2022\Community\VC\Tools\MSVC\14.34.31933\include\xmemory

; 255  :         ::operator delete(_Ptr, _Bytes);

  00092	83 c4 08	 add	 esp, 8
; File C:\Program Files\Microsoft Visual Studio\2022\Community\VC\Tools\MSVC\14.34.31933\include\vector

; 2113 :             _Mylast  = nullptr;

  00095	c7 47 14 00 00
	00 00		 mov	 DWORD PTR [edi+20], 0

; 2114 :             _Myend   = nullptr;

  0009c	c7 47 18 00 00
	00 00		 mov	 DWORD PTR [edi+24], 0
$LN35@CDynamicPo:

; 2107 :         if (_Myfirst) { // destroy and deallocate old array

  000a3	8b 47 04	 mov	 eax, DWORD PTR [edi+4]
  000a6	85 c0		 test	 eax, eax
  000a8	74 41		 je	 SHORT $LN60@CDynamicPo

; 2108 :             _Destroy_range(_Myfirst, _Mylast, _Al);
; 2109 :             _ASAN_VECTOR_REMOVE;
; 2110 :             _Al.deallocate(_Myfirst, static_cast<size_type>(_Myend - _Myfirst));

  000aa	8b 4f 0c	 mov	 ecx, DWORD PTR [edi+12]
  000ad	2b c8		 sub	 ecx, eax
; File C:\Program Files\Microsoft Visual Studio\2022\Community\VC\Tools\MSVC\14.34.31933\include\xmemory

; 830  :         _Deallocate<_New_alignof<_Ty>>(_Ptr, sizeof(_Ty) * _Count);

  000af	83 e1 fc	 and	 ecx, -4			; fffffffcH

; 251  :         if (_Bytes >= _Big_allocation_threshold) { // boost the alignment of big allocations to help autovectorization

  000b2	81 f9 00 10 00
	00		 cmp	 ecx, 4096		; 00001000H
  000b8	72 12		 jb	 SHORT $LN76@CDynamicPo

; 150  :     const uintptr_t _Ptr_container   = _Ptr_user[-1];

  000ba	8b 50 fc	 mov	 edx, DWORD PTR [eax-4]
  000bd	83 c1 23	 add	 ecx, 35			; 00000023H

; 151  : 
; 152  :     // If the following asserts, it likely means that we are performing
; 153  :     // an aligned delete on memory coming from an unaligned allocation.
; 154  :     _STL_ASSERT(_Ptr_user[-2] == _Big_allocation_sentinel, "invalid argument");
; 155  : 
; 156  :     // Extra paranoia on aligned allocation/deallocation; ensure _Ptr_container is
; 157  :     // in range [_Min_back_shift, _Non_user_size]
; 158  : #ifdef _DEBUG
; 159  :     constexpr uintptr_t _Min_back_shift = 2 * sizeof(void*);
; 160  : #else // ^^^ _DEBUG ^^^ // vvv !_DEBUG vvv
; 161  :     constexpr uintptr_t _Min_back_shift = sizeof(void*);
; 162  : #endif // _DEBUG
; 163  :     const uintptr_t _Back_shift = reinterpret_cast<uintptr_t>(_Ptr) - _Ptr_container;

  000c0	2b c2		 sub	 eax, edx

; 164  :     _STL_VERIFY(_Back_shift >= _Min_back_shift && _Back_shift <= _Non_user_size, "invalid argument");

  000c2	83 c0 fc	 add	 eax, -4			; fffffffcH
  000c5	83 f8 1f	 cmp	 eax, 31			; 0000001fH
  000c8	77 33		 ja	 SHORT $LN73@CDynamicPo

; 165  :     _Ptr = reinterpret_cast<void*>(_Ptr_container);

  000ca	8b c2		 mov	 eax, edx
$LN76@CDynamicPo:

; 255  :         ::operator delete(_Ptr, _Bytes);

  000cc	51		 push	 ecx
  000cd	50		 push	 eax
  000ce	e8 00 00 00 00	 call	 ??3@YAXPAXI@Z		; operator delete
; File C:\Program Files\Microsoft Visual Studio\2022\Community\VC\Tools\MSVC\14.34.31933\include\vector

; 2112 :             _Myfirst = nullptr;

  000d3	c7 47 04 00 00
	00 00		 mov	 DWORD PTR [edi+4], 0
; File C:\Program Files\Microsoft Visual Studio\2022\Community\VC\Tools\MSVC\14.34.31933\include\xmemory

; 255  :         ::operator delete(_Ptr, _Bytes);

  000da	83 c4 08	 add	 esp, 8
; File C:\Program Files\Microsoft Visual Studio\2022\Community\VC\Tools\MSVC\14.34.31933\include\vector

; 2113 :             _Mylast  = nullptr;

  000dd	c7 47 08 00 00
	00 00		 mov	 DWORD PTR [edi+8], 0

; 2114 :             _Myend   = nullptr;

  000e4	c7 47 0c 00 00
	00 00		 mov	 DWORD PTR [edi+12], 0
$LN60@CDynamicPo:
; File C:\Users\flourine\Desktop\Xantios\client-src\Code\eterLib\Pool.h

; 146  : 	}

  000eb	8b 4d f4	 mov	 ecx, DWORD PTR __$EHRec$[ebp]
  000ee	64 89 0d 00 00
	00 00		 mov	 DWORD PTR fs:0, ecx
  000f5	59		 pop	 ecx
  000f6	5f		 pop	 edi
  000f7	5e		 pop	 esi
  000f8	5b		 pop	 ebx
  000f9	8b e5		 mov	 esp, ebp
  000fb	5d		 pop	 ebp
  000fc	c3		 ret	 0
$LN73@CDynamicPo:
; File C:\Program Files\Microsoft Visual Studio\2022\Community\VC\Tools\MSVC\14.34.31933\include\xmemory

; 164  :     _STL_VERIFY(_Back_shift >= _Min_back_shift && _Back_shift <= _Non_user_size, "invalid argument");

  000fd	e8 00 00 00 00	 call	 __invalid_parameter_noinfo_noreturn
$LN86@CDynamicPo:
  00102	cc		 int	 3
  00103	cc		 int	 3
  00104	cc		 int	 3
  00105	cc		 int	 3
  00106	cc		 int	 3
  00107	cc		 int	 3
_TEXT	ENDS
;	COMDAT text$x
text$x	SEGMENT
__ehhandler$??1?$CDynamicPoolEx@VCAirResistanceDecorator@NEffectUpdateDecorator@@@@UAE@XZ:
  00000	90		 npad	 1
  00001	90		 npad	 1
  00002	8b 54 24 08	 mov	 edx, DWORD PTR [esp+8]
  00006	8d 42 0c	 lea	 eax, DWORD PTR [edx+12]
  00009	8b 4a f0	 mov	 ecx, DWORD PTR [edx-16]
  0000c	33 c8		 xor	 ecx, eax
  0000e	e8 00 00 00 00	 call	 @__security_check_cookie@4
  00013	b8 00 00 00 00	 mov	 eax, OFFSET __ehfuncinfo$??1?$CDynamicPoolEx@VCAirResistanceDecorator@NEffectUpdateDecorator@@@@UAE@XZ
  00018	e9 00 00 00 00	 jmp	 ___CxxFrameHandler3
text$x	ENDS
??1?$CDynamicPoolEx@VCAirResistanceDecorator@NEffectUpdateDecorator@@@@UAE@XZ ENDP ; CDynamicPoolEx<NEffectUpdateDecorator::CAirResistanceDecorator>::~CDynamicPoolEx<NEffectUpdateDecorator::CAirResistanceDecorator>
; Function compile flags: /Ogtp
;	COMDAT ??_G?$CDynamicPoolEx@VCGravityDecorator@NEffectUpdateDecorator@@@@UAEPAXI@Z
_TEXT	SEGMENT
___flags$ = 8						; size = 4
??_G?$CDynamicPoolEx@VCGravityDecorator@NEffectUpdateDecorator@@@@UAEPAXI@Z PROC ; CDynamicPoolEx<NEffectUpdateDecorator::CGravityDecorator>::`scalar deleting destructor', COMDAT
; _this$ = ecx
  00000	55		 push	 ebp
  00001	8b ec		 mov	 ebp, esp
  00003	56		 push	 esi
  00004	8b f1		 mov	 esi, ecx
  00006	e8 00 00 00 00	 call	 ??1?$CDynamicPoolEx@VCGravityDecorator@NEffectUpdateDecorator@@@@UAE@XZ ; CDynamicPoolEx<NEffectUpdateDecorator::CGravityDecorator>::~CDynamicPoolEx<NEffectUpdateDecorator::CGravityDecorator>
  0000b	f6 45 08 01	 test	 BYTE PTR ___flags$[ebp], 1
  0000f	74 0b		 je	 SHORT $LN4@scalar
  00011	6a 24		 push	 36			; 00000024H
  00013	56		 push	 esi
  00014	e8 00 00 00 00	 call	 ??3@YAXPAXI@Z		; operator delete
  00019	83 c4 08	 add	 esp, 8
$LN4@scalar:
  0001c	8b c6		 mov	 eax, esi
  0001e	5e		 pop	 esi
  0001f	5d		 pop	 ebp
  00020	c2 04 00	 ret	 4
??_G?$CDynamicPoolEx@VCGravityDecorator@NEffectUpdateDecorator@@@@UAEPAXI@Z ENDP ; CDynamicPoolEx<NEffectUpdateDecorator::CGravityDecorator>::`scalar deleting destructor'
_TEXT	ENDS
; Function compile flags: /Ogtp
; File C:\Users\flourine\Desktop\Xantios\client-src\Code\eterLib\Pool.h
;	COMDAT ?Delete@?$CDynamicPoolEx@VCGravityDecorator@NEffectUpdateDecorator@@@@KAXPAVCGravityDecorator@NEffectUpdateDecorator@@@Z
_TEXT	SEGMENT
_pkData$ = 8						; size = 4
?Delete@?$CDynamicPoolEx@VCGravityDecorator@NEffectUpdateDecorator@@@@KAXPAVCGravityDecorator@NEffectUpdateDecorator@@@Z PROC ; CDynamicPoolEx<NEffectUpdateDecorator::CGravityDecorator>::Delete, COMDAT

; 232  : 		::operator delete (pkData);

  00000	e9 00 00 00 00	 jmp	 ??3@YAXPAX@Z		; operator delete
?Delete@?$CDynamicPoolEx@VCGravityDecorator@NEffectUpdateDecorator@@@@KAXPAVCGravityDecorator@NEffectUpdateDecorator@@@Z ENDP ; CDynamicPoolEx<NEffectUpdateDecorator::CGravityDecorator>::Delete
_TEXT	ENDS
; Function compile flags: /Ogtp
; File C:\Users\flourine\Desktop\Xantios\client-src\Code\eterLib\Pool.h
; File C:\Program Files\Microsoft Visual Studio\2022\Community\VC\Tools\MSVC\14.34.31933\include\vector
; File C:\Program Files\Microsoft Visual Studio\2022\Community\VC\Tools\MSVC\14.34.31933\include\algorithm
; File C:\Users\flourine\Desktop\Xantios\client-src\Code\eterLib\Pool.h
; File C:\Program Files\Microsoft Visual Studio\2022\Community\VC\Tools\MSVC\14.34.31933\include\algorithm
; File C:\Users\flourine\Desktop\Xantios\client-src\Code\eterLib\Pool.h
; File C:\Program Files\Microsoft Visual Studio\2022\Community\VC\Tools\MSVC\14.34.31933\include\algorithm
; File C:\Program Files\Microsoft Visual Studio\2022\Community\VC\Tools\MSVC\14.34.31933\include\vector
; File C:\Program Files\Microsoft Visual Studio\2022\Community\VC\Tools\MSVC\14.34.31933\include\xmemory
; File C:\Program Files\Microsoft Visual Studio\2022\Community\VC\Tools\MSVC\14.34.31933\include\vector
; File C:\Program Files\Microsoft Visual Studio\2022\Community\VC\Tools\MSVC\14.34.31933\include\xmemory
; File C:\Program Files\Microsoft Visual Studio\2022\Community\VC\Tools\MSVC\14.34.31933\include\vector
; File C:\Program Files\Microsoft Visual Studio\2022\Community\VC\Tools\MSVC\14.34.31933\include\xmemory
; File C:\Program Files\Microsoft Visual Studio\2022\Community\VC\Tools\MSVC\14.34.31933\include\vector
; File C:\Program Files\Microsoft Visual Studio\2022\Community\VC\Tools\MSVC\14.34.31933\include\xmemory
; File C:\Program Files\Microsoft Visual Studio\2022\Community\VC\Tools\MSVC\14.34.31933\include\vector
; File C:\Users\flourine\Desktop\Xantios\client-src\Code\eterLib\Pool.h
; File C:\Program Files\Microsoft Visual Studio\2022\Community\VC\Tools\MSVC\14.34.31933\include\xmemory
; File C:\Users\flourine\Desktop\Xantios\client-src\Code\eterLib\Pool.h
;	COMDAT ??1?$CDynamicPoolEx@VCGravityDecorator@NEffectUpdateDecorator@@@@UAE@XZ
_TEXT	SEGMENT
__$EHRec$ = -12						; size = 12
??1?$CDynamicPoolEx@VCGravityDecorator@NEffectUpdateDecorator@@@@UAE@XZ PROC ; CDynamicPoolEx<NEffectUpdateDecorator::CGravityDecorator>::~CDynamicPoolEx<NEffectUpdateDecorator::CGravityDecorator>, COMDAT
; _this$ = ecx

; 136  : 	{

  00000	55		 push	 ebp
  00001	8b ec		 mov	 ebp, esp
  00003	6a ff		 push	 -1
  00005	68 00 00 00 00	 push	 __ehhandler$??1?$CDynamicPoolEx@VCGravityDecorator@NEffectUpdateDecorator@@@@UAE@XZ
  0000a	64 a1 00 00 00
	00		 mov	 eax, DWORD PTR fs:0
  00010	50		 push	 eax
  00011	53		 push	 ebx
  00012	56		 push	 esi
  00013	57		 push	 edi
  00014	a1 00 00 00 00	 mov	 eax, DWORD PTR ___security_cookie
  00019	33 c5		 xor	 eax, ebp
  0001b	50		 push	 eax
  0001c	8d 45 f4	 lea	 eax, DWORD PTR __$EHRec$[ebp]
  0001f	64 a3 00 00 00
	00		 mov	 DWORD PTR fs:0, eax
  00025	8b f9		 mov	 edi, ecx
  00027	c7 07 00 00 00
	00		 mov	 DWORD PTR [edi], OFFSET ??_7?$CDynamicPoolEx@VCGravityDecorator@NEffectUpdateDecorator@@@@6B@
; File C:\Program Files\Microsoft Visual Studio\2022\Community\VC\Tools\MSVC\14.34.31933\include\vector

; 41   :     _CONSTEXPR20 _Vector_const_iterator(_Tptr _Parg, const _Container_base* _Pvector) noexcept : _Ptr(_Parg) {

  0002d	8b 5f 08	 mov	 ebx, DWORD PTR [edi+8]
; File C:\Program Files\Microsoft Visual Studio\2022\Community\VC\Tools\MSVC\14.34.31933\include\algorithm

; 265  :     for (; _UFirst != _ULast; ++_UFirst) {

  00030	8b 77 04	 mov	 esi, DWORD PTR [edi+4]
  00033	3b f3		 cmp	 esi, ebx
  00035	74 11		 je	 SHORT $LN19@CDynamicPo
$LL20@CDynamicPo:
; File C:\Users\flourine\Desktop\Xantios\client-src\Code\eterLib\Pool.h

; 232  : 		::operator delete (pkData);

  00037	ff 36		 push	 DWORD PTR [esi]
  00039	e8 00 00 00 00	 call	 ??3@YAXPAX@Z		; operator delete
; File C:\Program Files\Microsoft Visual Studio\2022\Community\VC\Tools\MSVC\14.34.31933\include\algorithm

; 265  :     for (; _UFirst != _ULast; ++_UFirst) {

  0003e	83 c6 04	 add	 esi, 4
; File C:\Users\flourine\Desktop\Xantios\client-src\Code\eterLib\Pool.h

; 232  : 		::operator delete (pkData);

  00041	83 c4 04	 add	 esp, 4
; File C:\Program Files\Microsoft Visual Studio\2022\Community\VC\Tools\MSVC\14.34.31933\include\algorithm

; 265  :     for (; _UFirst != _ULast; ++_UFirst) {

  00044	3b f3		 cmp	 esi, ebx
  00046	75 ef		 jne	 SHORT $LL20@CDynamicPo
$LN19@CDynamicPo:
; File C:\Program Files\Microsoft Visual Studio\2022\Community\VC\Tools\MSVC\14.34.31933\include\vector

; 1829 :         if (_Myfirst == _Mylast) { // already empty, nothing to do

  00048	8b 47 04	 mov	 eax, DWORD PTR [edi+4]
  0004b	3b 47 08	 cmp	 eax, DWORD PTR [edi+8]
  0004e	74 03		 je	 SHORT $LN26@CDynamicPo

; 1830 :             // This is an optimization for debug mode: we can avoid taking the debug lock to invalidate iterators.
; 1831 :             // Note that when clearing an empty vector, this will preserve past-the-end iterators, which is allowed by
; 1832 :             // N4901 [tab:container.seq.req] "a.clear() [...] may invalidate the past-the-end iterator".
; 1833 :             return;
; 1834 :         }
; 1835 : 
; 1836 :         _My_data._Orphan_all();
; 1837 :         _Destroy_range(_Myfirst, _Mylast, _Getal());
; 1838 :         _ASAN_VECTOR_MODIFY(static_cast<difference_type>(_Myfirst - _Mylast)); // negative when destroying elements
; 1839 :         _Mylast = _Myfirst;

  00050	89 47 08	 mov	 DWORD PTR [edi+8], eax
$LN26@CDynamicPo:

; 1829 :         if (_Myfirst == _Mylast) { // already empty, nothing to do

  00053	8b 47 10	 mov	 eax, DWORD PTR [edi+16]
  00056	3b 47 14	 cmp	 eax, DWORD PTR [edi+20]
  00059	74 03		 je	 SHORT $LN29@CDynamicPo

; 1830 :             // This is an optimization for debug mode: we can avoid taking the debug lock to invalidate iterators.
; 1831 :             // Note that when clearing an empty vector, this will preserve past-the-end iterators, which is allowed by
; 1832 :             // N4901 [tab:container.seq.req] "a.clear() [...] may invalidate the past-the-end iterator".
; 1833 :             return;
; 1834 :         }
; 1835 : 
; 1836 :         _My_data._Orphan_all();
; 1837 :         _Destroy_range(_Myfirst, _Mylast, _Getal());
; 1838 :         _ASAN_VECTOR_MODIFY(static_cast<difference_type>(_Myfirst - _Mylast)); // negative when destroying elements
; 1839 :         _Mylast = _Myfirst;

  0005b	89 47 14	 mov	 DWORD PTR [edi+20], eax
$LN29@CDynamicPo:

; 2107 :         if (_Myfirst) { // destroy and deallocate old array

  0005e	85 c0		 test	 eax, eax
  00060	74 41		 je	 SHORT $LN35@CDynamicPo

; 2108 :             _Destroy_range(_Myfirst, _Mylast, _Al);
; 2109 :             _ASAN_VECTOR_REMOVE;
; 2110 :             _Al.deallocate(_Myfirst, static_cast<size_type>(_Myend - _Myfirst));

  00062	8b 4f 18	 mov	 ecx, DWORD PTR [edi+24]
  00065	2b c8		 sub	 ecx, eax
; File C:\Program Files\Microsoft Visual Studio\2022\Community\VC\Tools\MSVC\14.34.31933\include\xmemory

; 830  :         _Deallocate<_New_alignof<_Ty>>(_Ptr, sizeof(_Ty) * _Count);

  00067	83 e1 fc	 and	 ecx, -4			; fffffffcH

; 251  :         if (_Bytes >= _Big_allocation_threshold) { // boost the alignment of big allocations to help autovectorization

  0006a	81 f9 00 10 00
	00		 cmp	 ecx, 4096		; 00001000H
  00070	72 12		 jb	 SHORT $LN51@CDynamicPo

; 150  :     const uintptr_t _Ptr_container   = _Ptr_user[-1];

  00072	8b 50 fc	 mov	 edx, DWORD PTR [eax-4]
  00075	83 c1 23	 add	 ecx, 35			; 00000023H

; 151  : 
; 152  :     // If the following asserts, it likely means that we are performing
; 153  :     // an aligned delete on memory coming from an unaligned allocation.
; 154  :     _STL_ASSERT(_Ptr_user[-2] == _Big_allocation_sentinel, "invalid argument");
; 155  : 
; 156  :     // Extra paranoia on aligned allocation/deallocation; ensure _Ptr_container is
; 157  :     // in range [_Min_back_shift, _Non_user_size]
; 158  : #ifdef _DEBUG
; 159  :     constexpr uintptr_t _Min_back_shift = 2 * sizeof(void*);
; 160  : #else // ^^^ _DEBUG ^^^ // vvv !_DEBUG vvv
; 161  :     constexpr uintptr_t _Min_back_shift = sizeof(void*);
; 162  : #endif // _DEBUG
; 163  :     const uintptr_t _Back_shift = reinterpret_cast<uintptr_t>(_Ptr) - _Ptr_container;

  00078	2b c2		 sub	 eax, edx

; 164  :     _STL_VERIFY(_Back_shift >= _Min_back_shift && _Back_shift <= _Non_user_size, "invalid argument");

  0007a	83 c0 fc	 add	 eax, -4			; fffffffcH
  0007d	83 f8 1f	 cmp	 eax, 31			; 0000001fH
  00080	77 7b		 ja	 SHORT $LN73@CDynamicPo

; 165  :     _Ptr = reinterpret_cast<void*>(_Ptr_container);

  00082	8b c2		 mov	 eax, edx
$LN51@CDynamicPo:

; 255  :         ::operator delete(_Ptr, _Bytes);

  00084	51		 push	 ecx
  00085	50		 push	 eax
  00086	e8 00 00 00 00	 call	 ??3@YAXPAXI@Z		; operator delete
; File C:\Program Files\Microsoft Visual Studio\2022\Community\VC\Tools\MSVC\14.34.31933\include\vector

; 2112 :             _Myfirst = nullptr;

  0008b	c7 47 10 00 00
	00 00		 mov	 DWORD PTR [edi+16], 0
; File C:\Program Files\Microsoft Visual Studio\2022\Community\VC\Tools\MSVC\14.34.31933\include\xmemory

; 255  :         ::operator delete(_Ptr, _Bytes);

  00092	83 c4 08	 add	 esp, 8
; File C:\Program Files\Microsoft Visual Studio\2022\Community\VC\Tools\MSVC\14.34.31933\include\vector

; 2113 :             _Mylast  = nullptr;

  00095	c7 47 14 00 00
	00 00		 mov	 DWORD PTR [edi+20], 0

; 2114 :             _Myend   = nullptr;

  0009c	c7 47 18 00 00
	00 00		 mov	 DWORD PTR [edi+24], 0
$LN35@CDynamicPo:

; 2107 :         if (_Myfirst) { // destroy and deallocate old array

  000a3	8b 47 04	 mov	 eax, DWORD PTR [edi+4]
  000a6	85 c0		 test	 eax, eax
  000a8	74 41		 je	 SHORT $LN60@CDynamicPo

; 2108 :             _Destroy_range(_Myfirst, _Mylast, _Al);
; 2109 :             _ASAN_VECTOR_REMOVE;
; 2110 :             _Al.deallocate(_Myfirst, static_cast<size_type>(_Myend - _Myfirst));

  000aa	8b 4f 0c	 mov	 ecx, DWORD PTR [edi+12]
  000ad	2b c8		 sub	 ecx, eax
; File C:\Program Files\Microsoft Visual Studio\2022\Community\VC\Tools\MSVC\14.34.31933\include\xmemory

; 830  :         _Deallocate<_New_alignof<_Ty>>(_Ptr, sizeof(_Ty) * _Count);

  000af	83 e1 fc	 and	 ecx, -4			; fffffffcH

; 251  :         if (_Bytes >= _Big_allocation_threshold) { // boost the alignment of big allocations to help autovectorization

  000b2	81 f9 00 10 00
	00		 cmp	 ecx, 4096		; 00001000H
  000b8	72 12		 jb	 SHORT $LN76@CDynamicPo

; 150  :     const uintptr_t _Ptr_container   = _Ptr_user[-1];

  000ba	8b 50 fc	 mov	 edx, DWORD PTR [eax-4]
  000bd	83 c1 23	 add	 ecx, 35			; 00000023H

; 151  : 
; 152  :     // If the following asserts, it likely means that we are performing
; 153  :     // an aligned delete on memory coming from an unaligned allocation.
; 154  :     _STL_ASSERT(_Ptr_user[-2] == _Big_allocation_sentinel, "invalid argument");
; 155  : 
; 156  :     // Extra paranoia on aligned allocation/deallocation; ensure _Ptr_container is
; 157  :     // in range [_Min_back_shift, _Non_user_size]
; 158  : #ifdef _DEBUG
; 159  :     constexpr uintptr_t _Min_back_shift = 2 * sizeof(void*);
; 160  : #else // ^^^ _DEBUG ^^^ // vvv !_DEBUG vvv
; 161  :     constexpr uintptr_t _Min_back_shift = sizeof(void*);
; 162  : #endif // _DEBUG
; 163  :     const uintptr_t _Back_shift = reinterpret_cast<uintptr_t>(_Ptr) - _Ptr_container;

  000c0	2b c2		 sub	 eax, edx

; 164  :     _STL_VERIFY(_Back_shift >= _Min_back_shift && _Back_shift <= _Non_user_size, "invalid argument");

  000c2	83 c0 fc	 add	 eax, -4			; fffffffcH
  000c5	83 f8 1f	 cmp	 eax, 31			; 0000001fH
  000c8	77 33		 ja	 SHORT $LN73@CDynamicPo

; 165  :     _Ptr = reinterpret_cast<void*>(_Ptr_container);

  000ca	8b c2		 mov	 eax, edx
$LN76@CDynamicPo:

; 255  :         ::operator delete(_Ptr, _Bytes);

  000cc	51		 push	 ecx
  000cd	50		 push	 eax
  000ce	e8 00 00 00 00	 call	 ??3@YAXPAXI@Z		; operator delete
; File C:\Program Files\Microsoft Visual Studio\2022\Community\VC\Tools\MSVC\14.34.31933\include\vector

; 2112 :             _Myfirst = nullptr;

  000d3	c7 47 04 00 00
	00 00		 mov	 DWORD PTR [edi+4], 0
; File C:\Program Files\Microsoft Visual Studio\2022\Community\VC\Tools\MSVC\14.34.31933\include\xmemory

; 255  :         ::operator delete(_Ptr, _Bytes);

  000da	83 c4 08	 add	 esp, 8
; File C:\Program Files\Microsoft Visual Studio\2022\Community\VC\Tools\MSVC\14.34.31933\include\vector

; 2113 :             _Mylast  = nullptr;

  000dd	c7 47 08 00 00
	00 00		 mov	 DWORD PTR [edi+8], 0

; 2114 :             _Myend   = nullptr;

  000e4	c7 47 0c 00 00
	00 00		 mov	 DWORD PTR [edi+12], 0
$LN60@CDynamicPo:
; File C:\Users\flourine\Desktop\Xantios\client-src\Code\eterLib\Pool.h

; 146  : 	}

  000eb	8b 4d f4	 mov	 ecx, DWORD PTR __$EHRec$[ebp]
  000ee	64 89 0d 00 00
	00 00		 mov	 DWORD PTR fs:0, ecx
  000f5	59		 pop	 ecx
  000f6	5f		 pop	 edi
  000f7	5e		 pop	 esi
  000f8	5b		 pop	 ebx
  000f9	8b e5		 mov	 esp, ebp
  000fb	5d		 pop	 ebp
  000fc	c3		 ret	 0
$LN73@CDynamicPo:
; File C:\Program Files\Microsoft Visual Studio\2022\Community\VC\Tools\MSVC\14.34.31933\include\xmemory

; 164  :     _STL_VERIFY(_Back_shift >= _Min_back_shift && _Back_shift <= _Non_user_size, "invalid argument");

  000fd	e8 00 00 00 00	 call	 __invalid_parameter_noinfo_noreturn
$LN86@CDynamicPo:
  00102	cc		 int	 3
  00103	cc		 int	 3
  00104	cc		 int	 3
  00105	cc		 int	 3
  00106	cc		 int	 3
  00107	cc		 int	 3
_TEXT	ENDS
;	COMDAT text$x
text$x	SEGMENT
__ehhandler$??1?$CDynamicPoolEx@VCGravityDecorator@NEffectUpdateDecorator@@@@UAE@XZ:
  00000	90		 npad	 1
  00001	90		 npad	 1
  00002	8b 54 24 08	 mov	 edx, DWORD PTR [esp+8]
  00006	8d 42 0c	 lea	 eax, DWORD PTR [edx+12]
  00009	8b 4a f0	 mov	 ecx, DWORD PTR [edx-16]
  0000c	33 c8		 xor	 ecx, eax
  0000e	e8 00 00 00 00	 call	 @__security_check_cookie@4
  00013	b8 00 00 00 00	 mov	 eax, OFFSET __ehfuncinfo$??1?$CDynamicPoolEx@VCGravityDecorator@NEffectUpdateDecorator@@@@UAE@XZ
  00018	e9 00 00 00 00	 jmp	 ___CxxFrameHandler3
text$x	ENDS
??1?$CDynamicPoolEx@VCGravityDecorator@NEffectUpdateDecorator@@@@UAE@XZ ENDP ; CDynamicPoolEx<NEffectUpdateDecorator::CGravityDecorator>::~CDynamicPoolEx<NEffectUpdateDecorator::CGravityDecorator>
; Function compile flags: /Ogtp
;	COMDAT ??_G?$CDynamicPoolEx@VCRotationDecorator@NEffectUpdateDecorator@@@@UAEPAXI@Z
_TEXT	SEGMENT
___flags$ = 8						; size = 4
??_G?$CDynamicPoolEx@VCRotationDecorator@NEffectUpdateDecorator@@@@UAEPAXI@Z PROC ; CDynamicPoolEx<NEffectUpdateDecorator::CRotationDecorator>::`scalar deleting destructor', COMDAT
; _this$ = ecx
  00000	55		 push	 ebp
  00001	8b ec		 mov	 ebp, esp
  00003	56		 push	 esi
  00004	8b f1		 mov	 esi, ecx
  00006	e8 00 00 00 00	 call	 ??1?$CDynamicPoolEx@VCRotationDecorator@NEffectUpdateDecorator@@@@UAE@XZ ; CDynamicPoolEx<NEffectUpdateDecorator::CRotationDecorator>::~CDynamicPoolEx<NEffectUpdateDecorator::CRotationDecorator>
  0000b	f6 45 08 01	 test	 BYTE PTR ___flags$[ebp], 1
  0000f	74 0b		 je	 SHORT $LN4@scalar
  00011	6a 24		 push	 36			; 00000024H
  00013	56		 push	 esi
  00014	e8 00 00 00 00	 call	 ??3@YAXPAXI@Z		; operator delete
  00019	83 c4 08	 add	 esp, 8
$LN4@scalar:
  0001c	8b c6		 mov	 eax, esi
  0001e	5e		 pop	 esi
  0001f	5d		 pop	 ebp
  00020	c2 04 00	 ret	 4
??_G?$CDynamicPoolEx@VCRotationDecorator@NEffectUpdateDecorator@@@@UAEPAXI@Z ENDP ; CDynamicPoolEx<NEffectUpdateDecorator::CRotationDecorator>::`scalar deleting destructor'
_TEXT	ENDS
; Function compile flags: /Ogtp
; File C:\Users\flourine\Desktop\Xantios\client-src\Code\eterLib\Pool.h
;	COMDAT ?Delete@?$CDynamicPoolEx@VCRotationDecorator@NEffectUpdateDecorator@@@@KAXPAVCRotationDecorator@NEffectUpdateDecorator@@@Z
_TEXT	SEGMENT
_pkData$ = 8						; size = 4
?Delete@?$CDynamicPoolEx@VCRotationDecorator@NEffectUpdateDecorator@@@@KAXPAVCRotationDecorator@NEffectUpdateDecorator@@@Z PROC ; CDynamicPoolEx<NEffectUpdateDecorator::CRotationDecorator>::Delete, COMDAT

; 232  : 		::operator delete (pkData);

  00000	e9 00 00 00 00	 jmp	 ??3@YAXPAX@Z		; operator delete
?Delete@?$CDynamicPoolEx@VCRotationDecorator@NEffectUpdateDecorator@@@@KAXPAVCRotationDecorator@NEffectUpdateDecorator@@@Z ENDP ; CDynamicPoolEx<NEffectUpdateDecorator::CRotationDecorator>::Delete
_TEXT	ENDS
; Function compile flags: /Ogtp
; File C:\Users\flourine\Desktop\Xantios\client-src\Code\eterLib\Pool.h
; File C:\Program Files\Microsoft Visual Studio\2022\Community\VC\Tools\MSVC\14.34.31933\include\vector
; File C:\Program Files\Microsoft Visual Studio\2022\Community\VC\Tools\MSVC\14.34.31933\include\algorithm
; File C:\Users\flourine\Desktop\Xantios\client-src\Code\eterLib\Pool.h
; File C:\Program Files\Microsoft Visual Studio\2022\Community\VC\Tools\MSVC\14.34.31933\include\algorithm
; File C:\Users\flourine\Desktop\Xantios\client-src\Code\eterLib\Pool.h
; File C:\Program Files\Microsoft Visual Studio\2022\Community\VC\Tools\MSVC\14.34.31933\include\algorithm
; File C:\Program Files\Microsoft Visual Studio\2022\Community\VC\Tools\MSVC\14.34.31933\include\vector
; File C:\Program Files\Microsoft Visual Studio\2022\Community\VC\Tools\MSVC\14.34.31933\include\xmemory
; File C:\Program Files\Microsoft Visual Studio\2022\Community\VC\Tools\MSVC\14.34.31933\include\vector
; File C:\Program Files\Microsoft Visual Studio\2022\Community\VC\Tools\MSVC\14.34.31933\include\xmemory
; File C:\Program Files\Microsoft Visual Studio\2022\Community\VC\Tools\MSVC\14.34.31933\include\vector
; File C:\Program Files\Microsoft Visual Studio\2022\Community\VC\Tools\MSVC\14.34.31933\include\xmemory
; File C:\Program Files\Microsoft Visual Studio\2022\Community\VC\Tools\MSVC\14.34.31933\include\vector
; File C:\Program Files\Microsoft Visual Studio\2022\Community\VC\Tools\MSVC\14.34.31933\include\xmemory
; File C:\Program Files\Microsoft Visual Studio\2022\Community\VC\Tools\MSVC\14.34.31933\include\vector
; File C:\Users\flourine\Desktop\Xantios\client-src\Code\eterLib\Pool.h
; File C:\Program Files\Microsoft Visual Studio\2022\Community\VC\Tools\MSVC\14.34.31933\include\xmemory
; File C:\Users\flourine\Desktop\Xantios\client-src\Code\eterLib\Pool.h
;	COMDAT ??1?$CDynamicPoolEx@VCRotationDecorator@NEffectUpdateDecorator@@@@UAE@XZ
_TEXT	SEGMENT
__$EHRec$ = -12						; size = 12
??1?$CDynamicPoolEx@VCRotationDecorator@NEffectUpdateDecorator@@@@UAE@XZ PROC ; CDynamicPoolEx<NEffectUpdateDecorator::CRotationDecorator>::~CDynamicPoolEx<NEffectUpdateDecorator::CRotationDecorator>, COMDAT
; _this$ = ecx

; 136  : 	{

  00000	55		 push	 ebp
  00001	8b ec		 mov	 ebp, esp
  00003	6a ff		 push	 -1
  00005	68 00 00 00 00	 push	 __ehhandler$??1?$CDynamicPoolEx@VCRotationDecorator@NEffectUpdateDecorator@@@@UAE@XZ
  0000a	64 a1 00 00 00
	00		 mov	 eax, DWORD PTR fs:0
  00010	50		 push	 eax
  00011	53		 push	 ebx
  00012	56		 push	 esi
  00013	57		 push	 edi
  00014	a1 00 00 00 00	 mov	 eax, DWORD PTR ___security_cookie
  00019	33 c5		 xor	 eax, ebp
  0001b	50		 push	 eax
  0001c	8d 45 f4	 lea	 eax, DWORD PTR __$EHRec$[ebp]
  0001f	64 a3 00 00 00
	00		 mov	 DWORD PTR fs:0, eax
  00025	8b f9		 mov	 edi, ecx
  00027	c7 07 00 00 00
	00		 mov	 DWORD PTR [edi], OFFSET ??_7?$CDynamicPoolEx@VCRotationDecorator@NEffectUpdateDecorator@@@@6B@
; File C:\Program Files\Microsoft Visual Studio\2022\Community\VC\Tools\MSVC\14.34.31933\include\vector

; 41   :     _CONSTEXPR20 _Vector_const_iterator(_Tptr _Parg, const _Container_base* _Pvector) noexcept : _Ptr(_Parg) {

  0002d	8b 5f 08	 mov	 ebx, DWORD PTR [edi+8]
; File C:\Program Files\Microsoft Visual Studio\2022\Community\VC\Tools\MSVC\14.34.31933\include\algorithm

; 265  :     for (; _UFirst != _ULast; ++_UFirst) {

  00030	8b 77 04	 mov	 esi, DWORD PTR [edi+4]
  00033	3b f3		 cmp	 esi, ebx
  00035	74 11		 je	 SHORT $LN19@CDynamicPo
$LL20@CDynamicPo:
; File C:\Users\flourine\Desktop\Xantios\client-src\Code\eterLib\Pool.h

; 232  : 		::operator delete (pkData);

  00037	ff 36		 push	 DWORD PTR [esi]
  00039	e8 00 00 00 00	 call	 ??3@YAXPAX@Z		; operator delete
; File C:\Program Files\Microsoft Visual Studio\2022\Community\VC\Tools\MSVC\14.34.31933\include\algorithm

; 265  :     for (; _UFirst != _ULast; ++_UFirst) {

  0003e	83 c6 04	 add	 esi, 4
; File C:\Users\flourine\Desktop\Xantios\client-src\Code\eterLib\Pool.h

; 232  : 		::operator delete (pkData);

  00041	83 c4 04	 add	 esp, 4
; File C:\Program Files\Microsoft Visual Studio\2022\Community\VC\Tools\MSVC\14.34.31933\include\algorithm

; 265  :     for (; _UFirst != _ULast; ++_UFirst) {

  00044	3b f3		 cmp	 esi, ebx
  00046	75 ef		 jne	 SHORT $LL20@CDynamicPo
$LN19@CDynamicPo:
; File C:\Program Files\Microsoft Visual Studio\2022\Community\VC\Tools\MSVC\14.34.31933\include\vector

; 1829 :         if (_Myfirst == _Mylast) { // already empty, nothing to do

  00048	8b 47 04	 mov	 eax, DWORD PTR [edi+4]
  0004b	3b 47 08	 cmp	 eax, DWORD PTR [edi+8]
  0004e	74 03		 je	 SHORT $LN26@CDynamicPo

; 1830 :             // This is an optimization for debug mode: we can avoid taking the debug lock to invalidate iterators.
; 1831 :             // Note that when clearing an empty vector, this will preserve past-the-end iterators, which is allowed by
; 1832 :             // N4901 [tab:container.seq.req] "a.clear() [...] may invalidate the past-the-end iterator".
; 1833 :             return;
; 1834 :         }
; 1835 : 
; 1836 :         _My_data._Orphan_all();
; 1837 :         _Destroy_range(_Myfirst, _Mylast, _Getal());
; 1838 :         _ASAN_VECTOR_MODIFY(static_cast<difference_type>(_Myfirst - _Mylast)); // negative when destroying elements
; 1839 :         _Mylast = _Myfirst;

  00050	89 47 08	 mov	 DWORD PTR [edi+8], eax
$LN26@CDynamicPo:

; 1829 :         if (_Myfirst == _Mylast) { // already empty, nothing to do

  00053	8b 47 10	 mov	 eax, DWORD PTR [edi+16]
  00056	3b 47 14	 cmp	 eax, DWORD PTR [edi+20]
  00059	74 03		 je	 SHORT $LN29@CDynamicPo

; 1830 :             // This is an optimization for debug mode: we can avoid taking the debug lock to invalidate iterators.
; 1831 :             // Note that when clearing an empty vector, this will preserve past-the-end iterators, which is allowed by
; 1832 :             // N4901 [tab:container.seq.req] "a.clear() [...] may invalidate the past-the-end iterator".
; 1833 :             return;
; 1834 :         }
; 1835 : 
; 1836 :         _My_data._Orphan_all();
; 1837 :         _Destroy_range(_Myfirst, _Mylast, _Getal());
; 1838 :         _ASAN_VECTOR_MODIFY(static_cast<difference_type>(_Myfirst - _Mylast)); // negative when destroying elements
; 1839 :         _Mylast = _Myfirst;

  0005b	89 47 14	 mov	 DWORD PTR [edi+20], eax
$LN29@CDynamicPo:

; 2107 :         if (_Myfirst) { // destroy and deallocate old array

  0005e	85 c0		 test	 eax, eax
  00060	74 41		 je	 SHORT $LN35@CDynamicPo

; 2108 :             _Destroy_range(_Myfirst, _Mylast, _Al);
; 2109 :             _ASAN_VECTOR_REMOVE;
; 2110 :             _Al.deallocate(_Myfirst, static_cast<size_type>(_Myend - _Myfirst));

  00062	8b 4f 18	 mov	 ecx, DWORD PTR [edi+24]
  00065	2b c8		 sub	 ecx, eax
; File C:\Program Files\Microsoft Visual Studio\2022\Community\VC\Tools\MSVC\14.34.31933\include\xmemory

; 830  :         _Deallocate<_New_alignof<_Ty>>(_Ptr, sizeof(_Ty) * _Count);

  00067	83 e1 fc	 and	 ecx, -4			; fffffffcH

; 251  :         if (_Bytes >= _Big_allocation_threshold) { // boost the alignment of big allocations to help autovectorization

  0006a	81 f9 00 10 00
	00		 cmp	 ecx, 4096		; 00001000H
  00070	72 12		 jb	 SHORT $LN51@CDynamicPo

; 150  :     const uintptr_t _Ptr_container   = _Ptr_user[-1];

  00072	8b 50 fc	 mov	 edx, DWORD PTR [eax-4]
  00075	83 c1 23	 add	 ecx, 35			; 00000023H

; 151  : 
; 152  :     // If the following asserts, it likely means that we are performing
; 153  :     // an aligned delete on memory coming from an unaligned allocation.
; 154  :     _STL_ASSERT(_Ptr_user[-2] == _Big_allocation_sentinel, "invalid argument");
; 155  : 
; 156  :     // Extra paranoia on aligned allocation/deallocation; ensure _Ptr_container is
; 157  :     // in range [_Min_back_shift, _Non_user_size]
; 158  : #ifdef _DEBUG
; 159  :     constexpr uintptr_t _Min_back_shift = 2 * sizeof(void*);
; 160  : #else // ^^^ _DEBUG ^^^ // vvv !_DEBUG vvv
; 161  :     constexpr uintptr_t _Min_back_shift = sizeof(void*);
; 162  : #endif // _DEBUG
; 163  :     const uintptr_t _Back_shift = reinterpret_cast<uintptr_t>(_Ptr) - _Ptr_container;

  00078	2b c2		 sub	 eax, edx

; 164  :     _STL_VERIFY(_Back_shift >= _Min_back_shift && _Back_shift <= _Non_user_size, "invalid argument");

  0007a	83 c0 fc	 add	 eax, -4			; fffffffcH
  0007d	83 f8 1f	 cmp	 eax, 31			; 0000001fH
  00080	77 7b		 ja	 SHORT $LN73@CDynamicPo

; 165  :     _Ptr = reinterpret_cast<void*>(_Ptr_container);

  00082	8b c2		 mov	 eax, edx
$LN51@CDynamicPo:

; 255  :         ::operator delete(_Ptr, _Bytes);

  00084	51		 push	 ecx
  00085	50		 push	 eax
  00086	e8 00 00 00 00	 call	 ??3@YAXPAXI@Z		; operator delete
; File C:\Program Files\Microsoft Visual Studio\2022\Community\VC\Tools\MSVC\14.34.31933\include\vector

; 2112 :             _Myfirst = nullptr;

  0008b	c7 47 10 00 00
	00 00		 mov	 DWORD PTR [edi+16], 0
; File C:\Program Files\Microsoft Visual Studio\2022\Community\VC\Tools\MSVC\14.34.31933\include\xmemory

; 255  :         ::operator delete(_Ptr, _Bytes);

  00092	83 c4 08	 add	 esp, 8
; File C:\Program Files\Microsoft Visual Studio\2022\Community\VC\Tools\MSVC\14.34.31933\include\vector

; 2113 :             _Mylast  = nullptr;

  00095	c7 47 14 00 00
	00 00		 mov	 DWORD PTR [edi+20], 0

; 2114 :             _Myend   = nullptr;

  0009c	c7 47 18 00 00
	00 00		 mov	 DWORD PTR [edi+24], 0
$LN35@CDynamicPo:

; 2107 :         if (_Myfirst) { // destroy and deallocate old array

  000a3	8b 47 04	 mov	 eax, DWORD PTR [edi+4]
  000a6	85 c0		 test	 eax, eax
  000a8	74 41		 je	 SHORT $LN60@CDynamicPo

; 2108 :             _Destroy_range(_Myfirst, _Mylast, _Al);
; 2109 :             _ASAN_VECTOR_REMOVE;
; 2110 :             _Al.deallocate(_Myfirst, static_cast<size_type>(_Myend - _Myfirst));

  000aa	8b 4f 0c	 mov	 ecx, DWORD PTR [edi+12]
  000ad	2b c8		 sub	 ecx, eax
; File C:\Program Files\Microsoft Visual Studio\2022\Community\VC\Tools\MSVC\14.34.31933\include\xmemory

; 830  :         _Deallocate<_New_alignof<_Ty>>(_Ptr, sizeof(_Ty) * _Count);

  000af	83 e1 fc	 and	 ecx, -4			; fffffffcH

; 251  :         if (_Bytes >= _Big_allocation_threshold) { // boost the alignment of big allocations to help autovectorization

  000b2	81 f9 00 10 00
	00		 cmp	 ecx, 4096		; 00001000H
  000b8	72 12		 jb	 SHORT $LN76@CDynamicPo

; 150  :     const uintptr_t _Ptr_container   = _Ptr_user[-1];

  000ba	8b 50 fc	 mov	 edx, DWORD PTR [eax-4]
  000bd	83 c1 23	 add	 ecx, 35			; 00000023H

; 151  : 
; 152  :     // If the following asserts, it likely means that we are performing
; 153  :     // an aligned delete on memory coming from an unaligned allocation.
; 154  :     _STL_ASSERT(_Ptr_user[-2] == _Big_allocation_sentinel, "invalid argument");
; 155  : 
; 156  :     // Extra paranoia on aligned allocation/deallocation; ensure _Ptr_container is
; 157  :     // in range [_Min_back_shift, _Non_user_size]
; 158  : #ifdef _DEBUG
; 159  :     constexpr uintptr_t _Min_back_shift = 2 * sizeof(void*);
; 160  : #else // ^^^ _DEBUG ^^^ // vvv !_DEBUG vvv
; 161  :     constexpr uintptr_t _Min_back_shift = sizeof(void*);
; 162  : #endif // _DEBUG
; 163  :     const uintptr_t _Back_shift = reinterpret_cast<uintptr_t>(_Ptr) - _Ptr_container;

  000c0	2b c2		 sub	 eax, edx

; 164  :     _STL_VERIFY(_Back_shift >= _Min_back_shift && _Back_shift <= _Non_user_size, "invalid argument");

  000c2	83 c0 fc	 add	 eax, -4			; fffffffcH
  000c5	83 f8 1f	 cmp	 eax, 31			; 0000001fH
  000c8	77 33		 ja	 SHORT $LN73@CDynamicPo

; 165  :     _Ptr = reinterpret_cast<void*>(_Ptr_container);

  000ca	8b c2		 mov	 eax, edx
$LN76@CDynamicPo:

; 255  :         ::operator delete(_Ptr, _Bytes);

  000cc	51		 push	 ecx
  000cd	50		 push	 eax
  000ce	e8 00 00 00 00	 call	 ??3@YAXPAXI@Z		; operator delete
; File C:\Program Files\Microsoft Visual Studio\2022\Community\VC\Tools\MSVC\14.34.31933\include\vector

; 2112 :             _Myfirst = nullptr;

  000d3	c7 47 04 00 00
	00 00		 mov	 DWORD PTR [edi+4], 0
; File C:\Program Files\Microsoft Visual Studio\2022\Community\VC\Tools\MSVC\14.34.31933\include\xmemory

; 255  :         ::operator delete(_Ptr, _Bytes);

  000da	83 c4 08	 add	 esp, 8
; File C:\Program Files\Microsoft Visual Studio\2022\Community\VC\Tools\MSVC\14.34.31933\include\vector

; 2113 :             _Mylast  = nullptr;

  000dd	c7 47 08 00 00
	00 00		 mov	 DWORD PTR [edi+8], 0

; 2114 :             _Myend   = nullptr;

  000e4	c7 47 0c 00 00
	00 00		 mov	 DWORD PTR [edi+12], 0
$LN60@CDynamicPo:
; File C:\Users\flourine\Desktop\Xantios\client-src\Code\eterLib\Pool.h

; 146  : 	}

  000eb	8b 4d f4	 mov	 ecx, DWORD PTR __$EHRec$[ebp]
  000ee	64 89 0d 00 00
	00 00		 mov	 DWORD PTR fs:0, ecx
  000f5	59		 pop	 ecx
  000f6	5f		 pop	 edi
  000f7	5e		 pop	 esi
  000f8	5b		 pop	 ebx
  000f9	8b e5		 mov	 esp, ebp
  000fb	5d		 pop	 ebp
  000fc	c3		 ret	 0
$LN73@CDynamicPo:
; File C:\Program Files\Microsoft Visual Studio\2022\Community\VC\Tools\MSVC\14.34.31933\include\xmemory

; 164  :     _STL_VERIFY(_Back_shift >= _Min_back_shift && _Back_shift <= _Non_user_size, "invalid argument");

  000fd	e8 00 00 00 00	 call	 __invalid_parameter_noinfo_noreturn
$LN86@CDynamicPo:
  00102	cc		 int	 3
  00103	cc		 int	 3
  00104	cc		 int	 3
  00105	cc		 int	 3
  00106	cc		 int	 3
  00107	cc		 int	 3
_TEXT	ENDS
;	COMDAT text$x
text$x	SEGMENT
__ehhandler$??1?$CDynamicPoolEx@VCRotationDecorator@NEffectUpdateDecorator@@@@UAE@XZ:
  00000	90		 npad	 1
  00001	90		 npad	 1
  00002	8b 54 24 08	 mov	 edx, DWORD PTR [esp+8]
  00006	8d 42 0c	 lea	 eax, DWORD PTR [edx+12]
  00009	8b 4a f0	 mov	 ecx, DWORD PTR [edx-16]
  0000c	33 c8		 xor	 ecx, eax
  0000e	e8 00 00 00 00	 call	 @__security_check_cookie@4
  00013	b8 00 00 00 00	 mov	 eax, OFFSET __ehfuncinfo$??1?$CDynamicPoolEx@VCRotationDecorator@NEffectUpdateDecorator@@@@UAE@XZ
  00018	e9 00 00 00 00	 jmp	 ___CxxFrameHandler3
text$x	ENDS
??1?$CDynamicPoolEx@VCRotationDecorator@NEffectUpdateDecorator@@@@UAE@XZ ENDP ; CDynamicPoolEx<NEffectUpdateDecorator::CRotationDecorator>::~CDynamicPoolEx<NEffectUpdateDecorator::CRotationDecorator>
; Function compile flags: /Ogtp
; File C:\Program Files\Microsoft Visual Studio\2022\Community\VC\Tools\MSVC\14.34.31933\include\xtree
; File C:\Program Files\Microsoft Visual Studio\2022\Community\VC\Tools\MSVC\14.34.31933\include\utility
; File C:\Program Files\Microsoft Visual Studio\2022\Community\VC\Tools\MSVC\14.34.31933\include\xmemory
; File C:\Program Files\Microsoft Visual Studio\2022\Community\VC\Tools\MSVC\14.34.31933\include\xtree
;	COMDAT ??$_Erase_tree@V?$allocator@U?$_Tree_node@U?$pair@QAVCActorInstance@@M@std@@PAX@std@@@std@@@?$_Tree_val@U?$_Tree_simple_types@U?$pair@QAVCActorInstance@@M@std@@@std@@@std@@QAEXAAV?$allocator@U?$_Tree_node@U?$pair@QAVCActorInstance@@M@std@@PAX@std@@@1@PAU?$_Tree_node@U?$pair@QAVCActorInstance@@M@std@@PAX@1@@Z
_TEXT	SEGMENT
__Al$ = 8						; size = 4
__Rootnode$ = 12					; size = 4
??$_Erase_tree@V?$allocator@U?$_Tree_node@U?$pair@QAVCActorInstance@@M@std@@PAX@std@@@std@@@?$_Tree_val@U?$_Tree_simple_types@U?$pair@QAVCActorInstance@@M@std@@@std@@@std@@QAEXAAV?$allocator@U?$_Tree_node@U?$pair@QAVCActorInstance@@M@std@@PAX@std@@@1@PAU?$_Tree_node@U?$pair@QAVCActorInstance@@M@std@@PAX@1@@Z PROC ; std::_Tree_val<std::_Tree_simple_types<std::pair<CActorInstance * const,float> > >::_Erase_tree<std::allocator<std::_Tree_node<std::pair<CActorInstance * const,float>,void *> > >, COMDAT
; _this$ = ecx

; 744  :     void _Erase_tree(_Alnode& _Al, _Nodeptr _Rootnode) noexcept {

  00000	55		 push	 ebp
  00001	8b ec		 mov	 ebp, esp
  00003	53		 push	 ebx
  00004	56		 push	 esi

; 745  :         while (!_Rootnode->_Isnil) { // free subtrees, then node

  00005	8b 75 0c	 mov	 esi, DWORD PTR __Rootnode$[ebp]
  00008	8b d9		 mov	 ebx, ecx
  0000a	80 7e 0d 00	 cmp	 BYTE PTR [esi+13], 0
  0000e	75 25		 jne	 SHORT $LN3@Erase_tree
  00010	57		 push	 edi
  00011	8b 7d 08	 mov	 edi, DWORD PTR __Al$[ebp]
$LL2@Erase_tree:

; 746  :             _Erase_tree(_Al, _Rootnode->_Right);

  00014	ff 76 08	 push	 DWORD PTR [esi+8]
  00017	8b cb		 mov	 ecx, ebx
  00019	57		 push	 edi
  0001a	e8 00 00 00 00	 call	 ??$_Erase_tree@V?$allocator@U?$_Tree_node@U?$pair@QAVCActorInstance@@M@std@@PAX@std@@@std@@@?$_Tree_val@U?$_Tree_simple_types@U?$pair@QAVCActorInstance@@M@std@@@std@@@std@@QAEXAAV?$allocator@U?$_Tree_node@U?$pair@QAVCActorInstance@@M@std@@PAX@std@@@1@PAU?$_Tree_node@U?$pair@QAVCActorInstance@@M@std@@PAX@1@@Z ; std::_Tree_val<std::_Tree_simple_types<std::pair<CActorInstance * const,float> > >::_Erase_tree<std::allocator<std::_Tree_node<std::pair<CActorInstance * const,float>,void *> > >
; File C:\Program Files\Microsoft Visual Studio\2022\Community\VC\Tools\MSVC\14.34.31933\include\utility

; 653  :     _Ty _Old_val = static_cast<_Ty&&>(_Val);

  0001f	8b c6		 mov	 eax, esi

; 654  :     _Val         = static_cast<_Other&&>(_New_val);

  00021	8b 36		 mov	 esi, DWORD PTR [esi]
; File C:\Program Files\Microsoft Visual Studio\2022\Community\VC\Tools\MSVC\14.34.31933\include\xmemory

; 255  :         ::operator delete(_Ptr, _Bytes);

  00023	6a 18		 push	 24			; 00000018H
  00025	50		 push	 eax
  00026	e8 00 00 00 00	 call	 ??3@YAXPAXI@Z		; operator delete
  0002b	83 c4 08	 add	 esp, 8
; File C:\Program Files\Microsoft Visual Studio\2022\Community\VC\Tools\MSVC\14.34.31933\include\xtree

; 745  :         while (!_Rootnode->_Isnil) { // free subtrees, then node

  0002e	80 7e 0d 00	 cmp	 BYTE PTR [esi+13], 0
  00032	74 e0		 je	 SHORT $LL2@Erase_tree
  00034	5f		 pop	 edi
$LN3@Erase_tree:
  00035	5e		 pop	 esi

; 747  :             _Alnode::value_type::_Freenode(_Al, _STD exchange(_Rootnode, _Rootnode->_Left));
; 748  :         }
; 749  :     }

  00036	5b		 pop	 ebx
  00037	5d		 pop	 ebp
  00038	c2 08 00	 ret	 8
??$_Erase_tree@V?$allocator@U?$_Tree_node@U?$pair@QAVCActorInstance@@M@std@@PAX@std@@@std@@@?$_Tree_val@U?$_Tree_simple_types@U?$pair@QAVCActorInstance@@M@std@@@std@@@std@@QAEXAAV?$allocator@U?$_Tree_node@U?$pair@QAVCActorInstance@@M@std@@PAX@std@@@1@PAU?$_Tree_node@U?$pair@QAVCActorInstance@@M@std@@PAX@1@@Z ENDP ; std::_Tree_val<std::_Tree_simple_types<std::pair<CActorInstance * const,float> > >::_Erase_tree<std::allocator<std::_Tree_node<std::pair<CActorInstance * const,float>,void *> > >
_TEXT	ENDS
; Function compile flags: /Ogtp
; File C:\Program Files\Microsoft Visual Studio\2022\Community\VC\Tools\MSVC\14.34.31933\include\xtree
; File C:\Program Files\Microsoft Visual Studio\2022\Community\VC\Tools\MSVC\14.34.31933\include\utility
; File C:\Program Files\Microsoft Visual Studio\2022\Community\VC\Tools\MSVC\14.34.31933\include\xtree
; File C:\Program Files\Microsoft Visual Studio\2022\Community\VC\Tools\MSVC\14.34.31933\include\xmemory
; File C:\Program Files\Microsoft Visual Studio\2022\Community\VC\Tools\MSVC\14.34.31933\include\xtree
; File C:\Program Files\Microsoft Visual Studio\2022\Community\VC\Tools\MSVC\14.34.31933\include\xmemory
; File C:\Program Files\Microsoft Visual Studio\2022\Community\VC\Tools\MSVC\14.34.31933\include\xtree
;	COMDAT ??$_Erase_tree@V?$allocator@U?$_Tree_node@U?$pair@QBUSHitData@NRaceData@@V?$map@PAVCActorInstance@@MU?$less@PAVCActorInstance@@@std@@V?$allocator@U?$pair@QAVCActorInstance@@M@std@@@3@@std@@@std@@PAX@std@@@std@@@?$_Tree_val@U?$_Tree_simple_types@U?$pair@QBUSHitData@NRaceData@@V?$map@PAVCActorInstance@@MU?$less@PAVCActorInstance@@@std@@V?$allocator@U?$pair@QAVCActorInstance@@M@std@@@3@@std@@@std@@@std@@@std@@QAEXAAV?$allocator@U?$_Tree_node@U?$pair@QBUSHitData@NRaceData@@V?$map@PAVCActorInstance@@MU?$less@PAVCActorInstance@@@std@@V?$allocator@U?$pair@QAVCActorInstance@@M@std@@@3@@std@@@std@@PAX@std@@@1@PAU?$_Tree_node@U?$pair@QBUSHitData@NRaceData@@V?$map@PAVCActorInstance@@MU?$less@PAVCActorInstance@@@std@@V?$allocator@U?$pair@QAVCActorInstance@@M@std@@@3@@std@@@std@@PAX@1@@Z
_TEXT	SEGMENT
_this$1$ = -4						; size = 4
__Al$ = 8						; size = 4
__Rootnode$ = 12					; size = 4
??$_Erase_tree@V?$allocator@U?$_Tree_node@U?$pair@QBUSHitData@NRaceData@@V?$map@PAVCActorInstance@@MU?$less@PAVCActorInstance@@@std@@V?$allocator@U?$pair@QAVCActorInstance@@M@std@@@3@@std@@@std@@PAX@std@@@std@@@?$_Tree_val@U?$_Tree_simple_types@U?$pair@QBUSHitData@NRaceData@@V?$map@PAVCActorInstance@@MU?$less@PAVCActorInstance@@@std@@V?$allocator@U?$pair@QAVCActorInstance@@M@std@@@3@@std@@@std@@@std@@@std@@QAEXAAV?$allocator@U?$_Tree_node@U?$pair@QBUSHitData@NRaceData@@V?$map@PAVCActorInstance@@MU?$less@PAVCActorInstance@@@std@@V?$allocator@U?$pair@QAVCActorInstance@@M@std@@@3@@std@@@std@@PAX@std@@@1@PAU?$_Tree_node@U?$pair@QBUSHitData@NRaceData@@V?$map@PAVCActorInstance@@MU?$less@PAVCActorInstance@@@std@@V?$allocator@U?$pair@QAVCActorInstance@@M@std@@@3@@std@@@std@@PAX@1@@Z PROC ; std::_Tree_val<std::_Tree_simple_types<std::pair<NRaceData::SHitData const * const,std::map<CActorInstance *,float,std::less<CActorInstance *>,std::allocator<std::pair<CActorInstance * const,float> > > > > >::_Erase_tree<std::allocator<std::_Tree_node<std::pair<NRaceData::SHitData const * const,std::map<CActorInstance *,float,std::less<CActorInstance *>,std::allocator<std::pair<CActorInstance * const,float> > > >,void *> > >, COMDAT
; _this$ = ecx

; 744  :     void _Erase_tree(_Alnode& _Al, _Nodeptr _Rootnode) noexcept {

  00000	55		 push	 ebp
  00001	8b ec		 mov	 ebp, esp
  00003	51		 push	 ecx
  00004	56		 push	 esi

; 745  :         while (!_Rootnode->_Isnil) { // free subtrees, then node

  00005	8b 75 0c	 mov	 esi, DWORD PTR __Rootnode$[ebp]
  00008	8b c1		 mov	 eax, ecx
  0000a	89 45 fc	 mov	 DWORD PTR _this$1$[ebp], eax
  0000d	80 7e 0d 00	 cmp	 BYTE PTR [esi+13], 0
  00011	75 32		 jne	 SHORT $LN3@Erase_tree
  00013	53		 push	 ebx
  00014	8b 5d 08	 mov	 ebx, DWORD PTR __Al$[ebp]
  00017	57		 push	 edi
$LL2@Erase_tree:

; 746  :             _Erase_tree(_Al, _Rootnode->_Right);

  00018	ff 76 08	 push	 DWORD PTR [esi+8]
  0001b	8b c8		 mov	 ecx, eax
  0001d	53		 push	 ebx
  0001e	e8 00 00 00 00	 call	 ??$_Erase_tree@V?$allocator@U?$_Tree_node@U?$pair@QBUSHitData@NRaceData@@V?$map@PAVCActorInstance@@MU?$less@PAVCActorInstance@@@std@@V?$allocator@U?$pair@QAVCActorInstance@@M@std@@@3@@std@@@std@@PAX@std@@@std@@@?$_Tree_val@U?$_Tree_simple_types@U?$pair@QBUSHitData@NRaceData@@V?$map@PAVCActorInstance@@MU?$less@PAVCActorInstance@@@std@@V?$allocator@U?$pair@QAVCActorInstance@@M@std@@@3@@std@@@std@@@std@@@std@@QAEXAAV?$allocator@U?$_Tree_node@U?$pair@QBUSHitData@NRaceData@@V?$map@PAVCActorInstance@@MU?$less@PAVCActorInstance@@@std@@V?$allocator@U?$pair@QAVCActorInstance@@M@std@@@3@@std@@@std@@PAX@std@@@1@PAU?$_Tree_node@U?$pair@QBUSHitData@NRaceData@@V?$map@PAVCActorInstance@@MU?$less@PAVCActorInstance@@@std@@V?$allocator@U?$pair@QAVCActorInstance@@M@std@@@3@@std@@@std@@PAX@1@@Z ; std::_Tree_val<std::_Tree_simple_types<std::pair<NRaceData::SHitData const * const,std::map<CActorInstance *,float,std::less<CActorInstance *>,std::allocator<std::pair<CActorInstance * const,float> > > > > >::_Erase_tree<std::allocator<std::_Tree_node<std::pair<NRaceData::SHitData const * const,std::map<CActorInstance *,float,std::less<CActorInstance *>,std::allocator<std::pair<CActorInstance * const,float> > > >,void *> > >
; File C:\Program Files\Microsoft Visual Studio\2022\Community\VC\Tools\MSVC\14.34.31933\include\utility

; 653  :     _Ty _Old_val = static_cast<_Ty&&>(_Val);

  00023	8b fe		 mov	 edi, esi

; 654  :     _Val         = static_cast<_Other&&>(_New_val);

  00025	8b 36		 mov	 esi, DWORD PTR [esi]
; File C:\Program Files\Microsoft Visual Studio\2022\Community\VC\Tools\MSVC\14.34.31933\include\xtree

; 382  :         allocator_traits<_Alloc>::destroy(_Al, _STD addressof(_Ptr->_Myval));

  00027	8d 4f 14	 lea	 ecx, DWORD PTR [edi+20]
  0002a	e8 00 00 00 00	 call	 ??1?$_Tree@V?$_Tmap_traits@PAVCActorInstance@@MU?$less@PAVCActorInstance@@@std@@V?$allocator@U?$pair@QAVCActorInstance@@M@std@@@3@$0A@@std@@@std@@QAE@XZ ; std::_Tree<std::_Tmap_traits<CActorInstance *,float,std::less<CActorInstance *>,std::allocator<std::pair<CActorInstance * const,float> >,0> >::~_Tree<std::_Tmap_traits<CActorInstance *,float,std::less<CActorInstance *>,std::allocator<std::pair<CActorInstance * const,float> >,0> >
; File C:\Program Files\Microsoft Visual Studio\2022\Community\VC\Tools\MSVC\14.34.31933\include\xmemory

; 255  :         ::operator delete(_Ptr, _Bytes);

  0002f	6a 1c		 push	 28			; 0000001cH
  00031	57		 push	 edi
  00032	e8 00 00 00 00	 call	 ??3@YAXPAXI@Z		; operator delete
; File C:\Program Files\Microsoft Visual Studio\2022\Community\VC\Tools\MSVC\14.34.31933\include\xtree

; 745  :         while (!_Rootnode->_Isnil) { // free subtrees, then node

  00037	8b 45 fc	 mov	 eax, DWORD PTR _this$1$[ebp]
; File C:\Program Files\Microsoft Visual Studio\2022\Community\VC\Tools\MSVC\14.34.31933\include\xmemory

; 255  :         ::operator delete(_Ptr, _Bytes);

  0003a	83 c4 08	 add	 esp, 8
; File C:\Program Files\Microsoft Visual Studio\2022\Community\VC\Tools\MSVC\14.34.31933\include\xtree

; 745  :         while (!_Rootnode->_Isnil) { // free subtrees, then node

  0003d	80 7e 0d 00	 cmp	 BYTE PTR [esi+13], 0
  00041	74 d5		 je	 SHORT $LL2@Erase_tree
  00043	5f		 pop	 edi
  00044	5b		 pop	 ebx
$LN3@Erase_tree:
  00045	5e		 pop	 esi

; 747  :             _Alnode::value_type::_Freenode(_Al, _STD exchange(_Rootnode, _Rootnode->_Left));
; 748  :         }
; 749  :     }

  00046	8b e5		 mov	 esp, ebp
  00048	5d		 pop	 ebp
  00049	c2 08 00	 ret	 8
??$_Erase_tree@V?$allocator@U?$_Tree_node@U?$pair@QBUSHitData@NRaceData@@V?$map@PAVCActorInstance@@MU?$less@PAVCActorInstance@@@std@@V?$allocator@U?$pair@QAVCActorInstance@@M@std@@@3@@std@@@std@@PAX@std@@@std@@@?$_Tree_val@U?$_Tree_simple_types@U?$pair@QBUSHitData@NRaceData@@V?$map@PAVCActorInstance@@MU?$less@PAVCActorInstance@@@std@@V?$allocator@U?$pair@QAVCActorInstance@@M@std@@@3@@std@@@std@@@std@@@std@@QAEXAAV?$allocator@U?$_Tree_node@U?$pair@QBUSHitData@NRaceData@@V?$map@PAVCActorInstance@@MU?$less@PAVCActorInstance@@@std@@V?$allocator@U?$pair@QAVCActorInstance@@M@std@@@3@@std@@@std@@PAX@std@@@1@PAU?$_Tree_node@U?$pair@QBUSHitData@NRaceData@@V?$map@PAVCActorInstance@@MU?$less@PAVCActorInstance@@@std@@V?$allocator@U?$pair@QAVCActorInstance@@M@std@@@3@@std@@@std@@PAX@1@@Z ENDP ; std::_Tree_val<std::_Tree_simple_types<std::pair<NRaceData::SHitData const * const,std::map<CActorInstance *,float,std::less<CActorInstance *>,std::allocator<std::pair<CActorInstance * const,float> > > > > >::_Erase_tree<std::allocator<std::_Tree_node<std::pair<NRaceData::SHitData const * const,std::map<CActorInstance *,float,std::less<CActorInstance *>,std::allocator<std::pair<CActorInstance * const,float> > > >,void *> > >
_TEXT	ENDS
; Function compile flags: /Ogtp
;	COMDAT ??_GCActorInstance@@UAEPAXI@Z
_TEXT	SEGMENT
___flags$ = 8						; size = 4
??_GCActorInstance@@UAEPAXI@Z PROC			; CActorInstance::`scalar deleting destructor', COMDAT
; _this$ = ecx
  00000	55		 push	 ebp
  00001	8b ec		 mov	 ebp, esp
  00003	56		 push	 esi
  00004	8b f1		 mov	 esi, ecx
  00006	e8 00 00 00 00	 call	 ??1CActorInstance@@UAE@XZ ; CActorInstance::~CActorInstance
  0000b	f6 45 08 01	 test	 BYTE PTR ___flags$[ebp], 1
  0000f	74 0e		 je	 SHORT $LN4@scalar
  00011	68 cc 05 00 00	 push	 1484			; 000005ccH
  00016	56		 push	 esi
  00017	e8 00 00 00 00	 call	 ??3@YAXPAXI@Z		; operator delete
  0001c	83 c4 08	 add	 esp, 8
$LN4@scalar:
  0001f	8b c6		 mov	 eax, esi
  00021	5e		 pop	 esi
  00022	5d		 pop	 ebp
  00023	c2 04 00	 ret	 4
??_GCActorInstance@@UAEPAXI@Z ENDP			; CActorInstance::`scalar deleting destructor'
_TEXT	ENDS
; Function compile flags: /Ogtp
; File C:\Users\flourine\Desktop\Xantios\client-src\Code\GameLib\ActorInstance.cpp
;	COMDAT ?__SetTreePosition@CActorInstance@@QAEXMMM@Z
_TEXT	SEGMENT
_fx$ = 8						; size = 4
_fy$ = 12						; size = 4
_fz$ = 16						; size = 4
?__SetTreePosition@CActorInstance@@QAEXMMM@Z PROC	; CActorInstance::__SetTreePosition, COMDAT
; _this$ = ecx

; 944  : {

  00000	55		 push	 ebp
  00001	8b ec		 mov	 ebp, esp
  00003	56		 push	 esi
  00004	8b f1		 mov	 esi, ecx

; 945  : 	if (!m_pkTree)

  00006	8b 8e 98 05 00
	00		 mov	 ecx, DWORD PTR [esi+1432]
  0000c	85 c9		 test	 ecx, ecx
  0000e	74 73		 je	 SHORT $LN1@SetTreePos

; 946  : 	{
; 947  : 		return;
; 948  : 	}
; 949  : 	if (m_x == fx && m_y == fy && m_z == fz)

  00010	f3 0f 10 86 ac
	04 00 00	 movss	 xmm0, DWORD PTR [esi+1196]
  00018	f3 0f 10 5d 08	 movss	 xmm3, DWORD PTR _fx$[ebp]
  0001d	f3 0f 10 4d 10	 movss	 xmm1, DWORD PTR _fz$[ebp]
  00022	f3 0f 10 55 0c	 movss	 xmm2, DWORD PTR _fy$[ebp]
  00027	0f 2e c3	 ucomiss xmm0, xmm3
  0002a	9f		 lahf
  0002b	f6 c4 44	 test	 ah, 68			; 00000044H
  0002e	7a 22		 jp	 SHORT $LN3@SetTreePos
  00030	f3 0f 10 86 b0
	04 00 00	 movss	 xmm0, DWORD PTR [esi+1200]
  00038	0f 2e c2	 ucomiss xmm0, xmm2
  0003b	9f		 lahf
  0003c	f6 c4 44	 test	 ah, 68			; 00000044H
  0003f	7a 11		 jp	 SHORT $LN3@SetTreePos
  00041	f3 0f 10 86 b4
	04 00 00	 movss	 xmm0, DWORD PTR [esi+1204]
  00049	0f 2e c1	 ucomiss xmm0, xmm1
  0004c	9f		 lahf
  0004d	f6 c4 44	 test	 ah, 68			; 00000044H
  00050	7b 31		 jnp	 SHORT $LN1@SetTreePos
$LN3@SetTreePos:

; 950  : 	{
; 951  : 		return;
; 952  : 	}
; 953  : 
; 954  : 	m_pkTree->SetPosition(fx, fy, fz);

  00052	8b 01		 mov	 eax, DWORD PTR [ecx]
  00054	83 ec 0c	 sub	 esp, 12			; 0000000cH
  00057	f3 0f 11 4c 24
	08		 movss	 DWORD PTR [esp+8], xmm1
  0005d	f3 0f 11 54 24
	04		 movss	 DWORD PTR [esp+4], xmm2
  00063	f3 0f 11 1c 24	 movss	 DWORD PTR [esp], xmm3
  00068	ff 50 3c	 call	 DWORD PTR [eax+60]

; 955  : 	m_pkTree->UpdateBoundingSphere();

  0006b	8b 8e 98 05 00
	00		 mov	 ecx, DWORD PTR [esi+1432]
  00071	e8 00 00 00 00	 call	 ?UpdateBoundingSphere@CGraphicObjectInstance@@QAEXXZ ; CGraphicObjectInstance::UpdateBoundingSphere

; 956  : 	m_pkTree->UpdateCollisionData();

  00076	8b 8e 98 05 00
	00		 mov	 ecx, DWORD PTR [esi+1432]
  0007c	6a 00		 push	 0
  0007e	e8 00 00 00 00	 call	 ?UpdateCollisionData@CGraphicObjectInstance@@QAEXPBV?$vector@VCStaticCollisionData@@V?$allocator@VCStaticCollisionData@@@std@@@std@@@Z ; CGraphicObjectInstance::UpdateCollisionData
$LN1@SetTreePos:
  00083	5e		 pop	 esi

; 957  : }

  00084	5d		 pop	 ebp
  00085	c2 0c 00	 ret	 12			; 0000000cH
?__SetTreePosition@CActorInstance@@QAEXMMM@Z ENDP	; CActorInstance::__SetTreePosition
_TEXT	ENDS
; Function compile flags: /Ogtp
; File C:\Users\flourine\Desktop\Xantios\client-src\Code\GameLib\ActorInstance.cpp
;	COMDAT ?__DestroyTree@CActorInstance@@QAEXXZ
_TEXT	SEGMENT
?__DestroyTree@CActorInstance@@QAEXXZ PROC		; CActorInstance::__DestroyTree, COMDAT
; _this$ = ecx

; 935  : 	if (!m_pkTree)

  00000	8b 81 98 05 00
	00		 mov	 eax, DWORD PTR [ecx+1432]
  00006	85 c0		 test	 eax, eax
  00008	74 0c		 je	 SHORT $LN1@DestroyTre

; 936  : 	{
; 937  : 		return;
; 938  : 	}
; 939  : 
; 940  : 	CSpeedTreeForest::Instance().DeleteInstance(m_pkTree);

  0000a	8b 0d 00 00 00
	00		 mov	 ecx, DWORD PTR ?ms_singleton@?$CSingleton@VCSpeedTreeForest@@@@0PAVCSpeedTreeForest@@A ; CSingleton<CSpeedTreeForest>::ms_singleton
  00010	50		 push	 eax
  00011	e8 00 00 00 00	 call	 ?DeleteInstance@CSpeedTreeForest@@QAEXPAVCSpeedTreeWrapper@@@Z ; CSpeedTreeForest::DeleteInstance
$LN1@DestroyTre:

; 941  : }

  00016	c3		 ret	 0
?__DestroyTree@CActorInstance@@QAEXXZ ENDP		; CActorInstance::__DestroyTree
_TEXT	ENDS
; Function compile flags: /Ogtp
; File C:\Users\flourine\Desktop\Xantios\client-src\Code\GameLib\ActorInstance.cpp
;	COMDAT ?__CreateTree@CActorInstance@@QAEXPBD@Z
_TEXT	SEGMENT
_c_szFileName$ = 8					; size = 4
?__CreateTree@CActorInstance@@QAEXPBD@Z PROC		; CActorInstance::__CreateTree, COMDAT
; _this$ = ecx

; 923  : {

  00000	55		 push	 ebp
  00001	8b ec		 mov	 ebp, esp
  00003	53		 push	 ebx
  00004	56		 push	 esi
  00005	57		 push	 edi
  00006	8b f1		 mov	 esi, ecx

; 924  : 	__DestroyTree();

  00008	e8 00 00 00 00	 call	 ?__DestroyTree@CActorInstance@@QAEXXZ ; CActorInstance::__DestroyTree

; 925  : 
; 926  : 	CSpeedTreeForest& rkForest = CSpeedTreeForest::Instance();
; 927  : 	m_pkTree = rkForest.CreateInstance(m_x, m_y, m_z, GetCaseCRC32(c_szFileName, strlen(c_szFileName)), c_szFileName);

  0000d	8b 7d 08	 mov	 edi, DWORD PTR _c_szFileName$[ebp]
  00010	8b d7		 mov	 edx, edi
  00012	8b 1d 00 00 00
	00		 mov	 ebx, DWORD PTR ?ms_singleton@?$CSingleton@VCSpeedTreeForest@@@@0PAVCSpeedTreeForest@@A ; CSingleton<CSpeedTreeForest>::ms_singleton
  00018	8d 4a 01	 lea	 ecx, DWORD PTR [edx+1]
  0001b	0f 1f 44 00 00	 npad	 5
$LL3@CreateTree:
  00020	8a 02		 mov	 al, BYTE PTR [edx]
  00022	42		 inc	 edx
  00023	84 c0		 test	 al, al
  00025	75 f9		 jne	 SHORT $LL3@CreateTree
  00027	2b d1		 sub	 edx, ecx
  00029	52		 push	 edx
  0002a	57		 push	 edi
  0002b	e8 00 00 00 00	 call	 ?GetCaseCRC32@@YAKPBDI@Z ; GetCaseCRC32
  00030	f3 0f 10 86 b4
	04 00 00	 movss	 xmm0, DWORD PTR [esi+1204]
  00038	83 c4 08	 add	 esp, 8
  0003b	f3 0f 10 8e b0
	04 00 00	 movss	 xmm1, DWORD PTR [esi+1200]
  00043	8b cb		 mov	 ecx, ebx
  00045	f3 0f 10 96 ac
	04 00 00	 movss	 xmm2, DWORD PTR [esi+1196]
  0004d	57		 push	 edi
  0004e	50		 push	 eax
  0004f	83 ec 0c	 sub	 esp, 12			; 0000000cH
  00052	f3 0f 11 44 24
	08		 movss	 DWORD PTR [esp+8], xmm0
  00058	f3 0f 11 4c 24
	04		 movss	 DWORD PTR [esp+4], xmm1
  0005e	f3 0f 11 14 24	 movss	 DWORD PTR [esp], xmm2
  00063	e8 00 00 00 00	 call	 ?CreateInstance@CSpeedTreeForest@@QAEPAVCSpeedTreeWrapper@@MMMKPBD@Z ; CSpeedTreeForest::CreateInstance

; 928  : 	m_pkTree->SetPosition(m_x, m_y, m_z);

  00068	f3 0f 10 86 b4
	04 00 00	 movss	 xmm0, DWORD PTR [esi+1204]
  00070	83 ec 0c	 sub	 esp, 12			; 0000000cH
  00073	89 86 98 05 00
	00		 mov	 DWORD PTR [esi+1432], eax
  00079	8b c8		 mov	 ecx, eax
  0007b	8b 10		 mov	 edx, DWORD PTR [eax]
  0007d	f3 0f 11 44 24
	08		 movss	 DWORD PTR [esp+8], xmm0
  00083	f3 0f 10 86 b0
	04 00 00	 movss	 xmm0, DWORD PTR [esi+1200]
  0008b	f3 0f 11 44 24
	04		 movss	 DWORD PTR [esp+4], xmm0
  00091	f3 0f 10 86 ac
	04 00 00	 movss	 xmm0, DWORD PTR [esi+1196]
  00099	f3 0f 11 04 24	 movss	 DWORD PTR [esp], xmm0
  0009e	ff 52 3c	 call	 DWORD PTR [edx+60]

; 929  : 	m_pkTree->UpdateBoundingSphere();

  000a1	8b 8e 98 05 00
	00		 mov	 ecx, DWORD PTR [esi+1432]
  000a7	e8 00 00 00 00	 call	 ?UpdateBoundingSphere@CGraphicObjectInstance@@QAEXXZ ; CGraphicObjectInstance::UpdateBoundingSphere

; 930  : 	m_pkTree->UpdateCollisionData();

  000ac	8b 8e 98 05 00
	00		 mov	 ecx, DWORD PTR [esi+1432]
  000b2	6a 00		 push	 0
  000b4	e8 00 00 00 00	 call	 ?UpdateCollisionData@CGraphicObjectInstance@@QAEXPBV?$vector@VCStaticCollisionData@@V?$allocator@VCStaticCollisionData@@@std@@@std@@@Z ; CGraphicObjectInstance::UpdateCollisionData
  000b9	5f		 pop	 edi
  000ba	5e		 pop	 esi
  000bb	5b		 pop	 ebx

; 931  : }

  000bc	5d		 pop	 ebp
  000bd	c2 04 00	 ret	 4
?__CreateTree@CActorInstance@@QAEXPBD@Z ENDP		; CActorInstance::__CreateTree
_TEXT	ENDS
; Function compile flags: /Ogtp
; File C:\Users\flourine\Desktop\Xantios\client-src\Code\GameLib\ActorInstance.cpp
;	COMDAT ?__InitializeRotationData@CActorInstance@@IAEXXZ
_TEXT	SEGMENT
?__InitializeRotationData@CActorInstance@@IAEXXZ PROC	; CActorInstance::__InitializeRotationData, COMDAT
; _this$ = ecx

; 992  : 	m_fAtkDirRot = 0.0f;

  00000	c7 81 60 04 00
	00 00 00 00 00	 mov	 DWORD PTR [ecx+1120], 0

; 993  : 	m_fcurRotation = 0.0f;

  0000a	c7 81 e4 04 00
	00 00 00 00 00	 mov	 DWORD PTR [ecx+1252], 0

; 994  : 	m_rotBegin = 0.0f;

  00014	c7 81 e8 04 00
	00 00 00 00 00	 mov	 DWORD PTR [ecx+1256], 0

; 995  : 	m_rotEnd = 0.0f;

  0001e	c7 81 ec 04 00
	00 00 00 00 00	 mov	 DWORD PTR [ecx+1260], 0

; 996  : 	m_rotEndTime = 0.0f;

  00028	c7 81 f0 04 00
	00 00 00 00 00	 mov	 DWORD PTR [ecx+1264], 0

; 997  : 	m_rotBeginTime = 0.0f;

  00032	c7 81 f4 04 00
	00 00 00 00 00	 mov	 DWORD PTR [ecx+1268], 0

; 998  : 	m_rotBlendTime = 0.0f;

  0003c	c7 81 f8 04 00
	00 00 00 00 00	 mov	 DWORD PTR [ecx+1272], 0

; 999  : 	m_fAdvancingRotation = 0.0f;

  00046	c7 81 fc 04 00
	00 00 00 00 00	 mov	 DWORD PTR [ecx+1276], 0

; 1000 : 	m_rotX = 0.0f;

  00050	c7 81 00 05 00
	00 00 00 00 00	 mov	 DWORD PTR [ecx+1280], 0

; 1001 : 	m_rotY = 0.0f;

  0005a	c7 81 04 05 00
	00 00 00 00 00	 mov	 DWORD PTR [ecx+1284], 0

; 1002 : }

  00064	c3		 ret	 0
?__InitializeRotationData@CActorInstance@@IAEXXZ ENDP	; CActorInstance::__InitializeRotationData
_TEXT	ENDS
; Function compile flags: /Ogtp
; File C:\Users\flourine\Desktop\Xantios\client-src\Code\GameLib\ActorInstance.cpp
; File C:\Program Files\Microsoft Visual Studio\2022\Community\VC\Tools\MSVC\14.34.31933\include\vector
; File C:\Program Files\Microsoft Visual Studio\2022\Community\VC\Tools\MSVC\14.34.31933\include\xtree
; File C:\Users\flourine\Desktop\Xantios\client-src\Code\GameLib\ActorInstance.cpp
; File C:\Program Files\Microsoft Visual Studio\2022\Community\VC\Tools\MSVC\14.34.31933\include\xtree
; File C:\Program Files\Microsoft Visual Studio\2022\Community\VC\Tools\MSVC\14.34.31933\include\utility
; File C:\Program Files\Microsoft Visual Studio\2022\Community\VC\Tools\MSVC\14.34.31933\include\xmemory
; File C:\Program Files\Microsoft Visual Studio\2022\Community\VC\Tools\MSVC\14.34.31933\include\xtree
; File C:\Users\flourine\Desktop\Xantios\client-src\Code\GameLib\ActorInstance.cpp
; File C:\Program Files\Microsoft Visual Studio\2022\Community\VC\Tools\MSVC\14.34.31933\include\xtree
; File C:\Users\flourine\Desktop\Xantios\client-src\Code\GameLib\ActorInstance.cpp
;	COMDAT ?__InitializeMotionData@CActorInstance@@IAEXXZ
_TEXT	SEGMENT
__Head$1$ = -4						; size = 4
?__InitializeMotionData@CActorInstance@@IAEXXZ PROC	; CActorInstance::__InitializeMotionData, COMDAT
; _this$ = ecx

; 1037 : {

  00000	55		 push	 ebp
  00001	8b ec		 mov	 ebp, esp
  00003	51		 push	 ecx
  00004	53		 push	 ebx
  00005	56		 push	 esi
  00006	57		 push	 edi
  00007	8b f9		 mov	 edi, ecx

; 1038 : 	m_wcurMotionMode = CRaceMotionData::MODE_GENERAL;

  00009	b8 01 00 00 00	 mov	 eax, 1
  0000e	66 89 87 78 03
	00 00		 mov	 WORD PTR [edi+888], ax

; 1039 : 	m_wcurComboType = 0;

  00015	33 c0		 xor	 eax, eax
  00017	66 89 87 5c 04
	00 00		 mov	 WORD PTR [edi+1116], ax

; 1040 : 
; 1041 : 	m_fReachScale = 1.0f;

  0001e	c7 87 d8 04 00
	00 00 00 80 3f	 mov	 DWORD PTR [edi+1240], 1065353216 ; 3f800000H

; 1042 : 	m_fMovSpd = 1.0f;

  00028	c7 87 dc 04 00
	00 00 00 80 3f	 mov	 DWORD PTR [edi+1244], 1065353216 ; 3f800000H

; 1043 : 	m_fAtkSpd = 1.0f;

  00032	c7 87 e0 04 00
	00 00 00 80 3f	 mov	 DWORD PTR [edi+1248], 1065353216 ; 3f800000H

; 1044 : 
; 1045 : 	m_fInvisibleTime = 0.0f;

  0003c	89 87 6c 04 00
	00		 mov	 DWORD PTR [edi+1132], eax

; 1046 : 
; 1047 : 	m_kSplashArea.isEnableHitProcess = TRUE;

  00042	c7 87 8c 03 00
	00 01 00 00 00	 mov	 DWORD PTR [edi+908], 1

; 1048 : 	m_kSplashArea.uSkill = 0;

  0004c	89 87 90 03 00
	00		 mov	 DWORD PTR [edi+912], eax

; 1049 : 	m_kSplashArea.MotionKey = 0;

  00052	89 87 94 03 00
	00		 mov	 DWORD PTR [edi+916], eax

; 1050 : 	m_kSplashArea.fDisappearingTime = 0.0f;

  00058	89 87 98 03 00
	00		 mov	 DWORD PTR [edi+920], eax
; File C:\Program Files\Microsoft Visual Studio\2022\Community\VC\Tools\MSVC\14.34.31933\include\vector

; 1829 :         if (_Myfirst == _Mylast) { // already empty, nothing to do

  0005e	8b 87 a0 03 00
	00		 mov	 eax, DWORD PTR [edi+928]
  00064	3b 87 a4 03 00
	00		 cmp	 eax, DWORD PTR [edi+932]
  0006a	74 06		 je	 SHORT $LN3@Initialize

; 1830 :             // This is an optimization for debug mode: we can avoid taking the debug lock to invalidate iterators.
; 1831 :             // Note that when clearing an empty vector, this will preserve past-the-end iterators, which is allowed by
; 1832 :             // N4901 [tab:container.seq.req] "a.clear() [...] may invalidate the past-the-end iterator".
; 1833 :             return;
; 1834 :         }
; 1835 : 
; 1836 :         _My_data._Orphan_all();
; 1837 :         _Destroy_range(_Myfirst, _Mylast, _Getal());
; 1838 :         _ASAN_VECTOR_MODIFY(static_cast<difference_type>(_Myfirst - _Mylast)); // negative when destroying elements
; 1839 :         _Mylast = _Myfirst;

  0006c	89 87 a4 03 00
	00		 mov	 DWORD PTR [edi+932], eax
$LN3@Initialize:
; File C:\Program Files\Microsoft Visual Studio\2022\Community\VC\Tools\MSVC\14.34.31933\include\xtree

; 1356 :         auto _Head = _Scary->_Myhead;

  00072	8b 87 ac 03 00
	00		 mov	 eax, DWORD PTR [edi+940]
; File C:\Users\flourine\Desktop\Xantios\client-src\Code\GameLib\ActorInstance.cpp

; 1052 : 	m_kSplashArea.HittedInstanceMap.clear();

  00078	8d 9f ac 03 00
	00		 lea	 ebx, DWORD PTR [edi+940]
; File C:\Program Files\Microsoft Visual Studio\2022\Community\VC\Tools\MSVC\14.34.31933\include\xtree

; 1356 :         auto _Head = _Scary->_Myhead;

  0007e	89 45 fc	 mov	 DWORD PTR __Head$1$[ebp], eax

; 1357 :         _Scary->_Erase_tree(_Getal(), _Head->_Parent);

  00081	8b 70 04	 mov	 esi, DWORD PTR [eax+4]

; 745  :         while (!_Rootnode->_Isnil) { // free subtrees, then node

  00084	80 7e 0d 00	 cmp	 BYTE PTR [esi+13], 0
  00088	75 29		 jne	 SHORT $LN10@Initialize
  0008a	66 0f 1f 44 00
	00		 npad	 6
$LL9@Initialize:

; 746  :             _Erase_tree(_Al, _Rootnode->_Right);

  00090	ff 76 08	 push	 DWORD PTR [esi+8]
  00093	8b cb		 mov	 ecx, ebx
  00095	53		 push	 ebx
  00096	e8 00 00 00 00	 call	 ??$_Erase_tree@V?$allocator@U?$_Tree_node@U?$pair@QAVCActorInstance@@M@std@@PAX@std@@@std@@@?$_Tree_val@U?$_Tree_simple_types@U?$pair@QAVCActorInstance@@M@std@@@std@@@std@@QAEXAAV?$allocator@U?$_Tree_node@U?$pair@QAVCActorInstance@@M@std@@PAX@std@@@1@PAU?$_Tree_node@U?$pair@QAVCActorInstance@@M@std@@PAX@1@@Z ; std::_Tree_val<std::_Tree_simple_types<std::pair<CActorInstance * const,float> > >::_Erase_tree<std::allocator<std::_Tree_node<std::pair<CActorInstance * const,float>,void *> > >
; File C:\Program Files\Microsoft Visual Studio\2022\Community\VC\Tools\MSVC\14.34.31933\include\utility

; 653  :     _Ty _Old_val = static_cast<_Ty&&>(_Val);

  0009b	8b c6		 mov	 eax, esi

; 654  :     _Val         = static_cast<_Other&&>(_New_val);

  0009d	8b 36		 mov	 esi, DWORD PTR [esi]
; File C:\Program Files\Microsoft Visual Studio\2022\Community\VC\Tools\MSVC\14.34.31933\include\xmemory

; 255  :         ::operator delete(_Ptr, _Bytes);

  0009f	6a 18		 push	 24			; 00000018H
  000a1	50		 push	 eax
  000a2	e8 00 00 00 00	 call	 ??3@YAXPAXI@Z		; operator delete
  000a7	83 c4 08	 add	 esp, 8
; File C:\Program Files\Microsoft Visual Studio\2022\Community\VC\Tools\MSVC\14.34.31933\include\xtree

; 745  :         while (!_Rootnode->_Isnil) { // free subtrees, then node

  000aa	80 7e 0d 00	 cmp	 BYTE PTR [esi+13], 0
  000ae	74 e0		 je	 SHORT $LL9@Initialize
  000b0	8b 45 fc	 mov	 eax, DWORD PTR __Head$1$[ebp]
$LN10@Initialize:

; 1358 :         _Head->_Parent  = _Head;

  000b3	89 40 04	 mov	 DWORD PTR [eax+4], eax
  000b6	0f 57 c0	 xorps	 xmm0, xmm0

; 1359 :         _Head->_Left    = _Head;

  000b9	89 00		 mov	 DWORD PTR [eax], eax
; File C:\Users\flourine\Desktop\Xantios\client-src\Code\GameLib\ActorInstance.cpp

; 1056 : 	__ClearCombo();

  000bb	8b cf		 mov	 ecx, edi
; File C:\Program Files\Microsoft Visual Studio\2022\Community\VC\Tools\MSVC\14.34.31933\include\xtree

; 1360 :         _Head->_Right   = _Head;

  000bd	89 40 08	 mov	 DWORD PTR [eax+8], eax

; 1361 :         _Scary->_Mysize = 0;

  000c0	c7 43 04 00 00
	00 00		 mov	 DWORD PTR [ebx+4], 0
; File C:\Users\flourine\Desktop\Xantios\client-src\Code\GameLib\ActorInstance.cpp

; 1054 : 	memset(&m_kCurMotNode, 0, sizeof(m_kCurMotNode));

  000c7	0f 11 87 54 03
	00 00		 movups	 XMMWORD PTR [edi+852], xmm0
  000ce	0f 11 87 64 03
	00 00		 movups	 XMMWORD PTR [edi+868], xmm0
  000d5	c7 87 74 03 00
	00 00 00 00 00	 mov	 DWORD PTR [edi+884], 0

; 1056 : 	__ClearCombo();

  000df	e8 00 00 00 00	 call	 ?__ClearCombo@CActorInstance@@IAEXXZ ; CActorInstance::__ClearCombo
  000e4	5f		 pop	 edi
  000e5	5e		 pop	 esi
  000e6	5b		 pop	 ebx

; 1057 : }

  000e7	8b e5		 mov	 esp, ebp
  000e9	5d		 pop	 ebp
  000ea	c3		 ret	 0
?__InitializeMotionData@CActorInstance@@IAEXXZ ENDP	; CActorInstance::__InitializeMotionData
_TEXT	ENDS
; Function compile flags: /Ogtp
; File C:\Users\flourine\Desktop\Xantios\client-src\Code\GameLib\ActorInstance.cpp
; File C:\Users\flourine\Desktop\Xantios\client-src\extern\include\directX\d3dx9math.inl
; File C:\Users\flourine\Desktop\Xantios\client-src\Code\GameLib\ActorInstance.cpp
;	COMDAT ?__InitializeStateData@CActorInstance@@IAEXXZ
_TEXT	SEGMENT
?__InitializeStateData@CActorInstance@@IAEXXZ PROC	; CActorInstance::__InitializeStateData, COMDAT
; _this$ = ecx
; File C:\Users\flourine\Desktop\Xantios\client-src\extern\include\directX\d3dx9math.inl

; 1398 :     r = fr;

  00000	0f 28 05 00 00
	00 00		 movaps	 xmm0, XMMWORD PTR __xmm@3f800000000000000000000000000000
; File C:\Users\flourine\Desktop\Xantios\client-src\Code\GameLib\ActorInstance.cpp

; 1007 : 	m_bEffectInitialized = false;

  00007	66 c7 81 44 05
	00 00 00 00	 mov	 WORD PTR [ecx+1348], 0

; 1008 : 
; 1009 : 	m_isPreInput = FALSE;

  00010	c7 81 50 04 00
	00 00 00 00 00	 mov	 DWORD PTR [ecx+1104], 0

; 1010 : 	m_isNextPreInput = FALSE;

  0001a	c7 81 54 04 00
	00 00 00 00 00	 mov	 DWORD PTR [ecx+1108], 0

; 1011 : 
; 1012 : 	m_isSleep = FALSE;

  00024	c7 81 78 04 00
	00 00 00 00 00	 mov	 DWORD PTR [ecx+1144], 0

; 1013 : 	m_isParalysis = FALSE;

  0002e	c7 81 80 04 00
	00 00 00 00 00	 mov	 DWORD PTR [ecx+1152], 0

; 1014 : 	m_isFaint = FALSE;

  00038	c7 81 7c 04 00
	00 00 00 00 00	 mov	 DWORD PTR [ecx+1148], 0

; 1015 : 	m_isRealDead = FALSE;

  00042	c7 81 88 04 00
	00 00 00 00 00	 mov	 DWORD PTR [ecx+1160], 0

; 1016 : 	m_isWalking = FALSE;

  0004c	c7 81 8c 04 00
	00 00 00 00 00	 mov	 DWORD PTR [ecx+1164], 0

; 1017 : 	m_isMain = FALSE;

  00056	c7 81 90 04 00
	00 00 00 00 00	 mov	 DWORD PTR [ecx+1168], 0

; 1018 : 	m_isStun = FALSE;

  00060	c7 81 84 04 00
	00 00 00 00 00	 mov	 DWORD PTR [ecx+1156], 0

; 1019 : 	m_isHiding = FALSE;

  0006a	c7 81 70 04 00
	00 00 00 00 00	 mov	 DWORD PTR [ecx+1136], 0

; 1020 : 	m_isResistFallen = FALSE;

  00074	c7 81 74 04 00
	00 00 00 00 00	 mov	 DWORD PTR [ecx+1140], 0

; 1021 : 
; 1022 : 	m_iRenderMode = RENDER_MODE_NORMAL;

  0007e	c7 81 0c 05 00
	00 00 00 00 00	 mov	 DWORD PTR [ecx+1292], 0

; 1023 : 	m_fAlphaValue = 0.0f;

  00088	c7 81 20 05 00
	00 00 00 00 00	 mov	 DWORD PTR [ecx+1312], 0

; 1024 : 	m_AddColor = D3DXCOLOR(0.0f, 0.0f, 0.0f, 1.0f);

  00092	0f 11 81 10 05
	00 00		 movups	 XMMWORD PTR [ecx+1296], xmm0

; 1025 : 
; 1026 : 	m_dwMtrlColor = 0xffffffff;

  00099	c7 81 48 05 00
	00 ff ff ff ff	 mov	 DWORD PTR [ecx+1352], -1

; 1027 : 	m_dwMtrlAlpha = 0xff000000;

  000a3	c7 81 4c 05 00
	00 00 00 00 ff	 mov	 DWORD PTR [ecx+1356], -16777216 ; ff000000H

; 1028 : 
; 1029 : 	m_dwBattleHitEffectID = 0;

  000ad	c7 81 94 04 00
	00 00 00 00 00	 mov	 DWORD PTR [ecx+1172], 0

; 1030 : 	m_dwBattleAttachEffectID = 0;

  000b7	c7 81 98 04 00
	00 00 00 00 00	 mov	 DWORD PTR [ecx+1176], 0

; 1031 : #ifdef ENABLE_HIDE_EFFECTS
; 1032 : 	m_bIsHideEffect = false;
; 1033 : #endif
; 1034 : }

  000c1	c3		 ret	 0
?__InitializeStateData@CActorInstance@@IAEXXZ ENDP	; CActorInstance::__InitializeStateData
_TEXT	ENDS
; Function compile flags: /Ogtp
; File C:\Program Files\Microsoft Visual Studio\2022\Community\VC\Tools\MSVC\14.34.31933\include\xtree
; File C:\Program Files\Microsoft Visual Studio\2022\Community\VC\Tools\MSVC\14.34.31933\include\xmemory
;	COMDAT ??1?$map@PBUSHitData@NRaceData@@V?$map@PAVCActorInstance@@MU?$less@PAVCActorInstance@@@std@@V?$allocator@U?$pair@QAVCActorInstance@@M@std@@@3@@std@@U?$less@PBUSHitData@NRaceData@@@4@V?$allocator@U?$pair@QBUSHitData@NRaceData@@V?$map@PAVCActorInstance@@MU?$less@PAVCActorInstance@@@std@@V?$allocator@U?$pair@QAVCActorInstance@@M@std@@@3@@std@@@std@@@4@@std@@QAE@XZ
_TEXT	SEGMENT
??1?$map@PBUSHitData@NRaceData@@V?$map@PAVCActorInstance@@MU?$less@PAVCActorInstance@@@std@@V?$allocator@U?$pair@QAVCActorInstance@@M@std@@@3@@std@@U?$less@PBUSHitData@NRaceData@@@4@V?$allocator@U?$pair@QBUSHitData@NRaceData@@V?$map@PAVCActorInstance@@MU?$less@PAVCActorInstance@@@std@@V?$allocator@U?$pair@QAVCActorInstance@@M@std@@@3@@std@@@std@@@4@@std@@QAE@XZ PROC ; std::map<NRaceData::SHitData const *,std::map<CActorInstance *,float,std::less<CActorInstance *>,std::allocator<std::pair<CActorInstance * const,float> > >,std::less<NRaceData::SHitData const *>,std::allocator<std::pair<NRaceData::SHitData const * const,std::map<CActorInstance *,float,std::less<CActorInstance *>,std::allocator<std::pair<CActorInstance * const,float> > > > > >::~map<NRaceData::SHitData const *,std::map<CActorInstance *,float,std::less<CActorInstance *>,std::allocator<std::pair<CActorInstance * const,float> > >,std::less<NRaceData::SHitData const *>,std::allocator<std::pair<NRaceData::SHitData const * const,std::map<CActorInstance *,float,std::less<CActorInstance *>,std::allocator<std::pair<CActorInstance * const,float> > > > > >, COMDAT
; _this$ = ecx
; File C:\Program Files\Microsoft Visual Studio\2022\Community\VC\Tools\MSVC\14.34.31933\include\xtree

; 754  :         _Erase_tree(_Al, _Myhead->_Parent);

  00000	56		 push	 esi
  00001	8b f1		 mov	 esi, ecx
  00003	8b 06		 mov	 eax, DWORD PTR [esi]
  00005	ff 70 04	 push	 DWORD PTR [eax+4]
  00008	56		 push	 esi
  00009	e8 00 00 00 00	 call	 ??$_Erase_tree@V?$allocator@U?$_Tree_node@U?$pair@QBUSHitData@NRaceData@@V?$map@PAVCActorInstance@@MU?$less@PAVCActorInstance@@@std@@V?$allocator@U?$pair@QAVCActorInstance@@M@std@@@3@@std@@@std@@PAX@std@@@std@@@?$_Tree_val@U?$_Tree_simple_types@U?$pair@QBUSHitData@NRaceData@@V?$map@PAVCActorInstance@@MU?$less@PAVCActorInstance@@@std@@V?$allocator@U?$pair@QAVCActorInstance@@M@std@@@3@@std@@@std@@@std@@@std@@QAEXAAV?$allocator@U?$_Tree_node@U?$pair@QBUSHitData@NRaceData@@V?$map@PAVCActorInstance@@MU?$less@PAVCActorInstance@@@std@@V?$allocator@U?$pair@QAVCActorInstance@@M@std@@@3@@std@@@std@@PAX@std@@@1@PAU?$_Tree_node@U?$pair@QBUSHitData@NRaceData@@V?$map@PAVCActorInstance@@MU?$less@PAVCActorInstance@@@std@@V?$allocator@U?$pair@QAVCActorInstance@@M@std@@@3@@std@@@std@@PAX@1@@Z ; std::_Tree_val<std::_Tree_simple_types<std::pair<NRaceData::SHitData const * const,std::map<CActorInstance *,float,std::less<CActorInstance *>,std::allocator<std::pair<CActorInstance * const,float> > > > > >::_Erase_tree<std::allocator<std::_Tree_node<std::pair<NRaceData::SHitData const * const,std::map<CActorInstance *,float,std::less<CActorInstance *>,std::allocator<std::pair<CActorInstance * const,float> > > >,void *> > >
; File C:\Program Files\Microsoft Visual Studio\2022\Community\VC\Tools\MSVC\14.34.31933\include\xmemory

; 255  :         ::operator delete(_Ptr, _Bytes);

  0000e	6a 1c		 push	 28			; 0000001cH
  00010	ff 36		 push	 DWORD PTR [esi]
  00012	e8 00 00 00 00	 call	 ??3@YAXPAXI@Z		; operator delete
  00017	83 c4 08	 add	 esp, 8
  0001a	5e		 pop	 esi
  0001b	c3		 ret	 0
??1?$map@PBUSHitData@NRaceData@@V?$map@PAVCActorInstance@@MU?$less@PAVCActorInstance@@@std@@V?$allocator@U?$pair@QAVCActorInstance@@M@std@@@3@@std@@U?$less@PBUSHitData@NRaceData@@@4@V?$allocator@U?$pair@QBUSHitData@NRaceData@@V?$map@PAVCActorInstance@@MU?$less@PAVCActorInstance@@@std@@V?$allocator@U?$pair@QAVCActorInstance@@M@std@@@3@@std@@@std@@@4@@std@@QAE@XZ ENDP ; std::map<NRaceData::SHitData const *,std::map<CActorInstance *,float,std::less<CActorInstance *>,std::allocator<std::pair<CActorInstance * const,float> > >,std::less<NRaceData::SHitData const *>,std::allocator<std::pair<NRaceData::SHitData const * const,std::map<CActorInstance *,float,std::less<CActorInstance *>,std::allocator<std::pair<CActorInstance * const,float> > > > > >::~map<NRaceData::SHitData const *,std::map<CActorInstance *,float,std::less<CActorInstance *>,std::allocator<std::pair<CActorInstance * const,float> > >,std::less<NRaceData::SHitData const *>,std::allocator<std::pair<NRaceData::SHitData const * const,std::map<CActorInstance *,float,std::less<CActorInstance *>,std::allocator<std::pair<CActorInstance * const,float> > > > > >
_TEXT	ENDS
; Function compile flags: /Ogtp
; File C:\Program Files\Microsoft Visual Studio\2022\Community\VC\Tools\MSVC\14.34.31933\include\list
; File C:\Program Files\Microsoft Visual Studio\2022\Community\VC\Tools\MSVC\14.34.31933\include\xmemory
; File C:\Program Files\Microsoft Visual Studio\2022\Community\VC\Tools\MSVC\14.34.31933\include\list
; File C:\Program Files\Microsoft Visual Studio\2022\Community\VC\Tools\MSVC\14.34.31933\include\xmemory
; File C:\Program Files\Microsoft Visual Studio\2022\Community\VC\Tools\MSVC\14.34.31933\include\list
;	COMDAT ??1?$list@UTAttachingEffect@CActorInstance@@V?$allocator@UTAttachingEffect@CActorInstance@@@std@@@std@@QAE@XZ
_TEXT	SEGMENT
??1?$list@UTAttachingEffect@CActorInstance@@V?$allocator@UTAttachingEffect@CActorInstance@@@std@@@std@@QAE@XZ PROC ; std::list<CActorInstance::TAttachingEffect,std::allocator<CActorInstance::TAttachingEffect> >::~list<CActorInstance::TAttachingEffect,std::allocator<CActorInstance::TAttachingEffect> >, COMDAT
; _this$ = ecx

; 1042 :     ~list() noexcept {

  00000	57		 push	 edi
  00001	8b f9		 mov	 edi, ecx

; 1498 :         _Node::_Free_non_head(_Al, _My_data._Myhead);

  00003	8b 17		 mov	 edx, DWORD PTR [edi]

; 325  :         _Head->_Prev->_Next = nullptr;

  00005	8b 42 04	 mov	 eax, DWORD PTR [edx+4]
  00008	c7 00 00 00 00
	00		 mov	 DWORD PTR [eax], 0

; 326  : 
; 327  :         auto _Pnode = _Head->_Next;

  0000e	8b 02		 mov	 eax, DWORD PTR [edx]

; 328  :         for (_Nodeptr _Pnext; _Pnode; _Pnode = _Pnext) {

  00010	85 c0		 test	 eax, eax
  00012	74 15		 je	 SHORT $LN7@list
  00014	56		 push	 esi
$LL8@list:

; 329  :             _Pnext = _Pnode->_Next;

  00015	8b 30		 mov	 esi, DWORD PTR [eax]
; File C:\Program Files\Microsoft Visual Studio\2022\Community\VC\Tools\MSVC\14.34.31933\include\xmemory

; 255  :         ::operator delete(_Ptr, _Bytes);

  00017	6a 60		 push	 96			; 00000060H
  00019	50		 push	 eax
  0001a	e8 00 00 00 00	 call	 ??3@YAXPAXI@Z		; operator delete
  0001f	83 c4 08	 add	 esp, 8
; File C:\Program Files\Microsoft Visual Studio\2022\Community\VC\Tools\MSVC\14.34.31933\include\list

; 328  :         for (_Nodeptr _Pnext; _Pnode; _Pnode = _Pnext) {

  00022	8b c6		 mov	 eax, esi
  00024	85 f6		 test	 esi, esi
  00026	75 ed		 jne	 SHORT $LL8@list
  00028	5e		 pop	 esi
$LN7@list:
; File C:\Program Files\Microsoft Visual Studio\2022\Community\VC\Tools\MSVC\14.34.31933\include\xmemory

; 255  :         ::operator delete(_Ptr, _Bytes);

  00029	6a 60		 push	 96			; 00000060H
  0002b	ff 37		 push	 DWORD PTR [edi]
  0002d	e8 00 00 00 00	 call	 ??3@YAXPAXI@Z		; operator delete
  00032	83 c4 08	 add	 esp, 8
  00035	5f		 pop	 edi
; File C:\Program Files\Microsoft Visual Studio\2022\Community\VC\Tools\MSVC\14.34.31933\include\list

; 1048 :     }

  00036	c3		 ret	 0
??1?$list@UTAttachingEffect@CActorInstance@@V?$allocator@UTAttachingEffect@CActorInstance@@@std@@@std@@QAE@XZ ENDP ; std::list<CActorInstance::TAttachingEffect,std::allocator<CActorInstance::TAttachingEffect> >::~list<CActorInstance::TAttachingEffect,std::allocator<CActorInstance::TAttachingEffect> >
_TEXT	ENDS
; Function compile flags: /Ogtp
; File C:\Program Files\Microsoft Visual Studio\2022\Community\VC\Tools\MSVC\14.34.31933\include\vector
; File C:\Program Files\Microsoft Visual Studio\2022\Community\VC\Tools\MSVC\14.34.31933\include\xmemory
; File C:\Program Files\Microsoft Visual Studio\2022\Community\VC\Tools\MSVC\14.34.31933\include\vector
; File C:\Program Files\Microsoft Visual Studio\2022\Community\VC\Tools\MSVC\14.34.31933\include\xmemory
; File C:\Program Files\Microsoft Visual Studio\2022\Community\VC\Tools\MSVC\14.34.31933\include\vector
; File C:\Program Files\Microsoft Visual Studio\2022\Community\VC\Tools\MSVC\14.34.31933\include\xmemory
; File C:\Program Files\Microsoft Visual Studio\2022\Community\VC\Tools\MSVC\14.34.31933\include\vector
;	COMDAT ??1?$vector@PAVCWeaponTrace@@V?$allocator@PAVCWeaponTrace@@@std@@@std@@QAE@XZ
_TEXT	SEGMENT
??1?$vector@PAVCWeaponTrace@@V?$allocator@PAVCWeaponTrace@@@std@@@std@@QAE@XZ PROC ; std::vector<CWeaponTrace *,std::allocator<CWeaponTrace *> >::~vector<CWeaponTrace *,std::allocator<CWeaponTrace *> >, COMDAT
; _this$ = ecx

; 829  :     _CONSTEXPR20 ~vector() noexcept {

  00000	56		 push	 esi
  00001	8b f1		 mov	 esi, ecx

; 2107 :         if (_Myfirst) { // destroy and deallocate old array

  00003	8b 06		 mov	 eax, DWORD PTR [esi]
  00005	85 c0		 test	 eax, eax
  00007	74 40		 je	 SHORT $LN4@vector

; 2108 :             _Destroy_range(_Myfirst, _Mylast, _Al);
; 2109 :             _ASAN_VECTOR_REMOVE;
; 2110 :             _Al.deallocate(_Myfirst, static_cast<size_type>(_Myend - _Myfirst));

  00009	8b 4e 08	 mov	 ecx, DWORD PTR [esi+8]
  0000c	2b c8		 sub	 ecx, eax
; File C:\Program Files\Microsoft Visual Studio\2022\Community\VC\Tools\MSVC\14.34.31933\include\xmemory

; 830  :         _Deallocate<_New_alignof<_Ty>>(_Ptr, sizeof(_Ty) * _Count);

  0000e	83 e1 fc	 and	 ecx, -4			; fffffffcH

; 251  :         if (_Bytes >= _Big_allocation_threshold) { // boost the alignment of big allocations to help autovectorization

  00011	81 f9 00 10 00
	00		 cmp	 ecx, 4096		; 00001000H
  00017	72 12		 jb	 SHORT $LN20@vector

; 150  :     const uintptr_t _Ptr_container   = _Ptr_user[-1];

  00019	8b 50 fc	 mov	 edx, DWORD PTR [eax-4]
  0001c	83 c1 23	 add	 ecx, 35			; 00000023H

; 151  : 
; 152  :     // If the following asserts, it likely means that we are performing
; 153  :     // an aligned delete on memory coming from an unaligned allocation.
; 154  :     _STL_ASSERT(_Ptr_user[-2] == _Big_allocation_sentinel, "invalid argument");
; 155  : 
; 156  :     // Extra paranoia on aligned allocation/deallocation; ensure _Ptr_container is
; 157  :     // in range [_Min_back_shift, _Non_user_size]
; 158  : #ifdef _DEBUG
; 159  :     constexpr uintptr_t _Min_back_shift = 2 * sizeof(void*);
; 160  : #else // ^^^ _DEBUG ^^^ // vvv !_DEBUG vvv
; 161  :     constexpr uintptr_t _Min_back_shift = sizeof(void*);
; 162  : #endif // _DEBUG
; 163  :     const uintptr_t _Back_shift = reinterpret_cast<uintptr_t>(_Ptr) - _Ptr_container;

  0001f	2b c2		 sub	 eax, edx

; 164  :     _STL_VERIFY(_Back_shift >= _Min_back_shift && _Back_shift <= _Non_user_size, "invalid argument");

  00021	83 c0 fc	 add	 eax, -4			; fffffffcH
  00024	83 f8 1f	 cmp	 eax, 31			; 0000001fH
  00027	77 22		 ja	 SHORT $LN17@vector

; 165  :     _Ptr = reinterpret_cast<void*>(_Ptr_container);

  00029	8b c2		 mov	 eax, edx
$LN20@vector:

; 255  :         ::operator delete(_Ptr, _Bytes);

  0002b	51		 push	 ecx
  0002c	50		 push	 eax
  0002d	e8 00 00 00 00	 call	 ??3@YAXPAXI@Z		; operator delete
; File C:\Program Files\Microsoft Visual Studio\2022\Community\VC\Tools\MSVC\14.34.31933\include\vector

; 2112 :             _Myfirst = nullptr;

  00032	c7 06 00 00 00
	00		 mov	 DWORD PTR [esi], 0
; File C:\Program Files\Microsoft Visual Studio\2022\Community\VC\Tools\MSVC\14.34.31933\include\xmemory

; 255  :         ::operator delete(_Ptr, _Bytes);

  00038	83 c4 08	 add	 esp, 8
; File C:\Program Files\Microsoft Visual Studio\2022\Community\VC\Tools\MSVC\14.34.31933\include\vector

; 2113 :             _Mylast  = nullptr;

  0003b	c7 46 04 00 00
	00 00		 mov	 DWORD PTR [esi+4], 0

; 2114 :             _Myend   = nullptr;

  00042	c7 46 08 00 00
	00 00		 mov	 DWORD PTR [esi+8], 0
$LN4@vector:
  00049	5e		 pop	 esi

; 835  :     }

  0004a	c3		 ret	 0
$LN17@vector:
; File C:\Program Files\Microsoft Visual Studio\2022\Community\VC\Tools\MSVC\14.34.31933\include\xmemory

; 164  :     _STL_VERIFY(_Back_shift >= _Min_back_shift && _Back_shift <= _Non_user_size, "invalid argument");

  0004b	e8 00 00 00 00	 call	 __invalid_parameter_noinfo_noreturn
$LN25@vector:
  00050	cc		 int	 3
??1?$vector@PAVCWeaponTrace@@V?$allocator@PAVCWeaponTrace@@@std@@@std@@QAE@XZ ENDP ; std::vector<CWeaponTrace *,std::allocator<CWeaponTrace *> >::~vector<CWeaponTrace *,std::allocator<CWeaponTrace *> >
_TEXT	ENDS
; Function compile flags: /Ogtp
; File C:\Program Files\Microsoft Visual Studio\2022\Community\VC\Tools\MSVC\14.34.31933\include\deque
; File C:\Program Files\Microsoft Visual Studio\2022\Community\VC\Tools\MSVC\14.34.31933\include\xmemory
; File C:\Program Files\Microsoft Visual Studio\2022\Community\VC\Tools\MSVC\14.34.31933\include\deque
; File C:\Program Files\Microsoft Visual Studio\2022\Community\VC\Tools\MSVC\14.34.31933\include\xmemory
; File C:\Program Files\Microsoft Visual Studio\2022\Community\VC\Tools\MSVC\14.34.31933\include\deque
; File C:\Program Files\Microsoft Visual Studio\2022\Community\VC\Tools\MSVC\14.34.31933\include\xmemory
; File C:\Program Files\Microsoft Visual Studio\2022\Community\VC\Tools\MSVC\14.34.31933\include\deque
;	COMDAT ?_Tidy@?$deque@USReservingMotionNode@CActorInstance@@V?$allocator@USReservingMotionNode@CActorInstance@@@std@@@std@@AAEXXZ
_TEXT	SEGMENT
?_Tidy@?$deque@USReservingMotionNode@CActorInstance@@V?$allocator@USReservingMotionNode@CActorInstance@@@std@@@std@@AAEXXZ PROC ; std::deque<CActorInstance::SReservingMotionNode,std::allocator<CActorInstance::SReservingMotionNode> >::_Tidy, COMDAT
; _this$ = ecx

; 1584 :     void _Tidy() noexcept { // free all storage

  00000	57		 push	 edi
  00001	8b f9		 mov	 edi, ecx

; 1045 :         return _Mysize() == 0;

  00003	8b 47 10	 mov	 eax, DWORD PTR [edi+16]
  00006	85 c0		 test	 eax, eax

; 1585 :         _Orphan_all();
; 1586 : 
; 1587 :         _Alpty _Almap(_Getal());
; 1588 :         while (!empty()) {

  00008	74 15		 je	 SHORT $LN61@Tidy
  0000a	66 0f 1f 44 00
	00		 npad	 6
$LL2@Tidy:

; 1208 :         if (--_Mysize() == 0) {

  00010	83 c0 ff	 add	 eax, -1
  00013	89 47 10	 mov	 DWORD PTR [edi+16], eax
  00016	75 f8		 jne	 SHORT $LL2@Tidy

; 1209 :             _Myoff() = 0;

  00018	c7 47 0c 00 00
	00 00		 mov	 DWORD PTR [edi+12], 0
$LN61@Tidy:

; 1589 :             pop_back();
; 1590 :         }
; 1591 : 
; 1592 :         if (_Map() != nullptr) {

  0001f	8b 47 04	 mov	 eax, DWORD PTR [edi+4]
  00022	85 c0		 test	 eax, eax
  00024	74 50		 je	 SHORT $LN60@Tidy

; 1593 :             for (size_type _Block = _Mapsize(); _Block > 0;) { // free storage for a block and destroy pointer

  00026	56		 push	 esi
  00027	8b 77 08	 mov	 esi, DWORD PTR [edi+8]
  0002a	85 f6		 test	 esi, esi
  0002c	74 1d		 je	 SHORT $LN5@Tidy
  0002e	66 90		 npad	 2
$LL4@Tidy:

; 1594 :                 if (_Map()[--_Block]) { // free block

  00030	8b 4c b0 fc	 mov	 ecx, DWORD PTR [eax+esi*4-4]
  00034	4e		 dec	 esi
  00035	85 c9		 test	 ecx, ecx
  00037	74 0e		 je	 SHORT $LN41@Tidy
; File C:\Program Files\Microsoft Visual Studio\2022\Community\VC\Tools\MSVC\14.34.31933\include\xmemory

; 255  :         ::operator delete(_Ptr, _Bytes);

  00039	6a 18		 push	 24			; 00000018H
  0003b	51		 push	 ecx
  0003c	e8 00 00 00 00	 call	 ??3@YAXPAXI@Z		; operator delete
  00041	8b 47 04	 mov	 eax, DWORD PTR [edi+4]
  00044	83 c4 08	 add	 esp, 8
$LN41@Tidy:
; File C:\Program Files\Microsoft Visual Studio\2022\Community\VC\Tools\MSVC\14.34.31933\include\deque

; 1593 :             for (size_type _Block = _Mapsize(); _Block > 0;) { // free storage for a block and destroy pointer

  00047	85 f6		 test	 esi, esi
  00049	75 e5		 jne	 SHORT $LL4@Tidy
$LN5@Tidy:
; File C:\Program Files\Microsoft Visual Studio\2022\Community\VC\Tools\MSVC\14.34.31933\include\xmemory

; 830  :         _Deallocate<_New_alignof<_Ty>>(_Ptr, sizeof(_Ty) * _Count);

  0004b	8b 4f 08	 mov	 ecx, DWORD PTR [edi+8]
  0004e	c1 e1 02	 shl	 ecx, 2
  00051	5e		 pop	 esi

; 251  :         if (_Bytes >= _Big_allocation_threshold) { // boost the alignment of big allocations to help autovectorization

  00052	81 f9 00 10 00
	00		 cmp	 ecx, 4096		; 00001000H
  00058	72 12		 jb	 SHORT $LN33@Tidy

; 150  :     const uintptr_t _Ptr_container   = _Ptr_user[-1];

  0005a	8b 50 fc	 mov	 edx, DWORD PTR [eax-4]
  0005d	83 c1 23	 add	 ecx, 35			; 00000023H

; 151  : 
; 152  :     // If the following asserts, it likely means that we are performing
; 153  :     // an aligned delete on memory coming from an unaligned allocation.
; 154  :     _STL_ASSERT(_Ptr_user[-2] == _Big_allocation_sentinel, "invalid argument");
; 155  : 
; 156  :     // Extra paranoia on aligned allocation/deallocation; ensure _Ptr_container is
; 157  :     // in range [_Min_back_shift, _Non_user_size]
; 158  : #ifdef _DEBUG
; 159  :     constexpr uintptr_t _Min_back_shift = 2 * sizeof(void*);
; 160  : #else // ^^^ _DEBUG ^^^ // vvv !_DEBUG vvv
; 161  :     constexpr uintptr_t _Min_back_shift = sizeof(void*);
; 162  : #endif // _DEBUG
; 163  :     const uintptr_t _Back_shift = reinterpret_cast<uintptr_t>(_Ptr) - _Ptr_container;

  00060	2b c2		 sub	 eax, edx

; 164  :     _STL_VERIFY(_Back_shift >= _Min_back_shift && _Back_shift <= _Non_user_size, "invalid argument");

  00062	83 c0 fc	 add	 eax, -4			; fffffffcH
  00065	83 f8 1f	 cmp	 eax, 31			; 0000001fH
  00068	77 1c		 ja	 SHORT $LN30@Tidy

; 165  :     _Ptr = reinterpret_cast<void*>(_Ptr_container);

  0006a	8b c2		 mov	 eax, edx
$LN33@Tidy:

; 255  :         ::operator delete(_Ptr, _Bytes);

  0006c	51		 push	 ecx
  0006d	50		 push	 eax
  0006e	e8 00 00 00 00	 call	 ??3@YAXPAXI@Z		; operator delete
  00073	83 c4 08	 add	 esp, 8
$LN60@Tidy:
; File C:\Program Files\Microsoft Visual Studio\2022\Community\VC\Tools\MSVC\14.34.31933\include\deque

; 1603 :         _Mapsize() = 0;

  00076	c7 47 08 00 00
	00 00		 mov	 DWORD PTR [edi+8], 0

; 1604 :         _Map()     = nullptr;

  0007d	c7 47 04 00 00
	00 00		 mov	 DWORD PTR [edi+4], 0
  00084	5f		 pop	 edi

; 1605 :     }

  00085	c3		 ret	 0
$LN30@Tidy:
; File C:\Program Files\Microsoft Visual Studio\2022\Community\VC\Tools\MSVC\14.34.31933\include\xmemory

; 164  :     _STL_VERIFY(_Back_shift >= _Min_back_shift && _Back_shift <= _Non_user_size, "invalid argument");

  00086	e8 00 00 00 00	 call	 __invalid_parameter_noinfo_noreturn
$LN63@Tidy:
  0008b	cc		 int	 3
?_Tidy@?$deque@USReservingMotionNode@CActorInstance@@V?$allocator@USReservingMotionNode@CActorInstance@@@std@@@std@@AAEXXZ ENDP ; std::deque<CActorInstance::SReservingMotionNode,std::allocator<CActorInstance::SReservingMotionNode> >::_Tidy
_TEXT	ENDS
; Function compile flags: /Ogtp
; File C:\Program Files\Microsoft Visual Studio\2022\Community\VC\Tools\MSVC\14.34.31933\include\deque
; File C:\Program Files\Microsoft Visual Studio\2022\Community\VC\Tools\MSVC\14.34.31933\include\utility
; File C:\Program Files\Microsoft Visual Studio\2022\Community\VC\Tools\MSVC\14.34.31933\include\xmemory
; File C:\Program Files\Microsoft Visual Studio\2022\Community\VC\Tools\MSVC\14.34.31933\include\utility
; File C:\Program Files\Microsoft Visual Studio\2022\Community\VC\Tools\MSVC\14.34.31933\include\xmemory
; File C:\Program Files\Microsoft Visual Studio\2022\Community\VC\Tools\MSVC\14.34.31933\include\deque
;	COMDAT ??1?$deque@USReservingMotionNode@CActorInstance@@V?$allocator@USReservingMotionNode@CActorInstance@@@std@@@std@@QAE@XZ
_TEXT	SEGMENT
??1?$deque@USReservingMotionNode@CActorInstance@@V?$allocator@USReservingMotionNode@CActorInstance@@@std@@@std@@QAE@XZ PROC ; std::deque<CActorInstance::SReservingMotionNode,std::allocator<CActorInstance::SReservingMotionNode> >::~deque<CActorInstance::SReservingMotionNode,std::allocator<CActorInstance::SReservingMotionNode> >, COMDAT
; _this$ = ecx

; 904  :     ~deque() noexcept {

  00000	56		 push	 esi
  00001	8b f1		 mov	 esi, ecx

; 905  :         _Tidy();

  00003	e8 00 00 00 00	 call	 ?_Tidy@?$deque@USReservingMotionNode@CActorInstance@@V?$allocator@USReservingMotionNode@CActorInstance@@@std@@@std@@AAEXXZ ; std::deque<CActorInstance::SReservingMotionNode,std::allocator<CActorInstance::SReservingMotionNode> >::_Tidy
; File C:\Program Files\Microsoft Visual Studio\2022\Community\VC\Tools\MSVC\14.34.31933\include\utility

; 653  :     _Ty _Old_val = static_cast<_Ty&&>(_Val);

  00008	8b 06		 mov	 eax, DWORD PTR [esi]
; File C:\Program Files\Microsoft Visual Studio\2022\Community\VC\Tools\MSVC\14.34.31933\include\xmemory

; 255  :         ::operator delete(_Ptr, _Bytes);

  0000a	6a 08		 push	 8
  0000c	50		 push	 eax
; File C:\Program Files\Microsoft Visual Studio\2022\Community\VC\Tools\MSVC\14.34.31933\include\utility

; 654  :     _Val         = static_cast<_Other&&>(_New_val);

  0000d	c7 06 00 00 00
	00		 mov	 DWORD PTR [esi], 0
; File C:\Program Files\Microsoft Visual Studio\2022\Community\VC\Tools\MSVC\14.34.31933\include\xmemory

; 255  :         ::operator delete(_Ptr, _Bytes);

  00013	e8 00 00 00 00	 call	 ??3@YAXPAXI@Z		; operator delete
  00018	83 c4 08	 add	 esp, 8
  0001b	5e		 pop	 esi
; File C:\Program Files\Microsoft Visual Studio\2022\Community\VC\Tools\MSVC\14.34.31933\include\deque

; 908  :     }

  0001c	c3		 ret	 0
??1?$deque@USReservingMotionNode@CActorInstance@@V?$allocator@USReservingMotionNode@CActorInstance@@@std@@@std@@QAE@XZ ENDP ; std::deque<CActorInstance::SReservingMotionNode,std::allocator<CActorInstance::SReservingMotionNode> >::~deque<CActorInstance::SReservingMotionNode,std::allocator<CActorInstance::SReservingMotionNode> >
_TEXT	ENDS
; Function compile flags: /Ogtp
; File C:\Users\flourine\Desktop\Xantios\client-src\Code\GameLib\ActorInstance.cpp
;	COMDAT ?OnGetObjectHeight@CActorInstance@@MAE_NMMPAM@Z
_TEXT	SEGMENT
_fX$ = 8						; size = 4
_fY$ = 12						; size = 4
_pfHeight$ = 16						; size = 4
?OnGetObjectHeight@CActorInstance@@MAE_NMMPAM@Z PROC	; CActorInstance::OnGetObjectHeight, COMDAT
; _this$ = ecx

; 626  : {

  00000	55		 push	 ebp
  00001	8b ec		 mov	 ebp, esp
  00003	56		 push	 esi
  00004	8b f1		 mov	 esi, ecx

; 627  : 	if (!m_pHeightAttributeInstance)

  00006	83 be b8 01 00
	00 00		 cmp	 DWORD PTR [esi+440], 0
  0000d	74 3b		 je	 SHORT $LN5@OnGetObjec

; 628  : 	{
; 629  : 		return false;
; 630  : 	}
; 631  : 
; 632  : 	if (TYPE_BUILDING != GetType())

  0000f	8b 06		 mov	 eax, DWORD PTR [esi]
  00011	ff 50 04	 call	 DWORD PTR [eax+4]
  00014	83 f8 05	 cmp	 eax, 5
  00017	75 31		 jne	 SHORT $LN5@OnGetObjec

; 635  : 	}
; 636  : 
; 637  : 	return m_pHeightAttributeInstance->GetHeight(fX, fY, pfHeight) == 1 ? true : false;

  00019	ff 75 10	 push	 DWORD PTR _pfHeight$[ebp]
  0001c	f3 0f 10 45 0c	 movss	 xmm0, DWORD PTR _fY$[ebp]
  00021	8b 8e b8 01 00
	00		 mov	 ecx, DWORD PTR [esi+440]
  00027	83 ec 08	 sub	 esp, 8
  0002a	f3 0f 11 44 24
	04		 movss	 DWORD PTR [esp+4], xmm0
  00030	f3 0f 10 45 08	 movss	 xmm0, DWORD PTR _fX$[ebp]
  00035	f3 0f 11 04 24	 movss	 DWORD PTR [esp], xmm0
  0003a	e8 00 00 00 00	 call	 ?GetHeight@CAttributeInstance@@QAEHMMPAM@Z ; CAttributeInstance::GetHeight
  0003f	83 f8 01	 cmp	 eax, 1
  00042	5e		 pop	 esi
  00043	0f 94 c0	 sete	 al

; 638  : }

  00046	5d		 pop	 ebp
  00047	c2 0c 00	 ret	 12			; 0000000cH
$LN5@OnGetObjec:

; 633  : 	{
; 634  : 		return false;

  0004a	32 c0		 xor	 al, al
  0004c	5e		 pop	 esi

; 638  : }

  0004d	5d		 pop	 ebp
  0004e	c2 0c 00	 ret	 12			; 0000000cH
?OnGetObjectHeight@CActorInstance@@MAE_NMMPAM@Z ENDP	; CActorInstance::OnGetObjectHeight
_TEXT	ENDS
; Function compile flags: /Ogtp
; File C:\Users\flourine\Desktop\Xantios\client-src\Code\GameLib\ActorInstance.cpp
;	COMDAT ?OnUpdateHeighInstance@CActorInstance@@MAEXPAVCAttributeInstance@@@Z
_TEXT	SEGMENT
_pAttributeInstance$ = 8				; size = 4
?OnUpdateHeighInstance@CActorInstance@@MAEXPAVCAttributeInstance@@@Z PROC ; CActorInstance::OnUpdateHeighInstance, COMDAT
; _this$ = ecx

; 620  : {

  00000	55		 push	 ebp
  00001	8b ec		 mov	 ebp, esp

; 623  : }

  00003	5d		 pop	 ebp

; 621  : 	assert(pAttributeInstance);
; 622  : 	SetHeightInstance(pAttributeInstance);

  00004	e9 00 00 00 00	 jmp	 ?SetHeightInstance@CGraphicObjectInstance@@QAEXPAVCAttributeInstance@@@Z ; CGraphicObjectInstance::SetHeightInstance
?OnUpdateHeighInstance@CActorInstance@@MAEXPAVCAttributeInstance@@@Z ENDP ; CActorInstance::OnUpdateHeighInstance
_TEXT	ENDS
; Function compile flags: /Ogtp
; File C:\Users\flourine\Desktop\Xantios\client-src\Code\GameLib\ActorInstance.cpp
; File C:\Program Files\Microsoft Visual Studio\2022\Community\VC\Tools\MSVC\14.34.31933\include\vector
; File C:\Users\flourine\Desktop\Xantios\client-src\Code\GameLib\ActorInstance.cpp
; File C:\Program Files\Microsoft Visual Studio\2022\Community\VC\Tools\MSVC\14.34.31933\include\vector
; File C:\Users\flourine\Desktop\Xantios\client-src\Code\GameLib\ActorInstance.cpp
; File C:\Program Files\Microsoft Visual Studio\2022\Community\VC\Tools\MSVC\14.34.31933\include\vector
; File C:\Users\flourine\Desktop\Xantios\client-src\Code\GameLib\ActorInstance.cpp
;	COMDAT ?OnUpdateCollisionData@CActorInstance@@MAEXPBV?$vector@VCStaticCollisionData@@V?$allocator@VCStaticCollisionData@@@std@@@std@@@Z
_TEXT	SEGMENT
_pscdVector$ = 8					; size = 4
?OnUpdateCollisionData@CActorInstance@@MAEXPBV?$vector@VCStaticCollisionData@@V?$allocator@VCStaticCollisionData@@@std@@@std@@@Z PROC ; CActorInstance::OnUpdateCollisionData, COMDAT
; _this$ = ecx

; 608  : {

  00000	55		 push	 ebp
  00001	8b ec		 mov	 ebp, esp
  00003	53		 push	 ebx
; File C:\Program Files\Microsoft Visual Studio\2022\Community\VC\Tools\MSVC\14.34.31933\include\vector

; 41   :     _CONSTEXPR20 _Vector_const_iterator(_Tptr _Parg, const _Container_base* _Pvector) noexcept : _Ptr(_Parg) {

  00004	8b 5d 08	 mov	 ebx, DWORD PTR _pscdVector$[ebp]
; File C:\Users\flourine\Desktop\Xantios\client-src\Code\GameLib\ActorInstance.cpp

; 608  : {

  00007	56		 push	 esi
  00008	57		 push	 edi
  00009	8b f9		 mov	 edi, ecx
; File C:\Program Files\Microsoft Visual Studio\2022\Community\VC\Tools\MSVC\14.34.31933\include\vector

; 41   :     _CONSTEXPR20 _Vector_const_iterator(_Tptr _Parg, const _Container_base* _Pvector) noexcept : _Ptr(_Parg) {

  0000b	8b 33		 mov	 esi, DWORD PTR [ebx]
  0000d	3b 73 04	 cmp	 esi, DWORD PTR [ebx+4]
; File C:\Users\flourine\Desktop\Xantios\client-src\Code\GameLib\ActorInstance.cpp

; 611  : 	for (it = pscdVector->begin(); it != pscdVector->end(); ++it)

  00010	74 18		 je	 SHORT $LN3@OnUpdateCo
$LL15@OnUpdateCo:

; 612  : 	{
; 613  : 		const CStaticCollisionData & c_rColliData = *it;
; 614  : 		const D3DXMATRIX & c_rMatrix = GetTransform();

  00012	8b cf		 mov	 ecx, edi
  00014	e8 00 00 00 00	 call	 ?GetTransform@CGraphicObjectInstance@@QAEAAUD3DXMATRIX@@XZ ; CGraphicObjectInstance::GetTransform

; 615  : 		AddCollision(&c_rColliData, &c_rMatrix);

  00019	50		 push	 eax
  0001a	56		 push	 esi
  0001b	8b cf		 mov	 ecx, edi
  0001d	e8 00 00 00 00	 call	 ?AddCollision@CGraphicObjectInstance@@QAEXPBVCStaticCollisionData@@PBUD3DXMATRIX@@@Z ; CGraphicObjectInstance::AddCollision
; File C:\Program Files\Microsoft Visual Studio\2022\Community\VC\Tools\MSVC\14.34.31933\include\vector

; 74   :         ++_Ptr;

  00022	83 c6 50	 add	 esi, 80			; 00000050H

; 156  :         return _Ptr == _Right._Ptr;

  00025	3b 73 04	 cmp	 esi, DWORD PTR [ebx+4]
; File C:\Users\flourine\Desktop\Xantios\client-src\Code\GameLib\ActorInstance.cpp

; 611  : 	for (it = pscdVector->begin(); it != pscdVector->end(); ++it)

  00028	75 e8		 jne	 SHORT $LL15@OnUpdateCo
$LN3@OnUpdateCo:
  0002a	5f		 pop	 edi

; 616  : 	}
; 617  : }

  0002b	5e		 pop	 esi
  0002c	5b		 pop	 ebx
  0002d	5d		 pop	 ebp
  0002e	c2 04 00	 ret	 4
?OnUpdateCollisionData@CActorInstance@@MAEXPBV?$vector@VCStaticCollisionData@@V?$allocator@VCStaticCollisionData@@@std@@@std@@@Z ENDP ; CActorInstance::OnUpdateCollisionData
_TEXT	ENDS
; Function compile flags: /Ogtp
; File C:\Users\flourine\Desktop\Xantios\client-src\Code\GameLib\ActorInstance.cpp
;	COMDAT ?__GetReachScale@CActorInstance@@IAEMXZ
_TEXT	SEGMENT
?__GetReachScale@CActorInstance@@IAEMXZ PROC		; CActorInstance::__GetReachScale, COMDAT
; _this$ = ecx

; 162  : 	return m_fReachScale;

  00000	d9 81 d8 04 00
	00		 fld	 DWORD PTR [ecx+1240]

; 163  : }

  00006	c3		 ret	 0
?__GetReachScale@CActorInstance@@IAEMXZ ENDP		; CActorInstance::__GetReachScale
_TEXT	ENDS
; Function compile flags: /Ogtp
; File C:\Users\flourine\Desktop\Xantios\client-src\Code\GameLib\ActorInstance.cpp
;	COMDAT ?__GetCurrentComboType@CActorInstance@@IAEGXZ
_TEXT	SEGMENT
?__GetCurrentComboType@CActorInstance@@IAEGXZ PROC	; CActorInstance::__GetCurrentComboType, COMDAT
; _this$ = ecx

; 171  : {

  00000	56		 push	 esi
  00001	8b f1		 mov	 esi, ecx

; 172  : 	if (IsBowMode())

  00003	e8 00 00 00 00	 call	 ?IsBowMode@CActorInstance@@QAE_NXZ ; CActorInstance::IsBowMode
  00008	84 c0		 test	 al, al
  0000a	75 1f		 jne	 SHORT $LN6@GetCurrent

; 173  : 	{
; 174  : 		return 0;
; 175  : 	}
; 176  : 	if (IsHandMode())

  0000c	8b ce		 mov	 ecx, esi
  0000e	e8 00 00 00 00	 call	 ?IsHandMode@CActorInstance@@QAE_NXZ ; CActorInstance::IsHandMode
  00013	84 c0		 test	 al, al
  00015	75 14		 jne	 SHORT $LN6@GetCurrent

; 177  : 	{
; 178  : 		return 0;
; 179  : 	}
; 180  : 	if (__IsMountingHorse())

  00017	8b ce		 mov	 ecx, esi
  00019	e8 00 00 00 00	 call	 ?__IsMountingHorse@CActorInstance@@IAE_NXZ ; CActorInstance::__IsMountingHorse
  0001e	84 c0		 test	 al, al
  00020	75 09		 jne	 SHORT $LN6@GetCurrent

; 183  : 	}
; 184  : 
; 185  : 	return m_wcurComboType;

  00022	66 8b 86 5c 04
	00 00		 mov	 ax, WORD PTR [esi+1116]
  00029	5e		 pop	 esi

; 186  : }

  0002a	c3		 ret	 0
$LN6@GetCurrent:

; 181  : 	{
; 182  : 		return 0;

  0002b	33 c0		 xor	 eax, eax
  0002d	5e		 pop	 esi

; 186  : }

  0002e	c3		 ret	 0
?__GetCurrentComboType@CActorInstance@@IAEGXZ ENDP	; CActorInstance::__GetCurrentComboType
_TEXT	ENDS
; Function compile flags: /Ogtp
; File C:\Users\flourine\Desktop\Xantios\client-src\Code\GameLib\ActorInstance.cpp
;	COMDAT ?__IsMountingHorse@CActorInstance@@IAE_NXZ
_TEXT	SEGMENT
?__IsMountingHorse@CActorInstance@@IAE_NXZ PROC		; CActorInstance::__IsMountingHorse, COMDAT
; _this$ = ecx

; 907  : 	return NULL != m_pkHorse;

  00000	83 b9 94 05 00
	00 00		 cmp	 DWORD PTR [ecx+1428], 0
  00007	0f 95 c0	 setne	 al

; 908  : }

  0000a	c3		 ret	 0
?__IsMountingHorse@CActorInstance@@IAE_NXZ ENDP		; CActorInstance::__IsMountingHorse
_TEXT	ENDS
; Function compile flags: /Ogtp
; File C:\Users\flourine\Desktop\Xantios\client-src\Code\GameLib\ActorInstance.cpp
;	COMDAT ?__GetAttackSpeed@CActorInstance@@IAEMXZ
_TEXT	SEGMENT
?__GetAttackSpeed@CActorInstance@@IAEMXZ PROC		; CActorInstance::__GetAttackSpeed, COMDAT
; _this$ = ecx

; 167  : 	return m_fAtkSpd;

  00000	d9 81 e0 04 00
	00		 fld	 DWORD PTR [ecx+1248]

; 168  : }

  00006	c3		 ret	 0
?__GetAttackSpeed@CActorInstance@@IAEMXZ ENDP		; CActorInstance::__GetAttackSpeed
_TEXT	ENDS
; Function compile flags: /Ogtp
; File C:\Users\flourine\Desktop\Xantios\client-src\Code\GameLib\ActorInstance.cpp
; File C:\Users\flourine\Desktop\Xantios\client-src\extern\include\directX\d3dx9math.inl
; File C:\Users\flourine\Desktop\Xantios\client-src\Code\GameLib\ActorInstance.cpp
;	COMDAT ?__Initialize@CActorInstance@@IAEXXZ
_TEXT	SEGMENT
tv212 = -32						; size = 16
$T1 = -12						; size = 12
?__Initialize@CActorInstance@@IAEXXZ PROC		; CActorInstance::__Initialize, COMDAT
; _this$ = ecx

; 1060 : {

  00000	53		 push	 ebx
  00001	8b dc		 mov	 ebx, esp
  00003	83 ec 08	 sub	 esp, 8
  00006	83 e4 f0	 and	 esp, -16		; fffffff0H
  00009	83 c4 04	 add	 esp, 4
  0000c	55		 push	 ebp
  0000d	8b 6b 04	 mov	 ebp, DWORD PTR [ebx+4]
  00010	89 6c 24 04	 mov	 DWORD PTR [esp+4], ebp
  00014	8b ec		 mov	 ebp, esp
  00016	83 ec 2c	 sub	 esp, 44			; 0000002cH
  00019	56		 push	 esi
  0001a	8b f1		 mov	 esi, ecx
  0001c	0f 57 c0	 xorps	 xmm0, xmm0

; 1061 : 	m_pkCurRaceMotionData = NULL;
; 1062 : 	m_pkCurRaceData = NULL;
; 1063 : 	m_pkHorse = NULL;
; 1064 : 	m_pkTree = NULL;
; 1065 : 
; 1066 : 	m_fOwnerBaseTime = 0.0f;

  0001f	0f 29 45 e0	 movaps	 XMMWORD PTR tv212[ebp], xmm0

; 1067 : 
; 1068 : 	m_eActorType = TYPE_PC;
; 1069 : 	m_eRace = 0;
; 1070 : 
; 1071 : 	m_eShape = 0;
; 1072 : 	m_eHair = 0;
; 1073 : 
; 1074 : 	m_dwSelfVID = 0;
; 1075 : 	m_dwOwnerVID = 0;
; 1076 : 
; 1077 : 	m_pkEventHandler =  NULL;
; 1078 : 
; 1079 : 	m_PhysicsObject.Initialize();

  00023	8d 8e c4 03 00
	00		 lea	 ecx, DWORD PTR [esi+964]
  00029	c7 86 68 04 00
	00 00 00 00 00	 mov	 DWORD PTR [esi+1128], 0
  00033	c7 86 64 04 00
	00 00 00 00 00	 mov	 DWORD PTR [esi+1124], 0
  0003d	c7 86 94 05 00
	00 00 00 00 00	 mov	 DWORD PTR [esi+1428], 0
  00047	c7 86 98 05 00
	00 00 00 00 00	 mov	 DWORD PTR [esi+1432], 0
  00051	c7 86 08 05 00
	00 00 00 00 00	 mov	 DWORD PTR [esi+1288], 0
  0005b	c7 86 40 04 00
	00 06 00 00 00	 mov	 DWORD PTR [esi+1088], 6
  00065	c7 86 44 04 00
	00 00 00 00 00	 mov	 DWORD PTR [esi+1092], 0
  0006f	c7 86 48 04 00
	00 00 00 00 00	 mov	 DWORD PTR [esi+1096], 0
  00079	c7 86 4c 04 00
	00 00 00 00 00	 mov	 DWORD PTR [esi+1100], 0
  00083	c7 86 9c 05 00
	00 00 00 00 00	 mov	 DWORD PTR [esi+1436], 0
  0008d	c7 86 a0 05 00
	00 00 00 00 00	 mov	 DWORD PTR [esi+1440], 0
  00097	c7 86 c0 05 00
	00 00 00 00 00	 mov	 DWORD PTR [esi+1472], 0
  000a1	e8 00 00 00 00	 call	 ?Initialize@CPhysicsObject@@QAEXXZ ; CPhysicsObject::Initialize

; 1085 : 	m_v3FishingPosition = D3DXVECTOR3(0.0f, 0.0f, 0.0f);

  000a6	0f 28 45 e0	 movaps	 xmm0, XMMWORD PTR tv212[ebp]

; 1089 : 
; 1090 : 	__InitializePositionData();

  000aa	8b ce		 mov	 ecx, esi
  000ac	0f 14 c0	 unpcklps xmm0, xmm0
; File C:\Users\flourine\Desktop\Xantios\client-src\extern\include\directX\d3dx9math.inl

; 306  :     z = fz;

  000af	c7 45 fc 00 00
	00 00		 mov	 DWORD PTR $T1[ebp+8], 0
; File C:\Users\flourine\Desktop\Xantios\client-src\Code\GameLib\ActorInstance.cpp

; 1085 : 	m_v3FishingPosition = D3DXVECTOR3(0.0f, 0.0f, 0.0f);

  000b6	8b 45 fc	 mov	 eax, DWORD PTR $T1[ebp+8]
  000b9	66 0f d6 86 9c
	04 00 00	 movq	 QWORD PTR [esi+1180], xmm0
  000c1	c7 86 b4 03 00
	00 00 00 00 00	 mov	 DWORD PTR [esi+948], 0
  000cb	c7 86 f8 02 00
	00 00 00 00 00	 mov	 DWORD PTR [esi+760], 0
  000d5	89 86 a4 04 00
	00		 mov	 DWORD PTR [esi+1188], eax

; 1086 : 	m_iFishingEffectID = -1;

  000db	c7 86 a8 04 00
	00 ff ff ff ff	 mov	 DWORD PTR [esi+1192], -1

; 1087 : 
; 1088 : 	m_pkHorse = NULL;

  000e5	c7 86 94 05 00
	00 00 00 00 00	 mov	 DWORD PTR [esi+1428], 0

; 1089 : 
; 1090 : 	__InitializePositionData();

  000ef	e8 00 00 00 00	 call	 ?__InitializePositionData@CActorInstance@@IAEXXZ ; CActorInstance::__InitializePositionData

; 1091 : 	__InitializeRotationData();

  000f4	8b ce		 mov	 ecx, esi
  000f6	e8 00 00 00 00	 call	 ?__InitializeRotationData@CActorInstance@@IAEXXZ ; CActorInstance::__InitializeRotationData

; 1092 : 	__InitializeMotionData();

  000fb	8b ce		 mov	 ecx, esi
  000fd	e8 00 00 00 00	 call	 ?__InitializeMotionData@CActorInstance@@IAEXXZ ; CActorInstance::__InitializeMotionData

; 1093 : 	__InitializeStateData();

  00102	8b ce		 mov	 ecx, esi
  00104	e8 00 00 00 00	 call	 ?__InitializeStateData@CActorInstance@@IAEXXZ ; CActorInstance::__InitializeStateData

; 1094 : 	__InitializeCollisionData();

  00109	8b ce		 mov	 ecx, esi
  0010b	e8 00 00 00 00	 call	 ?__InitializeCollisionData@CActorInstance@@IAEXXZ ; CActorInstance::__InitializeCollisionData

; 1095 : 
; 1096 : 	__BlendAlpha_Initialize();

  00110	8b ce		 mov	 ecx, esi
  00112	e8 00 00 00 00	 call	 ?__BlendAlpha_Initialize@CActorInstance@@IAEXXZ ; CActorInstance::__BlendAlpha_Initialize

; 1097 : 
; 1098 : 	ClearFlyTargeter();

  00117	8d 8e ec 02 00
	00		 lea	 ecx, DWORD PTR [esi+748]
  0011d	e8 00 00 00 00	 call	 ?ClearFlyTargeter@IFlyTargetableObject@@IAEXXZ ; IFlyTargetableObject::ClearFlyTargeter

; 1099 : 
; 1100 : #ifdef ENABLE_QUIVER_SYSTEM
; 1101 : 	m_bIsQuiverEquipped = false;

  00122	c6 86 c4 05 00
	00 00		 mov	 BYTE PTR [esi+1476], 0

; 1102 : 	m_dwQuiverEffectID = 0;

  00129	c7 86 c8 05 00
	00 00 00 00 00	 mov	 DWORD PTR [esi+1480], 0

; 1103 : #endif
; 1104 : }

  00133	5e		 pop	 esi
  00134	8b e5		 mov	 esp, ebp
  00136	5d		 pop	 ebp
  00137	8b e3		 mov	 esp, ebx
  00139	5b		 pop	 ebx
  0013a	c3		 ret	 0
?__Initialize@CActorInstance@@IAEXXZ ENDP		; CActorInstance::__Initialize
_TEXT	ENDS
; Function compile flags: /Ogtp
; File C:\Users\flourine\Desktop\Xantios\client-src\Code\GameLib\ActorInstance.cpp
;	COMDAT ?__InitializeMovement@CActorInstance@@IAEXXZ
_TEXT	SEGMENT
?__InitializeMovement@CActorInstance@@IAEXXZ PROC	; CActorInstance::__InitializeMovement, COMDAT
; _this$ = ecx

; 696  : 	m_v3Movement.x = 0.0f;

  00000	c7 81 c4 04 00
	00 00 00 00 00	 mov	 DWORD PTR [ecx+1220], 0

; 697  : 	m_v3Movement.y = 0.0f;

  0000a	c7 81 c8 04 00
	00 00 00 00 00	 mov	 DWORD PTR [ecx+1224], 0

; 698  : 	m_v3Movement.z = 0.0f;

  00014	c7 81 cc 04 00
	00 00 00 00 00	 mov	 DWORD PTR [ecx+1228], 0

; 699  : }

  0001e	c3		 ret	 0
?__InitializeMovement@CActorInstance@@IAEXXZ ENDP	; CActorInstance::__InitializeMovement
_TEXT	ENDS
; Function compile flags: /Ogtp
; File C:\Users\flourine\Desktop\Xantios\client-src\Code\GameLib\ActorInstance.cpp
;	COMDAT ?AddMovement@CActorInstance@@IAEXMMM@Z
_TEXT	SEGMENT
_fx$ = 8						; size = 4
_fy$ = 12						; size = 4
_fz$ = 16						; size = 4
?AddMovement@CActorInstance@@IAEXMMM@Z PROC		; CActorInstance::AddMovement, COMDAT
; _this$ = ecx

; 702  : {

  00000	55		 push	 ebp
  00001	8b ec		 mov	 ebp, esp

; 703  : 	m_v3Movement.x += fx;

  00003	f3 0f 10 45 08	 movss	 xmm0, DWORD PTR _fx$[ebp]
  00008	f3 0f 58 81 c4
	04 00 00	 addss	 xmm0, DWORD PTR [ecx+1220]
  00010	f3 0f 11 81 c4
	04 00 00	 movss	 DWORD PTR [ecx+1220], xmm0

; 704  : 	m_v3Movement.y += fy;

  00018	f3 0f 10 45 0c	 movss	 xmm0, DWORD PTR _fy$[ebp]
  0001d	f3 0f 58 81 c8
	04 00 00	 addss	 xmm0, DWORD PTR [ecx+1224]
  00025	f3 0f 11 81 c8
	04 00 00	 movss	 DWORD PTR [ecx+1224], xmm0

; 705  : 	m_v3Movement.z += fz;

  0002d	f3 0f 10 45 10	 movss	 xmm0, DWORD PTR _fz$[ebp]
  00032	f3 0f 58 81 cc
	04 00 00	 addss	 xmm0, DWORD PTR [ecx+1228]
  0003a	f3 0f 11 81 cc
	04 00 00	 movss	 DWORD PTR [ecx+1228], xmm0

; 706  : }

  00042	5d		 pop	 ebp
  00043	c2 0c 00	 ret	 12			; 0000000cH
?AddMovement@CActorInstance@@IAEXMMM@Z ENDP		; CActorInstance::AddMovement
_TEXT	ENDS
; Function compile flags: /Ogtp
; File C:\Users\flourine\Desktop\Xantios\client-src\Code\GameLib\ActorInstance.cpp
;	COMDAT ?OnUpdate@CActorInstance@@MAEXXZ
_TEXT	SEGMENT
?OnUpdate@CActorInstance@@MAEXXZ PROC			; CActorInstance::OnUpdate, COMDAT
; _this$ = ecx

; 81   : {

  00000	56		 push	 esi
  00001	8b f1		 mov	 esi, ecx

; 82   : #ifdef __PERFORMANCE_CHECKER__
; 83   : 	DWORD t1 = ELTimer_GetMSec();
; 84   : #endif
; 85   : 	if (!IsParalysis())

  00003	e8 00 00 00 00	 call	 ?IsParalysis@CActorInstance@@QAEHXZ ; CActorInstance::IsParalysis
  00008	85 c0		 test	 eax, eax
  0000a	75 07		 jne	 SHORT $LN2@OnUpdate

; 86   : 	{
; 87   : 		CGraphicThingInstance::OnUpdate();

  0000c	8b ce		 mov	 ecx, esi
  0000e	e8 00 00 00 00	 call	 ?OnUpdate@CGraphicThingInstance@@MAEXXZ ; CGraphicThingInstance::OnUpdate
$LN2@OnUpdate:

; 88   : 	}
; 89   : #ifdef __PERFORMANCE_CHECKER__
; 90   : 	DWORD t2 = ELTimer_GetMSec();
; 91   : #endif
; 92   : 
; 93   : 	UpdateAttachingInstances();

  00013	8b ce		 mov	 ecx, esi
  00015	e8 00 00 00 00	 call	 ?UpdateAttachingInstances@CActorInstance@@QAEXXZ ; CActorInstance::UpdateAttachingInstances

; 94   : 
; 95   : #ifdef __PERFORMANCE_CHECKER__
; 96   : 	DWORD t3 = ELTimer_GetMSec();
; 97   : #endif
; 98   : 
; 99   : 	__BlendAlpha_Update();

  0001a	8b ce		 mov	 ecx, esi
  0001c	5e		 pop	 esi
  0001d	e9 00 00 00 00	 jmp	 ?__BlendAlpha_Update@CActorInstance@@IAEXXZ ; CActorInstance::__BlendAlpha_Update
?OnUpdate@CActorInstance@@MAEXXZ ENDP			; CActorInstance::OnUpdate
_TEXT	ENDS
; Function compile flags: /Ogtp
; File C:\Program Files\Microsoft Visual Studio\2022\Community\VC\Tools\MSVC\14.34.31933\include\deque
; File C:\Program Files\Microsoft Visual Studio\2022\Community\VC\Tools\MSVC\14.34.31933\include\xmemory
; File C:\Program Files\Microsoft Visual Studio\2022\Community\VC\Tools\MSVC\14.34.31933\include\deque
; File C:\Program Files\Microsoft Visual Studio\2022\Community\VC\Tools\MSVC\14.34.31933\include\xmemory
; File C:\Program Files\Microsoft Visual Studio\2022\Community\VC\Tools\MSVC\14.34.31933\include\deque
; File C:\Program Files\Microsoft Visual Studio\2022\Community\VC\Tools\MSVC\14.34.31933\include\xmemory
; File C:\Program Files\Microsoft Visual Studio\2022\Community\VC\Tools\MSVC\14.34.31933\include\deque
; File C:\Program Files\Microsoft Visual Studio\2022\Community\VC\Tools\MSVC\14.34.31933\include\xmemory
; File C:\Program Files\Microsoft Visual Studio\2022\Community\VC\Tools\MSVC\14.34.31933\include\utility
; File C:\Program Files\Microsoft Visual Studio\2022\Community\VC\Tools\MSVC\14.34.31933\include\xmemory
; File C:\Program Files\Microsoft Visual Studio\2022\Community\VC\Tools\MSVC\14.34.31933\include\deque
; File C:\Program Files\Microsoft Visual Studio\2022\Community\VC\Tools\MSVC\14.34.31933\include\utility
; File C:\Program Files\Microsoft Visual Studio\2022\Community\VC\Tools\MSVC\14.34.31933\include\xmemory
; File C:\Program Files\Microsoft Visual Studio\2022\Community\VC\Tools\MSVC\14.34.31933\include\deque
; File C:\Program Files\Microsoft Visual Studio\2022\Community\VC\Tools\MSVC\14.34.31933\include\xmemory
; File C:\Program Files\Microsoft Visual Studio\2022\Community\VC\Tools\MSVC\14.34.31933\include\deque
;	COMDAT ??1?$deque@VCFlyTarget@@V?$allocator@VCFlyTarget@@@std@@@std@@QAE@XZ
_TEXT	SEGMENT
$T1 = -4						; size = 4
??1?$deque@VCFlyTarget@@V?$allocator@VCFlyTarget@@@std@@@std@@QAE@XZ PROC ; std::deque<CFlyTarget,std::allocator<CFlyTarget> >::~deque<CFlyTarget,std::allocator<CFlyTarget> >, COMDAT
; _this$ = ecx

; 904  :     ~deque() noexcept {

  00000	55		 push	 ebp
  00001	8b ec		 mov	 ebp, esp
  00003	51		 push	 ecx
  00004	53		 push	 ebx
  00005	8b d9		 mov	 ebx, ecx
  00007	56		 push	 esi
  00008	57		 push	 edi

; 1045 :         return _Mysize() == 0;

  00009	8b 53 10	 mov	 edx, DWORD PTR [ebx+16]
  0000c	8d 73 08	 lea	 esi, DWORD PTR [ebx+8]
  0000f	89 75 fc	 mov	 DWORD PTR $T1[ebp], esi
  00012	85 d2		 test	 edx, edx

; 1588 :         while (!empty()) {

  00014	74 31		 je	 SHORT $LN92@deque
$LL4@deque:

; 564  :         return (_Off / _Block_size) & (_Mapsize - 1);

  00016	8b 4b 0c	 mov	 ecx, DWORD PTR [ebx+12]
  00019	8b 06		 mov	 eax, DWORD PTR [esi]
  0001b	49		 dec	 ecx
  0001c	48		 dec	 eax
  0001d	03 ca		 add	 ecx, edx
  0001f	23 c8		 and	 ecx, eax

; 1207 :         _Alty_traits::destroy(_Getal(), _Unfancy(_Map()[_Block] + _Newoff % _Block_size));

  00021	8b 43 04	 mov	 eax, DWORD PTR [ebx+4]
; File C:\Program Files\Microsoft Visual Studio\2022\Community\VC\Tools\MSVC\14.34.31933\include\xmemory

; 689  :         _Ptr->~_Uty();

  00024	6a 00		 push	 0
; File C:\Program Files\Microsoft Visual Studio\2022\Community\VC\Tools\MSVC\14.34.31933\include\deque

; 1207 :         _Alty_traits::destroy(_Getal(), _Unfancy(_Map()[_Block] + _Newoff % _Block_size));

  00026	8b 0c 88	 mov	 ecx, DWORD PTR [eax+ecx*4]
; File C:\Program Files\Microsoft Visual Studio\2022\Community\VC\Tools\MSVC\14.34.31933\include\xmemory

; 689  :         _Ptr->~_Uty();

  00029	8b 01		 mov	 eax, DWORD PTR [ecx]
  0002b	ff 10		 call	 DWORD PTR [eax]
; File C:\Program Files\Microsoft Visual Studio\2022\Community\VC\Tools\MSVC\14.34.31933\include\deque

; 1208 :         if (--_Mysize() == 0) {

  0002d	8b 53 10	 mov	 edx, DWORD PTR [ebx+16]
  00030	83 ea 01	 sub	 edx, 1
  00033	89 53 10	 mov	 DWORD PTR [ebx+16], edx
  00036	74 06		 je	 SHORT $LN94@deque

; 1045 :         return _Mysize() == 0;

  00038	85 d2		 test	 edx, edx

; 1588 :         while (!empty()) {

  0003a	75 da		 jne	 SHORT $LL4@deque
  0003c	eb 0c		 jmp	 SHORT $LN5@deque
$LN94@deque:

; 1209 :             _Myoff() = 0;

  0003e	c7 43 0c 00 00
	00 00		 mov	 DWORD PTR [ebx+12], 0
  00045	eb 03		 jmp	 SHORT $LN5@deque
$LN92@deque:
  00047	89 75 fc	 mov	 DWORD PTR $T1[ebp], esi
$LN5@deque:

; 1592 :         if (_Map() != nullptr) {

  0004a	8b 43 04	 mov	 eax, DWORD PTR [ebx+4]
  0004d	85 c0		 test	 eax, eax
  0004f	74 4d		 je	 SHORT $LN27@deque

; 1593 :             for (size_type _Block = _Mapsize(); _Block > 0;) { // free storage for a block and destroy pointer

  00051	8b 36		 mov	 esi, DWORD PTR [esi]
  00053	85 f6		 test	 esi, esi
  00055	74 1b		 je	 SHORT $LN7@deque
$LL6@deque:

; 1594 :                 if (_Map()[--_Block]) { // free block

  00057	8b 4c b0 fc	 mov	 ecx, DWORD PTR [eax+esi*4-4]
  0005b	4e		 dec	 esi
  0005c	85 c9		 test	 ecx, ecx
  0005e	74 0e		 je	 SHORT $LN45@deque
; File C:\Program Files\Microsoft Visual Studio\2022\Community\VC\Tools\MSVC\14.34.31933\include\xmemory

; 255  :         ::operator delete(_Ptr, _Bytes);

  00060	6a 18		 push	 24			; 00000018H
  00062	51		 push	 ecx
  00063	e8 00 00 00 00	 call	 ??3@YAXPAXI@Z		; operator delete
  00068	8b 43 04	 mov	 eax, DWORD PTR [ebx+4]
  0006b	83 c4 08	 add	 esp, 8
$LN45@deque:
; File C:\Program Files\Microsoft Visual Studio\2022\Community\VC\Tools\MSVC\14.34.31933\include\deque

; 1593 :             for (size_type _Block = _Mapsize(); _Block > 0;) { // free storage for a block and destroy pointer

  0006e	85 f6		 test	 esi, esi
  00070	75 e5		 jne	 SHORT $LL6@deque
$LN7@deque:
; File C:\Program Files\Microsoft Visual Studio\2022\Community\VC\Tools\MSVC\14.34.31933\include\xmemory

; 830  :         _Deallocate<_New_alignof<_Ty>>(_Ptr, sizeof(_Ty) * _Count);

  00072	8b 75 fc	 mov	 esi, DWORD PTR $T1[ebp]
  00075	8b 0e		 mov	 ecx, DWORD PTR [esi]
  00077	c1 e1 02	 shl	 ecx, 2

; 251  :         if (_Bytes >= _Big_allocation_threshold) { // boost the alignment of big allocations to help autovectorization

  0007a	81 f9 00 10 00
	00		 cmp	 ecx, 4096		; 00001000H
  00080	72 12		 jb	 SHORT $LN37@deque

; 150  :     const uintptr_t _Ptr_container   = _Ptr_user[-1];

  00082	8b 50 fc	 mov	 edx, DWORD PTR [eax-4]
  00085	83 c1 23	 add	 ecx, 35			; 00000023H

; 151  : 
; 152  :     // If the following asserts, it likely means that we are performing
; 153  :     // an aligned delete on memory coming from an unaligned allocation.
; 154  :     _STL_ASSERT(_Ptr_user[-2] == _Big_allocation_sentinel, "invalid argument");
; 155  : 
; 156  :     // Extra paranoia on aligned allocation/deallocation; ensure _Ptr_container is
; 157  :     // in range [_Min_back_shift, _Non_user_size]
; 158  : #ifdef _DEBUG
; 159  :     constexpr uintptr_t _Min_back_shift = 2 * sizeof(void*);
; 160  : #else // ^^^ _DEBUG ^^^ // vvv !_DEBUG vvv
; 161  :     constexpr uintptr_t _Min_back_shift = sizeof(void*);
; 162  : #endif // _DEBUG
; 163  :     const uintptr_t _Back_shift = reinterpret_cast<uintptr_t>(_Ptr) - _Ptr_container;

  00088	2b c2		 sub	 eax, edx

; 164  :     _STL_VERIFY(_Back_shift >= _Min_back_shift && _Back_shift <= _Non_user_size, "invalid argument");

  0008a	83 c0 fc	 add	 eax, -4			; fffffffcH
  0008d	83 f8 1f	 cmp	 eax, 31			; 0000001fH
  00090	77 33		 ja	 SHORT $LN34@deque

; 165  :     _Ptr = reinterpret_cast<void*>(_Ptr_container);

  00092	8b c2		 mov	 eax, edx
$LN37@deque:

; 255  :         ::operator delete(_Ptr, _Bytes);

  00094	51		 push	 ecx
  00095	50		 push	 eax
  00096	e8 00 00 00 00	 call	 ??3@YAXPAXI@Z		; operator delete
  0009b	83 c4 08	 add	 esp, 8
$LN27@deque:
; File C:\Program Files\Microsoft Visual Studio\2022\Community\VC\Tools\MSVC\14.34.31933\include\utility

; 653  :     _Ty _Old_val = static_cast<_Ty&&>(_Val);

  0009e	8b 03		 mov	 eax, DWORD PTR [ebx]
; File C:\Program Files\Microsoft Visual Studio\2022\Community\VC\Tools\MSVC\14.34.31933\include\xmemory

; 255  :         ::operator delete(_Ptr, _Bytes);

  000a0	6a 08		 push	 8
  000a2	50		 push	 eax
; File C:\Program Files\Microsoft Visual Studio\2022\Community\VC\Tools\MSVC\14.34.31933\include\deque

; 1603 :         _Mapsize() = 0;

  000a3	c7 06 00 00 00
	00		 mov	 DWORD PTR [esi], 0

; 1604 :         _Map()     = nullptr;

  000a9	c7 43 04 00 00
	00 00		 mov	 DWORD PTR [ebx+4], 0
; File C:\Program Files\Microsoft Visual Studio\2022\Community\VC\Tools\MSVC\14.34.31933\include\utility

; 654  :     _Val         = static_cast<_Other&&>(_New_val);

  000b0	c7 03 00 00 00
	00		 mov	 DWORD PTR [ebx], 0
; File C:\Program Files\Microsoft Visual Studio\2022\Community\VC\Tools\MSVC\14.34.31933\include\xmemory

; 255  :         ::operator delete(_Ptr, _Bytes);

  000b6	e8 00 00 00 00	 call	 ??3@YAXPAXI@Z		; operator delete
  000bb	83 c4 08	 add	 esp, 8
  000be	5f		 pop	 edi
  000bf	5e		 pop	 esi
  000c0	5b		 pop	 ebx
; File C:\Program Files\Microsoft Visual Studio\2022\Community\VC\Tools\MSVC\14.34.31933\include\deque

; 908  :     }

  000c1	8b e5		 mov	 esp, ebp
  000c3	5d		 pop	 ebp
  000c4	c3		 ret	 0
$LN34@deque:
; File C:\Program Files\Microsoft Visual Studio\2022\Community\VC\Tools\MSVC\14.34.31933\include\xmemory

; 164  :     _STL_VERIFY(_Back_shift >= _Min_back_shift && _Back_shift <= _Non_user_size, "invalid argument");

  000c5	e8 00 00 00 00	 call	 __invalid_parameter_noinfo_noreturn
$LN95@deque:
  000ca	cc		 int	 3
??1?$deque@VCFlyTarget@@V?$allocator@VCFlyTarget@@@std@@@std@@QAE@XZ ENDP ; std::deque<CFlyTarget,std::allocator<CFlyTarget> >::~deque<CFlyTarget,std::allocator<CFlyTarget> >
_TEXT	ENDS
; Function compile flags: /Ogtp
; File C:\Users\flourine\Desktop\Xantios\client-src\Code\GameLib\ActorInstance.cpp
;	COMDAT ?__AccumulationMovement@CActorInstance@@QAEXM@Z
_TEXT	SEGMENT
_s_matRotationZ$ = -68					; size = 64
__$ArrayPad$ = -4					; size = 4
_fRot$ = 8						; size = 4
?__AccumulationMovement@CActorInstance@@QAEXM@Z PROC	; CActorInstance::__AccumulationMovement, COMDAT
; _this$ = ecx

; 560  : {

  00000	55		 push	 ebp
  00001	8b ec		 mov	 ebp, esp
  00003	83 ec 44	 sub	 esp, 68			; 00000044H
  00006	a1 00 00 00 00	 mov	 eax, DWORD PTR ___security_cookie
  0000b	33 c5		 xor	 eax, ebp
  0000d	89 45 fc	 mov	 DWORD PTR __$ArrayPad$[ebp], eax
  00010	56		 push	 esi
  00011	8b f1		 mov	 esi, ecx

; 561  : 	if (CRaceMotionData::NAME_WAIT == __GetCurrentMotionIndex())

  00013	e8 00 00 00 00	 call	 ?__GetCurrentMotionIndex@CActorInstance@@IAEGXZ ; CActorInstance::__GetCurrentMotionIndex
  00018	b9 01 00 00 00	 mov	 ecx, 1
  0001d	66 3b c8	 cmp	 cx, ax
  00020	74 5e		 je	 SHORT $LN1@Accumulati

; 562  : 	{
; 563  : 		return;
; 564  : 	}
; 565  : 
; 566  : 	D3DXMATRIX s_matRotationZ;
; 567  : 	D3DXMatrixRotationZ(&s_matRotationZ, D3DXToRadian(fRot));

  00022	f3 0f 10 45 08	 movss	 xmm0, DWORD PTR _fRot$[ebp]
  00027	8d 45 bc	 lea	 eax, DWORD PTR _s_matRotationZ$[ebp]
  0002a	f3 0f 59 05 00
	00 00 00	 mulss	 xmm0, DWORD PTR __real@3c8efa35
  00032	51		 push	 ecx
  00033	f3 0f 11 04 24	 movss	 DWORD PTR [esp], xmm0
  00038	50		 push	 eax
  00039	e8 00 00 00 00	 call	 _D3DXMatrixRotationZ@8

; 568  : 	UpdateTransform(&s_matRotationZ, GetAverageSecondElapsed());

  0003e	6a 00		 push	 0
  00040	8b ce		 mov	 ecx, esi
  00042	e8 00 00 00 00	 call	 ?GetAverageSecondElapsed@CGraphicThingInstance@@QAEMXZ ; CGraphicThingInstance::GetAverageSecondElapsed
  00047	51		 push	 ecx
  00048	8d 45 bc	 lea	 eax, DWORD PTR _s_matRotationZ$[ebp]
  0004b	8b ce		 mov	 ecx, esi
  0004d	d9 1c 24	 fstp	 DWORD PTR [esp]
  00050	50		 push	 eax
  00051	e8 00 00 00 00	 call	 ?UpdateTransform@CGraphicThingInstance@@QAEXPAUD3DXMATRIX@@MH@Z ; CGraphicThingInstance::UpdateTransform

; 569  : 
; 570  : 	AddMovement(s_matRotationZ._41, s_matRotationZ._42, s_matRotationZ._43);

  00056	f3 0f 10 45 f4	 movss	 xmm0, DWORD PTR _s_matRotationZ$[ebp+56]
  0005b	83 ec 0c	 sub	 esp, 12			; 0000000cH
  0005e	8b ce		 mov	 ecx, esi
  00060	f3 0f 11 44 24
	08		 movss	 DWORD PTR [esp+8], xmm0
  00066	f3 0f 10 45 f0	 movss	 xmm0, DWORD PTR _s_matRotationZ$[ebp+52]
  0006b	f3 0f 11 44 24
	04		 movss	 DWORD PTR [esp+4], xmm0
  00071	f3 0f 10 45 ec	 movss	 xmm0, DWORD PTR _s_matRotationZ$[ebp+48]
  00076	f3 0f 11 04 24	 movss	 DWORD PTR [esp], xmm0
  0007b	e8 00 00 00 00	 call	 ?AddMovement@CActorInstance@@IAEXMMM@Z ; CActorInstance::AddMovement
$LN1@Accumulati:

; 571  : }

  00080	8b 4d fc	 mov	 ecx, DWORD PTR __$ArrayPad$[ebp]
  00083	33 cd		 xor	 ecx, ebp
  00085	5e		 pop	 esi
  00086	e8 00 00 00 00	 call	 @__security_check_cookie@4
  0008b	8b e5		 mov	 esp, ebp
  0008d	5d		 pop	 ebp
  0008e	c2 04 00	 ret	 4
?__AccumulationMovement@CActorInstance@@QAEXM@Z ENDP	; CActorInstance::__AccumulationMovement
_TEXT	ENDS
; Function compile flags: /Ogtp
; File C:\Users\flourine\Desktop\Xantios\client-src\Code\GameLib\ActorInstance.cpp
;	COMDAT ?AccumulationMovement@CActorInstance@@QAEXXZ
_TEXT	SEGMENT
?AccumulationMovement@CActorInstance@@QAEXXZ PROC	; CActorInstance::AccumulationMovement, COMDAT
; _this$ = ecx

; 575  : 	if (m_pkTree)

  00000	83 b9 98 05 00
	00 00		 cmp	 DWORD PTR [ecx+1432], 0
  00007	75 32		 jne	 SHORT $LN1@Accumulati

; 576  : 	{
; 577  : 		return;
; 578  : 	}
; 579  : 
; 580  : 	if (m_pkHorse)

  00009	8b 81 94 05 00
	00		 mov	 eax, DWORD PTR [ecx+1428]
  0000f	51		 push	 ecx
  00010	85 c0		 test	 eax, eax
  00012	74 15		 je	 SHORT $LN3@Accumulati

; 581  : 	{
; 582  : 		m_pkHorse->__AccumulationMovement(m_fcurRotation);

  00014	f3 0f 10 81 e4
	04 00 00	 movss	 xmm0, DWORD PTR [ecx+1252]
  0001c	8b c8		 mov	 ecx, eax

; 587  : }

  0001e	f3 0f 11 04 24	 movss	 DWORD PTR [esp], xmm0
  00023	e8 00 00 00 00	 call	 ?__AccumulationMovement@CActorInstance@@QAEXM@Z ; CActorInstance::__AccumulationMovement
  00028	c3		 ret	 0
$LN3@Accumulati:

; 583  : 		return;
; 584  : 	}
; 585  : 
; 586  : 	__AccumulationMovement(m_fAdvancingRotation);

  00029	f3 0f 10 81 fc
	04 00 00	 movss	 xmm0, DWORD PTR [ecx+1276]

; 587  : }

  00031	f3 0f 11 04 24	 movss	 DWORD PTR [esp], xmm0
  00036	e8 00 00 00 00	 call	 ?__AccumulationMovement@CActorInstance@@QAEXM@Z ; CActorInstance::__AccumulationMovement
$LN1@Accumulati:
  0003b	c3		 ret	 0
?AccumulationMovement@CActorInstance@@QAEXXZ ENDP	; CActorInstance::AccumulationMovement
_TEXT	ENDS
; Function compile flags: /Ogtp
; File C:\Users\flourine\Desktop\Xantios\client-src\Code\GameLib\ActorInstance.cpp
;	COMDAT ?TransformProcess@CActorInstance@@QAEXXZ
_TEXT	SEGMENT
$T1 = -4						; size = 4
?TransformProcess@CActorInstance@@QAEXXZ PROC		; CActorInstance::TransformProcess, COMDAT
; _this$ = ecx

; 590  : {

  00000	55		 push	 ebp
  00001	8b ec		 mov	 ebp, esp
  00003	51		 push	 ecx
  00004	53		 push	 ebx
  00005	56		 push	 esi
  00006	8b f1		 mov	 esi, ecx
  00008	57		 push	 edi

; 591  : 	if (!IsParalysis())

  00009	8d 86 ac 04 00
	00		 lea	 eax, DWORD PTR [esi+1196]
  0000f	89 45 fc	 mov	 DWORD PTR $T1[ebp], eax
  00012	e8 00 00 00 00	 call	 ?IsParalysis@CActorInstance@@QAEHXZ ; CActorInstance::IsParalysis
  00017	85 c0		 test	 eax, eax
  00019	75 4a		 jne	 SHORT $LN5@TransformP

; 592  : 	{
; 593  : 		m_x += m_v3Movement.x;

  0001b	f3 0f 10 86 c4
	04 00 00	 movss	 xmm0, DWORD PTR [esi+1220]
  00023	f3 0f 58 86 ac
	04 00 00	 addss	 xmm0, DWORD PTR [esi+1196]
  0002b	f3 0f 11 86 ac
	04 00 00	 movss	 DWORD PTR [esi+1196], xmm0

; 594  : 		m_y += m_v3Movement.y;

  00033	f3 0f 10 86 c8
	04 00 00	 movss	 xmm0, DWORD PTR [esi+1224]
  0003b	f3 0f 58 86 b0
	04 00 00	 addss	 xmm0, DWORD PTR [esi+1200]
  00043	f3 0f 11 86 b0
	04 00 00	 movss	 DWORD PTR [esi+1200], xmm0

; 595  : 		m_z += m_v3Movement.z;

  0004b	f3 0f 10 86 cc
	04 00 00	 movss	 xmm0, DWORD PTR [esi+1228]
  00053	f3 0f 58 86 b4
	04 00 00	 addss	 xmm0, DWORD PTR [esi+1204]
  0005b	f3 0f 11 86 b4
	04 00 00	 movss	 DWORD PTR [esi+1204], xmm0
  00063	eb 09		 jmp	 SHORT $LN4@TransformP
$LN5@TransformP:
  00065	8d 86 ac 04 00
	00		 lea	 eax, DWORD PTR [esi+1196]
  0006b	89 45 fc	 mov	 DWORD PTR $T1[ebp], eax
$LN4@TransformP:

; 596  : 	}
; 597  : 
; 598  : 	__InitializeMovement();

  0006e	8b ce		 mov	 ecx, esi
  00070	e8 00 00 00 00	 call	 ?__InitializeMovement@CActorInstance@@IAEXXZ ; CActorInstance::__InitializeMovement

; 599  : 
; 600  : 	SetPosition(m_x, m_y, m_z);

  00075	f3 0f 10 86 b4
	04 00 00	 movss	 xmm0, DWORD PTR [esi+1204]
  0007d	83 ec 0c	 sub	 esp, 12			; 0000000cH
  00080	8b 45 fc	 mov	 eax, DWORD PTR $T1[ebp]
  00083	8b ce		 mov	 ecx, esi
  00085	f3 0f 11 44 24
	08		 movss	 DWORD PTR [esp+8], xmm0
  0008b	f3 0f 10 86 b0
	04 00 00	 movss	 xmm0, DWORD PTR [esi+1200]
  00093	f3 0f 11 44 24
	04		 movss	 DWORD PTR [esp+4], xmm0
  00099	f3 0f 10 00	 movss	 xmm0, DWORD PTR [eax]
  0009d	f3 0f 11 04 24	 movss	 DWORD PTR [esp], xmm0
  000a2	e8 00 00 00 00	 call	 ?SetPosition@CGraphicObjectInstance@@QAEXMMM@Z ; CGraphicObjectInstance::SetPosition
  000a7	5f		 pop	 edi
  000a8	5e		 pop	 esi
  000a9	5b		 pop	 ebx

; 601  : }

  000aa	8b e5		 mov	 esp, ebp
  000ac	5d		 pop	 ebp
  000ad	c3		 ret	 0
?TransformProcess@CActorInstance@@QAEXXZ ENDP		; CActorInstance::TransformProcess
_TEXT	ENDS
; Function compile flags: /Ogtp
; File C:\Users\flourine\Desktop\Xantios\client-src\Code\GameLib\ActorInstance.cpp
;	COMDAT ?PhysicsProcess@CActorInstance@@QAEXXZ
_TEXT	SEGMENT
tv85 = -8						; size = 4
tv87 = -4						; size = 4
?PhysicsProcess@CActorInstance@@QAEXXZ PROC		; CActorInstance::PhysicsProcess, COMDAT
; _this$ = ecx

; 554  : {

  00000	55		 push	 ebp
  00001	8b ec		 mov	 ebp, esp
  00003	83 ec 08	 sub	 esp, 8
  00006	56		 push	 esi
  00007	57		 push	 edi
  00008	8b f9		 mov	 edi, ecx

; 555  : 	m_PhysicsObject.Update(m_fSecondElapsed);

  0000a	51		 push	 ecx
  0000b	f3 0f 10 87 9c
	02 00 00	 movss	 xmm0, DWORD PTR [edi+668]
  00013	8d 8f c4 03 00
	00		 lea	 ecx, DWORD PTR [edi+964]
  00019	f3 0f 11 04 24	 movss	 DWORD PTR [esp], xmm0
  0001e	e8 00 00 00 00	 call	 ?Update@CPhysicsObject@@QAEXM@Z ; CPhysicsObject::Update

; 556  : 	AddMovement(m_PhysicsObject.GetXMovement(), m_PhysicsObject.GetYMovement(), 0.0f);

  00023	8d 8f c4 03 00
	00		 lea	 ecx, DWORD PTR [edi+964]
  00029	e8 00 00 00 00	 call	 ?GetYMovement@CPhysicsObject@@QAEMXZ ; CPhysicsObject::GetYMovement
  0002e	d9 5d fc	 fstp	 DWORD PTR tv87[ebp]
  00031	8d 8f c4 03 00
	00		 lea	 ecx, DWORD PTR [edi+964]
  00037	e8 00 00 00 00	 call	 ?GetXMovement@CPhysicsObject@@QAEMXZ ; CPhysicsObject::GetXMovement
  0003c	f3 0f 10 45 fc	 movss	 xmm0, DWORD PTR tv87[ebp]
  00041	83 ec 0c	 sub	 esp, 12			; 0000000cH
  00044	d9 5d f8	 fstp	 DWORD PTR tv85[ebp]
  00047	8b cf		 mov	 ecx, edi
  00049	c7 44 24 08 00
	00 00 00	 mov	 DWORD PTR [esp+8], 0
  00051	f3 0f 11 44 24
	04		 movss	 DWORD PTR [esp+4], xmm0
  00057	f3 0f 10 45 f8	 movss	 xmm0, DWORD PTR tv85[ebp]
  0005c	f3 0f 11 04 24	 movss	 DWORD PTR [esp], xmm0
  00061	e8 00 00 00 00	 call	 ?AddMovement@CActorInstance@@IAEXMMM@Z ; CActorInstance::AddMovement
  00066	5f		 pop	 edi
  00067	5e		 pop	 esi

; 557  : }

  00068	8b e5		 mov	 esp, ebp
  0006a	5d		 pop	 ebp
  0006b	c3		 ret	 0
?PhysicsProcess@CActorInstance@@QAEXXZ ENDP		; CActorInstance::PhysicsProcess
_TEXT	ENDS
; Function compile flags: /Ogtp
; File C:\Users\flourine\Desktop\Xantios\client-src\Code\GameLib\ActorInstance.cpp
;	COMDAT ?MountHorse@CActorInstance@@QAEXPAV1@@Z
_TEXT	SEGMENT
tv91 = 8						; size = 4
tv82 = 8						; size = 4
_pkHorse$ = 8						; size = 4
?MountHorse@CActorInstance@@QAEXPAV1@@Z PROC		; CActorInstance::MountHorse, COMDAT
; _this$ = ecx

; 911  : {

  00000	55		 push	 ebp
  00001	8b ec		 mov	 ebp, esp
  00003	56		 push	 esi

; 912  : 	m_pkHorse = pkHorse;

  00004	8b 75 08	 mov	 esi, DWORD PTR _pkHorse$[ebp]
  00007	57		 push	 edi
  00008	8b f9		 mov	 edi, ecx
  0000a	89 b7 94 05 00
	00		 mov	 DWORD PTR [edi+1428], esi

; 913  : 
; 914  : 	if (m_pkHorse)

  00010	85 f6		 test	 esi, esi
  00012	74 51		 je	 SHORT $LN2@MountHorse

; 915  : 	{
; 916  : 		m_pkHorse->SetCurPixelPosition(NEW_GetCurPixelPositionRef());

  00014	e8 00 00 00 00	 call	 ?NEW_GetCurPixelPositionRef@CActorInstance@@QAEABUD3DXVECTOR3@@XZ ; CActorInstance::NEW_GetCurPixelPositionRef
  00019	50		 push	 eax
  0001a	8b ce		 mov	 ecx, esi
  0001c	e8 00 00 00 00	 call	 ?SetCurPixelPosition@CActorInstance@@QAEXABUD3DXVECTOR3@@@Z ; CActorInstance::SetCurPixelPosition

; 917  : 		m_pkHorse->SetRotation(GetRotation());

  00021	8b b7 94 05 00
	00		 mov	 esi, DWORD PTR [edi+1428]
  00027	8b cf		 mov	 ecx, edi
  00029	e8 00 00 00 00	 call	 ?GetRotation@CActorInstance@@QAEMXZ ; CActorInstance::GetRotation
  0002e	d9 5d 08	 fstp	 DWORD PTR tv82[ebp]
  00031	f3 0f 10 45 08	 movss	 xmm0, DWORD PTR tv82[ebp]
  00036	51		 push	 ecx
  00037	8b ce		 mov	 ecx, esi
  00039	f3 0f 11 04 24	 movss	 DWORD PTR [esp], xmm0
  0003e	e8 00 00 00 00	 call	 ?SetRotation@CActorInstance@@QAEXM@Z ; CActorInstance::SetRotation

; 918  : 		m_pkHorse->SetAdvancingRotation(GetRotation());

  00043	8b b7 94 05 00
	00		 mov	 esi, DWORD PTR [edi+1428]
  00049	8b cf		 mov	 ecx, edi
  0004b	e8 00 00 00 00	 call	 ?GetRotation@CActorInstance@@QAEMXZ ; CActorInstance::GetRotation
  00050	d9 5d 08	 fstp	 DWORD PTR tv91[ebp]
  00053	f3 0f 10 45 08	 movss	 xmm0, DWORD PTR tv91[ebp]
  00058	51		 push	 ecx
  00059	8b ce		 mov	 ecx, esi
  0005b	f3 0f 11 04 24	 movss	 DWORD PTR [esp], xmm0
  00060	e8 00 00 00 00	 call	 ?SetAdvancingRotation@CActorInstance@@QAEXM@Z ; CActorInstance::SetAdvancingRotation
$LN2@MountHorse:

; 919  : 	}
; 920  : }

  00065	5f		 pop	 edi
  00066	5e		 pop	 esi
  00067	5d		 pop	 ebp
  00068	c2 04 00	 ret	 4
?MountHorse@CActorInstance@@QAEXPAV1@@Z ENDP		; CActorInstance::MountHorse
_TEXT	ENDS
; Function compile flags: /Ogtp
; File C:\Users\flourine\Desktop\Xantios\client-src\Code\GameLib\ActorInstance.cpp
;	COMDAT ?SetFishingPosition@CActorInstance@@QAEXAAUD3DXVECTOR3@@@Z
_TEXT	SEGMENT
_rv3Position$ = 8					; size = 4
?SetFishingPosition@CActorInstance@@QAEXAAUD3DXVECTOR3@@@Z PROC ; CActorInstance::SetFishingPosition, COMDAT
; _this$ = ecx

; 215  : {

  00000	55		 push	 ebp
  00001	8b ec		 mov	 ebp, esp

; 216  : 	m_v3FishingPosition = rv3Position;

  00003	8b 45 08	 mov	 eax, DWORD PTR _rv3Position$[ebp]
  00006	f3 0f 7e 00	 movq	 xmm0, QWORD PTR [eax]
  0000a	66 0f d6 81 9c
	04 00 00	 movq	 QWORD PTR [ecx+1180], xmm0
  00012	8b 40 08	 mov	 eax, DWORD PTR [eax+8]
  00015	89 81 a4 04 00
	00		 mov	 DWORD PTR [ecx+1188], eax

; 217  : }

  0001b	5d		 pop	 ebp
  0001c	c2 04 00	 ret	 4
?SetFishingPosition@CActorInstance@@QAEXAAUD3DXVECTOR3@@@Z ENDP ; CActorInstance::SetFishingPosition
_TEXT	ENDS
; Function compile flags: /Ogtp
; File C:\Users\flourine\Desktop\Xantios\client-src\Code\GameLib\ActorInstance.cpp
;	COMDAT ?ClearAttachingEffect@CActorInstance@@QAEXXZ
_TEXT	SEGMENT
?ClearAttachingEffect@CActorInstance@@QAEXXZ PROC	; CActorInstance::ClearAttachingEffect, COMDAT
; _this$ = ecx

; 961  : 	__ClearAttachingEffect();

  00000	e9 00 00 00 00	 jmp	 ?__ClearAttachingEffect@CActorInstance@@IAEXXZ ; CActorInstance::__ClearAttachingEffect
?ClearAttachingEffect@CActorInstance@@QAEXXZ ENDP	; CActorInstance::ClearAttachingEffect
_TEXT	ENDS
; Function compile flags: /Ogtp
; File C:\Users\flourine\Desktop\Xantios\client-src\Code\GameLib\ActorInstance.cpp
;	COMDAT ?GetHeight@CActorInstance@@QAEMXZ
_TEXT	SEGMENT
tv134 = -4						; size = 4
?GetHeight@CActorInstance@@QAEMXZ PROC			; CActorInstance::GetHeight, COMDAT
; _this$ = ecx

; 869  : {

  00000	55		 push	 ebp
  00001	8b ec		 mov	 ebp, esp
  00003	51		 push	 ecx
  00004	57		 push	 edi
  00005	8b f9		 mov	 edi, ecx

; 870  : 	return (m_eActorType != TYPE_PC && GetScale().z > 0.0f) ? CGraphicThingInstance::GetHeight() * GetScale().z : CGraphicThingInstance::GetHeight();

  00007	83 bf 40 04 00
	00 06		 cmp	 DWORD PTR [edi+1088], 6
  0000e	74 33		 je	 SHORT $LN3@GetHeight
  00010	e8 00 00 00 00	 call	 ?GetScale@CGraphicObjectInstance@@QBEABUD3DXVECTOR3@@XZ ; CGraphicObjectInstance::GetScale
  00015	f3 0f 10 40 08	 movss	 xmm0, DWORD PTR [eax+8]
  0001a	0f 2f 05 00 00
	00 00		 comiss	 xmm0, DWORD PTR __real@00000000
  00021	76 20		 jbe	 SHORT $LN3@GetHeight
  00023	56		 push	 esi
  00024	8b cf		 mov	 ecx, edi
  00026	e8 00 00 00 00	 call	 ?GetScale@CGraphicObjectInstance@@QBEABUD3DXVECTOR3@@XZ ; CGraphicObjectInstance::GetScale
  0002b	8b cf		 mov	 ecx, edi
  0002d	8b f0		 mov	 esi, eax
  0002f	e8 00 00 00 00	 call	 ?GetHeight@CGraphicThingInstance@@QAEMXZ ; CGraphicThingInstance::GetHeight
  00034	d8 4e 08	 fmul	 DWORD PTR [esi+8]
  00037	5e		 pop	 esi
  00038	5f		 pop	 edi

; 871  : }

  00039	d9 5d fc	 fstp	 DWORD PTR tv134[ebp]
  0003c	d9 45 fc	 fld	 DWORD PTR tv134[ebp]
  0003f	8b e5		 mov	 esp, ebp
  00041	5d		 pop	 ebp
  00042	c3		 ret	 0
$LN3@GetHeight:

; 870  : 	return (m_eActorType != TYPE_PC && GetScale().z > 0.0f) ? CGraphicThingInstance::GetHeight() * GetScale().z : CGraphicThingInstance::GetHeight();

  00043	8b cf		 mov	 ecx, edi
  00045	e8 00 00 00 00	 call	 ?GetHeight@CGraphicThingInstance@@QAEMXZ ; CGraphicThingInstance::GetHeight

; 871  : }

  0004a	d9 5d fc	 fstp	 DWORD PTR tv134[ebp]
  0004d	d9 45 fc	 fld	 DWORD PTR tv134[ebp]
  00050	5f		 pop	 edi
  00051	8b e5		 mov	 esp, ebp
  00053	5d		 pop	 ebp
  00054	c3		 ret	 0
?GetHeight@CActorInstance@@QAEMXZ ENDP			; CActorInstance::GetHeight
_TEXT	ENDS
; Function compile flags: /Ogtp
; File C:\Users\flourine\Desktop\Xantios\client-src\Code\GameLib\ActorInstance.cpp
; File C:\Program Files\Microsoft Visual Studio\2022\Community\VC\Tools\MSVC\14.34.31933\include\list
; File C:\Users\flourine\Desktop\Xantios\client-src\Code\GameLib\ActorInstance.cpp
; File C:\Program Files\Microsoft Visual Studio\2022\Community\VC\Tools\MSVC\14.34.31933\include\list
; File C:\Users\flourine\Desktop\Xantios\client-src\Code\GameLib\ActorInstance.cpp
; File C:\Program Files\Microsoft Visual Studio\2022\Community\VC\Tools\MSVC\14.34.31933\include\vector
; File C:\Users\flourine\Desktop\Xantios\client-src\Code\GameLib\ActorInstance.cpp
; File C:\Users\flourine\Desktop\Xantios\client-src\Code\eterLib\Ray.h
; File C:\Users\flourine\Desktop\Xantios\client-src\Code\GameLib\ActorInstance.cpp
; File C:\Users\flourine\Desktop\Xantios\client-src\extern\include\directX\d3dx9math.inl
; File C:\Users\flourine\Desktop\Xantios\client-src\Code\GameLib\ActorInstance.cpp
; File C:\Users\flourine\Desktop\Xantios\client-src\extern\include\directX\d3dx9math.inl
; File C:\Users\flourine\Desktop\Xantios\client-src\Code\GameLib\ActorInstance.cpp
; File C:\Users\flourine\Desktop\Xantios\client-src\extern\include\directX\d3dx9math.inl
; File C:\Users\flourine\Desktop\Xantios\client-src\Code\GameLib\ActorInstance.cpp
; File C:\Users\flourine\Desktop\Xantios\client-src\extern\include\directX\d3dx9math.inl
; File C:\Users\flourine\Desktop\Xantios\client-src\Code\GameLib\ActorInstance.cpp
; File C:\Users\flourine\Desktop\Xantios\client-src\extern\include\directX\d3dx9math.inl
; File C:\Users\flourine\Desktop\Xantios\client-src\Code\GameLib\ActorInstance.cpp
; File C:\Program Files\Microsoft Visual Studio\2022\Community\VC\Tools\MSVC\14.34.31933\include\vector
; File C:\Users\flourine\Desktop\Xantios\client-src\Code\GameLib\ActorInstance.cpp
; File C:\Program Files\Microsoft Visual Studio\2022\Community\VC\Tools\MSVC\14.34.31933\include\list
; File C:\Users\flourine\Desktop\Xantios\client-src\Code\GameLib\ActorInstance.cpp
;	COMDAT ?IntersectDefendingSphere@CActorInstance@@QAE_NXZ
_TEXT	SEGMENT
_v3Dir$1 = -36						; size = 12
_v3SpherePosition$2 = -24				; size = 12
_v3Orig$3 = -12						; size = 12
?IntersectDefendingSphere@CActorInstance@@QAE_NXZ PROC	; CActorInstance::IntersectDefendingSphere, COMDAT
; _this$ = ecx

; 874  : {

  00000	55		 push	 ebp
  00001	8b ec		 mov	 ebp, esp
  00003	83 ec 24	 sub	 esp, 36			; 00000024H
  00006	53		 push	 ebx
  00007	56		 push	 esi
; File C:\Program Files\Microsoft Visual Studio\2022\Community\VC\Tools\MSVC\14.34.31933\include\list

; 1087 :         return iterator(_Mypair._Myval2._Myhead->_Next, _STD addressof(_Mypair._Myval2));

  00008	8b b1 84 03 00
	00		 mov	 esi, DWORD PTR [ecx+900]
; File C:\Users\flourine\Desktop\Xantios\client-src\Code\GameLib\ActorInstance.cpp

; 874  : {

  0000e	57		 push	 edi
; File C:\Program Files\Microsoft Visual Studio\2022\Community\VC\Tools\MSVC\14.34.31933\include\list

; 38   :     _List_unchecked_const_iterator(_Nodeptr _Pnode, const _Mylist* _Plist) noexcept : _Ptr(_Pnode) {

  0000f	8b 0e		 mov	 ecx, DWORD PTR [esi]
  00011	3b ce		 cmp	 ecx, esi
; File C:\Users\flourine\Desktop\Xantios\client-src\Code\GameLib\ActorInstance.cpp

; 875  : 	for (TCollisionPointInstanceList::iterator it = m_DefendingPointInstanceList.begin(); it != m_DefendingPointInstanceList.end(); ++it)

  00013	0f 84 d6 00 00
	00		 je	 $LN79@IntersectD
  00019	8b 1d 20 00 00
	00		 mov	 ebx, DWORD PTR ?ms_Ray@CGraphicBase@@1VCRay@@A+32
  0001f	90		 npad	 1
$LL25@IntersectD:
; File C:\Program Files\Microsoft Visual Studio\2022\Community\VC\Tools\MSVC\14.34.31933\include\vector

; 41   :     _CONSTEXPR20 _Vector_const_iterator(_Tptr _Parg, const _Container_base* _Pvector) noexcept : _Ptr(_Parg) {

  00020	8b 41 18	 mov	 eax, DWORD PTR [ecx+24]
  00023	8b 51 1c	 mov	 edx, DWORD PTR [ecx+28]
  00026	3b c2		 cmp	 eax, edx
; File C:\Users\flourine\Desktop\Xantios\client-src\Code\GameLib\ActorInstance.cpp

; 880  : 		for (; it2 != rSphereInstanceVector.end(); ++it2)

  00028	0f 84 b7 00 00
	00		 je	 $LN2@IntersectD
; File C:\Users\flourine\Desktop\Xantios\client-src\Code\eterLib\Ray.h

; 36   : 		*pv3Start = m_v3Start;

  0002e	f3 0f 7e 05 00
	00 00 00	 movq	 xmm0, QWORD PTR ?ms_Ray@CGraphicBase@@1VCRay@@A
  00036	8b 3d 08 00 00
	00		 mov	 edi, DWORD PTR ?ms_Ray@CGraphicBase@@1VCRay@@A+8
  0003c	66 0f d6 45 f4	 movq	 QWORD PTR _v3Orig$3[ebp], xmm0

; 41   : 		*pv3Dir = m_v3Direction;

  00041	f3 0f 7e 05 18
	00 00 00	 movq	 xmm0, QWORD PTR ?ms_Ray@CGraphicBase@@1VCRay@@A+24
  00049	f3 0f 10 7d f8	 movss	 xmm7, DWORD PTR _v3Orig$3[ebp+4]

; 36   : 		*pv3Start = m_v3Start;

  0004e	89 7d fc	 mov	 DWORD PTR _v3Orig$3[ebp+8], edi

; 41   : 		*pv3Dir = m_v3Direction;

  00051	f3 0f 10 75 fc	 movss	 xmm6, DWORD PTR _v3Orig$3[ebp+8]
  00056	66 0f d6 45 dc	 movq	 QWORD PTR _v3Dir$1[ebp], xmm0
  0005b	89 5d e4	 mov	 DWORD PTR _v3Dir$1[ebp+8], ebx
  0005e	66 90		 npad	 2
$LL51@IntersectD:
; File C:\Users\flourine\Desktop\Xantios\client-src\Code\GameLib\ActorInstance.cpp

; 883  : 			D3DXVECTOR3 v3SpherePosition = rInstance.v3Position;

  00060	f3 0f 7e 00	 movq	 xmm0, QWORD PTR [eax]
; File C:\Users\flourine\Desktop\Xantios\client-src\extern\include\directX\d3dx9math.inl

; 387  :     return D3DXVECTOR3(x - v.x, y - v.y, z - v.z);

  00064	0f 28 e7	 movaps	 xmm4, xmm7
  00067	f3 0f 10 5d f4	 movss	 xmm3, DWORD PTR _v3Orig$3[ebp]
  0006c	0f 28 ce	 movaps	 xmm1, xmm6
; File C:\Users\flourine\Desktop\Xantios\client-src\Code\GameLib\ActorInstance.cpp

; 883  : 			D3DXVECTOR3 v3SpherePosition = rInstance.v3Position;

  0006f	8b 78 08	 mov	 edi, DWORD PTR [eax+8]

; 884  : 			float fRadius = rInstance.fRadius;

  00072	f3 0f 10 68 18	 movss	 xmm5, DWORD PTR [eax+24]
  00077	66 0f d6 45 e8	 movq	 QWORD PTR _v3SpherePosition$2[ebp], xmm0
; File C:\Users\flourine\Desktop\Xantios\client-src\extern\include\directX\d3dx9math.inl

; 387  :     return D3DXVECTOR3(x - v.x, y - v.y, z - v.z);

  0007c	f3 0f 5c 65 ec	 subss	 xmm4, DWORD PTR _v3SpherePosition$2[ebp+4]
  00081	f3 0f 5c 5d e8	 subss	 xmm3, DWORD PTR _v3SpherePosition$2[ebp]
; File C:\Users\flourine\Desktop\Xantios\client-src\Code\GameLib\ActorInstance.cpp

; 883  : 			D3DXVECTOR3 v3SpherePosition = rInstance.v3Position;

  00086	89 7d f0	 mov	 DWORD PTR _v3SpherePosition$2[ebp+8], edi
; File C:\Users\flourine\Desktop\Xantios\client-src\extern\include\directX\d3dx9math.inl

; 387  :     return D3DXVECTOR3(x - v.x, y - v.y, z - v.z);

  00089	f3 0f 5c 4d f0	 subss	 xmm1, DWORD PTR _v3SpherePosition$2[ebp+8]
; File C:\Users\flourine\Desktop\Xantios\client-src\Code\GameLib\ActorInstance.cpp

; 894  : 			float c = D3DXVec3Dot(&v3Distance, &v3Distance) - fRadius * fRadius;

  0008e	f3 0f 59 ed	 mulss	 xmm5, xmm5
; File C:\Users\flourine\Desktop\Xantios\client-src\extern\include\directX\d3dx9math.inl

; 306  :     z = fz;

  00092	0f 28 d4	 movaps	 xmm2, xmm4

; 1906 :     return pV1->x * pV2->x + pV1->y * pV2->y + pV1->z * pV2->z;

  00095	0f 28 c3	 movaps	 xmm0, xmm3
; File C:\Users\flourine\Desktop\Xantios\client-src\Code\GameLib\ActorInstance.cpp

; 896  : 			if (b * b - c >= 0)

  00098	f3 0f 59 e4	 mulss	 xmm4, xmm4
; File C:\Users\flourine\Desktop\Xantios\client-src\extern\include\directX\d3dx9math.inl

; 306  :     z = fz;

  0009c	f3 0f 59 55 e0	 mulss	 xmm2, DWORD PTR _v3Dir$1[ebp+4]

; 1906 :     return pV1->x * pV2->x + pV1->y * pV2->y + pV1->z * pV2->z;

  000a1	f3 0f 59 45 dc	 mulss	 xmm0, DWORD PTR _v3Dir$1[ebp]
  000a6	f3 0f 59 db	 mulss	 xmm3, xmm3
  000aa	f3 0f 58 d0	 addss	 xmm2, xmm0
  000ae	0f 28 c1	 movaps	 xmm0, xmm1
  000b1	f3 0f 59 45 e4	 mulss	 xmm0, DWORD PTR _v3Dir$1[ebp+8]
  000b6	f3 0f 58 e3	 addss	 xmm4, xmm3
  000ba	f3 0f 59 c9	 mulss	 xmm1, xmm1
  000be	f3 0f 58 d0	 addss	 xmm2, xmm0
  000c2	0f 57 c0	 xorps	 xmm0, xmm0
  000c5	f3 0f 58 e1	 addss	 xmm4, xmm1
; File C:\Users\flourine\Desktop\Xantios\client-src\Code\GameLib\ActorInstance.cpp

; 896  : 			if (b * b - c >= 0)

  000c9	f3 0f 59 d2	 mulss	 xmm2, xmm2
  000cd	f3 0f 5c e5	 subss	 xmm4, xmm5
  000d1	f3 0f 5c d4	 subss	 xmm2, xmm4
  000d5	0f 2f d0	 comiss	 xmm2, xmm0
  000d8	73 1e		 jae	 SHORT $LN72@IntersectD
; File C:\Program Files\Microsoft Visual Studio\2022\Community\VC\Tools\MSVC\14.34.31933\include\vector

; 74   :         ++_Ptr;

  000da	83 c0 1c	 add	 eax, 28			; 0000001cH

; 156  :         return _Ptr == _Right._Ptr;

  000dd	3b c2		 cmp	 eax, edx
; File C:\Users\flourine\Desktop\Xantios\client-src\Code\GameLib\ActorInstance.cpp

; 880  : 		for (; it2 != rSphereInstanceVector.end(); ++it2)

  000df	0f 85 7b ff ff
	ff		 jne	 $LL51@IntersectD
$LN2@IntersectD:
; File C:\Program Files\Microsoft Visual Studio\2022\Community\VC\Tools\MSVC\14.34.31933\include\list

; 165  :         this->_Ptr = this->_Ptr->_Next;

  000e5	8b 09		 mov	 ecx, DWORD PTR [ecx]

; 198  :         return this->_Ptr == _Right._Ptr;

  000e7	3b ce		 cmp	 ecx, esi
; File C:\Users\flourine\Desktop\Xantios\client-src\Code\GameLib\ActorInstance.cpp

; 875  : 	for (TCollisionPointInstanceList::iterator it = m_DefendingPointInstanceList.begin(); it != m_DefendingPointInstanceList.end(); ++it)

  000e9	0f 85 31 ff ff
	ff		 jne	 $LL25@IntersectD
$LN79@IntersectD:
  000ef	5f		 pop	 edi

; 897  : 			{
; 898  : 				return true;
; 899  : 			}
; 900  : 		}
; 901  : 	}
; 902  : 	return false;
; 903  : }

  000f0	5e		 pop	 esi
  000f1	32 c0		 xor	 al, al
  000f3	5b		 pop	 ebx
  000f4	8b e5		 mov	 esp, ebp
  000f6	5d		 pop	 ebp
  000f7	c3		 ret	 0
$LN72@IntersectD:
  000f8	5f		 pop	 edi
  000f9	5e		 pop	 esi
  000fa	b0 01		 mov	 al, 1
  000fc	5b		 pop	 ebx
  000fd	8b e5		 mov	 esp, ebp
  000ff	5d		 pop	 ebp
  00100	c3		 ret	 0
?IntersectDefendingSphere@CActorInstance@@QAE_NXZ ENDP	; CActorInstance::IntersectDefendingSphere
_TEXT	ENDS
; Function compile flags: /Ogtp
; File C:\Users\flourine\Desktop\Xantios\client-src\Code\GameLib\ActorInstance.cpp
; File C:\Users\flourine\Desktop\Xantios\client-src\extern\include\directX\d3dx9math.inl
; File C:\Program Files (x86)\Windows Kits\10\Include\10.0.22621.0\ucrt\corecrt_math.h
; File C:\Users\flourine\Desktop\Xantios\client-src\Code\GameLib\ActorInstance.cpp
; File C:\Program Files (x86)\Windows Kits\10\Include\10.0.22621.0\ucrt\corecrt_math.h
; File C:\Users\flourine\Desktop\Xantios\client-src\Code\GameLib\ActorInstance.cpp
; File C:\Users\flourine\Desktop\Xantios\client-src\extern\include\directX\d3dx9math.inl
; File C:\Program Files\Microsoft Visual Studio\2022\Community\VC\Tools\MSVC\14.34.31933\include\list
; File C:\Users\flourine\Desktop\Xantios\client-src\Code\GameLib\ActorInstance.cpp
; File C:\Program Files\Microsoft Visual Studio\2022\Community\VC\Tools\MSVC\14.34.31933\include\vector
; File C:\Users\flourine\Desktop\Xantios\client-src\Code\GameLib\ActorInstance.cpp
; File C:\Program Files\Microsoft Visual Studio\2022\Community\VC\Tools\MSVC\14.34.31933\include\vector
; File C:\Users\flourine\Desktop\Xantios\client-src\Code\GameLib\ActorInstance.cpp
; File C:\Program Files\Microsoft Visual Studio\2022\Community\VC\Tools\MSVC\14.34.31933\include\vector
; File C:\Program Files\Microsoft Visual Studio\2022\Community\VC\Tools\MSVC\14.34.31933\include\list
; File C:\Users\flourine\Desktop\Xantios\client-src\Code\GameLib\ActorInstance.cpp
; File C:\Users\flourine\Desktop\Xantios\client-src\Code\eterLib\CollisionData.h
; File C:\Users\flourine\Desktop\Xantios\client-src\extern\include\directX\d3dx9math.inl
; File C:\Users\flourine\Desktop\Xantios\client-src\Code\GameLib\ActorInstance.cpp
; File C:\Users\flourine\Desktop\Xantios\client-src\extern\include\directX\d3dx9math.inl
; File C:\Program Files (x86)\Windows Kits\10\Include\10.0.22621.0\ucrt\corecrt_math.h
; File C:\Users\flourine\Desktop\Xantios\client-src\Code\GameLib\ActorInstance.cpp
; File C:\Program Files (x86)\Windows Kits\10\Include\10.0.22621.0\ucrt\corecrt_math.h
; File C:\Users\flourine\Desktop\Xantios\client-src\Code\GameLib\ActorInstance.cpp
; File C:\Users\flourine\Desktop\Xantios\client-src\extern\include\directX\d3dx9math.inl
; File C:\Users\flourine\Desktop\Xantios\client-src\Code\GameLib\ActorInstance.cpp
; File C:\Users\flourine\Desktop\Xantios\client-src\extern\include\directX\d3dx9math.inl
; File C:\Program Files\Microsoft Visual Studio\2022\Community\VC\Tools\MSVC\14.34.31933\include\list
; File C:\Users\flourine\Desktop\Xantios\client-src\Code\GameLib\ActorInstance.cpp
; File C:\Program Files\Microsoft Visual Studio\2022\Community\VC\Tools\MSVC\14.34.31933\include\vector
; File C:\Users\flourine\Desktop\Xantios\client-src\Code\GameLib\ActorInstance.cpp
; File C:\Program Files\Microsoft Visual Studio\2022\Community\VC\Tools\MSVC\14.34.31933\include\vector
; File C:\Users\flourine\Desktop\Xantios\client-src\Code\GameLib\ActorInstance.cpp
; File C:\Program Files\Microsoft Visual Studio\2022\Community\VC\Tools\MSVC\14.34.31933\include\vector
; File C:\Users\flourine\Desktop\Xantios\client-src\Code\GameLib\ActorInstance.cpp
; File C:\Program Files\Microsoft Visual Studio\2022\Community\VC\Tools\MSVC\14.34.31933\include\vector
; File C:\Users\flourine\Desktop\Xantios\client-src\Code\GameLib\ActorInstance.cpp
; File C:\Program Files\Microsoft Visual Studio\2022\Community\VC\Tools\MSVC\14.34.31933\include\list
; File C:\Users\flourine\Desktop\Xantios\client-src\Code\GameLib\ActorInstance.cpp
;	COMDAT ?AdjustDynamicCollisionMovement@CActorInstance@@QAEXPBV1@@Z
_TEXT	SEGMENT
tv1096 = -84						; size = 4
$T1 = -80						; size = 4
tv1082 = -80						; size = 4
tv1053 = -80						; size = 4
$T2 = -68						; size = 4
tv1043 = -64						; size = 4
_itMain$1$ = -64					; size = 4
_this$GSCopy$1$ = -60					; size = 4
_c_pActorInstance$GSCopy$1$ = -56			; size = 4
_i$1$ = -52						; size = 4
$T3 = -48						; size = 8
_v3Delta$4 = -36					; size = 12
_s$5 = -24						; size = 20
__$ArrayPad$ = -4					; size = 4
_c_pActorInstance$ = 8					; size = 4
?AdjustDynamicCollisionMovement@CActorInstance@@QAEXPBV1@@Z PROC ; CActorInstance::AdjustDynamicCollisionMovement, COMDAT
; _this$ = ecx

; 711  : {

  00000	55		 push	 ebp
  00001	8b ec		 mov	 ebp, esp
  00003	83 e4 f8	 and	 esp, -8			; fffffff8H
  00006	83 ec 58	 sub	 esp, 88			; 00000058H
  00009	a1 00 00 00 00	 mov	 eax, DWORD PTR ___security_cookie
  0000e	33 c4		 xor	 eax, esp
  00010	89 44 24 54	 mov	 DWORD PTR __$ArrayPad$[esp+88], eax
  00014	56		 push	 esi
  00015	8b f1		 mov	 esi, ecx
  00017	57		 push	 edi
  00018	8b 7d 08	 mov	 edi, DWORD PTR _c_pActorInstance$[ebp]
  0001b	89 74 24 24	 mov	 DWORD PTR _this$GSCopy$1$[esp+96], esi

; 712  : 	if (m_pkHorse)

  0001f	8b 86 94 05 00
	00		 mov	 eax, DWORD PTR [esi+1428]
  00025	89 7c 24 28	 mov	 DWORD PTR _c_pActorInstance$GSCopy$1$[esp+96], edi
  00029	85 c0		 test	 eax, eax
  0002b	74 13		 je	 SHORT $LN11@AdjustDyna
  0002d	0f 1f 00	 npad	 3
$LL107@AdjustDyna:

; 711  : {

  00030	8b f0		 mov	 esi, eax
  00032	89 44 24 24	 mov	 DWORD PTR _this$GSCopy$1$[esp+96], eax

; 712  : 	if (m_pkHorse)

  00036	8b 86 94 05 00
	00		 mov	 eax, DWORD PTR [esi+1428]
  0003c	85 c0		 test	 eax, eax
  0003e	75 f0		 jne	 SHORT $LL107@AdjustDyna
$LN11@AdjustDyna:

; 713  : 	{
; 714  : 		m_pkHorse->AdjustDynamicCollisionMovement(c_pActorInstance);
; 715  : 		return;
; 716  : 	}
; 717  : 
; 718  : 
; 719  : 	if (isAttacking() )

  00040	8b ce		 mov	 ecx, esi
  00042	e8 00 00 00 00	 call	 ?isAttacking@CActorInstance@@QAEHXZ ; CActorInstance::isAttacking
  00047	85 c0		 test	 eax, eax
  00049	0f 85 a9 03 00
	00		 jne	 $LN3@AdjustDyna

; 720  : 	{
; 721  : 		return;
; 722  : 	}
; 723  : 
; 724  : 	UINT uActorType = c_pActorInstance->GetActorType();

  0004f	8b cf		 mov	 ecx, edi
  00051	e8 00 00 00 00	 call	 ?GetActorType@CActorInstance@@QBEIXZ ; CActorInstance::GetActorType

; 725  : 	if ( (uActorType == TYPE_BUILDING) || (uActorType == TYPE_OBJECT) || (uActorType == TYPE_DOOR) || (uActorType == TYPE_STONE))

  00056	83 f8 05	 cmp	 eax, 5
  00059	0f 84 92 03 00
	00		 je	 $LN15@AdjustDyna
  0005f	83 f8 0b	 cmp	 eax, 11			; 0000000bH
  00062	0f 84 89 03 00
	00		 je	 $LN15@AdjustDyna
  00068	83 f8 04	 cmp	 eax, 4
  0006b	0f 84 80 03 00
	00		 je	 $LN15@AdjustDyna
  00071	83 f8 02	 cmp	 eax, 2
  00074	0f 84 77 03 00
	00		 je	 $LN15@AdjustDyna
; File C:\Users\flourine\Desktop\Xantios\client-src\extern\include\directX\d3dx9math.inl

; 1859 :     return sqrtf(pV->x * pV->x + pV->y * pV->y + pV->z * pV->z);

  0007a	f3 0f 10 9e c4
	04 00 00	 movss	 xmm3, DWORD PTR [esi+1220]
  00082	f3 0f 10 96 c8
	04 00 00	 movss	 xmm2, DWORD PTR [esi+1224]
  0008a	0f 28 c3	 movaps	 xmm0, xmm3
  0008d	f3 0f 10 8e cc
	04 00 00	 movss	 xmm1, DWORD PTR [esi+1228]
  00095	f3 0f 59 c3	 mulss	 xmm0, xmm3
  00099	f3 0f 59 d2	 mulss	 xmm2, xmm2
  0009d	f3 0f 59 c9	 mulss	 xmm1, xmm1
  000a1	f3 0f 58 c2	 addss	 xmm0, xmm2
  000a5	f3 0f 11 5c 24
	20		 movss	 DWORD PTR tv1043[esp+96], xmm3
  000ab	f3 0f 58 c1	 addss	 xmm0, xmm1
  000af	0f 57 c9	 xorps	 xmm1, xmm1
; File C:\Program Files (x86)\Windows Kits\10\Include\10.0.22621.0\ucrt\corecrt_math.h

; 768  :             return (float)sqrt(_X);

  000b2	0f 5a c0	 cvtps2pd xmm0, xmm0
  000b5	66 0f 2e c8	 ucomisd xmm1, xmm0
  000b9	77 06		 ja	 SHORT $LN124@AdjustDyna
  000bb	f2 0f 51 c0	 sqrtsd	 xmm0, xmm0
  000bf	eb 05		 jmp	 SHORT $LN125@AdjustDyna
$LN124@AdjustDyna:
  000c1	e8 00 00 00 00	 call	 __libm_sse2_sqrt_precise
$LN125@AdjustDyna:
; File C:\Users\flourine\Desktop\Xantios\client-src\Code\GameLib\ActorInstance.cpp

; 746  : 		if (move_length > gc_fActorSlideMoveSpeed)

  000c6	f3 0f 10 15 00
	00 00 00	 movss	 xmm2, DWORD PTR __real@40a00000
; File C:\Program Files (x86)\Windows Kits\10\Include\10.0.22621.0\ucrt\corecrt_math.h

; 768  :             return (float)sqrt(_X);

  000ce	f2 0f 5a c0	 cvtsd2ss xmm0, xmm0
; File C:\Users\flourine\Desktop\Xantios\client-src\Code\GameLib\ActorInstance.cpp

; 746  : 		if (move_length > gc_fActorSlideMoveSpeed)

  000d2	0f 2f c2	 comiss	 xmm0, xmm2
  000d5	76 3c		 jbe	 SHORT $LN16@AdjustDyna

; 747  : 		{
; 748  : 			m_v3Movement *= gc_fActorSlideMoveSpeed / move_length;

  000d7	0f 28 ca	 movaps	 xmm1, xmm2
  000da	f3 0f 5e c8	 divss	 xmm1, xmm0
; File C:\Users\flourine\Desktop\Xantios\client-src\extern\include\directX\d3dx9math.inl

; 346  :     x *= f;

  000de	f3 0f 10 44 24
	20		 movss	 xmm0, DWORD PTR tv1043[esp+96]
  000e4	f3 0f 59 c1	 mulss	 xmm0, xmm1
  000e8	f3 0f 11 86 c4
	04 00 00	 movss	 DWORD PTR [esi+1220], xmm0

; 347  :     y *= f;

  000f0	0f 28 c1	 movaps	 xmm0, xmm1
  000f3	f3 0f 59 86 c8
	04 00 00	 mulss	 xmm0, DWORD PTR [esi+1224]

; 348  :     z *= f;

  000fb	f3 0f 59 8e cc
	04 00 00	 mulss	 xmm1, DWORD PTR [esi+1228]
  00103	f3 0f 11 86 c8
	04 00 00	 movss	 DWORD PTR [esi+1224], xmm0
  0010b	f3 0f 11 8e cc
	04 00 00	 movss	 DWORD PTR [esi+1228], xmm1
$LN16@AdjustDyna:
; File C:\Program Files\Microsoft Visual Studio\2022\Community\VC\Tools\MSVC\14.34.31933\include\list

; 1087 :         return iterator(_Mypair._Myval2._Myhead->_Next, _STD addressof(_Mypair._Myval2));

  00113	8b 86 7c 03 00
	00		 mov	 eax, DWORD PTR [esi+892]

; 38   :     _List_unchecked_const_iterator(_Nodeptr _Pnode, const _Mylist* _Plist) noexcept : _Ptr(_Pnode) {

  00119	8b 38		 mov	 edi, DWORD PTR [eax]
  0011b	89 7c 24 20	 mov	 DWORD PTR _itMain$1$[esp+96], edi
  0011f	3b f8		 cmp	 edi, eax
; File C:\Users\flourine\Desktop\Xantios\client-src\Code\GameLib\ActorInstance.cpp

; 752  : 		for (; itMain != m_BodyPointInstanceList.end(); ++itMain)

  00121	0f 84 d1 02 00
	00		 je	 $LN3@AdjustDyna
$LL80@AdjustDyna:
; File C:\Program Files\Microsoft Visual Studio\2022\Community\VC\Tools\MSVC\14.34.31933\include\vector

; 1932 :         return static_cast<size_type>(_My_data._Mylast - _My_data._Myfirst);

  00127	8b 47 18	 mov	 eax, DWORD PTR [edi+24]
  0012a	8b 4f 1c	 mov	 ecx, DWORD PTR [edi+28]
  0012d	2b c8		 sub	 ecx, eax
  0012f	89 44 24 1c	 mov	 DWORD PTR $T2[esp+96], eax
  00133	b8 93 24 49 92	 mov	 eax, -1840700269	; 92492493H
; File C:\Users\flourine\Desktop\Xantios\client-src\Code\GameLib\ActorInstance.cpp

; 755  : 			for (DWORD i = 0; i < c_rMainSphereVector.size(); ++i)

  00138	c7 44 24 2c 00
	00 00 00	 mov	 DWORD PTR _i$1$[esp+96], 0
; File C:\Program Files\Microsoft Visual Studio\2022\Community\VC\Tools\MSVC\14.34.31933\include\vector

; 1932 :         return static_cast<size_type>(_My_data._Mylast - _My_data._Myfirst);

  00140	f7 e9		 imul	 ecx
  00142	03 d1		 add	 edx, ecx
  00144	c1 fa 04	 sar	 edx, 4
  00147	8b c2		 mov	 eax, edx
  00149	c1 e8 1f	 shr	 eax, 31			; 0000001fH
  0014c	03 c2		 add	 eax, edx
; File C:\Users\flourine\Desktop\Xantios\client-src\Code\GameLib\ActorInstance.cpp

; 755  : 			for (DWORD i = 0; i < c_rMainSphereVector.size(); ++i)

  0014e	0f 84 78 02 00
	00		 je	 $LN2@AdjustDyna
; File C:\Program Files\Microsoft Visual Studio\2022\Community\VC\Tools\MSVC\14.34.31933\include\vector

; 1931 :         auto& _My_data = _Mypair._Myval2;

  00154	33 c9		 xor	 ecx, ecx
  00156	89 4c 24 0c	 mov	 DWORD PTR tv1096[esp+96], ecx
  0015a	66 0f 1f 44 00
	00		 npad	 6
$LL7@AdjustDyna:
; File C:\Program Files\Microsoft Visual Studio\2022\Community\VC\Tools\MSVC\14.34.31933\include\list

; 1091 :         return const_iterator(_Mypair._Myval2._Myhead->_Next, _STD addressof(_Mypair._Myval2));

  00160	8b 44 24 28	 mov	 eax, DWORD PTR _c_pActorInstance$GSCopy$1$[esp+96]
  00164	8b 80 7c 03 00
	00		 mov	 eax, DWORD PTR [eax+892]

; 38   :     _List_unchecked_const_iterator(_Nodeptr _Pnode, const _Mylist* _Plist) noexcept : _Ptr(_Pnode) {

  0016a	8b 30		 mov	 esi, DWORD PTR [eax]
; File C:\Users\flourine\Desktop\Xantios\client-src\Code\GameLib\ActorInstance.cpp

; 761  : 				{

  0016c	3b f0		 cmp	 esi, eax
  0016e	0f 84 19 02 00
	00		 je	 $LN5@AdjustDyna
  00174	8b 7c 24 24	 mov	 edi, DWORD PTR _this$GSCopy$1$[esp+96]
  00178	0f 1f 84 00 00
	00 00 00	 npad	 8
$LL34@AdjustDyna:

; 762  : 					CSphereCollisionInstance s;
; 763  : 					s.GetAttribute().fRadius = itOpp->SphereInstanceVector[0].fRadius;

  00180	8b 46 18	 mov	 eax, DWORD PTR [esi+24]
  00183	8d 4c 24 48	 lea	 ecx, DWORD PTR _s$5[esp+96]
  00187	c7 44 24 48 00
	00 00 00	 mov	 DWORD PTR _s$5[esp+96], OFFSET ??_7CSphereCollisionInstance@@6B@
  0018f	f3 0f 10 40 18	 movss	 xmm0, DWORD PTR [eax+24]
  00194	f3 0f 11 44 24
	10		 movss	 DWORD PTR tv1053[esp+96], xmm0
  0019a	e8 00 00 00 00	 call	 ?GetAttribute@CSphereCollisionInstance@@QAEAAUSSphereData@@XZ ; CSphereCollisionInstance::GetAttribute
  0019f	f3 0f 10 44 24
	10		 movss	 xmm0, DWORD PTR tv1053[esp+96]

; 764  : 					s.GetAttribute().v3Position = itOpp->SphereInstanceVector[0].v3Position;

  001a5	8d 4c 24 48	 lea	 ecx, DWORD PTR _s$5[esp+96]
  001a9	f3 0f 11 40 0c	 movss	 DWORD PTR [eax+12], xmm0
  001ae	8b 46 18	 mov	 eax, DWORD PTR [esi+24]
  001b1	f3 0f 7e 00	 movq	 xmm0, QWORD PTR [eax]
  001b5	8b 40 08	 mov	 eax, DWORD PTR [eax+8]
  001b8	66 0f d6 44 24
	30		 movq	 QWORD PTR $T3[esp+96], xmm0
  001be	89 44 24 10	 mov	 DWORD PTR $T1[esp+96], eax
  001c2	e8 00 00 00 00	 call	 ?GetAttribute@CSphereCollisionInstance@@QAEAAUSSphereData@@XZ ; CSphereCollisionInstance::GetAttribute
  001c7	f3 0f 7e 44 24
	30		 movq	 xmm0, QWORD PTR $T3[esp+96]
  001cd	8b 4c 24 10	 mov	 ecx, DWORD PTR $T1[esp+96]
  001d1	66 0f d6 00	 movq	 QWORD PTR [eax], xmm0
  001d5	89 48 08	 mov	 DWORD PTR [eax+8], ecx
; File C:\Users\flourine\Desktop\Xantios\client-src\Code\eterLib\CollisionData.h

; 93   : 		return OnGetCollisionMovementAdjust(s);

  001d8	8d 4c 24 48	 lea	 ecx, DWORD PTR _s$5[esp+96]
  001dc	8b 44 24 1c	 mov	 eax, DWORD PTR $T2[esp+96]
  001e0	03 44 24 0c	 add	 eax, DWORD PTR tv1096[esp+96]
  001e4	50		 push	 eax
  001e5	8d 44 24 40	 lea	 eax, DWORD PTR _v3Delta$4[esp+100]
  001e9	50		 push	 eax
  001ea	8b 44 24 50	 mov	 eax, DWORD PTR _s$5[esp+104]
  001ee	ff 50 04	 call	 DWORD PTR [eax+4]
; File C:\Users\flourine\Desktop\Xantios\client-src\extern\include\directX\d3dx9math.inl

; 328  :     x += v.x;

  001f1	f3 0f 10 4c 24
	3c		 movss	 xmm1, DWORD PTR _v3Delta$4[esp+96]

; 329  :     y += v.y;

  001f7	f3 0f 10 54 24
	40		 movss	 xmm2, DWORD PTR _v3Delta$4[esp+100]
  001fd	0f 28 c1	 movaps	 xmm0, xmm1
  00200	f3 0f 58 87 c4
	04 00 00	 addss	 xmm0, DWORD PTR [edi+1220]

; 330  :     z += v.z;

  00208	f3 0f 10 5c 24
	44		 movss	 xmm3, DWORD PTR _v3Delta$4[esp+104]

; 328  :     x += v.x;

  0020e	8b 44 24 1c	 mov	 eax, DWORD PTR $T2[esp+96]
  00212	03 44 24 0c	 add	 eax, DWORD PTR tv1096[esp+96]
  00216	f3 0f 11 87 c4
	04 00 00	 movss	 DWORD PTR [edi+1220], xmm0

; 329  :     y += v.y;

  0021e	0f 28 c2	 movaps	 xmm0, xmm2
  00221	f3 0f 58 87 c8
	04 00 00	 addss	 xmm0, DWORD PTR [edi+1224]
  00229	f3 0f 11 87 c8
	04 00 00	 movss	 DWORD PTR [edi+1224], xmm0

; 330  :     z += v.z;

  00231	0f 28 c3	 movaps	 xmm0, xmm3
  00234	f3 0f 58 87 cc
	04 00 00	 addss	 xmm0, DWORD PTR [edi+1228]
  0023c	f3 0f 11 87 cc
	04 00 00	 movss	 DWORD PTR [edi+1228], xmm0

; 328  :     x += v.x;

  00244	0f 28 c1	 movaps	 xmm0, xmm1
  00247	f3 0f 58 00	 addss	 xmm0, DWORD PTR [eax]
  0024b	f3 0f 11 00	 movss	 DWORD PTR [eax], xmm0

; 329  :     y += v.y;

  0024f	0f 28 c2	 movaps	 xmm0, xmm2
  00252	f3 0f 58 40 04	 addss	 xmm0, DWORD PTR [eax+4]
  00257	f3 0f 11 40 04	 movss	 DWORD PTR [eax+4], xmm0

; 330  :     z += v.z;

  0025c	0f 28 c3	 movaps	 xmm0, xmm3
  0025f	f3 0f 58 40 08	 addss	 xmm0, DWORD PTR [eax+8]
  00264	f3 0f 11 40 08	 movss	 DWORD PTR [eax+8], xmm0
  00269	0f 57 c0	 xorps	 xmm0, xmm0
; File C:\Users\flourine\Desktop\Xantios\client-src\Code\GameLib\ActorInstance.cpp

; 769  : 					if (v3Delta.x != 0.0f || v3Delta.y != 0.0f || v3Delta.z != 0.0f )

  0026c	0f 2e c8	 ucomiss xmm1, xmm0
  0026f	9f		 lahf
  00270	f6 c4 44	 test	 ah, 68			; 00000044H
  00273	7a 16		 jp	 SHORT $LN18@AdjustDyna
  00275	0f 2e d0	 ucomiss xmm2, xmm0
  00278	9f		 lahf
  00279	f6 c4 44	 test	 ah, 68			; 00000044H
  0027c	7a 0d		 jp	 SHORT $LN18@AdjustDyna
  0027e	0f 2e d8	 ucomiss xmm3, xmm0
  00281	9f		 lahf
  00282	f6 c4 44	 test	 ah, 68			; 00000044H
  00285	0f 8b e8 00 00
	00		 jnp	 $LN8@AdjustDyna
$LN18@AdjustDyna:
; File C:\Users\flourine\Desktop\Xantios\client-src\extern\include\directX\d3dx9math.inl

; 1859 :     return sqrtf(pV->x * pV->x + pV->y * pV->y + pV->z * pV->z);

  0028b	f3 0f 10 9f c4
	04 00 00	 movss	 xmm3, DWORD PTR [edi+1220]
  00293	f3 0f 10 97 c8
	04 00 00	 movss	 xmm2, DWORD PTR [edi+1224]
  0029b	0f 28 c3	 movaps	 xmm0, xmm3
  0029e	f3 0f 10 8f cc
	04 00 00	 movss	 xmm1, DWORD PTR [edi+1228]
  002a6	f3 0f 59 c3	 mulss	 xmm0, xmm3
  002aa	f3 0f 59 d2	 mulss	 xmm2, xmm2
  002ae	f3 0f 59 c9	 mulss	 xmm1, xmm1
  002b2	f3 0f 58 c2	 addss	 xmm0, xmm2
  002b6	f3 0f 11 5c 24
	10		 movss	 DWORD PTR tv1082[esp+96], xmm3
  002bc	f3 0f 58 c1	 addss	 xmm0, xmm1
  002c0	0f 57 c9	 xorps	 xmm1, xmm1
; File C:\Program Files (x86)\Windows Kits\10\Include\10.0.22621.0\ucrt\corecrt_math.h

; 768  :             return (float)sqrt(_X);

  002c3	0f 5a c0	 cvtps2pd xmm0, xmm0
  002c6	66 0f 2e c8	 ucomisd xmm1, xmm0
  002ca	77 06		 ja	 SHORT $LN126@AdjustDyna
  002cc	f2 0f 51 c0	 sqrtsd	 xmm0, xmm0
  002d0	eb 05		 jmp	 SHORT $LN127@AdjustDyna
$LN126@AdjustDyna:
  002d2	e8 00 00 00 00	 call	 __libm_sse2_sqrt_precise
$LN127@AdjustDyna:
; File C:\Users\flourine\Desktop\Xantios\client-src\Code\GameLib\ActorInstance.cpp

; 772  : 						if (move_length > gc_fActorSlideMoveSpeed)

  002d7	f3 0f 10 15 00
	00 00 00	 movss	 xmm2, DWORD PTR __real@40a00000
; File C:\Program Files (x86)\Windows Kits\10\Include\10.0.22621.0\ucrt\corecrt_math.h

; 768  :             return (float)sqrt(_X);

  002df	f2 0f 5a c0	 cvtsd2ss xmm0, xmm0
; File C:\Users\flourine\Desktop\Xantios\client-src\Code\GameLib\ActorInstance.cpp

; 772  : 						if (move_length > gc_fActorSlideMoveSpeed)

  002e3	0f 2f c2	 comiss	 xmm0, xmm2
  002e6	0f 86 87 00 00
	00		 jbe	 $LN8@AdjustDyna

; 773  : 						{
; 774  : 							m_v3Movement *= gc_fActorSlideMoveSpeed / move_length;

  002ec	0f 28 ca	 movaps	 xmm1, xmm2

; 775  : 							c_rMainSphere.v3Position = c_rMainSphere.v3LastPosition;

  002ef	8b 4c 24 1c	 mov	 ecx, DWORD PTR $T2[esp+96]
  002f3	f3 0f 5e c8	 divss	 xmm1, xmm0
  002f7	03 4c 24 0c	 add	 ecx, DWORD PTR tv1096[esp+96]
; File C:\Users\flourine\Desktop\Xantios\client-src\extern\include\directX\d3dx9math.inl

; 346  :     x *= f;

  002fb	f3 0f 10 44 24
	10		 movss	 xmm0, DWORD PTR tv1082[esp+96]
  00301	f3 0f 59 c1	 mulss	 xmm0, xmm1
  00305	f3 0f 11 87 c4
	04 00 00	 movss	 DWORD PTR [edi+1220], xmm0

; 347  :     y *= f;

  0030d	0f 28 c1	 movaps	 xmm0, xmm1
  00310	f3 0f 59 87 c8
	04 00 00	 mulss	 xmm0, DWORD PTR [edi+1224]

; 348  :     z *= f;

  00318	f3 0f 59 8f cc
	04 00 00	 mulss	 xmm1, DWORD PTR [edi+1228]
  00320	f3 0f 11 87 c8
	04 00 00	 movss	 DWORD PTR [edi+1224], xmm0
  00328	f3 0f 11 8f cc
	04 00 00	 movss	 DWORD PTR [edi+1228], xmm1
; File C:\Users\flourine\Desktop\Xantios\client-src\Code\GameLib\ActorInstance.cpp

; 775  : 							c_rMainSphere.v3Position = c_rMainSphere.v3LastPosition;

  00330	f3 0f 7e 41 0c	 movq	 xmm0, QWORD PTR [ecx+12]
  00335	8b 41 14	 mov	 eax, DWORD PTR [ecx+20]
  00338	66 0f d6 01	 movq	 QWORD PTR [ecx], xmm0
  0033c	89 41 08	 mov	 DWORD PTR [ecx+8], eax
; File C:\Users\flourine\Desktop\Xantios\client-src\extern\include\directX\d3dx9math.inl

; 328  :     x += v.x;

  0033f	f3 0f 10 01	 movss	 xmm0, DWORD PTR [ecx]
  00343	f3 0f 58 87 c4
	04 00 00	 addss	 xmm0, DWORD PTR [edi+1220]
  0034b	f3 0f 11 01	 movss	 DWORD PTR [ecx], xmm0

; 329  :     y += v.y;

  0034f	f3 0f 10 87 c8
	04 00 00	 movss	 xmm0, DWORD PTR [edi+1224]
  00357	f3 0f 58 41 04	 addss	 xmm0, DWORD PTR [ecx+4]
  0035c	f3 0f 11 41 04	 movss	 DWORD PTR [ecx+4], xmm0

; 330  :     z += v.z;

  00361	f3 0f 10 87 cc
	04 00 00	 movss	 xmm0, DWORD PTR [edi+1228]
  00369	f3 0f 58 41 08	 addss	 xmm0, DWORD PTR [ecx+8]
  0036e	f3 0f 11 41 08	 movss	 DWORD PTR [ecx+8], xmm0
$LN8@AdjustDyna:
; File C:\Program Files\Microsoft Visual Studio\2022\Community\VC\Tools\MSVC\14.34.31933\include\list

; 198  :         return this->_Ptr == _Right._Ptr;

  00373	8b 44 24 28	 mov	 eax, DWORD PTR _c_pActorInstance$GSCopy$1$[esp+96]

; 165  :         this->_Ptr = this->_Ptr->_Next;

  00377	8b 36		 mov	 esi, DWORD PTR [esi]

; 198  :         return this->_Ptr == _Right._Ptr;

  00379	3b b0 7c 03 00
	00		 cmp	 esi, DWORD PTR [eax+892]
; File C:\Users\flourine\Desktop\Xantios\client-src\Code\GameLib\ActorInstance.cpp

; 760  : 				for (; itOpp != c_pActorInstance->m_BodyPointInstanceList.end(); ++itOpp)

  0037f	0f 85 fb fd ff
	ff		 jne	 $LL34@AdjustDyna
  00385	8b 7c 24 20	 mov	 edi, DWORD PTR _itMain$1$[esp+96]
  00389	8b 4c 24 0c	 mov	 ecx, DWORD PTR tv1096[esp+96]
$LN5@AdjustDyna:
; File C:\Program Files\Microsoft Visual Studio\2022\Community\VC\Tools\MSVC\14.34.31933\include\vector

; 1932 :         return static_cast<size_type>(_My_data._Mylast - _My_data._Myfirst);

  0038d	8b 47 18	 mov	 eax, DWORD PTR [edi+24]
; File C:\Users\flourine\Desktop\Xantios\client-src\Code\GameLib\ActorInstance.cpp

; 755  : 			for (DWORD i = 0; i < c_rMainSphereVector.size(); ++i)

  00390	83 c1 1c	 add	 ecx, 28			; 0000001cH
  00393	8b 74 24 2c	 mov	 esi, DWORD PTR _i$1$[esp+96]
  00397	89 4c 24 0c	 mov	 DWORD PTR tv1096[esp+96], ecx
  0039b	46		 inc	 esi
; File C:\Program Files\Microsoft Visual Studio\2022\Community\VC\Tools\MSVC\14.34.31933\include\vector

; 1932 :         return static_cast<size_type>(_My_data._Mylast - _My_data._Myfirst);

  0039c	8b 4f 1c	 mov	 ecx, DWORD PTR [edi+28]
  0039f	2b c8		 sub	 ecx, eax
  003a1	89 44 24 1c	 mov	 DWORD PTR $T2[esp+96], eax
  003a5	b8 93 24 49 92	 mov	 eax, -1840700269	; 92492493H
; File C:\Users\flourine\Desktop\Xantios\client-src\Code\GameLib\ActorInstance.cpp

; 755  : 			for (DWORD i = 0; i < c_rMainSphereVector.size(); ++i)

  003aa	89 74 24 2c	 mov	 DWORD PTR _i$1$[esp+96], esi
; File C:\Program Files\Microsoft Visual Studio\2022\Community\VC\Tools\MSVC\14.34.31933\include\vector

; 1932 :         return static_cast<size_type>(_My_data._Mylast - _My_data._Myfirst);

  003ae	f7 e9		 imul	 ecx
  003b0	03 d1		 add	 edx, ecx
; File C:\Users\flourine\Desktop\Xantios\client-src\Code\GameLib\ActorInstance.cpp

; 755  : 			for (DWORD i = 0; i < c_rMainSphereVector.size(); ++i)

  003b2	8b 4c 24 0c	 mov	 ecx, DWORD PTR tv1096[esp+96]
; File C:\Program Files\Microsoft Visual Studio\2022\Community\VC\Tools\MSVC\14.34.31933\include\vector

; 1932 :         return static_cast<size_type>(_My_data._Mylast - _My_data._Myfirst);

  003b6	c1 fa 04	 sar	 edx, 4
  003b9	8b c2		 mov	 eax, edx
  003bb	c1 e8 1f	 shr	 eax, 31			; 0000001fH
  003be	03 c2		 add	 eax, edx
; File C:\Users\flourine\Desktop\Xantios\client-src\Code\GameLib\ActorInstance.cpp

; 755  : 			for (DWORD i = 0; i < c_rMainSphereVector.size(); ++i)

  003c0	3b f0		 cmp	 esi, eax
  003c2	0f 82 98 fd ff
	ff		 jb	 $LL7@AdjustDyna
  003c8	8b 74 24 24	 mov	 esi, DWORD PTR _this$GSCopy$1$[esp+96]
$LN2@AdjustDyna:
; File C:\Program Files\Microsoft Visual Studio\2022\Community\VC\Tools\MSVC\14.34.31933\include\list

; 165  :         this->_Ptr = this->_Ptr->_Next;

  003cc	8b 3f		 mov	 edi, DWORD PTR [edi]
  003ce	89 7c 24 20	 mov	 DWORD PTR _itMain$1$[esp+96], edi

; 198  :         return this->_Ptr == _Right._Ptr;

  003d2	3b be 7c 03 00
	00		 cmp	 edi, DWORD PTR [esi+892]
; File C:\Users\flourine\Desktop\Xantios\client-src\Code\GameLib\ActorInstance.cpp

; 752  : 		for (; itMain != m_BodyPointInstanceList.end(); ++itMain)

  003d8	0f 85 49 fd ff
	ff		 jne	 $LL80@AdjustDyna

; 776  : 							c_rMainSphere.v3Position += m_v3Movement;
; 777  : 						}
; 778  : 					}
; 779  : 				}
; 780  : 			}
; 781  : 		}
; 782  : 	}
; 783  : }

  003de	5f		 pop	 edi
  003df	5e		 pop	 esi
  003e0	8b 4c 24 54	 mov	 ecx, DWORD PTR __$ArrayPad$[esp+88]
  003e4	33 cc		 xor	 ecx, esp
  003e6	e8 00 00 00 00	 call	 @__security_check_cookie@4
  003eb	8b e5		 mov	 esp, ebp
  003ed	5d		 pop	 ebp
  003ee	c2 04 00	 ret	 4
$LN15@AdjustDyna:

; 726  : 	{
; 727  : 		BlockMovement();

  003f1	8b ce		 mov	 ecx, esi
  003f3	e8 00 00 00 00	 call	 ?BlockMovement@CActorInstance@@QAEXXZ ; CActorInstance::BlockMovement
$LN3@AdjustDyna:

; 776  : 							c_rMainSphere.v3Position += m_v3Movement;
; 777  : 						}
; 778  : 					}
; 779  : 				}
; 780  : 			}
; 781  : 		}
; 782  : 	}
; 783  : }

  003f8	8b 4c 24 5c	 mov	 ecx, DWORD PTR __$ArrayPad$[esp+96]
  003fc	5f		 pop	 edi
  003fd	5e		 pop	 esi
  003fe	33 cc		 xor	 ecx, esp
  00400	e8 00 00 00 00	 call	 @__security_check_cookie@4
  00405	8b e5		 mov	 esp, ebp
  00407	5d		 pop	 ebp
  00408	c2 04 00	 ret	 4
?AdjustDynamicCollisionMovement@CActorInstance@@QAEXPBV1@@Z ENDP ; CActorInstance::AdjustDynamicCollisionMovement
_TEXT	ENDS
; Function compile flags: /Ogtp
; File C:\Users\flourine\Desktop\Xantios\client-src\Code\GameLib\ActorInstance.cpp
; File C:\Users\flourine\Desktop\Xantios\client-src\extern\include\directX\d3dx9math.inl
; File C:\Program Files (x86)\Windows Kits\10\Include\10.0.22621.0\ucrt\corecrt_math.h
; File C:\Users\flourine\Desktop\Xantios\client-src\Code\GameLib\ActorInstance.cpp
; File C:\Program Files (x86)\Windows Kits\10\Include\10.0.22621.0\ucrt\corecrt_math.h
; File C:\Users\flourine\Desktop\Xantios\client-src\Code\GameLib\ActorInstance.cpp
; File C:\Users\flourine\Desktop\Xantios\client-src\extern\include\directX\d3dx9math.inl
; File C:\Program Files\Microsoft Visual Studio\2022\Community\VC\Tools\MSVC\14.34.31933\include\list
; File C:\Users\flourine\Desktop\Xantios\client-src\Code\GameLib\ActorInstance.cpp
; File C:\Program Files\Microsoft Visual Studio\2022\Community\VC\Tools\MSVC\14.34.31933\include\vector
; File C:\Users\flourine\Desktop\Xantios\client-src\Code\GameLib\ActorInstance.cpp
; File C:\Program Files\Microsoft Visual Studio\2022\Community\VC\Tools\MSVC\14.34.31933\include\vector
; File C:\Users\flourine\Desktop\Xantios\client-src\Code\GameLib\ActorInstance.cpp
; File C:\Program Files\Microsoft Visual Studio\2022\Community\VC\Tools\MSVC\14.34.31933\include\vector
; File C:\Users\flourine\Desktop\Xantios\client-src\Code\GameLib\ActorInstance.cpp
; File C:\Program Files\Microsoft Visual Studio\2022\Community\VC\Tools\MSVC\14.34.31933\include\vector
; File C:\Users\flourine\Desktop\Xantios\client-src\Code\GameLib\ActorInstance.cpp
; File C:\Users\flourine\Desktop\Xantios\client-src\extern\include\directX\d3dx9math.inl
; File C:\Users\flourine\Desktop\Xantios\client-src\Code\GameLib\ActorInstance.cpp
; File C:\Users\flourine\Desktop\Xantios\client-src\extern\include\directX\d3dx9math.inl
; File C:\Program Files (x86)\Windows Kits\10\Include\10.0.22621.0\ucrt\corecrt_math.h
; File C:\Users\flourine\Desktop\Xantios\client-src\Code\GameLib\ActorInstance.cpp
; File C:\Program Files (x86)\Windows Kits\10\Include\10.0.22621.0\ucrt\corecrt_math.h
; File C:\Users\flourine\Desktop\Xantios\client-src\Code\GameLib\ActorInstance.cpp
; File C:\Users\flourine\Desktop\Xantios\client-src\extern\include\directX\d3dx9math.inl
; File C:\Users\flourine\Desktop\Xantios\client-src\Code\GameLib\ActorInstance.cpp
; File C:\Users\flourine\Desktop\Xantios\client-src\extern\include\directX\d3dx9math.inl
; File C:\Program Files\Microsoft Visual Studio\2022\Community\VC\Tools\MSVC\14.34.31933\include\vector
; File C:\Users\flourine\Desktop\Xantios\client-src\Code\GameLib\ActorInstance.cpp
; File C:\Program Files\Microsoft Visual Studio\2022\Community\VC\Tools\MSVC\14.34.31933\include\vector
; File C:\Users\flourine\Desktop\Xantios\client-src\Code\GameLib\ActorInstance.cpp
; File C:\Program Files\Microsoft Visual Studio\2022\Community\VC\Tools\MSVC\14.34.31933\include\list
; File C:\Users\flourine\Desktop\Xantios\client-src\Code\GameLib\ActorInstance.cpp
;	COMDAT ?__AdjustCollisionMovement@CActorInstance@@IAEXPBVCGraphicObjectInstance@@@Z
_TEXT	SEGMENT
tv888 = -32						; size = 4
tv843 = -32						; size = 4
_i$1$ = -28						; size = 4
_c_pGraphicObjectInstance$GSCopy$1$ = -24		; size = 4
tv875 = -20						; size = 4
_v3Delta$1 = -16					; size = 12
__$ArrayPad$ = -4					; size = 4
_c_pGraphicObjectInstance$ = 8				; size = 4
?__AdjustCollisionMovement@CActorInstance@@IAEXPBVCGraphicObjectInstance@@@Z PROC ; CActorInstance::__AdjustCollisionMovement, COMDAT
; _this$ = ecx

; 787  : {

  00000	55		 push	 ebp
  00001	8b ec		 mov	 ebp, esp
  00003	83 e4 f8	 and	 esp, -8			; fffffff8H
  00006	83 ec 24	 sub	 esp, 36			; 00000024H
  00009	a1 00 00 00 00	 mov	 eax, DWORD PTR ___security_cookie
  0000e	33 c4		 xor	 eax, esp
  00010	89 44 24 20	 mov	 DWORD PTR __$ArrayPad$[esp+36], eax
  00014	8b 45 08	 mov	 eax, DWORD PTR _c_pGraphicObjectInstance$[ebp]
  00017	53		 push	 ebx
  00018	56		 push	 esi
  00019	57		 push	 edi
  0001a	8b f9		 mov	 edi, ecx
  0001c	89 44 24 18	 mov	 DWORD PTR _c_pGraphicObjectInstance$GSCopy$1$[esp+48], eax

; 788  : 	if (m_pkHorse)

  00020	8b 87 94 05 00
	00		 mov	 eax, DWORD PTR [edi+1428]
  00026	85 c0		 test	 eax, eax
  00028	74 12		 je	 SHORT $LN8@AdjustColl
  0002a	66 0f 1f 44 00
	00		 npad	 6
$LL65@AdjustColl:

; 787  : {

  00030	8b f8		 mov	 edi, eax

; 788  : 	if (m_pkHorse)

  00032	8b 87 94 05 00
	00		 mov	 eax, DWORD PTR [edi+1428]
  00038	85 c0		 test	 eax, eax
  0003a	75 f4		 jne	 SHORT $LL65@AdjustColl
$LN8@AdjustColl:

; 789  : 	{
; 790  : 		m_pkHorse->__AdjustCollisionMovement(c_pGraphicObjectInstance);
; 791  : 		return;
; 792  : 	}
; 793  : 
; 794  : 
; 795  : 	if (m_v3Movement.x == 0.0f && m_v3Movement.y == 0.0f && m_v3Movement.z == 0.0f)

  0003c	f3 0f 10 9f c4
	04 00 00	 movss	 xmm3, DWORD PTR [edi+1220]
  00044	0f 57 c9	 xorps	 xmm1, xmm1
  00047	0f 2e d9	 ucomiss xmm3, xmm1
  0004a	f3 0f 11 5c 24
	10		 movss	 DWORD PTR tv843[esp+48], xmm3
  00050	9f		 lahf
  00051	f6 c4 44	 test	 ah, 68			; 00000044H
  00054	7a 26		 jp	 SHORT $LN9@AdjustColl
  00056	f3 0f 10 87 c8
	04 00 00	 movss	 xmm0, DWORD PTR [edi+1224]
  0005e	0f 2e c1	 ucomiss xmm0, xmm1
  00061	9f		 lahf
  00062	f6 c4 44	 test	 ah, 68			; 00000044H
  00065	7a 15		 jp	 SHORT $LN9@AdjustColl
  00067	f3 0f 10 87 cc
	04 00 00	 movss	 xmm0, DWORD PTR [edi+1228]
  0006f	0f 2e c1	 ucomiss xmm0, xmm1
  00072	9f		 lahf
  00073	f6 c4 44	 test	 ah, 68			; 00000044H
  00076	0f 8b 9a 02 00
	00		 jnp	 $LN3@AdjustColl
$LN9@AdjustColl:
; File C:\Users\flourine\Desktop\Xantios\client-src\extern\include\directX\d3dx9math.inl

; 1859 :     return sqrtf(pV->x * pV->x + pV->y * pV->y + pV->z * pV->z);

  0007c	f3 0f 10 8f c8
	04 00 00	 movss	 xmm1, DWORD PTR [edi+1224]
  00084	0f 28 c3	 movaps	 xmm0, xmm3
  00087	f3 0f 10 97 cc
	04 00 00	 movss	 xmm2, DWORD PTR [edi+1228]
  0008f	f3 0f 59 c3	 mulss	 xmm0, xmm3
  00093	f3 0f 59 c9	 mulss	 xmm1, xmm1
  00097	f3 0f 59 d2	 mulss	 xmm2, xmm2
  0009b	f3 0f 58 c1	 addss	 xmm0, xmm1
  0009f	0f 57 c9	 xorps	 xmm1, xmm1
  000a2	f3 0f 58 c2	 addss	 xmm0, xmm2
; File C:\Program Files (x86)\Windows Kits\10\Include\10.0.22621.0\ucrt\corecrt_math.h

; 768  :             return (float)sqrt(_X);

  000a6	0f 5a c0	 cvtps2pd xmm0, xmm0
  000a9	66 0f 2e c8	 ucomisd xmm1, xmm0
  000ad	77 06		 ja	 SHORT $LN79@AdjustColl
  000af	f2 0f 51 c0	 sqrtsd	 xmm0, xmm0
  000b3	eb 05		 jmp	 SHORT $LN80@AdjustColl
$LN79@AdjustColl:
  000b5	e8 00 00 00 00	 call	 __libm_sse2_sqrt_precise
$LN80@AdjustColl:
; File C:\Users\flourine\Desktop\Xantios\client-src\Code\GameLib\ActorInstance.cpp

; 801  : 	if (move_length > gc_fActorSlideMoveSpeed)

  000ba	f3 0f 10 15 00
	00 00 00	 movss	 xmm2, DWORD PTR __real@40a00000
; File C:\Program Files (x86)\Windows Kits\10\Include\10.0.22621.0\ucrt\corecrt_math.h

; 768  :             return (float)sqrt(_X);

  000c2	f2 0f 5a c0	 cvtsd2ss xmm0, xmm0
; File C:\Users\flourine\Desktop\Xantios\client-src\Code\GameLib\ActorInstance.cpp

; 801  : 	if (move_length > gc_fActorSlideMoveSpeed)

  000c6	0f 2f c2	 comiss	 xmm0, xmm2
  000c9	76 3c		 jbe	 SHORT $LN78@AdjustColl

; 802  : 	{
; 803  : 		m_v3Movement *= gc_fActorSlideMoveSpeed / move_length;

  000cb	0f 28 ca	 movaps	 xmm1, xmm2
  000ce	f3 0f 5e c8	 divss	 xmm1, xmm0
; File C:\Users\flourine\Desktop\Xantios\client-src\extern\include\directX\d3dx9math.inl

; 346  :     x *= f;

  000d2	f3 0f 10 44 24
	10		 movss	 xmm0, DWORD PTR tv843[esp+48]
  000d8	f3 0f 59 c1	 mulss	 xmm0, xmm1
  000dc	f3 0f 11 87 c4
	04 00 00	 movss	 DWORD PTR [edi+1220], xmm0

; 347  :     y *= f;

  000e4	0f 28 c1	 movaps	 xmm0, xmm1
  000e7	f3 0f 59 87 c8
	04 00 00	 mulss	 xmm0, DWORD PTR [edi+1224]

; 348  :     z *= f;

  000ef	f3 0f 59 8f cc
	04 00 00	 mulss	 xmm1, DWORD PTR [edi+1228]
  000f7	f3 0f 11 87 c8
	04 00 00	 movss	 DWORD PTR [edi+1224], xmm0
  000ff	f3 0f 11 8f cc
	04 00 00	 movss	 DWORD PTR [edi+1228], xmm1
$LN78@AdjustColl:
; File C:\Program Files\Microsoft Visual Studio\2022\Community\VC\Tools\MSVC\14.34.31933\include\list

; 1087 :         return iterator(_Mypair._Myval2._Myhead->_Next, _STD addressof(_Mypair._Myval2));

  00107	8b 87 7c 03 00
	00		 mov	 eax, DWORD PTR [edi+892]

; 38   :     _List_unchecked_const_iterator(_Nodeptr _Pnode, const _Mylist* _Plist) noexcept : _Ptr(_Pnode) {

  0010d	8b 30		 mov	 esi, DWORD PTR [eax]
  0010f	3b f0		 cmp	 esi, eax
; File C:\Users\flourine\Desktop\Xantios\client-src\Code\GameLib\ActorInstance.cpp

; 807  : 	for (; itMain != m_BodyPointInstanceList.end(); ++itMain)

  00111	0f 84 ff 01 00
	00		 je	 $LN3@AdjustColl
$LL32@AdjustColl:
; File C:\Program Files\Microsoft Visual Studio\2022\Community\VC\Tools\MSVC\14.34.31933\include\vector

; 1932 :         return static_cast<size_type>(_My_data._Mylast - _My_data._Myfirst);

  00117	8b 5e 18	 mov	 ebx, DWORD PTR [esi+24]
; File C:\Users\flourine\Desktop\Xantios\client-src\Code\GameLib\ActorInstance.cpp

; 810  : 		for (DWORD i = 0; i < c_rMainSphereVector.size(); ++i)

  0011a	33 c9		 xor	 ecx, ecx
  0011c	89 4c 24 14	 mov	 DWORD PTR _i$1$[esp+48], ecx
; File C:\Program Files\Microsoft Visual Studio\2022\Community\VC\Tools\MSVC\14.34.31933\include\vector

; 1932 :         return static_cast<size_type>(_My_data._Mylast - _My_data._Myfirst);

  00120	b8 93 24 49 92	 mov	 eax, -1840700269	; 92492493H
  00125	8b 4e 1c	 mov	 ecx, DWORD PTR [esi+28]
  00128	2b cb		 sub	 ecx, ebx
  0012a	f7 e9		 imul	 ecx
  0012c	03 d1		 add	 edx, ecx
  0012e	c1 fa 04	 sar	 edx, 4
  00131	8b c2		 mov	 eax, edx
  00133	c1 e8 1f	 shr	 eax, 31			; 0000001fH
  00136	03 c2		 add	 eax, edx
; File C:\Users\flourine\Desktop\Xantios\client-src\Code\GameLib\ActorInstance.cpp

; 810  : 		for (DWORD i = 0; i < c_rMainSphereVector.size(); ++i)

  00138	0f 84 ca 01 00
	00		 je	 $LN2@AdjustColl
; File C:\Program Files\Microsoft Visual Studio\2022\Community\VC\Tools\MSVC\14.34.31933\include\vector

; 1931 :         auto& _My_data = _Mypair._Myval2;

  0013e	33 c0		 xor	 eax, eax
  00140	89 44 24 10	 mov	 DWORD PTR tv888[esp+48], eax
$LL7@AdjustColl:
; File C:\Users\flourine\Desktop\Xantios\client-src\Code\GameLib\ActorInstance.cpp

; 814  : 			D3DXVECTOR3 v3Delta = c_pGraphicObjectInstance->GetCollisionMovementAdjust(c_rMainSphere);

  00144	8b 4c 24 18	 mov	 ecx, DWORD PTR _c_pGraphicObjectInstance$GSCopy$1$[esp+48]
; File C:\Program Files\Microsoft Visual Studio\2022\Community\VC\Tools\MSVC\14.34.31933\include\vector

; 1952 :         return _My_data._Myfirst[_Pos];

  00148	03 d8		 add	 ebx, eax
; File C:\Users\flourine\Desktop\Xantios\client-src\Code\GameLib\ActorInstance.cpp

; 814  : 			D3DXVECTOR3 v3Delta = c_pGraphicObjectInstance->GetCollisionMovementAdjust(c_rMainSphere);

  0014a	53		 push	 ebx
  0014b	8d 44 24 24	 lea	 eax, DWORD PTR _v3Delta$1[esp+52]
  0014f	50		 push	 eax
  00150	e8 00 00 00 00	 call	 ?GetCollisionMovementAdjust@CGraphicObjectInstance@@QBE?AUD3DXVECTOR3@@ABUCDynamicSphereInstance@@@Z ; CGraphicObjectInstance::GetCollisionMovementAdjust
; File C:\Users\flourine\Desktop\Xantios\client-src\extern\include\directX\d3dx9math.inl

; 328  :     x += v.x;

  00155	f3 0f 10 4c 24
	20		 movss	 xmm1, DWORD PTR _v3Delta$1[esp+48]
  0015b	0f 28 c1	 movaps	 xmm0, xmm1
  0015e	f3 0f 58 87 c4
	04 00 00	 addss	 xmm0, DWORD PTR [edi+1220]
  00166	f3 0f 11 87 c4
	04 00 00	 movss	 DWORD PTR [edi+1220], xmm0

; 329  :     y += v.y;

  0016e	f3 0f 10 44 24
	24		 movss	 xmm0, DWORD PTR _v3Delta$1[esp+52]
  00174	f3 0f 58 87 c8
	04 00 00	 addss	 xmm0, DWORD PTR [edi+1224]
  0017c	f3 0f 11 87 c8
	04 00 00	 movss	 DWORD PTR [edi+1224], xmm0

; 330  :     z += v.z;

  00184	f3 0f 10 44 24
	28		 movss	 xmm0, DWORD PTR _v3Delta$1[esp+56]
  0018a	f3 0f 58 87 cc
	04 00 00	 addss	 xmm0, DWORD PTR [edi+1228]
  00192	f3 0f 11 87 cc
	04 00 00	 movss	 DWORD PTR [edi+1228], xmm0

; 328  :     x += v.x;

  0019a	f3 0f 58 0b	 addss	 xmm1, DWORD PTR [ebx]
  0019e	f3 0f 11 0b	 movss	 DWORD PTR [ebx], xmm1
  001a2	0f 57 c9	 xorps	 xmm1, xmm1

; 329  :     y += v.y;

  001a5	f3 0f 10 44 24
	24		 movss	 xmm0, DWORD PTR _v3Delta$1[esp+52]
  001ab	f3 0f 58 43 04	 addss	 xmm0, DWORD PTR [ebx+4]
  001b0	f3 0f 11 43 04	 movss	 DWORD PTR [ebx+4], xmm0

; 330  :     z += v.z;

  001b5	f3 0f 10 44 24
	28		 movss	 xmm0, DWORD PTR _v3Delta$1[esp+56]
  001bb	f3 0f 58 43 08	 addss	 xmm0, DWORD PTR [ebx+8]
  001c0	f3 0f 11 43 08	 movss	 DWORD PTR [ebx+8], xmm0
; File C:\Users\flourine\Desktop\Xantios\client-src\Code\GameLib\ActorInstance.cpp

; 818  : 			if (v3Delta.x != 0.0f || v3Delta.y != 0.0f || v3Delta.z != 0.0f )

  001c5	f3 0f 10 44 24
	20		 movss	 xmm0, DWORD PTR _v3Delta$1[esp+48]
  001cb	0f 2e c1	 ucomiss xmm0, xmm1
  001ce	9f		 lahf
  001cf	f6 c4 44	 test	 ah, 68			; 00000044H
  001d2	7a 22		 jp	 SHORT $LN12@AdjustColl
  001d4	f3 0f 10 44 24
	24		 movss	 xmm0, DWORD PTR _v3Delta$1[esp+52]
  001da	0f 2e c1	 ucomiss xmm0, xmm1
  001dd	9f		 lahf
  001de	f6 c4 44	 test	 ah, 68			; 00000044H
  001e1	7a 13		 jp	 SHORT $LN12@AdjustColl
  001e3	f3 0f 10 44 24
	28		 movss	 xmm0, DWORD PTR _v3Delta$1[esp+56]
  001e9	0f 2e c1	 ucomiss xmm0, xmm1
  001ec	9f		 lahf
  001ed	f6 c4 44	 test	 ah, 68			; 00000044H
  001f0	0f 8b e0 00 00
	00		 jnp	 $LN5@AdjustColl
$LN12@AdjustColl:
; File C:\Users\flourine\Desktop\Xantios\client-src\extern\include\directX\d3dx9math.inl

; 1859 :     return sqrtf(pV->x * pV->x + pV->y * pV->y + pV->z * pV->z);

  001f6	f3 0f 10 9f c4
	04 00 00	 movss	 xmm3, DWORD PTR [edi+1220]
  001fe	f3 0f 10 97 c8
	04 00 00	 movss	 xmm2, DWORD PTR [edi+1224]
  00206	0f 28 c3	 movaps	 xmm0, xmm3
  00209	f3 0f 10 8f cc
	04 00 00	 movss	 xmm1, DWORD PTR [edi+1228]
  00211	f3 0f 59 c3	 mulss	 xmm0, xmm3
  00215	f3 0f 59 d2	 mulss	 xmm2, xmm2
  00219	f3 0f 59 c9	 mulss	 xmm1, xmm1
  0021d	f3 0f 58 c2	 addss	 xmm0, xmm2
  00221	f3 0f 11 5c 24
	1c		 movss	 DWORD PTR tv875[esp+48], xmm3
  00227	f3 0f 58 c1	 addss	 xmm0, xmm1
  0022b	0f 57 c9	 xorps	 xmm1, xmm1
; File C:\Program Files (x86)\Windows Kits\10\Include\10.0.22621.0\ucrt\corecrt_math.h

; 768  :             return (float)sqrt(_X);

  0022e	0f 5a c0	 cvtps2pd xmm0, xmm0
  00231	66 0f 2e c8	 ucomisd xmm1, xmm0
  00235	77 06		 ja	 SHORT $LN81@AdjustColl
  00237	f2 0f 51 c0	 sqrtsd	 xmm0, xmm0
  0023b	eb 05		 jmp	 SHORT $LN82@AdjustColl
$LN81@AdjustColl:
  0023d	e8 00 00 00 00	 call	 __libm_sse2_sqrt_precise
$LN82@AdjustColl:
; File C:\Users\flourine\Desktop\Xantios\client-src\Code\GameLib\ActorInstance.cpp

; 821  : 				if (move_length > gc_fActorSlideMoveSpeed)

  00242	f3 0f 10 15 00
	00 00 00	 movss	 xmm2, DWORD PTR __real@40a00000
; File C:\Program Files (x86)\Windows Kits\10\Include\10.0.22621.0\ucrt\corecrt_math.h

; 768  :             return (float)sqrt(_X);

  0024a	f2 0f 5a c0	 cvtsd2ss xmm0, xmm0
; File C:\Users\flourine\Desktop\Xantios\client-src\Code\GameLib\ActorInstance.cpp

; 821  : 				if (move_length > gc_fActorSlideMoveSpeed)

  0024e	0f 2f c2	 comiss	 xmm0, xmm2
  00251	0f 86 7f 00 00
	00		 jbe	 $LN5@AdjustColl

; 822  : 				{
; 823  : 					m_v3Movement *= gc_fActorSlideMoveSpeed / move_length;

  00257	0f 28 ca	 movaps	 xmm1, xmm2
  0025a	f3 0f 5e c8	 divss	 xmm1, xmm0
; File C:\Users\flourine\Desktop\Xantios\client-src\extern\include\directX\d3dx9math.inl

; 346  :     x *= f;

  0025e	f3 0f 10 44 24
	1c		 movss	 xmm0, DWORD PTR tv875[esp+48]
  00264	f3 0f 59 c1	 mulss	 xmm0, xmm1
  00268	f3 0f 11 87 c4
	04 00 00	 movss	 DWORD PTR [edi+1220], xmm0

; 347  :     y *= f;

  00270	0f 28 c1	 movaps	 xmm0, xmm1
  00273	f3 0f 59 87 c8
	04 00 00	 mulss	 xmm0, DWORD PTR [edi+1224]

; 348  :     z *= f;

  0027b	f3 0f 59 8f cc
	04 00 00	 mulss	 xmm1, DWORD PTR [edi+1228]
  00283	f3 0f 11 87 c8
	04 00 00	 movss	 DWORD PTR [edi+1224], xmm0
  0028b	f3 0f 11 8f cc
	04 00 00	 movss	 DWORD PTR [edi+1228], xmm1
; File C:\Users\flourine\Desktop\Xantios\client-src\Code\GameLib\ActorInstance.cpp

; 824  : 					c_rMainSphere.v3Position = c_rMainSphere.v3LastPosition;

  00293	f3 0f 7e 43 0c	 movq	 xmm0, QWORD PTR [ebx+12]
  00298	8b 43 14	 mov	 eax, DWORD PTR [ebx+20]
  0029b	66 0f d6 03	 movq	 QWORD PTR [ebx], xmm0
  0029f	89 43 08	 mov	 DWORD PTR [ebx+8], eax
; File C:\Users\flourine\Desktop\Xantios\client-src\extern\include\directX\d3dx9math.inl

; 328  :     x += v.x;

  002a2	f3 0f 10 87 c4
	04 00 00	 movss	 xmm0, DWORD PTR [edi+1220]
  002aa	f3 0f 58 03	 addss	 xmm0, DWORD PTR [ebx]
  002ae	f3 0f 11 03	 movss	 DWORD PTR [ebx], xmm0

; 329  :     y += v.y;

  002b2	f3 0f 10 87 c8
	04 00 00	 movss	 xmm0, DWORD PTR [edi+1224]
  002ba	f3 0f 58 43 04	 addss	 xmm0, DWORD PTR [ebx+4]
  002bf	f3 0f 11 43 04	 movss	 DWORD PTR [ebx+4], xmm0

; 330  :     z += v.z;

  002c4	f3 0f 10 87 cc
	04 00 00	 movss	 xmm0, DWORD PTR [edi+1228]
  002cc	f3 0f 58 43 08	 addss	 xmm0, DWORD PTR [ebx+8]
  002d1	f3 0f 11 43 08	 movss	 DWORD PTR [ebx+8], xmm0
$LN5@AdjustColl:
; File C:\Program Files\Microsoft Visual Studio\2022\Community\VC\Tools\MSVC\14.34.31933\include\vector

; 1932 :         return static_cast<size_type>(_My_data._Mylast - _My_data._Myfirst);

  002d6	8b 4e 1c	 mov	 ecx, DWORD PTR [esi+28]
  002d9	b8 93 24 49 92	 mov	 eax, -1840700269	; 92492493H
  002de	8b 5e 18	 mov	 ebx, DWORD PTR [esi+24]
  002e1	2b cb		 sub	 ecx, ebx
; File C:\Users\flourine\Desktop\Xantios\client-src\Code\GameLib\ActorInstance.cpp

; 810  : 		for (DWORD i = 0; i < c_rMainSphereVector.size(); ++i)

  002e3	ff 44 24 14	 inc	 DWORD PTR _i$1$[esp+48]
  002e7	83 44 24 10 1c	 add	 DWORD PTR tv888[esp+48], 28 ; 0000001cH
; File C:\Program Files\Microsoft Visual Studio\2022\Community\VC\Tools\MSVC\14.34.31933\include\vector

; 1932 :         return static_cast<size_type>(_My_data._Mylast - _My_data._Myfirst);

  002ec	f7 e9		 imul	 ecx
  002ee	03 d1		 add	 edx, ecx
  002f0	c1 fa 04	 sar	 edx, 4
  002f3	8b c2		 mov	 eax, edx
  002f5	c1 e8 1f	 shr	 eax, 31			; 0000001fH
  002f8	03 c2		 add	 eax, edx
; File C:\Users\flourine\Desktop\Xantios\client-src\Code\GameLib\ActorInstance.cpp

; 810  : 		for (DWORD i = 0; i < c_rMainSphereVector.size(); ++i)

  002fa	39 44 24 14	 cmp	 DWORD PTR _i$1$[esp+48], eax
  002fe	8b 44 24 10	 mov	 eax, DWORD PTR tv888[esp+48]
  00302	0f 82 3c fe ff
	ff		 jb	 $LL7@AdjustColl
$LN2@AdjustColl:
; File C:\Program Files\Microsoft Visual Studio\2022\Community\VC\Tools\MSVC\14.34.31933\include\list

; 165  :         this->_Ptr = this->_Ptr->_Next;

  00308	8b 36		 mov	 esi, DWORD PTR [esi]

; 198  :         return this->_Ptr == _Right._Ptr;

  0030a	3b b7 7c 03 00
	00		 cmp	 esi, DWORD PTR [edi+892]
; File C:\Users\flourine\Desktop\Xantios\client-src\Code\GameLib\ActorInstance.cpp

; 807  : 	for (; itMain != m_BodyPointInstanceList.end(); ++itMain)

  00310	0f 85 01 fe ff
	ff		 jne	 $LL32@AdjustColl
$LN3@AdjustColl:

; 825  : 					c_rMainSphere.v3Position += m_v3Movement;
; 826  : 				}
; 827  : 			}
; 828  : 
; 829  : 			/*if (c_pObjectInstance->CollisionDynamicSphere(c_rMainSphere))
; 830  : 			{
; 831  : 				const D3DXVECTOR3 & c_rv3Position = c_pObjectInstance->GetPosition();
; 832  : 				//if (GetVector3Distance(c_rMainSphere.v3Position, c_rv3Position) <
; 833  : 				//	GetVector3Distance(c_rMainSphere.v3LastPosition, c_rv3Position))
; 834  : 				{
; 835  : 					return TRUE;
; 836  : 				}
; 837  : 
; 838  : 				return FALSE;
; 839  : 			}*/
; 840  : 		}
; 841  : 	}
; 842  : }

  00316	8b 4c 24 2c	 mov	 ecx, DWORD PTR __$ArrayPad$[esp+48]
  0031a	5f		 pop	 edi
  0031b	5e		 pop	 esi
  0031c	5b		 pop	 ebx
  0031d	33 cc		 xor	 ecx, esp
  0031f	e8 00 00 00 00	 call	 @__security_check_cookie@4
  00324	8b e5		 mov	 esp, ebp
  00326	5d		 pop	 ebp
  00327	c2 04 00	 ret	 4
?__AdjustCollisionMovement@CActorInstance@@IAEXPBVCGraphicObjectInstance@@@Z ENDP ; CActorInstance::__AdjustCollisionMovement
_TEXT	ENDS
; Function compile flags: /Ogtp
; File C:\Users\flourine\Desktop\Xantios\client-src\Code\GameLib\ActorInstance.cpp
;	COMDAT ?IsMovement@CActorInstance@@QAEHXZ
_TEXT	SEGMENT
?IsMovement@CActorInstance@@QAEHXZ PROC			; CActorInstance::IsMovement, COMDAT
; _this$ = ecx

; 845  : {

  00000	56		 push	 esi
  00001	8b f1		 mov	 esi, ecx

; 846  : 	if (m_pkHorse)

  00003	8b 8e 94 05 00
	00		 mov	 ecx, DWORD PTR [esi+1428]
  00009	85 c9		 test	 ecx, ecx
  0000b	74 09		 je	 SHORT $LN3@IsMovement

; 847  : 		if (m_pkHorse->IsMovement())

  0000d	e8 00 00 00 00	 call	 ?IsMovement@CActorInstance@@QAEHXZ ; CActorInstance::IsMovement
  00012	85 c0		 test	 eax, eax
  00014	75 2e		 jne	 SHORT $LN8@IsMovement
$LN3@IsMovement:
  00016	0f 57 c0	 xorps	 xmm0, xmm0

; 848  : 		{
; 849  : 			return TRUE;
; 850  : 		}
; 851  : 
; 852  : 	if (0.0f != m_v3Movement.x)

  00019	0f 2e 86 c4 04
	00 00		 ucomiss xmm0, DWORD PTR [esi+1220]
  00020	9f		 lahf
  00021	f6 c4 44	 test	 ah, 68			; 00000044H
  00024	7a 1e		 jp	 SHORT $LN8@IsMovement

; 853  : 	{
; 854  : 		return TRUE;
; 855  : 	}
; 856  : 	if (0.0f != m_v3Movement.y)

  00026	0f 2e 86 c8 04
	00 00		 ucomiss xmm0, DWORD PTR [esi+1224]
  0002d	9f		 lahf
  0002e	f6 c4 44	 test	 ah, 68			; 00000044H
  00031	7a 11		 jp	 SHORT $LN8@IsMovement

; 857  : 	{
; 858  : 		return TRUE;
; 859  : 	}
; 860  : 	if (0.0f != m_v3Movement.z)

  00033	0f 2e 86 cc 04
	00 00		 ucomiss xmm0, DWORD PTR [esi+1228]
  0003a	9f		 lahf
  0003b	f6 c4 44	 test	 ah, 68			; 00000044H
  0003e	7a 04		 jp	 SHORT $LN8@IsMovement

; 863  : 	}
; 864  : 
; 865  : 	return FALSE;

  00040	33 c0		 xor	 eax, eax
  00042	5e		 pop	 esi

; 866  : }

  00043	c3		 ret	 0
$LN8@IsMovement:

; 861  : 	{
; 862  : 		return TRUE;

  00044	b8 01 00 00 00	 mov	 eax, 1
  00049	5e		 pop	 esi

; 866  : }

  0004a	c3		 ret	 0
?IsMovement@CActorInstance@@QAEHXZ ENDP			; CActorInstance::IsMovement
_TEXT	ENDS
; Function compile flags: /Ogtp
; File C:\Users\flourine\Desktop\Xantios\client-src\Code\GameLib\ActorInstance.cpp
;	COMDAT ?SetOwner@CActorInstance@@QAEXK@Z
_TEXT	SEGMENT
_dwOwnerVID$ = 8					; size = 4
?SetOwner@CActorInstance@@QAEXK@Z PROC			; CActorInstance::SetOwner, COMDAT
; _this$ = ecx

; 238  : {

  00000	55		 push	 ebp
  00001	8b ec		 mov	 ebp, esp
  00003	56		 push	 esi
  00004	8b f1		 mov	 esi, ecx

; 239  : 	m_fOwnerBaseTime = GetLocalTime();

  00006	e8 00 00 00 00	 call	 ?GetLocalTime@CGraphicThingInstance@@QAEMXZ ; CGraphicThingInstance::GetLocalTime

; 240  : 	m_dwOwnerVID = dwOwnerVID;

  0000b	8b 45 08	 mov	 eax, DWORD PTR _dwOwnerVID$[ebp]
  0000e	d9 9e 08 05 00
	00		 fstp	 DWORD PTR [esi+1288]
  00014	89 86 a0 05 00
	00		 mov	 DWORD PTR [esi+1440], eax
  0001a	5e		 pop	 esi

; 241  : }

  0001b	5d		 pop	 ebp
  0001c	c2 04 00	 ret	 4
?SetOwner@CActorInstance@@QAEXK@Z ENDP			; CActorInstance::SetOwner
_TEXT	ENDS
; Function compile flags: /Ogtp
; File C:\Users\flourine\Desktop\Xantios\client-src\Code\GameLib\ActorInstance.cpp
;	COMDAT ?SetReachScale@CActorInstance@@QAEXM@Z
_TEXT	SEGMENT
_fScale$ = 8						; size = 4
?SetReachScale@CActorInstance@@QAEXM@Z PROC		; CActorInstance::SetReachScale, COMDAT
; _this$ = ecx

; 156  : {

  00000	55		 push	 ebp
  00001	8b ec		 mov	 ebp, esp

; 157  : 	m_fReachScale = fScale;

  00003	f3 0f 10 45 08	 movss	 xmm0, DWORD PTR _fScale$[ebp]
  00008	f3 0f 11 81 d8
	04 00 00	 movss	 DWORD PTR [ecx+1240], xmm0

; 158  : }

  00010	5d		 pop	 ebp
  00011	c2 04 00	 ret	 4
?SetReachScale@CActorInstance@@QAEXM@Z ENDP		; CActorInstance::SetReachScale
_TEXT	ENDS
; Function compile flags: /Ogtp
; File C:\Users\flourine\Desktop\Xantios\client-src\Code\GameLib\ActorInstance.cpp
;	COMDAT ?GetNormalAttackIndex@CActorInstance@@QAEKXZ
_TEXT	SEGMENT
_wMotionIndex$ = -4					; size = 2
?GetNormalAttackIndex@CActorInstance@@QAEKXZ PROC	; CActorInstance::GetNormalAttackIndex, COMDAT
; _this$ = ecx

; 685  : {

  00000	55		 push	 ebp
  00001	8b ec		 mov	 ebp, esp
  00003	51		 push	 ecx
  00004	56		 push	 esi
  00005	57		 push	 edi
  00006	8b f9		 mov	 edi, ecx

; 686  : 	WORD wMotionIndex;
; 687  : 	m_pkCurRaceData->GetNormalAttackIndex(GetMotionMode(), &wMotionIndex);

  00008	8b b7 64 04 00
	00		 mov	 esi, DWORD PTR [edi+1124]
  0000e	e8 00 00 00 00	 call	 ?GetMotionMode@CActorInstance@@QAEHXZ ; CActorInstance::GetMotionMode
  00013	8d 4d fc	 lea	 ecx, DWORD PTR _wMotionIndex$[ebp]
  00016	0f b7 c0	 movzx	 eax, ax
  00019	51		 push	 ecx
  0001a	50		 push	 eax
  0001b	8b ce		 mov	 ecx, esi
  0001d	e8 00 00 00 00	 call	 ?GetNormalAttackIndex@CRaceData@@QAEHGPAG@Z ; CRaceData::GetNormalAttackIndex

; 688  : 
; 689  : 	return MAKE_MOTION_KEY(GetMotionMode(), wMotionIndex);

  00022	8b cf		 mov	 ecx, edi
  00024	e8 00 00 00 00	 call	 ?GetMotionMode@CActorInstance@@QAEHXZ ; CActorInstance::GetMotionMode
  00029	0f b6 c8	 movzx	 ecx, al
  0002c	0f b7 45 fc	 movzx	 eax, WORD PTR _wMotionIndex$[ebp]
  00030	c1 e1 10	 shl	 ecx, 16			; 00000010H
  00033	0b c1		 or	 eax, ecx
  00035	5f		 pop	 edi
  00036	c1 e0 08	 shl	 eax, 8
  00039	5e		 pop	 esi

; 690  : }

  0003a	8b e5		 mov	 esp, ebp
  0003c	5d		 pop	 ebp
  0003d	c3		 ret	 0
?GetNormalAttackIndex@CActorInstance@@QAEKXZ ENDP	; CActorInstance::GetNormalAttackIndex
_TEXT	ENDS
; Function compile flags: /Ogtp
; File C:\Users\flourine\Desktop\Xantios\client-src\Code\GameLib\ActorInstance.cpp
;	COMDAT ?DieEnd@CActorInstance@@QAEXXZ
_TEXT	SEGMENT
?DieEnd@CActorInstance@@QAEXXZ PROC			; CActorInstance::DieEnd, COMDAT
; _this$ = ecx

; 446  : {

  00000	56		 push	 esi
  00001	8b f1		 mov	 esi, ecx

; 447  : 	Die();

  00003	e8 00 00 00 00	 call	 ?Die@CActorInstance@@QAEXXZ ; CActorInstance::Die

; 448  : 
; 449  : 	CGraphicThingInstance::SetMotionAtEnd();

  00008	8b ce		 mov	 ecx, esi
  0000a	5e		 pop	 esi
  0000b	e9 00 00 00 00	 jmp	 ?SetMotionAtEnd@CGraphicThingInstance@@QAEXXZ ; CGraphicThingInstance::SetMotionAtEnd
?DieEnd@CActorInstance@@QAEXXZ ENDP			; CActorInstance::DieEnd
_TEXT	ENDS
; Function compile flags: /Ogtp
; File C:\Users\flourine\Desktop\Xantios\client-src\Code\GameLib\ActorInstance.cpp
;	COMDAT ?Die@CActorInstance@@QAEXXZ
_TEXT	SEGMENT
?Die@CActorInstance@@QAEXXZ PROC			; CActorInstance::Die, COMDAT
; _this$ = ecx

; 453  : {

  00000	56		 push	 esi
  00001	8b f1		 mov	 esi, ecx

; 454  : 	if (m_isRealDead)

  00003	83 be 88 04 00
	00 00		 cmp	 DWORD PTR [esi+1160], 0
  0000a	75 65		 jne	 SHORT $LN1@Die

; 455  : 	{
; 456  : 		return;
; 457  : 	}
; 458  : 
; 459  : 	if (__IsMoveMotion())

  0000c	e8 00 00 00 00	 call	 ?__IsMoveMotion@CActorInstance@@IAE_NXZ ; CActorInstance::__IsMoveMotion
  00011	84 c0		 test	 al, al
  00013	74 0f		 je	 SHORT $LN3@Die

; 460  : 	{
; 461  : 		Stop();

  00015	51		 push	 ecx
  00016	8b ce		 mov	 ecx, esi
  00018	c7 04 24 9a 99
	19 3e		 mov	 DWORD PTR [esp], 1041865114 ; 3e19999aH
  0001f	e8 00 00 00 00	 call	 ?Stop@CActorInstance@@QAEXM@Z ; CActorInstance::Stop
$LN3@Die:

; 462  : 	}
; 463  : 
; 464  : 	SetAdvancingRotation(GetRotation());

  00024	8b ce		 mov	 ecx, esi
  00026	e8 00 00 00 00	 call	 ?GetRotation@CActorInstance@@QAEMXZ ; CActorInstance::GetRotation
  0002b	51		 push	 ecx
  0002c	8b ce		 mov	 ecx, esi
  0002e	d9 1c 24	 fstp	 DWORD PTR [esp]
  00031	e8 00 00 00 00	 call	 ?SetAdvancingRotation@CActorInstance@@QAEXM@Z ; CActorInstance::SetAdvancingRotation

; 465  : 
; 466  : 	if (IsStone())

  00036	8b ce		 mov	 ecx, esi
  00038	e8 00 00 00 00	 call	 ?IsStone@CActorInstance@@QAE_NXZ ; CActorInstance::IsStone
  0003d	84 c0		 test	 al, al
  0003f	75 0b		 jne	 SHORT $LN8@Die

; 467  : 	{
; 468  : 		InterceptOnceMotion(CRaceMotionData::NAME_DEAD);
; 469  : 	}
; 470  : 	else
; 471  : 	{
; 472  : 		if (!__IsDieMotion())

  00041	8b ce		 mov	 ecx, esi
  00043	e8 00 00 00 00	 call	 ?__IsDieMotion@CActorInstance@@IAE_NXZ ; CActorInstance::__IsDieMotion
  00048	84 c0		 test	 al, al
  0004a	75 1b		 jne	 SHORT $LN6@Die
$LN8@Die:

; 473  : 		{
; 474  : 			InterceptOnceMotion(CRaceMotionData::NAME_DEAD);

  0004c	51		 push	 ecx
  0004d	c7 04 24 00 00
	80 3f		 mov	 DWORD PTR [esp], 1065353216 ; 3f800000H
  00054	6a 00		 push	 0
  00056	51		 push	 ecx
  00057	c7 04 24 cd cc
	cc 3d		 mov	 DWORD PTR [esp], 1036831949 ; 3dcccccdH
  0005e	8b ce		 mov	 ecx, esi
  00060	6a 0b		 push	 11			; 0000000bH
  00062	e8 00 00 00 00	 call	 ?InterceptOnceMotion@CActorInstance@@QAE_NKMIM@Z ; CActorInstance::InterceptOnceMotion
$LN6@Die:

; 475  : 		}
; 476  : 	}
; 477  : 
; 478  : 	m_isRealDead = TRUE;

  00067	c7 86 88 04 00
	00 01 00 00 00	 mov	 DWORD PTR [esi+1160], 1
$LN1@Die:
  00071	5e		 pop	 esi

; 479  : }

  00072	c3		 ret	 0
?Die@CActorInstance@@QAEXXZ ENDP			; CActorInstance::Die
_TEXT	ENDS
; Function compile flags: /Ogtp
; File C:\Users\flourine\Desktop\Xantios\client-src\Code\GameLib\ActorInstance.cpp
;	COMDAT ?Stun@CActorInstance@@QAEXXZ
_TEXT	SEGMENT
?Stun@CActorInstance@@QAEXXZ PROC			; CActorInstance::Stun, COMDAT
; _this$ = ecx

; 663  : 	m_isStun = TRUE;

  00000	c7 81 84 04 00
	00 01 00 00 00	 mov	 DWORD PTR [ecx+1156], 1

; 664  : }

  0000a	c3		 ret	 0
?Stun@CActorInstance@@QAEXXZ ENDP			; CActorInstance::Stun
_TEXT	ENDS
; Function compile flags: /Ogtp
; File C:\Users\flourine\Desktop\Xantios\client-src\Code\GameLib\ActorInstance.cpp
;	COMDAT ?SetRunMode@CActorInstance@@QAEXXZ
_TEXT	SEGMENT
?SetRunMode@CActorInstance@@QAEXXZ PROC			; CActorInstance::SetRunMode, COMDAT
; _this$ = ecx

; 677  : 	m_isWalking = FALSE;
; 678  : 	if (CRaceMotionData::NAME_WALK == GET_MOTION_INDEX(m_kCurMotNode.dwMotionKey))

  00000	8b 81 58 03 00
	00		 mov	 eax, DWORD PTR [ecx+856]
  00006	ba 02 00 00 00	 mov	 edx, 2
  0000b	c1 e8 08	 shr	 eax, 8
  0000e	c7 81 8c 04 00
	00 00 00 00 00	 mov	 DWORD PTR [ecx+1164], 0
  00018	66 3b d0	 cmp	 dx, ax
  0001b	75 1f		 jne	 SHORT $LN2@SetRunMode

; 679  : 	{
; 680  : 		SetLoopMotion(CRaceMotionData::NAME_RUN, 0.15f, m_fMovSpd);

  0001d	f3 0f 10 81 dc
	04 00 00	 movss	 xmm0, DWORD PTR [ecx+1244]
  00025	83 ec 08	 sub	 esp, 8
  00028	f3 0f 11 44 24
	04		 movss	 DWORD PTR [esp+4], xmm0
  0002e	c7 04 24 9a 99
	19 3e		 mov	 DWORD PTR [esp], 1041865114 ; 3e19999aH
  00035	6a 03		 push	 3
  00037	e8 00 00 00 00	 call	 ?SetLoopMotion@CActorInstance@@QAEXKMM@Z ; CActorInstance::SetLoopMotion
$LN2@SetRunMode:

; 681  : 	}
; 682  : }

  0003c	c3		 ret	 0
?SetRunMode@CActorInstance@@QAEXXZ ENDP			; CActorInstance::SetRunMode
_TEXT	ENDS
; Function compile flags: /Ogtp
; File C:\Users\flourine\Desktop\Xantios\client-src\Code\GameLib\ActorInstance.cpp
;	COMDAT ?SetWalkMode@CActorInstance@@QAEXXZ
_TEXT	SEGMENT
?SetWalkMode@CActorInstance@@QAEXXZ PROC		; CActorInstance::SetWalkMode, COMDAT
; _this$ = ecx

; 668  : 	m_isWalking = TRUE;
; 669  : 	if (CRaceMotionData::NAME_RUN == GET_MOTION_INDEX(m_kCurMotNode.dwMotionKey))

  00000	8b 81 58 03 00
	00		 mov	 eax, DWORD PTR [ecx+856]
  00006	ba 03 00 00 00	 mov	 edx, 3
  0000b	c1 e8 08	 shr	 eax, 8
  0000e	c7 81 8c 04 00
	00 01 00 00 00	 mov	 DWORD PTR [ecx+1164], 1
  00018	66 3b d0	 cmp	 dx, ax
  0001b	75 1f		 jne	 SHORT $LN2@SetWalkMod

; 670  : 	{
; 671  : 		SetLoopMotion(CRaceMotionData::NAME_WALK, 0.15f, m_fMovSpd);

  0001d	f3 0f 10 81 dc
	04 00 00	 movss	 xmm0, DWORD PTR [ecx+1244]
  00025	83 ec 08	 sub	 esp, 8
  00028	f3 0f 11 44 24
	04		 movss	 DWORD PTR [esp+4], xmm0
  0002e	c7 04 24 9a 99
	19 3e		 mov	 DWORD PTR [esp], 1041865114 ; 3e19999aH
  00035	6a 02		 push	 2
  00037	e8 00 00 00 00	 call	 ?SetLoopMotion@CActorInstance@@QAEXKMM@Z ; CActorInstance::SetLoopMotion
$LN2@SetWalkMod:

; 672  : 	}
; 673  : }

  0003c	c3		 ret	 0
?SetWalkMode@CActorInstance@@QAEXXZ ENDP		; CActorInstance::SetWalkMode
_TEXT	ENDS
; Function compile flags: /Ogtp
; File C:\Users\flourine\Desktop\Xantios\client-src\Code\GameLib\ActorInstance.cpp
;	COMDAT ?IsKnockDown@CActorInstance@@QAEHXZ
_TEXT	SEGMENT
?IsKnockDown@CActorInstance@@QAEHXZ PROC		; CActorInstance::IsKnockDown, COMDAT
; _this$ = ecx

; 518  : 	return __IsKnockDownMotion();

  00000	e8 00 00 00 00	 call	 ?__IsKnockDownMotion@CActorInstance@@IAE_NXZ ; CActorInstance::__IsKnockDownMotion
  00005	0f b6 c0	 movzx	 eax, al

; 519  : }

  00008	c3		 ret	 0
?IsKnockDown@CActorInstance@@QAEHXZ ENDP		; CActorInstance::IsKnockDown
_TEXT	ENDS
; Function compile flags: /Ogtp
; File C:\Users\flourine\Desktop\Xantios\client-src\Code\GameLib\ActorInstance.cpp
;	COMDAT ?IsDamage@CActorInstance@@QAEHXZ
_TEXT	SEGMENT
?IsDamage@CActorInstance@@QAEHXZ PROC			; CActorInstance::IsDamage, COMDAT
; _this$ = ecx

; 523  : 	return __IsDamageMotion();

  00000	e8 00 00 00 00	 call	 ?__IsDamageMotion@CActorInstance@@IAE_NXZ ; CActorInstance::__IsDamageMotion
  00005	0f b6 c0	 movzx	 eax, al

; 524  : }

  00008	c3		 ret	 0
?IsDamage@CActorInstance@@QAEHXZ ENDP			; CActorInstance::IsDamage
_TEXT	ENDS
; Function compile flags: /Ogtp
; File C:\Users\flourine\Desktop\Xantios\client-src\Code\GameLib\ActorInstance.cpp
;	COMDAT ?IsAttacked@CActorInstance@@QAEHXZ
_TEXT	SEGMENT
?IsAttacked@CActorInstance@@QAEHXZ PROC			; CActorInstance::IsAttacked, COMDAT
; _this$ = ecx

; 527  : {

  00000	56		 push	 esi
  00001	8b f1		 mov	 esi, ecx

; 528  : 	if (IsPushing())

  00003	e8 00 00 00 00	 call	 ?IsPushing@CActorInstance@@QAE_NXZ ; CActorInstance::IsPushing
  00008	84 c0		 test	 al, al
  0000a	75 28		 jne	 SHORT $LN7@IsAttacked

; 529  : 	{
; 530  : 		return TRUE;
; 531  : 	}
; 532  : 
; 533  : 	if (__IsDamageMotion())

  0000c	8b ce		 mov	 ecx, esi
  0000e	e8 00 00 00 00	 call	 ?__IsDamageMotion@CActorInstance@@IAE_NXZ ; CActorInstance::__IsDamageMotion
  00013	84 c0		 test	 al, al
  00015	75 1d		 jne	 SHORT $LN7@IsAttacked

; 534  : 	{
; 535  : 		return TRUE;
; 536  : 	}
; 537  : 
; 538  : 	if (__IsKnockDownMotion())

  00017	8b ce		 mov	 ecx, esi
  00019	e8 00 00 00 00	 call	 ?__IsKnockDownMotion@CActorInstance@@IAE_NXZ ; CActorInstance::__IsKnockDownMotion
  0001e	84 c0		 test	 al, al
  00020	75 12		 jne	 SHORT $LN7@IsAttacked

; 539  : 	{
; 540  : 		return TRUE;
; 541  : 	}
; 542  : 
; 543  : 	if (__IsDieMotion())

  00022	8b ce		 mov	 ecx, esi
  00024	e8 00 00 00 00	 call	 ?__IsDieMotion@CActorInstance@@IAE_NXZ ; CActorInstance::__IsDieMotion
  00029	33 c9		 xor	 ecx, ecx
  0002b	84 c0		 test	 al, al
  0002d	5e		 pop	 esi
  0002e	0f 95 c1	 setne	 cl
  00031	8b c1		 mov	 eax, ecx

; 546  : 	}
; 547  : 
; 548  : 	return FALSE;
; 549  : }

  00033	c3		 ret	 0
$LN7@IsAttacked:

; 544  : 	{
; 545  : 		return TRUE;

  00034	b8 01 00 00 00	 mov	 eax, 1
  00039	5e		 pop	 esi

; 546  : 	}
; 547  : 
; 548  : 	return FALSE;
; 549  : }

  0003a	c3		 ret	 0
?IsAttacked@CActorInstance@@QAEHXZ ENDP			; CActorInstance::IsAttacked
_TEXT	ENDS
; Function compile flags: /Ogtp
; File C:\Users\flourine\Desktop\Xantios\client-src\Code\GameLib\ActorInstance.cpp
;	COMDAT ?IsStun@CActorInstance@@QAEHXZ
_TEXT	SEGMENT
?IsStun@CActorInstance@@QAEHXZ PROC			; CActorInstance::IsStun, COMDAT
; _this$ = ecx

; 658  : 	return m_isStun;

  00000	8b 81 84 04 00
	00		 mov	 eax, DWORD PTR [ecx+1156]

; 659  : }

  00006	c3		 ret	 0
?IsStun@CActorInstance@@QAEHXZ ENDP			; CActorInstance::IsStun
_TEXT	ENDS
; Function compile flags: /Ogtp
; File C:\Users\flourine\Desktop\Xantios\client-src\Code\GameLib\ActorInstance.cpp
;	COMDAT ?IsDead@CActorInstance@@QAEHXZ
_TEXT	SEGMENT
?IsDead@CActorInstance@@QAEHXZ PROC			; CActorInstance::IsDead, COMDAT
; _this$ = ecx

; 513  : 	return m_isRealDead;

  00000	8b 81 88 04 00
	00		 mov	 eax, DWORD PTR [ecx+1160]

; 514  : }

  00006	c3		 ret	 0
?IsDead@CActorInstance@@QAEHXZ ENDP			; CActorInstance::IsDead
_TEXT	ENDS
; Function compile flags: /Ogtp
; File C:\Users\flourine\Desktop\Xantios\client-src\Code\GameLib\ActorInstance.cpp
;	COMDAT ?IsMoving@CActorInstance@@QAEHXZ
_TEXT	SEGMENT
?IsMoving@CActorInstance@@QAEHXZ PROC			; CActorInstance::IsMoving, COMDAT
; _this$ = ecx

; 503  : 	return __IsMoveMotion();

  00000	e8 00 00 00 00	 call	 ?__IsMoveMotion@CActorInstance@@IAE_NXZ ; CActorInstance::__IsMoveMotion
  00005	0f b6 c0	 movzx	 eax, al

; 504  : }

  00008	c3		 ret	 0
?IsMoving@CActorInstance@@QAEHXZ ENDP			; CActorInstance::IsMoving
_TEXT	ENDS
; Function compile flags: /Ogtp
; File C:\Users\flourine\Desktop\Xantios\client-src\Code\GameLib\ActorInstance.cpp
;	COMDAT ?IsWaiting@CActorInstance@@QAEHXZ
_TEXT	SEGMENT
?IsWaiting@CActorInstance@@QAEHXZ PROC			; CActorInstance::IsWaiting, COMDAT
; _this$ = ecx

; 508  : 	return __IsWaitMotion();

  00000	e8 00 00 00 00	 call	 ?__IsWaitMotion@CActorInstance@@IAE_NXZ ; CActorInstance::__IsWaitMotion
  00005	0f b6 c0	 movzx	 eax, al

; 509  : }

  00008	c3		 ret	 0
?IsWaiting@CActorInstance@@QAEHXZ ENDP			; CActorInstance::IsWaiting
_TEXT	ENDS
; Function compile flags: /Ogtp
; File C:\Users\flourine\Desktop\Xantios\client-src\Code\GameLib\ActorInstance.cpp
;	COMDAT ?IsResistFallen@CActorInstance@@QAEHXZ
_TEXT	SEGMENT
?IsResistFallen@CActorInstance@@QAEHXZ PROC		; CActorInstance::IsResistFallen, COMDAT
; _this$ = ecx

; 498  : 	return m_isResistFallen;

  00000	8b 81 74 04 00
	00		 mov	 eax, DWORD PTR [ecx+1140]

; 499  : }

  00006	c3		 ret	 0
?IsResistFallen@CActorInstance@@QAEHXZ ENDP		; CActorInstance::IsResistFallen
_TEXT	ENDS
; Function compile flags: /Ogtp
; File C:\Users\flourine\Desktop\Xantios\client-src\Code\GameLib\ActorInstance.cpp
;	COMDAT ?IsFaint@CActorInstance@@QAEHXZ
_TEXT	SEGMENT
?IsFaint@CActorInstance@@QAEHXZ PROC			; CActorInstance::IsFaint, COMDAT
; _this$ = ecx

; 493  : 	return m_isFaint;

  00000	8b 81 7c 04 00
	00		 mov	 eax, DWORD PTR [ecx+1148]

; 494  : }

  00006	c3		 ret	 0
?IsFaint@CActorInstance@@QAEHXZ ENDP			; CActorInstance::IsFaint
_TEXT	ENDS
; Function compile flags: /Ogtp
; File C:\Users\flourine\Desktop\Xantios\client-src\Code\GameLib\ActorInstance.cpp
;	COMDAT ?IsParalysis@CActorInstance@@QAEHXZ
_TEXT	SEGMENT
?IsParalysis@CActorInstance@@QAEHXZ PROC		; CActorInstance::IsParalysis, COMDAT
; _this$ = ecx

; 488  : 	return m_isParalysis;

  00000	8b 81 80 04 00
	00		 mov	 eax, DWORD PTR [ecx+1152]

; 489  : }

  00006	c3		 ret	 0
?IsParalysis@CActorInstance@@QAEHXZ ENDP		; CActorInstance::IsParalysis
_TEXT	ENDS
; Function compile flags: /Ogtp
; File C:\Users\flourine\Desktop\Xantios\client-src\Code\GameLib\ActorInstance.cpp
;	COMDAT ?IsSleep@CActorInstance@@QAEHXZ
_TEXT	SEGMENT
?IsSleep@CActorInstance@@QAEHXZ PROC			; CActorInstance::IsSleep, COMDAT
; _this$ = ecx

; 483  : 	return m_isSleep;

  00000	8b 81 78 04 00
	00		 mov	 eax, DWORD PTR [ecx+1144]

; 484  : }

  00006	c3		 ret	 0
?IsSleep@CActorInstance@@QAEHXZ ENDP			; CActorInstance::IsSleep
_TEXT	ENDS
; Function compile flags: /Ogtp
; File C:\Users\flourine\Desktop\Xantios\client-src\Code\GameLib\ActorInstance.cpp
;	COMDAT ?Revive@CActorInstance@@QAEXXZ
_TEXT	SEGMENT
?Revive@CActorInstance@@QAEXXZ PROC			; CActorInstance::Revive, COMDAT
; _this$ = ecx

; 644  : 	m_isSleep = FALSE;

  00000	c7 81 78 04 00
	00 00 00 00 00	 mov	 DWORD PTR [ecx+1144], 0

; 645  : 	m_isParalysis = FALSE;

  0000a	c7 81 80 04 00
	00 00 00 00 00	 mov	 DWORD PTR [ecx+1152], 0

; 646  : 	m_isFaint = FALSE;

  00014	c7 81 7c 04 00
	00 00 00 00 00	 mov	 DWORD PTR [ecx+1148], 0

; 647  : 	m_isRealDead = FALSE;

  0001e	c7 81 88 04 00
	00 00 00 00 00	 mov	 DWORD PTR [ecx+1160], 0

; 648  : 	m_isStun = FALSE;

  00028	c7 81 84 04 00
	00 00 00 00 00	 mov	 DWORD PTR [ecx+1156], 0

; 649  : 	m_isWalking = FALSE;

  00032	c7 81 8c 04 00
	00 00 00 00 00	 mov	 DWORD PTR [ecx+1164], 0

; 650  : 	m_isMain = FALSE;

  0003c	c7 81 90 04 00
	00 00 00 00 00	 mov	 DWORD PTR [ecx+1168], 0

; 651  : 	m_isResistFallen = FALSE;

  00046	c7 81 74 04 00
	00 00 00 00 00	 mov	 DWORD PTR [ecx+1140], 0

; 652  : 
; 653  : 	__InitializeCollisionData();

  00050	e9 00 00 00 00	 jmp	 ?__InitializeCollisionData@CActorInstance@@IAEXXZ ; CActorInstance::__InitializeCollisionData
?Revive@CActorInstance@@QAEXXZ ENDP			; CActorInstance::Revive
_TEXT	ENDS
; Function compile flags: /Ogtp
; File C:\Users\flourine\Desktop\Xantios\client-src\Code\GameLib\ActorInstance.cpp
;	COMDAT ?IsTwoHandMode@CActorInstance@@QAE_NXZ
_TEXT	SEGMENT
?IsTwoHandMode@CActorInstance@@QAE_NXZ PROC		; CActorInstance::IsTwoHandMode, COMDAT
; _this$ = ecx

; 277  : 	if (CRaceMotionData::MODE_TWOHAND_SWORD == GetMotionMode())

  00000	e8 00 00 00 00	 call	 ?GetMotionMode@CActorInstance@@QAEHXZ ; CActorInstance::GetMotionMode
  00005	83 f8 03	 cmp	 eax, 3
  00008	0f 94 c0	 sete	 al

; 278  : 	{
; 279  : 		return true;
; 280  : 	}
; 281  : 
; 282  : 	return false;
; 283  : }

  0000b	c3		 ret	 0
?IsTwoHandMode@CActorInstance@@QAE_NXZ ENDP		; CActorInstance::IsTwoHandMode
_TEXT	ENDS
; Function compile flags: /Ogtp
; File C:\Users\flourine\Desktop\Xantios\client-src\Code\GameLib\ActorInstance.cpp
;	COMDAT ?IsBowMode@CActorInstance@@QAE_NXZ
_TEXT	SEGMENT
?IsBowMode@CActorInstance@@QAE_NXZ PROC			; CActorInstance::IsBowMode, COMDAT
; _this$ = ecx

; 286  : {

  00000	56		 push	 esi
  00001	8b f1		 mov	 esi, ecx

; 287  : 	if (CRaceMotionData::MODE_BOW == GetMotionMode())

  00003	e8 00 00 00 00	 call	 ?GetMotionMode@CActorInstance@@QAEHXZ ; CActorInstance::GetMotionMode
  00008	83 f8 05	 cmp	 eax, 5
  0000b	74 0f		 je	 SHORT $LN5@IsBowMode

; 288  : 	{
; 289  : 		return true;
; 290  : 	}
; 291  : 
; 292  : 	if (CRaceMotionData::MODE_HORSE_BOW == GetMotionMode())

  0000d	8b ce		 mov	 ecx, esi
  0000f	e8 00 00 00 00	 call	 ?GetMotionMode@CActorInstance@@QAEHXZ ; CActorInstance::GetMotionMode
  00014	83 f8 0d	 cmp	 eax, 13			; 0000000dH
  00017	5e		 pop	 esi
  00018	0f 94 c0	 sete	 al

; 295  : 	}
; 296  : 
; 297  : 	return false;
; 298  : }

  0001b	c3		 ret	 0
$LN5@IsBowMode:

; 293  : 	{
; 294  : 		return true;

  0001c	b0 01		 mov	 al, 1
  0001e	5e		 pop	 esi

; 295  : 	}
; 296  : 
; 297  : 	return false;
; 298  : }

  0001f	c3		 ret	 0
?IsBowMode@CActorInstance@@QAE_NXZ ENDP			; CActorInstance::IsBowMode
_TEXT	ENDS
; Function compile flags: /Ogtp
; File C:\Users\flourine\Desktop\Xantios\client-src\Code\GameLib\ActorInstance.cpp
;	COMDAT ?IsHandMode@CActorInstance@@QAE_NXZ
_TEXT	SEGMENT
?IsHandMode@CActorInstance@@QAE_NXZ PROC		; CActorInstance::IsHandMode, COMDAT
; _this$ = ecx

; 261  : {

  00000	56		 push	 esi
  00001	8b f1		 mov	 esi, ecx

; 262  : 	if (CRaceMotionData::MODE_GENERAL == GetMotionMode())

  00003	e8 00 00 00 00	 call	 ?GetMotionMode@CActorInstance@@QAEHXZ ; CActorInstance::GetMotionMode
  00008	83 f8 01	 cmp	 eax, 1
  0000b	74 0f		 je	 SHORT $LN5@IsHandMode

; 263  : 	{
; 264  : 		return true;
; 265  : 	}
; 266  : 
; 267  : 	if (CRaceMotionData::MODE_HORSE == GetMotionMode())

  0000d	8b ce		 mov	 ecx, esi
  0000f	e8 00 00 00 00	 call	 ?GetMotionMode@CActorInstance@@QAEHXZ ; CActorInstance::GetMotionMode
  00014	83 f8 09	 cmp	 eax, 9
  00017	5e		 pop	 esi
  00018	0f 94 c0	 sete	 al

; 270  : 	}
; 271  : 
; 272  : 	return false;
; 273  : }

  0001b	c3		 ret	 0
$LN5@IsHandMode:

; 268  : 	{
; 269  : 		return true;

  0001c	b0 01		 mov	 al, 1
  0001e	5e		 pop	 esi

; 270  : 	}
; 271  : 
; 272  : 	return false;
; 273  : }

  0001f	c3		 ret	 0
?IsHandMode@CActorInstance@@QAE_NXZ ENDP		; CActorInstance::IsHandMode
_TEXT	ENDS
; Function compile flags: /Ogtp
; File C:\Users\flourine\Desktop\Xantios\client-src\Code\GameLib\ActorInstance.cpp
;	COMDAT ?IsBuilding@CActorInstance@@QAE_NXZ
_TEXT	SEGMENT
?IsBuilding@CActorInstance@@QAE_NXZ PROC		; CActorInstance::IsBuilding, COMDAT
; _this$ = ecx

; 378  : 	if (TYPE_BUILDING == m_eActorType)

  00000	83 b9 40 04 00
	00 05		 cmp	 DWORD PTR [ecx+1088], 5
  00007	0f 94 c0	 sete	 al

; 379  : 	{
; 380  : 		return true;
; 381  : 	}
; 382  : 
; 383  : 	return false;
; 384  : }

  0000a	c3		 ret	 0
?IsBuilding@CActorInstance@@QAE_NXZ ENDP		; CActorInstance::IsBuilding
_TEXT	ENDS
; Function compile flags: /Ogtp
; File C:\Users\flourine\Desktop\Xantios\client-src\Code\GameLib\ActorInstance.cpp
;	COMDAT ?IsPoly@CActorInstance@@QAE_NXZ
_TEXT	SEGMENT
?IsPoly@CActorInstance@@QAE_NXZ PROC			; CActorInstance::IsPoly, COMDAT
; _this$ = ecx

; 302  : 	if (TYPE_POLY == m_eActorType)

  00000	8b 81 40 04 00
	00		 mov	 eax, DWORD PTR [ecx+1088]
  00006	83 f8 07	 cmp	 eax, 7
  00009	74 13		 je	 SHORT $LN6@IsPoly

; 303  : 	{
; 304  : 		return true;
; 305  : 	}
; 306  : 
; 307  : 	if (TYPE_PC == m_eActorType)

  0000b	83 f8 06	 cmp	 eax, 6
  0000e	75 0b		 jne	 SHORT $LN4@IsPoly

; 308  : 		if (m_eRace >= MAIN_RACE_MAX_NUM)

  00010	83 b9 44 04 00
	00 08		 cmp	 DWORD PTR [ecx+1092], 8
  00017	0f 93 c0	 setae	 al

; 314  : }

  0001a	c3		 ret	 0
$LN4@IsPoly:

; 311  : 		}
; 312  : 
; 313  : 	return false;

  0001b	32 c0		 xor	 al, al

; 314  : }

  0001d	c3		 ret	 0
$LN6@IsPoly:

; 309  : 		{
; 310  : 			return TRUE;

  0001e	b0 01		 mov	 al, 1

; 314  : }

  00020	c3		 ret	 0
?IsPoly@CActorInstance@@QAE_NXZ ENDP			; CActorInstance::IsPoly
_TEXT	ENDS
; Function compile flags: /Ogtp
; File C:\Users\flourine\Desktop\Xantios\client-src\Code\GameLib\ActorInstance.cpp
;	COMDAT ?IsDoor@CActorInstance@@QAE_NXZ
_TEXT	SEGMENT
?IsDoor@CActorInstance@@QAE_NXZ PROC			; CActorInstance::IsDoor, COMDAT
; _this$ = ecx

; 388  : 	if (TYPE_DOOR == m_eActorType)

  00000	83 b9 40 04 00
	00 04		 cmp	 DWORD PTR [ecx+1088], 4
  00007	0f 94 c0	 sete	 al

; 389  : 	{
; 390  : 		return true;
; 391  : 	}
; 392  : 
; 393  : 	return false;
; 394  : }

  0000a	c3		 ret	 0
?IsDoor@CActorInstance@@QAE_NXZ ENDP			; CActorInstance::IsDoor
_TEXT	ENDS
; Function compile flags: /Ogtp
; File C:\Users\flourine\Desktop\Xantios\client-src\Code\GameLib\ActorInstance.cpp
;	COMDAT ?IsRenderTarget@CActorInstance@@QAE_NXZ
_TEXT	SEGMENT
?IsRenderTarget@CActorInstance@@QAE_NXZ PROC		; CActorInstance::IsRenderTarget, COMDAT
; _this$ = ecx

; 432  : 	if (TYPE_RENDER_TARGET == m_eActorType)

  00000	83 b9 40 04 00
	00 0c		 cmp	 DWORD PTR [ecx+1088], 12 ; 0000000cH
  00007	0f 94 c0	 sete	 al

; 433  : 	{
; 434  : 		return true;
; 435  : 	}
; 436  : 
; 437  : 	return false;
; 438  : }

  0000a	c3		 ret	 0
?IsRenderTarget@CActorInstance@@QAE_NXZ ENDP		; CActorInstance::IsRenderTarget
_TEXT	ENDS
; Function compile flags: /Ogtp
; File C:\Users\flourine\Desktop\Xantios\client-src\Code\GameLib\ActorInstance.cpp
;	COMDAT ?IsMount@CActorInstance@@QAE_NXZ
_TEXT	SEGMENT
?IsMount@CActorInstance@@QAE_NXZ PROC			; CActorInstance::IsMount, COMDAT
; _this$ = ecx

; 420  : 	if (m_eRace >= 20110 && m_eRace <= 20299)

  00000	8b 81 44 04 00
	00		 mov	 eax, DWORD PTR [ecx+1092]
  00006	2d 8e 4e 00 00	 sub	 eax, 20110		; 00004e8eH
  0000b	3d bd 00 00 00	 cmp	 eax, 189		; 000000bdH
  00010	0f 96 c0	 setbe	 al

; 421  : 	{
; 422  : 		return true;
; 423  : 	}
; 424  : 
; 425  : 	return false;
; 426  : }

  00013	c3		 ret	 0
?IsMount@CActorInstance@@QAE_NXZ ENDP			; CActorInstance::IsMount
_TEXT	ENDS
; Function compile flags: /Ogtp
; File C:\Users\flourine\Desktop\Xantios\client-src\Code\GameLib\ActorInstance.cpp
;	COMDAT ?IsPet@CActorInstance@@QAE_NXZ
_TEXT	SEGMENT
?IsPet@CActorInstance@@QAE_NXZ PROC			; CActorInstance::IsPet, COMDAT
; _this$ = ecx

; 409  : 	if (m_eRace >= 34001 && m_eRace <= 34999)

  00000	8b 81 44 04 00
	00		 mov	 eax, DWORD PTR [ecx+1092]
  00006	2d d1 84 00 00	 sub	 eax, 34001		; 000084d1H
  0000b	3d e6 03 00 00	 cmp	 eax, 998		; 000003e6H
  00010	0f 96 c0	 setbe	 al

; 410  : 	{
; 411  : 		return true;
; 412  : 	}
; 413  : 	return false;
; 414  : }

  00013	c3		 ret	 0
?IsPet@CActorInstance@@QAE_NXZ ENDP			; CActorInstance::IsPet
_TEXT	ENDS
; Function compile flags: /Ogtp
; File C:\Users\flourine\Desktop\Xantios\client-src\Code\GameLib\ActorInstance.cpp
;	COMDAT ?IsObject@CActorInstance@@QAE_NXZ
_TEXT	SEGMENT
?IsObject@CActorInstance@@QAE_NXZ PROC			; CActorInstance::IsObject, COMDAT
; _this$ = ecx

; 398  : 	if (TYPE_OBJECT == m_eActorType)

  00000	83 b9 40 04 00
	00 0b		 cmp	 DWORD PTR [ecx+1088], 11 ; 0000000bH
  00007	0f 94 c0	 sete	 al

; 399  : 	{
; 400  : 		return true;
; 401  : 	}
; 402  : 
; 403  : 	return false;
; 404  : }

  0000a	c3		 ret	 0
?IsObject@CActorInstance@@QAE_NXZ ENDP			; CActorInstance::IsObject
_TEXT	ENDS
; Function compile flags: /Ogtp
; File C:\Users\flourine\Desktop\Xantios\client-src\Code\GameLib\ActorInstance.cpp
;	COMDAT ?IsGoto@CActorInstance@@QAE_NXZ
_TEXT	SEGMENT
?IsGoto@CActorInstance@@QAE_NXZ PROC			; CActorInstance::IsGoto, COMDAT
; _this$ = ecx

; 368  : 	if (TYPE_GOTO == m_eActorType)

  00000	83 b9 40 04 00
	00 09		 cmp	 DWORD PTR [ecx+1088], 9
  00007	0f 94 c0	 sete	 al

; 369  : 	{
; 370  : 		return true;
; 371  : 	}
; 372  : 
; 373  : 	return false;
; 374  : }

  0000a	c3		 ret	 0
?IsGoto@CActorInstance@@QAE_NXZ ENDP			; CActorInstance::IsGoto
_TEXT	ENDS
; Function compile flags: /Ogtp
; File C:\Users\flourine\Desktop\Xantios\client-src\Code\GameLib\ActorInstance.cpp
;	COMDAT ?IsWarp@CActorInstance@@QAE_NXZ
_TEXT	SEGMENT
?IsWarp@CActorInstance@@QAE_NXZ PROC			; CActorInstance::IsWarp, COMDAT
; _this$ = ecx

; 358  : 	if (TYPE_WARP == m_eActorType)

  00000	83 b9 40 04 00
	00 03		 cmp	 DWORD PTR [ecx+1088], 3
  00007	0f 94 c0	 sete	 al

; 359  : 	{
; 360  : 		return true;
; 361  : 	}
; 362  : 
; 363  : 	return false;
; 364  : }

  0000a	c3		 ret	 0
?IsWarp@CActorInstance@@QAE_NXZ ENDP			; CActorInstance::IsWarp
_TEXT	ENDS
; Function compile flags: /Ogtp
; File C:\Users\flourine\Desktop\Xantios\client-src\Code\GameLib\ActorInstance.cpp
;	COMDAT ?IsStone@CActorInstance@@QAE_NXZ
_TEXT	SEGMENT
?IsStone@CActorInstance@@QAE_NXZ PROC			; CActorInstance::IsStone, COMDAT
; _this$ = ecx

; 348  : 	if (TYPE_STONE == m_eActorType)

  00000	83 b9 40 04 00
	00 02		 cmp	 DWORD PTR [ecx+1088], 2
  00007	0f 94 c0	 sete	 al

; 349  : 	{
; 350  : 		return true;
; 351  : 	}
; 352  : 
; 353  : 	return false;
; 354  : }

  0000a	c3		 ret	 0
?IsStone@CActorInstance@@QAE_NXZ ENDP			; CActorInstance::IsStone
_TEXT	ENDS
; Function compile flags: /Ogtp
; File C:\Users\flourine\Desktop\Xantios\client-src\Code\GameLib\ActorInstance.cpp
;	COMDAT ?IsEnemy@CActorInstance@@QAE_NXZ
_TEXT	SEGMENT
?IsEnemy@CActorInstance@@QAE_NXZ PROC			; CActorInstance::IsEnemy, COMDAT
; _this$ = ecx

; 338  : 	if (TYPE_ENEMY == m_eActorType)

  00000	83 b9 40 04 00
	00 00		 cmp	 DWORD PTR [ecx+1088], 0
  00007	0f 94 c0	 sete	 al

; 339  : 	{
; 340  : 		return true;
; 341  : 	}
; 342  : 
; 343  : 	return false;
; 344  : }

  0000a	c3		 ret	 0
?IsEnemy@CActorInstance@@QAE_NXZ ENDP			; CActorInstance::IsEnemy
_TEXT	ENDS
; Function compile flags: /Ogtp
; File C:\Users\flourine\Desktop\Xantios\client-src\Code\GameLib\ActorInstance.cpp
;	COMDAT ?IsNPC@CActorInstance@@QAE_NXZ
_TEXT	SEGMENT
?IsNPC@CActorInstance@@QAE_NXZ PROC			; CActorInstance::IsNPC, COMDAT
; _this$ = ecx

; 328  : 	if (TYPE_NPC == m_eActorType)

  00000	83 b9 40 04 00
	00 01		 cmp	 DWORD PTR [ecx+1088], 1
  00007	0f 94 c0	 sete	 al

; 329  : 	{
; 330  : 		return true;
; 331  : 	}
; 332  : 
; 333  : 	return false;
; 334  : }

  0000a	c3		 ret	 0
?IsNPC@CActorInstance@@QAE_NXZ ENDP			; CActorInstance::IsNPC
_TEXT	ENDS
; Function compile flags: /Ogtp
; File C:\Users\flourine\Desktop\Xantios\client-src\Code\GameLib\ActorInstance.cpp
;	COMDAT ?IsPC@CActorInstance@@QAE_NXZ
_TEXT	SEGMENT
?IsPC@CActorInstance@@QAE_NXZ PROC			; CActorInstance::IsPC, COMDAT
; _this$ = ecx

; 318  : 	if (TYPE_PC == m_eActorType)

  00000	83 b9 40 04 00
	00 06		 cmp	 DWORD PTR [ecx+1088], 6
  00007	0f 94 c0	 sete	 al

; 319  : 	{
; 320  : 		return true;
; 321  : 	}
; 322  : 
; 323  : 	return false;
; 324  : }

  0000a	c3		 ret	 0
?IsPC@CActorInstance@@QAE_NXZ ENDP			; CActorInstance::IsPC
_TEXT	ENDS
; Function compile flags: /Ogtp
; File C:\Users\flourine\Desktop\Xantios\client-src\Code\GameLib\ActorInstance.cpp
;	COMDAT ?SetActorType@CActorInstance@@QAEXI@Z
_TEXT	SEGMENT
_eType$ = 8						; size = 4
?SetActorType@CActorInstance@@QAEXI@Z PROC		; CActorInstance::SetActorType, COMDAT
; _this$ = ecx

; 244  : {

  00000	55		 push	 ebp
  00001	8b ec		 mov	 ebp, esp
  00003	56		 push	 esi

; 245  : #ifdef ENABLE_RT_EXTENSION
; 246  : 	if (m_eActorType == TYPE_RENDER_TARGET || eType == TYPE_RENDER_TARGET)

  00004	8b 75 08	 mov	 esi, DWORD PTR _eType$[ebp]
  00007	57		 push	 edi
  00008	8b f9		 mov	 edi, ecx
  0000a	8b 87 40 04 00
	00		 mov	 eax, DWORD PTR [edi+1088]
  00010	83 f8 0c	 cmp	 eax, 12			; 0000000cH
  00013	74 05		 je	 SHORT $LN3@SetActorTy
  00015	83 fe 0c	 cmp	 esi, 12			; 0000000cH
  00018	75 10		 jne	 SHORT $LN6@SetActorTy
$LN3@SetActorTy:

; 247  : 	{
; 248  : 		TraceError("CActorInstance[%p] type %d -> %d", this, m_eActorType, eType);

  0001a	56		 push	 esi
  0001b	50		 push	 eax
  0001c	57		 push	 edi
  0001d	68 00 00 00 00	 push	 OFFSET ??_C@_0CB@FEFEAKBM@CActorInstance?$FL?$CFp?$FN?5type?5?$CFd?5?9?$DO?5?$CF@
  00022	e8 00 00 00 00	 call	 ?TraceError@@YAXPBDZZ	; TraceError
  00027	83 c4 10	 add	 esp, 16			; 00000010H
$LN6@SetActorTy:

; 249  : 	}
; 250  : #endif
; 251  : 
; 252  : 	m_eActorType = eType;
; 253  : }

  0002a	89 b7 40 04 00
	00		 mov	 DWORD PTR [edi+1088], esi
  00030	5f		 pop	 edi
  00031	5e		 pop	 esi
  00032	5d		 pop	 ebp
  00033	c2 04 00	 ret	 4
?SetActorType@CActorInstance@@QAEXI@Z ENDP		; CActorInstance::SetActorType
_TEXT	ENDS
; Function compile flags: /Ogtp
; File C:\Users\flourine\Desktop\Xantios\client-src\Code\GameLib\ActorInstance.cpp
;	COMDAT ?GetActorType@CActorInstance@@QBEIXZ
_TEXT	SEGMENT
?GetActorType@CActorInstance@@QBEIXZ PROC		; CActorInstance::GetActorType, COMDAT
; _this$ = ecx

; 257  : 	return m_eActorType;

  00000	8b 81 40 04 00
	00		 mov	 eax, DWORD PTR [ecx+1088]

; 258  : }

  00006	c3		 ret	 0
?GetActorType@CActorInstance@@QBEIXZ ENDP		; CActorInstance::GetActorType
_TEXT	ENDS
; Function compile flags: /Ogtp
; File C:\Users\flourine\Desktop\Xantios\client-src\Code\GameLib\ActorInstance.cpp
;	COMDAT ?SetComboType@CActorInstance@@QAEXG@Z
_TEXT	SEGMENT
_wComboType$ = 8					; size = 2
?SetComboType@CActorInstance@@QAEXG@Z PROC		; CActorInstance::SetComboType, COMDAT
; _this$ = ecx

; 189  : {

  00000	55		 push	 ebp
  00001	8b ec		 mov	 ebp, esp

; 190  : 	m_wcurComboType = wComboType;

  00003	66 8b 45 08	 mov	 ax, WORD PTR _wComboType$[ebp]
  00007	66 89 81 5c 04
	00 00		 mov	 WORD PTR [ecx+1116], ax

; 191  : }

  0000e	5d		 pop	 ebp
  0000f	c2 04 00	 ret	 4
?SetComboType@CActorInstance@@QAEXG@Z ENDP		; CActorInstance::SetComboType
_TEXT	ENDS
; Function compile flags: /Ogtp
; File C:\Users\flourine\Desktop\Xantios\client-src\Code\GameLib\ActorInstance.cpp
;	COMDAT ?SetMoveSpeed@CActorInstance@@QAEXM@Z
_TEXT	SEGMENT
_fMovSpd$ = 8						; size = 4
?SetMoveSpeed@CActorInstance@@QAEXM@Z PROC		; CActorInstance::SetMoveSpeed, COMDAT
; _this$ = ecx

; 199  : {

  00000	55		 push	 ebp
  00001	8b ec		 mov	 ebp, esp

; 200  : 	if (m_fMovSpd == fMovSpd)

  00003	f3 0f 10 4d 08	 movss	 xmm1, DWORD PTR _fMovSpd$[ebp]
  00008	56		 push	 esi
  00009	8b f1		 mov	 esi, ecx
  0000b	f3 0f 10 86 dc
	04 00 00	 movss	 xmm0, DWORD PTR [esi+1244]
  00013	0f 2e c1	 ucomiss xmm0, xmm1
  00016	9f		 lahf
  00017	f6 c4 44	 test	 ah, 68			; 00000044H
  0001a	7b 27		 jnp	 SHORT $LN3@SetMoveSpe

; 201  : 	{
; 202  : 		return;
; 203  : 	}
; 204  : 
; 205  : 	m_fMovSpd = fMovSpd;

  0001c	f3 0f 11 8e dc
	04 00 00	 movss	 DWORD PTR [esi+1244], xmm1

; 206  : 
; 207  : 	if (__IsMoveMotion())

  00024	e8 00 00 00 00	 call	 ?__IsMoveMotion@CActorInstance@@IAE_NXZ ; CActorInstance::__IsMoveMotion
  00029	84 c0		 test	 al, al
  0002b	74 16		 je	 SHORT $LN3@SetMoveSpe

; 208  : 	{
; 209  : 		Stop();

  0002d	51		 push	 ecx
  0002e	8b ce		 mov	 ecx, esi
  00030	c7 04 24 9a 99
	19 3e		 mov	 DWORD PTR [esp], 1041865114 ; 3e19999aH
  00037	e8 00 00 00 00	 call	 ?Stop@CActorInstance@@QAEXM@Z ; CActorInstance::Stop

; 210  : 		Move();

  0003c	8b ce		 mov	 ecx, esi
  0003e	e8 00 00 00 00	 call	 ?Move@CActorInstance@@QAEXXZ ; CActorInstance::Move
$LN3@SetMoveSpe:
  00043	5e		 pop	 esi

; 211  : 	}
; 212  : }

  00044	5d		 pop	 ebp
  00045	c2 04 00	 ret	 4
?SetMoveSpeed@CActorInstance@@QAEXM@Z ENDP		; CActorInstance::SetMoveSpeed
_TEXT	ENDS
; Function compile flags: /Ogtp
; File C:\Users\flourine\Desktop\Xantios\client-src\Code\GameLib\ActorInstance.cpp
;	COMDAT ?SetAttackSpeed@CActorInstance@@QAEXM@Z
_TEXT	SEGMENT
_fAtkSpd$ = 8						; size = 4
?SetAttackSpeed@CActorInstance@@QAEXM@Z PROC		; CActorInstance::SetAttackSpeed, COMDAT
; _this$ = ecx

; 194  : {

  00000	55		 push	 ebp
  00001	8b ec		 mov	 ebp, esp

; 195  : 	m_fAtkSpd = fAtkSpd;

  00003	f3 0f 10 45 08	 movss	 xmm0, DWORD PTR _fAtkSpd$[ebp]
  00008	f3 0f 11 81 e0
	04 00 00	 movss	 DWORD PTR [ecx+1248], xmm0

; 196  : }

  00010	5d		 pop	 ebp
  00011	c2 04 00	 ret	 4
?SetAttackSpeed@CActorInstance@@QAEXM@Z ENDP		; CActorInstance::SetAttackSpeed
_TEXT	ENDS
; Function compile flags: /Ogtp
; File C:\Users\flourine\Desktop\Xantios\client-src\Code\GameLib\ActorInstance.cpp
;	COMDAT ?SetResistFallen@CActorInstance@@QAEX_N@Z
_TEXT	SEGMENT
_isResistFallen$ = 8					; size = 1
?SetResistFallen@CActorInstance@@QAEX_N@Z PROC		; CActorInstance::SetResistFallen, COMDAT
; _this$ = ecx

; 151  : {

  00000	55		 push	 ebp
  00001	8b ec		 mov	 ebp, esp

; 152  : 	m_isResistFallen = isResistFallen;

  00003	0f b6 45 08	 movzx	 eax, BYTE PTR _isResistFallen$[ebp]
  00007	89 81 74 04 00
	00		 mov	 DWORD PTR [ecx+1140], eax

; 153  : }

  0000d	5d		 pop	 ebp
  0000e	c2 04 00	 ret	 4
?SetResistFallen@CActorInstance@@QAEX_N@Z ENDP		; CActorInstance::SetResistFallen
_TEXT	ENDS
; Function compile flags: /Ogtp
; File C:\Users\flourine\Desktop\Xantios\client-src\Code\GameLib\ActorInstance.cpp
;	COMDAT ?SetSleep@CActorInstance@@QAEX_N@Z
_TEXT	SEGMENT
_isSleep$ = 8						; size = 1
?SetSleep@CActorInstance@@QAEX_N@Z PROC			; CActorInstance::SetSleep, COMDAT
; _this$ = ecx

; 144  : {

  00000	55		 push	 ebp
  00001	8b ec		 mov	 ebp, esp

; 145  : 	m_isSleep = isSleep;

  00003	0f b6 45 08	 movzx	 eax, BYTE PTR _isSleep$[ebp]

; 146  : 
; 147  : 	Stop();

  00007	51		 push	 ecx
  00008	89 81 78 04 00
	00		 mov	 DWORD PTR [ecx+1144], eax
  0000e	c7 04 24 9a 99
	19 3e		 mov	 DWORD PTR [esp], 1041865114 ; 3e19999aH
  00015	e8 00 00 00 00	 call	 ?Stop@CActorInstance@@QAEXM@Z ; CActorInstance::Stop

; 148  : }

  0001a	5d		 pop	 ebp
  0001b	c2 04 00	 ret	 4
?SetSleep@CActorInstance@@QAEX_N@Z ENDP			; CActorInstance::SetSleep
_TEXT	ENDS
; Function compile flags: /Ogtp
; File C:\Users\flourine\Desktop\Xantios\client-src\Code\GameLib\ActorInstance.cpp
;	COMDAT ?SetFaint@CActorInstance@@QAEX_N@Z
_TEXT	SEGMENT
_isFaint$ = 8						; size = 1
?SetFaint@CActorInstance@@QAEX_N@Z PROC			; CActorInstance::SetFaint, COMDAT
; _this$ = ecx

; 139  : {

  00000	55		 push	 ebp
  00001	8b ec		 mov	 ebp, esp

; 140  : 	m_isFaint = isFaint;

  00003	0f b6 45 08	 movzx	 eax, BYTE PTR _isFaint$[ebp]
  00007	89 81 7c 04 00
	00		 mov	 DWORD PTR [ecx+1148], eax

; 141  : }

  0000d	5d		 pop	 ebp
  0000e	c2 04 00	 ret	 4
?SetFaint@CActorInstance@@QAEX_N@Z ENDP			; CActorInstance::SetFaint
_TEXT	ENDS
; Function compile flags: /Ogtp
; File C:\Users\flourine\Desktop\Xantios\client-src\Code\GameLib\ActorInstance.cpp
;	COMDAT ?SetParalysis@CActorInstance@@QAEX_N@Z
_TEXT	SEGMENT
_isParalysis$ = 8					; size = 1
?SetParalysis@CActorInstance@@QAEX_N@Z PROC		; CActorInstance::SetParalysis, COMDAT
; _this$ = ecx

; 134  : {

  00000	55		 push	 ebp
  00001	8b ec		 mov	 ebp, esp

; 135  : 	m_isParalysis = isParalysis;

  00003	0f b6 45 08	 movzx	 eax, BYTE PTR _isParalysis$[ebp]
  00007	89 81 80 04 00
	00		 mov	 DWORD PTR [ecx+1152], eax

; 136  : }

  0000d	5d		 pop	 ebp
  0000e	c2 04 00	 ret	 4
?SetParalysis@CActorInstance@@QAEX_N@Z ENDP		; CActorInstance::SetParalysis
_TEXT	ENDS
; Function compile flags: /Ogtp
; File C:\Users\flourine\Desktop\Xantios\client-src\Code\GameLib\ActorInstance.cpp
;	COMDAT ?SetMainInstance@CActorInstance@@QAEXXZ
_TEXT	SEGMENT
?SetMainInstance@CActorInstance@@QAEXXZ PROC		; CActorInstance::SetMainInstance, COMDAT
; _this$ = ecx

; 130  : 	m_isMain = true;

  00000	c7 81 90 04 00
	00 01 00 00 00	 mov	 DWORD PTR [ecx+1168], 1

; 131  : }

  0000a	c3		 ret	 0
?SetMainInstance@CActorInstance@@QAEXXZ ENDP		; CActorInstance::SetMainInstance
_TEXT	ENDS
; Function compile flags: /Ogtp
; File C:\Users\flourine\Desktop\Xantios\client-src\Code\GameLib\ActorInstance.cpp
;	COMDAT ?Stop@CActorInstance@@QAEXM@Z
_TEXT	SEGMENT
_fBlendingTime$ = 8					; size = 4
?Stop@CActorInstance@@QAEXM@Z PROC			; CActorInstance::Stop, COMDAT
; _this$ = ecx

; 232  : {

  00000	55		 push	 ebp
  00001	8b ec		 mov	 ebp, esp
  00003	56		 push	 esi
  00004	8b f1		 mov	 esi, ecx

; 233  : 	__ClearMotion();

  00006	e8 00 00 00 00	 call	 ?__ClearMotion@CActorInstance@@IAEXXZ ; CActorInstance::__ClearMotion

; 234  : 	SetLoopMotion(CRaceMotionData::NAME_WAIT, fBlendingTime);

  0000b	f3 0f 10 45 08	 movss	 xmm0, DWORD PTR _fBlendingTime$[ebp]
  00010	83 ec 08	 sub	 esp, 8
  00013	8b ce		 mov	 ecx, esi
  00015	c7 44 24 04 00
	00 80 3f	 mov	 DWORD PTR [esp+4], 1065353216 ; 3f800000H
  0001d	f3 0f 11 04 24	 movss	 DWORD PTR [esp], xmm0
  00022	6a 01		 push	 1
  00024	e8 00 00 00 00	 call	 ?SetLoopMotion@CActorInstance@@QAEXKMM@Z ; CActorInstance::SetLoopMotion
  00029	5e		 pop	 esi

; 235  : }

  0002a	5d		 pop	 ebp
  0002b	c2 04 00	 ret	 4
?Stop@CActorInstance@@QAEXM@Z ENDP			; CActorInstance::Stop
_TEXT	ENDS
; Function compile flags: /Ogtp
; File C:\Users\flourine\Desktop\Xantios\client-src\Code\GameLib\ActorInstance.cpp
;	COMDAT ?Move@CActorInstance@@QAEXXZ
_TEXT	SEGMENT
?Move@CActorInstance@@QAEXXZ PROC			; CActorInstance::Move, COMDAT
; _this$ = ecx

; 221  : 	if (m_isWalking)

  00000	8b 81 8c 04 00
	00		 mov	 eax, DWORD PTR [ecx+1164]

; 222  : 	{
; 223  : 		SetLoopMotion(CRaceMotionData::NAME_WALK, 0.15f, m_fMovSpd);
; 224  : 	}
; 225  : 	else
; 226  : 	{
; 227  : 		SetLoopMotion(CRaceMotionData::NAME_RUN, 0.15f, m_fMovSpd);
; 228  : 	}
; 229  : }

  00006	83 ec 08	 sub	 esp, 8
  00009	f3 0f 10 81 dc
	04 00 00	 movss	 xmm0, DWORD PTR [ecx+1244]
  00011	f7 d8		 neg	 eax
  00013	1b c0		 sbb	 eax, eax
  00015	f3 0f 11 44 24
	04		 movss	 DWORD PTR [esp+4], xmm0
  0001b	83 c0 03	 add	 eax, 3
  0001e	c7 04 24 9a 99
	19 3e		 mov	 DWORD PTR [esp], 1041865114 ; 3e19999aH
  00025	50		 push	 eax
  00026	e8 00 00 00 00	 call	 ?SetLoopMotion@CActorInstance@@QAEXKMM@Z ; CActorInstance::SetLoopMotion
  0002b	c3		 ret	 0
?Move@CActorInstance@@QAEXXZ ENDP			; CActorInstance::Move
_TEXT	ENDS
; Function compile flags: /Ogtp
; File C:\Users\flourine\Desktop\Xantios\client-src\Code\GameLib\ActorInstance.cpp
; File C:\Program Files\Microsoft Visual Studio\2022\Community\VC\Tools\MSVC\14.34.31933\include\xtree
; File C:\Users\flourine\Desktop\Xantios\client-src\Code\GameLib\ActorInstance.cpp
; File C:\Program Files\Microsoft Visual Studio\2022\Community\VC\Tools\MSVC\14.34.31933\include\xtree
; File C:\Users\flourine\Desktop\Xantios\client-src\Code\GameLib\ActorInstance.cpp
; File C:\Program Files\Microsoft Visual Studio\2022\Community\VC\Tools\MSVC\14.34.31933\include\xtree
; File C:\Program Files\Microsoft Visual Studio\2022\Community\VC\Tools\MSVC\14.34.31933\include\deque
; File C:\Users\flourine\Desktop\Xantios\client-src\Code\GameLib\ActorInstance.cpp
;	COMDAT ?Destroy@CActorInstance@@QAEXXZ
_TEXT	SEGMENT
?Destroy@CActorInstance@@QAEXXZ PROC			; CActorInstance::Destroy, COMDAT
; _this$ = ecx

; 965  : {

  00000	53		 push	 ebx
  00001	8b d9		 mov	 ebx, ecx
  00003	56		 push	 esi
  00004	57		 push	 edi

; 966  : 	ClearFlyTargeter();

  00005	8d 8b ec 02 00
	00		 lea	 ecx, DWORD PTR [ebx+748]
  0000b	e8 00 00 00 00	 call	 ?ClearFlyTargeter@IFlyTargetableObject@@IAEXXZ ; IFlyTargetableObject::ClearFlyTargeter
; File C:\Program Files\Microsoft Visual Studio\2022\Community\VC\Tools\MSVC\14.34.31933\include\xtree

; 1356 :         auto _Head = _Scary->_Myhead;

  00010	8b b3 8c 05 00
	00		 mov	 esi, DWORD PTR [ebx+1420]
; File C:\Users\flourine\Desktop\Xantios\client-src\Code\GameLib\ActorInstance.cpp

; 968  : 	m_HitDataMap.clear();

  00016	8d bb 8c 05 00
	00		 lea	 edi, DWORD PTR [ebx+1420]
; File C:\Program Files\Microsoft Visual Studio\2022\Community\VC\Tools\MSVC\14.34.31933\include\xtree

; 1357 :         _Scary->_Erase_tree(_Getal(), _Head->_Parent);

  0001c	8b cf		 mov	 ecx, edi
  0001e	ff 76 04	 push	 DWORD PTR [esi+4]
  00021	57		 push	 edi
  00022	e8 00 00 00 00	 call	 ??$_Erase_tree@V?$allocator@U?$_Tree_node@U?$pair@QBUSHitData@NRaceData@@V?$map@PAVCActorInstance@@MU?$less@PAVCActorInstance@@@std@@V?$allocator@U?$pair@QAVCActorInstance@@M@std@@@3@@std@@@std@@PAX@std@@@std@@@?$_Tree_val@U?$_Tree_simple_types@U?$pair@QBUSHitData@NRaceData@@V?$map@PAVCActorInstance@@MU?$less@PAVCActorInstance@@@std@@V?$allocator@U?$pair@QAVCActorInstance@@M@std@@@3@@std@@@std@@@std@@@std@@QAEXAAV?$allocator@U?$_Tree_node@U?$pair@QBUSHitData@NRaceData@@V?$map@PAVCActorInstance@@MU?$less@PAVCActorInstance@@@std@@V?$allocator@U?$pair@QAVCActorInstance@@M@std@@@3@@std@@@std@@PAX@std@@@1@PAU?$_Tree_node@U?$pair@QBUSHitData@NRaceData@@V?$map@PAVCActorInstance@@MU?$less@PAVCActorInstance@@@std@@V?$allocator@U?$pair@QAVCActorInstance@@M@std@@@3@@std@@@std@@PAX@1@@Z ; std::_Tree_val<std::_Tree_simple_types<std::pair<NRaceData::SHitData const * const,std::map<CActorInstance *,float,std::less<CActorInstance *>,std::allocator<std::pair<CActorInstance * const,float> > > > > >::_Erase_tree<std::allocator<std::_Tree_node<std::pair<NRaceData::SHitData const * const,std::map<CActorInstance *,float,std::less<CActorInstance *>,std::allocator<std::pair<CActorInstance * const,float> > > >,void *> > >

; 1358 :         _Head->_Parent  = _Head;

  00027	89 76 04	 mov	 DWORD PTR [esi+4], esi
; File C:\Users\flourine\Desktop\Xantios\client-src\Code\GameLib\ActorInstance.cpp

; 969  : 	m_MotionDeque.clear();

  0002a	8d 8b 40 03 00
	00		 lea	 ecx, DWORD PTR [ebx+832]
; File C:\Program Files\Microsoft Visual Studio\2022\Community\VC\Tools\MSVC\14.34.31933\include\xtree

; 1359 :         _Head->_Left    = _Head;

  00030	89 36		 mov	 DWORD PTR [esi], esi

; 1360 :         _Head->_Right   = _Head;

  00032	89 76 08	 mov	 DWORD PTR [esi+8], esi

; 1361 :         _Scary->_Mysize = 0;

  00035	c7 47 04 00 00
	00 00		 mov	 DWORD PTR [edi+4], 0
; File C:\Program Files\Microsoft Visual Studio\2022\Community\VC\Tools\MSVC\14.34.31933\include\deque

; 1454 :         _Tidy();

  0003c	e8 00 00 00 00	 call	 ?_Tidy@?$deque@USReservingMotionNode@CActorInstance@@V?$allocator@USReservingMotionNode@CActorInstance@@@std@@@std@@AAEXXZ ; std::deque<CActorInstance::SReservingMotionNode,std::allocator<CActorInstance::SReservingMotionNode> >::_Tidy
; File C:\Users\flourine\Desktop\Xantios\client-src\Code\GameLib\ActorInstance.cpp

; 971  : 	if (m_pAttributeInstance)

  00041	8b 8b b4 03 00
	00		 mov	 ecx, DWORD PTR [ebx+948]
  00047	85 c9		 test	 ecx, ecx
  00049	74 1d		 je	 SHORT $LN2@Destroy

; 972  : 	{
; 973  : 		m_pAttributeInstance->Clear();

  0004b	e8 00 00 00 00	 call	 ?Clear@CAttributeInstance@@QAEXXZ ; CAttributeInstance::Clear

; 974  : 		CAttributeInstance::Delete(m_pAttributeInstance);

  00050	ff b3 b4 03 00
	00		 push	 DWORD PTR [ebx+948]
  00056	e8 00 00 00 00	 call	 ?Delete@CAttributeInstance@@SAXPAV1@@Z ; CAttributeInstance::Delete
  0005b	83 c4 04	 add	 esp, 4

; 975  : 		m_pAttributeInstance = NULL;

  0005e	c7 83 b4 03 00
	00 00 00 00 00	 mov	 DWORD PTR [ebx+948], 0
$LN2@Destroy:

; 976  : 	}
; 977  : 
; 978  : 	__ClearAttachingEffect();

  00068	8b cb		 mov	 ecx, ebx
  0006a	e8 00 00 00 00	 call	 ?__ClearAttachingEffect@CActorInstance@@IAEXXZ ; CActorInstance::__ClearAttachingEffect

; 979  : 
; 980  : 	CGraphicThingInstance::Clear();

  0006f	8b cb		 mov	 ecx, ebx
  00071	e8 00 00 00 00	 call	 ?Clear@CGraphicObjectInstance@@QAEXXZ ; CGraphicObjectInstance::Clear

; 981  : 
; 982  : 	__DestroyWeaponTrace();

  00076	8b cb		 mov	 ecx, ebx
  00078	e8 00 00 00 00	 call	 ?__DestroyWeaponTrace@CActorInstance@@IAEXXZ ; CActorInstance::__DestroyWeaponTrace

; 983  : 	__DestroyTree();

  0007d	8b cb		 mov	 ecx, ebx
  0007f	e8 00 00 00 00	 call	 ?__DestroyTree@CActorInstance@@QAEXXZ ; CActorInstance::__DestroyTree

; 984  : 	//m_PhysicsObject.SetActorInstance(NULL);
; 985  : 
; 986  : 
; 987  : 	__Initialize();

  00084	5f		 pop	 edi
  00085	5e		 pop	 esi
  00086	8b cb		 mov	 ecx, ebx
  00088	5b		 pop	 ebx
  00089	e9 00 00 00 00	 jmp	 ?__Initialize@CActorInstance@@IAEXXZ ; CActorInstance::__Initialize
?Destroy@CActorInstance@@QAEXXZ ENDP			; CActorInstance::Destroy
_TEXT	ENDS
; Function compile flags: /Ogtp
; File C:\Users\flourine\Desktop\Xantios\client-src\Code\GameLib\ActorInstance.cpp
;	COMDAT ?INSTANCEBASE_Deform@CActorInstance@@QAEXXZ
_TEXT	SEGMENT
?INSTANCEBASE_Deform@CActorInstance@@QAEXXZ PROC	; CActorInstance::INSTANCEBASE_Deform, COMDAT
; _this$ = ecx

; 19   : {

  00000	56		 push	 esi
  00001	8b f1		 mov	 esi, ecx

; 20   : 	Deform();

  00003	e8 00 00 00 00	 call	 ?Deform@CGraphicObjectInstance@@QAEXXZ ; CGraphicObjectInstance::Deform

; 21   : 	TraceProcess();

  00008	8b ce		 mov	 ecx, esi
  0000a	5e		 pop	 esi
  0000b	e9 00 00 00 00	 jmp	 ?TraceProcess@CActorInstance@@QAEXXZ ; CActorInstance::TraceProcess
?INSTANCEBASE_Deform@CActorInstance@@QAEXXZ ENDP	; CActorInstance::INSTANCEBASE_Deform
_TEXT	ENDS
; Function compile flags: /Ogtp
; File C:\Users\flourine\Desktop\Xantios\client-src\Code\GameLib\ActorInstance.cpp
;	COMDAT ?INSTANCEBASE_Transform@CActorInstance@@QAEXXZ
_TEXT	SEGMENT
?INSTANCEBASE_Transform@CActorInstance@@QAEXXZ PROC	; CActorInstance::INSTANCEBASE_Transform, COMDAT
; _this$ = ecx

; 25   : {

  00000	56		 push	 esi
  00001	8b f1		 mov	 esi, ecx

; 26   : 	if (m_pkHorse)

  00003	8b 8e 94 05 00
	00		 mov	 ecx, DWORD PTR [esi+1428]
  00009	85 c9		 test	 ecx, ecx
  0000b	74 55		 je	 SHORT $LN2@INSTANCEBA

; 27   : 	{
; 28   : 		m_pkHorse->INSTANCEBASE_Transform();

  0000d	e8 00 00 00 00	 call	 ?INSTANCEBASE_Transform@CActorInstance@@QAEXXZ ; CActorInstance::INSTANCEBASE_Transform

; 29   : 
; 30   : 		m_x = m_pkHorse->NEW_GetCurPixelPositionRef().x;

  00012	8b 8e 94 05 00
	00		 mov	 ecx, DWORD PTR [esi+1428]
  00018	e8 00 00 00 00	 call	 ?NEW_GetCurPixelPositionRef@CActorInstance@@QAEABUD3DXVECTOR3@@XZ ; CActorInstance::NEW_GetCurPixelPositionRef

; 31   : 		m_y = -m_pkHorse->NEW_GetCurPixelPositionRef().y;

  0001d	8b 8e 94 05 00
	00		 mov	 ecx, DWORD PTR [esi+1428]
  00023	8b 00		 mov	 eax, DWORD PTR [eax]
  00025	89 86 ac 04 00
	00		 mov	 DWORD PTR [esi+1196], eax
  0002b	e8 00 00 00 00	 call	 ?NEW_GetCurPixelPositionRef@CActorInstance@@QAEABUD3DXVECTOR3@@XZ ; CActorInstance::NEW_GetCurPixelPositionRef

; 32   : 		m_z = m_pkHorse->NEW_GetCurPixelPositionRef().z;

  00030	8b 8e 94 05 00
	00		 mov	 ecx, DWORD PTR [esi+1428]
  00036	f3 0f 10 40 04	 movss	 xmm0, DWORD PTR [eax+4]
  0003b	0f 57 05 00 00
	00 00		 xorps	 xmm0, DWORD PTR __xmm@80000000800000008000000080000000
  00042	f3 0f 11 86 b0
	04 00 00	 movss	 DWORD PTR [esi+1200], xmm0
  0004a	e8 00 00 00 00	 call	 ?NEW_GetCurPixelPositionRef@CActorInstance@@QAEABUD3DXVECTOR3@@XZ ; CActorInstance::NEW_GetCurPixelPositionRef
  0004f	8b 40 08	 mov	 eax, DWORD PTR [eax+8]
  00052	89 86 b4 04 00
	00		 mov	 DWORD PTR [esi+1204], eax

; 33   : 		m_bNeedUpdateCollision = TRUE;

  00058	c7 86 d0 04 00
	00 01 00 00 00	 mov	 DWORD PTR [esi+1232], 1
$LN2@INSTANCEBA:

; 34   : 	}
; 35   : 
; 36   : 	//DWORD t2=ELTimer_GetMSec();
; 37   : 	Update();

  00062	8b ce		 mov	 ecx, esi
  00064	e8 00 00 00 00	 call	 ?Update@CGraphicObjectInstance@@QAEXXZ ; CGraphicObjectInstance::Update

; 38   : 	//DWORD t3=ELTimer_GetMSec();
; 39   : 	TransformProcess();

  00069	8b ce		 mov	 ecx, esi
  0006b	e8 00 00 00 00	 call	 ?TransformProcess@CActorInstance@@QAEXXZ ; CActorInstance::TransformProcess

; 40   : 	//DWORD t4=ELTimer_GetMSec();
; 41   : 	Transform();

  00070	8b ce		 mov	 ecx, esi
  00072	e8 00 00 00 00	 call	 ?Transform@CGraphicObjectInstance@@QAEXXZ ; CGraphicObjectInstance::Transform

; 42   : 	//DWORD t5=ELTimer_GetMSec();
; 43   : 	UpdatePointInstance();

  00077	8b ce		 mov	 ecx, esi
  00079	e8 00 00 00 00	 call	 ?UpdatePointInstance@CActorInstance@@QAEXXZ ; CActorInstance::UpdatePointInstance

; 44   : 	//DWORD t6=ELTimer_GetMSec();
; 45   : 	ShakeProcess();

  0007e	8b ce		 mov	 ecx, esi
  00080	e8 00 00 00 00	 call	 ?ShakeProcess@CActorInstance@@QAEXXZ ; CActorInstance::ShakeProcess

; 46   : 	//DWORD t7=ELTimer_GetMSec();
; 47   : 	UpdateBoundingSphere();

  00085	8b ce		 mov	 ecx, esi
  00087	e8 00 00 00 00	 call	 ?UpdateBoundingSphere@CGraphicObjectInstance@@QAEXXZ ; CGraphicObjectInstance::UpdateBoundingSphere

; 48   : 	//DWORD t8=ELTimer_GetMSec();
; 49   : 	UpdateAttribute();

  0008c	8b ce		 mov	 ecx, esi
  0008e	5e		 pop	 esi
  0008f	e9 00 00 00 00	 jmp	 ?UpdateAttribute@CActorInstance@@QAEXXZ ; CActorInstance::UpdateAttribute
?INSTANCEBASE_Transform@CActorInstance@@QAEXXZ ENDP	; CActorInstance::INSTANCEBASE_Transform
_TEXT	ENDS
; Function compile flags: /Ogtp
; File C:\Users\flourine\Desktop\Xantios\client-src\Code\GameLib\ActorInstance.cpp
; File C:\Program Files\Microsoft Visual Studio\2022\Community\VC\Tools\MSVC\14.34.31933\include\xtree
; File C:\Users\flourine\Desktop\Xantios\client-src\Code\GameLib\ActorInstance.cpp
; File C:\Program Files\Microsoft Visual Studio\2022\Community\VC\Tools\MSVC\14.34.31933\include\xtree
; File C:\Program Files\Microsoft Visual Studio\2022\Community\VC\Tools\MSVC\14.34.31933\include\xmemory
; File C:\Program Files\Microsoft Visual Studio\2022\Community\VC\Tools\MSVC\14.34.31933\include\list
; File C:\Program Files\Microsoft Visual Studio\2022\Community\VC\Tools\MSVC\14.34.31933\include\xmemory
; File C:\Program Files\Microsoft Visual Studio\2022\Community\VC\Tools\MSVC\14.34.31933\include\list
; File C:\Program Files\Microsoft Visual Studio\2022\Community\VC\Tools\MSVC\14.34.31933\include\xmemory
; File C:\Program Files\Microsoft Visual Studio\2022\Community\VC\Tools\MSVC\14.34.31933\include\list
; File C:\Program Files\Microsoft Visual Studio\2022\Community\VC\Tools\MSVC\14.34.31933\include\xmemory
; File C:\Users\flourine\Desktop\Xantios\client-src\Code\GameLib\ActorInstance.cpp
; File C:\Program Files\Microsoft Visual Studio\2022\Community\VC\Tools\MSVC\14.34.31933\include\vector
; File C:\Program Files\Microsoft Visual Studio\2022\Community\VC\Tools\MSVC\14.34.31933\include\xmemory
; File C:\Program Files\Microsoft Visual Studio\2022\Community\VC\Tools\MSVC\14.34.31933\include\vector
; File C:\Program Files\Microsoft Visual Studio\2022\Community\VC\Tools\MSVC\14.34.31933\include\xmemory
; File C:\Program Files\Microsoft Visual Studio\2022\Community\VC\Tools\MSVC\14.34.31933\include\vector
; File C:\Users\flourine\Desktop\Xantios\client-src\Code\GameLib\ActorInstance.cpp
; File C:\Program Files\Microsoft Visual Studio\2022\Community\VC\Tools\MSVC\14.34.31933\include\deque
; File C:\Program Files\Microsoft Visual Studio\2022\Community\VC\Tools\MSVC\14.34.31933\include\utility
; File C:\Program Files\Microsoft Visual Studio\2022\Community\VC\Tools\MSVC\14.34.31933\include\xmemory
; File C:\Program Files\Microsoft Visual Studio\2022\Community\VC\Tools\MSVC\14.34.31933\include\utility
; File C:\Program Files\Microsoft Visual Studio\2022\Community\VC\Tools\MSVC\14.34.31933\include\xmemory
; File C:\Users\flourine\Desktop\Xantios\client-src\Code\GameLib\ActorInstance.cpp
; File C:\Users\flourine\Desktop\Xantios\client-src\Code\GameLib\FlyTarget.h
; File C:\Users\flourine\Desktop\Xantios\client-src\Code\GameLib\ActorInstanceInterface.h
; File C:\Users\flourine\Desktop\Xantios\client-src\Code\GameLib\ActorInstance.cpp
; File C:\Program Files\Microsoft Visual Studio\2022\Community\VC\Tools\MSVC\14.34.31933\include\xmemory
; File C:\Users\flourine\Desktop\Xantios\client-src\Code\GameLib\ActorInstance.cpp
;	COMDAT ??1CActorInstance@@UAE@XZ
_TEXT	SEGMENT
__$EHRec$ = -12						; size = 12
??1CActorInstance@@UAE@XZ PROC				; CActorInstance::~CActorInstance, COMDAT
; _this$ = ecx

; 1113 : {

  00000	55		 push	 ebp
  00001	8b ec		 mov	 ebp, esp
  00003	6a ff		 push	 -1
  00005	68 00 00 00 00	 push	 __ehhandler$??1CActorInstance@@UAE@XZ
  0000a	64 a1 00 00 00
	00		 mov	 eax, DWORD PTR fs:0
  00010	50		 push	 eax
  00011	56		 push	 esi
  00012	57		 push	 edi
  00013	a1 00 00 00 00	 mov	 eax, DWORD PTR ___security_cookie
  00018	33 c5		 xor	 eax, ebp
  0001a	50		 push	 eax
  0001b	8d 45 f4	 lea	 eax, DWORD PTR __$EHRec$[ebp]
  0001e	64 a3 00 00 00
	00		 mov	 DWORD PTR fs:0, eax
  00024	8b f9		 mov	 edi, ecx
  00026	c7 07 00 00 00
	00		 mov	 DWORD PTR [edi], OFFSET ??_7CActorInstance@@6BIActorInstance@@@
  0002c	c7 87 ec 02 00
	00 00 00 00 00	 mov	 DWORD PTR [edi+748], OFFSET ??_7CActorInstance@@6BIFlyTargetableObject@@@

; 1114 : 	Destroy();

  00036	e8 00 00 00 00	 call	 ?Destroy@CActorInstance@@QAEXXZ ; CActorInstance::Destroy
; File C:\Program Files\Microsoft Visual Studio\2022\Community\VC\Tools\MSVC\14.34.31933\include\xtree

; 754  :         _Erase_tree(_Al, _Myhead->_Parent);

  0003b	8b 87 8c 05 00
	00		 mov	 eax, DWORD PTR [edi+1420]
; File C:\Users\flourine\Desktop\Xantios\client-src\Code\GameLib\ActorInstance.cpp

; 1115 : }

  00041	8d b7 8c 05 00
	00		 lea	 esi, DWORD PTR [edi+1420]
; File C:\Program Files\Microsoft Visual Studio\2022\Community\VC\Tools\MSVC\14.34.31933\include\xtree

; 754  :         _Erase_tree(_Al, _Myhead->_Parent);

  00047	8b ce		 mov	 ecx, esi
  00049	ff 70 04	 push	 DWORD PTR [eax+4]
  0004c	56		 push	 esi
  0004d	e8 00 00 00 00	 call	 ??$_Erase_tree@V?$allocator@U?$_Tree_node@U?$pair@QBUSHitData@NRaceData@@V?$map@PAVCActorInstance@@MU?$less@PAVCActorInstance@@@std@@V?$allocator@U?$pair@QAVCActorInstance@@M@std@@@3@@std@@@std@@PAX@std@@@std@@@?$_Tree_val@U?$_Tree_simple_types@U?$pair@QBUSHitData@NRaceData@@V?$map@PAVCActorInstance@@MU?$less@PAVCActorInstance@@@std@@V?$allocator@U?$pair@QAVCActorInstance@@M@std@@@3@@std@@@std@@@std@@@std@@QAEXAAV?$allocator@U?$_Tree_node@U?$pair@QBUSHitData@NRaceData@@V?$map@PAVCActorInstance@@MU?$less@PAVCActorInstance@@@std@@V?$allocator@U?$pair@QAVCActorInstance@@M@std@@@3@@std@@@std@@PAX@std@@@1@PAU?$_Tree_node@U?$pair@QBUSHitData@NRaceData@@V?$map@PAVCActorInstance@@MU?$less@PAVCActorInstance@@@std@@V?$allocator@U?$pair@QAVCActorInstance@@M@std@@@3@@std@@@std@@PAX@1@@Z ; std::_Tree_val<std::_Tree_simple_types<std::pair<NRaceData::SHitData const * const,std::map<CActorInstance *,float,std::less<CActorInstance *>,std::allocator<std::pair<CActorInstance * const,float> > > > > >::_Erase_tree<std::allocator<std::_Tree_node<std::pair<NRaceData::SHitData const * const,std::map<CActorInstance *,float,std::less<CActorInstance *>,std::allocator<std::pair<CActorInstance * const,float> > > >,void *> > >
; File C:\Program Files\Microsoft Visual Studio\2022\Community\VC\Tools\MSVC\14.34.31933\include\xmemory

; 255  :         ::operator delete(_Ptr, _Bytes);

  00052	6a 1c		 push	 28			; 0000001cH
  00054	ff 36		 push	 DWORD PTR [esi]
  00056	e8 00 00 00 00	 call	 ??3@YAXPAXI@Z		; operator delete
; File C:\Program Files\Microsoft Visual Studio\2022\Community\VC\Tools\MSVC\14.34.31933\include\list

; 1498 :         _Node::_Free_non_head(_Al, _My_data._Myhead);

  0005b	8b 8f 3c 05 00
	00		 mov	 ecx, DWORD PTR [edi+1340]
; File C:\Program Files\Microsoft Visual Studio\2022\Community\VC\Tools\MSVC\14.34.31933\include\xmemory

; 255  :         ::operator delete(_Ptr, _Bytes);

  00061	83 c4 08	 add	 esp, 8
; File C:\Program Files\Microsoft Visual Studio\2022\Community\VC\Tools\MSVC\14.34.31933\include\list

; 325  :         _Head->_Prev->_Next = nullptr;

  00064	8b 41 04	 mov	 eax, DWORD PTR [ecx+4]
  00067	c7 00 00 00 00
	00		 mov	 DWORD PTR [eax], 0

; 326  : 
; 327  :         auto _Pnode = _Head->_Next;

  0006d	8b 01		 mov	 eax, DWORD PTR [ecx]

; 328  :         for (_Nodeptr _Pnext; _Pnode; _Pnode = _Pnext) {

  0006f	85 c0		 test	 eax, eax
  00071	74 13		 je	 SHORT $LN40@CActorInst
$LL41@CActorInst:

; 329  :             _Pnext = _Pnode->_Next;

  00073	8b 30		 mov	 esi, DWORD PTR [eax]
; File C:\Program Files\Microsoft Visual Studio\2022\Community\VC\Tools\MSVC\14.34.31933\include\xmemory

; 255  :         ::operator delete(_Ptr, _Bytes);

  00075	6a 60		 push	 96			; 00000060H
  00077	50		 push	 eax
  00078	e8 00 00 00 00	 call	 ??3@YAXPAXI@Z		; operator delete
  0007d	83 c4 08	 add	 esp, 8
; File C:\Program Files\Microsoft Visual Studio\2022\Community\VC\Tools\MSVC\14.34.31933\include\list

; 328  :         for (_Nodeptr _Pnext; _Pnode; _Pnode = _Pnext) {

  00080	8b c6		 mov	 eax, esi
  00082	85 f6		 test	 esi, esi
  00084	75 ed		 jne	 SHORT $LL41@CActorInst
$LN40@CActorInst:
; File C:\Program Files\Microsoft Visual Studio\2022\Community\VC\Tools\MSVC\14.34.31933\include\xmemory

; 255  :         ::operator delete(_Ptr, _Bytes);

  00086	6a 60		 push	 96			; 00000060H
  00088	ff b7 3c 05 00
	00		 push	 DWORD PTR [edi+1340]
  0008e	e8 00 00 00 00	 call	 ??3@YAXPAXI@Z		; operator delete
  00093	83 c4 08	 add	 esp, 8
; File C:\Users\flourine\Desktop\Xantios\client-src\Code\GameLib\ActorInstance.cpp

; 1115 : }

  00096	8d 8f c4 03 00
	00		 lea	 ecx, DWORD PTR [edi+964]
  0009c	e8 00 00 00 00	 call	 ??1CPhysicsObject@@UAE@XZ ; CPhysicsObject::~CPhysicsObject
; File C:\Program Files\Microsoft Visual Studio\2022\Community\VC\Tools\MSVC\14.34.31933\include\vector

; 2107 :         if (_Myfirst) { // destroy and deallocate old array

  000a1	8b 87 b8 03 00
	00		 mov	 eax, DWORD PTR [edi+952]
  000a7	85 c0		 test	 eax, eax
  000a9	74 51		 je	 SHORT $LN92@CActorInst

; 2108 :             _Destroy_range(_Myfirst, _Mylast, _Al);
; 2109 :             _ASAN_VECTOR_REMOVE;
; 2110 :             _Al.deallocate(_Myfirst, static_cast<size_type>(_Myend - _Myfirst));

  000ab	8b 8f c0 03 00
	00		 mov	 ecx, DWORD PTR [edi+960]
  000b1	2b c8		 sub	 ecx, eax
; File C:\Program Files\Microsoft Visual Studio\2022\Community\VC\Tools\MSVC\14.34.31933\include\xmemory

; 830  :         _Deallocate<_New_alignof<_Ty>>(_Ptr, sizeof(_Ty) * _Count);

  000b3	83 e1 fc	 and	 ecx, -4			; fffffffcH

; 251  :         if (_Bytes >= _Big_allocation_threshold) { // boost the alignment of big allocations to help autovectorization

  000b6	81 f9 00 10 00
	00		 cmp	 ecx, 4096		; 00001000H
  000bc	72 16		 jb	 SHORT $LN108@CActorInst

; 150  :     const uintptr_t _Ptr_container   = _Ptr_user[-1];

  000be	8b 50 fc	 mov	 edx, DWORD PTR [eax-4]
  000c1	83 c1 23	 add	 ecx, 35			; 00000023H

; 151  : 
; 152  :     // If the following asserts, it likely means that we are performing
; 153  :     // an aligned delete on memory coming from an unaligned allocation.
; 154  :     _STL_ASSERT(_Ptr_user[-2] == _Big_allocation_sentinel, "invalid argument");
; 155  : 
; 156  :     // Extra paranoia on aligned allocation/deallocation; ensure _Ptr_container is
; 157  :     // in range [_Min_back_shift, _Non_user_size]
; 158  : #ifdef _DEBUG
; 159  :     constexpr uintptr_t _Min_back_shift = 2 * sizeof(void*);
; 160  : #else // ^^^ _DEBUG ^^^ // vvv !_DEBUG vvv
; 161  :     constexpr uintptr_t _Min_back_shift = sizeof(void*);
; 162  : #endif // _DEBUG
; 163  :     const uintptr_t _Back_shift = reinterpret_cast<uintptr_t>(_Ptr) - _Ptr_container;

  000c4	2b c2		 sub	 eax, edx

; 164  :     _STL_VERIFY(_Back_shift >= _Min_back_shift && _Back_shift <= _Non_user_size, "invalid argument");

  000c6	83 c0 fc	 add	 eax, -4			; fffffffcH
  000c9	83 f8 1f	 cmp	 eax, 31			; 0000001fH
  000cc	0f 87 d0 00 00
	00		 ja	 $LN105@CActorInst

; 165  :     _Ptr = reinterpret_cast<void*>(_Ptr_container);

  000d2	8b c2		 mov	 eax, edx
$LN108@CActorInst:

; 255  :         ::operator delete(_Ptr, _Bytes);

  000d4	51		 push	 ecx
  000d5	50		 push	 eax
  000d6	e8 00 00 00 00	 call	 ??3@YAXPAXI@Z		; operator delete
; File C:\Program Files\Microsoft Visual Studio\2022\Community\VC\Tools\MSVC\14.34.31933\include\vector

; 2112 :             _Myfirst = nullptr;

  000db	c7 87 b8 03 00
	00 00 00 00 00	 mov	 DWORD PTR [edi+952], 0
; File C:\Program Files\Microsoft Visual Studio\2022\Community\VC\Tools\MSVC\14.34.31933\include\xmemory

; 255  :         ::operator delete(_Ptr, _Bytes);

  000e5	83 c4 08	 add	 esp, 8
; File C:\Program Files\Microsoft Visual Studio\2022\Community\VC\Tools\MSVC\14.34.31933\include\vector

; 2113 :             _Mylast  = nullptr;

  000e8	c7 87 bc 03 00
	00 00 00 00 00	 mov	 DWORD PTR [edi+956], 0

; 2114 :             _Myend   = nullptr;

  000f2	c7 87 c0 03 00
	00 00 00 00 00	 mov	 DWORD PTR [edi+960], 0
$LN92@CActorInst:
; File C:\Users\flourine\Desktop\Xantios\client-src\Code\GameLib\ActorInstance.cpp

; 1115 : }

  000fc	8d 8f ac 03 00
	00		 lea	 ecx, DWORD PTR [edi+940]
  00102	e8 00 00 00 00	 call	 ??1?$_Tree@V?$_Tmap_traits@PAVCActorInstance@@MU?$less@PAVCActorInstance@@@std@@V?$allocator@U?$pair@QAVCActorInstance@@M@std@@@3@$0A@@std@@@std@@QAE@XZ ; std::_Tree<std::_Tmap_traits<CActorInstance *,float,std::less<CActorInstance *>,std::allocator<std::pair<CActorInstance * const,float> >,0> >::~_Tree<std::_Tmap_traits<CActorInstance *,float,std::less<CActorInstance *>,std::allocator<std::pair<CActorInstance * const,float> >,0> >
  00107	8d 8f a0 03 00
	00		 lea	 ecx, DWORD PTR [edi+928]
  0010d	e8 00 00 00 00	 call	 ??1?$vector@UCDynamicSphereInstance@@V?$allocator@UCDynamicSphereInstance@@@std@@@std@@QAE@XZ ; std::vector<CDynamicSphereInstance,std::allocator<CDynamicSphereInstance> >::~vector<CDynamicSphereInstance,std::allocator<CDynamicSphereInstance> >
  00112	8d 8f 84 03 00
	00		 lea	 ecx, DWORD PTR [edi+900]
  00118	e8 00 00 00 00	 call	 ??1?$list@USCollisionPointInstance@CActorInstance@@V?$allocator@USCollisionPointInstance@CActorInstance@@@std@@@std@@QAE@XZ ; std::list<CActorInstance::SCollisionPointInstance,std::allocator<CActorInstance::SCollisionPointInstance> >::~list<CActorInstance::SCollisionPointInstance,std::allocator<CActorInstance::SCollisionPointInstance> >
  0011d	8d 8f 7c 03 00
	00		 lea	 ecx, DWORD PTR [edi+892]
  00123	e8 00 00 00 00	 call	 ??1?$list@USCollisionPointInstance@CActorInstance@@V?$allocator@USCollisionPointInstance@CActorInstance@@@std@@@std@@QAE@XZ ; std::list<CActorInstance::SCollisionPointInstance,std::allocator<CActorInstance::SCollisionPointInstance> >::~list<CActorInstance::SCollisionPointInstance,std::allocator<CActorInstance::SCollisionPointInstance> >
; File C:\Program Files\Microsoft Visual Studio\2022\Community\VC\Tools\MSVC\14.34.31933\include\deque

; 905  :         _Tidy();

  00128	8d 8f 40 03 00
	00		 lea	 ecx, DWORD PTR [edi+832]
  0012e	e8 00 00 00 00	 call	 ?_Tidy@?$deque@USReservingMotionNode@CActorInstance@@V?$allocator@USReservingMotionNode@CActorInstance@@@std@@@std@@AAEXXZ ; std::deque<CActorInstance::SReservingMotionNode,std::allocator<CActorInstance::SReservingMotionNode> >::_Tidy
; File C:\Program Files\Microsoft Visual Studio\2022\Community\VC\Tools\MSVC\14.34.31933\include\utility

; 653  :     _Ty _Old_val = static_cast<_Ty&&>(_Val);

  00133	8b 87 40 03 00
	00		 mov	 eax, DWORD PTR [edi+832]
; File C:\Program Files\Microsoft Visual Studio\2022\Community\VC\Tools\MSVC\14.34.31933\include\xmemory

; 255  :         ::operator delete(_Ptr, _Bytes);

  00139	6a 08		 push	 8
  0013b	50		 push	 eax
; File C:\Program Files\Microsoft Visual Studio\2022\Community\VC\Tools\MSVC\14.34.31933\include\utility

; 654  :     _Val         = static_cast<_Other&&>(_New_val);

  0013c	c7 87 40 03 00
	00 00 00 00 00	 mov	 DWORD PTR [edi+832], 0
; File C:\Program Files\Microsoft Visual Studio\2022\Community\VC\Tools\MSVC\14.34.31933\include\xmemory

; 255  :         ::operator delete(_Ptr, _Bytes);

  00146	e8 00 00 00 00	 call	 ??3@YAXPAXI@Z		; operator delete
  0014b	83 c4 08	 add	 esp, 8
; File C:\Users\flourine\Desktop\Xantios\client-src\Code\GameLib\ActorInstance.cpp

; 1115 : }

  0014e	8d 8f 2c 03 00
	00		 lea	 ecx, DWORD PTR [edi+812]
  00154	e8 00 00 00 00	 call	 ??1?$deque@VCFlyTarget@@V?$allocator@VCFlyTarget@@@std@@@std@@QAE@XZ ; std::deque<CFlyTarget,std::allocator<CFlyTarget> >::~deque<CFlyTarget,std::allocator<CFlyTarget> >
  00159	8d 8f 14 03 00
	00		 lea	 ecx, DWORD PTR [edi+788]
  0015f	e8 00 00 00 00	 call	 ??1CFlyTarget@@UAE@XZ	; CFlyTarget::~CFlyTarget
  00164	8d 8f fc 02 00
	00		 lea	 ecx, DWORD PTR [edi+764]
  0016a	e8 00 00 00 00	 call	 ??1CFlyTarget@@UAE@XZ	; CFlyTarget::~CFlyTarget
; File C:\Users\flourine\Desktop\Xantios\client-src\Code\GameLib\FlyTarget.h

; 9    : 	virtual ~IFlyTargetableObject() {}

  0016f	8d 8f f0 02 00
	00		 lea	 ecx, DWORD PTR [edi+752]
  00175	c7 87 ec 02 00
	00 00 00 00 00	 mov	 DWORD PTR [edi+748], OFFSET ??_7IFlyTargetableObject@@6B@
  0017f	e8 00 00 00 00	 call	 ??1?$_Tree@V?$_Tset_traits@PAVCFlyTarget@@U?$less@PAVCFlyTarget@@@std@@V?$allocator@PAVCFlyTarget@@@3@$0A@@std@@@std@@QAE@XZ ; std::_Tree<std::_Tset_traits<CFlyTarget *,std::less<CFlyTarget *>,std::allocator<CFlyTarget *>,0> >::~_Tree<std::_Tset_traits<CFlyTarget *,std::less<CFlyTarget *>,std::allocator<CFlyTarget *>,0> >
; File C:\Users\flourine\Desktop\Xantios\client-src\Code\GameLib\ActorInstanceInterface.h

; 15   : 	virtual ~IActorInstance() {}

  00184	8b cf		 mov	 ecx, edi
  00186	c7 07 00 00 00
	00		 mov	 DWORD PTR [edi], OFFSET ??_7IActorInstance@@6B@
  0018c	e8 00 00 00 00	 call	 ??1CGraphicThingInstance@@UAE@XZ ; CGraphicThingInstance::~CGraphicThingInstance
; File C:\Users\flourine\Desktop\Xantios\client-src\Code\GameLib\ActorInstance.cpp

; 1115 : }

  00191	8b 4d f4	 mov	 ecx, DWORD PTR __$EHRec$[ebp]
  00194	64 89 0d 00 00
	00 00		 mov	 DWORD PTR fs:0, ecx
  0019b	59		 pop	 ecx
  0019c	5f		 pop	 edi
  0019d	5e		 pop	 esi
  0019e	8b e5		 mov	 esp, ebp
  001a0	5d		 pop	 ebp
  001a1	c3		 ret	 0
$LN105@CActorInst:
; File C:\Program Files\Microsoft Visual Studio\2022\Community\VC\Tools\MSVC\14.34.31933\include\xmemory

; 164  :     _STL_VERIFY(_Back_shift >= _Min_back_shift && _Back_shift <= _Non_user_size, "invalid argument");

  001a2	e8 00 00 00 00	 call	 __invalid_parameter_noinfo_noreturn
$LN161@CActorInst:
  001a7	cc		 int	 3
  001a8	cc		 int	 3
  001a9	cc		 int	 3
  001aa	cc		 int	 3
  001ab	cc		 int	 3
  001ac	cc		 int	 3
_TEXT	ENDS
;	COMDAT text$x
text$x	SEGMENT
__ehhandler$??1CActorInstance@@UAE@XZ:
  00000	90		 npad	 1
  00001	90		 npad	 1
  00002	8b 54 24 08	 mov	 edx, DWORD PTR [esp+8]
  00006	8d 42 0c	 lea	 eax, DWORD PTR [edx+12]
  00009	8b 4a f4	 mov	 ecx, DWORD PTR [edx-12]
  0000c	33 c8		 xor	 ecx, eax
  0000e	e8 00 00 00 00	 call	 @__security_check_cookie@4
  00013	b8 00 00 00 00	 mov	 eax, OFFSET __ehfuncinfo$??1CActorInstance@@UAE@XZ
  00018	e9 00 00 00 00	 jmp	 ___CxxFrameHandler3
text$x	ENDS
??1CActorInstance@@UAE@XZ ENDP				; CActorInstance::~CActorInstance
; Function compile flags: /Ogtp
; File C:\Users\flourine\Desktop\Xantios\client-src\Code\GameLib\ActorInstance.cpp
; File C:\Users\flourine\Desktop\Xantios\client-src\Code\GameLib\ActorInstanceInterface.h
; File C:\Users\flourine\Desktop\Xantios\client-src\Code\GameLib\ActorInstance.cpp
; File C:\Users\flourine\Desktop\Xantios\client-src\Code\GameLib\FlyTarget.h
; File C:\Program Files\Microsoft Visual Studio\2022\Community\VC\Tools\MSVC\14.34.31933\include\xmemory
; File C:\Program Files\Microsoft Visual Studio\2022\Community\VC\Tools\MSVC\14.34.31933\include\xtree
; File C:\Program Files\Microsoft Visual Studio\2022\Community\VC\Tools\MSVC\14.34.31933\include\xmemory
; File C:\Program Files\Microsoft Visual Studio\2022\Community\VC\Tools\MSVC\14.34.31933\include\xtree
; File C:\Users\flourine\Desktop\Xantios\client-src\Code\GameLib\ActorInstance.cpp
; File C:\Program Files\Microsoft Visual Studio\2022\Community\VC\Tools\MSVC\14.34.31933\include\xmemory
; File C:\Program Files\Microsoft Visual Studio\2022\Community\VC\Tools\MSVC\14.34.31933\include\deque
; File C:\Program Files\Microsoft Visual Studio\2022\Community\VC\Tools\MSVC\14.34.31933\include\xmemory
; File C:\Users\flourine\Desktop\Xantios\client-src\Code\GameLib\ActorInstance.cpp
; File C:\Program Files\Microsoft Visual Studio\2022\Community\VC\Tools\MSVC\14.34.31933\include\xmemory
; File C:\Program Files\Microsoft Visual Studio\2022\Community\VC\Tools\MSVC\14.34.31933\include\deque
; File C:\Program Files\Microsoft Visual Studio\2022\Community\VC\Tools\MSVC\14.34.31933\include\xmemory
; File C:\Users\flourine\Desktop\Xantios\client-src\Code\GameLib\ActorInstance.cpp
; File C:\Program Files\Microsoft Visual Studio\2022\Community\VC\Tools\MSVC\14.34.31933\include\list
; File C:\Program Files\Microsoft Visual Studio\2022\Community\VC\Tools\MSVC\14.34.31933\include\xmemory
; File C:\Program Files\Microsoft Visual Studio\2022\Community\VC\Tools\MSVC\14.34.31933\include\list
; File C:\Program Files\Microsoft Visual Studio\2022\Community\VC\Tools\MSVC\14.34.31933\include\xmemory
; File C:\Users\flourine\Desktop\Xantios\client-src\Code\GameLib\ActorInstance.cpp
; File C:\Program Files\Microsoft Visual Studio\2022\Community\VC\Tools\MSVC\14.34.31933\include\list
; File C:\Program Files\Microsoft Visual Studio\2022\Community\VC\Tools\MSVC\14.34.31933\include\xmemory
; File C:\Program Files\Microsoft Visual Studio\2022\Community\VC\Tools\MSVC\14.34.31933\include\list
; File C:\Users\flourine\Desktop\Xantios\client-src\Code\GameLib\ActorInstance.cpp
; File C:\Program Files\Microsoft Visual Studio\2022\Community\VC\Tools\MSVC\14.34.31933\include\vector
; File C:\Program Files\Microsoft Visual Studio\2022\Community\VC\Tools\MSVC\14.34.31933\include\xtree
; File C:\Program Files\Microsoft Visual Studio\2022\Community\VC\Tools\MSVC\14.34.31933\include\xmemory
; File C:\Program Files\Microsoft Visual Studio\2022\Community\VC\Tools\MSVC\14.34.31933\include\xtree
; File C:\Program Files\Microsoft Visual Studio\2022\Community\VC\Tools\MSVC\14.34.31933\include\xmemory
; File C:\Program Files\Microsoft Visual Studio\2022\Community\VC\Tools\MSVC\14.34.31933\include\xtree
; File C:\Program Files\Microsoft Visual Studio\2022\Community\VC\Tools\MSVC\14.34.31933\include\vector
; File C:\Users\flourine\Desktop\Xantios\client-src\Code\GameLib\ActorInstance.cpp
; File C:\Program Files\Microsoft Visual Studio\2022\Community\VC\Tools\MSVC\14.34.31933\include\xmemory
; File C:\Users\flourine\Desktop\Xantios\client-src\Code\GameLib\ActorInstance.cpp
; File C:\Program Files\Microsoft Visual Studio\2022\Community\VC\Tools\MSVC\14.34.31933\include\list
; File C:\Program Files\Microsoft Visual Studio\2022\Community\VC\Tools\MSVC\14.34.31933\include\xmemory
; File C:\Program Files\Microsoft Visual Studio\2022\Community\VC\Tools\MSVC\14.34.31933\include\list
; File C:\Users\flourine\Desktop\Xantios\client-src\Code\GameLib\ActorInstance.cpp
; File C:\Program Files\Microsoft Visual Studio\2022\Community\VC\Tools\MSVC\14.34.31933\include\xmemory
; File C:\Users\flourine\Desktop\Xantios\client-src\Code\GameLib\ActorInstance.cpp
; File C:\Program Files\Microsoft Visual Studio\2022\Community\VC\Tools\MSVC\14.34.31933\include\xtree
; File C:\Program Files\Microsoft Visual Studio\2022\Community\VC\Tools\MSVC\14.34.31933\include\xmemory
; File C:\Program Files\Microsoft Visual Studio\2022\Community\VC\Tools\MSVC\14.34.31933\include\xtree
; File C:\Users\flourine\Desktop\Xantios\client-src\Code\GameLib\ActorInstance.cpp
;	COMDAT ??0CActorInstance@@QAE@XZ
_TEXT	SEGMENT
_this$ = -24						; size = 4
_this$ = -24						; size = 4
_this$ = -20						; size = 4
_this$ = -20						; size = 4
_this$ = -20						; size = 4
_this$ = -16						; size = 4
__$EHRec$ = -12						; size = 12
??0CActorInstance@@QAE@XZ PROC				; CActorInstance::CActorInstance, COMDAT
; _this$ = ecx

; 1107 : {

  00000	55		 push	 ebp
  00001	8b ec		 mov	 ebp, esp
  00003	6a ff		 push	 -1
  00005	68 00 00 00 00	 push	 __ehhandler$??0CActorInstance@@QAE@XZ
  0000a	64 a1 00 00 00
	00		 mov	 eax, DWORD PTR fs:0
  00010	50		 push	 eax
  00011	83 ec 0c	 sub	 esp, 12			; 0000000cH
  00014	53		 push	 ebx
  00015	56		 push	 esi
  00016	57		 push	 edi
  00017	a1 00 00 00 00	 mov	 eax, DWORD PTR ___security_cookie
  0001c	33 c5		 xor	 eax, ebp
  0001e	50		 push	 eax
  0001f	8d 45 f4	 lea	 eax, DWORD PTR __$EHRec$[ebp]
  00022	64 a3 00 00 00
	00		 mov	 DWORD PTR fs:0, eax
  00028	8b d9		 mov	 ebx, ecx
  0002a	89 5d f0	 mov	 DWORD PTR _this$[ebp], ebx
; File C:\Users\flourine\Desktop\Xantios\client-src\Code\GameLib\ActorInstanceInterface.h

; 14   : 	IActorInstance() {}

  0002d	e8 00 00 00 00	 call	 ??0CGraphicThingInstance@@QAE@XZ ; CGraphicThingInstance::CGraphicThingInstance
  00032	c7 03 00 00 00
	00		 mov	 DWORD PTR [ebx], OFFSET ??_7IActorInstance@@6B@
; File C:\Users\flourine\Desktop\Xantios\client-src\Code\GameLib\ActorInstance.cpp

; 1107 : {

  00038	8d bb ec 02 00
	00		 lea	 edi, DWORD PTR [ebx+748]
  0003e	c7 45 fc 00 00
	00 00		 mov	 DWORD PTR __$EHRec$[ebp+8], 0
  00045	89 7d ec	 mov	 DWORD PTR _this$[ebp], edi
; File C:\Users\flourine\Desktop\Xantios\client-src\Code\GameLib\FlyTarget.h

; 8    : 	IFlyTargetableObject() {}

  00048	8d 77 04	 lea	 esi, DWORD PTR [edi+4]
  0004b	c7 07 00 00 00
	00		 mov	 DWORD PTR [edi], OFFSET ??_7IFlyTargetableObject@@6B@
  00051	89 75 ec	 mov	 DWORD PTR _this$[ebp], esi
; File C:\Program Files\Microsoft Visual Studio\2022\Community\VC\Tools\MSVC\14.34.31933\include\xmemory

; 77   :         return ::operator new(_Bytes);

  00054	6a 14		 push	 20			; 00000014H
; File C:\Program Files\Microsoft Visual Studio\2022\Community\VC\Tools\MSVC\14.34.31933\include\xtree

; 437  :     _Tree_val() noexcept : _Myhead(), _Mysize(0) {}

  00056	c7 06 00 00 00
	00		 mov	 DWORD PTR [esi], 0
  0005c	c7 46 04 00 00
	00 00		 mov	 DWORD PTR [esi+4], 0
; File C:\Program Files\Microsoft Visual Studio\2022\Community\VC\Tools\MSVC\14.34.31933\include\xmemory

; 77   :         return ::operator new(_Bytes);

  00063	e8 00 00 00 00	 call	 ??2@YAPAXI@Z		; operator new
  00068	83 c4 04	 add	 esp, 4
; File C:\Program Files\Microsoft Visual Studio\2022\Community\VC\Tools\MSVC\14.34.31933\include\xtree

; 347  :         _Construct_in_place(_Pnode->_Left, _Pnode);

  0006b	89 00		 mov	 DWORD PTR [eax], eax

; 348  :         _Construct_in_place(_Pnode->_Parent, _Pnode);

  0006d	89 40 04	 mov	 DWORD PTR [eax+4], eax

; 349  :         _Construct_in_place(_Pnode->_Right, _Pnode);

  00070	89 40 08	 mov	 DWORD PTR [eax+8], eax

; 350  :         _Pnode->_Color = _Black;

  00073	66 c7 40 0c 01
	01		 mov	 WORD PTR [eax+12], 257	; 00000101H

; 1941 :         _Scary->_Myhead = _Node::_Buyheadnode(_Getal());

  00079	89 06		 mov	 DWORD PTR [esi], eax
; File C:\Users\flourine\Desktop\Xantios\client-src\Code\GameLib\ActorInstance.cpp

; 1107 : {

  0007b	8d 8b fc 02 00
	00		 lea	 ecx, DWORD PTR [ebx+764]
  00081	c6 45 fc 01	 mov	 BYTE PTR __$EHRec$[ebp+8], 1
  00085	c7 03 00 00 00
	00		 mov	 DWORD PTR [ebx], OFFSET ??_7CActorInstance@@6BIActorInstance@@@
  0008b	c7 07 00 00 00
	00		 mov	 DWORD PTR [edi], OFFSET ??_7CActorInstance@@6BIFlyTargetableObject@@@
  00091	e8 00 00 00 00	 call	 ??0CFlyTarget@@QAE@XZ	; CFlyTarget::CFlyTarget
  00096	8d 8b 14 03 00
	00		 lea	 ecx, DWORD PTR [ebx+788]
  0009c	c6 45 fc 02	 mov	 BYTE PTR __$EHRec$[ebp+8], 2
  000a0	e8 00 00 00 00	 call	 ??0CFlyTarget@@QAE@XZ	; CFlyTarget::CFlyTarget
  000a5	8d b3 2c 03 00
	00		 lea	 esi, DWORD PTR [ebx+812]
  000ab	c6 45 fc 03	 mov	 BYTE PTR __$EHRec$[ebp+8], 3
; File C:\Program Files\Microsoft Visual Studio\2022\Community\VC\Tools\MSVC\14.34.31933\include\xmemory

; 77   :         return ::operator new(_Bytes);

  000af	6a 08		 push	 8

; 1080 :     _Container_proxy* _Myproxy = nullptr;

  000b1	c7 06 00 00 00
	00		 mov	 DWORD PTR [esi], 0
; File C:\Program Files\Microsoft Visual Studio\2022\Community\VC\Tools\MSVC\14.34.31933\include\deque

; 560  :     _Deque_val() noexcept : _Map(), _Mapsize(0), _Myoff(0), _Mysize(0) {}

  000b7	c7 46 04 00 00
	00 00		 mov	 DWORD PTR [esi+4], 0
  000be	c7 46 08 00 00
	00 00		 mov	 DWORD PTR [esi+8], 0
  000c5	c7 46 0c 00 00
	00 00		 mov	 DWORD PTR [esi+12], 0
  000cc	c7 46 10 00 00
	00 00		 mov	 DWORD PTR [esi+16], 0
; File C:\Program Files\Microsoft Visual Studio\2022\Community\VC\Tools\MSVC\14.34.31933\include\xmemory

; 77   :         return ::operator new(_Bytes);

  000d3	e8 00 00 00 00	 call	 ??2@YAPAXI@Z		; operator new

; 1050 :     mutable _Iterator_base12* _Myfirstiter = nullptr;

  000d8	c7 40 04 00 00
	00 00		 mov	 DWORD PTR [eax+4], 0

; 1067 :         _Myproxy            = _New_proxy;

  000df	89 06		 mov	 DWORD PTR [esi], eax

; 1068 :         _New_proxy->_Mycont = this;

  000e1	89 30		 mov	 DWORD PTR [eax], esi
; File C:\Users\flourine\Desktop\Xantios\client-src\Code\GameLib\ActorInstance.cpp

; 1107 : {

  000e3	8d b3 40 03 00
	00		 lea	 esi, DWORD PTR [ebx+832]
  000e9	c6 45 fc 04	 mov	 BYTE PTR __$EHRec$[ebp+8], 4
; File C:\Program Files\Microsoft Visual Studio\2022\Community\VC\Tools\MSVC\14.34.31933\include\xmemory

; 77   :         return ::operator new(_Bytes);

  000ed	6a 08		 push	 8

; 1080 :     _Container_proxy* _Myproxy = nullptr;

  000ef	c7 06 00 00 00
	00		 mov	 DWORD PTR [esi], 0
; File C:\Program Files\Microsoft Visual Studio\2022\Community\VC\Tools\MSVC\14.34.31933\include\deque

; 560  :     _Deque_val() noexcept : _Map(), _Mapsize(0), _Myoff(0), _Mysize(0) {}

  000f5	c7 46 04 00 00
	00 00		 mov	 DWORD PTR [esi+4], 0
  000fc	c7 46 08 00 00
	00 00		 mov	 DWORD PTR [esi+8], 0
  00103	c7 46 0c 00 00
	00 00		 mov	 DWORD PTR [esi+12], 0
  0010a	c7 46 10 00 00
	00 00		 mov	 DWORD PTR [esi+16], 0
; File C:\Program Files\Microsoft Visual Studio\2022\Community\VC\Tools\MSVC\14.34.31933\include\xmemory

; 77   :         return ::operator new(_Bytes);

  00111	e8 00 00 00 00	 call	 ??2@YAPAXI@Z		; operator new

; 1050 :     mutable _Iterator_base12* _Myfirstiter = nullptr;

  00116	c7 40 04 00 00
	00 00		 mov	 DWORD PTR [eax+4], 0

; 1067 :         _Myproxy            = _New_proxy;

  0011d	89 06		 mov	 DWORD PTR [esi], eax

; 1068 :         _New_proxy->_Mycont = this;

  0011f	89 30		 mov	 DWORD PTR [eax], esi

; 77   :         return ::operator new(_Bytes);

  00121	6a 24		 push	 36			; 00000024H
; File C:\Users\flourine\Desktop\Xantios\client-src\Code\GameLib\ActorInstance.cpp

; 1107 : {

  00123	c6 45 fc 05	 mov	 BYTE PTR __$EHRec$[ebp+8], 5
; File C:\Program Files\Microsoft Visual Studio\2022\Community\VC\Tools\MSVC\14.34.31933\include\list

; 354  :     _List_val() noexcept : _Myhead(), _Mysize(0) {} // initialize data

  00127	c7 83 7c 03 00
	00 00 00 00 00	 mov	 DWORD PTR [ebx+892], 0
  00131	c7 83 80 03 00
	00 00 00 00 00	 mov	 DWORD PTR [ebx+896], 0
; File C:\Program Files\Microsoft Visual Studio\2022\Community\VC\Tools\MSVC\14.34.31933\include\xmemory

; 77   :         return ::operator new(_Bytes);

  0013b	e8 00 00 00 00	 call	 ??2@YAPAXI@Z		; operator new
; File C:\Program Files\Microsoft Visual Studio\2022\Community\VC\Tools\MSVC\14.34.31933\include\list

; 1834 :         _Construct_in_place(_Newhead->_Next, _Newhead);

  00140	89 00		 mov	 DWORD PTR [eax], eax

; 1835 :         _Construct_in_place(_Newhead->_Prev, _Newhead);

  00142	89 40 04	 mov	 DWORD PTR [eax+4], eax

; 1836 :         _Mypair._Myval2._Myhead = _Newhead;

  00145	89 83 7c 03 00
	00		 mov	 DWORD PTR [ebx+892], eax
; File C:\Program Files\Microsoft Visual Studio\2022\Community\VC\Tools\MSVC\14.34.31933\include\xmemory

; 77   :         return ::operator new(_Bytes);

  0014b	6a 24		 push	 36			; 00000024H
; File C:\Users\flourine\Desktop\Xantios\client-src\Code\GameLib\ActorInstance.cpp

; 1107 : {

  0014d	c6 45 fc 06	 mov	 BYTE PTR __$EHRec$[ebp+8], 6
; File C:\Program Files\Microsoft Visual Studio\2022\Community\VC\Tools\MSVC\14.34.31933\include\list

; 354  :     _List_val() noexcept : _Myhead(), _Mysize(0) {} // initialize data

  00151	c7 83 84 03 00
	00 00 00 00 00	 mov	 DWORD PTR [ebx+900], 0
  0015b	c7 83 88 03 00
	00 00 00 00 00	 mov	 DWORD PTR [ebx+904], 0
; File C:\Program Files\Microsoft Visual Studio\2022\Community\VC\Tools\MSVC\14.34.31933\include\xmemory

; 77   :         return ::operator new(_Bytes);

  00165	e8 00 00 00 00	 call	 ??2@YAPAXI@Z		; operator new
; File C:\Program Files\Microsoft Visual Studio\2022\Community\VC\Tools\MSVC\14.34.31933\include\list

; 1834 :         _Construct_in_place(_Newhead->_Next, _Newhead);

  0016a	89 00		 mov	 DWORD PTR [eax], eax

; 1835 :         _Construct_in_place(_Newhead->_Prev, _Newhead);

  0016c	89 40 04	 mov	 DWORD PTR [eax+4], eax

; 1836 :         _Mypair._Myval2._Myhead = _Newhead;

  0016f	89 83 84 03 00
	00		 mov	 DWORD PTR [ebx+900], eax
; File C:\Users\flourine\Desktop\Xantios\client-src\Code\GameLib\ActorInstance.cpp

; 1107 : {

  00175	8d 83 8c 03 00
	00		 lea	 eax, DWORD PTR [ebx+908]
  0017b	89 45 ec	 mov	 DWORD PTR _this$[ebp], eax
; File C:\Program Files\Microsoft Visual Studio\2022\Community\VC\Tools\MSVC\14.34.31933\include\vector

; 390  :     _CONSTEXPR20 _Vector_val() noexcept : _Myfirst(), _Mylast(), _Myend() {}

  0017e	c7 40 14 00 00
	00 00		 mov	 DWORD PTR [eax+20], 0
  00185	c7 40 18 00 00
	00 00		 mov	 DWORD PTR [eax+24], 0
  0018c	c7 40 1c 00 00
	00 00		 mov	 DWORD PTR [eax+28], 0
  00193	c6 45 fc 08	 mov	 BYTE PTR __$EHRec$[ebp+8], 8
  00197	8d 70 20	 lea	 esi, DWORD PTR [eax+32]
; File C:\Program Files\Microsoft Visual Studio\2022\Community\VC\Tools\MSVC\14.34.31933\include\xtree

; 437  :     _Tree_val() noexcept : _Myhead(), _Mysize(0) {}

  0019a	c7 06 00 00 00
	00		 mov	 DWORD PTR [esi], 0
; File C:\Program Files\Microsoft Visual Studio\2022\Community\VC\Tools\MSVC\14.34.31933\include\xmemory

; 77   :         return ::operator new(_Bytes);

  001a0	6a 18		 push	 24			; 00000018H
  001a2	89 75 e8	 mov	 DWORD PTR _this$[ebp], esi
; File C:\Program Files\Microsoft Visual Studio\2022\Community\VC\Tools\MSVC\14.34.31933\include\xtree

; 437  :     _Tree_val() noexcept : _Myhead(), _Mysize(0) {}

  001a5	c7 46 04 00 00
	00 00		 mov	 DWORD PTR [esi+4], 0
; File C:\Program Files\Microsoft Visual Studio\2022\Community\VC\Tools\MSVC\14.34.31933\include\xmemory

; 77   :         return ::operator new(_Bytes);

  001ac	e8 00 00 00 00	 call	 ??2@YAPAXI@Z		; operator new
  001b1	83 c4 14	 add	 esp, 20			; 00000014H
; File C:\Program Files\Microsoft Visual Studio\2022\Community\VC\Tools\MSVC\14.34.31933\include\xtree

; 347  :         _Construct_in_place(_Pnode->_Left, _Pnode);

  001b4	89 00		 mov	 DWORD PTR [eax], eax

; 348  :         _Construct_in_place(_Pnode->_Parent, _Pnode);

  001b6	89 40 04	 mov	 DWORD PTR [eax+4], eax

; 349  :         _Construct_in_place(_Pnode->_Right, _Pnode);

  001b9	89 40 08	 mov	 DWORD PTR [eax+8], eax

; 350  :         _Pnode->_Color = _Black;

  001bc	66 c7 40 0c 01
	01		 mov	 WORD PTR [eax+12], 257	; 00000101H

; 1941 :         _Scary->_Myhead = _Node::_Buyheadnode(_Getal());

  001c2	89 06		 mov	 DWORD PTR [esi], eax
; File C:\Program Files\Microsoft Visual Studio\2022\Community\VC\Tools\MSVC\14.34.31933\include\vector

; 390  :     _CONSTEXPR20 _Vector_val() noexcept : _Myfirst(), _Mylast(), _Myend() {}

  001c4	c7 83 b8 03 00
	00 00 00 00 00	 mov	 DWORD PTR [ebx+952], 0
  001ce	c7 83 bc 03 00
	00 00 00 00 00	 mov	 DWORD PTR [ebx+956], 0
  001d8	c7 83 c0 03 00
	00 00 00 00 00	 mov	 DWORD PTR [ebx+960], 0
; File C:\Users\flourine\Desktop\Xantios\client-src\Code\GameLib\ActorInstance.cpp

; 1107 : {

  001e2	8d 8b c4 03 00
	00		 lea	 ecx, DWORD PTR [ebx+964]
  001e8	c6 45 fc 0a	 mov	 BYTE PTR __$EHRec$[ebp+8], 10 ; 0000000aH
  001ec	e8 00 00 00 00	 call	 ??0CPhysicsObject@@QAE@XZ ; CPhysicsObject::CPhysicsObject
; File C:\Program Files\Microsoft Visual Studio\2022\Community\VC\Tools\MSVC\14.34.31933\include\xmemory

; 77   :         return ::operator new(_Bytes);

  001f1	6a 60		 push	 96			; 00000060H
; File C:\Users\flourine\Desktop\Xantios\client-src\Code\GameLib\ActorInstance.cpp

; 1107 : {

  001f3	c6 45 fc 0b	 mov	 BYTE PTR __$EHRec$[ebp+8], 11 ; 0000000bH
; File C:\Program Files\Microsoft Visual Studio\2022\Community\VC\Tools\MSVC\14.34.31933\include\list

; 354  :     _List_val() noexcept : _Myhead(), _Mysize(0) {} // initialize data

  001f7	c7 83 3c 05 00
	00 00 00 00 00	 mov	 DWORD PTR [ebx+1340], 0
  00201	c7 83 40 05 00
	00 00 00 00 00	 mov	 DWORD PTR [ebx+1344], 0
; File C:\Program Files\Microsoft Visual Studio\2022\Community\VC\Tools\MSVC\14.34.31933\include\xmemory

; 77   :         return ::operator new(_Bytes);

  0020b	e8 00 00 00 00	 call	 ??2@YAPAXI@Z		; operator new
; File C:\Program Files\Microsoft Visual Studio\2022\Community\VC\Tools\MSVC\14.34.31933\include\list

; 1834 :         _Construct_in_place(_Newhead->_Next, _Newhead);

  00210	89 00		 mov	 DWORD PTR [eax], eax

; 1835 :         _Construct_in_place(_Newhead->_Prev, _Newhead);

  00212	89 40 04	 mov	 DWORD PTR [eax+4], eax

; 1836 :         _Mypair._Myval2._Myhead = _Newhead;

  00215	89 83 3c 05 00
	00		 mov	 DWORD PTR [ebx+1340], eax
; File C:\Users\flourine\Desktop\Xantios\client-src\Code\GameLib\ActorInstance.cpp

; 1107 : {

  0021b	8d b3 8c 05 00
	00		 lea	 esi, DWORD PTR [ebx+1420]
  00221	c6 45 fc 0c	 mov	 BYTE PTR __$EHRec$[ebp+8], 12 ; 0000000cH
; File C:\Program Files\Microsoft Visual Studio\2022\Community\VC\Tools\MSVC\14.34.31933\include\xmemory

; 77   :         return ::operator new(_Bytes);

  00225	6a 1c		 push	 28			; 0000001cH
; File C:\Users\flourine\Desktop\Xantios\client-src\Code\GameLib\ActorInstance.cpp

; 1107 : {

  00227	89 75 e8	 mov	 DWORD PTR _this$[ebp], esi
; File C:\Program Files\Microsoft Visual Studio\2022\Community\VC\Tools\MSVC\14.34.31933\include\xtree

; 437  :     _Tree_val() noexcept : _Myhead(), _Mysize(0) {}

  0022a	c7 06 00 00 00
	00		 mov	 DWORD PTR [esi], 0
  00230	c7 46 04 00 00
	00 00		 mov	 DWORD PTR [esi+4], 0
; File C:\Program Files\Microsoft Visual Studio\2022\Community\VC\Tools\MSVC\14.34.31933\include\xmemory

; 77   :         return ::operator new(_Bytes);

  00237	e8 00 00 00 00	 call	 ??2@YAPAXI@Z		; operator new
  0023c	83 c4 08	 add	 esp, 8
; File C:\Program Files\Microsoft Visual Studio\2022\Community\VC\Tools\MSVC\14.34.31933\include\xtree

; 347  :         _Construct_in_place(_Pnode->_Left, _Pnode);

  0023f	89 00		 mov	 DWORD PTR [eax], eax

; 348  :         _Construct_in_place(_Pnode->_Parent, _Pnode);

  00241	89 40 04	 mov	 DWORD PTR [eax+4], eax

; 349  :         _Construct_in_place(_Pnode->_Right, _Pnode);

  00244	89 40 08	 mov	 DWORD PTR [eax+8], eax

; 350  :         _Pnode->_Color = _Black;

  00247	66 c7 40 0c 01
	01		 mov	 WORD PTR [eax+12], 257	; 00000101H

; 1941 :         _Scary->_Myhead = _Node::_Buyheadnode(_Getal());

  0024d	89 06		 mov	 DWORD PTR [esi], eax
; File C:\Users\flourine\Desktop\Xantios\client-src\Code\GameLib\ActorInstance.cpp

; 1108 : 	__Initialize();

  0024f	8b cb		 mov	 ecx, ebx
  00251	c6 45 fc 0d	 mov	 BYTE PTR __$EHRec$[ebp+8], 13 ; 0000000dH
  00255	e8 00 00 00 00	 call	 ?__Initialize@CActorInstance@@IAEXXZ ; CActorInstance::__Initialize

; 1109 : 	m_PhysicsObject.SetActorInstance(this);

  0025a	89 9b 38 04 00
	00		 mov	 DWORD PTR [ebx+1080], ebx

; 1110 : }

  00260	8b c3		 mov	 eax, ebx
  00262	8b 4d f4	 mov	 ecx, DWORD PTR __$EHRec$[ebp]
  00265	64 89 0d 00 00
	00 00		 mov	 DWORD PTR fs:0, ecx
  0026c	59		 pop	 ecx
  0026d	5f		 pop	 edi
  0026e	5e		 pop	 esi
  0026f	5b		 pop	 ebx
  00270	8b e5		 mov	 esp, ebp
  00272	5d		 pop	 ebp
  00273	c3		 ret	 0
_TEXT	ENDS
;	COMDAT text$x
text$x	SEGMENT
__unwindfunclet$??0CActorInstance@@QAE@XZ$0:
  00000	8b 4d f0	 mov	 ecx, DWORD PTR _this$[ebp]
  00003	e9 00 00 00 00	 jmp	 ??1IActorInstance@@UAE@XZ ; IActorInstance::~IActorInstance
__unwindfunclet$??0CActorInstance@@QAE@XZ$1:
  00008	8b 4d f0	 mov	 ecx, DWORD PTR _this$[ebp]
  0000b	81 c1 ec 02 00
	00		 add	 ecx, 748		; 000002ecH
  00011	e9 00 00 00 00	 jmp	 ??1IFlyTargetableObject@@UAE@XZ ; IFlyTargetableObject::~IFlyTargetableObject
__unwindfunclet$??0CActorInstance@@QAE@XZ$2:
  00016	8b 4d f0	 mov	 ecx, DWORD PTR _this$[ebp]
  00019	81 c1 fc 02 00
	00		 add	 ecx, 764		; 000002fcH
  0001f	e9 00 00 00 00	 jmp	 ??1CFlyTarget@@UAE@XZ	; CFlyTarget::~CFlyTarget
__unwindfunclet$??0CActorInstance@@QAE@XZ$3:
  00024	8b 4d f0	 mov	 ecx, DWORD PTR _this$[ebp]
  00027	81 c1 14 03 00
	00		 add	 ecx, 788		; 00000314H
  0002d	e9 00 00 00 00	 jmp	 ??1CFlyTarget@@UAE@XZ	; CFlyTarget::~CFlyTarget
__unwindfunclet$??0CActorInstance@@QAE@XZ$4:
  00032	8b 4d f0	 mov	 ecx, DWORD PTR _this$[ebp]
  00035	81 c1 2c 03 00
	00		 add	 ecx, 812		; 0000032cH
  0003b	e9 00 00 00 00	 jmp	 ??1?$deque@VCFlyTarget@@V?$allocator@VCFlyTarget@@@std@@@std@@QAE@XZ ; std::deque<CFlyTarget,std::allocator<CFlyTarget> >::~deque<CFlyTarget,std::allocator<CFlyTarget> >
__unwindfunclet$??0CActorInstance@@QAE@XZ$5:
  00040	8b 4d f0	 mov	 ecx, DWORD PTR _this$[ebp]
  00043	81 c1 40 03 00
	00		 add	 ecx, 832		; 00000340H
  00049	e9 00 00 00 00	 jmp	 ??1?$deque@USReservingMotionNode@CActorInstance@@V?$allocator@USReservingMotionNode@CActorInstance@@@std@@@std@@QAE@XZ ; std::deque<CActorInstance::SReservingMotionNode,std::allocator<CActorInstance::SReservingMotionNode> >::~deque<CActorInstance::SReservingMotionNode,std::allocator<CActorInstance::SReservingMotionNode> >
__unwindfunclet$??0CActorInstance@@QAE@XZ$6:
  0004e	8b 4d f0	 mov	 ecx, DWORD PTR _this$[ebp]
  00051	81 c1 7c 03 00
	00		 add	 ecx, 892		; 0000037cH
  00057	e9 00 00 00 00	 jmp	 ??1?$list@USCollisionPointInstance@CActorInstance@@V?$allocator@USCollisionPointInstance@CActorInstance@@@std@@@std@@QAE@XZ ; std::list<CActorInstance::SCollisionPointInstance,std::allocator<CActorInstance::SCollisionPointInstance> >::~list<CActorInstance::SCollisionPointInstance,std::allocator<CActorInstance::SCollisionPointInstance> >
__unwindfunclet$??0CActorInstance@@QAE@XZ$7:
  0005c	8b 4d f0	 mov	 ecx, DWORD PTR _this$[ebp]
  0005f	81 c1 84 03 00
	00		 add	 ecx, 900		; 00000384H
  00065	e9 00 00 00 00	 jmp	 ??1?$list@USCollisionPointInstance@CActorInstance@@V?$allocator@USCollisionPointInstance@CActorInstance@@@std@@@std@@QAE@XZ ; std::list<CActorInstance::SCollisionPointInstance,std::allocator<CActorInstance::SCollisionPointInstance> >::~list<CActorInstance::SCollisionPointInstance,std::allocator<CActorInstance::SCollisionPointInstance> >
__unwindfunclet$??0CActorInstance@@QAE@XZ$16:
  0006a	8b 4d ec	 mov	 ecx, DWORD PTR _this$[ebp]
  0006d	83 c1 14	 add	 ecx, 20			; 00000014H
  00070	e9 00 00 00 00	 jmp	 ??1?$vector@UCDynamicSphereInstance@@V?$allocator@UCDynamicSphereInstance@@@std@@@std@@QAE@XZ ; std::vector<CDynamicSphereInstance,std::allocator<CDynamicSphereInstance> >::~vector<CDynamicSphereInstance,std::allocator<CDynamicSphereInstance> >
__unwindfunclet$??0CActorInstance@@QAE@XZ$8:
  00075	8b 4d f0	 mov	 ecx, DWORD PTR _this$[ebp]
  00078	81 c1 8c 03 00
	00		 add	 ecx, 908		; 0000038cH
  0007e	e9 00 00 00 00	 jmp	 ??1SSplashArea@CActorInstance@@QAE@XZ
__unwindfunclet$??0CActorInstance@@QAE@XZ$9:
  00083	8b 4d f0	 mov	 ecx, DWORD PTR _this$[ebp]
  00086	81 c1 b8 03 00
	00		 add	 ecx, 952		; 000003b8H
  0008c	e9 00 00 00 00	 jmp	 ??1?$vector@PAVCWeaponTrace@@V?$allocator@PAVCWeaponTrace@@@std@@@std@@QAE@XZ ; std::vector<CWeaponTrace *,std::allocator<CWeaponTrace *> >::~vector<CWeaponTrace *,std::allocator<CWeaponTrace *> >
__unwindfunclet$??0CActorInstance@@QAE@XZ$10:
  00091	8b 4d f0	 mov	 ecx, DWORD PTR _this$[ebp]
  00094	81 c1 c4 03 00
	00		 add	 ecx, 964		; 000003c4H
  0009a	e9 00 00 00 00	 jmp	 ??1CPhysicsObject@@UAE@XZ ; CPhysicsObject::~CPhysicsObject
__unwindfunclet$??0CActorInstance@@QAE@XZ$11:
  0009f	8b 4d f0	 mov	 ecx, DWORD PTR _this$[ebp]
  000a2	81 c1 3c 05 00
	00		 add	 ecx, 1340		; 0000053cH
  000a8	e9 00 00 00 00	 jmp	 ??1?$list@UTAttachingEffect@CActorInstance@@V?$allocator@UTAttachingEffect@CActorInstance@@@std@@@std@@QAE@XZ ; std::list<CActorInstance::TAttachingEffect,std::allocator<CActorInstance::TAttachingEffect> >::~list<CActorInstance::TAttachingEffect,std::allocator<CActorInstance::TAttachingEffect> >
__unwindfunclet$??0CActorInstance@@QAE@XZ$12:
  000ad	8b 4d f0	 mov	 ecx, DWORD PTR _this$[ebp]
  000b0	81 c1 8c 05 00
	00		 add	 ecx, 1420		; 0000058cH
  000b6	e9 00 00 00 00	 jmp	 ??1?$map@PBUSHitData@NRaceData@@V?$map@PAVCActorInstance@@MU?$less@PAVCActorInstance@@@std@@V?$allocator@U?$pair@QAVCActorInstance@@M@std@@@3@@std@@U?$less@PBUSHitData@NRaceData@@@4@V?$allocator@U?$pair@QBUSHitData@NRaceData@@V?$map@PAVCActorInstance@@MU?$less@PAVCActorInstance@@@std@@V?$allocator@U?$pair@QAVCActorInstance@@M@std@@@3@@std@@@std@@@4@@std@@QAE@XZ
  000bb	cc		 int	 3
  000bc	cc		 int	 3
  000bd	cc		 int	 3
  000be	cc		 int	 3
  000bf	cc		 int	 3
__ehhandler$??0CActorInstance@@QAE@XZ:
  000c0	90		 npad	 1
  000c1	90		 npad	 1
  000c2	8b 54 24 08	 mov	 edx, DWORD PTR [esp+8]
  000c6	8d 42 0c	 lea	 eax, DWORD PTR [edx+12]
  000c9	8b 4a e4	 mov	 ecx, DWORD PTR [edx-28]
  000cc	33 c8		 xor	 ecx, eax
  000ce	e8 00 00 00 00	 call	 @__security_check_cookie@4
  000d3	b8 00 00 00 00	 mov	 eax, OFFSET __ehfuncinfo$??0CActorInstance@@QAE@XZ
  000d8	e9 00 00 00 00	 jmp	 ___CxxFrameHandler3
text$x	ENDS
??0CActorInstance@@QAE@XZ ENDP				; CActorInstance::CActorInstance
; Function compile flags: /Ogtp
; File C:\Users\flourine\Desktop\Xantios\client-src\Code\GameLib\ActorInstance.cpp
;	COMDAT ?DestroySystem@CActorInstance@@SAXXZ
_TEXT	SEGMENT
?DestroySystem@CActorInstance@@SAXXZ PROC		; CActorInstance::DestroySystem, COMDAT

; 443  : }

  00000	c2 00 00	 ret	 0
?DestroySystem@CActorInstance@@SAXXZ ENDP		; CActorInstance::DestroySystem
_TEXT	ENDS
; Function compile flags: /Ogtp
;	COMDAT ??1SSplashArea@CActorInstance@@QAE@XZ
_TEXT	SEGMENT
??1SSplashArea@CActorInstance@@QAE@XZ PROC		; CActorInstance::SSplashArea::~SSplashArea, COMDAT
; _this$ = ecx
  00000	56		 push	 esi
  00001	8b f1		 mov	 esi, ecx
  00003	8d 4e 20	 lea	 ecx, DWORD PTR [esi+32]
  00006	e8 00 00 00 00	 call	 ??1?$_Tree@V?$_Tmap_traits@PAVCActorInstance@@MU?$less@PAVCActorInstance@@@std@@V?$allocator@U?$pair@QAVCActorInstance@@M@std@@@3@$0A@@std@@@std@@QAE@XZ ; std::_Tree<std::_Tmap_traits<CActorInstance *,float,std::less<CActorInstance *>,std::allocator<std::pair<CActorInstance * const,float> >,0> >::~_Tree<std::_Tmap_traits<CActorInstance *,float,std::less<CActorInstance *>,std::allocator<std::pair<CActorInstance * const,float> >,0> >
  0000b	8d 4e 14	 lea	 ecx, DWORD PTR [esi+20]
  0000e	5e		 pop	 esi
  0000f	e9 00 00 00 00	 jmp	 ??1?$vector@UCDynamicSphereInstance@@V?$allocator@UCDynamicSphereInstance@@@std@@@std@@QAE@XZ ; std::vector<CDynamicSphereInstance,std::allocator<CDynamicSphereInstance> >::~vector<CDynamicSphereInstance,std::allocator<CDynamicSphereInstance> >
??1SSplashArea@CActorInstance@@QAE@XZ ENDP		; CActorInstance::SSplashArea::~SSplashArea
_TEXT	ENDS
; Function compile flags: /Ogtp
; File C:\Program Files\Microsoft Visual Studio\2022\Community\VC\Tools\MSVC\14.34.31933\include\xtree
; File C:\Program Files\Microsoft Visual Studio\2022\Community\VC\Tools\MSVC\14.34.31933\include\utility
; File C:\Program Files\Microsoft Visual Studio\2022\Community\VC\Tools\MSVC\14.34.31933\include\xmemory
; File C:\Program Files\Microsoft Visual Studio\2022\Community\VC\Tools\MSVC\14.34.31933\include\xtree
; File C:\Program Files\Microsoft Visual Studio\2022\Community\VC\Tools\MSVC\14.34.31933\include\xmemory
; File C:\Program Files\Microsoft Visual Studio\2022\Community\VC\Tools\MSVC\14.34.31933\include\xtree
;	COMDAT ??1?$_Tree@V?$_Tmap_traits@PAVCActorInstance@@MU?$less@PAVCActorInstance@@@std@@V?$allocator@U?$pair@QAVCActorInstance@@M@std@@@3@$0A@@std@@@std@@QAE@XZ
_TEXT	SEGMENT
??1?$_Tree@V?$_Tmap_traits@PAVCActorInstance@@MU?$less@PAVCActorInstance@@@std@@V?$allocator@U?$pair@QAVCActorInstance@@M@std@@@3@$0A@@std@@@std@@QAE@XZ PROC ; std::_Tree<std::_Tmap_traits<CActorInstance *,float,std::less<CActorInstance *>,std::allocator<std::pair<CActorInstance * const,float> >,0> >::~_Tree<std::_Tmap_traits<CActorInstance *,float,std::less<CActorInstance *>,std::allocator<std::pair<CActorInstance * const,float> >,0> >, COMDAT
; _this$ = ecx

; 1079 :     ~_Tree() noexcept {

  00000	56		 push	 esi
  00001	57		 push	 edi
  00002	8b f9		 mov	 edi, ecx

; 754  :         _Erase_tree(_Al, _Myhead->_Parent);

  00004	8b 37		 mov	 esi, DWORD PTR [edi]
  00006	8b 76 04	 mov	 esi, DWORD PTR [esi+4]

; 745  :         while (!_Rootnode->_Isnil) { // free subtrees, then node

  00009	80 7e 0d 00	 cmp	 BYTE PTR [esi+13], 0
  0000d	75 21		 jne	 SHORT $LN7@Tree
  0000f	90		 npad	 1
$LL6@Tree:

; 746  :             _Erase_tree(_Al, _Rootnode->_Right);

  00010	ff 76 08	 push	 DWORD PTR [esi+8]
  00013	8b cf		 mov	 ecx, edi
  00015	57		 push	 edi
  00016	e8 00 00 00 00	 call	 ??$_Erase_tree@V?$allocator@U?$_Tree_node@U?$pair@QAVCActorInstance@@M@std@@PAX@std@@@std@@@?$_Tree_val@U?$_Tree_simple_types@U?$pair@QAVCActorInstance@@M@std@@@std@@@std@@QAEXAAV?$allocator@U?$_Tree_node@U?$pair@QAVCActorInstance@@M@std@@PAX@std@@@1@PAU?$_Tree_node@U?$pair@QAVCActorInstance@@M@std@@PAX@1@@Z ; std::_Tree_val<std::_Tree_simple_types<std::pair<CActorInstance * const,float> > >::_Erase_tree<std::allocator<std::_Tree_node<std::pair<CActorInstance * const,float>,void *> > >
; File C:\Program Files\Microsoft Visual Studio\2022\Community\VC\Tools\MSVC\14.34.31933\include\utility

; 653  :     _Ty _Old_val = static_cast<_Ty&&>(_Val);

  0001b	8b c6		 mov	 eax, esi

; 654  :     _Val         = static_cast<_Other&&>(_New_val);

  0001d	8b 36		 mov	 esi, DWORD PTR [esi]
; File C:\Program Files\Microsoft Visual Studio\2022\Community\VC\Tools\MSVC\14.34.31933\include\xmemory

; 255  :         ::operator delete(_Ptr, _Bytes);

  0001f	6a 18		 push	 24			; 00000018H
  00021	50		 push	 eax
  00022	e8 00 00 00 00	 call	 ??3@YAXPAXI@Z		; operator delete
  00027	83 c4 08	 add	 esp, 8
; File C:\Program Files\Microsoft Visual Studio\2022\Community\VC\Tools\MSVC\14.34.31933\include\xtree

; 745  :         while (!_Rootnode->_Isnil) { // free subtrees, then node

  0002a	80 7e 0d 00	 cmp	 BYTE PTR [esi+13], 0
  0002e	74 e0		 je	 SHORT $LL6@Tree
$LN7@Tree:
; File C:\Program Files\Microsoft Visual Studio\2022\Community\VC\Tools\MSVC\14.34.31933\include\xmemory

; 255  :         ::operator delete(_Ptr, _Bytes);

  00030	6a 18		 push	 24			; 00000018H
  00032	ff 37		 push	 DWORD PTR [edi]
  00034	e8 00 00 00 00	 call	 ??3@YAXPAXI@Z		; operator delete
  00039	83 c4 08	 add	 esp, 8
  0003c	5f		 pop	 edi
  0003d	5e		 pop	 esi
; File C:\Program Files\Microsoft Visual Studio\2022\Community\VC\Tools\MSVC\14.34.31933\include\xtree

; 1086 :     }

  0003e	c3		 ret	 0
??1?$_Tree@V?$_Tmap_traits@PAVCActorInstance@@MU?$less@PAVCActorInstance@@@std@@V?$allocator@U?$pair@QAVCActorInstance@@M@std@@@3@$0A@@std@@@std@@QAE@XZ ENDP ; std::_Tree<std::_Tmap_traits<CActorInstance *,float,std::less<CActorInstance *>,std::allocator<std::pair<CActorInstance * const,float> >,0> >::~_Tree<std::_Tmap_traits<CActorInstance *,float,std::less<CActorInstance *>,std::allocator<std::pair<CActorInstance * const,float> >,0> >
_TEXT	ENDS
; Function compile flags: /Ogtp
; File C:\Program Files\Microsoft Visual Studio\2022\Community\VC\Tools\MSVC\14.34.31933\include\list
; File C:\Program Files\Microsoft Visual Studio\2022\Community\VC\Tools\MSVC\14.34.31933\include\xmemory
; File C:\Program Files\Microsoft Visual Studio\2022\Community\VC\Tools\MSVC\14.34.31933\include\list
; File C:\Program Files\Microsoft Visual Studio\2022\Community\VC\Tools\MSVC\14.34.31933\include\xmemory
; File C:\Program Files\Microsoft Visual Studio\2022\Community\VC\Tools\MSVC\14.34.31933\include\list
;	COMDAT ??1?$list@USCollisionPointInstance@CActorInstance@@V?$allocator@USCollisionPointInstance@CActorInstance@@@std@@@std@@QAE@XZ
_TEXT	SEGMENT
??1?$list@USCollisionPointInstance@CActorInstance@@V?$allocator@USCollisionPointInstance@CActorInstance@@@std@@@std@@QAE@XZ PROC ; std::list<CActorInstance::SCollisionPointInstance,std::allocator<CActorInstance::SCollisionPointInstance> >::~list<CActorInstance::SCollisionPointInstance,std::allocator<CActorInstance::SCollisionPointInstance> >, COMDAT
; _this$ = ecx

; 1042 :     ~list() noexcept {

  00000	53		 push	 ebx
  00001	8b d9		 mov	 ebx, ecx
  00003	57		 push	 edi

; 1498 :         _Node::_Free_non_head(_Al, _My_data._Myhead);

  00004	8b 13		 mov	 edx, DWORD PTR [ebx]

; 325  :         _Head->_Prev->_Next = nullptr;

  00006	8b 42 04	 mov	 eax, DWORD PTR [edx+4]
  00009	c7 00 00 00 00
	00		 mov	 DWORD PTR [eax], 0

; 326  : 
; 327  :         auto _Pnode = _Head->_Next;

  0000f	8b 3a		 mov	 edi, DWORD PTR [edx]

; 328  :         for (_Nodeptr _Pnext; _Pnode; _Pnode = _Pnext) {

  00011	85 ff		 test	 edi, edi
  00013	74 1d		 je	 SHORT $LN7@list
  00015	56		 push	 esi
$LL8@list:

; 329  :             _Pnext = _Pnode->_Next;

  00016	8b 37		 mov	 esi, DWORD PTR [edi]

; 318  :         allocator_traits<_Alnode>::destroy(_Al, _STD addressof(_Ptr->_Myval));

  00018	8d 4f 18	 lea	 ecx, DWORD PTR [edi+24]
  0001b	e8 00 00 00 00	 call	 ??1?$vector@UCDynamicSphereInstance@@V?$allocator@UCDynamicSphereInstance@@@std@@@std@@QAE@XZ ; std::vector<CDynamicSphereInstance,std::allocator<CDynamicSphereInstance> >::~vector<CDynamicSphereInstance,std::allocator<CDynamicSphereInstance> >
; File C:\Program Files\Microsoft Visual Studio\2022\Community\VC\Tools\MSVC\14.34.31933\include\xmemory

; 255  :         ::operator delete(_Ptr, _Bytes);

  00020	6a 24		 push	 36			; 00000024H
  00022	57		 push	 edi
  00023	e8 00 00 00 00	 call	 ??3@YAXPAXI@Z		; operator delete
  00028	83 c4 08	 add	 esp, 8
; File C:\Program Files\Microsoft Visual Studio\2022\Community\VC\Tools\MSVC\14.34.31933\include\list

; 328  :         for (_Nodeptr _Pnext; _Pnode; _Pnode = _Pnext) {

  0002b	8b fe		 mov	 edi, esi
  0002d	85 f6		 test	 esi, esi
  0002f	75 e5		 jne	 SHORT $LL8@list
  00031	5e		 pop	 esi
$LN7@list:
; File C:\Program Files\Microsoft Visual Studio\2022\Community\VC\Tools\MSVC\14.34.31933\include\xmemory

; 255  :         ::operator delete(_Ptr, _Bytes);

  00032	6a 24		 push	 36			; 00000024H
  00034	ff 33		 push	 DWORD PTR [ebx]
  00036	e8 00 00 00 00	 call	 ??3@YAXPAXI@Z		; operator delete
  0003b	83 c4 08	 add	 esp, 8
  0003e	5f		 pop	 edi
  0003f	5b		 pop	 ebx
; File C:\Program Files\Microsoft Visual Studio\2022\Community\VC\Tools\MSVC\14.34.31933\include\list

; 1048 :     }

  00040	c3		 ret	 0
??1?$list@USCollisionPointInstance@CActorInstance@@V?$allocator@USCollisionPointInstance@CActorInstance@@@std@@@std@@QAE@XZ ENDP ; std::list<CActorInstance::SCollisionPointInstance,std::allocator<CActorInstance::SCollisionPointInstance> >::~list<CActorInstance::SCollisionPointInstance,std::allocator<CActorInstance::SCollisionPointInstance> >
_TEXT	ENDS
; Function compile flags: /Ogtp
; File C:\Program Files\Microsoft Visual Studio\2022\Community\VC\Tools\MSVC\14.34.31933\include\vector
; File C:\Program Files\Microsoft Visual Studio\2022\Community\VC\Tools\MSVC\14.34.31933\include\xmemory
; File C:\Program Files\Microsoft Visual Studio\2022\Community\VC\Tools\MSVC\14.34.31933\include\vector
; File C:\Program Files\Microsoft Visual Studio\2022\Community\VC\Tools\MSVC\14.34.31933\include\xmemory
; File C:\Program Files\Microsoft Visual Studio\2022\Community\VC\Tools\MSVC\14.34.31933\include\vector
; File C:\Program Files\Microsoft Visual Studio\2022\Community\VC\Tools\MSVC\14.34.31933\include\xmemory
; File C:\Program Files\Microsoft Visual Studio\2022\Community\VC\Tools\MSVC\14.34.31933\include\vector
;	COMDAT ??1?$vector@UCDynamicSphereInstance@@V?$allocator@UCDynamicSphereInstance@@@std@@@std@@QAE@XZ
_TEXT	SEGMENT
??1?$vector@UCDynamicSphereInstance@@V?$allocator@UCDynamicSphereInstance@@@std@@@std@@QAE@XZ PROC ; std::vector<CDynamicSphereInstance,std::allocator<CDynamicSphereInstance> >::~vector<CDynamicSphereInstance,std::allocator<CDynamicSphereInstance> >, COMDAT
; _this$ = ecx

; 829  :     _CONSTEXPR20 ~vector() noexcept {

  00000	56		 push	 esi
  00001	57		 push	 edi
  00002	8b f9		 mov	 edi, ecx

; 2107 :         if (_Myfirst) { // destroy and deallocate old array

  00004	8b 37		 mov	 esi, DWORD PTR [edi]
  00006	85 f6		 test	 esi, esi
  00008	74 5c		 je	 SHORT $LN4@vector

; 2108 :             _Destroy_range(_Myfirst, _Mylast, _Al);
; 2109 :             _ASAN_VECTOR_REMOVE;
; 2110 :             _Al.deallocate(_Myfirst, static_cast<size_type>(_Myend - _Myfirst));

  0000a	8b 4f 08	 mov	 ecx, DWORD PTR [edi+8]
  0000d	b8 93 24 49 92	 mov	 eax, -1840700269	; 92492493H
  00012	2b ce		 sub	 ecx, esi
  00014	f7 e9		 imul	 ecx
  00016	03 d1		 add	 edx, ecx
  00018	c1 fa 04	 sar	 edx, 4
  0001b	8b c2		 mov	 eax, edx
  0001d	c1 e8 1f	 shr	 eax, 31			; 0000001fH
  00020	03 c2		 add	 eax, edx
; File C:\Program Files\Microsoft Visual Studio\2022\Community\VC\Tools\MSVC\14.34.31933\include\xmemory

; 830  :         _Deallocate<_New_alignof<_Ty>>(_Ptr, sizeof(_Ty) * _Count);

  00022	8d 0c c5 00 00
	00 00		 lea	 ecx, DWORD PTR [eax*8]
  00029	2b c8		 sub	 ecx, eax
  0002b	c1 e1 02	 shl	 ecx, 2

; 251  :         if (_Bytes >= _Big_allocation_threshold) { // boost the alignment of big allocations to help autovectorization

  0002e	81 f9 00 10 00
	00		 cmp	 ecx, 4096		; 00001000H
  00034	72 12		 jb	 SHORT $LN20@vector

; 150  :     const uintptr_t _Ptr_container   = _Ptr_user[-1];

  00036	8b 56 fc	 mov	 edx, DWORD PTR [esi-4]
  00039	83 c1 23	 add	 ecx, 35			; 00000023H

; 151  : 
; 152  :     // If the following asserts, it likely means that we are performing
; 153  :     // an aligned delete on memory coming from an unaligned allocation.
; 154  :     _STL_ASSERT(_Ptr_user[-2] == _Big_allocation_sentinel, "invalid argument");
; 155  : 
; 156  :     // Extra paranoia on aligned allocation/deallocation; ensure _Ptr_container is
; 157  :     // in range [_Min_back_shift, _Non_user_size]
; 158  : #ifdef _DEBUG
; 159  :     constexpr uintptr_t _Min_back_shift = 2 * sizeof(void*);
; 160  : #else // ^^^ _DEBUG ^^^ // vvv !_DEBUG vvv
; 161  :     constexpr uintptr_t _Min_back_shift = sizeof(void*);
; 162  : #endif // _DEBUG
; 163  :     const uintptr_t _Back_shift = reinterpret_cast<uintptr_t>(_Ptr) - _Ptr_container;

  0003c	2b f2		 sub	 esi, edx

; 164  :     _STL_VERIFY(_Back_shift >= _Min_back_shift && _Back_shift <= _Non_user_size, "invalid argument");

  0003e	8d 46 fc	 lea	 eax, DWORD PTR [esi-4]
  00041	83 f8 1f	 cmp	 eax, 31			; 0000001fH
  00044	77 23		 ja	 SHORT $LN17@vector

; 165  :     _Ptr = reinterpret_cast<void*>(_Ptr_container);

  00046	8b f2		 mov	 esi, edx
$LN20@vector:

; 255  :         ::operator delete(_Ptr, _Bytes);

  00048	51		 push	 ecx
  00049	56		 push	 esi
  0004a	e8 00 00 00 00	 call	 ??3@YAXPAXI@Z		; operator delete
; File C:\Program Files\Microsoft Visual Studio\2022\Community\VC\Tools\MSVC\14.34.31933\include\vector

; 2112 :             _Myfirst = nullptr;

  0004f	c7 07 00 00 00
	00		 mov	 DWORD PTR [edi], 0
; File C:\Program Files\Microsoft Visual Studio\2022\Community\VC\Tools\MSVC\14.34.31933\include\xmemory

; 255  :         ::operator delete(_Ptr, _Bytes);

  00055	83 c4 08	 add	 esp, 8
; File C:\Program Files\Microsoft Visual Studio\2022\Community\VC\Tools\MSVC\14.34.31933\include\vector

; 2113 :             _Mylast  = nullptr;

  00058	c7 47 04 00 00
	00 00		 mov	 DWORD PTR [edi+4], 0

; 2114 :             _Myend   = nullptr;

  0005f	c7 47 08 00 00
	00 00		 mov	 DWORD PTR [edi+8], 0
$LN4@vector:
  00066	5f		 pop	 edi

; 835  :     }

  00067	5e		 pop	 esi
  00068	c3		 ret	 0
$LN17@vector:
; File C:\Program Files\Microsoft Visual Studio\2022\Community\VC\Tools\MSVC\14.34.31933\include\xmemory

; 164  :     _STL_VERIFY(_Back_shift >= _Min_back_shift && _Back_shift <= _Non_user_size, "invalid argument");

  00069	e8 00 00 00 00	 call	 __invalid_parameter_noinfo_noreturn
$LN25@vector:
  0006e	cc		 int	 3
??1?$vector@UCDynamicSphereInstance@@V?$allocator@UCDynamicSphereInstance@@@std@@@std@@QAE@XZ ENDP ; std::vector<CDynamicSphereInstance,std::allocator<CDynamicSphereInstance> >::~vector<CDynamicSphereInstance,std::allocator<CDynamicSphereInstance> >
_TEXT	ENDS
; Function compile flags: /Ogtp
; File C:\Users\flourine\Desktop\Xantios\client-src\Code\GameLib\ActorInstance.cpp
;	COMDAT ?GetBackground@CActorInstance@@CAAAVIBackground@@XZ
_TEXT	SEGMENT
?GetBackground@CActorInstance@@CAAAVIBackground@@XZ PROC ; CActorInstance::GetBackground, COMDAT

; 124  : 	return IBackground::Instance();

  00000	a1 00 00 00 00	 mov	 eax, DWORD PTR ?ms_singleton@?$CSingleton@VIBackground@@@@0PAVIBackground@@A ; CSingleton<IBackground>::ms_singleton

; 125  : }

  00005	c3		 ret	 0
?GetBackground@CActorInstance@@CAAAVIBackground@@XZ ENDP ; CActorInstance::GetBackground
_TEXT	ENDS
; Function compile flags: /Ogtp
; File C:\Users\flourine\Desktop\Xantios\client-src\Code\GameLib\ActorInstanceInterface.h
;	COMDAT ??_GIActorInstance@@UAEPAXI@Z
_TEXT	SEGMENT
___flags$ = 8						; size = 4
??_GIActorInstance@@UAEPAXI@Z PROC			; IActorInstance::`scalar deleting destructor', COMDAT
; _this$ = ecx
  00000	55		 push	 ebp
  00001	8b ec		 mov	 ebp, esp

; 15   : 	virtual ~IActorInstance() {}

  00003	56		 push	 esi
  00004	8b f1		 mov	 esi, ecx
  00006	c7 06 00 00 00
	00		 mov	 DWORD PTR [esi], OFFSET ??_7IActorInstance@@6B@
  0000c	e8 00 00 00 00	 call	 ??1CGraphicThingInstance@@UAE@XZ ; CGraphicThingInstance::~CGraphicThingInstance
  00011	f6 45 08 01	 test	 BYTE PTR ___flags$[ebp], 1
  00015	74 0e		 je	 SHORT $LN7@scalar
  00017	68 ec 02 00 00	 push	 748			; 000002ecH
  0001c	56		 push	 esi
  0001d	e8 00 00 00 00	 call	 ??3@YAXPAXI@Z		; operator delete
  00022	83 c4 08	 add	 esp, 8
$LN7@scalar:
  00025	8b c6		 mov	 eax, esi
  00027	5e		 pop	 esi
  00028	5d		 pop	 ebp
  00029	c2 04 00	 ret	 4
??_GIActorInstance@@UAEPAXI@Z ENDP			; IActorInstance::`scalar deleting destructor'
_TEXT	ENDS
; Function compile flags: /Ogtp
; File C:\Users\flourine\Desktop\Xantios\client-src\Code\GameLib\ActorInstanceInterface.h
;	COMDAT ??1IActorInstance@@UAE@XZ
_TEXT	SEGMENT
??1IActorInstance@@UAE@XZ PROC				; IActorInstance::~IActorInstance, COMDAT
; _this$ = ecx

; 15   : 	virtual ~IActorInstance() {}

  00000	c7 01 00 00 00
	00		 mov	 DWORD PTR [ecx], OFFSET ??_7IActorInstance@@6B@
  00006	e9 00 00 00 00	 jmp	 ??1CGraphicThingInstance@@UAE@XZ ; CGraphicThingInstance::~CGraphicThingInstance
??1IActorInstance@@UAE@XZ ENDP				; IActorInstance::~IActorInstance
_TEXT	ENDS
; Function compile flags: /Ogtp
; File C:\Users\flourine\Desktop\Xantios\client-src\Code\GameLib\ActorInstanceInterface.h
;	COMDAT ?GetType@IActorInstance@@UBEHXZ
_TEXT	SEGMENT
?GetType@IActorInstance@@UBEHXZ PROC			; IActorInstance::GetType, COMDAT
; _this$ = ecx

; 12   : 	int GetType() const { return ID; }

  00000	b8 24 6c a7 29	 mov	 eax, 698838052		; 29a76c24H
  00005	c3		 ret	 0
?GetType@IActorInstance@@UBEHXZ ENDP			; IActorInstance::GetType
_TEXT	ENDS
; Function compile flags: /Ogtp
; File C:\Program Files\Microsoft Visual Studio\2022\Community\VC\Tools\MSVC\14.34.31933\include\xtree
;	COMDAT ??E?$_Tree_unchecked_const_iterator@V?$_Tree_val@U?$_Tree_simple_types@PAVCFlyTarget@@@std@@@std@@U_Iterator_base0@2@@std@@QAEAAV01@XZ
_TEXT	SEGMENT
??E?$_Tree_unchecked_const_iterator@V?$_Tree_val@U?$_Tree_simple_types@PAVCFlyTarget@@@std@@@std@@U_Iterator_base0@2@@std@@QAEAAV01@XZ PROC ; std::_Tree_unchecked_const_iterator<std::_Tree_val<std::_Tree_simple_types<CFlyTarget *> >,std::_Iterator_base0>::operator++, COMDAT
; _this$ = ecx

; 50   :     _Tree_unchecked_const_iterator& operator++() noexcept {

  00000	56		 push	 esi
  00001	8b f1		 mov	 esi, ecx
  00003	57		 push	 edi

; 51   :         if (_Ptr->_Right->_Isnil) { // climb looking for right subtree

  00004	8b 16		 mov	 edx, DWORD PTR [esi]
  00006	8b 7a 08	 mov	 edi, DWORD PTR [edx+8]
  00009	80 7f 0d 00	 cmp	 BYTE PTR [edi+13], 0
  0000d	74 22		 je	 SHORT $LN4@operator

; 52   :             _Nodeptr _Pnode;
; 53   :             while (!(_Pnode = _Ptr->_Parent)->_Isnil && _Ptr == _Pnode->_Right) {

  0000f	8b 42 04	 mov	 eax, DWORD PTR [edx+4]
  00012	80 78 0d 00	 cmp	 BYTE PTR [eax+13], 0
  00016	75 12		 jne	 SHORT $LN19@operator
$LL2@operator:
  00018	3b 50 08	 cmp	 edx, DWORD PTR [eax+8]
  0001b	75 0d		 jne	 SHORT $LN19@operator

; 54   :                 _Ptr = _Pnode; // ==> parent while right subtree

  0001d	89 06		 mov	 DWORD PTR [esi], eax
  0001f	8b d0		 mov	 edx, eax
  00021	8b 40 04	 mov	 eax, DWORD PTR [eax+4]
  00024	80 78 0d 00	 cmp	 BYTE PTR [eax+13], 0
  00028	74 ee		 je	 SHORT $LL2@operator
$LN19@operator:

; 55   :             }
; 56   : 
; 57   :             _Ptr = _Pnode; // ==> parent (head if end())
; 58   :         } else {
; 59   :             _Ptr = _Mytree::_Min(_Ptr->_Right); // ==> smallest of right subtree
; 60   :         }
; 61   : 
; 62   :         return *this;

  0002a	89 06		 mov	 DWORD PTR [esi], eax

; 63   :     }

  0002c	8b c6		 mov	 eax, esi
  0002e	5f		 pop	 edi
  0002f	5e		 pop	 esi
  00030	c3		 ret	 0
$LN4@operator:

; 453  :         while (!_Pnode->_Left->_Isnil) {

  00031	8b 0f		 mov	 ecx, DWORD PTR [edi]
  00033	80 79 0d 00	 cmp	 BYTE PTR [ecx+13], 0
  00037	75 13		 jne	 SHORT $LN9@operator
  00039	0f 1f 80 00 00
	00 00		 npad	 7
$LL8@operator:
  00040	8b 01		 mov	 eax, DWORD PTR [ecx]

; 454  :             _Pnode = _Pnode->_Left;

  00042	8b f9		 mov	 edi, ecx
  00044	8b c8		 mov	 ecx, eax
  00046	80 78 0d 00	 cmp	 BYTE PTR [eax+13], 0
  0004a	74 f4		 je	 SHORT $LL8@operator
$LN9@operator:

; 55   :             }
; 56   : 
; 57   :             _Ptr = _Pnode; // ==> parent (head if end())
; 58   :         } else {
; 59   :             _Ptr = _Mytree::_Min(_Ptr->_Right); // ==> smallest of right subtree
; 60   :         }
; 61   : 
; 62   :         return *this;

  0004c	89 3e		 mov	 DWORD PTR [esi], edi

; 63   :     }

  0004e	8b c6		 mov	 eax, esi
  00050	5f		 pop	 edi
  00051	5e		 pop	 esi
  00052	c3		 ret	 0
??E?$_Tree_unchecked_const_iterator@V?$_Tree_val@U?$_Tree_simple_types@PAVCFlyTarget@@@std@@@std@@U_Iterator_base0@2@@std@@QAEAAV01@XZ ENDP ; std::_Tree_unchecked_const_iterator<std::_Tree_val<std::_Tree_simple_types<CFlyTarget *> >,std::_Iterator_base0>::operator++
_TEXT	ENDS
; Function compile flags: /Ogtp
; File C:\Users\flourine\Desktop\Xantios\client-src\Code\GameLib\FlyTarget.h
;	COMDAT ??_GIFlyTargetableObject@@UAEPAXI@Z
_TEXT	SEGMENT
___flags$ = 8						; size = 4
??_GIFlyTargetableObject@@UAEPAXI@Z PROC		; IFlyTargetableObject::`scalar deleting destructor', COMDAT
; _this$ = ecx
  00000	55		 push	 ebp
  00001	8b ec		 mov	 ebp, esp

; 9    : 	virtual ~IFlyTargetableObject() {}

  00003	56		 push	 esi
  00004	8b f1		 mov	 esi, ecx
  00006	8d 4e 04	 lea	 ecx, DWORD PTR [esi+4]
  00009	c7 06 00 00 00
	00		 mov	 DWORD PTR [esi], OFFSET ??_7IFlyTargetableObject@@6B@
  0000f	e8 00 00 00 00	 call	 ??1?$_Tree@V?$_Tset_traits@PAVCFlyTarget@@U?$less@PAVCFlyTarget@@@std@@V?$allocator@PAVCFlyTarget@@@3@$0A@@std@@@std@@QAE@XZ ; std::_Tree<std::_Tset_traits<CFlyTarget *,std::less<CFlyTarget *>,std::allocator<CFlyTarget *>,0> >::~_Tree<std::_Tset_traits<CFlyTarget *,std::less<CFlyTarget *>,std::allocator<CFlyTarget *>,0> >
  00014	f6 45 08 01	 test	 BYTE PTR ___flags$[ebp], 1
  00018	74 0b		 je	 SHORT $LN10@scalar
  0001a	6a 0c		 push	 12			; 0000000cH
  0001c	56		 push	 esi
  0001d	e8 00 00 00 00	 call	 ??3@YAXPAXI@Z		; operator delete
  00022	83 c4 08	 add	 esp, 8
$LN10@scalar:
  00025	8b c6		 mov	 eax, esi
  00027	5e		 pop	 esi
  00028	5d		 pop	 ebp
  00029	c2 04 00	 ret	 4
??_GIFlyTargetableObject@@UAEPAXI@Z ENDP		; IFlyTargetableObject::`scalar deleting destructor'
_TEXT	ENDS
; Function compile flags: /Ogtp
; File C:\Program Files\Microsoft Visual Studio\2022\Community\VC\Tools\MSVC\14.34.31933\include\xtree
; File C:\Program Files\Microsoft Visual Studio\2022\Community\VC\Tools\MSVC\14.34.31933\include\utility
; File C:\Program Files\Microsoft Visual Studio\2022\Community\VC\Tools\MSVC\14.34.31933\include\xmemory
; File C:\Program Files\Microsoft Visual Studio\2022\Community\VC\Tools\MSVC\14.34.31933\include\xtree
; File C:\Program Files\Microsoft Visual Studio\2022\Community\VC\Tools\MSVC\14.34.31933\include\xmemory
; File C:\Program Files\Microsoft Visual Studio\2022\Community\VC\Tools\MSVC\14.34.31933\include\xtree
;	COMDAT ??1?$_Tree@V?$_Tset_traits@PAVCFlyTarget@@U?$less@PAVCFlyTarget@@@std@@V?$allocator@PAVCFlyTarget@@@3@$0A@@std@@@std@@QAE@XZ
_TEXT	SEGMENT
??1?$_Tree@V?$_Tset_traits@PAVCFlyTarget@@U?$less@PAVCFlyTarget@@@std@@V?$allocator@PAVCFlyTarget@@@3@$0A@@std@@@std@@QAE@XZ PROC ; std::_Tree<std::_Tset_traits<CFlyTarget *,std::less<CFlyTarget *>,std::allocator<CFlyTarget *>,0> >::~_Tree<std::_Tset_traits<CFlyTarget *,std::less<CFlyTarget *>,std::allocator<CFlyTarget *>,0> >, COMDAT
; _this$ = ecx

; 1079 :     ~_Tree() noexcept {

  00000	56		 push	 esi
  00001	57		 push	 edi
  00002	8b f9		 mov	 edi, ecx

; 754  :         _Erase_tree(_Al, _Myhead->_Parent);

  00004	8b 37		 mov	 esi, DWORD PTR [edi]
  00006	8b 76 04	 mov	 esi, DWORD PTR [esi+4]

; 745  :         while (!_Rootnode->_Isnil) { // free subtrees, then node

  00009	80 7e 0d 00	 cmp	 BYTE PTR [esi+13], 0
  0000d	75 21		 jne	 SHORT $LN7@Tree
  0000f	90		 npad	 1
$LL6@Tree:

; 746  :             _Erase_tree(_Al, _Rootnode->_Right);

  00010	ff 76 08	 push	 DWORD PTR [esi+8]
  00013	8b cf		 mov	 ecx, edi
  00015	57		 push	 edi
  00016	e8 00 00 00 00	 call	 ??$_Erase_tree@V?$allocator@U?$_Tree_node@PAVCFlyTarget@@PAX@std@@@std@@@?$_Tree_val@U?$_Tree_simple_types@PAVCFlyTarget@@@std@@@std@@QAEXAAV?$allocator@U?$_Tree_node@PAVCFlyTarget@@PAX@std@@@1@PAU?$_Tree_node@PAVCFlyTarget@@PAX@1@@Z ; std::_Tree_val<std::_Tree_simple_types<CFlyTarget *> >::_Erase_tree<std::allocator<std::_Tree_node<CFlyTarget *,void *> > >
; File C:\Program Files\Microsoft Visual Studio\2022\Community\VC\Tools\MSVC\14.34.31933\include\utility

; 653  :     _Ty _Old_val = static_cast<_Ty&&>(_Val);

  0001b	8b c6		 mov	 eax, esi

; 654  :     _Val         = static_cast<_Other&&>(_New_val);

  0001d	8b 36		 mov	 esi, DWORD PTR [esi]
; File C:\Program Files\Microsoft Visual Studio\2022\Community\VC\Tools\MSVC\14.34.31933\include\xmemory

; 255  :         ::operator delete(_Ptr, _Bytes);

  0001f	6a 14		 push	 20			; 00000014H
  00021	50		 push	 eax
  00022	e8 00 00 00 00	 call	 ??3@YAXPAXI@Z		; operator delete
  00027	83 c4 08	 add	 esp, 8
; File C:\Program Files\Microsoft Visual Studio\2022\Community\VC\Tools\MSVC\14.34.31933\include\xtree

; 745  :         while (!_Rootnode->_Isnil) { // free subtrees, then node

  0002a	80 7e 0d 00	 cmp	 BYTE PTR [esi+13], 0
  0002e	74 e0		 je	 SHORT $LL6@Tree
$LN7@Tree:
; File C:\Program Files\Microsoft Visual Studio\2022\Community\VC\Tools\MSVC\14.34.31933\include\xmemory

; 255  :         ::operator delete(_Ptr, _Bytes);

  00030	6a 14		 push	 20			; 00000014H
  00032	ff 37		 push	 DWORD PTR [edi]
  00034	e8 00 00 00 00	 call	 ??3@YAXPAXI@Z		; operator delete
  00039	83 c4 08	 add	 esp, 8
  0003c	5f		 pop	 edi
  0003d	5e		 pop	 esi
; File C:\Program Files\Microsoft Visual Studio\2022\Community\VC\Tools\MSVC\14.34.31933\include\xtree

; 1086 :     }

  0003e	c3		 ret	 0
??1?$_Tree@V?$_Tset_traits@PAVCFlyTarget@@U?$less@PAVCFlyTarget@@@std@@V?$allocator@PAVCFlyTarget@@@3@$0A@@std@@@std@@QAE@XZ ENDP ; std::_Tree<std::_Tset_traits<CFlyTarget *,std::less<CFlyTarget *>,std::allocator<CFlyTarget *>,0> >::~_Tree<std::_Tset_traits<CFlyTarget *,std::less<CFlyTarget *>,std::allocator<CFlyTarget *>,0> >
_TEXT	ENDS
; Function compile flags: /Ogtp
; File C:\Users\flourine\Desktop\Xantios\client-src\Code\GameLib\FlyTarget.h
; File C:\Program Files\Microsoft Visual Studio\2022\Community\VC\Tools\MSVC\14.34.31933\include\xtree
; File C:\Users\flourine\Desktop\Xantios\client-src\Code\GameLib\FlyTarget.h
; File C:\Program Files\Microsoft Visual Studio\2022\Community\VC\Tools\MSVC\14.34.31933\include\xtree
; File C:\Users\flourine\Desktop\Xantios\client-src\Code\GameLib\FlyTarget.h
; File C:\Program Files\Microsoft Visual Studio\2022\Community\VC\Tools\MSVC\14.34.31933\include\xtree
; File C:\Users\flourine\Desktop\Xantios\client-src\Code\GameLib\FlyTarget.h
; File C:\Program Files\Microsoft Visual Studio\2022\Community\VC\Tools\MSVC\14.34.31933\include\xtree
; File C:\Users\flourine\Desktop\Xantios\client-src\Code\GameLib\FlyTarget.h
; File C:\Program Files\Microsoft Visual Studio\2022\Community\VC\Tools\MSVC\14.34.31933\include\xtree
; File C:\Program Files\Microsoft Visual Studio\2022\Community\VC\Tools\MSVC\14.34.31933\include\utility
; File C:\Program Files\Microsoft Visual Studio\2022\Community\VC\Tools\MSVC\14.34.31933\include\xmemory
; File C:\Program Files\Microsoft Visual Studio\2022\Community\VC\Tools\MSVC\14.34.31933\include\xtree
; File C:\Users\flourine\Desktop\Xantios\client-src\Code\GameLib\FlyTarget.h
;	COMDAT ?ClearFlyTargeter@IFlyTargetableObject@@IAEXXZ
_TEXT	SEGMENT
_it$ = -4						; size = 4
?ClearFlyTargeter@IFlyTargetableObject@@IAEXXZ PROC	; IFlyTargetableObject::ClearFlyTargeter, COMDAT
; _this$ = ecx

; 72   : {

  00000	55		 push	 ebp
  00001	8b ec		 mov	 ebp, esp
  00003	51		 push	 ecx
  00004	53		 push	 ebx
  00005	56		 push	 esi
; File C:\Program Files\Microsoft Visual Studio\2022\Community\VC\Tools\MSVC\14.34.31933\include\xtree

; 1126 :         return iterator(_Scary->_Myhead->_Left, _Scary);

  00006	8b 71 04	 mov	 esi, DWORD PTR [ecx+4]
  00009	8d 59 04	 lea	 ebx, DWORD PTR [ecx+4]
; File C:\Users\flourine\Desktop\Xantios\client-src\Code\GameLib\FlyTarget.h

; 72   : {

  0000c	57		 push	 edi
; File C:\Program Files\Microsoft Visual Studio\2022\Community\VC\Tools\MSVC\14.34.31933\include\xtree

; 38   :     _Tree_unchecked_const_iterator(_Nodeptr _Pnode, const _Mytree* _Plist) noexcept : _Ptr(_Pnode) {

  0000d	8b 06		 mov	 eax, DWORD PTR [esi]
; File C:\Users\flourine\Desktop\Xantios\client-src\Code\GameLib\FlyTarget.h

; 74   : 	for (it = m_FlyTargeterSet.begin(); it != m_FlyTargeterSet.end(); ++it)

  0000f	89 45 fc	 mov	 DWORD PTR _it$[ebp], eax
; File C:\Program Files\Microsoft Visual Studio\2022\Community\VC\Tools\MSVC\14.34.31933\include\xtree

; 38   :     _Tree_unchecked_const_iterator(_Nodeptr _Pnode, const _Mytree* _Plist) noexcept : _Ptr(_Pnode) {

  00012	3b c6		 cmp	 eax, esi
; File C:\Users\flourine\Desktop\Xantios\client-src\Code\GameLib\FlyTarget.h

; 74   : 	for (it = m_FlyTargeterSet.begin(); it != m_FlyTargeterSet.end(); ++it)

  00014	74 19		 je	 SHORT $LN3@ClearFlyTa
$LL17@ClearFlyTa:

; 75   : 	{
; 76   : 		(*it)->NotifyTargetClear();

  00016	8b 48 10	 mov	 ecx, DWORD PTR [eax+16]
  00019	e8 00 00 00 00	 call	 ?NotifyTargetClear@CFlyTarget@@QAEXXZ ; CFlyTarget::NotifyTargetClear
; File C:\Program Files\Microsoft Visual Studio\2022\Community\VC\Tools\MSVC\14.34.31933\include\xtree

; 199  :         _Mybase::operator++();

  0001e	8d 4d fc	 lea	 ecx, DWORD PTR _it$[ebp]
  00021	e8 00 00 00 00	 call	 ??E?$_Tree_unchecked_const_iterator@V?$_Tree_val@U?$_Tree_simple_types@PAVCFlyTarget@@@std@@@std@@U_Iterator_base0@2@@std@@QAEAAV01@XZ ; std::_Tree_unchecked_const_iterator<std::_Tree_val<std::_Tree_simple_types<CFlyTarget *> >,std::_Iterator_base0>::operator++

; 38   :     _Tree_unchecked_const_iterator(_Nodeptr _Pnode, const _Mytree* _Plist) noexcept : _Ptr(_Pnode) {

  00026	8b 33		 mov	 esi, DWORD PTR [ebx]

; 233  :         return this->_Ptr == _Right._Ptr;

  00028	8b 45 fc	 mov	 eax, DWORD PTR _it$[ebp]
  0002b	3b c6		 cmp	 eax, esi
; File C:\Users\flourine\Desktop\Xantios\client-src\Code\GameLib\FlyTarget.h

; 74   : 	for (it = m_FlyTargeterSet.begin(); it != m_FlyTargeterSet.end(); ++it)

  0002d	75 e7		 jne	 SHORT $LL17@ClearFlyTa
$LN3@ClearFlyTa:
; File C:\Program Files\Microsoft Visual Studio\2022\Community\VC\Tools\MSVC\14.34.31933\include\xtree

; 1357 :         _Scary->_Erase_tree(_Getal(), _Head->_Parent);

  0002f	8b 7e 04	 mov	 edi, DWORD PTR [esi+4]

; 745  :         while (!_Rootnode->_Isnil) { // free subtrees, then node

  00032	80 7f 0d 00	 cmp	 BYTE PTR [edi+13], 0
  00036	75 20		 jne	 SHORT $LN24@ClearFlyTa
$LL23@ClearFlyTa:

; 746  :             _Erase_tree(_Al, _Rootnode->_Right);

  00038	ff 77 08	 push	 DWORD PTR [edi+8]
  0003b	8b cb		 mov	 ecx, ebx
  0003d	53		 push	 ebx
  0003e	e8 00 00 00 00	 call	 ??$_Erase_tree@V?$allocator@U?$_Tree_node@PAVCFlyTarget@@PAX@std@@@std@@@?$_Tree_val@U?$_Tree_simple_types@PAVCFlyTarget@@@std@@@std@@QAEXAAV?$allocator@U?$_Tree_node@PAVCFlyTarget@@PAX@std@@@1@PAU?$_Tree_node@PAVCFlyTarget@@PAX@1@@Z ; std::_Tree_val<std::_Tree_simple_types<CFlyTarget *> >::_Erase_tree<std::allocator<std::_Tree_node<CFlyTarget *,void *> > >
; File C:\Program Files\Microsoft Visual Studio\2022\Community\VC\Tools\MSVC\14.34.31933\include\utility

; 653  :     _Ty _Old_val = static_cast<_Ty&&>(_Val);

  00043	8b c7		 mov	 eax, edi

; 654  :     _Val         = static_cast<_Other&&>(_New_val);

  00045	8b 3f		 mov	 edi, DWORD PTR [edi]
; File C:\Program Files\Microsoft Visual Studio\2022\Community\VC\Tools\MSVC\14.34.31933\include\xmemory

; 255  :         ::operator delete(_Ptr, _Bytes);

  00047	6a 14		 push	 20			; 00000014H
  00049	50		 push	 eax
  0004a	e8 00 00 00 00	 call	 ??3@YAXPAXI@Z		; operator delete
  0004f	83 c4 08	 add	 esp, 8
; File C:\Program Files\Microsoft Visual Studio\2022\Community\VC\Tools\MSVC\14.34.31933\include\xtree

; 745  :         while (!_Rootnode->_Isnil) { // free subtrees, then node

  00052	80 7f 0d 00	 cmp	 BYTE PTR [edi+13], 0
  00056	74 e0		 je	 SHORT $LL23@ClearFlyTa
$LN24@ClearFlyTa:

; 1361 :         _Scary->_Mysize = 0;

  00058	5f		 pop	 edi
  00059	89 76 04	 mov	 DWORD PTR [esi+4], esi
  0005c	89 36		 mov	 DWORD PTR [esi], esi
  0005e	89 76 08	 mov	 DWORD PTR [esi+8], esi
  00061	5e		 pop	 esi
  00062	c7 43 04 00 00
	00 00		 mov	 DWORD PTR [ebx+4], 0
  00069	5b		 pop	 ebx
; File C:\Users\flourine\Desktop\Xantios\client-src\Code\GameLib\FlyTarget.h

; 79   : }

  0006a	8b e5		 mov	 esp, ebp
  0006c	5d		 pop	 ebp
  0006d	c3		 ret	 0
?ClearFlyTargeter@IFlyTargetableObject@@IAEXXZ ENDP	; IFlyTargetableObject::ClearFlyTargeter
_TEXT	ENDS
; Function compile flags: /Ogtp
; File C:\Users\flourine\Desktop\Xantios\client-src\Code\GameLib\FlyTarget.h
;	COMDAT ??1IFlyTargetableObject@@UAE@XZ
_TEXT	SEGMENT
??1IFlyTargetableObject@@UAE@XZ PROC			; IFlyTargetableObject::~IFlyTargetableObject, COMDAT
; _this$ = ecx

; 9    : 	virtual ~IFlyTargetableObject() {}

  00000	c7 01 00 00 00
	00		 mov	 DWORD PTR [ecx], OFFSET ??_7IFlyTargetableObject@@6B@
  00006	83 c1 04	 add	 ecx, 4
  00009	e9 00 00 00 00	 jmp	 ??1?$_Tree@V?$_Tset_traits@PAVCFlyTarget@@U?$less@PAVCFlyTarget@@@std@@V?$allocator@PAVCFlyTarget@@@3@$0A@@std@@@std@@QAE@XZ ; std::_Tree<std::_Tset_traits<CFlyTarget *,std::less<CFlyTarget *>,std::allocator<CFlyTarget *>,0> >::~_Tree<std::_Tset_traits<CFlyTarget *,std::less<CFlyTarget *>,std::allocator<CFlyTarget *>,0> >
??1IFlyTargetableObject@@UAE@XZ ENDP			; IFlyTargetableObject::~IFlyTargetableObject
_TEXT	ENDS
; Function compile flags: /Ogtp
; File C:\Program Files\Microsoft Visual Studio\2022\Community\VC\Tools\MSVC\14.34.31933\include\xmemory
;	COMDAT ??$_Allocate_manually_vector_aligned@U_Default_allocate_traits@std@@@std@@YAPAXI@Z
_TEXT	SEGMENT
__Bytes$ = 8						; size = 4
??$_Allocate_manually_vector_aligned@U_Default_allocate_traits@std@@@std@@YAPAXI@Z PROC ; std::_Allocate_manually_vector_aligned<std::_Default_allocate_traits>, COMDAT

; 127  : __declspec(allocator) void* _Allocate_manually_vector_aligned(const size_t _Bytes) {

  00000	55		 push	 ebp
  00001	8b ec		 mov	 ebp, esp

; 128  :     // allocate _Bytes manually aligned to at least _Big_allocation_alignment
; 129  :     const size_t _Block_size = _Non_user_size + _Bytes;

  00003	8b 45 08	 mov	 eax, DWORD PTR __Bytes$[ebp]
  00006	8d 48 23	 lea	 ecx, DWORD PTR [eax+35]

; 130  :     if (_Block_size <= _Bytes) {

  00009	3b c8		 cmp	 ecx, eax
  0000b	0f 86 00 00 00
	00		 jbe	 ?_Throw_bad_array_new_length@std@@YAXXZ ; std::_Throw_bad_array_new_length

; 77   :         return ::operator new(_Bytes);

  00011	51		 push	 ecx
  00012	e8 00 00 00 00	 call	 ??2@YAPAXI@Z		; operator new

; 131  :         _Throw_bad_array_new_length(); // add overflow
; 132  :     }
; 133  : 
; 134  :     const uintptr_t _Ptr_container = reinterpret_cast<uintptr_t>(_Traits::_Allocate(_Block_size));

  00017	8b c8		 mov	 ecx, eax

; 77   :         return ::operator new(_Bytes);

  00019	83 c4 04	 add	 esp, 4

; 135  :     _STL_VERIFY(_Ptr_container != 0, "invalid argument"); // validate even in release since we're doing p[-1]

  0001c	85 c9		 test	 ecx, ecx
  0001e	74 0b		 je	 SHORT $LN7@Allocate_m

; 136  :     void* const _Ptr = reinterpret_cast<void*>((_Ptr_container + _Non_user_size) & ~(_Big_allocation_alignment - 1));

  00020	8d 41 23	 lea	 eax, DWORD PTR [ecx+35]
  00023	83 e0 e0	 and	 eax, -32		; ffffffe0H

; 137  :     static_cast<uintptr_t*>(_Ptr)[-1] = _Ptr_container;

  00026	89 48 fc	 mov	 DWORD PTR [eax-4], ecx

; 138  : 
; 139  : #ifdef _DEBUG
; 140  :     static_cast<uintptr_t*>(_Ptr)[-2] = _Big_allocation_sentinel;
; 141  : #endif // _DEBUG
; 142  :     return _Ptr;
; 143  : }

  00029	5d		 pop	 ebp
  0002a	c3		 ret	 0
$LN7@Allocate_m:

; 135  :     _STL_VERIFY(_Ptr_container != 0, "invalid argument"); // validate even in release since we're doing p[-1]

  0002b	e9 00 00 00 00	 jmp	 __invalid_parameter_noinfo_noreturn
??$_Allocate_manually_vector_aligned@U_Default_allocate_traits@std@@@std@@YAPAXI@Z ENDP ; std::_Allocate_manually_vector_aligned<std::_Default_allocate_traits>
_TEXT	ENDS
; Function compile flags: /Ogtp
; File C:\Users\flourine\Desktop\Xantios\client-src\extern\include\directX\d3dx9math.h
;	COMDAT ??0D3DXMATRIX@@QAE@XZ
_TEXT	SEGMENT
??0D3DXMATRIX@@QAE@XZ PROC				; D3DXMATRIX::D3DXMATRIX, COMDAT
; _this$ = ecx

; 315  :     D3DXMATRIX() {};

  00000	8b c1		 mov	 eax, ecx
  00002	c3		 ret	 0
??0D3DXMATRIX@@QAE@XZ ENDP				; D3DXMATRIX::D3DXMATRIX
_TEXT	ENDS
; Function compile flags: /Ogtp
; File C:\Program Files\Microsoft Visual Studio\2022\Community\VC\Tools\MSVC\14.34.31933\include\exception
;	COMDAT ?_Throw_bad_array_new_length@std@@YAXXZ
_TEXT	SEGMENT
$T1 = -12						; size = 12
?_Throw_bad_array_new_length@std@@YAXXZ PROC		; std::_Throw_bad_array_new_length, COMDAT

; 323  : [[noreturn]] inline void _Throw_bad_array_new_length() {

  00000	55		 push	 ebp
  00001	8b ec		 mov	 ebp, esp
  00003	83 ec 0c	 sub	 esp, 12			; 0000000cH

; 324  :     _THROW(bad_array_new_length{});

  00006	8d 4d f4	 lea	 ecx, DWORD PTR $T1[ebp]
  00009	e8 00 00 00 00	 call	 ??0bad_array_new_length@std@@QAE@XZ ; std::bad_array_new_length::bad_array_new_length
  0000e	68 00 00 00 00	 push	 OFFSET __TI3?AVbad_array_new_length@std@@
  00013	8d 45 f4	 lea	 eax, DWORD PTR $T1[ebp]
  00016	50		 push	 eax
  00017	e8 00 00 00 00	 call	 __CxxThrowException@8
$LN3@Throw_bad_:
  0001c	cc		 int	 3
?_Throw_bad_array_new_length@std@@YAXXZ ENDP		; std::_Throw_bad_array_new_length
_TEXT	ENDS
; Function compile flags: /Ogtp
; File C:\Program Files\Microsoft Visual Studio\2022\Community\VC\Tools\MSVC\14.34.31933\include\vcruntime_exception.h
;	COMDAT ??_Gbad_array_new_length@std@@UAEPAXI@Z
_TEXT	SEGMENT
___flags$ = 8						; size = 4
??_Gbad_array_new_length@std@@UAEPAXI@Z PROC		; std::bad_array_new_length::`scalar deleting destructor', COMDAT
; _this$ = ecx
  00000	55		 push	 ebp
  00001	8b ec		 mov	 ebp, esp

; 89   :     {

  00003	56		 push	 esi
  00004	8b f1		 mov	 esi, ecx

; 90   :         __std_exception_destroy(&_Data);

  00006	8d 46 04	 lea	 eax, DWORD PTR [esi+4]
  00009	c7 06 00 00 00
	00		 mov	 DWORD PTR [esi], OFFSET ??_7exception@std@@6B@
  0000f	50		 push	 eax
  00010	e8 00 00 00 00	 call	 ___std_exception_destroy
  00015	83 c4 04	 add	 esp, 4
  00018	f6 45 08 01	 test	 BYTE PTR ___flags$[ebp], 1
  0001c	74 0b		 je	 SHORT $LN12@scalar
  0001e	6a 0c		 push	 12			; 0000000cH
  00020	56		 push	 esi
  00021	e8 00 00 00 00	 call	 ??3@YAXPAXI@Z		; operator delete
  00026	83 c4 08	 add	 esp, 8
$LN12@scalar:
  00029	8b c6		 mov	 eax, esi
  0002b	5e		 pop	 esi
  0002c	5d		 pop	 ebp
  0002d	c2 04 00	 ret	 4
??_Gbad_array_new_length@std@@UAEPAXI@Z ENDP		; std::bad_array_new_length::`scalar deleting destructor'
_TEXT	ENDS
; Function compile flags: /Ogtp
; File C:\Program Files\Microsoft Visual Studio\2022\Community\VC\Tools\MSVC\14.34.31933\include\vcruntime_exception.h
;	COMDAT ??0bad_array_new_length@std@@QAE@ABV01@@Z
_TEXT	SEGMENT
___that$ = 8						; size = 4
??0bad_array_new_length@std@@QAE@ABV01@@Z PROC		; std::bad_array_new_length::bad_array_new_length, COMDAT
; _this$ = ecx
  00000	55		 push	 ebp
  00001	8b ec		 mov	 ebp, esp

; 72   :     {

  00003	56		 push	 esi
  00004	8b f1		 mov	 esi, ecx
  00006	0f 57 c0	 xorps	 xmm0, xmm0

; 71   :         : _Data()

  00009	8d 46 04	 lea	 eax, DWORD PTR [esi+4]

; 73   :         __std_exception_copy(&_Other._Data, &_Data);

  0000c	50		 push	 eax
  0000d	c7 06 00 00 00
	00		 mov	 DWORD PTR [esi], OFFSET ??_7exception@std@@6B@
  00013	66 0f d6 00	 movq	 QWORD PTR [eax], xmm0
  00017	8b 45 08	 mov	 eax, DWORD PTR ___that$[ebp]
  0001a	83 c0 04	 add	 eax, 4
  0001d	50		 push	 eax
  0001e	e8 00 00 00 00	 call	 ___std_exception_copy
  00023	83 c4 08	 add	 esp, 8
  00026	c7 06 00 00 00
	00		 mov	 DWORD PTR [esi], OFFSET ??_7bad_array_new_length@std@@6B@
  0002c	8b c6		 mov	 eax, esi
  0002e	5e		 pop	 esi
  0002f	5d		 pop	 ebp
  00030	c2 04 00	 ret	 4
??0bad_array_new_length@std@@QAE@ABV01@@Z ENDP		; std::bad_array_new_length::bad_array_new_length
_TEXT	ENDS
; Function compile flags: /Ogtp
; File C:\Program Files\Microsoft Visual Studio\2022\Community\VC\Tools\MSVC\14.34.31933\include\vcruntime_exception.h
;	COMDAT ??1bad_array_new_length@std@@UAE@XZ
_TEXT	SEGMENT
??1bad_array_new_length@std@@UAE@XZ PROC		; std::bad_array_new_length::~bad_array_new_length, COMDAT
; _this$ = ecx

; 90   :         __std_exception_destroy(&_Data);

  00000	8d 41 04	 lea	 eax, DWORD PTR [ecx+4]
  00003	c7 01 00 00 00
	00		 mov	 DWORD PTR [ecx], OFFSET ??_7exception@std@@6B@
  00009	50		 push	 eax
  0000a	e8 00 00 00 00	 call	 ___std_exception_destroy
  0000f	59		 pop	 ecx
  00010	c3		 ret	 0
??1bad_array_new_length@std@@UAE@XZ ENDP		; std::bad_array_new_length::~bad_array_new_length
_TEXT	ENDS
; Function compile flags: /Ogtp
; File C:\Program Files\Microsoft Visual Studio\2022\Community\VC\Tools\MSVC\14.34.31933\include\vcruntime_exception.h
;	COMDAT ??0bad_array_new_length@std@@QAE@XZ
_TEXT	SEGMENT
??0bad_array_new_length@std@@QAE@XZ PROC		; std::bad_array_new_length::bad_array_new_length, COMDAT
; _this$ = ecx

; 141  :     {

  00000	0f 57 c0	 xorps	 xmm0, xmm0

; 142  :     }

  00003	8b c1		 mov	 eax, ecx

; 65   :         : _Data()

  00005	66 0f d6 41 04	 movq	 QWORD PTR [ecx+4], xmm0

; 66   :     {
; 67   :         _Data._What = _Message;

  0000a	c7 41 04 00 00
	00 00		 mov	 DWORD PTR [ecx+4], OFFSET ??_C@_0BF@KINCDENJ@bad?5array?5new?5length@

; 141  :     {

  00011	c7 01 00 00 00
	00		 mov	 DWORD PTR [ecx], OFFSET ??_7bad_array_new_length@std@@6B@

; 142  :     }

  00017	c3		 ret	 0
??0bad_array_new_length@std@@QAE@XZ ENDP		; std::bad_array_new_length::bad_array_new_length
_TEXT	ENDS
; Function compile flags: /Ogtp
; File C:\Program Files\Microsoft Visual Studio\2022\Community\VC\Tools\MSVC\14.34.31933\include\vcruntime_exception.h
;	COMDAT ??_Gbad_alloc@std@@UAEPAXI@Z
_TEXT	SEGMENT
___flags$ = 8						; size = 4
??_Gbad_alloc@std@@UAEPAXI@Z PROC			; std::bad_alloc::`scalar deleting destructor', COMDAT
; _this$ = ecx
  00000	55		 push	 ebp
  00001	8b ec		 mov	 ebp, esp

; 89   :     {

  00003	56		 push	 esi
  00004	8b f1		 mov	 esi, ecx

; 90   :         __std_exception_destroy(&_Data);

  00006	8d 46 04	 lea	 eax, DWORD PTR [esi+4]
  00009	c7 06 00 00 00
	00		 mov	 DWORD PTR [esi], OFFSET ??_7exception@std@@6B@
  0000f	50		 push	 eax
  00010	e8 00 00 00 00	 call	 ___std_exception_destroy
  00015	83 c4 04	 add	 esp, 4
  00018	f6 45 08 01	 test	 BYTE PTR ___flags$[ebp], 1
  0001c	74 0b		 je	 SHORT $LN9@scalar
  0001e	6a 0c		 push	 12			; 0000000cH
  00020	56		 push	 esi
  00021	e8 00 00 00 00	 call	 ??3@YAXPAXI@Z		; operator delete
  00026	83 c4 08	 add	 esp, 8
$LN9@scalar:
  00029	8b c6		 mov	 eax, esi
  0002b	5e		 pop	 esi
  0002c	5d		 pop	 ebp
  0002d	c2 04 00	 ret	 4
??_Gbad_alloc@std@@UAEPAXI@Z ENDP			; std::bad_alloc::`scalar deleting destructor'
_TEXT	ENDS
; Function compile flags: /Ogtp
; File C:\Program Files\Microsoft Visual Studio\2022\Community\VC\Tools\MSVC\14.34.31933\include\vcruntime_exception.h
;	COMDAT ??0bad_alloc@std@@QAE@ABV01@@Z
_TEXT	SEGMENT
___that$ = 8						; size = 4
??0bad_alloc@std@@QAE@ABV01@@Z PROC			; std::bad_alloc::bad_alloc, COMDAT
; _this$ = ecx
  00000	55		 push	 ebp
  00001	8b ec		 mov	 ebp, esp

; 72   :     {

  00003	56		 push	 esi
  00004	8b f1		 mov	 esi, ecx
  00006	0f 57 c0	 xorps	 xmm0, xmm0

; 71   :         : _Data()

  00009	8d 46 04	 lea	 eax, DWORD PTR [esi+4]

; 73   :         __std_exception_copy(&_Other._Data, &_Data);

  0000c	50		 push	 eax
  0000d	c7 06 00 00 00
	00		 mov	 DWORD PTR [esi], OFFSET ??_7exception@std@@6B@
  00013	66 0f d6 00	 movq	 QWORD PTR [eax], xmm0
  00017	8b 45 08	 mov	 eax, DWORD PTR ___that$[ebp]
  0001a	83 c0 04	 add	 eax, 4
  0001d	50		 push	 eax
  0001e	e8 00 00 00 00	 call	 ___std_exception_copy
  00023	83 c4 08	 add	 esp, 8
  00026	c7 06 00 00 00
	00		 mov	 DWORD PTR [esi], OFFSET ??_7bad_alloc@std@@6B@
  0002c	8b c6		 mov	 eax, esi
  0002e	5e		 pop	 esi
  0002f	5d		 pop	 ebp
  00030	c2 04 00	 ret	 4
??0bad_alloc@std@@QAE@ABV01@@Z ENDP			; std::bad_alloc::bad_alloc
_TEXT	ENDS
; Function compile flags: /Ogtp
; File C:\Program Files\Microsoft Visual Studio\2022\Community\VC\Tools\MSVC\14.34.31933\include\vcruntime_exception.h
;	COMDAT ??_Gexception@std@@UAEPAXI@Z
_TEXT	SEGMENT
___flags$ = 8						; size = 4
??_Gexception@std@@UAEPAXI@Z PROC			; std::exception::`scalar deleting destructor', COMDAT
; _this$ = ecx
  00000	55		 push	 ebp
  00001	8b ec		 mov	 ebp, esp

; 89   :     {

  00003	56		 push	 esi
  00004	8b f1		 mov	 esi, ecx

; 90   :         __std_exception_destroy(&_Data);

  00006	8d 46 04	 lea	 eax, DWORD PTR [esi+4]
  00009	c7 06 00 00 00
	00		 mov	 DWORD PTR [esi], OFFSET ??_7exception@std@@6B@
  0000f	50		 push	 eax
  00010	e8 00 00 00 00	 call	 ___std_exception_destroy
  00015	83 c4 04	 add	 esp, 4
  00018	f6 45 08 01	 test	 BYTE PTR ___flags$[ebp], 1
  0001c	74 0b		 je	 SHORT $LN6@scalar
  0001e	6a 0c		 push	 12			; 0000000cH
  00020	56		 push	 esi
  00021	e8 00 00 00 00	 call	 ??3@YAXPAXI@Z		; operator delete
  00026	83 c4 08	 add	 esp, 8
$LN6@scalar:
  00029	8b c6		 mov	 eax, esi
  0002b	5e		 pop	 esi
  0002c	5d		 pop	 ebp
  0002d	c2 04 00	 ret	 4
??_Gexception@std@@UAEPAXI@Z ENDP			; std::exception::`scalar deleting destructor'
_TEXT	ENDS
; Function compile flags: /Ogtp
; File C:\Program Files\Microsoft Visual Studio\2022\Community\VC\Tools\MSVC\14.34.31933\include\vcruntime_exception.h
;	COMDAT ?what@exception@std@@UBEPBDXZ
_TEXT	SEGMENT
?what@exception@std@@UBEPBDXZ PROC			; std::exception::what, COMDAT
; _this$ = ecx

; 95   :         return _Data._What ? _Data._What : "Unknown exception";

  00000	8b 49 04	 mov	 ecx, DWORD PTR [ecx+4]
  00003	b8 00 00 00 00	 mov	 eax, OFFSET ??_C@_0BC@EOODALEL@Unknown?5exception@
  00008	85 c9		 test	 ecx, ecx
  0000a	0f 45 c1	 cmovne	 eax, ecx

; 96   :     }

  0000d	c3		 ret	 0
?what@exception@std@@UBEPBDXZ ENDP			; std::exception::what
_TEXT	ENDS
; Function compile flags: /Ogtp
; File C:\Program Files\Microsoft Visual Studio\2022\Community\VC\Tools\MSVC\14.34.31933\include\vcruntime_exception.h
;	COMDAT ??1exception@std@@UAE@XZ
_TEXT	SEGMENT
??1exception@std@@UAE@XZ PROC				; std::exception::~exception, COMDAT
; _this$ = ecx

; 90   :         __std_exception_destroy(&_Data);

  00000	8d 41 04	 lea	 eax, DWORD PTR [ecx+4]
  00003	c7 01 00 00 00
	00		 mov	 DWORD PTR [ecx], OFFSET ??_7exception@std@@6B@
  00009	50		 push	 eax
  0000a	e8 00 00 00 00	 call	 ___std_exception_destroy
  0000f	59		 pop	 ecx

; 91   :     }

  00010	c3		 ret	 0
??1exception@std@@UAE@XZ ENDP				; std::exception::~exception
_TEXT	ENDS
; Function compile flags: /Ogtp
; File C:\Program Files\Microsoft Visual Studio\2022\Community\VC\Tools\MSVC\14.34.31933\include\vcruntime_exception.h
;	COMDAT ??0exception@std@@QAE@ABV01@@Z
_TEXT	SEGMENT
__Other$ = 8						; size = 4
??0exception@std@@QAE@ABV01@@Z PROC			; std::exception::exception, COMDAT
; _this$ = ecx

; 72   :     {

  00000	55		 push	 ebp
  00001	8b ec		 mov	 ebp, esp
  00003	56		 push	 esi
  00004	8b f1		 mov	 esi, ecx
  00006	0f 57 c0	 xorps	 xmm0, xmm0
  00009	8d 46 04	 lea	 eax, DWORD PTR [esi+4]

; 73   :         __std_exception_copy(&_Other._Data, &_Data);

  0000c	50		 push	 eax
  0000d	c7 06 00 00 00
	00		 mov	 DWORD PTR [esi], OFFSET ??_7exception@std@@6B@
  00013	66 0f d6 00	 movq	 QWORD PTR [eax], xmm0
  00017	8b 45 08	 mov	 eax, DWORD PTR __Other$[ebp]
  0001a	83 c0 04	 add	 eax, 4
  0001d	50		 push	 eax
  0001e	e8 00 00 00 00	 call	 ___std_exception_copy
  00023	83 c4 08	 add	 esp, 8

; 74   :     }

  00026	8b c6		 mov	 eax, esi
  00028	5e		 pop	 esi
  00029	5d		 pop	 ebp
  0002a	c2 04 00	 ret	 4
??0exception@std@@QAE@ABV01@@Z ENDP			; std::exception::exception
_TEXT	ENDS
; Function compile flags: /Ogtp
; File C:\Users\flourine\Desktop\Xantios\client-src\Code\GameLib\ActorInstance.cpp
;	COMDAT ?__empty_global_delete@@YAXPAXIW4align_val_t@std@@@Z
_TEXT	SEGMENT
___formal$ = 8						; size = 4
___formal$ = 12						; size = 4
___formal$ = 16						; size = 4
?__empty_global_delete@@YAXPAXIW4align_val_t@std@@@Z PROC ; __empty_global_delete, COMDAT

  00000	c2 00 00	 ret	 0
?__empty_global_delete@@YAXPAXIW4align_val_t@std@@@Z ENDP ; __empty_global_delete
_TEXT	ENDS
; Function compile flags: /Ogtp
; File C:\Users\flourine\Desktop\Xantios\client-src\Code\GameLib\ActorInstance.cpp
;	COMDAT ?__empty_global_delete@@YAXPAXW4align_val_t@std@@@Z
_TEXT	SEGMENT
___formal$ = 8						; size = 4
___formal$ = 12						; size = 4
?__empty_global_delete@@YAXPAXW4align_val_t@std@@@Z PROC ; __empty_global_delete, COMDAT

  00000	c2 00 00	 ret	 0
?__empty_global_delete@@YAXPAXW4align_val_t@std@@@Z ENDP ; __empty_global_delete
_TEXT	ENDS
; Function compile flags: /Ogtp
; File C:\Users\flourine\Desktop\Xantios\client-src\Code\GameLib\ActorInstance.cpp
;	COMDAT ?__empty_global_delete@@YAXPAXI@Z
_TEXT	SEGMENT
___formal$ = 8						; size = 4
___formal$ = 12						; size = 4
?__empty_global_delete@@YAXPAXI@Z PROC			; __empty_global_delete, COMDAT

  00000	c2 00 00	 ret	 0
?__empty_global_delete@@YAXPAXI@Z ENDP			; __empty_global_delete
_TEXT	ENDS
; Function compile flags: /Ogtp
; File C:\Users\flourine\Desktop\Xantios\client-src\Code\GameLib\ActorInstance.cpp
;	COMDAT ?__empty_global_delete@@YAXPAX@Z
_TEXT	SEGMENT
___formal$ = 8						; size = 4
?__empty_global_delete@@YAXPAX@Z PROC			; __empty_global_delete, COMDAT

  00000	c2 00 00	 ret	 0
?__empty_global_delete@@YAXPAX@Z ENDP			; __empty_global_delete
_TEXT	ENDS
; Function compile flags: /Ogtp
;	COMDAT ??_H@YGXPAXIIP6EPAX0@Z@Z
_TEXT	SEGMENT
___t$ = 8						; size = 4
___s$ = 12						; size = 4
___n$ = 16						; size = 4
___f$ = 20						; size = 4
??_H@YGXPAXIIP6EPAX0@Z@Z PROC				; `vector constructor iterator', COMDAT
  00000	55		 push	 ebp
  00001	8b ec		 mov	 ebp, esp
  00003	56		 push	 esi
  00004	8b 75 10	 mov	 esi, DWORD PTR ___n$[ebp]
  00007	85 f6		 test	 esi, esi
  00009	74 16		 je	 SHORT $LN6@vector
  0000b	53		 push	 ebx
  0000c	8b 5d 14	 mov	 ebx, DWORD PTR ___f$[ebp]
  0000f	57		 push	 edi
  00010	8b 7d 08	 mov	 edi, DWORD PTR ___t$[ebp]
$LL2@vector:
  00013	8b cf		 mov	 ecx, edi
  00015	ff d3		 call	 ebx
  00017	03 7d 0c	 add	 edi, DWORD PTR ___s$[ebp]
  0001a	83 ee 01	 sub	 esi, 1
  0001d	75 f4		 jne	 SHORT $LL2@vector
  0001f	5f		 pop	 edi
  00020	5b		 pop	 ebx
$LN6@vector:
  00021	5e		 pop	 esi
  00022	5d		 pop	 ebp
  00023	c2 10 00	 ret	 16			; 00000010H
??_H@YGXPAXIIP6EPAX0@Z@Z ENDP				; `vector constructor iterator'
_TEXT	ENDS
END
