; Listing generated by Microsoft (R) Optimizing Compiler Version 19.34.31942.0 

	TITLE	C:\Users\flourine\Desktop\Xantios\client-src\Code\GameLib\Distribute\ActorInstanceAttach.obj
	.686P
	.XMM
	include listing.inc
	.model	flat

INCLUDELIB LIBCMT
INCLUDELIB OLDNAMES

PUBLIC	??_7?$CDynamicPoolEx@VCTextureAnimationCWDecorator@NEffectUpdateDecorator@@@@6B@ ; CDynamicPoolEx<NEffectUpdateDecorator::CTextureAnimationCWDecorator>::`vftable'
PUBLIC	??_G?$CDynamicPoolEx@VCTextureAnimationCWDecorator@NEffectUpdateDecorator@@@@UAEPAXI@Z ; CDynamicPoolEx<NEffectUpdateDecorator::CTextureAnimationCWDecorator>::`scalar deleting destructor'
PUBLIC	??_7?$CDynamicPoolEx@VCNullDecorator@NEffectUpdateDecorator@@@@6B@ ; CDynamicPoolEx<NEffectUpdateDecorator::CNullDecorator>::`vftable'
PUBLIC	??_G?$CDynamicPoolEx@VCNullDecorator@NEffectUpdateDecorator@@@@UAEPAXI@Z ; CDynamicPoolEx<NEffectUpdateDecorator::CNullDecorator>::`scalar deleting destructor'
PUBLIC	??_7?$CDynamicPoolEx@VCHeaderDecorator@NEffectUpdateDecorator@@@@6B@ ; CDynamicPoolEx<NEffectUpdateDecorator::CHeaderDecorator>::`vftable'
PUBLIC	??_G?$CDynamicPoolEx@VCHeaderDecorator@NEffectUpdateDecorator@@@@UAEPAXI@Z ; CDynamicPoolEx<NEffectUpdateDecorator::CHeaderDecorator>::`scalar deleting destructor'
PUBLIC	?_Fake_alloc@std@@3U_Fake_allocator@1@B		; std::_Fake_alloc
PUBLIC	?USE_WEAPON_SPECULAR@@3HA			; USE_WEAPON_SPECULAR
PUBLIC	?USE_VIETNAM_CONVERT_WEAPON_VNUM@@3HA		; USE_VIETNAM_CONVERT_WEAPON_VNUM
PUBLIC	??_R4?$CDynamicPoolEx@VCHeaderDecorator@NEffectUpdateDecorator@@@@6B@ ; CDynamicPoolEx<NEffectUpdateDecorator::CHeaderDecorator>::`RTTI Complete Object Locator'
PUBLIC	??_R0?AV?$CDynamicPoolEx@VCHeaderDecorator@NEffectUpdateDecorator@@@@@8 ; CDynamicPoolEx<NEffectUpdateDecorator::CHeaderDecorator> `RTTI Type Descriptor'
PUBLIC	??_R3?$CDynamicPoolEx@VCHeaderDecorator@NEffectUpdateDecorator@@@@8 ; CDynamicPoolEx<NEffectUpdateDecorator::CHeaderDecorator>::`RTTI Class Hierarchy Descriptor'
PUBLIC	??_R2?$CDynamicPoolEx@VCHeaderDecorator@NEffectUpdateDecorator@@@@8 ; CDynamicPoolEx<NEffectUpdateDecorator::CHeaderDecorator>::`RTTI Base Class Array'
PUBLIC	??_R1A@?0A@EA@?$CDynamicPoolEx@VCHeaderDecorator@NEffectUpdateDecorator@@@@8 ; CDynamicPoolEx<NEffectUpdateDecorator::CHeaderDecorator>::`RTTI Base Class Descriptor at (0,-1,0,64)'
PUBLIC	??_R4?$CDynamicPoolEx@VCNullDecorator@NEffectUpdateDecorator@@@@6B@ ; CDynamicPoolEx<NEffectUpdateDecorator::CNullDecorator>::`RTTI Complete Object Locator'
PUBLIC	??_R0?AV?$CDynamicPoolEx@VCNullDecorator@NEffectUpdateDecorator@@@@@8 ; CDynamicPoolEx<NEffectUpdateDecorator::CNullDecorator> `RTTI Type Descriptor'
PUBLIC	??_R3?$CDynamicPoolEx@VCNullDecorator@NEffectUpdateDecorator@@@@8 ; CDynamicPoolEx<NEffectUpdateDecorator::CNullDecorator>::`RTTI Class Hierarchy Descriptor'
PUBLIC	??_R2?$CDynamicPoolEx@VCNullDecorator@NEffectUpdateDecorator@@@@8 ; CDynamicPoolEx<NEffectUpdateDecorator::CNullDecorator>::`RTTI Base Class Array'
PUBLIC	??_R1A@?0A@EA@?$CDynamicPoolEx@VCNullDecorator@NEffectUpdateDecorator@@@@8 ; CDynamicPoolEx<NEffectUpdateDecorator::CNullDecorator>::`RTTI Base Class Descriptor at (0,-1,0,64)'
PUBLIC	??_R4?$CDynamicPoolEx@VCTextureAnimationCWDecorator@NEffectUpdateDecorator@@@@6B@ ; CDynamicPoolEx<NEffectUpdateDecorator::CTextureAnimationCWDecorator>::`RTTI Complete Object Locator'
PUBLIC	??_R0?AV?$CDynamicPoolEx@VCTextureAnimationCWDecorator@NEffectUpdateDecorator@@@@@8 ; CDynamicPoolEx<NEffectUpdateDecorator::CTextureAnimationCWDecorator> `RTTI Type Descriptor'
PUBLIC	??_R3?$CDynamicPoolEx@VCTextureAnimationCWDecorator@NEffectUpdateDecorator@@@@8 ; CDynamicPoolEx<NEffectUpdateDecorator::CTextureAnimationCWDecorator>::`RTTI Class Hierarchy Descriptor'
PUBLIC	??_R2?$CDynamicPoolEx@VCTextureAnimationCWDecorator@NEffectUpdateDecorator@@@@8 ; CDynamicPoolEx<NEffectUpdateDecorator::CTextureAnimationCWDecorator>::`RTTI Base Class Array'
PUBLIC	??_R1A@?0A@EA@?$CDynamicPoolEx@VCTextureAnimationCWDecorator@NEffectUpdateDecorator@@@@8 ; CDynamicPoolEx<NEffectUpdateDecorator::CTextureAnimationCWDecorator>::`RTTI Base Class Descriptor at (0,-1,0,64)'
PUBLIC	??_R4?$CDynamicPoolEx@VCTextureAnimationCCWDecorator@NEffectUpdateDecorator@@@@6B@ ; CDynamicPoolEx<NEffectUpdateDecorator::CTextureAnimationCCWDecorator>::`RTTI Complete Object Locator'
PUBLIC	??_R0?AV?$CDynamicPoolEx@VCTextureAnimationCCWDecorator@NEffectUpdateDecorator@@@@@8 ; CDynamicPoolEx<NEffectUpdateDecorator::CTextureAnimationCCWDecorator> `RTTI Type Descriptor'
PUBLIC	??_R3?$CDynamicPoolEx@VCTextureAnimationCCWDecorator@NEffectUpdateDecorator@@@@8 ; CDynamicPoolEx<NEffectUpdateDecorator::CTextureAnimationCCWDecorator>::`RTTI Class Hierarchy Descriptor'
PUBLIC	??_R2?$CDynamicPoolEx@VCTextureAnimationCCWDecorator@NEffectUpdateDecorator@@@@8 ; CDynamicPoolEx<NEffectUpdateDecorator::CTextureAnimationCCWDecorator>::`RTTI Base Class Array'
PUBLIC	??_R1A@?0A@EA@?$CDynamicPoolEx@VCTextureAnimationCCWDecorator@NEffectUpdateDecorator@@@@8 ; CDynamicPoolEx<NEffectUpdateDecorator::CTextureAnimationCCWDecorator>::`RTTI Base Class Descriptor at (0,-1,0,64)'
PUBLIC	??_R4?$CDynamicPoolEx@VCTextureAnimationRandomDecorator@NEffectUpdateDecorator@@@@6B@ ; CDynamicPoolEx<NEffectUpdateDecorator::CTextureAnimationRandomDecorator>::`RTTI Complete Object Locator'
PUBLIC	??_R0?AV?$CDynamicPoolEx@VCTextureAnimationRandomDecorator@NEffectUpdateDecorator@@@@@8 ; CDynamicPoolEx<NEffectUpdateDecorator::CTextureAnimationRandomDecorator> `RTTI Type Descriptor'
PUBLIC	??_R3?$CDynamicPoolEx@VCTextureAnimationRandomDecorator@NEffectUpdateDecorator@@@@8 ; CDynamicPoolEx<NEffectUpdateDecorator::CTextureAnimationRandomDecorator>::`RTTI Class Hierarchy Descriptor'
PUBLIC	??_R2?$CDynamicPoolEx@VCTextureAnimationRandomDecorator@NEffectUpdateDecorator@@@@8 ; CDynamicPoolEx<NEffectUpdateDecorator::CTextureAnimationRandomDecorator>::`RTTI Base Class Array'
PUBLIC	??_R1A@?0A@EA@?$CDynamicPoolEx@VCTextureAnimationRandomDecorator@NEffectUpdateDecorator@@@@8 ; CDynamicPoolEx<NEffectUpdateDecorator::CTextureAnimationRandomDecorator>::`RTTI Base Class Descriptor at (0,-1,0,64)'
PUBLIC	??_R4?$CDynamicPoolEx@VCAirResistanceDecorator@NEffectUpdateDecorator@@@@6B@ ; CDynamicPoolEx<NEffectUpdateDecorator::CAirResistanceDecorator>::`RTTI Complete Object Locator'
PUBLIC	??_R0?AV?$CDynamicPoolEx@VCAirResistanceDecorator@NEffectUpdateDecorator@@@@@8 ; CDynamicPoolEx<NEffectUpdateDecorator::CAirResistanceDecorator> `RTTI Type Descriptor'
PUBLIC	??_R3?$CDynamicPoolEx@VCAirResistanceDecorator@NEffectUpdateDecorator@@@@8 ; CDynamicPoolEx<NEffectUpdateDecorator::CAirResistanceDecorator>::`RTTI Class Hierarchy Descriptor'
PUBLIC	??_R2?$CDynamicPoolEx@VCAirResistanceDecorator@NEffectUpdateDecorator@@@@8 ; CDynamicPoolEx<NEffectUpdateDecorator::CAirResistanceDecorator>::`RTTI Base Class Array'
PUBLIC	??_R1A@?0A@EA@?$CDynamicPoolEx@VCAirResistanceDecorator@NEffectUpdateDecorator@@@@8 ; CDynamicPoolEx<NEffectUpdateDecorator::CAirResistanceDecorator>::`RTTI Base Class Descriptor at (0,-1,0,64)'
PUBLIC	??_R4?$CDynamicPoolEx@VCGravityDecorator@NEffectUpdateDecorator@@@@6B@ ; CDynamicPoolEx<NEffectUpdateDecorator::CGravityDecorator>::`RTTI Complete Object Locator'
PUBLIC	??_R0?AV?$CDynamicPoolEx@VCGravityDecorator@NEffectUpdateDecorator@@@@@8 ; CDynamicPoolEx<NEffectUpdateDecorator::CGravityDecorator> `RTTI Type Descriptor'
PUBLIC	??_R3?$CDynamicPoolEx@VCGravityDecorator@NEffectUpdateDecorator@@@@8 ; CDynamicPoolEx<NEffectUpdateDecorator::CGravityDecorator>::`RTTI Class Hierarchy Descriptor'
PUBLIC	??_R2?$CDynamicPoolEx@VCGravityDecorator@NEffectUpdateDecorator@@@@8 ; CDynamicPoolEx<NEffectUpdateDecorator::CGravityDecorator>::`RTTI Base Class Array'
PUBLIC	??_R1A@?0A@EA@?$CDynamicPoolEx@VCGravityDecorator@NEffectUpdateDecorator@@@@8 ; CDynamicPoolEx<NEffectUpdateDecorator::CGravityDecorator>::`RTTI Base Class Descriptor at (0,-1,0,64)'
PUBLIC	??_R4?$CDynamicPoolEx@VCRotationDecorator@NEffectUpdateDecorator@@@@6B@ ; CDynamicPoolEx<NEffectUpdateDecorator::CRotationDecorator>::`RTTI Complete Object Locator'
PUBLIC	??_R0?AV?$CDynamicPoolEx@VCRotationDecorator@NEffectUpdateDecorator@@@@@8 ; CDynamicPoolEx<NEffectUpdateDecorator::CRotationDecorator> `RTTI Type Descriptor'
PUBLIC	??_R3?$CDynamicPoolEx@VCRotationDecorator@NEffectUpdateDecorator@@@@8 ; CDynamicPoolEx<NEffectUpdateDecorator::CRotationDecorator>::`RTTI Class Hierarchy Descriptor'
PUBLIC	??_R2?$CDynamicPoolEx@VCRotationDecorator@NEffectUpdateDecorator@@@@8 ; CDynamicPoolEx<NEffectUpdateDecorator::CRotationDecorator>::`RTTI Base Class Array'
PUBLIC	??_R1A@?0A@EA@?$CDynamicPoolEx@VCRotationDecorator@NEffectUpdateDecorator@@@@8 ; CDynamicPoolEx<NEffectUpdateDecorator::CRotationDecorator>::`RTTI Base Class Descriptor at (0,-1,0,64)'
PUBLIC	??_7?$CDynamicPoolEx@VCRotationDecorator@NEffectUpdateDecorator@@@@6B@ ; CDynamicPoolEx<NEffectUpdateDecorator::CRotationDecorator>::`vftable'
PUBLIC	??_G?$CDynamicPoolEx@VCRotationDecorator@NEffectUpdateDecorator@@@@UAEPAXI@Z ; CDynamicPoolEx<NEffectUpdateDecorator::CRotationDecorator>::`scalar deleting destructor'
PUBLIC	??_7?$CDynamicPoolEx@VCGravityDecorator@NEffectUpdateDecorator@@@@6B@ ; CDynamicPoolEx<NEffectUpdateDecorator::CGravityDecorator>::`vftable'
PUBLIC	??_G?$CDynamicPoolEx@VCGravityDecorator@NEffectUpdateDecorator@@@@UAEPAXI@Z ; CDynamicPoolEx<NEffectUpdateDecorator::CGravityDecorator>::`scalar deleting destructor'
PUBLIC	??_7?$CDynamicPoolEx@VCAirResistanceDecorator@NEffectUpdateDecorator@@@@6B@ ; CDynamicPoolEx<NEffectUpdateDecorator::CAirResistanceDecorator>::`vftable'
PUBLIC	??_G?$CDynamicPoolEx@VCAirResistanceDecorator@NEffectUpdateDecorator@@@@UAEPAXI@Z ; CDynamicPoolEx<NEffectUpdateDecorator::CAirResistanceDecorator>::`scalar deleting destructor'
PUBLIC	??_7?$CDynamicPoolEx@VCTextureAnimationRandomDecorator@NEffectUpdateDecorator@@@@6B@ ; CDynamicPoolEx<NEffectUpdateDecorator::CTextureAnimationRandomDecorator>::`vftable'
PUBLIC	??_G?$CDynamicPoolEx@VCTextureAnimationRandomDecorator@NEffectUpdateDecorator@@@@UAEPAXI@Z ; CDynamicPoolEx<NEffectUpdateDecorator::CTextureAnimationRandomDecorator>::`scalar deleting destructor'
PUBLIC	??_7?$CDynamicPoolEx@VCTextureAnimationCCWDecorator@NEffectUpdateDecorator@@@@6B@ ; CDynamicPoolEx<NEffectUpdateDecorator::CTextureAnimationCCWDecorator>::`vftable'
PUBLIC	??_G?$CDynamicPoolEx@VCTextureAnimationCCWDecorator@NEffectUpdateDecorator@@@@UAEPAXI@Z ; CDynamicPoolEx<NEffectUpdateDecorator::CTextureAnimationCCWDecorator>::`scalar deleting destructor'
EXTRN	??_E?$CDynamicPoolEx@VCTextureAnimationCWDecorator@NEffectUpdateDecorator@@@@UAEPAXI@Z:PROC ; CDynamicPoolEx<NEffectUpdateDecorator::CTextureAnimationCWDecorator>::`vector deleting destructor'
EXTRN	??_E?$CDynamicPoolEx@VCNullDecorator@NEffectUpdateDecorator@@@@UAEPAXI@Z:PROC ; CDynamicPoolEx<NEffectUpdateDecorator::CNullDecorator>::`vector deleting destructor'
EXTRN	??_E?$CDynamicPoolEx@VCHeaderDecorator@NEffectUpdateDecorator@@@@UAEPAXI@Z:PROC ; CDynamicPoolEx<NEffectUpdateDecorator::CHeaderDecorator>::`vector deleting destructor'
EXTRN	??_E?$CDynamicPoolEx@VCRotationDecorator@NEffectUpdateDecorator@@@@UAEPAXI@Z:PROC ; CDynamicPoolEx<NEffectUpdateDecorator::CRotationDecorator>::`vector deleting destructor'
EXTRN	??_E?$CDynamicPoolEx@VCGravityDecorator@NEffectUpdateDecorator@@@@UAEPAXI@Z:PROC ; CDynamicPoolEx<NEffectUpdateDecorator::CGravityDecorator>::`vector deleting destructor'
EXTRN	??_E?$CDynamicPoolEx@VCAirResistanceDecorator@NEffectUpdateDecorator@@@@UAEPAXI@Z:PROC ; CDynamicPoolEx<NEffectUpdateDecorator::CAirResistanceDecorator>::`vector deleting destructor'
EXTRN	??_E?$CDynamicPoolEx@VCTextureAnimationRandomDecorator@NEffectUpdateDecorator@@@@UAEPAXI@Z:PROC ; CDynamicPoolEx<NEffectUpdateDecorator::CTextureAnimationRandomDecorator>::`vector deleting destructor'
EXTRN	??_E?$CDynamicPoolEx@VCTextureAnimationCCWDecorator@NEffectUpdateDecorator@@@@UAEPAXI@Z:PROC ; CDynamicPoolEx<NEffectUpdateDecorator::CTextureAnimationCCWDecorator>::`vector deleting destructor'
EXTRN	??_7type_info@@6B@:QWORD			; type_info::`vftable'
_BSS	SEGMENT
?USE_VIETNAM_CONVERT_WEAPON_VNUM@@3HA DD 01H DUP (?)	; USE_VIETNAM_CONVERT_WEAPON_VNUM
_BSS	ENDS
;	COMDAT ??_7?$CDynamicPoolEx@VCTextureAnimationCCWDecorator@NEffectUpdateDecorator@@@@6B@
CONST	SEGMENT
??_7?$CDynamicPoolEx@VCTextureAnimationCCWDecorator@NEffectUpdateDecorator@@@@6B@ DD FLAT:??_R4?$CDynamicPoolEx@VCTextureAnimationCCWDecorator@NEffectUpdateDecorator@@@@6B@ ; CDynamicPoolEx<NEffectUpdateDecorator::CTextureAnimationCCWDecorator>::`vftable'
	DD	FLAT:??_E?$CDynamicPoolEx@VCTextureAnimationCCWDecorator@NEffectUpdateDecorator@@@@UAEPAXI@Z
CONST	ENDS
;	COMDAT ??_7?$CDynamicPoolEx@VCTextureAnimationRandomDecorator@NEffectUpdateDecorator@@@@6B@
CONST	SEGMENT
??_7?$CDynamicPoolEx@VCTextureAnimationRandomDecorator@NEffectUpdateDecorator@@@@6B@ DD FLAT:??_R4?$CDynamicPoolEx@VCTextureAnimationRandomDecorator@NEffectUpdateDecorator@@@@6B@ ; CDynamicPoolEx<NEffectUpdateDecorator::CTextureAnimationRandomDecorator>::`vftable'
	DD	FLAT:??_E?$CDynamicPoolEx@VCTextureAnimationRandomDecorator@NEffectUpdateDecorator@@@@UAEPAXI@Z
CONST	ENDS
;	COMDAT ??_7?$CDynamicPoolEx@VCAirResistanceDecorator@NEffectUpdateDecorator@@@@6B@
CONST	SEGMENT
??_7?$CDynamicPoolEx@VCAirResistanceDecorator@NEffectUpdateDecorator@@@@6B@ DD FLAT:??_R4?$CDynamicPoolEx@VCAirResistanceDecorator@NEffectUpdateDecorator@@@@6B@ ; CDynamicPoolEx<NEffectUpdateDecorator::CAirResistanceDecorator>::`vftable'
	DD	FLAT:??_E?$CDynamicPoolEx@VCAirResistanceDecorator@NEffectUpdateDecorator@@@@UAEPAXI@Z
CONST	ENDS
;	COMDAT ??_7?$CDynamicPoolEx@VCGravityDecorator@NEffectUpdateDecorator@@@@6B@
CONST	SEGMENT
??_7?$CDynamicPoolEx@VCGravityDecorator@NEffectUpdateDecorator@@@@6B@ DD FLAT:??_R4?$CDynamicPoolEx@VCGravityDecorator@NEffectUpdateDecorator@@@@6B@ ; CDynamicPoolEx<NEffectUpdateDecorator::CGravityDecorator>::`vftable'
	DD	FLAT:??_E?$CDynamicPoolEx@VCGravityDecorator@NEffectUpdateDecorator@@@@UAEPAXI@Z
CONST	ENDS
;	COMDAT ??_7?$CDynamicPoolEx@VCRotationDecorator@NEffectUpdateDecorator@@@@6B@
CONST	SEGMENT
??_7?$CDynamicPoolEx@VCRotationDecorator@NEffectUpdateDecorator@@@@6B@ DD FLAT:??_R4?$CDynamicPoolEx@VCRotationDecorator@NEffectUpdateDecorator@@@@6B@ ; CDynamicPoolEx<NEffectUpdateDecorator::CRotationDecorator>::`vftable'
	DD	FLAT:??_E?$CDynamicPoolEx@VCRotationDecorator@NEffectUpdateDecorator@@@@UAEPAXI@Z
CONST	ENDS
;	COMDAT ??_R1A@?0A@EA@?$CDynamicPoolEx@VCRotationDecorator@NEffectUpdateDecorator@@@@8
rdata$r	SEGMENT
??_R1A@?0A@EA@?$CDynamicPoolEx@VCRotationDecorator@NEffectUpdateDecorator@@@@8 DD FLAT:??_R0?AV?$CDynamicPoolEx@VCRotationDecorator@NEffectUpdateDecorator@@@@@8 ; CDynamicPoolEx<NEffectUpdateDecorator::CRotationDecorator>::`RTTI Base Class Descriptor at (0,-1,0,64)'
	DD	00H
	DD	00H
	DD	0ffffffffH
	DD	00H
	DD	040H
	DD	FLAT:??_R3?$CDynamicPoolEx@VCRotationDecorator@NEffectUpdateDecorator@@@@8
rdata$r	ENDS
;	COMDAT ??_R2?$CDynamicPoolEx@VCRotationDecorator@NEffectUpdateDecorator@@@@8
rdata$r	SEGMENT
??_R2?$CDynamicPoolEx@VCRotationDecorator@NEffectUpdateDecorator@@@@8 DD FLAT:??_R1A@?0A@EA@?$CDynamicPoolEx@VCRotationDecorator@NEffectUpdateDecorator@@@@8 ; CDynamicPoolEx<NEffectUpdateDecorator::CRotationDecorator>::`RTTI Base Class Array'
rdata$r	ENDS
;	COMDAT ??_R3?$CDynamicPoolEx@VCRotationDecorator@NEffectUpdateDecorator@@@@8
rdata$r	SEGMENT
??_R3?$CDynamicPoolEx@VCRotationDecorator@NEffectUpdateDecorator@@@@8 DD 00H ; CDynamicPoolEx<NEffectUpdateDecorator::CRotationDecorator>::`RTTI Class Hierarchy Descriptor'
	DD	00H
	DD	01H
	DD	FLAT:??_R2?$CDynamicPoolEx@VCRotationDecorator@NEffectUpdateDecorator@@@@8
rdata$r	ENDS
;	COMDAT ??_R0?AV?$CDynamicPoolEx@VCRotationDecorator@NEffectUpdateDecorator@@@@@8
data$rs	SEGMENT
??_R0?AV?$CDynamicPoolEx@VCRotationDecorator@NEffectUpdateDecorator@@@@@8 DD FLAT:??_7type_info@@6B@ ; CDynamicPoolEx<NEffectUpdateDecorator::CRotationDecorator> `RTTI Type Descriptor'
	DD	00H
	DB	'.?AV?$CDynamicPoolEx@VCRotationDecorator@NEffectUpdateDe'
	DB	'corator@@@@', 00H
data$rs	ENDS
;	COMDAT ??_R4?$CDynamicPoolEx@VCRotationDecorator@NEffectUpdateDecorator@@@@6B@
rdata$r	SEGMENT
??_R4?$CDynamicPoolEx@VCRotationDecorator@NEffectUpdateDecorator@@@@6B@ DD 00H ; CDynamicPoolEx<NEffectUpdateDecorator::CRotationDecorator>::`RTTI Complete Object Locator'
	DD	00H
	DD	00H
	DD	FLAT:??_R0?AV?$CDynamicPoolEx@VCRotationDecorator@NEffectUpdateDecorator@@@@@8
	DD	FLAT:??_R3?$CDynamicPoolEx@VCRotationDecorator@NEffectUpdateDecorator@@@@8
rdata$r	ENDS
;	COMDAT ??_R1A@?0A@EA@?$CDynamicPoolEx@VCGravityDecorator@NEffectUpdateDecorator@@@@8
rdata$r	SEGMENT
??_R1A@?0A@EA@?$CDynamicPoolEx@VCGravityDecorator@NEffectUpdateDecorator@@@@8 DD FLAT:??_R0?AV?$CDynamicPoolEx@VCGravityDecorator@NEffectUpdateDecorator@@@@@8 ; CDynamicPoolEx<NEffectUpdateDecorator::CGravityDecorator>::`RTTI Base Class Descriptor at (0,-1,0,64)'
	DD	00H
	DD	00H
	DD	0ffffffffH
	DD	00H
	DD	040H
	DD	FLAT:??_R3?$CDynamicPoolEx@VCGravityDecorator@NEffectUpdateDecorator@@@@8
rdata$r	ENDS
;	COMDAT ??_R2?$CDynamicPoolEx@VCGravityDecorator@NEffectUpdateDecorator@@@@8
rdata$r	SEGMENT
??_R2?$CDynamicPoolEx@VCGravityDecorator@NEffectUpdateDecorator@@@@8 DD FLAT:??_R1A@?0A@EA@?$CDynamicPoolEx@VCGravityDecorator@NEffectUpdateDecorator@@@@8 ; CDynamicPoolEx<NEffectUpdateDecorator::CGravityDecorator>::`RTTI Base Class Array'
rdata$r	ENDS
;	COMDAT ??_R3?$CDynamicPoolEx@VCGravityDecorator@NEffectUpdateDecorator@@@@8
rdata$r	SEGMENT
??_R3?$CDynamicPoolEx@VCGravityDecorator@NEffectUpdateDecorator@@@@8 DD 00H ; CDynamicPoolEx<NEffectUpdateDecorator::CGravityDecorator>::`RTTI Class Hierarchy Descriptor'
	DD	00H
	DD	01H
	DD	FLAT:??_R2?$CDynamicPoolEx@VCGravityDecorator@NEffectUpdateDecorator@@@@8
rdata$r	ENDS
;	COMDAT ??_R0?AV?$CDynamicPoolEx@VCGravityDecorator@NEffectUpdateDecorator@@@@@8
data$rs	SEGMENT
??_R0?AV?$CDynamicPoolEx@VCGravityDecorator@NEffectUpdateDecorator@@@@@8 DD FLAT:??_7type_info@@6B@ ; CDynamicPoolEx<NEffectUpdateDecorator::CGravityDecorator> `RTTI Type Descriptor'
	DD	00H
	DB	'.?AV?$CDynamicPoolEx@VCGravityDecorator@NEffectUpdateDec'
	DB	'orator@@@@', 00H
data$rs	ENDS
;	COMDAT ??_R4?$CDynamicPoolEx@VCGravityDecorator@NEffectUpdateDecorator@@@@6B@
rdata$r	SEGMENT
??_R4?$CDynamicPoolEx@VCGravityDecorator@NEffectUpdateDecorator@@@@6B@ DD 00H ; CDynamicPoolEx<NEffectUpdateDecorator::CGravityDecorator>::`RTTI Complete Object Locator'
	DD	00H
	DD	00H
	DD	FLAT:??_R0?AV?$CDynamicPoolEx@VCGravityDecorator@NEffectUpdateDecorator@@@@@8
	DD	FLAT:??_R3?$CDynamicPoolEx@VCGravityDecorator@NEffectUpdateDecorator@@@@8
rdata$r	ENDS
;	COMDAT ??_R1A@?0A@EA@?$CDynamicPoolEx@VCAirResistanceDecorator@NEffectUpdateDecorator@@@@8
rdata$r	SEGMENT
??_R1A@?0A@EA@?$CDynamicPoolEx@VCAirResistanceDecorator@NEffectUpdateDecorator@@@@8 DD FLAT:??_R0?AV?$CDynamicPoolEx@VCAirResistanceDecorator@NEffectUpdateDecorator@@@@@8 ; CDynamicPoolEx<NEffectUpdateDecorator::CAirResistanceDecorator>::`RTTI Base Class Descriptor at (0,-1,0,64)'
	DD	00H
	DD	00H
	DD	0ffffffffH
	DD	00H
	DD	040H
	DD	FLAT:??_R3?$CDynamicPoolEx@VCAirResistanceDecorator@NEffectUpdateDecorator@@@@8
rdata$r	ENDS
;	COMDAT ??_R2?$CDynamicPoolEx@VCAirResistanceDecorator@NEffectUpdateDecorator@@@@8
rdata$r	SEGMENT
??_R2?$CDynamicPoolEx@VCAirResistanceDecorator@NEffectUpdateDecorator@@@@8 DD FLAT:??_R1A@?0A@EA@?$CDynamicPoolEx@VCAirResistanceDecorator@NEffectUpdateDecorator@@@@8 ; CDynamicPoolEx<NEffectUpdateDecorator::CAirResistanceDecorator>::`RTTI Base Class Array'
rdata$r	ENDS
;	COMDAT ??_R3?$CDynamicPoolEx@VCAirResistanceDecorator@NEffectUpdateDecorator@@@@8
rdata$r	SEGMENT
??_R3?$CDynamicPoolEx@VCAirResistanceDecorator@NEffectUpdateDecorator@@@@8 DD 00H ; CDynamicPoolEx<NEffectUpdateDecorator::CAirResistanceDecorator>::`RTTI Class Hierarchy Descriptor'
	DD	00H
	DD	01H
	DD	FLAT:??_R2?$CDynamicPoolEx@VCAirResistanceDecorator@NEffectUpdateDecorator@@@@8
rdata$r	ENDS
;	COMDAT ??_R0?AV?$CDynamicPoolEx@VCAirResistanceDecorator@NEffectUpdateDecorator@@@@@8
data$rs	SEGMENT
??_R0?AV?$CDynamicPoolEx@VCAirResistanceDecorator@NEffectUpdateDecorator@@@@@8 DD FLAT:??_7type_info@@6B@ ; CDynamicPoolEx<NEffectUpdateDecorator::CAirResistanceDecorator> `RTTI Type Descriptor'
	DD	00H
	DB	'.?AV?$CDynamicPoolEx@VCAirResistanceDecorator@NEffectUpd'
	DB	'ateDecorator@@@@', 00H
data$rs	ENDS
;	COMDAT ??_R4?$CDynamicPoolEx@VCAirResistanceDecorator@NEffectUpdateDecorator@@@@6B@
rdata$r	SEGMENT
??_R4?$CDynamicPoolEx@VCAirResistanceDecorator@NEffectUpdateDecorator@@@@6B@ DD 00H ; CDynamicPoolEx<NEffectUpdateDecorator::CAirResistanceDecorator>::`RTTI Complete Object Locator'
	DD	00H
	DD	00H
	DD	FLAT:??_R0?AV?$CDynamicPoolEx@VCAirResistanceDecorator@NEffectUpdateDecorator@@@@@8
	DD	FLAT:??_R3?$CDynamicPoolEx@VCAirResistanceDecorator@NEffectUpdateDecorator@@@@8
rdata$r	ENDS
;	COMDAT ??_R1A@?0A@EA@?$CDynamicPoolEx@VCTextureAnimationRandomDecorator@NEffectUpdateDecorator@@@@8
rdata$r	SEGMENT
??_R1A@?0A@EA@?$CDynamicPoolEx@VCTextureAnimationRandomDecorator@NEffectUpdateDecorator@@@@8 DD FLAT:??_R0?AV?$CDynamicPoolEx@VCTextureAnimationRandomDecorator@NEffectUpdateDecorator@@@@@8 ; CDynamicPoolEx<NEffectUpdateDecorator::CTextureAnimationRandomDecorator>::`RTTI Base Class Descriptor at (0,-1,0,64)'
	DD	00H
	DD	00H
	DD	0ffffffffH
	DD	00H
	DD	040H
	DD	FLAT:??_R3?$CDynamicPoolEx@VCTextureAnimationRandomDecorator@NEffectUpdateDecorator@@@@8
rdata$r	ENDS
;	COMDAT ??_R2?$CDynamicPoolEx@VCTextureAnimationRandomDecorator@NEffectUpdateDecorator@@@@8
rdata$r	SEGMENT
??_R2?$CDynamicPoolEx@VCTextureAnimationRandomDecorator@NEffectUpdateDecorator@@@@8 DD FLAT:??_R1A@?0A@EA@?$CDynamicPoolEx@VCTextureAnimationRandomDecorator@NEffectUpdateDecorator@@@@8 ; CDynamicPoolEx<NEffectUpdateDecorator::CTextureAnimationRandomDecorator>::`RTTI Base Class Array'
rdata$r	ENDS
;	COMDAT ??_R3?$CDynamicPoolEx@VCTextureAnimationRandomDecorator@NEffectUpdateDecorator@@@@8
rdata$r	SEGMENT
??_R3?$CDynamicPoolEx@VCTextureAnimationRandomDecorator@NEffectUpdateDecorator@@@@8 DD 00H ; CDynamicPoolEx<NEffectUpdateDecorator::CTextureAnimationRandomDecorator>::`RTTI Class Hierarchy Descriptor'
	DD	00H
	DD	01H
	DD	FLAT:??_R2?$CDynamicPoolEx@VCTextureAnimationRandomDecorator@NEffectUpdateDecorator@@@@8
rdata$r	ENDS
;	COMDAT ??_R0?AV?$CDynamicPoolEx@VCTextureAnimationRandomDecorator@NEffectUpdateDecorator@@@@@8
data$rs	SEGMENT
??_R0?AV?$CDynamicPoolEx@VCTextureAnimationRandomDecorator@NEffectUpdateDecorator@@@@@8 DD FLAT:??_7type_info@@6B@ ; CDynamicPoolEx<NEffectUpdateDecorator::CTextureAnimationRandomDecorator> `RTTI Type Descriptor'
	DD	00H
	DB	'.?AV?$CDynamicPoolEx@VCTextureAnimationRandomDecorator@N'
	DB	'EffectUpdateDecorator@@@@', 00H
data$rs	ENDS
;	COMDAT ??_R4?$CDynamicPoolEx@VCTextureAnimationRandomDecorator@NEffectUpdateDecorator@@@@6B@
rdata$r	SEGMENT
??_R4?$CDynamicPoolEx@VCTextureAnimationRandomDecorator@NEffectUpdateDecorator@@@@6B@ DD 00H ; CDynamicPoolEx<NEffectUpdateDecorator::CTextureAnimationRandomDecorator>::`RTTI Complete Object Locator'
	DD	00H
	DD	00H
	DD	FLAT:??_R0?AV?$CDynamicPoolEx@VCTextureAnimationRandomDecorator@NEffectUpdateDecorator@@@@@8
	DD	FLAT:??_R3?$CDynamicPoolEx@VCTextureAnimationRandomDecorator@NEffectUpdateDecorator@@@@8
rdata$r	ENDS
;	COMDAT ??_R1A@?0A@EA@?$CDynamicPoolEx@VCTextureAnimationCCWDecorator@NEffectUpdateDecorator@@@@8
rdata$r	SEGMENT
??_R1A@?0A@EA@?$CDynamicPoolEx@VCTextureAnimationCCWDecorator@NEffectUpdateDecorator@@@@8 DD FLAT:??_R0?AV?$CDynamicPoolEx@VCTextureAnimationCCWDecorator@NEffectUpdateDecorator@@@@@8 ; CDynamicPoolEx<NEffectUpdateDecorator::CTextureAnimationCCWDecorator>::`RTTI Base Class Descriptor at (0,-1,0,64)'
	DD	00H
	DD	00H
	DD	0ffffffffH
	DD	00H
	DD	040H
	DD	FLAT:??_R3?$CDynamicPoolEx@VCTextureAnimationCCWDecorator@NEffectUpdateDecorator@@@@8
rdata$r	ENDS
;	COMDAT ??_R2?$CDynamicPoolEx@VCTextureAnimationCCWDecorator@NEffectUpdateDecorator@@@@8
rdata$r	SEGMENT
??_R2?$CDynamicPoolEx@VCTextureAnimationCCWDecorator@NEffectUpdateDecorator@@@@8 DD FLAT:??_R1A@?0A@EA@?$CDynamicPoolEx@VCTextureAnimationCCWDecorator@NEffectUpdateDecorator@@@@8 ; CDynamicPoolEx<NEffectUpdateDecorator::CTextureAnimationCCWDecorator>::`RTTI Base Class Array'
rdata$r	ENDS
;	COMDAT ??_R3?$CDynamicPoolEx@VCTextureAnimationCCWDecorator@NEffectUpdateDecorator@@@@8
rdata$r	SEGMENT
??_R3?$CDynamicPoolEx@VCTextureAnimationCCWDecorator@NEffectUpdateDecorator@@@@8 DD 00H ; CDynamicPoolEx<NEffectUpdateDecorator::CTextureAnimationCCWDecorator>::`RTTI Class Hierarchy Descriptor'
	DD	00H
	DD	01H
	DD	FLAT:??_R2?$CDynamicPoolEx@VCTextureAnimationCCWDecorator@NEffectUpdateDecorator@@@@8
rdata$r	ENDS
;	COMDAT ??_R0?AV?$CDynamicPoolEx@VCTextureAnimationCCWDecorator@NEffectUpdateDecorator@@@@@8
data$rs	SEGMENT
??_R0?AV?$CDynamicPoolEx@VCTextureAnimationCCWDecorator@NEffectUpdateDecorator@@@@@8 DD FLAT:??_7type_info@@6B@ ; CDynamicPoolEx<NEffectUpdateDecorator::CTextureAnimationCCWDecorator> `RTTI Type Descriptor'
	DD	00H
	DB	'.?AV?$CDynamicPoolEx@VCTextureAnimationCCWDecorator@NEff'
	DB	'ectUpdateDecorator@@@@', 00H
data$rs	ENDS
;	COMDAT ??_R4?$CDynamicPoolEx@VCTextureAnimationCCWDecorator@NEffectUpdateDecorator@@@@6B@
rdata$r	SEGMENT
??_R4?$CDynamicPoolEx@VCTextureAnimationCCWDecorator@NEffectUpdateDecorator@@@@6B@ DD 00H ; CDynamicPoolEx<NEffectUpdateDecorator::CTextureAnimationCCWDecorator>::`RTTI Complete Object Locator'
	DD	00H
	DD	00H
	DD	FLAT:??_R0?AV?$CDynamicPoolEx@VCTextureAnimationCCWDecorator@NEffectUpdateDecorator@@@@@8
	DD	FLAT:??_R3?$CDynamicPoolEx@VCTextureAnimationCCWDecorator@NEffectUpdateDecorator@@@@8
rdata$r	ENDS
;	COMDAT ??_R1A@?0A@EA@?$CDynamicPoolEx@VCTextureAnimationCWDecorator@NEffectUpdateDecorator@@@@8
rdata$r	SEGMENT
??_R1A@?0A@EA@?$CDynamicPoolEx@VCTextureAnimationCWDecorator@NEffectUpdateDecorator@@@@8 DD FLAT:??_R0?AV?$CDynamicPoolEx@VCTextureAnimationCWDecorator@NEffectUpdateDecorator@@@@@8 ; CDynamicPoolEx<NEffectUpdateDecorator::CTextureAnimationCWDecorator>::`RTTI Base Class Descriptor at (0,-1,0,64)'
	DD	00H
	DD	00H
	DD	0ffffffffH
	DD	00H
	DD	040H
	DD	FLAT:??_R3?$CDynamicPoolEx@VCTextureAnimationCWDecorator@NEffectUpdateDecorator@@@@8
rdata$r	ENDS
;	COMDAT ??_R2?$CDynamicPoolEx@VCTextureAnimationCWDecorator@NEffectUpdateDecorator@@@@8
rdata$r	SEGMENT
??_R2?$CDynamicPoolEx@VCTextureAnimationCWDecorator@NEffectUpdateDecorator@@@@8 DD FLAT:??_R1A@?0A@EA@?$CDynamicPoolEx@VCTextureAnimationCWDecorator@NEffectUpdateDecorator@@@@8 ; CDynamicPoolEx<NEffectUpdateDecorator::CTextureAnimationCWDecorator>::`RTTI Base Class Array'
rdata$r	ENDS
;	COMDAT ??_R3?$CDynamicPoolEx@VCTextureAnimationCWDecorator@NEffectUpdateDecorator@@@@8
rdata$r	SEGMENT
??_R3?$CDynamicPoolEx@VCTextureAnimationCWDecorator@NEffectUpdateDecorator@@@@8 DD 00H ; CDynamicPoolEx<NEffectUpdateDecorator::CTextureAnimationCWDecorator>::`RTTI Class Hierarchy Descriptor'
	DD	00H
	DD	01H
	DD	FLAT:??_R2?$CDynamicPoolEx@VCTextureAnimationCWDecorator@NEffectUpdateDecorator@@@@8
rdata$r	ENDS
;	COMDAT ??_R0?AV?$CDynamicPoolEx@VCTextureAnimationCWDecorator@NEffectUpdateDecorator@@@@@8
data$rs	SEGMENT
??_R0?AV?$CDynamicPoolEx@VCTextureAnimationCWDecorator@NEffectUpdateDecorator@@@@@8 DD FLAT:??_7type_info@@6B@ ; CDynamicPoolEx<NEffectUpdateDecorator::CTextureAnimationCWDecorator> `RTTI Type Descriptor'
	DD	00H
	DB	'.?AV?$CDynamicPoolEx@VCTextureAnimationCWDecorator@NEffe'
	DB	'ctUpdateDecorator@@@@', 00H
data$rs	ENDS
;	COMDAT ??_R4?$CDynamicPoolEx@VCTextureAnimationCWDecorator@NEffectUpdateDecorator@@@@6B@
rdata$r	SEGMENT
??_R4?$CDynamicPoolEx@VCTextureAnimationCWDecorator@NEffectUpdateDecorator@@@@6B@ DD 00H ; CDynamicPoolEx<NEffectUpdateDecorator::CTextureAnimationCWDecorator>::`RTTI Complete Object Locator'
	DD	00H
	DD	00H
	DD	FLAT:??_R0?AV?$CDynamicPoolEx@VCTextureAnimationCWDecorator@NEffectUpdateDecorator@@@@@8
	DD	FLAT:??_R3?$CDynamicPoolEx@VCTextureAnimationCWDecorator@NEffectUpdateDecorator@@@@8
rdata$r	ENDS
;	COMDAT ??_R1A@?0A@EA@?$CDynamicPoolEx@VCNullDecorator@NEffectUpdateDecorator@@@@8
rdata$r	SEGMENT
??_R1A@?0A@EA@?$CDynamicPoolEx@VCNullDecorator@NEffectUpdateDecorator@@@@8 DD FLAT:??_R0?AV?$CDynamicPoolEx@VCNullDecorator@NEffectUpdateDecorator@@@@@8 ; CDynamicPoolEx<NEffectUpdateDecorator::CNullDecorator>::`RTTI Base Class Descriptor at (0,-1,0,64)'
	DD	00H
	DD	00H
	DD	0ffffffffH
	DD	00H
	DD	040H
	DD	FLAT:??_R3?$CDynamicPoolEx@VCNullDecorator@NEffectUpdateDecorator@@@@8
rdata$r	ENDS
;	COMDAT ??_R2?$CDynamicPoolEx@VCNullDecorator@NEffectUpdateDecorator@@@@8
rdata$r	SEGMENT
??_R2?$CDynamicPoolEx@VCNullDecorator@NEffectUpdateDecorator@@@@8 DD FLAT:??_R1A@?0A@EA@?$CDynamicPoolEx@VCNullDecorator@NEffectUpdateDecorator@@@@8 ; CDynamicPoolEx<NEffectUpdateDecorator::CNullDecorator>::`RTTI Base Class Array'
rdata$r	ENDS
;	COMDAT ??_R3?$CDynamicPoolEx@VCNullDecorator@NEffectUpdateDecorator@@@@8
rdata$r	SEGMENT
??_R3?$CDynamicPoolEx@VCNullDecorator@NEffectUpdateDecorator@@@@8 DD 00H ; CDynamicPoolEx<NEffectUpdateDecorator::CNullDecorator>::`RTTI Class Hierarchy Descriptor'
	DD	00H
	DD	01H
	DD	FLAT:??_R2?$CDynamicPoolEx@VCNullDecorator@NEffectUpdateDecorator@@@@8
rdata$r	ENDS
;	COMDAT ??_R0?AV?$CDynamicPoolEx@VCNullDecorator@NEffectUpdateDecorator@@@@@8
data$rs	SEGMENT
??_R0?AV?$CDynamicPoolEx@VCNullDecorator@NEffectUpdateDecorator@@@@@8 DD FLAT:??_7type_info@@6B@ ; CDynamicPoolEx<NEffectUpdateDecorator::CNullDecorator> `RTTI Type Descriptor'
	DD	00H
	DB	'.?AV?$CDynamicPoolEx@VCNullDecorator@NEffectUpdateDecora'
	DB	'tor@@@@', 00H
data$rs	ENDS
;	COMDAT ??_R4?$CDynamicPoolEx@VCNullDecorator@NEffectUpdateDecorator@@@@6B@
rdata$r	SEGMENT
??_R4?$CDynamicPoolEx@VCNullDecorator@NEffectUpdateDecorator@@@@6B@ DD 00H ; CDynamicPoolEx<NEffectUpdateDecorator::CNullDecorator>::`RTTI Complete Object Locator'
	DD	00H
	DD	00H
	DD	FLAT:??_R0?AV?$CDynamicPoolEx@VCNullDecorator@NEffectUpdateDecorator@@@@@8
	DD	FLAT:??_R3?$CDynamicPoolEx@VCNullDecorator@NEffectUpdateDecorator@@@@8
rdata$r	ENDS
;	COMDAT ??_R1A@?0A@EA@?$CDynamicPoolEx@VCHeaderDecorator@NEffectUpdateDecorator@@@@8
rdata$r	SEGMENT
??_R1A@?0A@EA@?$CDynamicPoolEx@VCHeaderDecorator@NEffectUpdateDecorator@@@@8 DD FLAT:??_R0?AV?$CDynamicPoolEx@VCHeaderDecorator@NEffectUpdateDecorator@@@@@8 ; CDynamicPoolEx<NEffectUpdateDecorator::CHeaderDecorator>::`RTTI Base Class Descriptor at (0,-1,0,64)'
	DD	00H
	DD	00H
	DD	0ffffffffH
	DD	00H
	DD	040H
	DD	FLAT:??_R3?$CDynamicPoolEx@VCHeaderDecorator@NEffectUpdateDecorator@@@@8
rdata$r	ENDS
;	COMDAT ??_R2?$CDynamicPoolEx@VCHeaderDecorator@NEffectUpdateDecorator@@@@8
rdata$r	SEGMENT
??_R2?$CDynamicPoolEx@VCHeaderDecorator@NEffectUpdateDecorator@@@@8 DD FLAT:??_R1A@?0A@EA@?$CDynamicPoolEx@VCHeaderDecorator@NEffectUpdateDecorator@@@@8 ; CDynamicPoolEx<NEffectUpdateDecorator::CHeaderDecorator>::`RTTI Base Class Array'
rdata$r	ENDS
;	COMDAT ??_R3?$CDynamicPoolEx@VCHeaderDecorator@NEffectUpdateDecorator@@@@8
rdata$r	SEGMENT
??_R3?$CDynamicPoolEx@VCHeaderDecorator@NEffectUpdateDecorator@@@@8 DD 00H ; CDynamicPoolEx<NEffectUpdateDecorator::CHeaderDecorator>::`RTTI Class Hierarchy Descriptor'
	DD	00H
	DD	01H
	DD	FLAT:??_R2?$CDynamicPoolEx@VCHeaderDecorator@NEffectUpdateDecorator@@@@8
rdata$r	ENDS
;	COMDAT ??_R0?AV?$CDynamicPoolEx@VCHeaderDecorator@NEffectUpdateDecorator@@@@@8
data$rs	SEGMENT
??_R0?AV?$CDynamicPoolEx@VCHeaderDecorator@NEffectUpdateDecorator@@@@@8 DD FLAT:??_7type_info@@6B@ ; CDynamicPoolEx<NEffectUpdateDecorator::CHeaderDecorator> `RTTI Type Descriptor'
	DD	00H
	DB	'.?AV?$CDynamicPoolEx@VCHeaderDecorator@NEffectUpdateDeco'
	DB	'rator@@@@', 00H
data$rs	ENDS
;	COMDAT ??_R4?$CDynamicPoolEx@VCHeaderDecorator@NEffectUpdateDecorator@@@@6B@
rdata$r	SEGMENT
??_R4?$CDynamicPoolEx@VCHeaderDecorator@NEffectUpdateDecorator@@@@6B@ DD 00H ; CDynamicPoolEx<NEffectUpdateDecorator::CHeaderDecorator>::`RTTI Complete Object Locator'
	DD	00H
	DD	00H
	DD	FLAT:??_R0?AV?$CDynamicPoolEx@VCHeaderDecorator@NEffectUpdateDecorator@@@@@8
	DD	FLAT:??_R3?$CDynamicPoolEx@VCHeaderDecorator@NEffectUpdateDecorator@@@@8
rdata$r	ENDS
_DATA	SEGMENT
?USE_WEAPON_SPECULAR@@3HA DD 01H			; USE_WEAPON_SPECULAR
_DATA	ENDS
;	COMDAT ?_Fake_alloc@std@@3U_Fake_allocator@1@B
CONST	SEGMENT
?_Fake_alloc@std@@3U_Fake_allocator@1@B	ORG $+1		; std::_Fake_alloc
CONST	ENDS
;	COMDAT ??_7?$CDynamicPoolEx@VCHeaderDecorator@NEffectUpdateDecorator@@@@6B@
CONST	SEGMENT
??_7?$CDynamicPoolEx@VCHeaderDecorator@NEffectUpdateDecorator@@@@6B@ DD FLAT:??_R4?$CDynamicPoolEx@VCHeaderDecorator@NEffectUpdateDecorator@@@@6B@ ; CDynamicPoolEx<NEffectUpdateDecorator::CHeaderDecorator>::`vftable'
	DD	FLAT:??_E?$CDynamicPoolEx@VCHeaderDecorator@NEffectUpdateDecorator@@@@UAEPAXI@Z
CONST	ENDS
;	COMDAT ??_7?$CDynamicPoolEx@VCNullDecorator@NEffectUpdateDecorator@@@@6B@
CONST	SEGMENT
??_7?$CDynamicPoolEx@VCNullDecorator@NEffectUpdateDecorator@@@@6B@ DD FLAT:??_R4?$CDynamicPoolEx@VCNullDecorator@NEffectUpdateDecorator@@@@6B@ ; CDynamicPoolEx<NEffectUpdateDecorator::CNullDecorator>::`vftable'
	DD	FLAT:??_E?$CDynamicPoolEx@VCNullDecorator@NEffectUpdateDecorator@@@@UAEPAXI@Z
CONST	ENDS
;	COMDAT ??_7?$CDynamicPoolEx@VCTextureAnimationCWDecorator@NEffectUpdateDecorator@@@@6B@
CONST	SEGMENT
??_7?$CDynamicPoolEx@VCTextureAnimationCWDecorator@NEffectUpdateDecorator@@@@6B@ DD FLAT:??_R4?$CDynamicPoolEx@VCTextureAnimationCWDecorator@NEffectUpdateDecorator@@@@6B@ ; CDynamicPoolEx<NEffectUpdateDecorator::CTextureAnimationCWDecorator>::`vftable'
	DD	FLAT:??_E?$CDynamicPoolEx@VCTextureAnimationCWDecorator@NEffectUpdateDecorator@@@@UAEPAXI@Z
CONST	ENDS
PUBLIC	??_H@YGXPAXIIP6EPAX0@Z@Z			; `vector constructor iterator'
PUBLIC	?__empty_global_delete@@YAXPAX@Z		; __empty_global_delete
PUBLIC	?__empty_global_delete@@YAXPAXI@Z		; __empty_global_delete
PUBLIC	?__empty_global_delete@@YAXPAXW4align_val_t@std@@@Z ; __empty_global_delete
PUBLIC	?__empty_global_delete@@YAXPAXIW4align_val_t@std@@@Z ; __empty_global_delete
PUBLIC	??0exception@std@@QAE@ABV01@@Z			; std::exception::exception
PUBLIC	??1exception@std@@UAE@XZ			; std::exception::~exception
PUBLIC	?what@exception@std@@UBEPBDXZ			; std::exception::what
PUBLIC	??_Gexception@std@@UAEPAXI@Z			; std::exception::`scalar deleting destructor'
PUBLIC	??0bad_alloc@std@@QAE@ABV01@@Z			; std::bad_alloc::bad_alloc
PUBLIC	??_Gbad_alloc@std@@UAEPAXI@Z			; std::bad_alloc::`scalar deleting destructor'
PUBLIC	??0bad_array_new_length@std@@QAE@XZ		; std::bad_array_new_length::bad_array_new_length
PUBLIC	??1bad_array_new_length@std@@UAE@XZ		; std::bad_array_new_length::~bad_array_new_length
PUBLIC	??0bad_array_new_length@std@@QAE@ABV01@@Z	; std::bad_array_new_length::bad_array_new_length
PUBLIC	??_Gbad_array_new_length@std@@UAEPAXI@Z		; std::bad_array_new_length::`scalar deleting destructor'
PUBLIC	?_Throw_bad_array_new_length@std@@YAXXZ		; std::_Throw_bad_array_new_length
PUBLIC	??1?$basic_string@DU?$char_traits@D@std@@V?$allocator@D@2@@std@@QAE@XZ ; std::basic_string<char,std::char_traits<char>,std::allocator<char> >::~basic_string<char,std::char_traits<char>,std::allocator<char> >
PUBLIC	??0D3DXMATRIX@@QAE@XZ				; D3DXMATRIX::D3DXMATRIX
PUBLIC	??$_Allocate_manually_vector_aligned@U_Default_allocate_traits@std@@@std@@YAPAXI@Z ; std::_Allocate_manually_vector_aligned<std::_Default_allocate_traits>
PUBLIC	?_Tidy@?$vector@UCDynamicSphereInstance@@V?$allocator@UCDynamicSphereInstance@@@std@@@std@@AAEXXZ ; std::vector<CDynamicSphereInstance,std::allocator<CDynamicSphereInstance> >::_Tidy
PUBLIC	?_Xlength@?$vector@UCDynamicSphereInstance@@V?$allocator@UCDynamicSphereInstance@@@std@@@std@@CAXXZ ; std::vector<CDynamicSphereInstance,std::allocator<CDynamicSphereInstance> >::_Xlength
PUBLIC	??1SCollisionPointInstance@CActorInstance@@QAE@XZ ; CActorInstance::SCollisionPointInstance::~SCollisionPointInstance
PUBLIC	?clear@?$list@USCollisionPointInstance@CActorInstance@@V?$allocator@USCollisionPointInstance@CActorInstance@@@std@@@std@@QAEXXZ ; std::list<CActorInstance::SCollisionPointInstance,std::allocator<CActorInstance::SCollisionPointInstance> >::clear
PUBLIC	?AttachWeapon@CActorInstance@@QAEXKKK@Z		; CActorInstance::AttachWeapon
PUBLIC	?AttachWeapon@CActorInstance@@QAEXKKPAVCItemData@@@Z ; CActorInstance::AttachWeapon
PUBLIC	?AttachSash@CActorInstance@@QAEXKKPAVCItemData@@@Z ; CActorInstance::AttachSash
PUBLIC	?AttachSash@CActorInstance@@QAEXKKK@Z		; CActorInstance::AttachSash
PUBLIC	?RefreshActorInstance@CActorInstance@@QAEXXZ	; CActorInstance::RefreshActorInstance
PUBLIC	?GetAttachingBoneName@CActorInstance@@QAEHKPAPBD@Z ; CActorInstance::GetAttachingBoneName
PUBLIC	?UpdateAttachingInstances@CActorInstance@@QAEXXZ ; CActorInstance::UpdateAttachingInstances
PUBLIC	?DettachEffect@CActorInstance@@QAEXK@Z		; CActorInstance::DettachEffect
PUBLIC	?AttachEffectByName@CActorInstance@@QAEKKPBD0@Z	; CActorInstance::AttachEffectByName
PUBLIC	?AttachEffectByID@CActorInstance@@QAEKKPBDKPBUD3DXVECTOR3@@M1@Z ; CActorInstance::AttachEffectByID
PUBLIC	?AttachSmokeEffect@CActorInstance@@QAEKK@Z	; CActorInstance::AttachSmokeEffect
PUBLIC	?SetWeaponTraceTexture@CActorInstance@@QAEXPBD@Z ; CActorInstance::SetWeaponTraceTexture
PUBLIC	?UseTextureWeaponTrace@CActorInstance@@QAEXXZ	; CActorInstance::UseTextureWeaponTrace
PUBLIC	?UseAlphaWeaponTrace@CActorInstance@@QAEXXZ	; CActorInstance::UseAlphaWeaponTrace
PUBLIC	?ShowAllAttachingEffect@CActorInstance@@QAEXXZ	; CActorInstance::ShowAllAttachingEffect
PUBLIC	?HideAllAttachingEffect@CActorInstance@@QAEXXZ	; CActorInstance::HideAllAttachingEffect
PUBLIC	?WikiRenderAllAttachingModuleEffect@CActorInstance@@QAEXXZ ; CActorInstance::WikiRenderAllAttachingModuleEffect
PUBLIC	?__IsLeftHandWeapon@CActorInstance@@IAE_NK@Z	; CActorInstance::__IsLeftHandWeapon
PUBLIC	?__IsRightHandWeapon@CActorInstance@@IAE_NK@Z	; CActorInstance::__IsRightHandWeapon
PUBLIC	?__IsWeaponTrace@CActorInstance@@IAE_NK@Z	; CActorInstance::__IsWeaponTrace
PUBLIC	?__ClearAttachingEffect@CActorInstance@@IAEXXZ	; CActorInstance::__ClearAttachingEffect
PUBLIC	?_Xlength@?$vector@PAVCWeaponTrace@@V?$allocator@PAVCWeaponTrace@@@std@@@std@@CAXXZ ; std::vector<CWeaponTrace *,std::allocator<CWeaponTrace *> >::_Xlength
PUBLIC	?push_back@?$list@UTAttachingEffect@CActorInstance@@V?$allocator@UTAttachingEffect@CActorInstance@@@std@@@std@@QAEXABUTAttachingEffect@CActorInstance@@@Z ; std::list<CActorInstance::TAttachingEffect,std::allocator<CActorInstance::TAttachingEffect> >::push_back
PUBLIC	?SetQuiverEquipped@CActorInstance@@QAEX_N@Z	; CActorInstance::SetQuiverEquipped
PUBLIC	?SetQuiverEffectID@CActorInstance@@QAEXK@Z	; CActorInstance::SetQuiverEffectID
PUBLIC	?Vietnam_ConvertWeaponVnum@@YAKK@Z		; Vietnam_ConvertWeaponVnum
PUBLIC	??$_Emplace@ABUSCollisionPointInstance@CActorInstance@@@?$list@USCollisionPointInstance@CActorInstance@@V?$allocator@USCollisionPointInstance@CActorInstance@@@std@@@std@@QAEPAU?$_List_node@USCollisionPointInstance@CActorInstance@@PAX@1@QAU21@ABUSCollisionPointInstance@CActorInstance@@@Z ; std::list<CActorInstance::SCollisionPointInstance,std::allocator<CActorInstance::SCollisionPointInstance> >::_Emplace<CActorInstance::SCollisionPointInstance const &>
PUBLIC	??1?$CDynamicPoolEx@VCRotationDecorator@NEffectUpdateDecorator@@@@UAE@XZ ; CDynamicPoolEx<NEffectUpdateDecorator::CRotationDecorator>::~CDynamicPoolEx<NEffectUpdateDecorator::CRotationDecorator>
PUBLIC	?Delete@?$CDynamicPoolEx@VCRotationDecorator@NEffectUpdateDecorator@@@@KAXPAVCRotationDecorator@NEffectUpdateDecorator@@@Z ; CDynamicPoolEx<NEffectUpdateDecorator::CRotationDecorator>::Delete
PUBLIC	??1?$CDynamicPoolEx@VCGravityDecorator@NEffectUpdateDecorator@@@@UAE@XZ ; CDynamicPoolEx<NEffectUpdateDecorator::CGravityDecorator>::~CDynamicPoolEx<NEffectUpdateDecorator::CGravityDecorator>
PUBLIC	?Delete@?$CDynamicPoolEx@VCGravityDecorator@NEffectUpdateDecorator@@@@KAXPAVCGravityDecorator@NEffectUpdateDecorator@@@Z ; CDynamicPoolEx<NEffectUpdateDecorator::CGravityDecorator>::Delete
PUBLIC	??1?$CDynamicPoolEx@VCAirResistanceDecorator@NEffectUpdateDecorator@@@@UAE@XZ ; CDynamicPoolEx<NEffectUpdateDecorator::CAirResistanceDecorator>::~CDynamicPoolEx<NEffectUpdateDecorator::CAirResistanceDecorator>
PUBLIC	?Delete@?$CDynamicPoolEx@VCAirResistanceDecorator@NEffectUpdateDecorator@@@@KAXPAVCAirResistanceDecorator@NEffectUpdateDecorator@@@Z ; CDynamicPoolEx<NEffectUpdateDecorator::CAirResistanceDecorator>::Delete
PUBLIC	??1?$CDynamicPoolEx@VCTextureAnimationRandomDecorator@NEffectUpdateDecorator@@@@UAE@XZ ; CDynamicPoolEx<NEffectUpdateDecorator::CTextureAnimationRandomDecorator>::~CDynamicPoolEx<NEffectUpdateDecorator::CTextureAnimationRandomDecorator>
PUBLIC	?Delete@?$CDynamicPoolEx@VCTextureAnimationRandomDecorator@NEffectUpdateDecorator@@@@KAXPAVCTextureAnimationRandomDecorator@NEffectUpdateDecorator@@@Z ; CDynamicPoolEx<NEffectUpdateDecorator::CTextureAnimationRandomDecorator>::Delete
PUBLIC	??1?$CDynamicPoolEx@VCTextureAnimationCCWDecorator@NEffectUpdateDecorator@@@@UAE@XZ ; CDynamicPoolEx<NEffectUpdateDecorator::CTextureAnimationCCWDecorator>::~CDynamicPoolEx<NEffectUpdateDecorator::CTextureAnimationCCWDecorator>
PUBLIC	?Delete@?$CDynamicPoolEx@VCTextureAnimationCCWDecorator@NEffectUpdateDecorator@@@@KAXPAVCTextureAnimationCCWDecorator@NEffectUpdateDecorator@@@Z ; CDynamicPoolEx<NEffectUpdateDecorator::CTextureAnimationCCWDecorator>::Delete
PUBLIC	??1?$CDynamicPoolEx@VCTextureAnimationCWDecorator@NEffectUpdateDecorator@@@@UAE@XZ ; CDynamicPoolEx<NEffectUpdateDecorator::CTextureAnimationCWDecorator>::~CDynamicPoolEx<NEffectUpdateDecorator::CTextureAnimationCWDecorator>
PUBLIC	?Delete@?$CDynamicPoolEx@VCTextureAnimationCWDecorator@NEffectUpdateDecorator@@@@KAXPAVCTextureAnimationCWDecorator@NEffectUpdateDecorator@@@Z ; CDynamicPoolEx<NEffectUpdateDecorator::CTextureAnimationCWDecorator>::Delete
PUBLIC	??1?$CDynamicPoolEx@VCNullDecorator@NEffectUpdateDecorator@@@@UAE@XZ ; CDynamicPoolEx<NEffectUpdateDecorator::CNullDecorator>::~CDynamicPoolEx<NEffectUpdateDecorator::CNullDecorator>
PUBLIC	?Delete@?$CDynamicPoolEx@VCNullDecorator@NEffectUpdateDecorator@@@@KAXPAVCNullDecorator@NEffectUpdateDecorator@@@Z ; CDynamicPoolEx<NEffectUpdateDecorator::CNullDecorator>::Delete
PUBLIC	??1?$CDynamicPoolEx@VCHeaderDecorator@NEffectUpdateDecorator@@@@UAE@XZ ; CDynamicPoolEx<NEffectUpdateDecorator::CHeaderDecorator>::~CDynamicPoolEx<NEffectUpdateDecorator::CHeaderDecorator>
PUBLIC	?Delete@?$CDynamicPoolEx@VCHeaderDecorator@NEffectUpdateDecorator@@@@KAXPAVCHeaderDecorator@NEffectUpdateDecorator@@@Z ; CDynamicPoolEx<NEffectUpdateDecorator::CHeaderDecorator>::Delete
PUBLIC	??1?$_Alloc_construct_ptr@V?$allocator@U?$_List_node@UTAttachingEffect@CActorInstance@@PAX@std@@@std@@@std@@QAE@XZ ; std::_Alloc_construct_ptr<std::allocator<std::_List_node<CActorInstance::TAttachingEffect,void *> > >::~_Alloc_construct_ptr<std::allocator<std::_List_node<CActorInstance::TAttachingEffect,void *> > >
PUBLIC	??$_Emplace_reallocate@ABQAVCWeaponTrace@@@?$vector@PAVCWeaponTrace@@V?$allocator@PAVCWeaponTrace@@@std@@@std@@AAEPAPAVCWeaponTrace@@QAPAV2@ABQAV2@@Z ; std::vector<CWeaponTrace *,std::allocator<CWeaponTrace *> >::_Emplace_reallocate<CWeaponTrace * const &>
PUBLIC	??1?$_Alloc_construct_ptr@V?$allocator@U?$_List_node@USCollisionPointInstance@CActorInstance@@PAX@std@@@std@@@std@@QAE@XZ ; std::_Alloc_construct_ptr<std::allocator<std::_List_node<CActorInstance::SCollisionPointInstance,void *> > >::~_Alloc_construct_ptr<std::allocator<std::_List_node<CActorInstance::SCollisionPointInstance,void *> > >
PUBLIC	??$_Copy_memmove@PAPAVCWeaponTrace@@PAPAV1@@std@@YAPAPAVCWeaponTrace@@PAPAV1@00@Z ; std::_Copy_memmove<CWeaponTrace * *,CWeaponTrace * *>
PUBLIC	??$_Copy_memmove@PAUCDynamicSphereInstance@@PAU1@@std@@YAPAUCDynamicSphereInstance@@PAU1@00@Z ; std::_Copy_memmove<CDynamicSphereInstance *,CDynamicSphereInstance *>
PUBLIC	??_7exception@std@@6B@				; std::exception::`vftable'
PUBLIC	??_C@_0BC@EOODALEL@Unknown?5exception@		; `string'
PUBLIC	??_7bad_alloc@std@@6B@				; std::bad_alloc::`vftable'
PUBLIC	??_7bad_array_new_length@std@@6B@		; std::bad_array_new_length::`vftable'
PUBLIC	??_C@_0BF@KINCDENJ@bad?5array?5new?5length@	; `string'
PUBLIC	__TI3?AVbad_array_new_length@std@@
PUBLIC	__CTA3?AVbad_array_new_length@std@@
PUBLIC	??_R0?AVbad_array_new_length@std@@@8		; std::bad_array_new_length `RTTI Type Descriptor'
PUBLIC	__CT??_R0?AVbad_array_new_length@std@@@8??0bad_array_new_length@std@@QAE@ABV01@@Z12
PUBLIC	??_R0?AVbad_alloc@std@@@8			; std::bad_alloc `RTTI Type Descriptor'
PUBLIC	__CT??_R0?AVbad_alloc@std@@@8??0bad_alloc@std@@QAE@ABV01@@Z12
PUBLIC	??_R0?AVexception@std@@@8			; std::exception `RTTI Type Descriptor'
PUBLIC	__CT??_R0?AVexception@std@@@8??0exception@std@@QAE@ABV01@@Z12
PUBLIC	?ms_singleton@?$CSingleton@VCTimer@@@@0PAVCTimer@@A ; CSingleton<CTimer>::ms_singleton
PUBLIC	??_R4exception@std@@6B@				; std::exception::`RTTI Complete Object Locator'
PUBLIC	??_R3exception@std@@8				; std::exception::`RTTI Class Hierarchy Descriptor'
PUBLIC	??_R2exception@std@@8				; std::exception::`RTTI Base Class Array'
PUBLIC	??_R1A@?0A@EA@exception@std@@8			; std::exception::`RTTI Base Class Descriptor at (0,-1,0,64)'
PUBLIC	??_R4bad_alloc@std@@6B@				; std::bad_alloc::`RTTI Complete Object Locator'
PUBLIC	??_R3bad_alloc@std@@8				; std::bad_alloc::`RTTI Class Hierarchy Descriptor'
PUBLIC	??_R2bad_alloc@std@@8				; std::bad_alloc::`RTTI Base Class Array'
PUBLIC	??_R1A@?0A@EA@bad_alloc@std@@8			; std::bad_alloc::`RTTI Base Class Descriptor at (0,-1,0,64)'
PUBLIC	??_R4bad_array_new_length@std@@6B@		; std::bad_array_new_length::`RTTI Complete Object Locator'
PUBLIC	??_R3bad_array_new_length@std@@8		; std::bad_array_new_length::`RTTI Class Hierarchy Descriptor'
PUBLIC	??_R2bad_array_new_length@std@@8		; std::bad_array_new_length::`RTTI Base Class Array'
PUBLIC	??_R1A@?0A@EA@bad_array_new_length@std@@8	; std::bad_array_new_length::`RTTI Base Class Descriptor at (0,-1,0,64)'
PUBLIC	?ms_kPool@?$CPooledObject@VCHeaderDecorator@NEffectUpdateDecorator@@@@1V?$CDynamicPoolEx@VCHeaderDecorator@NEffectUpdateDecorator@@@@A ; CPooledObject<NEffectUpdateDecorator::CHeaderDecorator>::ms_kPool
PUBLIC	?ms_kPool@?$CPooledObject@VCNullDecorator@NEffectUpdateDecorator@@@@1V?$CDynamicPoolEx@VCNullDecorator@NEffectUpdateDecorator@@@@A ; CPooledObject<NEffectUpdateDecorator::CNullDecorator>::ms_kPool
PUBLIC	?ms_kPool@?$CPooledObject@VCTextureAnimationCWDecorator@NEffectUpdateDecorator@@@@1V?$CDynamicPoolEx@VCTextureAnimationCWDecorator@NEffectUpdateDecorator@@@@A ; CPooledObject<NEffectUpdateDecorator::CTextureAnimationCWDecorator>::ms_kPool
PUBLIC	?ms_kPool@?$CPooledObject@VCTextureAnimationCCWDecorator@NEffectUpdateDecorator@@@@1V?$CDynamicPoolEx@VCTextureAnimationCCWDecorator@NEffectUpdateDecorator@@@@A ; CPooledObject<NEffectUpdateDecorator::CTextureAnimationCCWDecorator>::ms_kPool
PUBLIC	?ms_kPool@?$CPooledObject@VCTextureAnimationRandomDecorator@NEffectUpdateDecorator@@@@1V?$CDynamicPoolEx@VCTextureAnimationRandomDecorator@NEffectUpdateDecorator@@@@A ; CPooledObject<NEffectUpdateDecorator::CTextureAnimationRandomDecorator>::ms_kPool
PUBLIC	?ms_kPool@?$CPooledObject@VCAirResistanceDecorator@NEffectUpdateDecorator@@@@1V?$CDynamicPoolEx@VCAirResistanceDecorator@NEffectUpdateDecorator@@@@A ; CPooledObject<NEffectUpdateDecorator::CAirResistanceDecorator>::ms_kPool
PUBLIC	?ms_kPool@?$CPooledObject@VCGravityDecorator@NEffectUpdateDecorator@@@@1V?$CDynamicPoolEx@VCGravityDecorator@NEffectUpdateDecorator@@@@A ; CPooledObject<NEffectUpdateDecorator::CGravityDecorator>::ms_kPool
PUBLIC	?ms_kPool@?$CPooledObject@VCRotationDecorator@NEffectUpdateDecorator@@@@1V?$CDynamicPoolEx@VCRotationDecorator@NEffectUpdateDecorator@@@@A ; CPooledObject<NEffectUpdateDecorator::CRotationDecorator>::ms_kPool
PUBLIC	?ms_singleton@?$CSingleton@VCEffectManager@@@@0PAVCEffectManager@@A ; CSingleton<CEffectManager>::ms_singleton
PUBLIC	?ms_singleton@?$CSingleton@VCItemManager@@@@0PAVCItemManager@@A ; CSingleton<CItemManager>::ms_singleton
PUBLIC	??_C@_0ED@FCEINDDL@void?5CActorInstance?3?3RefreshAct@ ; `string'
PUBLIC	??_C@_0BH@KNPFFH@Cannot?5get?5Bone?5Index?6@	; `string'
PUBLIC	??_C@_0BD@NKMCNOEI@Creating?5?$CFp?5?$CFd?5?$CFd?6@ ; `string'
PUBLIC	??_C@_0N@DLOEJLFF@Bip01?5Spine2@		; `string'
PUBLIC	??_C@_0O@NKNMEGII@list?5too?5long@		; `string'
PUBLIC	??_C@_0BA@FOIKENOD@vector?5too?5long@		; `string'
EXTRN	??2@YAPAXI@Z:PROC				; operator new
EXTRN	??3@YAXPAX@Z:PROC				; operator delete
EXTRN	??3@YAXPAXI@Z:PROC				; operator delete
EXTRN	_atexit:PROC
EXTRN	__invalid_parameter_noinfo_noreturn:PROC
EXTRN	___std_exception_copy:PROC
EXTRN	___std_exception_destroy:PROC
EXTRN	??_Eexception@std@@UAEPAXI@Z:PROC		; std::exception::`vector deleting destructor'
EXTRN	??_Ebad_alloc@std@@UAEPAXI@Z:PROC		; std::bad_alloc::`vector deleting destructor'
EXTRN	??_Ebad_array_new_length@std@@UAEPAXI@Z:PROC	; std::bad_array_new_length::`vector deleting destructor'
EXTRN	?_Xlength_error@std@@YAXPBD@Z:PROC		; std::_Xlength_error
EXTRN	?StringPath@@YAXAAV?$basic_string@DU?$char_traits@D@std@@V?$allocator@D@2@@std@@@Z:PROC ; StringPath
EXTRN	?StringPath@@YAXPBDAAV?$basic_string@DU?$char_traits@D@std@@V?$allocator@D@2@@std@@@Z:PROC ; StringPath
EXTRN	?GetCaseCRC32@@YAKPBDI@Z:PROC			; GetCaseCRC32
EXTRN	_D3DXMatrixMultiply@12:PROC
EXTRN	_D3DXMatrixTranslation@16:PROC
EXTRN	?Tracef@@YAXPBDZZ:PROC				; Tracef
EXTRN	?TraceError@@YAXPBDZZ:PROC			; TraceError
EXTRN	?GetCurrentMillisecond@CTimer@@QAEKXZ:PROC	; CTimer::GetCurrentMillisecond
EXTRN	?WikiModuleRenderOneEffect@CEffectManager@@QAEXK@Z:PROC ; CEffectManager::WikiModuleRenderOneEffect
EXTRN	?IsAliveEffect@CEffectManager@@QAE_NK@Z:PROC	; CEffectManager::IsAliveEffect
EXTRN	?CreateEffectInstance@CEffectManager@@QAEXKKMPBUD3DXVECTOR3@@@Z:PROC ; CEffectManager::CreateEffectInstance
EXTRN	?SelectEffectInstance@CEffectManager@@QAEHK@Z:PROC ; CEffectManager::SelectEffectInstance
EXTRN	?DestroyEffectInstance@CEffectManager@@QAE_NK@Z:PROC ; CEffectManager::DestroyEffectInstance
EXTRN	?SetSpecialRenderEffect@CEffectManager@@QAEXK@Z:PROC ; CEffectManager::SetSpecialRenderEffect
EXTRN	?SetEffectInstanceGlobalMatrix@CEffectManager@@QAEXABUD3DXMATRIX@@@Z:PROC ; CEffectManager::SetEffectInstanceGlobalMatrix
EXTRN	?ShowEffect@CEffectManager@@QAEXXZ:PROC		; CEffectManager::ShowEffect
EXTRN	?HideEffect@CEffectManager@@QAEXXZ:PROC		; CEffectManager::HideEffect
EXTRN	?GetEmptyIndex@CEffectManager@@QAEHXZ:PROC	; CEffectManager::GetEmptyIndex
EXTRN	?GetAttachingBoneName@CRaceData@@QAEHKPAPBD@Z:PROC ; CRaceData::GetAttachingBoneName
EXTRN	?GetAttachingDataCount@CRaceData@@QAEKXZ:PROC	; CRaceData::GetAttachingDataCount
EXTRN	?GetAttachingDataPointer@CRaceData@@QAEHKPAPBUSAttachingData@NRaceData@@@Z:PROC ; CRaceData::GetAttachingDataPointer
EXTRN	?GetSmokeEffectID@CRaceData@@QAEKI@Z:PROC	; CRaceData::GetSmokeEffectID
EXTRN	?GetSmokeBone@CRaceData@@QAEABV?$basic_string@DU?$char_traits@D@std@@V?$allocator@D@2@@std@@XZ:PROC ; CRaceData::GetSmokeBone
EXTRN	?RegisterModelThing@CGraphicThingInstance@@QAEXHPAVCGraphicThing@@@Z:PROC ; CGraphicThingInstance::RegisterModelThing
EXTRN	?RegisterLODThing@CGraphicThingInstance@@QAEXHPAVCGraphicThing@@@Z:PROC ; CGraphicThingInstance::RegisterLODThing
EXTRN	?SetModelInstance@CGraphicThingInstance@@QAE_NHHHH@Z:PROC ; CGraphicThingInstance::SetModelInstance
EXTRN	?AttachModelInstance@CGraphicThingInstance@@QAEXHPBDH@Z:PROC ; CGraphicThingInstance::AttachModelInstance
EXTRN	?FindBoneIndex@CGraphicThingInstance@@QAE_NHPBDPAH@Z:PROC ; CGraphicThingInstance::FindBoneIndex
EXTRN	?SetMaterialData@CGraphicThingInstance@@QAEXIPBDUSMaterialData@@@Z:PROC ; CGraphicThingInstance::SetMaterialData
EXTRN	?GetBoneMatrix@CGraphicThingInstance@@QAEHKKPAPAUD3DXMATRIX@@@Z:PROC ; CGraphicThingInstance::GetBoneMatrix
EXTRN	?IsRenderTarget@CActorInstance@@QAE_NXZ:PROC	; CActorInstance::IsRenderTarget
EXTRN	?CreateCollisionInstancePiece@CActorInstance@@QAE_NKPBUSAttachingData@NRaceData@@PAUSCollisionPointInstance@1@@Z:PROC ; CActorInstance::CreateCollisionInstancePiece
EXTRN	?__IsMountingHorse@CActorInstance@@IAE_NXZ:PROC	; CActorInstance::__IsMountingHorse
EXTRN	?__DestroyWeaponTrace@CActorInstance@@IAEXXZ:PROC ; CActorInstance::__DestroyWeaponTrace
EXTRN	?GetModelThing@CItemData@@QAEPAVCGraphicThing@@XZ:PROC ; CItemData::GetModelThing
EXTRN	?GetSubModelThing@CItemData@@QAEPAVCGraphicThing@@XZ:PROC ; CItemData::GetSubModelThing
EXTRN	?GetLODModelThingCount@CItemData@@QAEKXZ:PROC	; CItemData::GetLODModelThingCount
EXTRN	?GetLODModelThingPointer@CItemData@@QAEHKPAPAVCGraphicThing@@@Z:PROC ; CItemData::GetLODModelThingPointer
EXTRN	?GetAttachingDataCount@CItemData@@QAEKXZ:PROC	; CItemData::GetAttachingDataCount
EXTRN	?GetAttachingDataPointer@CItemData@@QAEHKPAPBUSAttachingData@NRaceData@@@Z:PROC ; CItemData::GetAttachingDataPointer
EXTRN	?GetWeaponType@CItemData@@QBEKXZ:PROC		; CItemData::GetWeaponType
EXTRN	?GetSpecularPowerf@CItemData@@QBEMXZ:PROC	; CItemData::GetSpecularPowerf
EXTRN	?GetItemDataPointer@CItemManager@@QAEHKPAPAVCItemData@@@Z:PROC ; CItemManager::GetItemDataPointer
EXTRN	?New@CWeaponTrace@@SAPAV1@XZ:PROC		; CWeaponTrace::New
EXTRN	?UseAlpha@CWeaponTrace@@QAEXXZ:PROC		; CWeaponTrace::UseAlpha
EXTRN	?UseTexture@CWeaponTrace@@QAEXXZ:PROC		; CWeaponTrace::UseTexture
EXTRN	?SetTexture@CWeaponTrace@@QAEXPBD@Z:PROC	; CWeaponTrace::SetTexture
EXTRN	?SetWeaponInstance@CWeaponTrace@@QAE_NPAVCGraphicThingInstance@@KPBD@Z:PROC ; CWeaponTrace::SetWeaponInstance
EXTRN	@__security_check_cookie@4:PROC
EXTRN	__CxxThrowException@8:PROC
EXTRN	___CxxFrameHandler3:PROC
EXTRN	_memmove:PROC
EXTRN	___security_cookie:DWORD
EXTRN	__fltused:DWORD
;	COMDAT ?ms_singleton@?$CSingleton@VCTimer@@@@0PAVCTimer@@A
_BSS	SEGMENT
?ms_singleton@?$CSingleton@VCTimer@@@@0PAVCTimer@@A DD 01H DUP (?) ; CSingleton<CTimer>::ms_singleton
_BSS	ENDS
;	COMDAT ?ms_singleton@?$CSingleton@VCEffectManager@@@@0PAVCEffectManager@@A
_BSS	SEGMENT
?ms_singleton@?$CSingleton@VCEffectManager@@@@0PAVCEffectManager@@A DD 01H DUP (?) ; CSingleton<CEffectManager>::ms_singleton
_BSS	ENDS
;	COMDAT ?ms_singleton@?$CSingleton@VCItemManager@@@@0PAVCItemManager@@A
_BSS	SEGMENT
?ms_singleton@?$CSingleton@VCItemManager@@@@0PAVCItemManager@@A DD 01H DUP (?) ; CSingleton<CItemManager>::ms_singleton
_BSS	ENDS
;	COMDAT CRT$XCU
CRT$XCU	SEGMENT
??ms_kPool$initializer$@?$CPooledObject@VCHeaderDecorator@NEffectUpdateDecorator@@@@1P6AXXZA@@3P6AXXZA DD FLAT:??__E?ms_kPool@?$CPooledObject@VCHeaderDecorator@NEffectUpdateDecorator@@@@1V?$CDynamicPoolEx@VCHeaderDecorator@NEffectUpdateDecorator@@@@A@@YAXXZ ; ??ms_kPool$initializer$@?$CPooledObject@VCHeaderDecorator@NEffectUpdateDecorator@@@@1P6AXXZA@@3P6AXXZA
CRT$XCU	ENDS
;	COMDAT ??_C@_0BA@FOIKENOD@vector?5too?5long@
CONST	SEGMENT
??_C@_0BA@FOIKENOD@vector?5too?5long@ DB 'vector too long', 00H ; `string'
CONST	ENDS
;	COMDAT ??_C@_0O@NKNMEGII@list?5too?5long@
CONST	SEGMENT
??_C@_0O@NKNMEGII@list?5too?5long@ DB 'list too long', 00H ; `string'
CONST	ENDS
;	COMDAT ??_C@_0N@DLOEJLFF@Bip01?5Spine2@
CONST	SEGMENT
??_C@_0N@DLOEJLFF@Bip01?5Spine2@ DB 'Bip01 Spine2', 00H	; `string'
CONST	ENDS
;	COMDAT ??_C@_0BD@NKMCNOEI@Creating?5?$CFp?5?$CFd?5?$CFd?6@
CONST	SEGMENT
??_C@_0BD@NKMCNOEI@Creating?5?$CFp?5?$CFd?5?$CFd?6@ DB 'Creating %p %d %d'
	DB	0aH, 00H					; `string'
CONST	ENDS
;	COMDAT ??_C@_0BH@KNPFFH@Cannot?5get?5Bone?5Index?6@
CONST	SEGMENT
??_C@_0BH@KNPFFH@Cannot?5get?5Bone?5Index?6@ DB 'Cannot get Bone Index', 0aH
	DB	00H						; `string'
CONST	ENDS
;	COMDAT ??_C@_0ED@FCEINDDL@void?5CActorInstance?3?3RefreshAct@
CONST	SEGMENT
??_C@_0ED@FCEINDDL@void?5CActorInstance?3?3RefreshAct@ DB 'void CActorIns'
	DB	'tance::RefreshActorInstance() - m_pkCurRaceData=NULL', 00H ; `string'
CONST	ENDS
;	COMDAT ?ms_kPool@?$CPooledObject@VCRotationDecorator@NEffectUpdateDecorator@@@@1V?$CDynamicPoolEx@VCRotationDecorator@NEffectUpdateDecorator@@@@A
_DATA	SEGMENT
?ms_kPool@?$CPooledObject@VCRotationDecorator@NEffectUpdateDecorator@@@@1V?$CDynamicPoolEx@VCRotationDecorator@NEffectUpdateDecorator@@@@A DD FLAT:??_7?$CDynamicPoolEx@VCRotationDecorator@NEffectUpdateDecorator@@@@6B@ ; CPooledObject<NEffectUpdateDecorator::CRotationDecorator>::ms_kPool
	DD	00H
	DD	00H
	DD	00H
	DD	00H
	DD	00H
	DD	00H
	DD	00H
	DD	00H
_DATA	ENDS
;	COMDAT ?ms_kPool@?$CPooledObject@VCGravityDecorator@NEffectUpdateDecorator@@@@1V?$CDynamicPoolEx@VCGravityDecorator@NEffectUpdateDecorator@@@@A
_DATA	SEGMENT
?ms_kPool@?$CPooledObject@VCGravityDecorator@NEffectUpdateDecorator@@@@1V?$CDynamicPoolEx@VCGravityDecorator@NEffectUpdateDecorator@@@@A DD FLAT:??_7?$CDynamicPoolEx@VCGravityDecorator@NEffectUpdateDecorator@@@@6B@ ; CPooledObject<NEffectUpdateDecorator::CGravityDecorator>::ms_kPool
	DD	00H
	DD	00H
	DD	00H
	DD	00H
	DD	00H
	DD	00H
	DD	00H
	DD	00H
_DATA	ENDS
;	COMDAT ?ms_kPool@?$CPooledObject@VCAirResistanceDecorator@NEffectUpdateDecorator@@@@1V?$CDynamicPoolEx@VCAirResistanceDecorator@NEffectUpdateDecorator@@@@A
_DATA	SEGMENT
?ms_kPool@?$CPooledObject@VCAirResistanceDecorator@NEffectUpdateDecorator@@@@1V?$CDynamicPoolEx@VCAirResistanceDecorator@NEffectUpdateDecorator@@@@A DD FLAT:??_7?$CDynamicPoolEx@VCAirResistanceDecorator@NEffectUpdateDecorator@@@@6B@ ; CPooledObject<NEffectUpdateDecorator::CAirResistanceDecorator>::ms_kPool
	DD	00H
	DD	00H
	DD	00H
	DD	00H
	DD	00H
	DD	00H
	DD	00H
	DD	00H
_DATA	ENDS
;	COMDAT ?ms_kPool@?$CPooledObject@VCTextureAnimationRandomDecorator@NEffectUpdateDecorator@@@@1V?$CDynamicPoolEx@VCTextureAnimationRandomDecorator@NEffectUpdateDecorator@@@@A
_DATA	SEGMENT
?ms_kPool@?$CPooledObject@VCTextureAnimationRandomDecorator@NEffectUpdateDecorator@@@@1V?$CDynamicPoolEx@VCTextureAnimationRandomDecorator@NEffectUpdateDecorator@@@@A DD FLAT:??_7?$CDynamicPoolEx@VCTextureAnimationRandomDecorator@NEffectUpdateDecorator@@@@6B@ ; CPooledObject<NEffectUpdateDecorator::CTextureAnimationRandomDecorator>::ms_kPool
	DD	00H
	DD	00H
	DD	00H
	DD	00H
	DD	00H
	DD	00H
	DD	00H
	DD	00H
_DATA	ENDS
;	COMDAT ?ms_kPool@?$CPooledObject@VCTextureAnimationCCWDecorator@NEffectUpdateDecorator@@@@1V?$CDynamicPoolEx@VCTextureAnimationCCWDecorator@NEffectUpdateDecorator@@@@A
_DATA	SEGMENT
?ms_kPool@?$CPooledObject@VCTextureAnimationCCWDecorator@NEffectUpdateDecorator@@@@1V?$CDynamicPoolEx@VCTextureAnimationCCWDecorator@NEffectUpdateDecorator@@@@A DD FLAT:??_7?$CDynamicPoolEx@VCTextureAnimationCCWDecorator@NEffectUpdateDecorator@@@@6B@ ; CPooledObject<NEffectUpdateDecorator::CTextureAnimationCCWDecorator>::ms_kPool
	DD	00H
	DD	00H
	DD	00H
	DD	00H
	DD	00H
	DD	00H
	DD	00H
	DD	00H
_DATA	ENDS
;	COMDAT ?ms_kPool@?$CPooledObject@VCTextureAnimationCWDecorator@NEffectUpdateDecorator@@@@1V?$CDynamicPoolEx@VCTextureAnimationCWDecorator@NEffectUpdateDecorator@@@@A
_DATA	SEGMENT
?ms_kPool@?$CPooledObject@VCTextureAnimationCWDecorator@NEffectUpdateDecorator@@@@1V?$CDynamicPoolEx@VCTextureAnimationCWDecorator@NEffectUpdateDecorator@@@@A DD FLAT:??_7?$CDynamicPoolEx@VCTextureAnimationCWDecorator@NEffectUpdateDecorator@@@@6B@ ; CPooledObject<NEffectUpdateDecorator::CTextureAnimationCWDecorator>::ms_kPool
	DD	00H
	DD	00H
	DD	00H
	DD	00H
	DD	00H
	DD	00H
	DD	00H
	DD	00H
_DATA	ENDS
;	COMDAT ?ms_kPool@?$CPooledObject@VCNullDecorator@NEffectUpdateDecorator@@@@1V?$CDynamicPoolEx@VCNullDecorator@NEffectUpdateDecorator@@@@A
_DATA	SEGMENT
?ms_kPool@?$CPooledObject@VCNullDecorator@NEffectUpdateDecorator@@@@1V?$CDynamicPoolEx@VCNullDecorator@NEffectUpdateDecorator@@@@A DD FLAT:??_7?$CDynamicPoolEx@VCNullDecorator@NEffectUpdateDecorator@@@@6B@ ; CPooledObject<NEffectUpdateDecorator::CNullDecorator>::ms_kPool
	DD	00H
	DD	00H
	DD	00H
	DD	00H
	DD	00H
	DD	00H
	DD	00H
	DD	00H
_DATA	ENDS
;	COMDAT ?ms_kPool@?$CPooledObject@VCHeaderDecorator@NEffectUpdateDecorator@@@@1V?$CDynamicPoolEx@VCHeaderDecorator@NEffectUpdateDecorator@@@@A
_DATA	SEGMENT
?ms_kPool@?$CPooledObject@VCHeaderDecorator@NEffectUpdateDecorator@@@@1V?$CDynamicPoolEx@VCHeaderDecorator@NEffectUpdateDecorator@@@@A DD FLAT:??_7?$CDynamicPoolEx@VCHeaderDecorator@NEffectUpdateDecorator@@@@6B@ ; CPooledObject<NEffectUpdateDecorator::CHeaderDecorator>::ms_kPool
	DD	00H
	DD	00H
	DD	00H
	DD	00H
	DD	00H
	DD	00H
	DD	00H
	DD	00H
_DATA	ENDS
;	COMDAT ??_R1A@?0A@EA@bad_array_new_length@std@@8
rdata$r	SEGMENT
??_R1A@?0A@EA@bad_array_new_length@std@@8 DD FLAT:??_R0?AVbad_array_new_length@std@@@8 ; std::bad_array_new_length::`RTTI Base Class Descriptor at (0,-1,0,64)'
	DD	02H
	DD	00H
	DD	0ffffffffH
	DD	00H
	DD	040H
	DD	FLAT:??_R3bad_array_new_length@std@@8
rdata$r	ENDS
;	COMDAT ??_R2bad_array_new_length@std@@8
rdata$r	SEGMENT
??_R2bad_array_new_length@std@@8 DD FLAT:??_R1A@?0A@EA@bad_array_new_length@std@@8 ; std::bad_array_new_length::`RTTI Base Class Array'
	DD	FLAT:??_R1A@?0A@EA@bad_alloc@std@@8
	DD	FLAT:??_R1A@?0A@EA@exception@std@@8
rdata$r	ENDS
;	COMDAT ??_R3bad_array_new_length@std@@8
rdata$r	SEGMENT
??_R3bad_array_new_length@std@@8 DD 00H			; std::bad_array_new_length::`RTTI Class Hierarchy Descriptor'
	DD	00H
	DD	03H
	DD	FLAT:??_R2bad_array_new_length@std@@8
rdata$r	ENDS
;	COMDAT ??_R4bad_array_new_length@std@@6B@
rdata$r	SEGMENT
??_R4bad_array_new_length@std@@6B@ DD 00H		; std::bad_array_new_length::`RTTI Complete Object Locator'
	DD	00H
	DD	00H
	DD	FLAT:??_R0?AVbad_array_new_length@std@@@8
	DD	FLAT:??_R3bad_array_new_length@std@@8
rdata$r	ENDS
;	COMDAT ??_R1A@?0A@EA@bad_alloc@std@@8
rdata$r	SEGMENT
??_R1A@?0A@EA@bad_alloc@std@@8 DD FLAT:??_R0?AVbad_alloc@std@@@8 ; std::bad_alloc::`RTTI Base Class Descriptor at (0,-1,0,64)'
	DD	01H
	DD	00H
	DD	0ffffffffH
	DD	00H
	DD	040H
	DD	FLAT:??_R3bad_alloc@std@@8
rdata$r	ENDS
;	COMDAT ??_R2bad_alloc@std@@8
rdata$r	SEGMENT
??_R2bad_alloc@std@@8 DD FLAT:??_R1A@?0A@EA@bad_alloc@std@@8 ; std::bad_alloc::`RTTI Base Class Array'
	DD	FLAT:??_R1A@?0A@EA@exception@std@@8
rdata$r	ENDS
;	COMDAT ??_R3bad_alloc@std@@8
rdata$r	SEGMENT
??_R3bad_alloc@std@@8 DD 00H				; std::bad_alloc::`RTTI Class Hierarchy Descriptor'
	DD	00H
	DD	02H
	DD	FLAT:??_R2bad_alloc@std@@8
rdata$r	ENDS
;	COMDAT ??_R4bad_alloc@std@@6B@
rdata$r	SEGMENT
??_R4bad_alloc@std@@6B@ DD 00H				; std::bad_alloc::`RTTI Complete Object Locator'
	DD	00H
	DD	00H
	DD	FLAT:??_R0?AVbad_alloc@std@@@8
	DD	FLAT:??_R3bad_alloc@std@@8
rdata$r	ENDS
;	COMDAT ??_R1A@?0A@EA@exception@std@@8
rdata$r	SEGMENT
??_R1A@?0A@EA@exception@std@@8 DD FLAT:??_R0?AVexception@std@@@8 ; std::exception::`RTTI Base Class Descriptor at (0,-1,0,64)'
	DD	00H
	DD	00H
	DD	0ffffffffH
	DD	00H
	DD	040H
	DD	FLAT:??_R3exception@std@@8
rdata$r	ENDS
;	COMDAT ??_R2exception@std@@8
rdata$r	SEGMENT
??_R2exception@std@@8 DD FLAT:??_R1A@?0A@EA@exception@std@@8 ; std::exception::`RTTI Base Class Array'
rdata$r	ENDS
;	COMDAT ??_R3exception@std@@8
rdata$r	SEGMENT
??_R3exception@std@@8 DD 00H				; std::exception::`RTTI Class Hierarchy Descriptor'
	DD	00H
	DD	01H
	DD	FLAT:??_R2exception@std@@8
rdata$r	ENDS
;	COMDAT ??_R4exception@std@@6B@
rdata$r	SEGMENT
??_R4exception@std@@6B@ DD 00H				; std::exception::`RTTI Complete Object Locator'
	DD	00H
	DD	00H
	DD	FLAT:??_R0?AVexception@std@@@8
	DD	FLAT:??_R3exception@std@@8
rdata$r	ENDS
;	COMDAT __CT??_R0?AVexception@std@@@8??0exception@std@@QAE@ABV01@@Z12
xdata$x	SEGMENT
__CT??_R0?AVexception@std@@@8??0exception@std@@QAE@ABV01@@Z12 DD 00H
	DD	FLAT:??_R0?AVexception@std@@@8
	DD	00H
	DD	0ffffffffH
	ORG $+4
	DD	0cH
	DD	FLAT:??0exception@std@@QAE@ABV01@@Z
xdata$x	ENDS
;	COMDAT ??_R0?AVexception@std@@@8
data$r	SEGMENT
??_R0?AVexception@std@@@8 DD FLAT:??_7type_info@@6B@	; std::exception `RTTI Type Descriptor'
	DD	00H
	DB	'.?AVexception@std@@', 00H
data$r	ENDS
;	COMDAT __CT??_R0?AVbad_alloc@std@@@8??0bad_alloc@std@@QAE@ABV01@@Z12
xdata$x	SEGMENT
__CT??_R0?AVbad_alloc@std@@@8??0bad_alloc@std@@QAE@ABV01@@Z12 DD 010H
	DD	FLAT:??_R0?AVbad_alloc@std@@@8
	DD	00H
	DD	0ffffffffH
	ORG $+4
	DD	0cH
	DD	FLAT:??0bad_alloc@std@@QAE@ABV01@@Z
xdata$x	ENDS
;	COMDAT ??_R0?AVbad_alloc@std@@@8
data$r	SEGMENT
??_R0?AVbad_alloc@std@@@8 DD FLAT:??_7type_info@@6B@	; std::bad_alloc `RTTI Type Descriptor'
	DD	00H
	DB	'.?AVbad_alloc@std@@', 00H
data$r	ENDS
;	COMDAT __CT??_R0?AVbad_array_new_length@std@@@8??0bad_array_new_length@std@@QAE@ABV01@@Z12
xdata$x	SEGMENT
__CT??_R0?AVbad_array_new_length@std@@@8??0bad_array_new_length@std@@QAE@ABV01@@Z12 DD 00H
	DD	FLAT:??_R0?AVbad_array_new_length@std@@@8
	DD	00H
	DD	0ffffffffH
	ORG $+4
	DD	0cH
	DD	FLAT:??0bad_array_new_length@std@@QAE@ABV01@@Z
xdata$x	ENDS
;	COMDAT ??_R0?AVbad_array_new_length@std@@@8
data$r	SEGMENT
??_R0?AVbad_array_new_length@std@@@8 DD FLAT:??_7type_info@@6B@ ; std::bad_array_new_length `RTTI Type Descriptor'
	DD	00H
	DB	'.?AVbad_array_new_length@std@@', 00H
data$r	ENDS
;	COMDAT __CTA3?AVbad_array_new_length@std@@
xdata$x	SEGMENT
__CTA3?AVbad_array_new_length@std@@ DD 03H
	DD	FLAT:__CT??_R0?AVbad_array_new_length@std@@@8??0bad_array_new_length@std@@QAE@ABV01@@Z12
	DD	FLAT:__CT??_R0?AVbad_alloc@std@@@8??0bad_alloc@std@@QAE@ABV01@@Z12
	DD	FLAT:__CT??_R0?AVexception@std@@@8??0exception@std@@QAE@ABV01@@Z12
xdata$x	ENDS
;	COMDAT __TI3?AVbad_array_new_length@std@@
xdata$x	SEGMENT
__TI3?AVbad_array_new_length@std@@ DD 00H
	DD	FLAT:??1bad_array_new_length@std@@UAE@XZ
	DD	00H
	DD	FLAT:__CTA3?AVbad_array_new_length@std@@
xdata$x	ENDS
;	COMDAT ??_C@_0BF@KINCDENJ@bad?5array?5new?5length@
CONST	SEGMENT
??_C@_0BF@KINCDENJ@bad?5array?5new?5length@ DB 'bad array new length', 00H ; `string'
CONST	ENDS
;	COMDAT ??_7bad_array_new_length@std@@6B@
CONST	SEGMENT
??_7bad_array_new_length@std@@6B@ DD FLAT:??_R4bad_array_new_length@std@@6B@ ; std::bad_array_new_length::`vftable'
	DD	FLAT:??_Ebad_array_new_length@std@@UAEPAXI@Z
	DD	FLAT:?what@exception@std@@UBEPBDXZ
CONST	ENDS
;	COMDAT ??_7bad_alloc@std@@6B@
CONST	SEGMENT
??_7bad_alloc@std@@6B@ DD FLAT:??_R4bad_alloc@std@@6B@	; std::bad_alloc::`vftable'
	DD	FLAT:??_Ebad_alloc@std@@UAEPAXI@Z
	DD	FLAT:?what@exception@std@@UBEPBDXZ
CONST	ENDS
;	COMDAT ??_C@_0BC@EOODALEL@Unknown?5exception@
CONST	SEGMENT
??_C@_0BC@EOODALEL@Unknown?5exception@ DB 'Unknown exception', 00H ; `string'
CONST	ENDS
;	COMDAT ??_7exception@std@@6B@
CONST	SEGMENT
??_7exception@std@@6B@ DD FLAT:??_R4exception@std@@6B@	; std::exception::`vftable'
	DD	FLAT:??_Eexception@std@@UAEPAXI@Z
	DD	FLAT:?what@exception@std@@UBEPBDXZ
CONST	ENDS
;	COMDAT xdata$x
xdata$x	SEGMENT
__unwindtable$??$?0ABUSCollisionPointInstance@CActorInstance@@@?$_List_node_emplace_op2@V?$allocator@U?$_List_node@USCollisionPointInstance@CActorInstance@@PAX@std@@@std@@@std@@QAE@AAV?$allocator@U?$_List_node@USCollisionPointInstance@CActorInstance@@PAX@std@@@1@ABUSCollisionPointInstance@CActorInstance@@@Z DD 0ffffffffH
	DD	FLAT:__unwindfunclet$??$?0ABUSCollisionPointInstance@CActorInstance@@@?$_List_node_emplace_op2@V?$allocator@U?$_List_node@USCollisionPointInstance@CActorInstance@@PAX@std@@@std@@@std@@QAE@AAV?$allocator@U?$_List_node@USCollisionPointInstance@CActorInstance@@PAX@std@@@1@ABUSCollisionPointInstance@CActorInstance@@@Z$0
__ehfuncinfo$??$?0ABUSCollisionPointInstance@CActorInstance@@@?$_List_node_emplace_op2@V?$allocator@U?$_List_node@USCollisionPointInstance@CActorInstance@@PAX@std@@@std@@@std@@QAE@AAV?$allocator@U?$_List_node@USCollisionPointInstance@CActorInstance@@PAX@std@@@1@ABUSCollisionPointInstance@CActorInstance@@@Z DD 019930522H
	DD	01H
	DD	FLAT:__unwindtable$??$?0ABUSCollisionPointInstance@CActorInstance@@@?$_List_node_emplace_op2@V?$allocator@U?$_List_node@USCollisionPointInstance@CActorInstance@@PAX@std@@@std@@@std@@QAE@AAV?$allocator@U?$_List_node@USCollisionPointInstance@CActorInstance@@PAX@std@@@1@ABUSCollisionPointInstance@CActorInstance@@@Z
	DD	2 DUP(00H)
	DD	2 DUP(00H)
	DD	00H
	DD	01H
xdata$x	ENDS
;	COMDAT xdata$x
xdata$x	SEGMENT
__unwindtable$??$?0ABUTAttachingEffect@CActorInstance@@@?$_List_node_emplace_op2@V?$allocator@U?$_List_node@UTAttachingEffect@CActorInstance@@PAX@std@@@std@@@std@@QAE@AAV?$allocator@U?$_List_node@UTAttachingEffect@CActorInstance@@PAX@std@@@1@ABUTAttachingEffect@CActorInstance@@@Z DD 0ffffffffH
	DD	FLAT:__unwindfunclet$??$?0ABUTAttachingEffect@CActorInstance@@@?$_List_node_emplace_op2@V?$allocator@U?$_List_node@UTAttachingEffect@CActorInstance@@PAX@std@@@std@@@std@@QAE@AAV?$allocator@U?$_List_node@UTAttachingEffect@CActorInstance@@PAX@std@@@1@ABUTAttachingEffect@CActorInstance@@@Z$0
__ehfuncinfo$??$?0ABUTAttachingEffect@CActorInstance@@@?$_List_node_emplace_op2@V?$allocator@U?$_List_node@UTAttachingEffect@CActorInstance@@PAX@std@@@std@@@std@@QAE@AAV?$allocator@U?$_List_node@UTAttachingEffect@CActorInstance@@PAX@std@@@1@ABUTAttachingEffect@CActorInstance@@@Z DD 019930522H
	DD	01H
	DD	FLAT:__unwindtable$??$?0ABUTAttachingEffect@CActorInstance@@@?$_List_node_emplace_op2@V?$allocator@U?$_List_node@UTAttachingEffect@CActorInstance@@PAX@std@@@std@@@std@@QAE@AAV?$allocator@U?$_List_node@UTAttachingEffect@CActorInstance@@PAX@std@@@1@ABUTAttachingEffect@CActorInstance@@@Z
	DD	2 DUP(00H)
	DD	2 DUP(00H)
	DD	00H
	DD	01H
xdata$x	ENDS
;	COMDAT xdata$x
xdata$x	SEGMENT
__ehfuncinfo$??1?$CDynamicPoolEx@VCHeaderDecorator@NEffectUpdateDecorator@@@@UAE@XZ DD 019930522H
	DD	00H
	DD	00H
	DD	2 DUP(00H)
	DD	2 DUP(00H)
	DD	00H
	DD	05H
xdata$x	ENDS
;	COMDAT xdata$x
xdata$x	SEGMENT
__ehfuncinfo$??1?$CDynamicPoolEx@VCNullDecorator@NEffectUpdateDecorator@@@@UAE@XZ DD 019930522H
	DD	00H
	DD	00H
	DD	2 DUP(00H)
	DD	2 DUP(00H)
	DD	00H
	DD	05H
xdata$x	ENDS
;	COMDAT xdata$x
xdata$x	SEGMENT
__ehfuncinfo$??1?$CDynamicPoolEx@VCTextureAnimationCWDecorator@NEffectUpdateDecorator@@@@UAE@XZ DD 019930522H
	DD	00H
	DD	00H
	DD	2 DUP(00H)
	DD	2 DUP(00H)
	DD	00H
	DD	05H
xdata$x	ENDS
;	COMDAT xdata$x
xdata$x	SEGMENT
__ehfuncinfo$??1?$CDynamicPoolEx@VCTextureAnimationCCWDecorator@NEffectUpdateDecorator@@@@UAE@XZ DD 019930522H
	DD	00H
	DD	00H
	DD	2 DUP(00H)
	DD	2 DUP(00H)
	DD	00H
	DD	05H
xdata$x	ENDS
;	COMDAT xdata$x
xdata$x	SEGMENT
__ehfuncinfo$??1?$CDynamicPoolEx@VCTextureAnimationRandomDecorator@NEffectUpdateDecorator@@@@UAE@XZ DD 019930522H
	DD	00H
	DD	00H
	DD	2 DUP(00H)
	DD	2 DUP(00H)
	DD	00H
	DD	05H
xdata$x	ENDS
;	COMDAT xdata$x
xdata$x	SEGMENT
__ehfuncinfo$??1?$CDynamicPoolEx@VCAirResistanceDecorator@NEffectUpdateDecorator@@@@UAE@XZ DD 019930522H
	DD	00H
	DD	00H
	DD	2 DUP(00H)
	DD	2 DUP(00H)
	DD	00H
	DD	05H
xdata$x	ENDS
;	COMDAT xdata$x
xdata$x	SEGMENT
__ehfuncinfo$??1?$CDynamicPoolEx@VCGravityDecorator@NEffectUpdateDecorator@@@@UAE@XZ DD 019930522H
	DD	00H
	DD	00H
	DD	2 DUP(00H)
	DD	2 DUP(00H)
	DD	00H
	DD	05H
xdata$x	ENDS
;	COMDAT xdata$x
xdata$x	SEGMENT
__ehfuncinfo$??1?$CDynamicPoolEx@VCRotationDecorator@NEffectUpdateDecorator@@@@UAE@XZ DD 019930522H
	DD	00H
	DD	00H
	DD	2 DUP(00H)
	DD	2 DUP(00H)
	DD	00H
	DD	05H
xdata$x	ENDS
;	COMDAT xdata$x
xdata$x	SEGMENT
__unwindtable$??$_Emplace@ABUSCollisionPointInstance@CActorInstance@@@?$list@USCollisionPointInstance@CActorInstance@@V?$allocator@USCollisionPointInstance@CActorInstance@@@std@@@std@@QAEPAU?$_List_node@USCollisionPointInstance@CActorInstance@@PAX@1@QAU21@ABUSCollisionPointInstance@CActorInstance@@@Z DD 0ffffffffH
	DD	FLAT:__unwindfunclet$??$_Emplace@ABUSCollisionPointInstance@CActorInstance@@@?$list@USCollisionPointInstance@CActorInstance@@V?$allocator@USCollisionPointInstance@CActorInstance@@@std@@@std@@QAEPAU?$_List_node@USCollisionPointInstance@CActorInstance@@PAX@1@QAU21@ABUSCollisionPointInstance@CActorInstance@@@Z$1
__ehfuncinfo$??$_Emplace@ABUSCollisionPointInstance@CActorInstance@@@?$list@USCollisionPointInstance@CActorInstance@@V?$allocator@USCollisionPointInstance@CActorInstance@@@std@@@std@@QAEPAU?$_List_node@USCollisionPointInstance@CActorInstance@@PAX@1@QAU21@ABUSCollisionPointInstance@CActorInstance@@@Z DD 019930522H
	DD	01H
	DD	FLAT:__unwindtable$??$_Emplace@ABUSCollisionPointInstance@CActorInstance@@@?$list@USCollisionPointInstance@CActorInstance@@V?$allocator@USCollisionPointInstance@CActorInstance@@@std@@@std@@QAEPAU?$_List_node@USCollisionPointInstance@CActorInstance@@PAX@1@QAU21@ABUSCollisionPointInstance@CActorInstance@@@Z
	DD	2 DUP(00H)
	DD	2 DUP(00H)
	DD	00H
	DD	01H
xdata$x	ENDS
;	COMDAT xdata$x
xdata$x	SEGMENT
__unwindtable$??$_Emplace@ABUTAttachingEffect@CActorInstance@@@?$list@UTAttachingEffect@CActorInstance@@V?$allocator@UTAttachingEffect@CActorInstance@@@std@@@std@@QAEPAU?$_List_node@UTAttachingEffect@CActorInstance@@PAX@1@QAU21@ABUTAttachingEffect@CActorInstance@@@Z DD 0ffffffffH
	DD	FLAT:__unwindfunclet$??$_Emplace@ABUTAttachingEffect@CActorInstance@@@?$list@UTAttachingEffect@CActorInstance@@V?$allocator@UTAttachingEffect@CActorInstance@@@std@@@std@@QAEPAU?$_List_node@UTAttachingEffect@CActorInstance@@PAX@1@QAU21@ABUTAttachingEffect@CActorInstance@@@Z$1
__ehfuncinfo$??$_Emplace@ABUTAttachingEffect@CActorInstance@@@?$list@UTAttachingEffect@CActorInstance@@V?$allocator@UTAttachingEffect@CActorInstance@@@std@@@std@@QAEPAU?$_List_node@UTAttachingEffect@CActorInstance@@PAX@1@QAU21@ABUTAttachingEffect@CActorInstance@@@Z DD 019930522H
	DD	01H
	DD	FLAT:__unwindtable$??$_Emplace@ABUTAttachingEffect@CActorInstance@@@?$list@UTAttachingEffect@CActorInstance@@V?$allocator@UTAttachingEffect@CActorInstance@@@std@@@std@@QAEPAU?$_List_node@UTAttachingEffect@CActorInstance@@PAX@1@QAU21@ABUTAttachingEffect@CActorInstance@@@Z
	DD	2 DUP(00H)
	DD	2 DUP(00H)
	DD	00H
	DD	01H
xdata$x	ENDS
;	COMDAT xdata$x
xdata$x	SEGMENT
__unwindtable$?push_back@?$list@UTAttachingEffect@CActorInstance@@V?$allocator@UTAttachingEffect@CActorInstance@@@std@@@std@@QAEXABUTAttachingEffect@CActorInstance@@@Z DD 0ffffffffH
	DD	FLAT:__unwindfunclet$?push_back@?$list@UTAttachingEffect@CActorInstance@@V?$allocator@UTAttachingEffect@CActorInstance@@@std@@@std@@QAEXABUTAttachingEffect@CActorInstance@@@Z$1
__ehfuncinfo$?push_back@?$list@UTAttachingEffect@CActorInstance@@V?$allocator@UTAttachingEffect@CActorInstance@@@std@@@std@@QAEXABUTAttachingEffect@CActorInstance@@@Z DD 019930522H
	DD	01H
	DD	FLAT:__unwindtable$?push_back@?$list@UTAttachingEffect@CActorInstance@@V?$allocator@UTAttachingEffect@CActorInstance@@@std@@@std@@QAEXABUTAttachingEffect@CActorInstance@@@Z
	DD	2 DUP(00H)
	DD	2 DUP(00H)
	DD	00H
	DD	01H
xdata$x	ENDS
;	COMDAT xdata$x
xdata$x	SEGMENT
__unwindtable$?AttachEffectByName@CActorInstance@@QAEKKPBD0@Z DD 0ffffffffH
	DD	FLAT:__unwindfunclet$?AttachEffectByName@CActorInstance@@QAEKKPBD0@Z$0
__ehfuncinfo$?AttachEffectByName@CActorInstance@@QAEKKPBD0@Z DD 019930522H
	DD	01H
	DD	FLAT:__unwindtable$?AttachEffectByName@CActorInstance@@QAEKKPBD0@Z
	DD	2 DUP(00H)
	DD	2 DUP(00H)
	DD	00H
	DD	01H
xdata$x	ENDS
;	COMDAT xdata$x
xdata$x	SEGMENT
__unwindtable$?RefreshActorInstance@CActorInstance@@QAEXXZ DD 0ffffffffH
	DD	FLAT:__unwindfunclet$?RefreshActorInstance@CActorInstance@@QAEXXZ$0
	DD	0ffffffffH
	DD	FLAT:__unwindfunclet$?RefreshActorInstance@CActorInstance@@QAEXXZ$1
	DD	0ffffffffH
	DD	FLAT:__unwindfunclet$?RefreshActorInstance@CActorInstance@@QAEXXZ$5
__ehfuncinfo$?RefreshActorInstance@CActorInstance@@QAEXXZ DD 019930522H
	DD	03H
	DD	FLAT:__unwindtable$?RefreshActorInstance@CActorInstance@@QAEXXZ
	DD	2 DUP(00H)
	DD	2 DUP(00H)
	DD	00H
	DD	01H
xdata$x	ENDS
;	COMDAT CRT$XCU
CRT$XCU	SEGMENT
??ms_kPool$initializer$@?$CPooledObject@VCNullDecorator@NEffectUpdateDecorator@@@@1P6AXXZA@@3P6AXXZA DD FLAT:??__E?ms_kPool@?$CPooledObject@VCNullDecorator@NEffectUpdateDecorator@@@@1V?$CDynamicPoolEx@VCNullDecorator@NEffectUpdateDecorator@@@@A@@YAXXZ ; ??ms_kPool$initializer$@?$CPooledObject@VCNullDecorator@NEffectUpdateDecorator@@@@1P6AXXZA@@3P6AXXZA
CRT$XCU	ENDS
;	COMDAT CRT$XCU
CRT$XCU	SEGMENT
??ms_kPool$initializer$@?$CPooledObject@VCTextureAnimationCWDecorator@NEffectUpdateDecorator@@@@1P6AXXZA@@3P6AXXZA DD FLAT:??__E?ms_kPool@?$CPooledObject@VCTextureAnimationCWDecorator@NEffectUpdateDecorator@@@@1V?$CDynamicPoolEx@VCTextureAnimationCWDecorator@NEffectUpdateDecorator@@@@A@@YAXXZ ; ??ms_kPool$initializer$@?$CPooledObject@VCTextureAnimationCWDecorator@NEffectUpdateDecorator@@@@1P6AXXZA@@3P6AXXZA
CRT$XCU	ENDS
;	COMDAT CRT$XCU
CRT$XCU	SEGMENT
??ms_kPool$initializer$@?$CPooledObject@VCTextureAnimationCCWDecorator@NEffectUpdateDecorator@@@@1P6AXXZA@@3P6AXXZA DD FLAT:??__E?ms_kPool@?$CPooledObject@VCTextureAnimationCCWDecorator@NEffectUpdateDecorator@@@@1V?$CDynamicPoolEx@VCTextureAnimationCCWDecorator@NEffectUpdateDecorator@@@@A@@YAXXZ ; ??ms_kPool$initializer$@?$CPooledObject@VCTextureAnimationCCWDecorator@NEffectUpdateDecorator@@@@1P6AXXZA@@3P6AXXZA
CRT$XCU	ENDS
;	COMDAT CRT$XCU
CRT$XCU	SEGMENT
??ms_kPool$initializer$@?$CPooledObject@VCTextureAnimationRandomDecorator@NEffectUpdateDecorator@@@@1P6AXXZA@@3P6AXXZA DD FLAT:??__E?ms_kPool@?$CPooledObject@VCTextureAnimationRandomDecorator@NEffectUpdateDecorator@@@@1V?$CDynamicPoolEx@VCTextureAnimationRandomDecorator@NEffectUpdateDecorator@@@@A@@YAXXZ ; ??ms_kPool$initializer$@?$CPooledObject@VCTextureAnimationRandomDecorator@NEffectUpdateDecorator@@@@1P6AXXZA@@3P6AXXZA
CRT$XCU	ENDS
;	COMDAT CRT$XCU
CRT$XCU	SEGMENT
??ms_kPool$initializer$@?$CPooledObject@VCAirResistanceDecorator@NEffectUpdateDecorator@@@@1P6AXXZA@@3P6AXXZA DD FLAT:??__E?ms_kPool@?$CPooledObject@VCAirResistanceDecorator@NEffectUpdateDecorator@@@@1V?$CDynamicPoolEx@VCAirResistanceDecorator@NEffectUpdateDecorator@@@@A@@YAXXZ ; ??ms_kPool$initializer$@?$CPooledObject@VCAirResistanceDecorator@NEffectUpdateDecorator@@@@1P6AXXZA@@3P6AXXZA
CRT$XCU	ENDS
;	COMDAT CRT$XCU
CRT$XCU	SEGMENT
??ms_kPool$initializer$@?$CPooledObject@VCGravityDecorator@NEffectUpdateDecorator@@@@1P6AXXZA@@3P6AXXZA DD FLAT:??__E?ms_kPool@?$CPooledObject@VCGravityDecorator@NEffectUpdateDecorator@@@@1V?$CDynamicPoolEx@VCGravityDecorator@NEffectUpdateDecorator@@@@A@@YAXXZ ; ??ms_kPool$initializer$@?$CPooledObject@VCGravityDecorator@NEffectUpdateDecorator@@@@1P6AXXZA@@3P6AXXZA
CRT$XCU	ENDS
;	COMDAT CRT$XCU
CRT$XCU	SEGMENT
??ms_kPool$initializer$@?$CPooledObject@VCRotationDecorator@NEffectUpdateDecorator@@@@1P6AXXZA@@3P6AXXZA DD FLAT:??__E?ms_kPool@?$CPooledObject@VCRotationDecorator@NEffectUpdateDecorator@@@@1V?$CDynamicPoolEx@VCRotationDecorator@NEffectUpdateDecorator@@@@A@@YAXXZ ; ??ms_kPool$initializer$@?$CPooledObject@VCRotationDecorator@NEffectUpdateDecorator@@@@1P6AXXZA@@3P6AXXZA
CRT$XCU	ENDS
; Function compile flags: /Ogtp
; File C:\Program Files\Microsoft Visual Studio\2022\Community\VC\Tools\MSVC\14.34.31933\include\xutility
;	COMDAT ??$_Copy_memmove@PAUCDynamicSphereInstance@@PAU1@@std@@YAPAUCDynamicSphereInstance@@PAU1@00@Z
_TEXT	SEGMENT
__First$ = 8						; size = 4
__Last$ = 12						; size = 4
__Dest$ = 16						; size = 4
??$_Copy_memmove@PAUCDynamicSphereInstance@@PAU1@@std@@YAPAUCDynamicSphereInstance@@PAU1@00@Z PROC ; std::_Copy_memmove<CDynamicSphereInstance *,CDynamicSphereInstance *>, COMDAT

; 3833 : _OutCtgIt _Copy_memmove(_CtgIt _First, _CtgIt _Last, _OutCtgIt _Dest) {

  00000	55		 push	 ebp
  00001	8b ec		 mov	 ebp, esp

; 3834 :     auto _FirstPtr              = _To_address(_First);
; 3835 :     auto _LastPtr               = _To_address(_Last);
; 3836 :     auto _DestPtr               = _To_address(_Dest);
; 3837 :     const char* const _First_ch = const_cast<const char*>(reinterpret_cast<const volatile char*>(_FirstPtr));
; 3838 :     const char* const _Last_ch  = const_cast<const char*>(reinterpret_cast<const volatile char*>(_LastPtr));
; 3839 :     char* const _Dest_ch        = const_cast<char*>(reinterpret_cast<const volatile char*>(_DestPtr));
; 3840 :     const auto _Count           = static_cast<size_t>(_Last_ch - _First_ch);

  00003	8b 45 08	 mov	 eax, DWORD PTR __First$[ebp]
  00006	56		 push	 esi

; 3841 :     _CSTD memmove(_Dest_ch, _First_ch, _Count);

  00007	8b 75 10	 mov	 esi, DWORD PTR __Dest$[ebp]
  0000a	57		 push	 edi
  0000b	8b 7d 0c	 mov	 edi, DWORD PTR __Last$[ebp]
  0000e	2b f8		 sub	 edi, eax
  00010	57		 push	 edi
  00011	50		 push	 eax
  00012	56		 push	 esi
  00013	e8 00 00 00 00	 call	 _memmove
  00018	83 c4 0c	 add	 esp, 12			; 0000000cH

; 3842 :     if constexpr (is_pointer_v<_OutCtgIt>) {
; 3843 :         return reinterpret_cast<_OutCtgIt>(_Dest_ch + _Count);

  0001b	8d 04 37	 lea	 eax, DWORD PTR [edi+esi]
  0001e	5f		 pop	 edi
  0001f	5e		 pop	 esi

; 3844 :     } else {
; 3845 :         return _Dest + (_LastPtr - _FirstPtr);
; 3846 :     }
; 3847 : }

  00020	5d		 pop	 ebp
  00021	c3		 ret	 0
??$_Copy_memmove@PAUCDynamicSphereInstance@@PAU1@@std@@YAPAUCDynamicSphereInstance@@PAU1@00@Z ENDP ; std::_Copy_memmove<CDynamicSphereInstance *,CDynamicSphereInstance *>
_TEXT	ENDS
; Function compile flags: /Ogtp
; File C:\Program Files\Microsoft Visual Studio\2022\Community\VC\Tools\MSVC\14.34.31933\include\xutility
;	COMDAT ??$_Copy_memmove@PAPAVCWeaponTrace@@PAPAV1@@std@@YAPAPAVCWeaponTrace@@PAPAV1@00@Z
_TEXT	SEGMENT
__First$ = 8						; size = 4
__Last$ = 12						; size = 4
__Dest$ = 16						; size = 4
??$_Copy_memmove@PAPAVCWeaponTrace@@PAPAV1@@std@@YAPAPAVCWeaponTrace@@PAPAV1@00@Z PROC ; std::_Copy_memmove<CWeaponTrace * *,CWeaponTrace * *>, COMDAT

; 3833 : _OutCtgIt _Copy_memmove(_CtgIt _First, _CtgIt _Last, _OutCtgIt _Dest) {

  00000	55		 push	 ebp
  00001	8b ec		 mov	 ebp, esp

; 3834 :     auto _FirstPtr              = _To_address(_First);
; 3835 :     auto _LastPtr               = _To_address(_Last);
; 3836 :     auto _DestPtr               = _To_address(_Dest);
; 3837 :     const char* const _First_ch = const_cast<const char*>(reinterpret_cast<const volatile char*>(_FirstPtr));
; 3838 :     const char* const _Last_ch  = const_cast<const char*>(reinterpret_cast<const volatile char*>(_LastPtr));
; 3839 :     char* const _Dest_ch        = const_cast<char*>(reinterpret_cast<const volatile char*>(_DestPtr));
; 3840 :     const auto _Count           = static_cast<size_t>(_Last_ch - _First_ch);

  00003	8b 45 08	 mov	 eax, DWORD PTR __First$[ebp]
  00006	56		 push	 esi

; 3841 :     _CSTD memmove(_Dest_ch, _First_ch, _Count);

  00007	8b 75 10	 mov	 esi, DWORD PTR __Dest$[ebp]
  0000a	57		 push	 edi
  0000b	8b 7d 0c	 mov	 edi, DWORD PTR __Last$[ebp]
  0000e	2b f8		 sub	 edi, eax
  00010	57		 push	 edi
  00011	50		 push	 eax
  00012	56		 push	 esi
  00013	e8 00 00 00 00	 call	 _memmove
  00018	83 c4 0c	 add	 esp, 12			; 0000000cH

; 3842 :     if constexpr (is_pointer_v<_OutCtgIt>) {
; 3843 :         return reinterpret_cast<_OutCtgIt>(_Dest_ch + _Count);

  0001b	8d 04 37	 lea	 eax, DWORD PTR [edi+esi]
  0001e	5f		 pop	 edi
  0001f	5e		 pop	 esi

; 3844 :     } else {
; 3845 :         return _Dest + (_LastPtr - _FirstPtr);
; 3846 :     }
; 3847 : }

  00020	5d		 pop	 ebp
  00021	c3		 ret	 0
??$_Copy_memmove@PAPAVCWeaponTrace@@PAPAV1@@std@@YAPAPAVCWeaponTrace@@PAPAV1@00@Z ENDP ; std::_Copy_memmove<CWeaponTrace * *,CWeaponTrace * *>
_TEXT	ENDS
; Function compile flags: /Ogtp
; File C:\Program Files\Microsoft Visual Studio\2022\Community\VC\Tools\MSVC\14.34.31933\include\xmemory
;	COMDAT ??1?$_Alloc_construct_ptr@V?$allocator@U?$_List_node@USCollisionPointInstance@CActorInstance@@PAX@std@@@std@@@std@@QAE@XZ
_TEXT	SEGMENT
??1?$_Alloc_construct_ptr@V?$allocator@U?$_List_node@USCollisionPointInstance@CActorInstance@@PAX@std@@@std@@@std@@QAE@XZ PROC ; std::_Alloc_construct_ptr<std::allocator<std::_List_node<CActorInstance::SCollisionPointInstance,void *> > >::~_Alloc_construct_ptr<std::allocator<std::_List_node<CActorInstance::SCollisionPointInstance,void *> > >, COMDAT
; _this$ = ecx

; 1017 :         if (_Ptr) {

  00000	8b 41 04	 mov	 eax, DWORD PTR [ecx+4]
  00003	85 c0		 test	 eax, eax
  00005	74 0b		 je	 SHORT $LN8@Alloc_cons

; 255  :         ::operator delete(_Ptr, _Bytes);

  00007	6a 24		 push	 36			; 00000024H
  00009	50		 push	 eax
  0000a	e8 00 00 00 00	 call	 ??3@YAXPAXI@Z		; operator delete
  0000f	83 c4 08	 add	 esp, 8
$LN8@Alloc_cons:

; 1018 :             _Al.deallocate(_Ptr, 1);
; 1019 :         }
; 1020 :     }

  00012	c3		 ret	 0
??1?$_Alloc_construct_ptr@V?$allocator@U?$_List_node@USCollisionPointInstance@CActorInstance@@PAX@std@@@std@@@std@@QAE@XZ ENDP ; std::_Alloc_construct_ptr<std::allocator<std::_List_node<CActorInstance::SCollisionPointInstance,void *> > >::~_Alloc_construct_ptr<std::allocator<std::_List_node<CActorInstance::SCollisionPointInstance,void *> > >
_TEXT	ENDS
; Function compile flags: /Ogtp
; File C:\Program Files\Microsoft Visual Studio\2022\Community\VC\Tools\MSVC\14.34.31933\include\vector
; File C:\Program Files\Microsoft Visual Studio\2022\Community\VC\Tools\MSVC\14.34.31933\include\xmemory
; File C:\Program Files\Microsoft Visual Studio\2022\Community\VC\Tools\MSVC\14.34.31933\include\vector
; File C:\Program Files\Microsoft Visual Studio\2022\Community\VC\Tools\MSVC\14.34.31933\include\xmemory
; File C:\Program Files\Microsoft Visual Studio\2022\Community\VC\Tools\MSVC\14.34.31933\include\vector
; File C:\Program Files\Microsoft Visual Studio\2022\Community\VC\Tools\MSVC\14.34.31933\include\xmemory
; File C:\Program Files\Microsoft Visual Studio\2022\Community\VC\Tools\MSVC\14.34.31933\include\vector
; File C:\Program Files\Microsoft Visual Studio\2022\Community\VC\Tools\MSVC\14.34.31933\include\xmemory
; File C:\Program Files\Microsoft Visual Studio\2022\Community\VC\Tools\MSVC\14.34.31933\include\vector
; File C:\Program Files\Microsoft Visual Studio\2022\Community\VC\Tools\MSVC\14.34.31933\include\xmemory
; File C:\Program Files\Microsoft Visual Studio\2022\Community\VC\Tools\MSVC\14.34.31933\include\vector
; File C:\Program Files\Microsoft Visual Studio\2022\Community\VC\Tools\MSVC\14.34.31933\include\xmemory
; File C:\Program Files\Microsoft Visual Studio\2022\Community\VC\Tools\MSVC\14.34.31933\include\vector
; File C:\Program Files\Microsoft Visual Studio\2022\Community\VC\Tools\MSVC\14.34.31933\include\xmemory
; File C:\Program Files\Microsoft Visual Studio\2022\Community\VC\Tools\MSVC\14.34.31933\include\vector
; File C:\Program Files\Microsoft Visual Studio\2022\Community\VC\Tools\MSVC\14.34.31933\include\xmemory
; File C:\Program Files\Microsoft Visual Studio\2022\Community\VC\Tools\MSVC\14.34.31933\include\vector
; File C:\Program Files\Microsoft Visual Studio\2022\Community\VC\Tools\MSVC\14.34.31933\include\xmemory
; File C:\Program Files\Microsoft Visual Studio\2022\Community\VC\Tools\MSVC\14.34.31933\include\vector
;	COMDAT ??$_Emplace_reallocate@ABQAVCWeaponTrace@@@?$vector@PAVCWeaponTrace@@V?$allocator@PAVCWeaponTrace@@@std@@@std@@AAEPAPAVCWeaponTrace@@QAPAV2@ABQAV2@@Z
_TEXT	SEGMENT
__Newsize$1$ = -12					; size = 4
tv639 = -8						; size = 4
tv622 = -4						; size = 4
__Whereptr$ = 8						; size = 4
_<_Val_0>$ = 12						; size = 4
??$_Emplace_reallocate@ABQAVCWeaponTrace@@@?$vector@PAVCWeaponTrace@@V?$allocator@PAVCWeaponTrace@@@std@@@std@@AAEPAPAVCWeaponTrace@@QAPAV2@ABQAV2@@Z PROC ; std::vector<CWeaponTrace *,std::allocator<CWeaponTrace *> >::_Emplace_reallocate<CWeaponTrace * const &>, COMDAT
; _this$ = ecx

; 875  :     _CONSTEXPR20 pointer _Emplace_reallocate(const pointer _Whereptr, _Valty&&... _Val) {

  00000	55		 push	 ebp
  00001	8b ec		 mov	 ebp, esp
  00003	83 ec 0c	 sub	 esp, 12			; 0000000cH
  00006	53		 push	 ebx

; 876  :         // reallocate and insert by perfectly forwarding _Val at _Whereptr
; 877  :         _Alty& _Al        = _Getal();
; 878  :         auto& _My_data    = _Mypair._Myval2;
; 879  :         pointer& _Myfirst = _My_data._Myfirst;
; 880  :         pointer& _Mylast  = _My_data._Mylast;
; 881  : 
; 882  :         _STL_INTERNAL_CHECK(_Mylast == _My_data._Myend); // check that we have no unused capacity
; 883  : 
; 884  :         const auto _Whereoff = static_cast<size_type>(_Whereptr - _Myfirst);

  00007	8b 5d 08	 mov	 ebx, DWORD PTR __Whereptr$[ebp]
  0000a	56		 push	 esi
  0000b	8b f1		 mov	 esi, ecx
  0000d	57		 push	 edi
  0000e	8b 0e		 mov	 ecx, DWORD PTR [esi]
  00010	2b d9		 sub	 ebx, ecx

; 885  :         const auto _Oldsize  = static_cast<size_type>(_Mylast - _Myfirst);

  00012	8b 46 04	 mov	 eax, DWORD PTR [esi+4]
  00015	2b c1		 sub	 eax, ecx
  00017	c1 fb 02	 sar	 ebx, 2
  0001a	c1 f8 02	 sar	 eax, 2

; 886  : 
; 887  :         if (_Oldsize == max_size()) {

  0001d	3d ff ff ff 3f	 cmp	 eax, 1073741823		; 3fffffffH
  00022	0f 84 0f 01 00
	00		 je	 $LN88@Emplace_re

; 1942 :         return static_cast<size_type>(_My_data._Myend - _My_data._Myfirst);

  00028	8b 56 08	 mov	 edx, DWORD PTR [esi+8]

; 889  :         }
; 890  : 
; 891  :         const size_type _Newsize     = _Oldsize + 1;

  0002b	8d 78 01	 lea	 edi, DWORD PTR [eax+1]

; 1942 :         return static_cast<size_type>(_My_data._Myend - _My_data._Myfirst);

  0002e	2b d1		 sub	 edx, ecx

; 889  :         }
; 890  : 
; 891  :         const size_type _Newsize     = _Oldsize + 1;

  00030	89 7d f4	 mov	 DWORD PTR __Newsize$1$[ebp], edi

; 1942 :         return static_cast<size_type>(_My_data._Myend - _My_data._Myfirst);

  00033	c1 fa 02	 sar	 edx, 2

; 2029 :         if (_Oldcapacity > _Max - _Oldcapacity / 2) {

  00036	b8 ff ff ff 3f	 mov	 eax, 1073741823		; 3fffffffH
  0003b	8b ca		 mov	 ecx, edx
  0003d	d1 e9		 shr	 ecx, 1
  0003f	2b c1		 sub	 eax, ecx
  00041	3b d0		 cmp	 edx, eax
  00043	76 15		 jbe	 SHORT $LN12@Emplace_re

; 2030 :             return _Max; // geometric growth would overflow

  00045	b8 fc ff ff ff	 mov	 eax, -4			; fffffffcH
; File C:\Program Files\Microsoft Visual Studio\2022\Community\VC\Tools\MSVC\14.34.31933\include\xmemory

; 229  :             return _Allocate_manually_vector_aligned<_Traits>(_Bytes);

  0004a	50		 push	 eax
; File C:\Program Files\Microsoft Visual Studio\2022\Community\VC\Tools\MSVC\14.34.31933\include\vector

; 2030 :             return _Max; // geometric growth would overflow

  0004b	89 45 f8	 mov	 DWORD PTR tv639[ebp], eax
; File C:\Program Files\Microsoft Visual Studio\2022\Community\VC\Tools\MSVC\14.34.31933\include\xmemory

; 229  :             return _Allocate_manually_vector_aligned<_Traits>(_Bytes);

  0004e	e8 00 00 00 00	 call	 ??$_Allocate_manually_vector_aligned@U_Default_allocate_traits@std@@@std@@YAPAXI@Z ; std::_Allocate_manually_vector_aligned<std::_Default_allocate_traits>
  00053	83 c4 04	 add	 esp, 4
  00056	8b f8		 mov	 edi, eax
  00058	eb 47		 jmp	 SHORT $LN23@Emplace_re
$LN12@Emplace_re:
; File C:\Program Files\Microsoft Visual Studio\2022\Community\VC\Tools\MSVC\14.34.31933\include\vector

; 2033 :         const size_type _Geometric = _Oldcapacity + _Oldcapacity / 2;

  0005a	8d 04 11	 lea	 eax, DWORD PTR [ecx+edx]
; File C:\Program Files\Microsoft Visual Studio\2022\Community\VC\Tools\MSVC\14.34.31933\include\xmemory

; 60   :         if (_Count > _Max_possible) {

  0005d	8b cf		 mov	 ecx, edi
  0005f	3b c7		 cmp	 eax, edi
  00061	0f 43 c8	 cmovae	 ecx, eax
  00064	81 f9 ff ff ff
	3f		 cmp	 ecx, 1073741823		; 3fffffffH
  0006a	0f 87 cc 00 00
	00		 ja	 $LN89@Emplace_re

; 62   :         }
; 63   :     }
; 64   : 
; 65   :     return _Count * _Ty_size;

  00070	8d 04 8d 00 00
	00 00		 lea	 eax, DWORD PTR [ecx*4]
  00077	89 45 f8	 mov	 DWORD PTR tv639[ebp], eax

; 228  :         if (_Bytes >= _Big_allocation_threshold) { // boost the alignment of big allocations to help autovectorization

  0007a	3d 00 10 00 00	 cmp	 eax, 4096		; 00001000H
  0007f	72 0d		 jb	 SHORT $LN24@Emplace_re

; 229  :             return _Allocate_manually_vector_aligned<_Traits>(_Bytes);

  00081	50		 push	 eax
  00082	e8 00 00 00 00	 call	 ??$_Allocate_manually_vector_aligned@U_Default_allocate_traits@std@@@std@@YAPAXI@Z ; std::_Allocate_manually_vector_aligned<std::_Default_allocate_traits>
  00087	83 c4 04	 add	 esp, 4
  0008a	8b f8		 mov	 edi, eax
  0008c	eb 13		 jmp	 SHORT $LN23@Emplace_re
$LN24@Emplace_re:

; 230  :         }
; 231  :     }
; 232  : #endif // defined(_M_IX86) || defined(_M_X64)
; 233  : 
; 234  :     if (_Bytes != 0) {

  0008e	85 c0		 test	 eax, eax
  00090	74 0d		 je	 SHORT $LN25@Emplace_re

; 77   :         return ::operator new(_Bytes);

  00092	50		 push	 eax
  00093	e8 00 00 00 00	 call	 ??2@YAPAXI@Z		; operator new
  00098	83 c4 04	 add	 esp, 4

; 235  :         return _Traits::_Allocate(_Bytes);

  0009b	8b f8		 mov	 edi, eax
  0009d	eb 02		 jmp	 SHORT $LN23@Emplace_re
$LN25@Emplace_re:

; 236  :     }
; 237  : 
; 238  :     return nullptr;

  0009f	33 ff		 xor	 edi, edi
$LN23@Emplace_re:
; File C:\Program Files\Microsoft Visual Studio\2022\Community\VC\Tools\MSVC\14.34.31933\include\vector

; 899  :         _Alty_traits::construct(_Al, _Unfancy(_Newvec + _Whereoff), _STD forward<_Valty>(_Val)...);

  000a1	8b 45 0c	 mov	 eax, DWORD PTR _<_Val_0>$[ebp]
  000a4	8d 0c 9f	 lea	 ecx, DWORD PTR [edi+ebx*4]

; 900  :         _Constructed_first = _Newvec + _Whereoff;
; 901  : 
; 902  :         if (_Whereptr == _Mylast) { // at back, provide strong guarantee

  000a7	8b 5d 08	 mov	 ebx, DWORD PTR __Whereptr$[ebp]
  000aa	89 4d fc	 mov	 DWORD PTR tv622[ebp], ecx
  000ad	8b 00		 mov	 eax, DWORD PTR [eax]
  000af	89 01		 mov	 DWORD PTR [ecx], eax
  000b1	8b 46 04	 mov	 eax, DWORD PTR [esi+4]
  000b4	8b 0e		 mov	 ecx, DWORD PTR [esi]
  000b6	3b d8		 cmp	 ebx, eax
  000b8	75 07		 jne	 SHORT $LN4@Emplace_re

; 908  :         } else { // provide basic guarantee

  000ba	8b 5d fc	 mov	 ebx, DWORD PTR tv622[ebp]
; File C:\Program Files\Microsoft Visual Studio\2022\Community\VC\Tools\MSVC\14.34.31933\include\xmemory

; 1800 :             _Copy_memmove(_UFirst, _ULast, _Unfancy(_Dest));

  000bd	8b d7		 mov	 edx, edi
; File C:\Program Files\Microsoft Visual Studio\2022\Community\VC\Tools\MSVC\14.34.31933\include\vector

; 908  :         } else { // provide basic guarantee

  000bf	eb 16		 jmp	 SHORT $LN73@Emplace_re
$LN4@Emplace_re:
; File C:\Program Files\Microsoft Visual Studio\2022\Community\VC\Tools\MSVC\14.34.31933\include\xmemory

; 1800 :             _Copy_memmove(_UFirst, _ULast, _Unfancy(_Dest));

  000c1	57		 push	 edi
  000c2	53		 push	 ebx
  000c3	51		 push	 ecx
  000c4	e8 00 00 00 00	 call	 ??$_Copy_memmove@PAPAVCWeaponTrace@@PAPAV1@@std@@YAPAPAVCWeaponTrace@@PAPAV1@00@Z ; std::_Copy_memmove<CWeaponTrace * *,CWeaponTrace * *>
  000c9	8b 46 04	 mov	 eax, DWORD PTR [esi+4]
  000cc	8b cb		 mov	 ecx, ebx
; File C:\Program Files\Microsoft Visual Studio\2022\Community\VC\Tools\MSVC\14.34.31933\include\vector

; 911  :             _Uninitialized_move(_Whereptr, _Mylast, _Newvec + _Whereoff + 1, _Al);

  000ce	8b 5d fc	 mov	 ebx, DWORD PTR tv622[ebp]
; File C:\Program Files\Microsoft Visual Studio\2022\Community\VC\Tools\MSVC\14.34.31933\include\xmemory

; 1800 :             _Copy_memmove(_UFirst, _ULast, _Unfancy(_Dest));

  000d1	83 c4 0c	 add	 esp, 12			; 0000000cH
; File C:\Program Files\Microsoft Visual Studio\2022\Community\VC\Tools\MSVC\14.34.31933\include\vector

; 911  :             _Uninitialized_move(_Whereptr, _Mylast, _Newvec + _Whereoff + 1, _Al);

  000d4	8d 53 04	 lea	 edx, DWORD PTR [ebx+4]
$LN73@Emplace_re:
  000d7	52		 push	 edx
  000d8	50		 push	 eax
  000d9	51		 push	 ecx
  000da	e8 00 00 00 00	 call	 ??$_Copy_memmove@PAPAVCWeaponTrace@@PAPAV1@@std@@YAPAPAVCWeaponTrace@@PAPAV1@00@Z ; std::_Copy_memmove<CWeaponTrace * *,CWeaponTrace * *>

; 2086 :         if (_Myfirst) { // destroy and deallocate old array

  000df	8b 06		 mov	 eax, DWORD PTR [esi]

; 911  :             _Uninitialized_move(_Whereptr, _Mylast, _Newvec + _Whereoff + 1, _Al);

  000e1	83 c4 0c	 add	 esp, 12			; 0000000cH

; 2086 :         if (_Myfirst) { // destroy and deallocate old array

  000e4	85 c0		 test	 eax, eax
  000e6	74 2c		 je	 SHORT $LN37@Emplace_re

; 2087 :             _Destroy_range(_Myfirst, _Mylast, _Al);
; 2088 :             _ASAN_VECTOR_REMOVE;
; 2089 :             _Al.deallocate(_Myfirst, static_cast<size_type>(_Myend - _Myfirst));

  000e8	8b 4e 08	 mov	 ecx, DWORD PTR [esi+8]
  000eb	2b c8		 sub	 ecx, eax
; File C:\Program Files\Microsoft Visual Studio\2022\Community\VC\Tools\MSVC\14.34.31933\include\xmemory

; 830  :         _Deallocate<_New_alignof<_Ty>>(_Ptr, sizeof(_Ty) * _Count);

  000ed	83 e1 fc	 and	 ecx, -4			; fffffffcH

; 251  :         if (_Bytes >= _Big_allocation_threshold) { // boost the alignment of big allocations to help autovectorization

  000f0	81 f9 00 10 00
	00		 cmp	 ecx, 4096		; 00001000H
  000f6	72 12		 jb	 SHORT $LN47@Emplace_re

; 150  :     const uintptr_t _Ptr_container   = _Ptr_user[-1];

  000f8	8b 50 fc	 mov	 edx, DWORD PTR [eax-4]
  000fb	83 c1 23	 add	 ecx, 35			; 00000023H

; 151  : 
; 152  :     // If the following asserts, it likely means that we are performing
; 153  :     // an aligned delete on memory coming from an unaligned allocation.
; 154  :     _STL_ASSERT(_Ptr_user[-2] == _Big_allocation_sentinel, "invalid argument");
; 155  : 
; 156  :     // Extra paranoia on aligned allocation/deallocation; ensure _Ptr_container is
; 157  :     // in range [_Min_back_shift, _Non_user_size]
; 158  : #ifdef _DEBUG
; 159  :     constexpr uintptr_t _Min_back_shift = 2 * sizeof(void*);
; 160  : #else // ^^^ _DEBUG ^^^ // vvv !_DEBUG vvv
; 161  :     constexpr uintptr_t _Min_back_shift = sizeof(void*);
; 162  : #endif // _DEBUG
; 163  :     const uintptr_t _Back_shift = reinterpret_cast<uintptr_t>(_Ptr) - _Ptr_container;

  000fe	2b c2		 sub	 eax, edx

; 164  :     _STL_VERIFY(_Back_shift >= _Min_back_shift && _Back_shift <= _Non_user_size, "invalid argument");

  00100	83 c0 fc	 add	 eax, -4			; fffffffcH
  00103	83 f8 1f	 cmp	 eax, 31			; 0000001fH
  00106	77 2a		 ja	 SHORT $LN44@Emplace_re

; 165  :     _Ptr = reinterpret_cast<void*>(_Ptr_container);

  00108	8b c2		 mov	 eax, edx
$LN47@Emplace_re:

; 255  :         ::operator delete(_Ptr, _Bytes);

  0010a	51		 push	 ecx
  0010b	50		 push	 eax
  0010c	e8 00 00 00 00	 call	 ??3@YAXPAXI@Z		; operator delete
  00111	83 c4 08	 add	 esp, 8
$LN37@Emplace_re:
; File C:\Program Files\Microsoft Visual Studio\2022\Community\VC\Tools\MSVC\14.34.31933\include\vector

; 2093 :         _Mylast  = _Newvec + _Newsize;

  00114	8b 45 f4	 mov	 eax, DWORD PTR __Newsize$1$[ebp]
  00117	89 3e		 mov	 DWORD PTR [esi], edi
  00119	8d 0c 87	 lea	 ecx, DWORD PTR [edi+eax*4]

; 912  :         }
; 913  :         _CATCH_ALL
; 914  :         _Destroy_range(_Constructed_first, _Constructed_last, _Al);
; 915  :         _Al.deallocate(_Newvec, _Newcapacity);
; 916  :         _RERAISE;
; 917  :         _CATCH_END
; 918  : 
; 919  :         _Change_array(_Newvec, _Newsize, _Newcapacity);
; 920  :         return _Newvec + _Whereoff;

  0011c	8b c3		 mov	 eax, ebx

; 2093 :         _Mylast  = _Newvec + _Newsize;

  0011e	89 4e 04	 mov	 DWORD PTR [esi+4], ecx

; 2094 :         _Myend   = _Newvec + _Newcapacity;

  00121	8b 4d f8	 mov	 ecx, DWORD PTR tv639[ebp]
  00124	03 cf		 add	 ecx, edi

; 912  :         }
; 913  :         _CATCH_ALL
; 914  :         _Destroy_range(_Constructed_first, _Constructed_last, _Al);
; 915  :         _Al.deallocate(_Newvec, _Newcapacity);
; 916  :         _RERAISE;
; 917  :         _CATCH_END
; 918  : 
; 919  :         _Change_array(_Newvec, _Newsize, _Newcapacity);
; 920  :         return _Newvec + _Whereoff;

  00126	5f		 pop	 edi

; 2094 :         _Myend   = _Newvec + _Newcapacity;

  00127	89 4e 08	 mov	 DWORD PTR [esi+8], ecx

; 912  :         }
; 913  :         _CATCH_ALL
; 914  :         _Destroy_range(_Constructed_first, _Constructed_last, _Al);
; 915  :         _Al.deallocate(_Newvec, _Newcapacity);
; 916  :         _RERAISE;
; 917  :         _CATCH_END
; 918  : 
; 919  :         _Change_array(_Newvec, _Newsize, _Newcapacity);
; 920  :         return _Newvec + _Whereoff;

  0012a	5e		 pop	 esi
  0012b	5b		 pop	 ebx

; 921  :     }

  0012c	8b e5		 mov	 esp, ebp
  0012e	5d		 pop	 ebp
  0012f	c2 08 00	 ret	 8
$LN44@Emplace_re:
; File C:\Program Files\Microsoft Visual Studio\2022\Community\VC\Tools\MSVC\14.34.31933\include\xmemory

; 164  :     _STL_VERIFY(_Back_shift >= _Min_back_shift && _Back_shift <= _Non_user_size, "invalid argument");

  00132	e8 00 00 00 00	 call	 __invalid_parameter_noinfo_noreturn
$LN88@Emplace_re:
; File C:\Program Files\Microsoft Visual Studio\2022\Community\VC\Tools\MSVC\14.34.31933\include\vector

; 888  :             _Xlength();

  00137	e8 00 00 00 00	 call	 ?_Xlength@?$vector@PAVCWeaponTrace@@V?$allocator@PAVCWeaponTrace@@@std@@@std@@CAXXZ ; std::vector<CWeaponTrace *,std::allocator<CWeaponTrace *> >::_Xlength
$LN89@Emplace_re:
; File C:\Program Files\Microsoft Visual Studio\2022\Community\VC\Tools\MSVC\14.34.31933\include\xmemory

; 61   :             _Throw_bad_array_new_length(); // multiply overflow

  0013c	e8 00 00 00 00	 call	 ?_Throw_bad_array_new_length@std@@YAXXZ ; std::_Throw_bad_array_new_length
$LN86@Emplace_re:
  00141	cc		 int	 3
??$_Emplace_reallocate@ABQAVCWeaponTrace@@@?$vector@PAVCWeaponTrace@@V?$allocator@PAVCWeaponTrace@@@std@@@std@@AAEPAPAVCWeaponTrace@@QAPAV2@ABQAV2@@Z ENDP ; std::vector<CWeaponTrace *,std::allocator<CWeaponTrace *> >::_Emplace_reallocate<CWeaponTrace * const &>
_TEXT	ENDS
; Function compile flags: /Ogtp
; File C:\Program Files\Microsoft Visual Studio\2022\Community\VC\Tools\MSVC\14.34.31933\include\xmemory
;	COMDAT ??1?$_Alloc_construct_ptr@V?$allocator@U?$_List_node@UTAttachingEffect@CActorInstance@@PAX@std@@@std@@@std@@QAE@XZ
_TEXT	SEGMENT
??1?$_Alloc_construct_ptr@V?$allocator@U?$_List_node@UTAttachingEffect@CActorInstance@@PAX@std@@@std@@@std@@QAE@XZ PROC ; std::_Alloc_construct_ptr<std::allocator<std::_List_node<CActorInstance::TAttachingEffect,void *> > >::~_Alloc_construct_ptr<std::allocator<std::_List_node<CActorInstance::TAttachingEffect,void *> > >, COMDAT
; _this$ = ecx

; 1017 :         if (_Ptr) {

  00000	8b 41 04	 mov	 eax, DWORD PTR [ecx+4]
  00003	85 c0		 test	 eax, eax
  00005	74 0b		 je	 SHORT $LN8@Alloc_cons

; 255  :         ::operator delete(_Ptr, _Bytes);

  00007	6a 60		 push	 96			; 00000060H
  00009	50		 push	 eax
  0000a	e8 00 00 00 00	 call	 ??3@YAXPAXI@Z		; operator delete
  0000f	83 c4 08	 add	 esp, 8
$LN8@Alloc_cons:

; 1018 :             _Al.deallocate(_Ptr, 1);
; 1019 :         }
; 1020 :     }

  00012	c3		 ret	 0
??1?$_Alloc_construct_ptr@V?$allocator@U?$_List_node@UTAttachingEffect@CActorInstance@@PAX@std@@@std@@@std@@QAE@XZ ENDP ; std::_Alloc_construct_ptr<std::allocator<std::_List_node<CActorInstance::TAttachingEffect,void *> > >::~_Alloc_construct_ptr<std::allocator<std::_List_node<CActorInstance::TAttachingEffect,void *> > >
_TEXT	ENDS
; Function compile flags: /Ogtp
;	COMDAT ??__F?ms_kPool@?$CPooledObject@VCRotationDecorator@NEffectUpdateDecorator@@@@1V?$CDynamicPoolEx@VCRotationDecorator@NEffectUpdateDecorator@@@@A@@YAXXZ
text$yd	SEGMENT
??__F?ms_kPool@?$CPooledObject@VCRotationDecorator@NEffectUpdateDecorator@@@@1V?$CDynamicPoolEx@VCRotationDecorator@NEffectUpdateDecorator@@@@A@@YAXXZ PROC ; `dynamic atexit destructor for 'CPooledObject<NEffectUpdateDecorator::CRotationDecorator>::ms_kPool'', COMDAT
  00000	b9 00 00 00 00	 mov	 ecx, OFFSET ?ms_kPool@?$CPooledObject@VCRotationDecorator@NEffectUpdateDecorator@@@@1V?$CDynamicPoolEx@VCRotationDecorator@NEffectUpdateDecorator@@@@A ; CPooledObject<NEffectUpdateDecorator::CRotationDecorator>::ms_kPool
  00005	e9 00 00 00 00	 jmp	 ??1?$CDynamicPoolEx@VCRotationDecorator@NEffectUpdateDecorator@@@@UAE@XZ ; CDynamicPoolEx<NEffectUpdateDecorator::CRotationDecorator>::~CDynamicPoolEx<NEffectUpdateDecorator::CRotationDecorator>
??__F?ms_kPool@?$CPooledObject@VCRotationDecorator@NEffectUpdateDecorator@@@@1V?$CDynamicPoolEx@VCRotationDecorator@NEffectUpdateDecorator@@@@A@@YAXXZ ENDP ; `dynamic atexit destructor for 'CPooledObject<NEffectUpdateDecorator::CRotationDecorator>::ms_kPool''
text$yd	ENDS
; Function compile flags: /Ogtp
; File C:\Users\flourine\Desktop\Xantios\client-src\Code\eterLib\Pool.h
;	COMDAT ??__E?ms_kPool@?$CPooledObject@VCRotationDecorator@NEffectUpdateDecorator@@@@1V?$CDynamicPoolEx@VCRotationDecorator@NEffectUpdateDecorator@@@@A@@YAXXZ
text$di	SEGMENT
??__E?ms_kPool@?$CPooledObject@VCRotationDecorator@NEffectUpdateDecorator@@@@1V?$CDynamicPoolEx@VCRotationDecorator@NEffectUpdateDecorator@@@@A@@YAXXZ PROC ; `dynamic initializer for 'CPooledObject<NEffectUpdateDecorator::CRotationDecorator>::ms_kPool'', COMDAT

; 280  : template <class T> CDynamicPoolEx<T> CPooledObject<T>::ms_kPool;

  00000	68 00 00 00 00	 push	 OFFSET ??__F?ms_kPool@?$CPooledObject@VCRotationDecorator@NEffectUpdateDecorator@@@@1V?$CDynamicPoolEx@VCRotationDecorator@NEffectUpdateDecorator@@@@A@@YAXXZ ; `dynamic atexit destructor for 'CPooledObject<NEffectUpdateDecorator::CRotationDecorator>::ms_kPool''
  00005	e8 00 00 00 00	 call	 _atexit
  0000a	59		 pop	 ecx
  0000b	c3		 ret	 0
??__E?ms_kPool@?$CPooledObject@VCRotationDecorator@NEffectUpdateDecorator@@@@1V?$CDynamicPoolEx@VCRotationDecorator@NEffectUpdateDecorator@@@@A@@YAXXZ ENDP ; `dynamic initializer for 'CPooledObject<NEffectUpdateDecorator::CRotationDecorator>::ms_kPool''
text$di	ENDS
; Function compile flags: /Ogtp
;	COMDAT ??__F?ms_kPool@?$CPooledObject@VCGravityDecorator@NEffectUpdateDecorator@@@@1V?$CDynamicPoolEx@VCGravityDecorator@NEffectUpdateDecorator@@@@A@@YAXXZ
text$yd	SEGMENT
??__F?ms_kPool@?$CPooledObject@VCGravityDecorator@NEffectUpdateDecorator@@@@1V?$CDynamicPoolEx@VCGravityDecorator@NEffectUpdateDecorator@@@@A@@YAXXZ PROC ; `dynamic atexit destructor for 'CPooledObject<NEffectUpdateDecorator::CGravityDecorator>::ms_kPool'', COMDAT
  00000	b9 00 00 00 00	 mov	 ecx, OFFSET ?ms_kPool@?$CPooledObject@VCGravityDecorator@NEffectUpdateDecorator@@@@1V?$CDynamicPoolEx@VCGravityDecorator@NEffectUpdateDecorator@@@@A ; CPooledObject<NEffectUpdateDecorator::CGravityDecorator>::ms_kPool
  00005	e9 00 00 00 00	 jmp	 ??1?$CDynamicPoolEx@VCGravityDecorator@NEffectUpdateDecorator@@@@UAE@XZ ; CDynamicPoolEx<NEffectUpdateDecorator::CGravityDecorator>::~CDynamicPoolEx<NEffectUpdateDecorator::CGravityDecorator>
??__F?ms_kPool@?$CPooledObject@VCGravityDecorator@NEffectUpdateDecorator@@@@1V?$CDynamicPoolEx@VCGravityDecorator@NEffectUpdateDecorator@@@@A@@YAXXZ ENDP ; `dynamic atexit destructor for 'CPooledObject<NEffectUpdateDecorator::CGravityDecorator>::ms_kPool''
text$yd	ENDS
; Function compile flags: /Ogtp
; File C:\Users\flourine\Desktop\Xantios\client-src\Code\eterLib\Pool.h
;	COMDAT ??__E?ms_kPool@?$CPooledObject@VCGravityDecorator@NEffectUpdateDecorator@@@@1V?$CDynamicPoolEx@VCGravityDecorator@NEffectUpdateDecorator@@@@A@@YAXXZ
text$di	SEGMENT
??__E?ms_kPool@?$CPooledObject@VCGravityDecorator@NEffectUpdateDecorator@@@@1V?$CDynamicPoolEx@VCGravityDecorator@NEffectUpdateDecorator@@@@A@@YAXXZ PROC ; `dynamic initializer for 'CPooledObject<NEffectUpdateDecorator::CGravityDecorator>::ms_kPool'', COMDAT

; 280  : template <class T> CDynamicPoolEx<T> CPooledObject<T>::ms_kPool;

  00000	68 00 00 00 00	 push	 OFFSET ??__F?ms_kPool@?$CPooledObject@VCGravityDecorator@NEffectUpdateDecorator@@@@1V?$CDynamicPoolEx@VCGravityDecorator@NEffectUpdateDecorator@@@@A@@YAXXZ ; `dynamic atexit destructor for 'CPooledObject<NEffectUpdateDecorator::CGravityDecorator>::ms_kPool''
  00005	e8 00 00 00 00	 call	 _atexit
  0000a	59		 pop	 ecx
  0000b	c3		 ret	 0
??__E?ms_kPool@?$CPooledObject@VCGravityDecorator@NEffectUpdateDecorator@@@@1V?$CDynamicPoolEx@VCGravityDecorator@NEffectUpdateDecorator@@@@A@@YAXXZ ENDP ; `dynamic initializer for 'CPooledObject<NEffectUpdateDecorator::CGravityDecorator>::ms_kPool''
text$di	ENDS
; Function compile flags: /Ogtp
;	COMDAT ??__F?ms_kPool@?$CPooledObject@VCAirResistanceDecorator@NEffectUpdateDecorator@@@@1V?$CDynamicPoolEx@VCAirResistanceDecorator@NEffectUpdateDecorator@@@@A@@YAXXZ
text$yd	SEGMENT
??__F?ms_kPool@?$CPooledObject@VCAirResistanceDecorator@NEffectUpdateDecorator@@@@1V?$CDynamicPoolEx@VCAirResistanceDecorator@NEffectUpdateDecorator@@@@A@@YAXXZ PROC ; `dynamic atexit destructor for 'CPooledObject<NEffectUpdateDecorator::CAirResistanceDecorator>::ms_kPool'', COMDAT
  00000	b9 00 00 00 00	 mov	 ecx, OFFSET ?ms_kPool@?$CPooledObject@VCAirResistanceDecorator@NEffectUpdateDecorator@@@@1V?$CDynamicPoolEx@VCAirResistanceDecorator@NEffectUpdateDecorator@@@@A ; CPooledObject<NEffectUpdateDecorator::CAirResistanceDecorator>::ms_kPool
  00005	e9 00 00 00 00	 jmp	 ??1?$CDynamicPoolEx@VCAirResistanceDecorator@NEffectUpdateDecorator@@@@UAE@XZ ; CDynamicPoolEx<NEffectUpdateDecorator::CAirResistanceDecorator>::~CDynamicPoolEx<NEffectUpdateDecorator::CAirResistanceDecorator>
??__F?ms_kPool@?$CPooledObject@VCAirResistanceDecorator@NEffectUpdateDecorator@@@@1V?$CDynamicPoolEx@VCAirResistanceDecorator@NEffectUpdateDecorator@@@@A@@YAXXZ ENDP ; `dynamic atexit destructor for 'CPooledObject<NEffectUpdateDecorator::CAirResistanceDecorator>::ms_kPool''
text$yd	ENDS
; Function compile flags: /Ogtp
; File C:\Users\flourine\Desktop\Xantios\client-src\Code\eterLib\Pool.h
;	COMDAT ??__E?ms_kPool@?$CPooledObject@VCAirResistanceDecorator@NEffectUpdateDecorator@@@@1V?$CDynamicPoolEx@VCAirResistanceDecorator@NEffectUpdateDecorator@@@@A@@YAXXZ
text$di	SEGMENT
??__E?ms_kPool@?$CPooledObject@VCAirResistanceDecorator@NEffectUpdateDecorator@@@@1V?$CDynamicPoolEx@VCAirResistanceDecorator@NEffectUpdateDecorator@@@@A@@YAXXZ PROC ; `dynamic initializer for 'CPooledObject<NEffectUpdateDecorator::CAirResistanceDecorator>::ms_kPool'', COMDAT

; 280  : template <class T> CDynamicPoolEx<T> CPooledObject<T>::ms_kPool;

  00000	68 00 00 00 00	 push	 OFFSET ??__F?ms_kPool@?$CPooledObject@VCAirResistanceDecorator@NEffectUpdateDecorator@@@@1V?$CDynamicPoolEx@VCAirResistanceDecorator@NEffectUpdateDecorator@@@@A@@YAXXZ ; `dynamic atexit destructor for 'CPooledObject<NEffectUpdateDecorator::CAirResistanceDecorator>::ms_kPool''
  00005	e8 00 00 00 00	 call	 _atexit
  0000a	59		 pop	 ecx
  0000b	c3		 ret	 0
??__E?ms_kPool@?$CPooledObject@VCAirResistanceDecorator@NEffectUpdateDecorator@@@@1V?$CDynamicPoolEx@VCAirResistanceDecorator@NEffectUpdateDecorator@@@@A@@YAXXZ ENDP ; `dynamic initializer for 'CPooledObject<NEffectUpdateDecorator::CAirResistanceDecorator>::ms_kPool''
text$di	ENDS
; Function compile flags: /Ogtp
;	COMDAT ??__F?ms_kPool@?$CPooledObject@VCTextureAnimationRandomDecorator@NEffectUpdateDecorator@@@@1V?$CDynamicPoolEx@VCTextureAnimationRandomDecorator@NEffectUpdateDecorator@@@@A@@YAXXZ
text$yd	SEGMENT
??__F?ms_kPool@?$CPooledObject@VCTextureAnimationRandomDecorator@NEffectUpdateDecorator@@@@1V?$CDynamicPoolEx@VCTextureAnimationRandomDecorator@NEffectUpdateDecorator@@@@A@@YAXXZ PROC ; `dynamic atexit destructor for 'CPooledObject<NEffectUpdateDecorator::CTextureAnimationRandomDecorator>::ms_kPool'', COMDAT
  00000	b9 00 00 00 00	 mov	 ecx, OFFSET ?ms_kPool@?$CPooledObject@VCTextureAnimationRandomDecorator@NEffectUpdateDecorator@@@@1V?$CDynamicPoolEx@VCTextureAnimationRandomDecorator@NEffectUpdateDecorator@@@@A ; CPooledObject<NEffectUpdateDecorator::CTextureAnimationRandomDecorator>::ms_kPool
  00005	e9 00 00 00 00	 jmp	 ??1?$CDynamicPoolEx@VCTextureAnimationRandomDecorator@NEffectUpdateDecorator@@@@UAE@XZ ; CDynamicPoolEx<NEffectUpdateDecorator::CTextureAnimationRandomDecorator>::~CDynamicPoolEx<NEffectUpdateDecorator::CTextureAnimationRandomDecorator>
??__F?ms_kPool@?$CPooledObject@VCTextureAnimationRandomDecorator@NEffectUpdateDecorator@@@@1V?$CDynamicPoolEx@VCTextureAnimationRandomDecorator@NEffectUpdateDecorator@@@@A@@YAXXZ ENDP ; `dynamic atexit destructor for 'CPooledObject<NEffectUpdateDecorator::CTextureAnimationRandomDecorator>::ms_kPool''
text$yd	ENDS
; Function compile flags: /Ogtp
; File C:\Users\flourine\Desktop\Xantios\client-src\Code\eterLib\Pool.h
;	COMDAT ??__E?ms_kPool@?$CPooledObject@VCTextureAnimationRandomDecorator@NEffectUpdateDecorator@@@@1V?$CDynamicPoolEx@VCTextureAnimationRandomDecorator@NEffectUpdateDecorator@@@@A@@YAXXZ
text$di	SEGMENT
??__E?ms_kPool@?$CPooledObject@VCTextureAnimationRandomDecorator@NEffectUpdateDecorator@@@@1V?$CDynamicPoolEx@VCTextureAnimationRandomDecorator@NEffectUpdateDecorator@@@@A@@YAXXZ PROC ; `dynamic initializer for 'CPooledObject<NEffectUpdateDecorator::CTextureAnimationRandomDecorator>::ms_kPool'', COMDAT

; 280  : template <class T> CDynamicPoolEx<T> CPooledObject<T>::ms_kPool;

  00000	68 00 00 00 00	 push	 OFFSET ??__F?ms_kPool@?$CPooledObject@VCTextureAnimationRandomDecorator@NEffectUpdateDecorator@@@@1V?$CDynamicPoolEx@VCTextureAnimationRandomDecorator@NEffectUpdateDecorator@@@@A@@YAXXZ ; `dynamic atexit destructor for 'CPooledObject<NEffectUpdateDecorator::CTextureAnimationRandomDecorator>::ms_kPool''
  00005	e8 00 00 00 00	 call	 _atexit
  0000a	59		 pop	 ecx
  0000b	c3		 ret	 0
??__E?ms_kPool@?$CPooledObject@VCTextureAnimationRandomDecorator@NEffectUpdateDecorator@@@@1V?$CDynamicPoolEx@VCTextureAnimationRandomDecorator@NEffectUpdateDecorator@@@@A@@YAXXZ ENDP ; `dynamic initializer for 'CPooledObject<NEffectUpdateDecorator::CTextureAnimationRandomDecorator>::ms_kPool''
text$di	ENDS
; Function compile flags: /Ogtp
;	COMDAT ??__F?ms_kPool@?$CPooledObject@VCTextureAnimationCCWDecorator@NEffectUpdateDecorator@@@@1V?$CDynamicPoolEx@VCTextureAnimationCCWDecorator@NEffectUpdateDecorator@@@@A@@YAXXZ
text$yd	SEGMENT
??__F?ms_kPool@?$CPooledObject@VCTextureAnimationCCWDecorator@NEffectUpdateDecorator@@@@1V?$CDynamicPoolEx@VCTextureAnimationCCWDecorator@NEffectUpdateDecorator@@@@A@@YAXXZ PROC ; `dynamic atexit destructor for 'CPooledObject<NEffectUpdateDecorator::CTextureAnimationCCWDecorator>::ms_kPool'', COMDAT
  00000	b9 00 00 00 00	 mov	 ecx, OFFSET ?ms_kPool@?$CPooledObject@VCTextureAnimationCCWDecorator@NEffectUpdateDecorator@@@@1V?$CDynamicPoolEx@VCTextureAnimationCCWDecorator@NEffectUpdateDecorator@@@@A ; CPooledObject<NEffectUpdateDecorator::CTextureAnimationCCWDecorator>::ms_kPool
  00005	e9 00 00 00 00	 jmp	 ??1?$CDynamicPoolEx@VCTextureAnimationCCWDecorator@NEffectUpdateDecorator@@@@UAE@XZ ; CDynamicPoolEx<NEffectUpdateDecorator::CTextureAnimationCCWDecorator>::~CDynamicPoolEx<NEffectUpdateDecorator::CTextureAnimationCCWDecorator>
??__F?ms_kPool@?$CPooledObject@VCTextureAnimationCCWDecorator@NEffectUpdateDecorator@@@@1V?$CDynamicPoolEx@VCTextureAnimationCCWDecorator@NEffectUpdateDecorator@@@@A@@YAXXZ ENDP ; `dynamic atexit destructor for 'CPooledObject<NEffectUpdateDecorator::CTextureAnimationCCWDecorator>::ms_kPool''
text$yd	ENDS
; Function compile flags: /Ogtp
; File C:\Users\flourine\Desktop\Xantios\client-src\Code\eterLib\Pool.h
;	COMDAT ??__E?ms_kPool@?$CPooledObject@VCTextureAnimationCCWDecorator@NEffectUpdateDecorator@@@@1V?$CDynamicPoolEx@VCTextureAnimationCCWDecorator@NEffectUpdateDecorator@@@@A@@YAXXZ
text$di	SEGMENT
??__E?ms_kPool@?$CPooledObject@VCTextureAnimationCCWDecorator@NEffectUpdateDecorator@@@@1V?$CDynamicPoolEx@VCTextureAnimationCCWDecorator@NEffectUpdateDecorator@@@@A@@YAXXZ PROC ; `dynamic initializer for 'CPooledObject<NEffectUpdateDecorator::CTextureAnimationCCWDecorator>::ms_kPool'', COMDAT

; 280  : template <class T> CDynamicPoolEx<T> CPooledObject<T>::ms_kPool;

  00000	68 00 00 00 00	 push	 OFFSET ??__F?ms_kPool@?$CPooledObject@VCTextureAnimationCCWDecorator@NEffectUpdateDecorator@@@@1V?$CDynamicPoolEx@VCTextureAnimationCCWDecorator@NEffectUpdateDecorator@@@@A@@YAXXZ ; `dynamic atexit destructor for 'CPooledObject<NEffectUpdateDecorator::CTextureAnimationCCWDecorator>::ms_kPool''
  00005	e8 00 00 00 00	 call	 _atexit
  0000a	59		 pop	 ecx
  0000b	c3		 ret	 0
??__E?ms_kPool@?$CPooledObject@VCTextureAnimationCCWDecorator@NEffectUpdateDecorator@@@@1V?$CDynamicPoolEx@VCTextureAnimationCCWDecorator@NEffectUpdateDecorator@@@@A@@YAXXZ ENDP ; `dynamic initializer for 'CPooledObject<NEffectUpdateDecorator::CTextureAnimationCCWDecorator>::ms_kPool''
text$di	ENDS
; Function compile flags: /Ogtp
;	COMDAT ??__F?ms_kPool@?$CPooledObject@VCTextureAnimationCWDecorator@NEffectUpdateDecorator@@@@1V?$CDynamicPoolEx@VCTextureAnimationCWDecorator@NEffectUpdateDecorator@@@@A@@YAXXZ
text$yd	SEGMENT
??__F?ms_kPool@?$CPooledObject@VCTextureAnimationCWDecorator@NEffectUpdateDecorator@@@@1V?$CDynamicPoolEx@VCTextureAnimationCWDecorator@NEffectUpdateDecorator@@@@A@@YAXXZ PROC ; `dynamic atexit destructor for 'CPooledObject<NEffectUpdateDecorator::CTextureAnimationCWDecorator>::ms_kPool'', COMDAT
  00000	b9 00 00 00 00	 mov	 ecx, OFFSET ?ms_kPool@?$CPooledObject@VCTextureAnimationCWDecorator@NEffectUpdateDecorator@@@@1V?$CDynamicPoolEx@VCTextureAnimationCWDecorator@NEffectUpdateDecorator@@@@A ; CPooledObject<NEffectUpdateDecorator::CTextureAnimationCWDecorator>::ms_kPool
  00005	e9 00 00 00 00	 jmp	 ??1?$CDynamicPoolEx@VCTextureAnimationCWDecorator@NEffectUpdateDecorator@@@@UAE@XZ ; CDynamicPoolEx<NEffectUpdateDecorator::CTextureAnimationCWDecorator>::~CDynamicPoolEx<NEffectUpdateDecorator::CTextureAnimationCWDecorator>
??__F?ms_kPool@?$CPooledObject@VCTextureAnimationCWDecorator@NEffectUpdateDecorator@@@@1V?$CDynamicPoolEx@VCTextureAnimationCWDecorator@NEffectUpdateDecorator@@@@A@@YAXXZ ENDP ; `dynamic atexit destructor for 'CPooledObject<NEffectUpdateDecorator::CTextureAnimationCWDecorator>::ms_kPool''
text$yd	ENDS
; Function compile flags: /Ogtp
; File C:\Users\flourine\Desktop\Xantios\client-src\Code\eterLib\Pool.h
;	COMDAT ??__E?ms_kPool@?$CPooledObject@VCTextureAnimationCWDecorator@NEffectUpdateDecorator@@@@1V?$CDynamicPoolEx@VCTextureAnimationCWDecorator@NEffectUpdateDecorator@@@@A@@YAXXZ
text$di	SEGMENT
??__E?ms_kPool@?$CPooledObject@VCTextureAnimationCWDecorator@NEffectUpdateDecorator@@@@1V?$CDynamicPoolEx@VCTextureAnimationCWDecorator@NEffectUpdateDecorator@@@@A@@YAXXZ PROC ; `dynamic initializer for 'CPooledObject<NEffectUpdateDecorator::CTextureAnimationCWDecorator>::ms_kPool'', COMDAT

; 280  : template <class T> CDynamicPoolEx<T> CPooledObject<T>::ms_kPool;

  00000	68 00 00 00 00	 push	 OFFSET ??__F?ms_kPool@?$CPooledObject@VCTextureAnimationCWDecorator@NEffectUpdateDecorator@@@@1V?$CDynamicPoolEx@VCTextureAnimationCWDecorator@NEffectUpdateDecorator@@@@A@@YAXXZ ; `dynamic atexit destructor for 'CPooledObject<NEffectUpdateDecorator::CTextureAnimationCWDecorator>::ms_kPool''
  00005	e8 00 00 00 00	 call	 _atexit
  0000a	59		 pop	 ecx
  0000b	c3		 ret	 0
??__E?ms_kPool@?$CPooledObject@VCTextureAnimationCWDecorator@NEffectUpdateDecorator@@@@1V?$CDynamicPoolEx@VCTextureAnimationCWDecorator@NEffectUpdateDecorator@@@@A@@YAXXZ ENDP ; `dynamic initializer for 'CPooledObject<NEffectUpdateDecorator::CTextureAnimationCWDecorator>::ms_kPool''
text$di	ENDS
; Function compile flags: /Ogtp
;	COMDAT ??__F?ms_kPool@?$CPooledObject@VCNullDecorator@NEffectUpdateDecorator@@@@1V?$CDynamicPoolEx@VCNullDecorator@NEffectUpdateDecorator@@@@A@@YAXXZ
text$yd	SEGMENT
??__F?ms_kPool@?$CPooledObject@VCNullDecorator@NEffectUpdateDecorator@@@@1V?$CDynamicPoolEx@VCNullDecorator@NEffectUpdateDecorator@@@@A@@YAXXZ PROC ; `dynamic atexit destructor for 'CPooledObject<NEffectUpdateDecorator::CNullDecorator>::ms_kPool'', COMDAT
  00000	b9 00 00 00 00	 mov	 ecx, OFFSET ?ms_kPool@?$CPooledObject@VCNullDecorator@NEffectUpdateDecorator@@@@1V?$CDynamicPoolEx@VCNullDecorator@NEffectUpdateDecorator@@@@A ; CPooledObject<NEffectUpdateDecorator::CNullDecorator>::ms_kPool
  00005	e9 00 00 00 00	 jmp	 ??1?$CDynamicPoolEx@VCNullDecorator@NEffectUpdateDecorator@@@@UAE@XZ ; CDynamicPoolEx<NEffectUpdateDecorator::CNullDecorator>::~CDynamicPoolEx<NEffectUpdateDecorator::CNullDecorator>
??__F?ms_kPool@?$CPooledObject@VCNullDecorator@NEffectUpdateDecorator@@@@1V?$CDynamicPoolEx@VCNullDecorator@NEffectUpdateDecorator@@@@A@@YAXXZ ENDP ; `dynamic atexit destructor for 'CPooledObject<NEffectUpdateDecorator::CNullDecorator>::ms_kPool''
text$yd	ENDS
; Function compile flags: /Ogtp
; File C:\Users\flourine\Desktop\Xantios\client-src\Code\eterLib\Pool.h
;	COMDAT ??__E?ms_kPool@?$CPooledObject@VCNullDecorator@NEffectUpdateDecorator@@@@1V?$CDynamicPoolEx@VCNullDecorator@NEffectUpdateDecorator@@@@A@@YAXXZ
text$di	SEGMENT
??__E?ms_kPool@?$CPooledObject@VCNullDecorator@NEffectUpdateDecorator@@@@1V?$CDynamicPoolEx@VCNullDecorator@NEffectUpdateDecorator@@@@A@@YAXXZ PROC ; `dynamic initializer for 'CPooledObject<NEffectUpdateDecorator::CNullDecorator>::ms_kPool'', COMDAT

; 280  : template <class T> CDynamicPoolEx<T> CPooledObject<T>::ms_kPool;

  00000	68 00 00 00 00	 push	 OFFSET ??__F?ms_kPool@?$CPooledObject@VCNullDecorator@NEffectUpdateDecorator@@@@1V?$CDynamicPoolEx@VCNullDecorator@NEffectUpdateDecorator@@@@A@@YAXXZ ; `dynamic atexit destructor for 'CPooledObject<NEffectUpdateDecorator::CNullDecorator>::ms_kPool''
  00005	e8 00 00 00 00	 call	 _atexit
  0000a	59		 pop	 ecx
  0000b	c3		 ret	 0
??__E?ms_kPool@?$CPooledObject@VCNullDecorator@NEffectUpdateDecorator@@@@1V?$CDynamicPoolEx@VCNullDecorator@NEffectUpdateDecorator@@@@A@@YAXXZ ENDP ; `dynamic initializer for 'CPooledObject<NEffectUpdateDecorator::CNullDecorator>::ms_kPool''
text$di	ENDS
; Function compile flags: /Ogtp
;	COMDAT ??__F?ms_kPool@?$CPooledObject@VCHeaderDecorator@NEffectUpdateDecorator@@@@1V?$CDynamicPoolEx@VCHeaderDecorator@NEffectUpdateDecorator@@@@A@@YAXXZ
text$yd	SEGMENT
??__F?ms_kPool@?$CPooledObject@VCHeaderDecorator@NEffectUpdateDecorator@@@@1V?$CDynamicPoolEx@VCHeaderDecorator@NEffectUpdateDecorator@@@@A@@YAXXZ PROC ; `dynamic atexit destructor for 'CPooledObject<NEffectUpdateDecorator::CHeaderDecorator>::ms_kPool'', COMDAT
  00000	b9 00 00 00 00	 mov	 ecx, OFFSET ?ms_kPool@?$CPooledObject@VCHeaderDecorator@NEffectUpdateDecorator@@@@1V?$CDynamicPoolEx@VCHeaderDecorator@NEffectUpdateDecorator@@@@A ; CPooledObject<NEffectUpdateDecorator::CHeaderDecorator>::ms_kPool
  00005	e9 00 00 00 00	 jmp	 ??1?$CDynamicPoolEx@VCHeaderDecorator@NEffectUpdateDecorator@@@@UAE@XZ ; CDynamicPoolEx<NEffectUpdateDecorator::CHeaderDecorator>::~CDynamicPoolEx<NEffectUpdateDecorator::CHeaderDecorator>
??__F?ms_kPool@?$CPooledObject@VCHeaderDecorator@NEffectUpdateDecorator@@@@1V?$CDynamicPoolEx@VCHeaderDecorator@NEffectUpdateDecorator@@@@A@@YAXXZ ENDP ; `dynamic atexit destructor for 'CPooledObject<NEffectUpdateDecorator::CHeaderDecorator>::ms_kPool''
text$yd	ENDS
; Function compile flags: /Ogtp
; File C:\Users\flourine\Desktop\Xantios\client-src\Code\eterLib\Pool.h
;	COMDAT ??__E?ms_kPool@?$CPooledObject@VCHeaderDecorator@NEffectUpdateDecorator@@@@1V?$CDynamicPoolEx@VCHeaderDecorator@NEffectUpdateDecorator@@@@A@@YAXXZ
text$di	SEGMENT
??__E?ms_kPool@?$CPooledObject@VCHeaderDecorator@NEffectUpdateDecorator@@@@1V?$CDynamicPoolEx@VCHeaderDecorator@NEffectUpdateDecorator@@@@A@@YAXXZ PROC ; `dynamic initializer for 'CPooledObject<NEffectUpdateDecorator::CHeaderDecorator>::ms_kPool'', COMDAT

; 280  : template <class T> CDynamicPoolEx<T> CPooledObject<T>::ms_kPool;

  00000	68 00 00 00 00	 push	 OFFSET ??__F?ms_kPool@?$CPooledObject@VCHeaderDecorator@NEffectUpdateDecorator@@@@1V?$CDynamicPoolEx@VCHeaderDecorator@NEffectUpdateDecorator@@@@A@@YAXXZ ; `dynamic atexit destructor for 'CPooledObject<NEffectUpdateDecorator::CHeaderDecorator>::ms_kPool''
  00005	e8 00 00 00 00	 call	 _atexit
  0000a	59		 pop	 ecx
  0000b	c3		 ret	 0
??__E?ms_kPool@?$CPooledObject@VCHeaderDecorator@NEffectUpdateDecorator@@@@1V?$CDynamicPoolEx@VCHeaderDecorator@NEffectUpdateDecorator@@@@A@@YAXXZ ENDP ; `dynamic initializer for 'CPooledObject<NEffectUpdateDecorator::CHeaderDecorator>::ms_kPool''
text$di	ENDS
; Function compile flags: /Ogtp
;	COMDAT ??_G?$CDynamicPoolEx@VCHeaderDecorator@NEffectUpdateDecorator@@@@UAEPAXI@Z
_TEXT	SEGMENT
___flags$ = 8						; size = 4
??_G?$CDynamicPoolEx@VCHeaderDecorator@NEffectUpdateDecorator@@@@UAEPAXI@Z PROC ; CDynamicPoolEx<NEffectUpdateDecorator::CHeaderDecorator>::`scalar deleting destructor', COMDAT
; _this$ = ecx
  00000	55		 push	 ebp
  00001	8b ec		 mov	 ebp, esp
  00003	56		 push	 esi
  00004	8b f1		 mov	 esi, ecx
  00006	e8 00 00 00 00	 call	 ??1?$CDynamicPoolEx@VCHeaderDecorator@NEffectUpdateDecorator@@@@UAE@XZ ; CDynamicPoolEx<NEffectUpdateDecorator::CHeaderDecorator>::~CDynamicPoolEx<NEffectUpdateDecorator::CHeaderDecorator>
  0000b	f6 45 08 01	 test	 BYTE PTR ___flags$[ebp], 1
  0000f	74 0b		 je	 SHORT $LN4@scalar
  00011	6a 24		 push	 36			; 00000024H
  00013	56		 push	 esi
  00014	e8 00 00 00 00	 call	 ??3@YAXPAXI@Z		; operator delete
  00019	83 c4 08	 add	 esp, 8
$LN4@scalar:
  0001c	8b c6		 mov	 eax, esi
  0001e	5e		 pop	 esi
  0001f	5d		 pop	 ebp
  00020	c2 04 00	 ret	 4
??_G?$CDynamicPoolEx@VCHeaderDecorator@NEffectUpdateDecorator@@@@UAEPAXI@Z ENDP ; CDynamicPoolEx<NEffectUpdateDecorator::CHeaderDecorator>::`scalar deleting destructor'
_TEXT	ENDS
; Function compile flags: /Ogtp
; File C:\Users\flourine\Desktop\Xantios\client-src\Code\eterLib\Pool.h
;	COMDAT ?Delete@?$CDynamicPoolEx@VCHeaderDecorator@NEffectUpdateDecorator@@@@KAXPAVCHeaderDecorator@NEffectUpdateDecorator@@@Z
_TEXT	SEGMENT
_pkData$ = 8						; size = 4
?Delete@?$CDynamicPoolEx@VCHeaderDecorator@NEffectUpdateDecorator@@@@KAXPAVCHeaderDecorator@NEffectUpdateDecorator@@@Z PROC ; CDynamicPoolEx<NEffectUpdateDecorator::CHeaderDecorator>::Delete, COMDAT

; 232  : 		::operator delete (pkData);

  00000	e9 00 00 00 00	 jmp	 ??3@YAXPAX@Z		; operator delete
?Delete@?$CDynamicPoolEx@VCHeaderDecorator@NEffectUpdateDecorator@@@@KAXPAVCHeaderDecorator@NEffectUpdateDecorator@@@Z ENDP ; CDynamicPoolEx<NEffectUpdateDecorator::CHeaderDecorator>::Delete
_TEXT	ENDS
; Function compile flags: /Ogtp
; File C:\Users\flourine\Desktop\Xantios\client-src\Code\eterLib\Pool.h
; File C:\Program Files\Microsoft Visual Studio\2022\Community\VC\Tools\MSVC\14.34.31933\include\vector
; File C:\Program Files\Microsoft Visual Studio\2022\Community\VC\Tools\MSVC\14.34.31933\include\algorithm
; File C:\Users\flourine\Desktop\Xantios\client-src\Code\eterLib\Pool.h
; File C:\Program Files\Microsoft Visual Studio\2022\Community\VC\Tools\MSVC\14.34.31933\include\algorithm
; File C:\Users\flourine\Desktop\Xantios\client-src\Code\eterLib\Pool.h
; File C:\Program Files\Microsoft Visual Studio\2022\Community\VC\Tools\MSVC\14.34.31933\include\algorithm
; File C:\Program Files\Microsoft Visual Studio\2022\Community\VC\Tools\MSVC\14.34.31933\include\vector
; File C:\Program Files\Microsoft Visual Studio\2022\Community\VC\Tools\MSVC\14.34.31933\include\xmemory
; File C:\Program Files\Microsoft Visual Studio\2022\Community\VC\Tools\MSVC\14.34.31933\include\vector
; File C:\Program Files\Microsoft Visual Studio\2022\Community\VC\Tools\MSVC\14.34.31933\include\xmemory
; File C:\Program Files\Microsoft Visual Studio\2022\Community\VC\Tools\MSVC\14.34.31933\include\vector
; File C:\Program Files\Microsoft Visual Studio\2022\Community\VC\Tools\MSVC\14.34.31933\include\xmemory
; File C:\Program Files\Microsoft Visual Studio\2022\Community\VC\Tools\MSVC\14.34.31933\include\vector
; File C:\Program Files\Microsoft Visual Studio\2022\Community\VC\Tools\MSVC\14.34.31933\include\xmemory
; File C:\Program Files\Microsoft Visual Studio\2022\Community\VC\Tools\MSVC\14.34.31933\include\vector
; File C:\Users\flourine\Desktop\Xantios\client-src\Code\eterLib\Pool.h
; File C:\Program Files\Microsoft Visual Studio\2022\Community\VC\Tools\MSVC\14.34.31933\include\xmemory
; File C:\Users\flourine\Desktop\Xantios\client-src\Code\eterLib\Pool.h
;	COMDAT ??1?$CDynamicPoolEx@VCHeaderDecorator@NEffectUpdateDecorator@@@@UAE@XZ
_TEXT	SEGMENT
__$EHRec$ = -12						; size = 12
??1?$CDynamicPoolEx@VCHeaderDecorator@NEffectUpdateDecorator@@@@UAE@XZ PROC ; CDynamicPoolEx<NEffectUpdateDecorator::CHeaderDecorator>::~CDynamicPoolEx<NEffectUpdateDecorator::CHeaderDecorator>, COMDAT
; _this$ = ecx

; 136  : 	{

  00000	55		 push	 ebp
  00001	8b ec		 mov	 ebp, esp
  00003	6a ff		 push	 -1
  00005	68 00 00 00 00	 push	 __ehhandler$??1?$CDynamicPoolEx@VCHeaderDecorator@NEffectUpdateDecorator@@@@UAE@XZ
  0000a	64 a1 00 00 00
	00		 mov	 eax, DWORD PTR fs:0
  00010	50		 push	 eax
  00011	53		 push	 ebx
  00012	56		 push	 esi
  00013	57		 push	 edi
  00014	a1 00 00 00 00	 mov	 eax, DWORD PTR ___security_cookie
  00019	33 c5		 xor	 eax, ebp
  0001b	50		 push	 eax
  0001c	8d 45 f4	 lea	 eax, DWORD PTR __$EHRec$[ebp]
  0001f	64 a3 00 00 00
	00		 mov	 DWORD PTR fs:0, eax
  00025	8b f9		 mov	 edi, ecx
  00027	c7 07 00 00 00
	00		 mov	 DWORD PTR [edi], OFFSET ??_7?$CDynamicPoolEx@VCHeaderDecorator@NEffectUpdateDecorator@@@@6B@
; File C:\Program Files\Microsoft Visual Studio\2022\Community\VC\Tools\MSVC\14.34.31933\include\vector

; 41   :     _CONSTEXPR20 _Vector_const_iterator(_Tptr _Parg, const _Container_base* _Pvector) noexcept : _Ptr(_Parg) {

  0002d	8b 5f 08	 mov	 ebx, DWORD PTR [edi+8]
; File C:\Program Files\Microsoft Visual Studio\2022\Community\VC\Tools\MSVC\14.34.31933\include\algorithm

; 265  :     for (; _UFirst != _ULast; ++_UFirst) {

  00030	8b 77 04	 mov	 esi, DWORD PTR [edi+4]
  00033	3b f3		 cmp	 esi, ebx
  00035	74 11		 je	 SHORT $LN19@CDynamicPo
$LL20@CDynamicPo:
; File C:\Users\flourine\Desktop\Xantios\client-src\Code\eterLib\Pool.h

; 232  : 		::operator delete (pkData);

  00037	ff 36		 push	 DWORD PTR [esi]
  00039	e8 00 00 00 00	 call	 ??3@YAXPAX@Z		; operator delete
; File C:\Program Files\Microsoft Visual Studio\2022\Community\VC\Tools\MSVC\14.34.31933\include\algorithm

; 265  :     for (; _UFirst != _ULast; ++_UFirst) {

  0003e	83 c6 04	 add	 esi, 4
; File C:\Users\flourine\Desktop\Xantios\client-src\Code\eterLib\Pool.h

; 232  : 		::operator delete (pkData);

  00041	83 c4 04	 add	 esp, 4
; File C:\Program Files\Microsoft Visual Studio\2022\Community\VC\Tools\MSVC\14.34.31933\include\algorithm

; 265  :     for (; _UFirst != _ULast; ++_UFirst) {

  00044	3b f3		 cmp	 esi, ebx
  00046	75 ef		 jne	 SHORT $LL20@CDynamicPo
$LN19@CDynamicPo:
; File C:\Program Files\Microsoft Visual Studio\2022\Community\VC\Tools\MSVC\14.34.31933\include\vector

; 1829 :         if (_Myfirst == _Mylast) { // already empty, nothing to do

  00048	8b 47 04	 mov	 eax, DWORD PTR [edi+4]
  0004b	3b 47 08	 cmp	 eax, DWORD PTR [edi+8]
  0004e	74 03		 je	 SHORT $LN26@CDynamicPo

; 1830 :             // This is an optimization for debug mode: we can avoid taking the debug lock to invalidate iterators.
; 1831 :             // Note that when clearing an empty vector, this will preserve past-the-end iterators, which is allowed by
; 1832 :             // N4901 [tab:container.seq.req] "a.clear() [...] may invalidate the past-the-end iterator".
; 1833 :             return;
; 1834 :         }
; 1835 : 
; 1836 :         _My_data._Orphan_all();
; 1837 :         _Destroy_range(_Myfirst, _Mylast, _Getal());
; 1838 :         _ASAN_VECTOR_MODIFY(static_cast<difference_type>(_Myfirst - _Mylast)); // negative when destroying elements
; 1839 :         _Mylast = _Myfirst;

  00050	89 47 08	 mov	 DWORD PTR [edi+8], eax
$LN26@CDynamicPo:

; 1829 :         if (_Myfirst == _Mylast) { // already empty, nothing to do

  00053	8b 47 10	 mov	 eax, DWORD PTR [edi+16]
  00056	3b 47 14	 cmp	 eax, DWORD PTR [edi+20]
  00059	74 03		 je	 SHORT $LN29@CDynamicPo

; 1830 :             // This is an optimization for debug mode: we can avoid taking the debug lock to invalidate iterators.
; 1831 :             // Note that when clearing an empty vector, this will preserve past-the-end iterators, which is allowed by
; 1832 :             // N4901 [tab:container.seq.req] "a.clear() [...] may invalidate the past-the-end iterator".
; 1833 :             return;
; 1834 :         }
; 1835 : 
; 1836 :         _My_data._Orphan_all();
; 1837 :         _Destroy_range(_Myfirst, _Mylast, _Getal());
; 1838 :         _ASAN_VECTOR_MODIFY(static_cast<difference_type>(_Myfirst - _Mylast)); // negative when destroying elements
; 1839 :         _Mylast = _Myfirst;

  0005b	89 47 14	 mov	 DWORD PTR [edi+20], eax
$LN29@CDynamicPo:

; 2107 :         if (_Myfirst) { // destroy and deallocate old array

  0005e	85 c0		 test	 eax, eax
  00060	74 41		 je	 SHORT $LN35@CDynamicPo

; 2108 :             _Destroy_range(_Myfirst, _Mylast, _Al);
; 2109 :             _ASAN_VECTOR_REMOVE;
; 2110 :             _Al.deallocate(_Myfirst, static_cast<size_type>(_Myend - _Myfirst));

  00062	8b 4f 18	 mov	 ecx, DWORD PTR [edi+24]
  00065	2b c8		 sub	 ecx, eax
; File C:\Program Files\Microsoft Visual Studio\2022\Community\VC\Tools\MSVC\14.34.31933\include\xmemory

; 830  :         _Deallocate<_New_alignof<_Ty>>(_Ptr, sizeof(_Ty) * _Count);

  00067	83 e1 fc	 and	 ecx, -4			; fffffffcH

; 251  :         if (_Bytes >= _Big_allocation_threshold) { // boost the alignment of big allocations to help autovectorization

  0006a	81 f9 00 10 00
	00		 cmp	 ecx, 4096		; 00001000H
  00070	72 12		 jb	 SHORT $LN51@CDynamicPo

; 150  :     const uintptr_t _Ptr_container   = _Ptr_user[-1];

  00072	8b 50 fc	 mov	 edx, DWORD PTR [eax-4]
  00075	83 c1 23	 add	 ecx, 35			; 00000023H

; 151  : 
; 152  :     // If the following asserts, it likely means that we are performing
; 153  :     // an aligned delete on memory coming from an unaligned allocation.
; 154  :     _STL_ASSERT(_Ptr_user[-2] == _Big_allocation_sentinel, "invalid argument");
; 155  : 
; 156  :     // Extra paranoia on aligned allocation/deallocation; ensure _Ptr_container is
; 157  :     // in range [_Min_back_shift, _Non_user_size]
; 158  : #ifdef _DEBUG
; 159  :     constexpr uintptr_t _Min_back_shift = 2 * sizeof(void*);
; 160  : #else // ^^^ _DEBUG ^^^ // vvv !_DEBUG vvv
; 161  :     constexpr uintptr_t _Min_back_shift = sizeof(void*);
; 162  : #endif // _DEBUG
; 163  :     const uintptr_t _Back_shift = reinterpret_cast<uintptr_t>(_Ptr) - _Ptr_container;

  00078	2b c2		 sub	 eax, edx

; 164  :     _STL_VERIFY(_Back_shift >= _Min_back_shift && _Back_shift <= _Non_user_size, "invalid argument");

  0007a	83 c0 fc	 add	 eax, -4			; fffffffcH
  0007d	83 f8 1f	 cmp	 eax, 31			; 0000001fH
  00080	77 7b		 ja	 SHORT $LN73@CDynamicPo

; 165  :     _Ptr = reinterpret_cast<void*>(_Ptr_container);

  00082	8b c2		 mov	 eax, edx
$LN51@CDynamicPo:

; 255  :         ::operator delete(_Ptr, _Bytes);

  00084	51		 push	 ecx
  00085	50		 push	 eax
  00086	e8 00 00 00 00	 call	 ??3@YAXPAXI@Z		; operator delete
; File C:\Program Files\Microsoft Visual Studio\2022\Community\VC\Tools\MSVC\14.34.31933\include\vector

; 2112 :             _Myfirst = nullptr;

  0008b	c7 47 10 00 00
	00 00		 mov	 DWORD PTR [edi+16], 0
; File C:\Program Files\Microsoft Visual Studio\2022\Community\VC\Tools\MSVC\14.34.31933\include\xmemory

; 255  :         ::operator delete(_Ptr, _Bytes);

  00092	83 c4 08	 add	 esp, 8
; File C:\Program Files\Microsoft Visual Studio\2022\Community\VC\Tools\MSVC\14.34.31933\include\vector

; 2113 :             _Mylast  = nullptr;

  00095	c7 47 14 00 00
	00 00		 mov	 DWORD PTR [edi+20], 0

; 2114 :             _Myend   = nullptr;

  0009c	c7 47 18 00 00
	00 00		 mov	 DWORD PTR [edi+24], 0
$LN35@CDynamicPo:

; 2107 :         if (_Myfirst) { // destroy and deallocate old array

  000a3	8b 47 04	 mov	 eax, DWORD PTR [edi+4]
  000a6	85 c0		 test	 eax, eax
  000a8	74 41		 je	 SHORT $LN60@CDynamicPo

; 2108 :             _Destroy_range(_Myfirst, _Mylast, _Al);
; 2109 :             _ASAN_VECTOR_REMOVE;
; 2110 :             _Al.deallocate(_Myfirst, static_cast<size_type>(_Myend - _Myfirst));

  000aa	8b 4f 0c	 mov	 ecx, DWORD PTR [edi+12]
  000ad	2b c8		 sub	 ecx, eax
; File C:\Program Files\Microsoft Visual Studio\2022\Community\VC\Tools\MSVC\14.34.31933\include\xmemory

; 830  :         _Deallocate<_New_alignof<_Ty>>(_Ptr, sizeof(_Ty) * _Count);

  000af	83 e1 fc	 and	 ecx, -4			; fffffffcH

; 251  :         if (_Bytes >= _Big_allocation_threshold) { // boost the alignment of big allocations to help autovectorization

  000b2	81 f9 00 10 00
	00		 cmp	 ecx, 4096		; 00001000H
  000b8	72 12		 jb	 SHORT $LN76@CDynamicPo

; 150  :     const uintptr_t _Ptr_container   = _Ptr_user[-1];

  000ba	8b 50 fc	 mov	 edx, DWORD PTR [eax-4]
  000bd	83 c1 23	 add	 ecx, 35			; 00000023H

; 151  : 
; 152  :     // If the following asserts, it likely means that we are performing
; 153  :     // an aligned delete on memory coming from an unaligned allocation.
; 154  :     _STL_ASSERT(_Ptr_user[-2] == _Big_allocation_sentinel, "invalid argument");
; 155  : 
; 156  :     // Extra paranoia on aligned allocation/deallocation; ensure _Ptr_container is
; 157  :     // in range [_Min_back_shift, _Non_user_size]
; 158  : #ifdef _DEBUG
; 159  :     constexpr uintptr_t _Min_back_shift = 2 * sizeof(void*);
; 160  : #else // ^^^ _DEBUG ^^^ // vvv !_DEBUG vvv
; 161  :     constexpr uintptr_t _Min_back_shift = sizeof(void*);
; 162  : #endif // _DEBUG
; 163  :     const uintptr_t _Back_shift = reinterpret_cast<uintptr_t>(_Ptr) - _Ptr_container;

  000c0	2b c2		 sub	 eax, edx

; 164  :     _STL_VERIFY(_Back_shift >= _Min_back_shift && _Back_shift <= _Non_user_size, "invalid argument");

  000c2	83 c0 fc	 add	 eax, -4			; fffffffcH
  000c5	83 f8 1f	 cmp	 eax, 31			; 0000001fH
  000c8	77 33		 ja	 SHORT $LN73@CDynamicPo

; 165  :     _Ptr = reinterpret_cast<void*>(_Ptr_container);

  000ca	8b c2		 mov	 eax, edx
$LN76@CDynamicPo:

; 255  :         ::operator delete(_Ptr, _Bytes);

  000cc	51		 push	 ecx
  000cd	50		 push	 eax
  000ce	e8 00 00 00 00	 call	 ??3@YAXPAXI@Z		; operator delete
; File C:\Program Files\Microsoft Visual Studio\2022\Community\VC\Tools\MSVC\14.34.31933\include\vector

; 2112 :             _Myfirst = nullptr;

  000d3	c7 47 04 00 00
	00 00		 mov	 DWORD PTR [edi+4], 0
; File C:\Program Files\Microsoft Visual Studio\2022\Community\VC\Tools\MSVC\14.34.31933\include\xmemory

; 255  :         ::operator delete(_Ptr, _Bytes);

  000da	83 c4 08	 add	 esp, 8
; File C:\Program Files\Microsoft Visual Studio\2022\Community\VC\Tools\MSVC\14.34.31933\include\vector

; 2113 :             _Mylast  = nullptr;

  000dd	c7 47 08 00 00
	00 00		 mov	 DWORD PTR [edi+8], 0

; 2114 :             _Myend   = nullptr;

  000e4	c7 47 0c 00 00
	00 00		 mov	 DWORD PTR [edi+12], 0
$LN60@CDynamicPo:
; File C:\Users\flourine\Desktop\Xantios\client-src\Code\eterLib\Pool.h

; 146  : 	}

  000eb	8b 4d f4	 mov	 ecx, DWORD PTR __$EHRec$[ebp]
  000ee	64 89 0d 00 00
	00 00		 mov	 DWORD PTR fs:0, ecx
  000f5	59		 pop	 ecx
  000f6	5f		 pop	 edi
  000f7	5e		 pop	 esi
  000f8	5b		 pop	 ebx
  000f9	8b e5		 mov	 esp, ebp
  000fb	5d		 pop	 ebp
  000fc	c3		 ret	 0
$LN73@CDynamicPo:
; File C:\Program Files\Microsoft Visual Studio\2022\Community\VC\Tools\MSVC\14.34.31933\include\xmemory

; 164  :     _STL_VERIFY(_Back_shift >= _Min_back_shift && _Back_shift <= _Non_user_size, "invalid argument");

  000fd	e8 00 00 00 00	 call	 __invalid_parameter_noinfo_noreturn
$LN86@CDynamicPo:
  00102	cc		 int	 3
  00103	cc		 int	 3
  00104	cc		 int	 3
  00105	cc		 int	 3
  00106	cc		 int	 3
  00107	cc		 int	 3
_TEXT	ENDS
;	COMDAT text$x
text$x	SEGMENT
__ehhandler$??1?$CDynamicPoolEx@VCHeaderDecorator@NEffectUpdateDecorator@@@@UAE@XZ:
  00000	90		 npad	 1
  00001	90		 npad	 1
  00002	8b 54 24 08	 mov	 edx, DWORD PTR [esp+8]
  00006	8d 42 0c	 lea	 eax, DWORD PTR [edx+12]
  00009	8b 4a f0	 mov	 ecx, DWORD PTR [edx-16]
  0000c	33 c8		 xor	 ecx, eax
  0000e	e8 00 00 00 00	 call	 @__security_check_cookie@4
  00013	b8 00 00 00 00	 mov	 eax, OFFSET __ehfuncinfo$??1?$CDynamicPoolEx@VCHeaderDecorator@NEffectUpdateDecorator@@@@UAE@XZ
  00018	e9 00 00 00 00	 jmp	 ___CxxFrameHandler3
text$x	ENDS
??1?$CDynamicPoolEx@VCHeaderDecorator@NEffectUpdateDecorator@@@@UAE@XZ ENDP ; CDynamicPoolEx<NEffectUpdateDecorator::CHeaderDecorator>::~CDynamicPoolEx<NEffectUpdateDecorator::CHeaderDecorator>
; Function compile flags: /Ogtp
;	COMDAT ??_G?$CDynamicPoolEx@VCNullDecorator@NEffectUpdateDecorator@@@@UAEPAXI@Z
_TEXT	SEGMENT
___flags$ = 8						; size = 4
??_G?$CDynamicPoolEx@VCNullDecorator@NEffectUpdateDecorator@@@@UAEPAXI@Z PROC ; CDynamicPoolEx<NEffectUpdateDecorator::CNullDecorator>::`scalar deleting destructor', COMDAT
; _this$ = ecx
  00000	55		 push	 ebp
  00001	8b ec		 mov	 ebp, esp
  00003	56		 push	 esi
  00004	8b f1		 mov	 esi, ecx
  00006	e8 00 00 00 00	 call	 ??1?$CDynamicPoolEx@VCNullDecorator@NEffectUpdateDecorator@@@@UAE@XZ ; CDynamicPoolEx<NEffectUpdateDecorator::CNullDecorator>::~CDynamicPoolEx<NEffectUpdateDecorator::CNullDecorator>
  0000b	f6 45 08 01	 test	 BYTE PTR ___flags$[ebp], 1
  0000f	74 0b		 je	 SHORT $LN4@scalar
  00011	6a 24		 push	 36			; 00000024H
  00013	56		 push	 esi
  00014	e8 00 00 00 00	 call	 ??3@YAXPAXI@Z		; operator delete
  00019	83 c4 08	 add	 esp, 8
$LN4@scalar:
  0001c	8b c6		 mov	 eax, esi
  0001e	5e		 pop	 esi
  0001f	5d		 pop	 ebp
  00020	c2 04 00	 ret	 4
??_G?$CDynamicPoolEx@VCNullDecorator@NEffectUpdateDecorator@@@@UAEPAXI@Z ENDP ; CDynamicPoolEx<NEffectUpdateDecorator::CNullDecorator>::`scalar deleting destructor'
_TEXT	ENDS
; Function compile flags: /Ogtp
; File C:\Users\flourine\Desktop\Xantios\client-src\Code\eterLib\Pool.h
;	COMDAT ?Delete@?$CDynamicPoolEx@VCNullDecorator@NEffectUpdateDecorator@@@@KAXPAVCNullDecorator@NEffectUpdateDecorator@@@Z
_TEXT	SEGMENT
_pkData$ = 8						; size = 4
?Delete@?$CDynamicPoolEx@VCNullDecorator@NEffectUpdateDecorator@@@@KAXPAVCNullDecorator@NEffectUpdateDecorator@@@Z PROC ; CDynamicPoolEx<NEffectUpdateDecorator::CNullDecorator>::Delete, COMDAT

; 232  : 		::operator delete (pkData);

  00000	e9 00 00 00 00	 jmp	 ??3@YAXPAX@Z		; operator delete
?Delete@?$CDynamicPoolEx@VCNullDecorator@NEffectUpdateDecorator@@@@KAXPAVCNullDecorator@NEffectUpdateDecorator@@@Z ENDP ; CDynamicPoolEx<NEffectUpdateDecorator::CNullDecorator>::Delete
_TEXT	ENDS
; Function compile flags: /Ogtp
; File C:\Users\flourine\Desktop\Xantios\client-src\Code\eterLib\Pool.h
; File C:\Program Files\Microsoft Visual Studio\2022\Community\VC\Tools\MSVC\14.34.31933\include\vector
; File C:\Program Files\Microsoft Visual Studio\2022\Community\VC\Tools\MSVC\14.34.31933\include\algorithm
; File C:\Users\flourine\Desktop\Xantios\client-src\Code\eterLib\Pool.h
; File C:\Program Files\Microsoft Visual Studio\2022\Community\VC\Tools\MSVC\14.34.31933\include\algorithm
; File C:\Users\flourine\Desktop\Xantios\client-src\Code\eterLib\Pool.h
; File C:\Program Files\Microsoft Visual Studio\2022\Community\VC\Tools\MSVC\14.34.31933\include\algorithm
; File C:\Program Files\Microsoft Visual Studio\2022\Community\VC\Tools\MSVC\14.34.31933\include\vector
; File C:\Program Files\Microsoft Visual Studio\2022\Community\VC\Tools\MSVC\14.34.31933\include\xmemory
; File C:\Program Files\Microsoft Visual Studio\2022\Community\VC\Tools\MSVC\14.34.31933\include\vector
; File C:\Program Files\Microsoft Visual Studio\2022\Community\VC\Tools\MSVC\14.34.31933\include\xmemory
; File C:\Program Files\Microsoft Visual Studio\2022\Community\VC\Tools\MSVC\14.34.31933\include\vector
; File C:\Program Files\Microsoft Visual Studio\2022\Community\VC\Tools\MSVC\14.34.31933\include\xmemory
; File C:\Program Files\Microsoft Visual Studio\2022\Community\VC\Tools\MSVC\14.34.31933\include\vector
; File C:\Program Files\Microsoft Visual Studio\2022\Community\VC\Tools\MSVC\14.34.31933\include\xmemory
; File C:\Program Files\Microsoft Visual Studio\2022\Community\VC\Tools\MSVC\14.34.31933\include\vector
; File C:\Users\flourine\Desktop\Xantios\client-src\Code\eterLib\Pool.h
; File C:\Program Files\Microsoft Visual Studio\2022\Community\VC\Tools\MSVC\14.34.31933\include\xmemory
; File C:\Users\flourine\Desktop\Xantios\client-src\Code\eterLib\Pool.h
;	COMDAT ??1?$CDynamicPoolEx@VCNullDecorator@NEffectUpdateDecorator@@@@UAE@XZ
_TEXT	SEGMENT
__$EHRec$ = -12						; size = 12
??1?$CDynamicPoolEx@VCNullDecorator@NEffectUpdateDecorator@@@@UAE@XZ PROC ; CDynamicPoolEx<NEffectUpdateDecorator::CNullDecorator>::~CDynamicPoolEx<NEffectUpdateDecorator::CNullDecorator>, COMDAT
; _this$ = ecx

; 136  : 	{

  00000	55		 push	 ebp
  00001	8b ec		 mov	 ebp, esp
  00003	6a ff		 push	 -1
  00005	68 00 00 00 00	 push	 __ehhandler$??1?$CDynamicPoolEx@VCNullDecorator@NEffectUpdateDecorator@@@@UAE@XZ
  0000a	64 a1 00 00 00
	00		 mov	 eax, DWORD PTR fs:0
  00010	50		 push	 eax
  00011	53		 push	 ebx
  00012	56		 push	 esi
  00013	57		 push	 edi
  00014	a1 00 00 00 00	 mov	 eax, DWORD PTR ___security_cookie
  00019	33 c5		 xor	 eax, ebp
  0001b	50		 push	 eax
  0001c	8d 45 f4	 lea	 eax, DWORD PTR __$EHRec$[ebp]
  0001f	64 a3 00 00 00
	00		 mov	 DWORD PTR fs:0, eax
  00025	8b f9		 mov	 edi, ecx
  00027	c7 07 00 00 00
	00		 mov	 DWORD PTR [edi], OFFSET ??_7?$CDynamicPoolEx@VCNullDecorator@NEffectUpdateDecorator@@@@6B@
; File C:\Program Files\Microsoft Visual Studio\2022\Community\VC\Tools\MSVC\14.34.31933\include\vector

; 41   :     _CONSTEXPR20 _Vector_const_iterator(_Tptr _Parg, const _Container_base* _Pvector) noexcept : _Ptr(_Parg) {

  0002d	8b 5f 08	 mov	 ebx, DWORD PTR [edi+8]
; File C:\Program Files\Microsoft Visual Studio\2022\Community\VC\Tools\MSVC\14.34.31933\include\algorithm

; 265  :     for (; _UFirst != _ULast; ++_UFirst) {

  00030	8b 77 04	 mov	 esi, DWORD PTR [edi+4]
  00033	3b f3		 cmp	 esi, ebx
  00035	74 11		 je	 SHORT $LN19@CDynamicPo
$LL20@CDynamicPo:
; File C:\Users\flourine\Desktop\Xantios\client-src\Code\eterLib\Pool.h

; 232  : 		::operator delete (pkData);

  00037	ff 36		 push	 DWORD PTR [esi]
  00039	e8 00 00 00 00	 call	 ??3@YAXPAX@Z		; operator delete
; File C:\Program Files\Microsoft Visual Studio\2022\Community\VC\Tools\MSVC\14.34.31933\include\algorithm

; 265  :     for (; _UFirst != _ULast; ++_UFirst) {

  0003e	83 c6 04	 add	 esi, 4
; File C:\Users\flourine\Desktop\Xantios\client-src\Code\eterLib\Pool.h

; 232  : 		::operator delete (pkData);

  00041	83 c4 04	 add	 esp, 4
; File C:\Program Files\Microsoft Visual Studio\2022\Community\VC\Tools\MSVC\14.34.31933\include\algorithm

; 265  :     for (; _UFirst != _ULast; ++_UFirst) {

  00044	3b f3		 cmp	 esi, ebx
  00046	75 ef		 jne	 SHORT $LL20@CDynamicPo
$LN19@CDynamicPo:
; File C:\Program Files\Microsoft Visual Studio\2022\Community\VC\Tools\MSVC\14.34.31933\include\vector

; 1829 :         if (_Myfirst == _Mylast) { // already empty, nothing to do

  00048	8b 47 04	 mov	 eax, DWORD PTR [edi+4]
  0004b	3b 47 08	 cmp	 eax, DWORD PTR [edi+8]
  0004e	74 03		 je	 SHORT $LN26@CDynamicPo

; 1830 :             // This is an optimization for debug mode: we can avoid taking the debug lock to invalidate iterators.
; 1831 :             // Note that when clearing an empty vector, this will preserve past-the-end iterators, which is allowed by
; 1832 :             // N4901 [tab:container.seq.req] "a.clear() [...] may invalidate the past-the-end iterator".
; 1833 :             return;
; 1834 :         }
; 1835 : 
; 1836 :         _My_data._Orphan_all();
; 1837 :         _Destroy_range(_Myfirst, _Mylast, _Getal());
; 1838 :         _ASAN_VECTOR_MODIFY(static_cast<difference_type>(_Myfirst - _Mylast)); // negative when destroying elements
; 1839 :         _Mylast = _Myfirst;

  00050	89 47 08	 mov	 DWORD PTR [edi+8], eax
$LN26@CDynamicPo:

; 1829 :         if (_Myfirst == _Mylast) { // already empty, nothing to do

  00053	8b 47 10	 mov	 eax, DWORD PTR [edi+16]
  00056	3b 47 14	 cmp	 eax, DWORD PTR [edi+20]
  00059	74 03		 je	 SHORT $LN29@CDynamicPo

; 1830 :             // This is an optimization for debug mode: we can avoid taking the debug lock to invalidate iterators.
; 1831 :             // Note that when clearing an empty vector, this will preserve past-the-end iterators, which is allowed by
; 1832 :             // N4901 [tab:container.seq.req] "a.clear() [...] may invalidate the past-the-end iterator".
; 1833 :             return;
; 1834 :         }
; 1835 : 
; 1836 :         _My_data._Orphan_all();
; 1837 :         _Destroy_range(_Myfirst, _Mylast, _Getal());
; 1838 :         _ASAN_VECTOR_MODIFY(static_cast<difference_type>(_Myfirst - _Mylast)); // negative when destroying elements
; 1839 :         _Mylast = _Myfirst;

  0005b	89 47 14	 mov	 DWORD PTR [edi+20], eax
$LN29@CDynamicPo:

; 2107 :         if (_Myfirst) { // destroy and deallocate old array

  0005e	85 c0		 test	 eax, eax
  00060	74 41		 je	 SHORT $LN35@CDynamicPo

; 2108 :             _Destroy_range(_Myfirst, _Mylast, _Al);
; 2109 :             _ASAN_VECTOR_REMOVE;
; 2110 :             _Al.deallocate(_Myfirst, static_cast<size_type>(_Myend - _Myfirst));

  00062	8b 4f 18	 mov	 ecx, DWORD PTR [edi+24]
  00065	2b c8		 sub	 ecx, eax
; File C:\Program Files\Microsoft Visual Studio\2022\Community\VC\Tools\MSVC\14.34.31933\include\xmemory

; 830  :         _Deallocate<_New_alignof<_Ty>>(_Ptr, sizeof(_Ty) * _Count);

  00067	83 e1 fc	 and	 ecx, -4			; fffffffcH

; 251  :         if (_Bytes >= _Big_allocation_threshold) { // boost the alignment of big allocations to help autovectorization

  0006a	81 f9 00 10 00
	00		 cmp	 ecx, 4096		; 00001000H
  00070	72 12		 jb	 SHORT $LN51@CDynamicPo

; 150  :     const uintptr_t _Ptr_container   = _Ptr_user[-1];

  00072	8b 50 fc	 mov	 edx, DWORD PTR [eax-4]
  00075	83 c1 23	 add	 ecx, 35			; 00000023H

; 151  : 
; 152  :     // If the following asserts, it likely means that we are performing
; 153  :     // an aligned delete on memory coming from an unaligned allocation.
; 154  :     _STL_ASSERT(_Ptr_user[-2] == _Big_allocation_sentinel, "invalid argument");
; 155  : 
; 156  :     // Extra paranoia on aligned allocation/deallocation; ensure _Ptr_container is
; 157  :     // in range [_Min_back_shift, _Non_user_size]
; 158  : #ifdef _DEBUG
; 159  :     constexpr uintptr_t _Min_back_shift = 2 * sizeof(void*);
; 160  : #else // ^^^ _DEBUG ^^^ // vvv !_DEBUG vvv
; 161  :     constexpr uintptr_t _Min_back_shift = sizeof(void*);
; 162  : #endif // _DEBUG
; 163  :     const uintptr_t _Back_shift = reinterpret_cast<uintptr_t>(_Ptr) - _Ptr_container;

  00078	2b c2		 sub	 eax, edx

; 164  :     _STL_VERIFY(_Back_shift >= _Min_back_shift && _Back_shift <= _Non_user_size, "invalid argument");

  0007a	83 c0 fc	 add	 eax, -4			; fffffffcH
  0007d	83 f8 1f	 cmp	 eax, 31			; 0000001fH
  00080	77 7b		 ja	 SHORT $LN73@CDynamicPo

; 165  :     _Ptr = reinterpret_cast<void*>(_Ptr_container);

  00082	8b c2		 mov	 eax, edx
$LN51@CDynamicPo:

; 255  :         ::operator delete(_Ptr, _Bytes);

  00084	51		 push	 ecx
  00085	50		 push	 eax
  00086	e8 00 00 00 00	 call	 ??3@YAXPAXI@Z		; operator delete
; File C:\Program Files\Microsoft Visual Studio\2022\Community\VC\Tools\MSVC\14.34.31933\include\vector

; 2112 :             _Myfirst = nullptr;

  0008b	c7 47 10 00 00
	00 00		 mov	 DWORD PTR [edi+16], 0
; File C:\Program Files\Microsoft Visual Studio\2022\Community\VC\Tools\MSVC\14.34.31933\include\xmemory

; 255  :         ::operator delete(_Ptr, _Bytes);

  00092	83 c4 08	 add	 esp, 8
; File C:\Program Files\Microsoft Visual Studio\2022\Community\VC\Tools\MSVC\14.34.31933\include\vector

; 2113 :             _Mylast  = nullptr;

  00095	c7 47 14 00 00
	00 00		 mov	 DWORD PTR [edi+20], 0

; 2114 :             _Myend   = nullptr;

  0009c	c7 47 18 00 00
	00 00		 mov	 DWORD PTR [edi+24], 0
$LN35@CDynamicPo:

; 2107 :         if (_Myfirst) { // destroy and deallocate old array

  000a3	8b 47 04	 mov	 eax, DWORD PTR [edi+4]
  000a6	85 c0		 test	 eax, eax
  000a8	74 41		 je	 SHORT $LN60@CDynamicPo

; 2108 :             _Destroy_range(_Myfirst, _Mylast, _Al);
; 2109 :             _ASAN_VECTOR_REMOVE;
; 2110 :             _Al.deallocate(_Myfirst, static_cast<size_type>(_Myend - _Myfirst));

  000aa	8b 4f 0c	 mov	 ecx, DWORD PTR [edi+12]
  000ad	2b c8		 sub	 ecx, eax
; File C:\Program Files\Microsoft Visual Studio\2022\Community\VC\Tools\MSVC\14.34.31933\include\xmemory

; 830  :         _Deallocate<_New_alignof<_Ty>>(_Ptr, sizeof(_Ty) * _Count);

  000af	83 e1 fc	 and	 ecx, -4			; fffffffcH

; 251  :         if (_Bytes >= _Big_allocation_threshold) { // boost the alignment of big allocations to help autovectorization

  000b2	81 f9 00 10 00
	00		 cmp	 ecx, 4096		; 00001000H
  000b8	72 12		 jb	 SHORT $LN76@CDynamicPo

; 150  :     const uintptr_t _Ptr_container   = _Ptr_user[-1];

  000ba	8b 50 fc	 mov	 edx, DWORD PTR [eax-4]
  000bd	83 c1 23	 add	 ecx, 35			; 00000023H

; 151  : 
; 152  :     // If the following asserts, it likely means that we are performing
; 153  :     // an aligned delete on memory coming from an unaligned allocation.
; 154  :     _STL_ASSERT(_Ptr_user[-2] == _Big_allocation_sentinel, "invalid argument");
; 155  : 
; 156  :     // Extra paranoia on aligned allocation/deallocation; ensure _Ptr_container is
; 157  :     // in range [_Min_back_shift, _Non_user_size]
; 158  : #ifdef _DEBUG
; 159  :     constexpr uintptr_t _Min_back_shift = 2 * sizeof(void*);
; 160  : #else // ^^^ _DEBUG ^^^ // vvv !_DEBUG vvv
; 161  :     constexpr uintptr_t _Min_back_shift = sizeof(void*);
; 162  : #endif // _DEBUG
; 163  :     const uintptr_t _Back_shift = reinterpret_cast<uintptr_t>(_Ptr) - _Ptr_container;

  000c0	2b c2		 sub	 eax, edx

; 164  :     _STL_VERIFY(_Back_shift >= _Min_back_shift && _Back_shift <= _Non_user_size, "invalid argument");

  000c2	83 c0 fc	 add	 eax, -4			; fffffffcH
  000c5	83 f8 1f	 cmp	 eax, 31			; 0000001fH
  000c8	77 33		 ja	 SHORT $LN73@CDynamicPo

; 165  :     _Ptr = reinterpret_cast<void*>(_Ptr_container);

  000ca	8b c2		 mov	 eax, edx
$LN76@CDynamicPo:

; 255  :         ::operator delete(_Ptr, _Bytes);

  000cc	51		 push	 ecx
  000cd	50		 push	 eax
  000ce	e8 00 00 00 00	 call	 ??3@YAXPAXI@Z		; operator delete
; File C:\Program Files\Microsoft Visual Studio\2022\Community\VC\Tools\MSVC\14.34.31933\include\vector

; 2112 :             _Myfirst = nullptr;

  000d3	c7 47 04 00 00
	00 00		 mov	 DWORD PTR [edi+4], 0
; File C:\Program Files\Microsoft Visual Studio\2022\Community\VC\Tools\MSVC\14.34.31933\include\xmemory

; 255  :         ::operator delete(_Ptr, _Bytes);

  000da	83 c4 08	 add	 esp, 8
; File C:\Program Files\Microsoft Visual Studio\2022\Community\VC\Tools\MSVC\14.34.31933\include\vector

; 2113 :             _Mylast  = nullptr;

  000dd	c7 47 08 00 00
	00 00		 mov	 DWORD PTR [edi+8], 0

; 2114 :             _Myend   = nullptr;

  000e4	c7 47 0c 00 00
	00 00		 mov	 DWORD PTR [edi+12], 0
$LN60@CDynamicPo:
; File C:\Users\flourine\Desktop\Xantios\client-src\Code\eterLib\Pool.h

; 146  : 	}

  000eb	8b 4d f4	 mov	 ecx, DWORD PTR __$EHRec$[ebp]
  000ee	64 89 0d 00 00
	00 00		 mov	 DWORD PTR fs:0, ecx
  000f5	59		 pop	 ecx
  000f6	5f		 pop	 edi
  000f7	5e		 pop	 esi
  000f8	5b		 pop	 ebx
  000f9	8b e5		 mov	 esp, ebp
  000fb	5d		 pop	 ebp
  000fc	c3		 ret	 0
$LN73@CDynamicPo:
; File C:\Program Files\Microsoft Visual Studio\2022\Community\VC\Tools\MSVC\14.34.31933\include\xmemory

; 164  :     _STL_VERIFY(_Back_shift >= _Min_back_shift && _Back_shift <= _Non_user_size, "invalid argument");

  000fd	e8 00 00 00 00	 call	 __invalid_parameter_noinfo_noreturn
$LN86@CDynamicPo:
  00102	cc		 int	 3
  00103	cc		 int	 3
  00104	cc		 int	 3
  00105	cc		 int	 3
  00106	cc		 int	 3
  00107	cc		 int	 3
_TEXT	ENDS
;	COMDAT text$x
text$x	SEGMENT
__ehhandler$??1?$CDynamicPoolEx@VCNullDecorator@NEffectUpdateDecorator@@@@UAE@XZ:
  00000	90		 npad	 1
  00001	90		 npad	 1
  00002	8b 54 24 08	 mov	 edx, DWORD PTR [esp+8]
  00006	8d 42 0c	 lea	 eax, DWORD PTR [edx+12]
  00009	8b 4a f0	 mov	 ecx, DWORD PTR [edx-16]
  0000c	33 c8		 xor	 ecx, eax
  0000e	e8 00 00 00 00	 call	 @__security_check_cookie@4
  00013	b8 00 00 00 00	 mov	 eax, OFFSET __ehfuncinfo$??1?$CDynamicPoolEx@VCNullDecorator@NEffectUpdateDecorator@@@@UAE@XZ
  00018	e9 00 00 00 00	 jmp	 ___CxxFrameHandler3
text$x	ENDS
??1?$CDynamicPoolEx@VCNullDecorator@NEffectUpdateDecorator@@@@UAE@XZ ENDP ; CDynamicPoolEx<NEffectUpdateDecorator::CNullDecorator>::~CDynamicPoolEx<NEffectUpdateDecorator::CNullDecorator>
; Function compile flags: /Ogtp
;	COMDAT ??_G?$CDynamicPoolEx@VCTextureAnimationCWDecorator@NEffectUpdateDecorator@@@@UAEPAXI@Z
_TEXT	SEGMENT
___flags$ = 8						; size = 4
??_G?$CDynamicPoolEx@VCTextureAnimationCWDecorator@NEffectUpdateDecorator@@@@UAEPAXI@Z PROC ; CDynamicPoolEx<NEffectUpdateDecorator::CTextureAnimationCWDecorator>::`scalar deleting destructor', COMDAT
; _this$ = ecx
  00000	55		 push	 ebp
  00001	8b ec		 mov	 ebp, esp
  00003	56		 push	 esi
  00004	8b f1		 mov	 esi, ecx
  00006	e8 00 00 00 00	 call	 ??1?$CDynamicPoolEx@VCTextureAnimationCWDecorator@NEffectUpdateDecorator@@@@UAE@XZ ; CDynamicPoolEx<NEffectUpdateDecorator::CTextureAnimationCWDecorator>::~CDynamicPoolEx<NEffectUpdateDecorator::CTextureAnimationCWDecorator>
  0000b	f6 45 08 01	 test	 BYTE PTR ___flags$[ebp], 1
  0000f	74 0b		 je	 SHORT $LN4@scalar
  00011	6a 24		 push	 36			; 00000024H
  00013	56		 push	 esi
  00014	e8 00 00 00 00	 call	 ??3@YAXPAXI@Z		; operator delete
  00019	83 c4 08	 add	 esp, 8
$LN4@scalar:
  0001c	8b c6		 mov	 eax, esi
  0001e	5e		 pop	 esi
  0001f	5d		 pop	 ebp
  00020	c2 04 00	 ret	 4
??_G?$CDynamicPoolEx@VCTextureAnimationCWDecorator@NEffectUpdateDecorator@@@@UAEPAXI@Z ENDP ; CDynamicPoolEx<NEffectUpdateDecorator::CTextureAnimationCWDecorator>::`scalar deleting destructor'
_TEXT	ENDS
; Function compile flags: /Ogtp
; File C:\Users\flourine\Desktop\Xantios\client-src\Code\eterLib\Pool.h
;	COMDAT ?Delete@?$CDynamicPoolEx@VCTextureAnimationCWDecorator@NEffectUpdateDecorator@@@@KAXPAVCTextureAnimationCWDecorator@NEffectUpdateDecorator@@@Z
_TEXT	SEGMENT
_pkData$ = 8						; size = 4
?Delete@?$CDynamicPoolEx@VCTextureAnimationCWDecorator@NEffectUpdateDecorator@@@@KAXPAVCTextureAnimationCWDecorator@NEffectUpdateDecorator@@@Z PROC ; CDynamicPoolEx<NEffectUpdateDecorator::CTextureAnimationCWDecorator>::Delete, COMDAT

; 232  : 		::operator delete (pkData);

  00000	e9 00 00 00 00	 jmp	 ??3@YAXPAX@Z		; operator delete
?Delete@?$CDynamicPoolEx@VCTextureAnimationCWDecorator@NEffectUpdateDecorator@@@@KAXPAVCTextureAnimationCWDecorator@NEffectUpdateDecorator@@@Z ENDP ; CDynamicPoolEx<NEffectUpdateDecorator::CTextureAnimationCWDecorator>::Delete
_TEXT	ENDS
; Function compile flags: /Ogtp
; File C:\Users\flourine\Desktop\Xantios\client-src\Code\eterLib\Pool.h
; File C:\Program Files\Microsoft Visual Studio\2022\Community\VC\Tools\MSVC\14.34.31933\include\vector
; File C:\Program Files\Microsoft Visual Studio\2022\Community\VC\Tools\MSVC\14.34.31933\include\algorithm
; File C:\Users\flourine\Desktop\Xantios\client-src\Code\eterLib\Pool.h
; File C:\Program Files\Microsoft Visual Studio\2022\Community\VC\Tools\MSVC\14.34.31933\include\algorithm
; File C:\Users\flourine\Desktop\Xantios\client-src\Code\eterLib\Pool.h
; File C:\Program Files\Microsoft Visual Studio\2022\Community\VC\Tools\MSVC\14.34.31933\include\algorithm
; File C:\Program Files\Microsoft Visual Studio\2022\Community\VC\Tools\MSVC\14.34.31933\include\vector
; File C:\Program Files\Microsoft Visual Studio\2022\Community\VC\Tools\MSVC\14.34.31933\include\xmemory
; File C:\Program Files\Microsoft Visual Studio\2022\Community\VC\Tools\MSVC\14.34.31933\include\vector
; File C:\Program Files\Microsoft Visual Studio\2022\Community\VC\Tools\MSVC\14.34.31933\include\xmemory
; File C:\Program Files\Microsoft Visual Studio\2022\Community\VC\Tools\MSVC\14.34.31933\include\vector
; File C:\Program Files\Microsoft Visual Studio\2022\Community\VC\Tools\MSVC\14.34.31933\include\xmemory
; File C:\Program Files\Microsoft Visual Studio\2022\Community\VC\Tools\MSVC\14.34.31933\include\vector
; File C:\Program Files\Microsoft Visual Studio\2022\Community\VC\Tools\MSVC\14.34.31933\include\xmemory
; File C:\Program Files\Microsoft Visual Studio\2022\Community\VC\Tools\MSVC\14.34.31933\include\vector
; File C:\Users\flourine\Desktop\Xantios\client-src\Code\eterLib\Pool.h
; File C:\Program Files\Microsoft Visual Studio\2022\Community\VC\Tools\MSVC\14.34.31933\include\xmemory
; File C:\Users\flourine\Desktop\Xantios\client-src\Code\eterLib\Pool.h
;	COMDAT ??1?$CDynamicPoolEx@VCTextureAnimationCWDecorator@NEffectUpdateDecorator@@@@UAE@XZ
_TEXT	SEGMENT
__$EHRec$ = -12						; size = 12
??1?$CDynamicPoolEx@VCTextureAnimationCWDecorator@NEffectUpdateDecorator@@@@UAE@XZ PROC ; CDynamicPoolEx<NEffectUpdateDecorator::CTextureAnimationCWDecorator>::~CDynamicPoolEx<NEffectUpdateDecorator::CTextureAnimationCWDecorator>, COMDAT
; _this$ = ecx

; 136  : 	{

  00000	55		 push	 ebp
  00001	8b ec		 mov	 ebp, esp
  00003	6a ff		 push	 -1
  00005	68 00 00 00 00	 push	 __ehhandler$??1?$CDynamicPoolEx@VCTextureAnimationCWDecorator@NEffectUpdateDecorator@@@@UAE@XZ
  0000a	64 a1 00 00 00
	00		 mov	 eax, DWORD PTR fs:0
  00010	50		 push	 eax
  00011	53		 push	 ebx
  00012	56		 push	 esi
  00013	57		 push	 edi
  00014	a1 00 00 00 00	 mov	 eax, DWORD PTR ___security_cookie
  00019	33 c5		 xor	 eax, ebp
  0001b	50		 push	 eax
  0001c	8d 45 f4	 lea	 eax, DWORD PTR __$EHRec$[ebp]
  0001f	64 a3 00 00 00
	00		 mov	 DWORD PTR fs:0, eax
  00025	8b f9		 mov	 edi, ecx
  00027	c7 07 00 00 00
	00		 mov	 DWORD PTR [edi], OFFSET ??_7?$CDynamicPoolEx@VCTextureAnimationCWDecorator@NEffectUpdateDecorator@@@@6B@
; File C:\Program Files\Microsoft Visual Studio\2022\Community\VC\Tools\MSVC\14.34.31933\include\vector

; 41   :     _CONSTEXPR20 _Vector_const_iterator(_Tptr _Parg, const _Container_base* _Pvector) noexcept : _Ptr(_Parg) {

  0002d	8b 5f 08	 mov	 ebx, DWORD PTR [edi+8]
; File C:\Program Files\Microsoft Visual Studio\2022\Community\VC\Tools\MSVC\14.34.31933\include\algorithm

; 265  :     for (; _UFirst != _ULast; ++_UFirst) {

  00030	8b 77 04	 mov	 esi, DWORD PTR [edi+4]
  00033	3b f3		 cmp	 esi, ebx
  00035	74 11		 je	 SHORT $LN19@CDynamicPo
$LL20@CDynamicPo:
; File C:\Users\flourine\Desktop\Xantios\client-src\Code\eterLib\Pool.h

; 232  : 		::operator delete (pkData);

  00037	ff 36		 push	 DWORD PTR [esi]
  00039	e8 00 00 00 00	 call	 ??3@YAXPAX@Z		; operator delete
; File C:\Program Files\Microsoft Visual Studio\2022\Community\VC\Tools\MSVC\14.34.31933\include\algorithm

; 265  :     for (; _UFirst != _ULast; ++_UFirst) {

  0003e	83 c6 04	 add	 esi, 4
; File C:\Users\flourine\Desktop\Xantios\client-src\Code\eterLib\Pool.h

; 232  : 		::operator delete (pkData);

  00041	83 c4 04	 add	 esp, 4
; File C:\Program Files\Microsoft Visual Studio\2022\Community\VC\Tools\MSVC\14.34.31933\include\algorithm

; 265  :     for (; _UFirst != _ULast; ++_UFirst) {

  00044	3b f3		 cmp	 esi, ebx
  00046	75 ef		 jne	 SHORT $LL20@CDynamicPo
$LN19@CDynamicPo:
; File C:\Program Files\Microsoft Visual Studio\2022\Community\VC\Tools\MSVC\14.34.31933\include\vector

; 1829 :         if (_Myfirst == _Mylast) { // already empty, nothing to do

  00048	8b 47 04	 mov	 eax, DWORD PTR [edi+4]
  0004b	3b 47 08	 cmp	 eax, DWORD PTR [edi+8]
  0004e	74 03		 je	 SHORT $LN26@CDynamicPo

; 1830 :             // This is an optimization for debug mode: we can avoid taking the debug lock to invalidate iterators.
; 1831 :             // Note that when clearing an empty vector, this will preserve past-the-end iterators, which is allowed by
; 1832 :             // N4901 [tab:container.seq.req] "a.clear() [...] may invalidate the past-the-end iterator".
; 1833 :             return;
; 1834 :         }
; 1835 : 
; 1836 :         _My_data._Orphan_all();
; 1837 :         _Destroy_range(_Myfirst, _Mylast, _Getal());
; 1838 :         _ASAN_VECTOR_MODIFY(static_cast<difference_type>(_Myfirst - _Mylast)); // negative when destroying elements
; 1839 :         _Mylast = _Myfirst;

  00050	89 47 08	 mov	 DWORD PTR [edi+8], eax
$LN26@CDynamicPo:

; 1829 :         if (_Myfirst == _Mylast) { // already empty, nothing to do

  00053	8b 47 10	 mov	 eax, DWORD PTR [edi+16]
  00056	3b 47 14	 cmp	 eax, DWORD PTR [edi+20]
  00059	74 03		 je	 SHORT $LN29@CDynamicPo

; 1830 :             // This is an optimization for debug mode: we can avoid taking the debug lock to invalidate iterators.
; 1831 :             // Note that when clearing an empty vector, this will preserve past-the-end iterators, which is allowed by
; 1832 :             // N4901 [tab:container.seq.req] "a.clear() [...] may invalidate the past-the-end iterator".
; 1833 :             return;
; 1834 :         }
; 1835 : 
; 1836 :         _My_data._Orphan_all();
; 1837 :         _Destroy_range(_Myfirst, _Mylast, _Getal());
; 1838 :         _ASAN_VECTOR_MODIFY(static_cast<difference_type>(_Myfirst - _Mylast)); // negative when destroying elements
; 1839 :         _Mylast = _Myfirst;

  0005b	89 47 14	 mov	 DWORD PTR [edi+20], eax
$LN29@CDynamicPo:

; 2107 :         if (_Myfirst) { // destroy and deallocate old array

  0005e	85 c0		 test	 eax, eax
  00060	74 41		 je	 SHORT $LN35@CDynamicPo

; 2108 :             _Destroy_range(_Myfirst, _Mylast, _Al);
; 2109 :             _ASAN_VECTOR_REMOVE;
; 2110 :             _Al.deallocate(_Myfirst, static_cast<size_type>(_Myend - _Myfirst));

  00062	8b 4f 18	 mov	 ecx, DWORD PTR [edi+24]
  00065	2b c8		 sub	 ecx, eax
; File C:\Program Files\Microsoft Visual Studio\2022\Community\VC\Tools\MSVC\14.34.31933\include\xmemory

; 830  :         _Deallocate<_New_alignof<_Ty>>(_Ptr, sizeof(_Ty) * _Count);

  00067	83 e1 fc	 and	 ecx, -4			; fffffffcH

; 251  :         if (_Bytes >= _Big_allocation_threshold) { // boost the alignment of big allocations to help autovectorization

  0006a	81 f9 00 10 00
	00		 cmp	 ecx, 4096		; 00001000H
  00070	72 12		 jb	 SHORT $LN51@CDynamicPo

; 150  :     const uintptr_t _Ptr_container   = _Ptr_user[-1];

  00072	8b 50 fc	 mov	 edx, DWORD PTR [eax-4]
  00075	83 c1 23	 add	 ecx, 35			; 00000023H

; 151  : 
; 152  :     // If the following asserts, it likely means that we are performing
; 153  :     // an aligned delete on memory coming from an unaligned allocation.
; 154  :     _STL_ASSERT(_Ptr_user[-2] == _Big_allocation_sentinel, "invalid argument");
; 155  : 
; 156  :     // Extra paranoia on aligned allocation/deallocation; ensure _Ptr_container is
; 157  :     // in range [_Min_back_shift, _Non_user_size]
; 158  : #ifdef _DEBUG
; 159  :     constexpr uintptr_t _Min_back_shift = 2 * sizeof(void*);
; 160  : #else // ^^^ _DEBUG ^^^ // vvv !_DEBUG vvv
; 161  :     constexpr uintptr_t _Min_back_shift = sizeof(void*);
; 162  : #endif // _DEBUG
; 163  :     const uintptr_t _Back_shift = reinterpret_cast<uintptr_t>(_Ptr) - _Ptr_container;

  00078	2b c2		 sub	 eax, edx

; 164  :     _STL_VERIFY(_Back_shift >= _Min_back_shift && _Back_shift <= _Non_user_size, "invalid argument");

  0007a	83 c0 fc	 add	 eax, -4			; fffffffcH
  0007d	83 f8 1f	 cmp	 eax, 31			; 0000001fH
  00080	77 7b		 ja	 SHORT $LN73@CDynamicPo

; 165  :     _Ptr = reinterpret_cast<void*>(_Ptr_container);

  00082	8b c2		 mov	 eax, edx
$LN51@CDynamicPo:

; 255  :         ::operator delete(_Ptr, _Bytes);

  00084	51		 push	 ecx
  00085	50		 push	 eax
  00086	e8 00 00 00 00	 call	 ??3@YAXPAXI@Z		; operator delete
; File C:\Program Files\Microsoft Visual Studio\2022\Community\VC\Tools\MSVC\14.34.31933\include\vector

; 2112 :             _Myfirst = nullptr;

  0008b	c7 47 10 00 00
	00 00		 mov	 DWORD PTR [edi+16], 0
; File C:\Program Files\Microsoft Visual Studio\2022\Community\VC\Tools\MSVC\14.34.31933\include\xmemory

; 255  :         ::operator delete(_Ptr, _Bytes);

  00092	83 c4 08	 add	 esp, 8
; File C:\Program Files\Microsoft Visual Studio\2022\Community\VC\Tools\MSVC\14.34.31933\include\vector

; 2113 :             _Mylast  = nullptr;

  00095	c7 47 14 00 00
	00 00		 mov	 DWORD PTR [edi+20], 0

; 2114 :             _Myend   = nullptr;

  0009c	c7 47 18 00 00
	00 00		 mov	 DWORD PTR [edi+24], 0
$LN35@CDynamicPo:

; 2107 :         if (_Myfirst) { // destroy and deallocate old array

  000a3	8b 47 04	 mov	 eax, DWORD PTR [edi+4]
  000a6	85 c0		 test	 eax, eax
  000a8	74 41		 je	 SHORT $LN60@CDynamicPo

; 2108 :             _Destroy_range(_Myfirst, _Mylast, _Al);
; 2109 :             _ASAN_VECTOR_REMOVE;
; 2110 :             _Al.deallocate(_Myfirst, static_cast<size_type>(_Myend - _Myfirst));

  000aa	8b 4f 0c	 mov	 ecx, DWORD PTR [edi+12]
  000ad	2b c8		 sub	 ecx, eax
; File C:\Program Files\Microsoft Visual Studio\2022\Community\VC\Tools\MSVC\14.34.31933\include\xmemory

; 830  :         _Deallocate<_New_alignof<_Ty>>(_Ptr, sizeof(_Ty) * _Count);

  000af	83 e1 fc	 and	 ecx, -4			; fffffffcH

; 251  :         if (_Bytes >= _Big_allocation_threshold) { // boost the alignment of big allocations to help autovectorization

  000b2	81 f9 00 10 00
	00		 cmp	 ecx, 4096		; 00001000H
  000b8	72 12		 jb	 SHORT $LN76@CDynamicPo

; 150  :     const uintptr_t _Ptr_container   = _Ptr_user[-1];

  000ba	8b 50 fc	 mov	 edx, DWORD PTR [eax-4]
  000bd	83 c1 23	 add	 ecx, 35			; 00000023H

; 151  : 
; 152  :     // If the following asserts, it likely means that we are performing
; 153  :     // an aligned delete on memory coming from an unaligned allocation.
; 154  :     _STL_ASSERT(_Ptr_user[-2] == _Big_allocation_sentinel, "invalid argument");
; 155  : 
; 156  :     // Extra paranoia on aligned allocation/deallocation; ensure _Ptr_container is
; 157  :     // in range [_Min_back_shift, _Non_user_size]
; 158  : #ifdef _DEBUG
; 159  :     constexpr uintptr_t _Min_back_shift = 2 * sizeof(void*);
; 160  : #else // ^^^ _DEBUG ^^^ // vvv !_DEBUG vvv
; 161  :     constexpr uintptr_t _Min_back_shift = sizeof(void*);
; 162  : #endif // _DEBUG
; 163  :     const uintptr_t _Back_shift = reinterpret_cast<uintptr_t>(_Ptr) - _Ptr_container;

  000c0	2b c2		 sub	 eax, edx

; 164  :     _STL_VERIFY(_Back_shift >= _Min_back_shift && _Back_shift <= _Non_user_size, "invalid argument");

  000c2	83 c0 fc	 add	 eax, -4			; fffffffcH
  000c5	83 f8 1f	 cmp	 eax, 31			; 0000001fH
  000c8	77 33		 ja	 SHORT $LN73@CDynamicPo

; 165  :     _Ptr = reinterpret_cast<void*>(_Ptr_container);

  000ca	8b c2		 mov	 eax, edx
$LN76@CDynamicPo:

; 255  :         ::operator delete(_Ptr, _Bytes);

  000cc	51		 push	 ecx
  000cd	50		 push	 eax
  000ce	e8 00 00 00 00	 call	 ??3@YAXPAXI@Z		; operator delete
; File C:\Program Files\Microsoft Visual Studio\2022\Community\VC\Tools\MSVC\14.34.31933\include\vector

; 2112 :             _Myfirst = nullptr;

  000d3	c7 47 04 00 00
	00 00		 mov	 DWORD PTR [edi+4], 0
; File C:\Program Files\Microsoft Visual Studio\2022\Community\VC\Tools\MSVC\14.34.31933\include\xmemory

; 255  :         ::operator delete(_Ptr, _Bytes);

  000da	83 c4 08	 add	 esp, 8
; File C:\Program Files\Microsoft Visual Studio\2022\Community\VC\Tools\MSVC\14.34.31933\include\vector

; 2113 :             _Mylast  = nullptr;

  000dd	c7 47 08 00 00
	00 00		 mov	 DWORD PTR [edi+8], 0

; 2114 :             _Myend   = nullptr;

  000e4	c7 47 0c 00 00
	00 00		 mov	 DWORD PTR [edi+12], 0
$LN60@CDynamicPo:
; File C:\Users\flourine\Desktop\Xantios\client-src\Code\eterLib\Pool.h

; 146  : 	}

  000eb	8b 4d f4	 mov	 ecx, DWORD PTR __$EHRec$[ebp]
  000ee	64 89 0d 00 00
	00 00		 mov	 DWORD PTR fs:0, ecx
  000f5	59		 pop	 ecx
  000f6	5f		 pop	 edi
  000f7	5e		 pop	 esi
  000f8	5b		 pop	 ebx
  000f9	8b e5		 mov	 esp, ebp
  000fb	5d		 pop	 ebp
  000fc	c3		 ret	 0
$LN73@CDynamicPo:
; File C:\Program Files\Microsoft Visual Studio\2022\Community\VC\Tools\MSVC\14.34.31933\include\xmemory

; 164  :     _STL_VERIFY(_Back_shift >= _Min_back_shift && _Back_shift <= _Non_user_size, "invalid argument");

  000fd	e8 00 00 00 00	 call	 __invalid_parameter_noinfo_noreturn
$LN86@CDynamicPo:
  00102	cc		 int	 3
  00103	cc		 int	 3
  00104	cc		 int	 3
  00105	cc		 int	 3
  00106	cc		 int	 3
  00107	cc		 int	 3
_TEXT	ENDS
;	COMDAT text$x
text$x	SEGMENT
__ehhandler$??1?$CDynamicPoolEx@VCTextureAnimationCWDecorator@NEffectUpdateDecorator@@@@UAE@XZ:
  00000	90		 npad	 1
  00001	90		 npad	 1
  00002	8b 54 24 08	 mov	 edx, DWORD PTR [esp+8]
  00006	8d 42 0c	 lea	 eax, DWORD PTR [edx+12]
  00009	8b 4a f0	 mov	 ecx, DWORD PTR [edx-16]
  0000c	33 c8		 xor	 ecx, eax
  0000e	e8 00 00 00 00	 call	 @__security_check_cookie@4
  00013	b8 00 00 00 00	 mov	 eax, OFFSET __ehfuncinfo$??1?$CDynamicPoolEx@VCTextureAnimationCWDecorator@NEffectUpdateDecorator@@@@UAE@XZ
  00018	e9 00 00 00 00	 jmp	 ___CxxFrameHandler3
text$x	ENDS
??1?$CDynamicPoolEx@VCTextureAnimationCWDecorator@NEffectUpdateDecorator@@@@UAE@XZ ENDP ; CDynamicPoolEx<NEffectUpdateDecorator::CTextureAnimationCWDecorator>::~CDynamicPoolEx<NEffectUpdateDecorator::CTextureAnimationCWDecorator>
; Function compile flags: /Ogtp
;	COMDAT ??_G?$CDynamicPoolEx@VCTextureAnimationCCWDecorator@NEffectUpdateDecorator@@@@UAEPAXI@Z
_TEXT	SEGMENT
___flags$ = 8						; size = 4
??_G?$CDynamicPoolEx@VCTextureAnimationCCWDecorator@NEffectUpdateDecorator@@@@UAEPAXI@Z PROC ; CDynamicPoolEx<NEffectUpdateDecorator::CTextureAnimationCCWDecorator>::`scalar deleting destructor', COMDAT
; _this$ = ecx
  00000	55		 push	 ebp
  00001	8b ec		 mov	 ebp, esp
  00003	56		 push	 esi
  00004	8b f1		 mov	 esi, ecx
  00006	e8 00 00 00 00	 call	 ??1?$CDynamicPoolEx@VCTextureAnimationCCWDecorator@NEffectUpdateDecorator@@@@UAE@XZ ; CDynamicPoolEx<NEffectUpdateDecorator::CTextureAnimationCCWDecorator>::~CDynamicPoolEx<NEffectUpdateDecorator::CTextureAnimationCCWDecorator>
  0000b	f6 45 08 01	 test	 BYTE PTR ___flags$[ebp], 1
  0000f	74 0b		 je	 SHORT $LN4@scalar
  00011	6a 24		 push	 36			; 00000024H
  00013	56		 push	 esi
  00014	e8 00 00 00 00	 call	 ??3@YAXPAXI@Z		; operator delete
  00019	83 c4 08	 add	 esp, 8
$LN4@scalar:
  0001c	8b c6		 mov	 eax, esi
  0001e	5e		 pop	 esi
  0001f	5d		 pop	 ebp
  00020	c2 04 00	 ret	 4
??_G?$CDynamicPoolEx@VCTextureAnimationCCWDecorator@NEffectUpdateDecorator@@@@UAEPAXI@Z ENDP ; CDynamicPoolEx<NEffectUpdateDecorator::CTextureAnimationCCWDecorator>::`scalar deleting destructor'
_TEXT	ENDS
; Function compile flags: /Ogtp
; File C:\Users\flourine\Desktop\Xantios\client-src\Code\eterLib\Pool.h
;	COMDAT ?Delete@?$CDynamicPoolEx@VCTextureAnimationCCWDecorator@NEffectUpdateDecorator@@@@KAXPAVCTextureAnimationCCWDecorator@NEffectUpdateDecorator@@@Z
_TEXT	SEGMENT
_pkData$ = 8						; size = 4
?Delete@?$CDynamicPoolEx@VCTextureAnimationCCWDecorator@NEffectUpdateDecorator@@@@KAXPAVCTextureAnimationCCWDecorator@NEffectUpdateDecorator@@@Z PROC ; CDynamicPoolEx<NEffectUpdateDecorator::CTextureAnimationCCWDecorator>::Delete, COMDAT

; 232  : 		::operator delete (pkData);

  00000	e9 00 00 00 00	 jmp	 ??3@YAXPAX@Z		; operator delete
?Delete@?$CDynamicPoolEx@VCTextureAnimationCCWDecorator@NEffectUpdateDecorator@@@@KAXPAVCTextureAnimationCCWDecorator@NEffectUpdateDecorator@@@Z ENDP ; CDynamicPoolEx<NEffectUpdateDecorator::CTextureAnimationCCWDecorator>::Delete
_TEXT	ENDS
; Function compile flags: /Ogtp
; File C:\Users\flourine\Desktop\Xantios\client-src\Code\eterLib\Pool.h
; File C:\Program Files\Microsoft Visual Studio\2022\Community\VC\Tools\MSVC\14.34.31933\include\vector
; File C:\Program Files\Microsoft Visual Studio\2022\Community\VC\Tools\MSVC\14.34.31933\include\algorithm
; File C:\Users\flourine\Desktop\Xantios\client-src\Code\eterLib\Pool.h
; File C:\Program Files\Microsoft Visual Studio\2022\Community\VC\Tools\MSVC\14.34.31933\include\algorithm
; File C:\Users\flourine\Desktop\Xantios\client-src\Code\eterLib\Pool.h
; File C:\Program Files\Microsoft Visual Studio\2022\Community\VC\Tools\MSVC\14.34.31933\include\algorithm
; File C:\Program Files\Microsoft Visual Studio\2022\Community\VC\Tools\MSVC\14.34.31933\include\vector
; File C:\Program Files\Microsoft Visual Studio\2022\Community\VC\Tools\MSVC\14.34.31933\include\xmemory
; File C:\Program Files\Microsoft Visual Studio\2022\Community\VC\Tools\MSVC\14.34.31933\include\vector
; File C:\Program Files\Microsoft Visual Studio\2022\Community\VC\Tools\MSVC\14.34.31933\include\xmemory
; File C:\Program Files\Microsoft Visual Studio\2022\Community\VC\Tools\MSVC\14.34.31933\include\vector
; File C:\Program Files\Microsoft Visual Studio\2022\Community\VC\Tools\MSVC\14.34.31933\include\xmemory
; File C:\Program Files\Microsoft Visual Studio\2022\Community\VC\Tools\MSVC\14.34.31933\include\vector
; File C:\Program Files\Microsoft Visual Studio\2022\Community\VC\Tools\MSVC\14.34.31933\include\xmemory
; File C:\Program Files\Microsoft Visual Studio\2022\Community\VC\Tools\MSVC\14.34.31933\include\vector
; File C:\Users\flourine\Desktop\Xantios\client-src\Code\eterLib\Pool.h
; File C:\Program Files\Microsoft Visual Studio\2022\Community\VC\Tools\MSVC\14.34.31933\include\xmemory
; File C:\Users\flourine\Desktop\Xantios\client-src\Code\eterLib\Pool.h
;	COMDAT ??1?$CDynamicPoolEx@VCTextureAnimationCCWDecorator@NEffectUpdateDecorator@@@@UAE@XZ
_TEXT	SEGMENT
__$EHRec$ = -12						; size = 12
??1?$CDynamicPoolEx@VCTextureAnimationCCWDecorator@NEffectUpdateDecorator@@@@UAE@XZ PROC ; CDynamicPoolEx<NEffectUpdateDecorator::CTextureAnimationCCWDecorator>::~CDynamicPoolEx<NEffectUpdateDecorator::CTextureAnimationCCWDecorator>, COMDAT
; _this$ = ecx

; 136  : 	{

  00000	55		 push	 ebp
  00001	8b ec		 mov	 ebp, esp
  00003	6a ff		 push	 -1
  00005	68 00 00 00 00	 push	 __ehhandler$??1?$CDynamicPoolEx@VCTextureAnimationCCWDecorator@NEffectUpdateDecorator@@@@UAE@XZ
  0000a	64 a1 00 00 00
	00		 mov	 eax, DWORD PTR fs:0
  00010	50		 push	 eax
  00011	53		 push	 ebx
  00012	56		 push	 esi
  00013	57		 push	 edi
  00014	a1 00 00 00 00	 mov	 eax, DWORD PTR ___security_cookie
  00019	33 c5		 xor	 eax, ebp
  0001b	50		 push	 eax
  0001c	8d 45 f4	 lea	 eax, DWORD PTR __$EHRec$[ebp]
  0001f	64 a3 00 00 00
	00		 mov	 DWORD PTR fs:0, eax
  00025	8b f9		 mov	 edi, ecx
  00027	c7 07 00 00 00
	00		 mov	 DWORD PTR [edi], OFFSET ??_7?$CDynamicPoolEx@VCTextureAnimationCCWDecorator@NEffectUpdateDecorator@@@@6B@
; File C:\Program Files\Microsoft Visual Studio\2022\Community\VC\Tools\MSVC\14.34.31933\include\vector

; 41   :     _CONSTEXPR20 _Vector_const_iterator(_Tptr _Parg, const _Container_base* _Pvector) noexcept : _Ptr(_Parg) {

  0002d	8b 5f 08	 mov	 ebx, DWORD PTR [edi+8]
; File C:\Program Files\Microsoft Visual Studio\2022\Community\VC\Tools\MSVC\14.34.31933\include\algorithm

; 265  :     for (; _UFirst != _ULast; ++_UFirst) {

  00030	8b 77 04	 mov	 esi, DWORD PTR [edi+4]
  00033	3b f3		 cmp	 esi, ebx
  00035	74 11		 je	 SHORT $LN19@CDynamicPo
$LL20@CDynamicPo:
; File C:\Users\flourine\Desktop\Xantios\client-src\Code\eterLib\Pool.h

; 232  : 		::operator delete (pkData);

  00037	ff 36		 push	 DWORD PTR [esi]
  00039	e8 00 00 00 00	 call	 ??3@YAXPAX@Z		; operator delete
; File C:\Program Files\Microsoft Visual Studio\2022\Community\VC\Tools\MSVC\14.34.31933\include\algorithm

; 265  :     for (; _UFirst != _ULast; ++_UFirst) {

  0003e	83 c6 04	 add	 esi, 4
; File C:\Users\flourine\Desktop\Xantios\client-src\Code\eterLib\Pool.h

; 232  : 		::operator delete (pkData);

  00041	83 c4 04	 add	 esp, 4
; File C:\Program Files\Microsoft Visual Studio\2022\Community\VC\Tools\MSVC\14.34.31933\include\algorithm

; 265  :     for (; _UFirst != _ULast; ++_UFirst) {

  00044	3b f3		 cmp	 esi, ebx
  00046	75 ef		 jne	 SHORT $LL20@CDynamicPo
$LN19@CDynamicPo:
; File C:\Program Files\Microsoft Visual Studio\2022\Community\VC\Tools\MSVC\14.34.31933\include\vector

; 1829 :         if (_Myfirst == _Mylast) { // already empty, nothing to do

  00048	8b 47 04	 mov	 eax, DWORD PTR [edi+4]
  0004b	3b 47 08	 cmp	 eax, DWORD PTR [edi+8]
  0004e	74 03		 je	 SHORT $LN26@CDynamicPo

; 1830 :             // This is an optimization for debug mode: we can avoid taking the debug lock to invalidate iterators.
; 1831 :             // Note that when clearing an empty vector, this will preserve past-the-end iterators, which is allowed by
; 1832 :             // N4901 [tab:container.seq.req] "a.clear() [...] may invalidate the past-the-end iterator".
; 1833 :             return;
; 1834 :         }
; 1835 : 
; 1836 :         _My_data._Orphan_all();
; 1837 :         _Destroy_range(_Myfirst, _Mylast, _Getal());
; 1838 :         _ASAN_VECTOR_MODIFY(static_cast<difference_type>(_Myfirst - _Mylast)); // negative when destroying elements
; 1839 :         _Mylast = _Myfirst;

  00050	89 47 08	 mov	 DWORD PTR [edi+8], eax
$LN26@CDynamicPo:

; 1829 :         if (_Myfirst == _Mylast) { // already empty, nothing to do

  00053	8b 47 10	 mov	 eax, DWORD PTR [edi+16]
  00056	3b 47 14	 cmp	 eax, DWORD PTR [edi+20]
  00059	74 03		 je	 SHORT $LN29@CDynamicPo

; 1830 :             // This is an optimization for debug mode: we can avoid taking the debug lock to invalidate iterators.
; 1831 :             // Note that when clearing an empty vector, this will preserve past-the-end iterators, which is allowed by
; 1832 :             // N4901 [tab:container.seq.req] "a.clear() [...] may invalidate the past-the-end iterator".
; 1833 :             return;
; 1834 :         }
; 1835 : 
; 1836 :         _My_data._Orphan_all();
; 1837 :         _Destroy_range(_Myfirst, _Mylast, _Getal());
; 1838 :         _ASAN_VECTOR_MODIFY(static_cast<difference_type>(_Myfirst - _Mylast)); // negative when destroying elements
; 1839 :         _Mylast = _Myfirst;

  0005b	89 47 14	 mov	 DWORD PTR [edi+20], eax
$LN29@CDynamicPo:

; 2107 :         if (_Myfirst) { // destroy and deallocate old array

  0005e	85 c0		 test	 eax, eax
  00060	74 41		 je	 SHORT $LN35@CDynamicPo

; 2108 :             _Destroy_range(_Myfirst, _Mylast, _Al);
; 2109 :             _ASAN_VECTOR_REMOVE;
; 2110 :             _Al.deallocate(_Myfirst, static_cast<size_type>(_Myend - _Myfirst));

  00062	8b 4f 18	 mov	 ecx, DWORD PTR [edi+24]
  00065	2b c8		 sub	 ecx, eax
; File C:\Program Files\Microsoft Visual Studio\2022\Community\VC\Tools\MSVC\14.34.31933\include\xmemory

; 830  :         _Deallocate<_New_alignof<_Ty>>(_Ptr, sizeof(_Ty) * _Count);

  00067	83 e1 fc	 and	 ecx, -4			; fffffffcH

; 251  :         if (_Bytes >= _Big_allocation_threshold) { // boost the alignment of big allocations to help autovectorization

  0006a	81 f9 00 10 00
	00		 cmp	 ecx, 4096		; 00001000H
  00070	72 12		 jb	 SHORT $LN51@CDynamicPo

; 150  :     const uintptr_t _Ptr_container   = _Ptr_user[-1];

  00072	8b 50 fc	 mov	 edx, DWORD PTR [eax-4]
  00075	83 c1 23	 add	 ecx, 35			; 00000023H

; 151  : 
; 152  :     // If the following asserts, it likely means that we are performing
; 153  :     // an aligned delete on memory coming from an unaligned allocation.
; 154  :     _STL_ASSERT(_Ptr_user[-2] == _Big_allocation_sentinel, "invalid argument");
; 155  : 
; 156  :     // Extra paranoia on aligned allocation/deallocation; ensure _Ptr_container is
; 157  :     // in range [_Min_back_shift, _Non_user_size]
; 158  : #ifdef _DEBUG
; 159  :     constexpr uintptr_t _Min_back_shift = 2 * sizeof(void*);
; 160  : #else // ^^^ _DEBUG ^^^ // vvv !_DEBUG vvv
; 161  :     constexpr uintptr_t _Min_back_shift = sizeof(void*);
; 162  : #endif // _DEBUG
; 163  :     const uintptr_t _Back_shift = reinterpret_cast<uintptr_t>(_Ptr) - _Ptr_container;

  00078	2b c2		 sub	 eax, edx

; 164  :     _STL_VERIFY(_Back_shift >= _Min_back_shift && _Back_shift <= _Non_user_size, "invalid argument");

  0007a	83 c0 fc	 add	 eax, -4			; fffffffcH
  0007d	83 f8 1f	 cmp	 eax, 31			; 0000001fH
  00080	77 7b		 ja	 SHORT $LN73@CDynamicPo

; 165  :     _Ptr = reinterpret_cast<void*>(_Ptr_container);

  00082	8b c2		 mov	 eax, edx
$LN51@CDynamicPo:

; 255  :         ::operator delete(_Ptr, _Bytes);

  00084	51		 push	 ecx
  00085	50		 push	 eax
  00086	e8 00 00 00 00	 call	 ??3@YAXPAXI@Z		; operator delete
; File C:\Program Files\Microsoft Visual Studio\2022\Community\VC\Tools\MSVC\14.34.31933\include\vector

; 2112 :             _Myfirst = nullptr;

  0008b	c7 47 10 00 00
	00 00		 mov	 DWORD PTR [edi+16], 0
; File C:\Program Files\Microsoft Visual Studio\2022\Community\VC\Tools\MSVC\14.34.31933\include\xmemory

; 255  :         ::operator delete(_Ptr, _Bytes);

  00092	83 c4 08	 add	 esp, 8
; File C:\Program Files\Microsoft Visual Studio\2022\Community\VC\Tools\MSVC\14.34.31933\include\vector

; 2113 :             _Mylast  = nullptr;

  00095	c7 47 14 00 00
	00 00		 mov	 DWORD PTR [edi+20], 0

; 2114 :             _Myend   = nullptr;

  0009c	c7 47 18 00 00
	00 00		 mov	 DWORD PTR [edi+24], 0
$LN35@CDynamicPo:

; 2107 :         if (_Myfirst) { // destroy and deallocate old array

  000a3	8b 47 04	 mov	 eax, DWORD PTR [edi+4]
  000a6	85 c0		 test	 eax, eax
  000a8	74 41		 je	 SHORT $LN60@CDynamicPo

; 2108 :             _Destroy_range(_Myfirst, _Mylast, _Al);
; 2109 :             _ASAN_VECTOR_REMOVE;
; 2110 :             _Al.deallocate(_Myfirst, static_cast<size_type>(_Myend - _Myfirst));

  000aa	8b 4f 0c	 mov	 ecx, DWORD PTR [edi+12]
  000ad	2b c8		 sub	 ecx, eax
; File C:\Program Files\Microsoft Visual Studio\2022\Community\VC\Tools\MSVC\14.34.31933\include\xmemory

; 830  :         _Deallocate<_New_alignof<_Ty>>(_Ptr, sizeof(_Ty) * _Count);

  000af	83 e1 fc	 and	 ecx, -4			; fffffffcH

; 251  :         if (_Bytes >= _Big_allocation_threshold) { // boost the alignment of big allocations to help autovectorization

  000b2	81 f9 00 10 00
	00		 cmp	 ecx, 4096		; 00001000H
  000b8	72 12		 jb	 SHORT $LN76@CDynamicPo

; 150  :     const uintptr_t _Ptr_container   = _Ptr_user[-1];

  000ba	8b 50 fc	 mov	 edx, DWORD PTR [eax-4]
  000bd	83 c1 23	 add	 ecx, 35			; 00000023H

; 151  : 
; 152  :     // If the following asserts, it likely means that we are performing
; 153  :     // an aligned delete on memory coming from an unaligned allocation.
; 154  :     _STL_ASSERT(_Ptr_user[-2] == _Big_allocation_sentinel, "invalid argument");
; 155  : 
; 156  :     // Extra paranoia on aligned allocation/deallocation; ensure _Ptr_container is
; 157  :     // in range [_Min_back_shift, _Non_user_size]
; 158  : #ifdef _DEBUG
; 159  :     constexpr uintptr_t _Min_back_shift = 2 * sizeof(void*);
; 160  : #else // ^^^ _DEBUG ^^^ // vvv !_DEBUG vvv
; 161  :     constexpr uintptr_t _Min_back_shift = sizeof(void*);
; 162  : #endif // _DEBUG
; 163  :     const uintptr_t _Back_shift = reinterpret_cast<uintptr_t>(_Ptr) - _Ptr_container;

  000c0	2b c2		 sub	 eax, edx

; 164  :     _STL_VERIFY(_Back_shift >= _Min_back_shift && _Back_shift <= _Non_user_size, "invalid argument");

  000c2	83 c0 fc	 add	 eax, -4			; fffffffcH
  000c5	83 f8 1f	 cmp	 eax, 31			; 0000001fH
  000c8	77 33		 ja	 SHORT $LN73@CDynamicPo

; 165  :     _Ptr = reinterpret_cast<void*>(_Ptr_container);

  000ca	8b c2		 mov	 eax, edx
$LN76@CDynamicPo:

; 255  :         ::operator delete(_Ptr, _Bytes);

  000cc	51		 push	 ecx
  000cd	50		 push	 eax
  000ce	e8 00 00 00 00	 call	 ??3@YAXPAXI@Z		; operator delete
; File C:\Program Files\Microsoft Visual Studio\2022\Community\VC\Tools\MSVC\14.34.31933\include\vector

; 2112 :             _Myfirst = nullptr;

  000d3	c7 47 04 00 00
	00 00		 mov	 DWORD PTR [edi+4], 0
; File C:\Program Files\Microsoft Visual Studio\2022\Community\VC\Tools\MSVC\14.34.31933\include\xmemory

; 255  :         ::operator delete(_Ptr, _Bytes);

  000da	83 c4 08	 add	 esp, 8
; File C:\Program Files\Microsoft Visual Studio\2022\Community\VC\Tools\MSVC\14.34.31933\include\vector

; 2113 :             _Mylast  = nullptr;

  000dd	c7 47 08 00 00
	00 00		 mov	 DWORD PTR [edi+8], 0

; 2114 :             _Myend   = nullptr;

  000e4	c7 47 0c 00 00
	00 00		 mov	 DWORD PTR [edi+12], 0
$LN60@CDynamicPo:
; File C:\Users\flourine\Desktop\Xantios\client-src\Code\eterLib\Pool.h

; 146  : 	}

  000eb	8b 4d f4	 mov	 ecx, DWORD PTR __$EHRec$[ebp]
  000ee	64 89 0d 00 00
	00 00		 mov	 DWORD PTR fs:0, ecx
  000f5	59		 pop	 ecx
  000f6	5f		 pop	 edi
  000f7	5e		 pop	 esi
  000f8	5b		 pop	 ebx
  000f9	8b e5		 mov	 esp, ebp
  000fb	5d		 pop	 ebp
  000fc	c3		 ret	 0
$LN73@CDynamicPo:
; File C:\Program Files\Microsoft Visual Studio\2022\Community\VC\Tools\MSVC\14.34.31933\include\xmemory

; 164  :     _STL_VERIFY(_Back_shift >= _Min_back_shift && _Back_shift <= _Non_user_size, "invalid argument");

  000fd	e8 00 00 00 00	 call	 __invalid_parameter_noinfo_noreturn
$LN86@CDynamicPo:
  00102	cc		 int	 3
  00103	cc		 int	 3
  00104	cc		 int	 3
  00105	cc		 int	 3
  00106	cc		 int	 3
  00107	cc		 int	 3
_TEXT	ENDS
;	COMDAT text$x
text$x	SEGMENT
__ehhandler$??1?$CDynamicPoolEx@VCTextureAnimationCCWDecorator@NEffectUpdateDecorator@@@@UAE@XZ:
  00000	90		 npad	 1
  00001	90		 npad	 1
  00002	8b 54 24 08	 mov	 edx, DWORD PTR [esp+8]
  00006	8d 42 0c	 lea	 eax, DWORD PTR [edx+12]
  00009	8b 4a f0	 mov	 ecx, DWORD PTR [edx-16]
  0000c	33 c8		 xor	 ecx, eax
  0000e	e8 00 00 00 00	 call	 @__security_check_cookie@4
  00013	b8 00 00 00 00	 mov	 eax, OFFSET __ehfuncinfo$??1?$CDynamicPoolEx@VCTextureAnimationCCWDecorator@NEffectUpdateDecorator@@@@UAE@XZ
  00018	e9 00 00 00 00	 jmp	 ___CxxFrameHandler3
text$x	ENDS
??1?$CDynamicPoolEx@VCTextureAnimationCCWDecorator@NEffectUpdateDecorator@@@@UAE@XZ ENDP ; CDynamicPoolEx<NEffectUpdateDecorator::CTextureAnimationCCWDecorator>::~CDynamicPoolEx<NEffectUpdateDecorator::CTextureAnimationCCWDecorator>
; Function compile flags: /Ogtp
;	COMDAT ??_G?$CDynamicPoolEx@VCTextureAnimationRandomDecorator@NEffectUpdateDecorator@@@@UAEPAXI@Z
_TEXT	SEGMENT
___flags$ = 8						; size = 4
??_G?$CDynamicPoolEx@VCTextureAnimationRandomDecorator@NEffectUpdateDecorator@@@@UAEPAXI@Z PROC ; CDynamicPoolEx<NEffectUpdateDecorator::CTextureAnimationRandomDecorator>::`scalar deleting destructor', COMDAT
; _this$ = ecx
  00000	55		 push	 ebp
  00001	8b ec		 mov	 ebp, esp
  00003	56		 push	 esi
  00004	8b f1		 mov	 esi, ecx
  00006	e8 00 00 00 00	 call	 ??1?$CDynamicPoolEx@VCTextureAnimationRandomDecorator@NEffectUpdateDecorator@@@@UAE@XZ ; CDynamicPoolEx<NEffectUpdateDecorator::CTextureAnimationRandomDecorator>::~CDynamicPoolEx<NEffectUpdateDecorator::CTextureAnimationRandomDecorator>
  0000b	f6 45 08 01	 test	 BYTE PTR ___flags$[ebp], 1
  0000f	74 0b		 je	 SHORT $LN4@scalar
  00011	6a 24		 push	 36			; 00000024H
  00013	56		 push	 esi
  00014	e8 00 00 00 00	 call	 ??3@YAXPAXI@Z		; operator delete
  00019	83 c4 08	 add	 esp, 8
$LN4@scalar:
  0001c	8b c6		 mov	 eax, esi
  0001e	5e		 pop	 esi
  0001f	5d		 pop	 ebp
  00020	c2 04 00	 ret	 4
??_G?$CDynamicPoolEx@VCTextureAnimationRandomDecorator@NEffectUpdateDecorator@@@@UAEPAXI@Z ENDP ; CDynamicPoolEx<NEffectUpdateDecorator::CTextureAnimationRandomDecorator>::`scalar deleting destructor'
_TEXT	ENDS
; Function compile flags: /Ogtp
; File C:\Users\flourine\Desktop\Xantios\client-src\Code\eterLib\Pool.h
;	COMDAT ?Delete@?$CDynamicPoolEx@VCTextureAnimationRandomDecorator@NEffectUpdateDecorator@@@@KAXPAVCTextureAnimationRandomDecorator@NEffectUpdateDecorator@@@Z
_TEXT	SEGMENT
_pkData$ = 8						; size = 4
?Delete@?$CDynamicPoolEx@VCTextureAnimationRandomDecorator@NEffectUpdateDecorator@@@@KAXPAVCTextureAnimationRandomDecorator@NEffectUpdateDecorator@@@Z PROC ; CDynamicPoolEx<NEffectUpdateDecorator::CTextureAnimationRandomDecorator>::Delete, COMDAT

; 232  : 		::operator delete (pkData);

  00000	e9 00 00 00 00	 jmp	 ??3@YAXPAX@Z		; operator delete
?Delete@?$CDynamicPoolEx@VCTextureAnimationRandomDecorator@NEffectUpdateDecorator@@@@KAXPAVCTextureAnimationRandomDecorator@NEffectUpdateDecorator@@@Z ENDP ; CDynamicPoolEx<NEffectUpdateDecorator::CTextureAnimationRandomDecorator>::Delete
_TEXT	ENDS
; Function compile flags: /Ogtp
; File C:\Users\flourine\Desktop\Xantios\client-src\Code\eterLib\Pool.h
; File C:\Program Files\Microsoft Visual Studio\2022\Community\VC\Tools\MSVC\14.34.31933\include\vector
; File C:\Program Files\Microsoft Visual Studio\2022\Community\VC\Tools\MSVC\14.34.31933\include\algorithm
; File C:\Users\flourine\Desktop\Xantios\client-src\Code\eterLib\Pool.h
; File C:\Program Files\Microsoft Visual Studio\2022\Community\VC\Tools\MSVC\14.34.31933\include\algorithm
; File C:\Users\flourine\Desktop\Xantios\client-src\Code\eterLib\Pool.h
; File C:\Program Files\Microsoft Visual Studio\2022\Community\VC\Tools\MSVC\14.34.31933\include\algorithm
; File C:\Program Files\Microsoft Visual Studio\2022\Community\VC\Tools\MSVC\14.34.31933\include\vector
; File C:\Program Files\Microsoft Visual Studio\2022\Community\VC\Tools\MSVC\14.34.31933\include\xmemory
; File C:\Program Files\Microsoft Visual Studio\2022\Community\VC\Tools\MSVC\14.34.31933\include\vector
; File C:\Program Files\Microsoft Visual Studio\2022\Community\VC\Tools\MSVC\14.34.31933\include\xmemory
; File C:\Program Files\Microsoft Visual Studio\2022\Community\VC\Tools\MSVC\14.34.31933\include\vector
; File C:\Program Files\Microsoft Visual Studio\2022\Community\VC\Tools\MSVC\14.34.31933\include\xmemory
; File C:\Program Files\Microsoft Visual Studio\2022\Community\VC\Tools\MSVC\14.34.31933\include\vector
; File C:\Program Files\Microsoft Visual Studio\2022\Community\VC\Tools\MSVC\14.34.31933\include\xmemory
; File C:\Program Files\Microsoft Visual Studio\2022\Community\VC\Tools\MSVC\14.34.31933\include\vector
; File C:\Users\flourine\Desktop\Xantios\client-src\Code\eterLib\Pool.h
; File C:\Program Files\Microsoft Visual Studio\2022\Community\VC\Tools\MSVC\14.34.31933\include\xmemory
; File C:\Users\flourine\Desktop\Xantios\client-src\Code\eterLib\Pool.h
;	COMDAT ??1?$CDynamicPoolEx@VCTextureAnimationRandomDecorator@NEffectUpdateDecorator@@@@UAE@XZ
_TEXT	SEGMENT
__$EHRec$ = -12						; size = 12
??1?$CDynamicPoolEx@VCTextureAnimationRandomDecorator@NEffectUpdateDecorator@@@@UAE@XZ PROC ; CDynamicPoolEx<NEffectUpdateDecorator::CTextureAnimationRandomDecorator>::~CDynamicPoolEx<NEffectUpdateDecorator::CTextureAnimationRandomDecorator>, COMDAT
; _this$ = ecx

; 136  : 	{

  00000	55		 push	 ebp
  00001	8b ec		 mov	 ebp, esp
  00003	6a ff		 push	 -1
  00005	68 00 00 00 00	 push	 __ehhandler$??1?$CDynamicPoolEx@VCTextureAnimationRandomDecorator@NEffectUpdateDecorator@@@@UAE@XZ
  0000a	64 a1 00 00 00
	00		 mov	 eax, DWORD PTR fs:0
  00010	50		 push	 eax
  00011	53		 push	 ebx
  00012	56		 push	 esi
  00013	57		 push	 edi
  00014	a1 00 00 00 00	 mov	 eax, DWORD PTR ___security_cookie
  00019	33 c5		 xor	 eax, ebp
  0001b	50		 push	 eax
  0001c	8d 45 f4	 lea	 eax, DWORD PTR __$EHRec$[ebp]
  0001f	64 a3 00 00 00
	00		 mov	 DWORD PTR fs:0, eax
  00025	8b f9		 mov	 edi, ecx
  00027	c7 07 00 00 00
	00		 mov	 DWORD PTR [edi], OFFSET ??_7?$CDynamicPoolEx@VCTextureAnimationRandomDecorator@NEffectUpdateDecorator@@@@6B@
; File C:\Program Files\Microsoft Visual Studio\2022\Community\VC\Tools\MSVC\14.34.31933\include\vector

; 41   :     _CONSTEXPR20 _Vector_const_iterator(_Tptr _Parg, const _Container_base* _Pvector) noexcept : _Ptr(_Parg) {

  0002d	8b 5f 08	 mov	 ebx, DWORD PTR [edi+8]
; File C:\Program Files\Microsoft Visual Studio\2022\Community\VC\Tools\MSVC\14.34.31933\include\algorithm

; 265  :     for (; _UFirst != _ULast; ++_UFirst) {

  00030	8b 77 04	 mov	 esi, DWORD PTR [edi+4]
  00033	3b f3		 cmp	 esi, ebx
  00035	74 11		 je	 SHORT $LN19@CDynamicPo
$LL20@CDynamicPo:
; File C:\Users\flourine\Desktop\Xantios\client-src\Code\eterLib\Pool.h

; 232  : 		::operator delete (pkData);

  00037	ff 36		 push	 DWORD PTR [esi]
  00039	e8 00 00 00 00	 call	 ??3@YAXPAX@Z		; operator delete
; File C:\Program Files\Microsoft Visual Studio\2022\Community\VC\Tools\MSVC\14.34.31933\include\algorithm

; 265  :     for (; _UFirst != _ULast; ++_UFirst) {

  0003e	83 c6 04	 add	 esi, 4
; File C:\Users\flourine\Desktop\Xantios\client-src\Code\eterLib\Pool.h

; 232  : 		::operator delete (pkData);

  00041	83 c4 04	 add	 esp, 4
; File C:\Program Files\Microsoft Visual Studio\2022\Community\VC\Tools\MSVC\14.34.31933\include\algorithm

; 265  :     for (; _UFirst != _ULast; ++_UFirst) {

  00044	3b f3		 cmp	 esi, ebx
  00046	75 ef		 jne	 SHORT $LL20@CDynamicPo
$LN19@CDynamicPo:
; File C:\Program Files\Microsoft Visual Studio\2022\Community\VC\Tools\MSVC\14.34.31933\include\vector

; 1829 :         if (_Myfirst == _Mylast) { // already empty, nothing to do

  00048	8b 47 04	 mov	 eax, DWORD PTR [edi+4]
  0004b	3b 47 08	 cmp	 eax, DWORD PTR [edi+8]
  0004e	74 03		 je	 SHORT $LN26@CDynamicPo

; 1830 :             // This is an optimization for debug mode: we can avoid taking the debug lock to invalidate iterators.
; 1831 :             // Note that when clearing an empty vector, this will preserve past-the-end iterators, which is allowed by
; 1832 :             // N4901 [tab:container.seq.req] "a.clear() [...] may invalidate the past-the-end iterator".
; 1833 :             return;
; 1834 :         }
; 1835 : 
; 1836 :         _My_data._Orphan_all();
; 1837 :         _Destroy_range(_Myfirst, _Mylast, _Getal());
; 1838 :         _ASAN_VECTOR_MODIFY(static_cast<difference_type>(_Myfirst - _Mylast)); // negative when destroying elements
; 1839 :         _Mylast = _Myfirst;

  00050	89 47 08	 mov	 DWORD PTR [edi+8], eax
$LN26@CDynamicPo:

; 1829 :         if (_Myfirst == _Mylast) { // already empty, nothing to do

  00053	8b 47 10	 mov	 eax, DWORD PTR [edi+16]
  00056	3b 47 14	 cmp	 eax, DWORD PTR [edi+20]
  00059	74 03		 je	 SHORT $LN29@CDynamicPo

; 1830 :             // This is an optimization for debug mode: we can avoid taking the debug lock to invalidate iterators.
; 1831 :             // Note that when clearing an empty vector, this will preserve past-the-end iterators, which is allowed by
; 1832 :             // N4901 [tab:container.seq.req] "a.clear() [...] may invalidate the past-the-end iterator".
; 1833 :             return;
; 1834 :         }
; 1835 : 
; 1836 :         _My_data._Orphan_all();
; 1837 :         _Destroy_range(_Myfirst, _Mylast, _Getal());
; 1838 :         _ASAN_VECTOR_MODIFY(static_cast<difference_type>(_Myfirst - _Mylast)); // negative when destroying elements
; 1839 :         _Mylast = _Myfirst;

  0005b	89 47 14	 mov	 DWORD PTR [edi+20], eax
$LN29@CDynamicPo:

; 2107 :         if (_Myfirst) { // destroy and deallocate old array

  0005e	85 c0		 test	 eax, eax
  00060	74 41		 je	 SHORT $LN35@CDynamicPo

; 2108 :             _Destroy_range(_Myfirst, _Mylast, _Al);
; 2109 :             _ASAN_VECTOR_REMOVE;
; 2110 :             _Al.deallocate(_Myfirst, static_cast<size_type>(_Myend - _Myfirst));

  00062	8b 4f 18	 mov	 ecx, DWORD PTR [edi+24]
  00065	2b c8		 sub	 ecx, eax
; File C:\Program Files\Microsoft Visual Studio\2022\Community\VC\Tools\MSVC\14.34.31933\include\xmemory

; 830  :         _Deallocate<_New_alignof<_Ty>>(_Ptr, sizeof(_Ty) * _Count);

  00067	83 e1 fc	 and	 ecx, -4			; fffffffcH

; 251  :         if (_Bytes >= _Big_allocation_threshold) { // boost the alignment of big allocations to help autovectorization

  0006a	81 f9 00 10 00
	00		 cmp	 ecx, 4096		; 00001000H
  00070	72 12		 jb	 SHORT $LN51@CDynamicPo

; 150  :     const uintptr_t _Ptr_container   = _Ptr_user[-1];

  00072	8b 50 fc	 mov	 edx, DWORD PTR [eax-4]
  00075	83 c1 23	 add	 ecx, 35			; 00000023H

; 151  : 
; 152  :     // If the following asserts, it likely means that we are performing
; 153  :     // an aligned delete on memory coming from an unaligned allocation.
; 154  :     _STL_ASSERT(_Ptr_user[-2] == _Big_allocation_sentinel, "invalid argument");
; 155  : 
; 156  :     // Extra paranoia on aligned allocation/deallocation; ensure _Ptr_container is
; 157  :     // in range [_Min_back_shift, _Non_user_size]
; 158  : #ifdef _DEBUG
; 159  :     constexpr uintptr_t _Min_back_shift = 2 * sizeof(void*);
; 160  : #else // ^^^ _DEBUG ^^^ // vvv !_DEBUG vvv
; 161  :     constexpr uintptr_t _Min_back_shift = sizeof(void*);
; 162  : #endif // _DEBUG
; 163  :     const uintptr_t _Back_shift = reinterpret_cast<uintptr_t>(_Ptr) - _Ptr_container;

  00078	2b c2		 sub	 eax, edx

; 164  :     _STL_VERIFY(_Back_shift >= _Min_back_shift && _Back_shift <= _Non_user_size, "invalid argument");

  0007a	83 c0 fc	 add	 eax, -4			; fffffffcH
  0007d	83 f8 1f	 cmp	 eax, 31			; 0000001fH
  00080	77 7b		 ja	 SHORT $LN73@CDynamicPo

; 165  :     _Ptr = reinterpret_cast<void*>(_Ptr_container);

  00082	8b c2		 mov	 eax, edx
$LN51@CDynamicPo:

; 255  :         ::operator delete(_Ptr, _Bytes);

  00084	51		 push	 ecx
  00085	50		 push	 eax
  00086	e8 00 00 00 00	 call	 ??3@YAXPAXI@Z		; operator delete
; File C:\Program Files\Microsoft Visual Studio\2022\Community\VC\Tools\MSVC\14.34.31933\include\vector

; 2112 :             _Myfirst = nullptr;

  0008b	c7 47 10 00 00
	00 00		 mov	 DWORD PTR [edi+16], 0
; File C:\Program Files\Microsoft Visual Studio\2022\Community\VC\Tools\MSVC\14.34.31933\include\xmemory

; 255  :         ::operator delete(_Ptr, _Bytes);

  00092	83 c4 08	 add	 esp, 8
; File C:\Program Files\Microsoft Visual Studio\2022\Community\VC\Tools\MSVC\14.34.31933\include\vector

; 2113 :             _Mylast  = nullptr;

  00095	c7 47 14 00 00
	00 00		 mov	 DWORD PTR [edi+20], 0

; 2114 :             _Myend   = nullptr;

  0009c	c7 47 18 00 00
	00 00		 mov	 DWORD PTR [edi+24], 0
$LN35@CDynamicPo:

; 2107 :         if (_Myfirst) { // destroy and deallocate old array

  000a3	8b 47 04	 mov	 eax, DWORD PTR [edi+4]
  000a6	85 c0		 test	 eax, eax
  000a8	74 41		 je	 SHORT $LN60@CDynamicPo

; 2108 :             _Destroy_range(_Myfirst, _Mylast, _Al);
; 2109 :             _ASAN_VECTOR_REMOVE;
; 2110 :             _Al.deallocate(_Myfirst, static_cast<size_type>(_Myend - _Myfirst));

  000aa	8b 4f 0c	 mov	 ecx, DWORD PTR [edi+12]
  000ad	2b c8		 sub	 ecx, eax
; File C:\Program Files\Microsoft Visual Studio\2022\Community\VC\Tools\MSVC\14.34.31933\include\xmemory

; 830  :         _Deallocate<_New_alignof<_Ty>>(_Ptr, sizeof(_Ty) * _Count);

  000af	83 e1 fc	 and	 ecx, -4			; fffffffcH

; 251  :         if (_Bytes >= _Big_allocation_threshold) { // boost the alignment of big allocations to help autovectorization

  000b2	81 f9 00 10 00
	00		 cmp	 ecx, 4096		; 00001000H
  000b8	72 12		 jb	 SHORT $LN76@CDynamicPo

; 150  :     const uintptr_t _Ptr_container   = _Ptr_user[-1];

  000ba	8b 50 fc	 mov	 edx, DWORD PTR [eax-4]
  000bd	83 c1 23	 add	 ecx, 35			; 00000023H

; 151  : 
; 152  :     // If the following asserts, it likely means that we are performing
; 153  :     // an aligned delete on memory coming from an unaligned allocation.
; 154  :     _STL_ASSERT(_Ptr_user[-2] == _Big_allocation_sentinel, "invalid argument");
; 155  : 
; 156  :     // Extra paranoia on aligned allocation/deallocation; ensure _Ptr_container is
; 157  :     // in range [_Min_back_shift, _Non_user_size]
; 158  : #ifdef _DEBUG
; 159  :     constexpr uintptr_t _Min_back_shift = 2 * sizeof(void*);
; 160  : #else // ^^^ _DEBUG ^^^ // vvv !_DEBUG vvv
; 161  :     constexpr uintptr_t _Min_back_shift = sizeof(void*);
; 162  : #endif // _DEBUG
; 163  :     const uintptr_t _Back_shift = reinterpret_cast<uintptr_t>(_Ptr) - _Ptr_container;

  000c0	2b c2		 sub	 eax, edx

; 164  :     _STL_VERIFY(_Back_shift >= _Min_back_shift && _Back_shift <= _Non_user_size, "invalid argument");

  000c2	83 c0 fc	 add	 eax, -4			; fffffffcH
  000c5	83 f8 1f	 cmp	 eax, 31			; 0000001fH
  000c8	77 33		 ja	 SHORT $LN73@CDynamicPo

; 165  :     _Ptr = reinterpret_cast<void*>(_Ptr_container);

  000ca	8b c2		 mov	 eax, edx
$LN76@CDynamicPo:

; 255  :         ::operator delete(_Ptr, _Bytes);

  000cc	51		 push	 ecx
  000cd	50		 push	 eax
  000ce	e8 00 00 00 00	 call	 ??3@YAXPAXI@Z		; operator delete
; File C:\Program Files\Microsoft Visual Studio\2022\Community\VC\Tools\MSVC\14.34.31933\include\vector

; 2112 :             _Myfirst = nullptr;

  000d3	c7 47 04 00 00
	00 00		 mov	 DWORD PTR [edi+4], 0
; File C:\Program Files\Microsoft Visual Studio\2022\Community\VC\Tools\MSVC\14.34.31933\include\xmemory

; 255  :         ::operator delete(_Ptr, _Bytes);

  000da	83 c4 08	 add	 esp, 8
; File C:\Program Files\Microsoft Visual Studio\2022\Community\VC\Tools\MSVC\14.34.31933\include\vector

; 2113 :             _Mylast  = nullptr;

  000dd	c7 47 08 00 00
	00 00		 mov	 DWORD PTR [edi+8], 0

; 2114 :             _Myend   = nullptr;

  000e4	c7 47 0c 00 00
	00 00		 mov	 DWORD PTR [edi+12], 0
$LN60@CDynamicPo:
; File C:\Users\flourine\Desktop\Xantios\client-src\Code\eterLib\Pool.h

; 146  : 	}

  000eb	8b 4d f4	 mov	 ecx, DWORD PTR __$EHRec$[ebp]
  000ee	64 89 0d 00 00
	00 00		 mov	 DWORD PTR fs:0, ecx
  000f5	59		 pop	 ecx
  000f6	5f		 pop	 edi
  000f7	5e		 pop	 esi
  000f8	5b		 pop	 ebx
  000f9	8b e5		 mov	 esp, ebp
  000fb	5d		 pop	 ebp
  000fc	c3		 ret	 0
$LN73@CDynamicPo:
; File C:\Program Files\Microsoft Visual Studio\2022\Community\VC\Tools\MSVC\14.34.31933\include\xmemory

; 164  :     _STL_VERIFY(_Back_shift >= _Min_back_shift && _Back_shift <= _Non_user_size, "invalid argument");

  000fd	e8 00 00 00 00	 call	 __invalid_parameter_noinfo_noreturn
$LN86@CDynamicPo:
  00102	cc		 int	 3
  00103	cc		 int	 3
  00104	cc		 int	 3
  00105	cc		 int	 3
  00106	cc		 int	 3
  00107	cc		 int	 3
_TEXT	ENDS
;	COMDAT text$x
text$x	SEGMENT
__ehhandler$??1?$CDynamicPoolEx@VCTextureAnimationRandomDecorator@NEffectUpdateDecorator@@@@UAE@XZ:
  00000	90		 npad	 1
  00001	90		 npad	 1
  00002	8b 54 24 08	 mov	 edx, DWORD PTR [esp+8]
  00006	8d 42 0c	 lea	 eax, DWORD PTR [edx+12]
  00009	8b 4a f0	 mov	 ecx, DWORD PTR [edx-16]
  0000c	33 c8		 xor	 ecx, eax
  0000e	e8 00 00 00 00	 call	 @__security_check_cookie@4
  00013	b8 00 00 00 00	 mov	 eax, OFFSET __ehfuncinfo$??1?$CDynamicPoolEx@VCTextureAnimationRandomDecorator@NEffectUpdateDecorator@@@@UAE@XZ
  00018	e9 00 00 00 00	 jmp	 ___CxxFrameHandler3
text$x	ENDS
??1?$CDynamicPoolEx@VCTextureAnimationRandomDecorator@NEffectUpdateDecorator@@@@UAE@XZ ENDP ; CDynamicPoolEx<NEffectUpdateDecorator::CTextureAnimationRandomDecorator>::~CDynamicPoolEx<NEffectUpdateDecorator::CTextureAnimationRandomDecorator>
; Function compile flags: /Ogtp
;	COMDAT ??_G?$CDynamicPoolEx@VCAirResistanceDecorator@NEffectUpdateDecorator@@@@UAEPAXI@Z
_TEXT	SEGMENT
___flags$ = 8						; size = 4
??_G?$CDynamicPoolEx@VCAirResistanceDecorator@NEffectUpdateDecorator@@@@UAEPAXI@Z PROC ; CDynamicPoolEx<NEffectUpdateDecorator::CAirResistanceDecorator>::`scalar deleting destructor', COMDAT
; _this$ = ecx
  00000	55		 push	 ebp
  00001	8b ec		 mov	 ebp, esp
  00003	56		 push	 esi
  00004	8b f1		 mov	 esi, ecx
  00006	e8 00 00 00 00	 call	 ??1?$CDynamicPoolEx@VCAirResistanceDecorator@NEffectUpdateDecorator@@@@UAE@XZ ; CDynamicPoolEx<NEffectUpdateDecorator::CAirResistanceDecorator>::~CDynamicPoolEx<NEffectUpdateDecorator::CAirResistanceDecorator>
  0000b	f6 45 08 01	 test	 BYTE PTR ___flags$[ebp], 1
  0000f	74 0b		 je	 SHORT $LN4@scalar
  00011	6a 24		 push	 36			; 00000024H
  00013	56		 push	 esi
  00014	e8 00 00 00 00	 call	 ??3@YAXPAXI@Z		; operator delete
  00019	83 c4 08	 add	 esp, 8
$LN4@scalar:
  0001c	8b c6		 mov	 eax, esi
  0001e	5e		 pop	 esi
  0001f	5d		 pop	 ebp
  00020	c2 04 00	 ret	 4
??_G?$CDynamicPoolEx@VCAirResistanceDecorator@NEffectUpdateDecorator@@@@UAEPAXI@Z ENDP ; CDynamicPoolEx<NEffectUpdateDecorator::CAirResistanceDecorator>::`scalar deleting destructor'
_TEXT	ENDS
; Function compile flags: /Ogtp
; File C:\Users\flourine\Desktop\Xantios\client-src\Code\eterLib\Pool.h
;	COMDAT ?Delete@?$CDynamicPoolEx@VCAirResistanceDecorator@NEffectUpdateDecorator@@@@KAXPAVCAirResistanceDecorator@NEffectUpdateDecorator@@@Z
_TEXT	SEGMENT
_pkData$ = 8						; size = 4
?Delete@?$CDynamicPoolEx@VCAirResistanceDecorator@NEffectUpdateDecorator@@@@KAXPAVCAirResistanceDecorator@NEffectUpdateDecorator@@@Z PROC ; CDynamicPoolEx<NEffectUpdateDecorator::CAirResistanceDecorator>::Delete, COMDAT

; 232  : 		::operator delete (pkData);

  00000	e9 00 00 00 00	 jmp	 ??3@YAXPAX@Z		; operator delete
?Delete@?$CDynamicPoolEx@VCAirResistanceDecorator@NEffectUpdateDecorator@@@@KAXPAVCAirResistanceDecorator@NEffectUpdateDecorator@@@Z ENDP ; CDynamicPoolEx<NEffectUpdateDecorator::CAirResistanceDecorator>::Delete
_TEXT	ENDS
; Function compile flags: /Ogtp
; File C:\Users\flourine\Desktop\Xantios\client-src\Code\eterLib\Pool.h
; File C:\Program Files\Microsoft Visual Studio\2022\Community\VC\Tools\MSVC\14.34.31933\include\vector
; File C:\Program Files\Microsoft Visual Studio\2022\Community\VC\Tools\MSVC\14.34.31933\include\algorithm
; File C:\Users\flourine\Desktop\Xantios\client-src\Code\eterLib\Pool.h
; File C:\Program Files\Microsoft Visual Studio\2022\Community\VC\Tools\MSVC\14.34.31933\include\algorithm
; File C:\Users\flourine\Desktop\Xantios\client-src\Code\eterLib\Pool.h
; File C:\Program Files\Microsoft Visual Studio\2022\Community\VC\Tools\MSVC\14.34.31933\include\algorithm
; File C:\Program Files\Microsoft Visual Studio\2022\Community\VC\Tools\MSVC\14.34.31933\include\vector
; File C:\Program Files\Microsoft Visual Studio\2022\Community\VC\Tools\MSVC\14.34.31933\include\xmemory
; File C:\Program Files\Microsoft Visual Studio\2022\Community\VC\Tools\MSVC\14.34.31933\include\vector
; File C:\Program Files\Microsoft Visual Studio\2022\Community\VC\Tools\MSVC\14.34.31933\include\xmemory
; File C:\Program Files\Microsoft Visual Studio\2022\Community\VC\Tools\MSVC\14.34.31933\include\vector
; File C:\Program Files\Microsoft Visual Studio\2022\Community\VC\Tools\MSVC\14.34.31933\include\xmemory
; File C:\Program Files\Microsoft Visual Studio\2022\Community\VC\Tools\MSVC\14.34.31933\include\vector
; File C:\Program Files\Microsoft Visual Studio\2022\Community\VC\Tools\MSVC\14.34.31933\include\xmemory
; File C:\Program Files\Microsoft Visual Studio\2022\Community\VC\Tools\MSVC\14.34.31933\include\vector
; File C:\Users\flourine\Desktop\Xantios\client-src\Code\eterLib\Pool.h
; File C:\Program Files\Microsoft Visual Studio\2022\Community\VC\Tools\MSVC\14.34.31933\include\xmemory
; File C:\Users\flourine\Desktop\Xantios\client-src\Code\eterLib\Pool.h
;	COMDAT ??1?$CDynamicPoolEx@VCAirResistanceDecorator@NEffectUpdateDecorator@@@@UAE@XZ
_TEXT	SEGMENT
__$EHRec$ = -12						; size = 12
??1?$CDynamicPoolEx@VCAirResistanceDecorator@NEffectUpdateDecorator@@@@UAE@XZ PROC ; CDynamicPoolEx<NEffectUpdateDecorator::CAirResistanceDecorator>::~CDynamicPoolEx<NEffectUpdateDecorator::CAirResistanceDecorator>, COMDAT
; _this$ = ecx

; 136  : 	{

  00000	55		 push	 ebp
  00001	8b ec		 mov	 ebp, esp
  00003	6a ff		 push	 -1
  00005	68 00 00 00 00	 push	 __ehhandler$??1?$CDynamicPoolEx@VCAirResistanceDecorator@NEffectUpdateDecorator@@@@UAE@XZ
  0000a	64 a1 00 00 00
	00		 mov	 eax, DWORD PTR fs:0
  00010	50		 push	 eax
  00011	53		 push	 ebx
  00012	56		 push	 esi
  00013	57		 push	 edi
  00014	a1 00 00 00 00	 mov	 eax, DWORD PTR ___security_cookie
  00019	33 c5		 xor	 eax, ebp
  0001b	50		 push	 eax
  0001c	8d 45 f4	 lea	 eax, DWORD PTR __$EHRec$[ebp]
  0001f	64 a3 00 00 00
	00		 mov	 DWORD PTR fs:0, eax
  00025	8b f9		 mov	 edi, ecx
  00027	c7 07 00 00 00
	00		 mov	 DWORD PTR [edi], OFFSET ??_7?$CDynamicPoolEx@VCAirResistanceDecorator@NEffectUpdateDecorator@@@@6B@
; File C:\Program Files\Microsoft Visual Studio\2022\Community\VC\Tools\MSVC\14.34.31933\include\vector

; 41   :     _CONSTEXPR20 _Vector_const_iterator(_Tptr _Parg, const _Container_base* _Pvector) noexcept : _Ptr(_Parg) {

  0002d	8b 5f 08	 mov	 ebx, DWORD PTR [edi+8]
; File C:\Program Files\Microsoft Visual Studio\2022\Community\VC\Tools\MSVC\14.34.31933\include\algorithm

; 265  :     for (; _UFirst != _ULast; ++_UFirst) {

  00030	8b 77 04	 mov	 esi, DWORD PTR [edi+4]
  00033	3b f3		 cmp	 esi, ebx
  00035	74 11		 je	 SHORT $LN19@CDynamicPo
$LL20@CDynamicPo:
; File C:\Users\flourine\Desktop\Xantios\client-src\Code\eterLib\Pool.h

; 232  : 		::operator delete (pkData);

  00037	ff 36		 push	 DWORD PTR [esi]
  00039	e8 00 00 00 00	 call	 ??3@YAXPAX@Z		; operator delete
; File C:\Program Files\Microsoft Visual Studio\2022\Community\VC\Tools\MSVC\14.34.31933\include\algorithm

; 265  :     for (; _UFirst != _ULast; ++_UFirst) {

  0003e	83 c6 04	 add	 esi, 4
; File C:\Users\flourine\Desktop\Xantios\client-src\Code\eterLib\Pool.h

; 232  : 		::operator delete (pkData);

  00041	83 c4 04	 add	 esp, 4
; File C:\Program Files\Microsoft Visual Studio\2022\Community\VC\Tools\MSVC\14.34.31933\include\algorithm

; 265  :     for (; _UFirst != _ULast; ++_UFirst) {

  00044	3b f3		 cmp	 esi, ebx
  00046	75 ef		 jne	 SHORT $LL20@CDynamicPo
$LN19@CDynamicPo:
; File C:\Program Files\Microsoft Visual Studio\2022\Community\VC\Tools\MSVC\14.34.31933\include\vector

; 1829 :         if (_Myfirst == _Mylast) { // already empty, nothing to do

  00048	8b 47 04	 mov	 eax, DWORD PTR [edi+4]
  0004b	3b 47 08	 cmp	 eax, DWORD PTR [edi+8]
  0004e	74 03		 je	 SHORT $LN26@CDynamicPo

; 1830 :             // This is an optimization for debug mode: we can avoid taking the debug lock to invalidate iterators.
; 1831 :             // Note that when clearing an empty vector, this will preserve past-the-end iterators, which is allowed by
; 1832 :             // N4901 [tab:container.seq.req] "a.clear() [...] may invalidate the past-the-end iterator".
; 1833 :             return;
; 1834 :         }
; 1835 : 
; 1836 :         _My_data._Orphan_all();
; 1837 :         _Destroy_range(_Myfirst, _Mylast, _Getal());
; 1838 :         _ASAN_VECTOR_MODIFY(static_cast<difference_type>(_Myfirst - _Mylast)); // negative when destroying elements
; 1839 :         _Mylast = _Myfirst;

  00050	89 47 08	 mov	 DWORD PTR [edi+8], eax
$LN26@CDynamicPo:

; 1829 :         if (_Myfirst == _Mylast) { // already empty, nothing to do

  00053	8b 47 10	 mov	 eax, DWORD PTR [edi+16]
  00056	3b 47 14	 cmp	 eax, DWORD PTR [edi+20]
  00059	74 03		 je	 SHORT $LN29@CDynamicPo

; 1830 :             // This is an optimization for debug mode: we can avoid taking the debug lock to invalidate iterators.
; 1831 :             // Note that when clearing an empty vector, this will preserve past-the-end iterators, which is allowed by
; 1832 :             // N4901 [tab:container.seq.req] "a.clear() [...] may invalidate the past-the-end iterator".
; 1833 :             return;
; 1834 :         }
; 1835 : 
; 1836 :         _My_data._Orphan_all();
; 1837 :         _Destroy_range(_Myfirst, _Mylast, _Getal());
; 1838 :         _ASAN_VECTOR_MODIFY(static_cast<difference_type>(_Myfirst - _Mylast)); // negative when destroying elements
; 1839 :         _Mylast = _Myfirst;

  0005b	89 47 14	 mov	 DWORD PTR [edi+20], eax
$LN29@CDynamicPo:

; 2107 :         if (_Myfirst) { // destroy and deallocate old array

  0005e	85 c0		 test	 eax, eax
  00060	74 41		 je	 SHORT $LN35@CDynamicPo

; 2108 :             _Destroy_range(_Myfirst, _Mylast, _Al);
; 2109 :             _ASAN_VECTOR_REMOVE;
; 2110 :             _Al.deallocate(_Myfirst, static_cast<size_type>(_Myend - _Myfirst));

  00062	8b 4f 18	 mov	 ecx, DWORD PTR [edi+24]
  00065	2b c8		 sub	 ecx, eax
; File C:\Program Files\Microsoft Visual Studio\2022\Community\VC\Tools\MSVC\14.34.31933\include\xmemory

; 830  :         _Deallocate<_New_alignof<_Ty>>(_Ptr, sizeof(_Ty) * _Count);

  00067	83 e1 fc	 and	 ecx, -4			; fffffffcH

; 251  :         if (_Bytes >= _Big_allocation_threshold) { // boost the alignment of big allocations to help autovectorization

  0006a	81 f9 00 10 00
	00		 cmp	 ecx, 4096		; 00001000H
  00070	72 12		 jb	 SHORT $LN51@CDynamicPo

; 150  :     const uintptr_t _Ptr_container   = _Ptr_user[-1];

  00072	8b 50 fc	 mov	 edx, DWORD PTR [eax-4]
  00075	83 c1 23	 add	 ecx, 35			; 00000023H

; 151  : 
; 152  :     // If the following asserts, it likely means that we are performing
; 153  :     // an aligned delete on memory coming from an unaligned allocation.
; 154  :     _STL_ASSERT(_Ptr_user[-2] == _Big_allocation_sentinel, "invalid argument");
; 155  : 
; 156  :     // Extra paranoia on aligned allocation/deallocation; ensure _Ptr_container is
; 157  :     // in range [_Min_back_shift, _Non_user_size]
; 158  : #ifdef _DEBUG
; 159  :     constexpr uintptr_t _Min_back_shift = 2 * sizeof(void*);
; 160  : #else // ^^^ _DEBUG ^^^ // vvv !_DEBUG vvv
; 161  :     constexpr uintptr_t _Min_back_shift = sizeof(void*);
; 162  : #endif // _DEBUG
; 163  :     const uintptr_t _Back_shift = reinterpret_cast<uintptr_t>(_Ptr) - _Ptr_container;

  00078	2b c2		 sub	 eax, edx

; 164  :     _STL_VERIFY(_Back_shift >= _Min_back_shift && _Back_shift <= _Non_user_size, "invalid argument");

  0007a	83 c0 fc	 add	 eax, -4			; fffffffcH
  0007d	83 f8 1f	 cmp	 eax, 31			; 0000001fH
  00080	77 7b		 ja	 SHORT $LN73@CDynamicPo

; 165  :     _Ptr = reinterpret_cast<void*>(_Ptr_container);

  00082	8b c2		 mov	 eax, edx
$LN51@CDynamicPo:

; 255  :         ::operator delete(_Ptr, _Bytes);

  00084	51		 push	 ecx
  00085	50		 push	 eax
  00086	e8 00 00 00 00	 call	 ??3@YAXPAXI@Z		; operator delete
; File C:\Program Files\Microsoft Visual Studio\2022\Community\VC\Tools\MSVC\14.34.31933\include\vector

; 2112 :             _Myfirst = nullptr;

  0008b	c7 47 10 00 00
	00 00		 mov	 DWORD PTR [edi+16], 0
; File C:\Program Files\Microsoft Visual Studio\2022\Community\VC\Tools\MSVC\14.34.31933\include\xmemory

; 255  :         ::operator delete(_Ptr, _Bytes);

  00092	83 c4 08	 add	 esp, 8
; File C:\Program Files\Microsoft Visual Studio\2022\Community\VC\Tools\MSVC\14.34.31933\include\vector

; 2113 :             _Mylast  = nullptr;

  00095	c7 47 14 00 00
	00 00		 mov	 DWORD PTR [edi+20], 0

; 2114 :             _Myend   = nullptr;

  0009c	c7 47 18 00 00
	00 00		 mov	 DWORD PTR [edi+24], 0
$LN35@CDynamicPo:

; 2107 :         if (_Myfirst) { // destroy and deallocate old array

  000a3	8b 47 04	 mov	 eax, DWORD PTR [edi+4]
  000a6	85 c0		 test	 eax, eax
  000a8	74 41		 je	 SHORT $LN60@CDynamicPo

; 2108 :             _Destroy_range(_Myfirst, _Mylast, _Al);
; 2109 :             _ASAN_VECTOR_REMOVE;
; 2110 :             _Al.deallocate(_Myfirst, static_cast<size_type>(_Myend - _Myfirst));

  000aa	8b 4f 0c	 mov	 ecx, DWORD PTR [edi+12]
  000ad	2b c8		 sub	 ecx, eax
; File C:\Program Files\Microsoft Visual Studio\2022\Community\VC\Tools\MSVC\14.34.31933\include\xmemory

; 830  :         _Deallocate<_New_alignof<_Ty>>(_Ptr, sizeof(_Ty) * _Count);

  000af	83 e1 fc	 and	 ecx, -4			; fffffffcH

; 251  :         if (_Bytes >= _Big_allocation_threshold) { // boost the alignment of big allocations to help autovectorization

  000b2	81 f9 00 10 00
	00		 cmp	 ecx, 4096		; 00001000H
  000b8	72 12		 jb	 SHORT $LN76@CDynamicPo

; 150  :     const uintptr_t _Ptr_container   = _Ptr_user[-1];

  000ba	8b 50 fc	 mov	 edx, DWORD PTR [eax-4]
  000bd	83 c1 23	 add	 ecx, 35			; 00000023H

; 151  : 
; 152  :     // If the following asserts, it likely means that we are performing
; 153  :     // an aligned delete on memory coming from an unaligned allocation.
; 154  :     _STL_ASSERT(_Ptr_user[-2] == _Big_allocation_sentinel, "invalid argument");
; 155  : 
; 156  :     // Extra paranoia on aligned allocation/deallocation; ensure _Ptr_container is
; 157  :     // in range [_Min_back_shift, _Non_user_size]
; 158  : #ifdef _DEBUG
; 159  :     constexpr uintptr_t _Min_back_shift = 2 * sizeof(void*);
; 160  : #else // ^^^ _DEBUG ^^^ // vvv !_DEBUG vvv
; 161  :     constexpr uintptr_t _Min_back_shift = sizeof(void*);
; 162  : #endif // _DEBUG
; 163  :     const uintptr_t _Back_shift = reinterpret_cast<uintptr_t>(_Ptr) - _Ptr_container;

  000c0	2b c2		 sub	 eax, edx

; 164  :     _STL_VERIFY(_Back_shift >= _Min_back_shift && _Back_shift <= _Non_user_size, "invalid argument");

  000c2	83 c0 fc	 add	 eax, -4			; fffffffcH
  000c5	83 f8 1f	 cmp	 eax, 31			; 0000001fH
  000c8	77 33		 ja	 SHORT $LN73@CDynamicPo

; 165  :     _Ptr = reinterpret_cast<void*>(_Ptr_container);

  000ca	8b c2		 mov	 eax, edx
$LN76@CDynamicPo:

; 255  :         ::operator delete(_Ptr, _Bytes);

  000cc	51		 push	 ecx
  000cd	50		 push	 eax
  000ce	e8 00 00 00 00	 call	 ??3@YAXPAXI@Z		; operator delete
; File C:\Program Files\Microsoft Visual Studio\2022\Community\VC\Tools\MSVC\14.34.31933\include\vector

; 2112 :             _Myfirst = nullptr;

  000d3	c7 47 04 00 00
	00 00		 mov	 DWORD PTR [edi+4], 0
; File C:\Program Files\Microsoft Visual Studio\2022\Community\VC\Tools\MSVC\14.34.31933\include\xmemory

; 255  :         ::operator delete(_Ptr, _Bytes);

  000da	83 c4 08	 add	 esp, 8
; File C:\Program Files\Microsoft Visual Studio\2022\Community\VC\Tools\MSVC\14.34.31933\include\vector

; 2113 :             _Mylast  = nullptr;

  000dd	c7 47 08 00 00
	00 00		 mov	 DWORD PTR [edi+8], 0

; 2114 :             _Myend   = nullptr;

  000e4	c7 47 0c 00 00
	00 00		 mov	 DWORD PTR [edi+12], 0
$LN60@CDynamicPo:
; File C:\Users\flourine\Desktop\Xantios\client-src\Code\eterLib\Pool.h

; 146  : 	}

  000eb	8b 4d f4	 mov	 ecx, DWORD PTR __$EHRec$[ebp]
  000ee	64 89 0d 00 00
	00 00		 mov	 DWORD PTR fs:0, ecx
  000f5	59		 pop	 ecx
  000f6	5f		 pop	 edi
  000f7	5e		 pop	 esi
  000f8	5b		 pop	 ebx
  000f9	8b e5		 mov	 esp, ebp
  000fb	5d		 pop	 ebp
  000fc	c3		 ret	 0
$LN73@CDynamicPo:
; File C:\Program Files\Microsoft Visual Studio\2022\Community\VC\Tools\MSVC\14.34.31933\include\xmemory

; 164  :     _STL_VERIFY(_Back_shift >= _Min_back_shift && _Back_shift <= _Non_user_size, "invalid argument");

  000fd	e8 00 00 00 00	 call	 __invalid_parameter_noinfo_noreturn
$LN86@CDynamicPo:
  00102	cc		 int	 3
  00103	cc		 int	 3
  00104	cc		 int	 3
  00105	cc		 int	 3
  00106	cc		 int	 3
  00107	cc		 int	 3
_TEXT	ENDS
;	COMDAT text$x
text$x	SEGMENT
__ehhandler$??1?$CDynamicPoolEx@VCAirResistanceDecorator@NEffectUpdateDecorator@@@@UAE@XZ:
  00000	90		 npad	 1
  00001	90		 npad	 1
  00002	8b 54 24 08	 mov	 edx, DWORD PTR [esp+8]
  00006	8d 42 0c	 lea	 eax, DWORD PTR [edx+12]
  00009	8b 4a f0	 mov	 ecx, DWORD PTR [edx-16]
  0000c	33 c8		 xor	 ecx, eax
  0000e	e8 00 00 00 00	 call	 @__security_check_cookie@4
  00013	b8 00 00 00 00	 mov	 eax, OFFSET __ehfuncinfo$??1?$CDynamicPoolEx@VCAirResistanceDecorator@NEffectUpdateDecorator@@@@UAE@XZ
  00018	e9 00 00 00 00	 jmp	 ___CxxFrameHandler3
text$x	ENDS
??1?$CDynamicPoolEx@VCAirResistanceDecorator@NEffectUpdateDecorator@@@@UAE@XZ ENDP ; CDynamicPoolEx<NEffectUpdateDecorator::CAirResistanceDecorator>::~CDynamicPoolEx<NEffectUpdateDecorator::CAirResistanceDecorator>
; Function compile flags: /Ogtp
;	COMDAT ??_G?$CDynamicPoolEx@VCGravityDecorator@NEffectUpdateDecorator@@@@UAEPAXI@Z
_TEXT	SEGMENT
___flags$ = 8						; size = 4
??_G?$CDynamicPoolEx@VCGravityDecorator@NEffectUpdateDecorator@@@@UAEPAXI@Z PROC ; CDynamicPoolEx<NEffectUpdateDecorator::CGravityDecorator>::`scalar deleting destructor', COMDAT
; _this$ = ecx
  00000	55		 push	 ebp
  00001	8b ec		 mov	 ebp, esp
  00003	56		 push	 esi
  00004	8b f1		 mov	 esi, ecx
  00006	e8 00 00 00 00	 call	 ??1?$CDynamicPoolEx@VCGravityDecorator@NEffectUpdateDecorator@@@@UAE@XZ ; CDynamicPoolEx<NEffectUpdateDecorator::CGravityDecorator>::~CDynamicPoolEx<NEffectUpdateDecorator::CGravityDecorator>
  0000b	f6 45 08 01	 test	 BYTE PTR ___flags$[ebp], 1
  0000f	74 0b		 je	 SHORT $LN4@scalar
  00011	6a 24		 push	 36			; 00000024H
  00013	56		 push	 esi
  00014	e8 00 00 00 00	 call	 ??3@YAXPAXI@Z		; operator delete
  00019	83 c4 08	 add	 esp, 8
$LN4@scalar:
  0001c	8b c6		 mov	 eax, esi
  0001e	5e		 pop	 esi
  0001f	5d		 pop	 ebp
  00020	c2 04 00	 ret	 4
??_G?$CDynamicPoolEx@VCGravityDecorator@NEffectUpdateDecorator@@@@UAEPAXI@Z ENDP ; CDynamicPoolEx<NEffectUpdateDecorator::CGravityDecorator>::`scalar deleting destructor'
_TEXT	ENDS
; Function compile flags: /Ogtp
; File C:\Users\flourine\Desktop\Xantios\client-src\Code\eterLib\Pool.h
;	COMDAT ?Delete@?$CDynamicPoolEx@VCGravityDecorator@NEffectUpdateDecorator@@@@KAXPAVCGravityDecorator@NEffectUpdateDecorator@@@Z
_TEXT	SEGMENT
_pkData$ = 8						; size = 4
?Delete@?$CDynamicPoolEx@VCGravityDecorator@NEffectUpdateDecorator@@@@KAXPAVCGravityDecorator@NEffectUpdateDecorator@@@Z PROC ; CDynamicPoolEx<NEffectUpdateDecorator::CGravityDecorator>::Delete, COMDAT

; 232  : 		::operator delete (pkData);

  00000	e9 00 00 00 00	 jmp	 ??3@YAXPAX@Z		; operator delete
?Delete@?$CDynamicPoolEx@VCGravityDecorator@NEffectUpdateDecorator@@@@KAXPAVCGravityDecorator@NEffectUpdateDecorator@@@Z ENDP ; CDynamicPoolEx<NEffectUpdateDecorator::CGravityDecorator>::Delete
_TEXT	ENDS
; Function compile flags: /Ogtp
; File C:\Users\flourine\Desktop\Xantios\client-src\Code\eterLib\Pool.h
; File C:\Program Files\Microsoft Visual Studio\2022\Community\VC\Tools\MSVC\14.34.31933\include\vector
; File C:\Program Files\Microsoft Visual Studio\2022\Community\VC\Tools\MSVC\14.34.31933\include\algorithm
; File C:\Users\flourine\Desktop\Xantios\client-src\Code\eterLib\Pool.h
; File C:\Program Files\Microsoft Visual Studio\2022\Community\VC\Tools\MSVC\14.34.31933\include\algorithm
; File C:\Users\flourine\Desktop\Xantios\client-src\Code\eterLib\Pool.h
; File C:\Program Files\Microsoft Visual Studio\2022\Community\VC\Tools\MSVC\14.34.31933\include\algorithm
; File C:\Program Files\Microsoft Visual Studio\2022\Community\VC\Tools\MSVC\14.34.31933\include\vector
; File C:\Program Files\Microsoft Visual Studio\2022\Community\VC\Tools\MSVC\14.34.31933\include\xmemory
; File C:\Program Files\Microsoft Visual Studio\2022\Community\VC\Tools\MSVC\14.34.31933\include\vector
; File C:\Program Files\Microsoft Visual Studio\2022\Community\VC\Tools\MSVC\14.34.31933\include\xmemory
; File C:\Program Files\Microsoft Visual Studio\2022\Community\VC\Tools\MSVC\14.34.31933\include\vector
; File C:\Program Files\Microsoft Visual Studio\2022\Community\VC\Tools\MSVC\14.34.31933\include\xmemory
; File C:\Program Files\Microsoft Visual Studio\2022\Community\VC\Tools\MSVC\14.34.31933\include\vector
; File C:\Program Files\Microsoft Visual Studio\2022\Community\VC\Tools\MSVC\14.34.31933\include\xmemory
; File C:\Program Files\Microsoft Visual Studio\2022\Community\VC\Tools\MSVC\14.34.31933\include\vector
; File C:\Users\flourine\Desktop\Xantios\client-src\Code\eterLib\Pool.h
; File C:\Program Files\Microsoft Visual Studio\2022\Community\VC\Tools\MSVC\14.34.31933\include\xmemory
; File C:\Users\flourine\Desktop\Xantios\client-src\Code\eterLib\Pool.h
;	COMDAT ??1?$CDynamicPoolEx@VCGravityDecorator@NEffectUpdateDecorator@@@@UAE@XZ
_TEXT	SEGMENT
__$EHRec$ = -12						; size = 12
??1?$CDynamicPoolEx@VCGravityDecorator@NEffectUpdateDecorator@@@@UAE@XZ PROC ; CDynamicPoolEx<NEffectUpdateDecorator::CGravityDecorator>::~CDynamicPoolEx<NEffectUpdateDecorator::CGravityDecorator>, COMDAT
; _this$ = ecx

; 136  : 	{

  00000	55		 push	 ebp
  00001	8b ec		 mov	 ebp, esp
  00003	6a ff		 push	 -1
  00005	68 00 00 00 00	 push	 __ehhandler$??1?$CDynamicPoolEx@VCGravityDecorator@NEffectUpdateDecorator@@@@UAE@XZ
  0000a	64 a1 00 00 00
	00		 mov	 eax, DWORD PTR fs:0
  00010	50		 push	 eax
  00011	53		 push	 ebx
  00012	56		 push	 esi
  00013	57		 push	 edi
  00014	a1 00 00 00 00	 mov	 eax, DWORD PTR ___security_cookie
  00019	33 c5		 xor	 eax, ebp
  0001b	50		 push	 eax
  0001c	8d 45 f4	 lea	 eax, DWORD PTR __$EHRec$[ebp]
  0001f	64 a3 00 00 00
	00		 mov	 DWORD PTR fs:0, eax
  00025	8b f9		 mov	 edi, ecx
  00027	c7 07 00 00 00
	00		 mov	 DWORD PTR [edi], OFFSET ??_7?$CDynamicPoolEx@VCGravityDecorator@NEffectUpdateDecorator@@@@6B@
; File C:\Program Files\Microsoft Visual Studio\2022\Community\VC\Tools\MSVC\14.34.31933\include\vector

; 41   :     _CONSTEXPR20 _Vector_const_iterator(_Tptr _Parg, const _Container_base* _Pvector) noexcept : _Ptr(_Parg) {

  0002d	8b 5f 08	 mov	 ebx, DWORD PTR [edi+8]
; File C:\Program Files\Microsoft Visual Studio\2022\Community\VC\Tools\MSVC\14.34.31933\include\algorithm

; 265  :     for (; _UFirst != _ULast; ++_UFirst) {

  00030	8b 77 04	 mov	 esi, DWORD PTR [edi+4]
  00033	3b f3		 cmp	 esi, ebx
  00035	74 11		 je	 SHORT $LN19@CDynamicPo
$LL20@CDynamicPo:
; File C:\Users\flourine\Desktop\Xantios\client-src\Code\eterLib\Pool.h

; 232  : 		::operator delete (pkData);

  00037	ff 36		 push	 DWORD PTR [esi]
  00039	e8 00 00 00 00	 call	 ??3@YAXPAX@Z		; operator delete
; File C:\Program Files\Microsoft Visual Studio\2022\Community\VC\Tools\MSVC\14.34.31933\include\algorithm

; 265  :     for (; _UFirst != _ULast; ++_UFirst) {

  0003e	83 c6 04	 add	 esi, 4
; File C:\Users\flourine\Desktop\Xantios\client-src\Code\eterLib\Pool.h

; 232  : 		::operator delete (pkData);

  00041	83 c4 04	 add	 esp, 4
; File C:\Program Files\Microsoft Visual Studio\2022\Community\VC\Tools\MSVC\14.34.31933\include\algorithm

; 265  :     for (; _UFirst != _ULast; ++_UFirst) {

  00044	3b f3		 cmp	 esi, ebx
  00046	75 ef		 jne	 SHORT $LL20@CDynamicPo
$LN19@CDynamicPo:
; File C:\Program Files\Microsoft Visual Studio\2022\Community\VC\Tools\MSVC\14.34.31933\include\vector

; 1829 :         if (_Myfirst == _Mylast) { // already empty, nothing to do

  00048	8b 47 04	 mov	 eax, DWORD PTR [edi+4]
  0004b	3b 47 08	 cmp	 eax, DWORD PTR [edi+8]
  0004e	74 03		 je	 SHORT $LN26@CDynamicPo

; 1830 :             // This is an optimization for debug mode: we can avoid taking the debug lock to invalidate iterators.
; 1831 :             // Note that when clearing an empty vector, this will preserve past-the-end iterators, which is allowed by
; 1832 :             // N4901 [tab:container.seq.req] "a.clear() [...] may invalidate the past-the-end iterator".
; 1833 :             return;
; 1834 :         }
; 1835 : 
; 1836 :         _My_data._Orphan_all();
; 1837 :         _Destroy_range(_Myfirst, _Mylast, _Getal());
; 1838 :         _ASAN_VECTOR_MODIFY(static_cast<difference_type>(_Myfirst - _Mylast)); // negative when destroying elements
; 1839 :         _Mylast = _Myfirst;

  00050	89 47 08	 mov	 DWORD PTR [edi+8], eax
$LN26@CDynamicPo:

; 1829 :         if (_Myfirst == _Mylast) { // already empty, nothing to do

  00053	8b 47 10	 mov	 eax, DWORD PTR [edi+16]
  00056	3b 47 14	 cmp	 eax, DWORD PTR [edi+20]
  00059	74 03		 je	 SHORT $LN29@CDynamicPo

; 1830 :             // This is an optimization for debug mode: we can avoid taking the debug lock to invalidate iterators.
; 1831 :             // Note that when clearing an empty vector, this will preserve past-the-end iterators, which is allowed by
; 1832 :             // N4901 [tab:container.seq.req] "a.clear() [...] may invalidate the past-the-end iterator".
; 1833 :             return;
; 1834 :         }
; 1835 : 
; 1836 :         _My_data._Orphan_all();
; 1837 :         _Destroy_range(_Myfirst, _Mylast, _Getal());
; 1838 :         _ASAN_VECTOR_MODIFY(static_cast<difference_type>(_Myfirst - _Mylast)); // negative when destroying elements
; 1839 :         _Mylast = _Myfirst;

  0005b	89 47 14	 mov	 DWORD PTR [edi+20], eax
$LN29@CDynamicPo:

; 2107 :         if (_Myfirst) { // destroy and deallocate old array

  0005e	85 c0		 test	 eax, eax
  00060	74 41		 je	 SHORT $LN35@CDynamicPo

; 2108 :             _Destroy_range(_Myfirst, _Mylast, _Al);
; 2109 :             _ASAN_VECTOR_REMOVE;
; 2110 :             _Al.deallocate(_Myfirst, static_cast<size_type>(_Myend - _Myfirst));

  00062	8b 4f 18	 mov	 ecx, DWORD PTR [edi+24]
  00065	2b c8		 sub	 ecx, eax
; File C:\Program Files\Microsoft Visual Studio\2022\Community\VC\Tools\MSVC\14.34.31933\include\xmemory

; 830  :         _Deallocate<_New_alignof<_Ty>>(_Ptr, sizeof(_Ty) * _Count);

  00067	83 e1 fc	 and	 ecx, -4			; fffffffcH

; 251  :         if (_Bytes >= _Big_allocation_threshold) { // boost the alignment of big allocations to help autovectorization

  0006a	81 f9 00 10 00
	00		 cmp	 ecx, 4096		; 00001000H
  00070	72 12		 jb	 SHORT $LN51@CDynamicPo

; 150  :     const uintptr_t _Ptr_container   = _Ptr_user[-1];

  00072	8b 50 fc	 mov	 edx, DWORD PTR [eax-4]
  00075	83 c1 23	 add	 ecx, 35			; 00000023H

; 151  : 
; 152  :     // If the following asserts, it likely means that we are performing
; 153  :     // an aligned delete on memory coming from an unaligned allocation.
; 154  :     _STL_ASSERT(_Ptr_user[-2] == _Big_allocation_sentinel, "invalid argument");
; 155  : 
; 156  :     // Extra paranoia on aligned allocation/deallocation; ensure _Ptr_container is
; 157  :     // in range [_Min_back_shift, _Non_user_size]
; 158  : #ifdef _DEBUG
; 159  :     constexpr uintptr_t _Min_back_shift = 2 * sizeof(void*);
; 160  : #else // ^^^ _DEBUG ^^^ // vvv !_DEBUG vvv
; 161  :     constexpr uintptr_t _Min_back_shift = sizeof(void*);
; 162  : #endif // _DEBUG
; 163  :     const uintptr_t _Back_shift = reinterpret_cast<uintptr_t>(_Ptr) - _Ptr_container;

  00078	2b c2		 sub	 eax, edx

; 164  :     _STL_VERIFY(_Back_shift >= _Min_back_shift && _Back_shift <= _Non_user_size, "invalid argument");

  0007a	83 c0 fc	 add	 eax, -4			; fffffffcH
  0007d	83 f8 1f	 cmp	 eax, 31			; 0000001fH
  00080	77 7b		 ja	 SHORT $LN73@CDynamicPo

; 165  :     _Ptr = reinterpret_cast<void*>(_Ptr_container);

  00082	8b c2		 mov	 eax, edx
$LN51@CDynamicPo:

; 255  :         ::operator delete(_Ptr, _Bytes);

  00084	51		 push	 ecx
  00085	50		 push	 eax
  00086	e8 00 00 00 00	 call	 ??3@YAXPAXI@Z		; operator delete
; File C:\Program Files\Microsoft Visual Studio\2022\Community\VC\Tools\MSVC\14.34.31933\include\vector

; 2112 :             _Myfirst = nullptr;

  0008b	c7 47 10 00 00
	00 00		 mov	 DWORD PTR [edi+16], 0
; File C:\Program Files\Microsoft Visual Studio\2022\Community\VC\Tools\MSVC\14.34.31933\include\xmemory

; 255  :         ::operator delete(_Ptr, _Bytes);

  00092	83 c4 08	 add	 esp, 8
; File C:\Program Files\Microsoft Visual Studio\2022\Community\VC\Tools\MSVC\14.34.31933\include\vector

; 2113 :             _Mylast  = nullptr;

  00095	c7 47 14 00 00
	00 00		 mov	 DWORD PTR [edi+20], 0

; 2114 :             _Myend   = nullptr;

  0009c	c7 47 18 00 00
	00 00		 mov	 DWORD PTR [edi+24], 0
$LN35@CDynamicPo:

; 2107 :         if (_Myfirst) { // destroy and deallocate old array

  000a3	8b 47 04	 mov	 eax, DWORD PTR [edi+4]
  000a6	85 c0		 test	 eax, eax
  000a8	74 41		 je	 SHORT $LN60@CDynamicPo

; 2108 :             _Destroy_range(_Myfirst, _Mylast, _Al);
; 2109 :             _ASAN_VECTOR_REMOVE;
; 2110 :             _Al.deallocate(_Myfirst, static_cast<size_type>(_Myend - _Myfirst));

  000aa	8b 4f 0c	 mov	 ecx, DWORD PTR [edi+12]
  000ad	2b c8		 sub	 ecx, eax
; File C:\Program Files\Microsoft Visual Studio\2022\Community\VC\Tools\MSVC\14.34.31933\include\xmemory

; 830  :         _Deallocate<_New_alignof<_Ty>>(_Ptr, sizeof(_Ty) * _Count);

  000af	83 e1 fc	 and	 ecx, -4			; fffffffcH

; 251  :         if (_Bytes >= _Big_allocation_threshold) { // boost the alignment of big allocations to help autovectorization

  000b2	81 f9 00 10 00
	00		 cmp	 ecx, 4096		; 00001000H
  000b8	72 12		 jb	 SHORT $LN76@CDynamicPo

; 150  :     const uintptr_t _Ptr_container   = _Ptr_user[-1];

  000ba	8b 50 fc	 mov	 edx, DWORD PTR [eax-4]
  000bd	83 c1 23	 add	 ecx, 35			; 00000023H

; 151  : 
; 152  :     // If the following asserts, it likely means that we are performing
; 153  :     // an aligned delete on memory coming from an unaligned allocation.
; 154  :     _STL_ASSERT(_Ptr_user[-2] == _Big_allocation_sentinel, "invalid argument");
; 155  : 
; 156  :     // Extra paranoia on aligned allocation/deallocation; ensure _Ptr_container is
; 157  :     // in range [_Min_back_shift, _Non_user_size]
; 158  : #ifdef _DEBUG
; 159  :     constexpr uintptr_t _Min_back_shift = 2 * sizeof(void*);
; 160  : #else // ^^^ _DEBUG ^^^ // vvv !_DEBUG vvv
; 161  :     constexpr uintptr_t _Min_back_shift = sizeof(void*);
; 162  : #endif // _DEBUG
; 163  :     const uintptr_t _Back_shift = reinterpret_cast<uintptr_t>(_Ptr) - _Ptr_container;

  000c0	2b c2		 sub	 eax, edx

; 164  :     _STL_VERIFY(_Back_shift >= _Min_back_shift && _Back_shift <= _Non_user_size, "invalid argument");

  000c2	83 c0 fc	 add	 eax, -4			; fffffffcH
  000c5	83 f8 1f	 cmp	 eax, 31			; 0000001fH
  000c8	77 33		 ja	 SHORT $LN73@CDynamicPo

; 165  :     _Ptr = reinterpret_cast<void*>(_Ptr_container);

  000ca	8b c2		 mov	 eax, edx
$LN76@CDynamicPo:

; 255  :         ::operator delete(_Ptr, _Bytes);

  000cc	51		 push	 ecx
  000cd	50		 push	 eax
  000ce	e8 00 00 00 00	 call	 ??3@YAXPAXI@Z		; operator delete
; File C:\Program Files\Microsoft Visual Studio\2022\Community\VC\Tools\MSVC\14.34.31933\include\vector

; 2112 :             _Myfirst = nullptr;

  000d3	c7 47 04 00 00
	00 00		 mov	 DWORD PTR [edi+4], 0
; File C:\Program Files\Microsoft Visual Studio\2022\Community\VC\Tools\MSVC\14.34.31933\include\xmemory

; 255  :         ::operator delete(_Ptr, _Bytes);

  000da	83 c4 08	 add	 esp, 8
; File C:\Program Files\Microsoft Visual Studio\2022\Community\VC\Tools\MSVC\14.34.31933\include\vector

; 2113 :             _Mylast  = nullptr;

  000dd	c7 47 08 00 00
	00 00		 mov	 DWORD PTR [edi+8], 0

; 2114 :             _Myend   = nullptr;

  000e4	c7 47 0c 00 00
	00 00		 mov	 DWORD PTR [edi+12], 0
$LN60@CDynamicPo:
; File C:\Users\flourine\Desktop\Xantios\client-src\Code\eterLib\Pool.h

; 146  : 	}

  000eb	8b 4d f4	 mov	 ecx, DWORD PTR __$EHRec$[ebp]
  000ee	64 89 0d 00 00
	00 00		 mov	 DWORD PTR fs:0, ecx
  000f5	59		 pop	 ecx
  000f6	5f		 pop	 edi
  000f7	5e		 pop	 esi
  000f8	5b		 pop	 ebx
  000f9	8b e5		 mov	 esp, ebp
  000fb	5d		 pop	 ebp
  000fc	c3		 ret	 0
$LN73@CDynamicPo:
; File C:\Program Files\Microsoft Visual Studio\2022\Community\VC\Tools\MSVC\14.34.31933\include\xmemory

; 164  :     _STL_VERIFY(_Back_shift >= _Min_back_shift && _Back_shift <= _Non_user_size, "invalid argument");

  000fd	e8 00 00 00 00	 call	 __invalid_parameter_noinfo_noreturn
$LN86@CDynamicPo:
  00102	cc		 int	 3
  00103	cc		 int	 3
  00104	cc		 int	 3
  00105	cc		 int	 3
  00106	cc		 int	 3
  00107	cc		 int	 3
_TEXT	ENDS
;	COMDAT text$x
text$x	SEGMENT
__ehhandler$??1?$CDynamicPoolEx@VCGravityDecorator@NEffectUpdateDecorator@@@@UAE@XZ:
  00000	90		 npad	 1
  00001	90		 npad	 1
  00002	8b 54 24 08	 mov	 edx, DWORD PTR [esp+8]
  00006	8d 42 0c	 lea	 eax, DWORD PTR [edx+12]
  00009	8b 4a f0	 mov	 ecx, DWORD PTR [edx-16]
  0000c	33 c8		 xor	 ecx, eax
  0000e	e8 00 00 00 00	 call	 @__security_check_cookie@4
  00013	b8 00 00 00 00	 mov	 eax, OFFSET __ehfuncinfo$??1?$CDynamicPoolEx@VCGravityDecorator@NEffectUpdateDecorator@@@@UAE@XZ
  00018	e9 00 00 00 00	 jmp	 ___CxxFrameHandler3
text$x	ENDS
??1?$CDynamicPoolEx@VCGravityDecorator@NEffectUpdateDecorator@@@@UAE@XZ ENDP ; CDynamicPoolEx<NEffectUpdateDecorator::CGravityDecorator>::~CDynamicPoolEx<NEffectUpdateDecorator::CGravityDecorator>
; Function compile flags: /Ogtp
;	COMDAT ??_G?$CDynamicPoolEx@VCRotationDecorator@NEffectUpdateDecorator@@@@UAEPAXI@Z
_TEXT	SEGMENT
___flags$ = 8						; size = 4
??_G?$CDynamicPoolEx@VCRotationDecorator@NEffectUpdateDecorator@@@@UAEPAXI@Z PROC ; CDynamicPoolEx<NEffectUpdateDecorator::CRotationDecorator>::`scalar deleting destructor', COMDAT
; _this$ = ecx
  00000	55		 push	 ebp
  00001	8b ec		 mov	 ebp, esp
  00003	56		 push	 esi
  00004	8b f1		 mov	 esi, ecx
  00006	e8 00 00 00 00	 call	 ??1?$CDynamicPoolEx@VCRotationDecorator@NEffectUpdateDecorator@@@@UAE@XZ ; CDynamicPoolEx<NEffectUpdateDecorator::CRotationDecorator>::~CDynamicPoolEx<NEffectUpdateDecorator::CRotationDecorator>
  0000b	f6 45 08 01	 test	 BYTE PTR ___flags$[ebp], 1
  0000f	74 0b		 je	 SHORT $LN4@scalar
  00011	6a 24		 push	 36			; 00000024H
  00013	56		 push	 esi
  00014	e8 00 00 00 00	 call	 ??3@YAXPAXI@Z		; operator delete
  00019	83 c4 08	 add	 esp, 8
$LN4@scalar:
  0001c	8b c6		 mov	 eax, esi
  0001e	5e		 pop	 esi
  0001f	5d		 pop	 ebp
  00020	c2 04 00	 ret	 4
??_G?$CDynamicPoolEx@VCRotationDecorator@NEffectUpdateDecorator@@@@UAEPAXI@Z ENDP ; CDynamicPoolEx<NEffectUpdateDecorator::CRotationDecorator>::`scalar deleting destructor'
_TEXT	ENDS
; Function compile flags: /Ogtp
; File C:\Users\flourine\Desktop\Xantios\client-src\Code\eterLib\Pool.h
;	COMDAT ?Delete@?$CDynamicPoolEx@VCRotationDecorator@NEffectUpdateDecorator@@@@KAXPAVCRotationDecorator@NEffectUpdateDecorator@@@Z
_TEXT	SEGMENT
_pkData$ = 8						; size = 4
?Delete@?$CDynamicPoolEx@VCRotationDecorator@NEffectUpdateDecorator@@@@KAXPAVCRotationDecorator@NEffectUpdateDecorator@@@Z PROC ; CDynamicPoolEx<NEffectUpdateDecorator::CRotationDecorator>::Delete, COMDAT

; 232  : 		::operator delete (pkData);

  00000	e9 00 00 00 00	 jmp	 ??3@YAXPAX@Z		; operator delete
?Delete@?$CDynamicPoolEx@VCRotationDecorator@NEffectUpdateDecorator@@@@KAXPAVCRotationDecorator@NEffectUpdateDecorator@@@Z ENDP ; CDynamicPoolEx<NEffectUpdateDecorator::CRotationDecorator>::Delete
_TEXT	ENDS
; Function compile flags: /Ogtp
; File C:\Users\flourine\Desktop\Xantios\client-src\Code\eterLib\Pool.h
; File C:\Program Files\Microsoft Visual Studio\2022\Community\VC\Tools\MSVC\14.34.31933\include\vector
; File C:\Program Files\Microsoft Visual Studio\2022\Community\VC\Tools\MSVC\14.34.31933\include\algorithm
; File C:\Users\flourine\Desktop\Xantios\client-src\Code\eterLib\Pool.h
; File C:\Program Files\Microsoft Visual Studio\2022\Community\VC\Tools\MSVC\14.34.31933\include\algorithm
; File C:\Users\flourine\Desktop\Xantios\client-src\Code\eterLib\Pool.h
; File C:\Program Files\Microsoft Visual Studio\2022\Community\VC\Tools\MSVC\14.34.31933\include\algorithm
; File C:\Program Files\Microsoft Visual Studio\2022\Community\VC\Tools\MSVC\14.34.31933\include\vector
; File C:\Program Files\Microsoft Visual Studio\2022\Community\VC\Tools\MSVC\14.34.31933\include\xmemory
; File C:\Program Files\Microsoft Visual Studio\2022\Community\VC\Tools\MSVC\14.34.31933\include\vector
; File C:\Program Files\Microsoft Visual Studio\2022\Community\VC\Tools\MSVC\14.34.31933\include\xmemory
; File C:\Program Files\Microsoft Visual Studio\2022\Community\VC\Tools\MSVC\14.34.31933\include\vector
; File C:\Program Files\Microsoft Visual Studio\2022\Community\VC\Tools\MSVC\14.34.31933\include\xmemory
; File C:\Program Files\Microsoft Visual Studio\2022\Community\VC\Tools\MSVC\14.34.31933\include\vector
; File C:\Program Files\Microsoft Visual Studio\2022\Community\VC\Tools\MSVC\14.34.31933\include\xmemory
; File C:\Program Files\Microsoft Visual Studio\2022\Community\VC\Tools\MSVC\14.34.31933\include\vector
; File C:\Users\flourine\Desktop\Xantios\client-src\Code\eterLib\Pool.h
; File C:\Program Files\Microsoft Visual Studio\2022\Community\VC\Tools\MSVC\14.34.31933\include\xmemory
; File C:\Users\flourine\Desktop\Xantios\client-src\Code\eterLib\Pool.h
;	COMDAT ??1?$CDynamicPoolEx@VCRotationDecorator@NEffectUpdateDecorator@@@@UAE@XZ
_TEXT	SEGMENT
__$EHRec$ = -12						; size = 12
??1?$CDynamicPoolEx@VCRotationDecorator@NEffectUpdateDecorator@@@@UAE@XZ PROC ; CDynamicPoolEx<NEffectUpdateDecorator::CRotationDecorator>::~CDynamicPoolEx<NEffectUpdateDecorator::CRotationDecorator>, COMDAT
; _this$ = ecx

; 136  : 	{

  00000	55		 push	 ebp
  00001	8b ec		 mov	 ebp, esp
  00003	6a ff		 push	 -1
  00005	68 00 00 00 00	 push	 __ehhandler$??1?$CDynamicPoolEx@VCRotationDecorator@NEffectUpdateDecorator@@@@UAE@XZ
  0000a	64 a1 00 00 00
	00		 mov	 eax, DWORD PTR fs:0
  00010	50		 push	 eax
  00011	53		 push	 ebx
  00012	56		 push	 esi
  00013	57		 push	 edi
  00014	a1 00 00 00 00	 mov	 eax, DWORD PTR ___security_cookie
  00019	33 c5		 xor	 eax, ebp
  0001b	50		 push	 eax
  0001c	8d 45 f4	 lea	 eax, DWORD PTR __$EHRec$[ebp]
  0001f	64 a3 00 00 00
	00		 mov	 DWORD PTR fs:0, eax
  00025	8b f9		 mov	 edi, ecx
  00027	c7 07 00 00 00
	00		 mov	 DWORD PTR [edi], OFFSET ??_7?$CDynamicPoolEx@VCRotationDecorator@NEffectUpdateDecorator@@@@6B@
; File C:\Program Files\Microsoft Visual Studio\2022\Community\VC\Tools\MSVC\14.34.31933\include\vector

; 41   :     _CONSTEXPR20 _Vector_const_iterator(_Tptr _Parg, const _Container_base* _Pvector) noexcept : _Ptr(_Parg) {

  0002d	8b 5f 08	 mov	 ebx, DWORD PTR [edi+8]
; File C:\Program Files\Microsoft Visual Studio\2022\Community\VC\Tools\MSVC\14.34.31933\include\algorithm

; 265  :     for (; _UFirst != _ULast; ++_UFirst) {

  00030	8b 77 04	 mov	 esi, DWORD PTR [edi+4]
  00033	3b f3		 cmp	 esi, ebx
  00035	74 11		 je	 SHORT $LN19@CDynamicPo
$LL20@CDynamicPo:
; File C:\Users\flourine\Desktop\Xantios\client-src\Code\eterLib\Pool.h

; 232  : 		::operator delete (pkData);

  00037	ff 36		 push	 DWORD PTR [esi]
  00039	e8 00 00 00 00	 call	 ??3@YAXPAX@Z		; operator delete
; File C:\Program Files\Microsoft Visual Studio\2022\Community\VC\Tools\MSVC\14.34.31933\include\algorithm

; 265  :     for (; _UFirst != _ULast; ++_UFirst) {

  0003e	83 c6 04	 add	 esi, 4
; File C:\Users\flourine\Desktop\Xantios\client-src\Code\eterLib\Pool.h

; 232  : 		::operator delete (pkData);

  00041	83 c4 04	 add	 esp, 4
; File C:\Program Files\Microsoft Visual Studio\2022\Community\VC\Tools\MSVC\14.34.31933\include\algorithm

; 265  :     for (; _UFirst != _ULast; ++_UFirst) {

  00044	3b f3		 cmp	 esi, ebx
  00046	75 ef		 jne	 SHORT $LL20@CDynamicPo
$LN19@CDynamicPo:
; File C:\Program Files\Microsoft Visual Studio\2022\Community\VC\Tools\MSVC\14.34.31933\include\vector

; 1829 :         if (_Myfirst == _Mylast) { // already empty, nothing to do

  00048	8b 47 04	 mov	 eax, DWORD PTR [edi+4]
  0004b	3b 47 08	 cmp	 eax, DWORD PTR [edi+8]
  0004e	74 03		 je	 SHORT $LN26@CDynamicPo

; 1830 :             // This is an optimization for debug mode: we can avoid taking the debug lock to invalidate iterators.
; 1831 :             // Note that when clearing an empty vector, this will preserve past-the-end iterators, which is allowed by
; 1832 :             // N4901 [tab:container.seq.req] "a.clear() [...] may invalidate the past-the-end iterator".
; 1833 :             return;
; 1834 :         }
; 1835 : 
; 1836 :         _My_data._Orphan_all();
; 1837 :         _Destroy_range(_Myfirst, _Mylast, _Getal());
; 1838 :         _ASAN_VECTOR_MODIFY(static_cast<difference_type>(_Myfirst - _Mylast)); // negative when destroying elements
; 1839 :         _Mylast = _Myfirst;

  00050	89 47 08	 mov	 DWORD PTR [edi+8], eax
$LN26@CDynamicPo:

; 1829 :         if (_Myfirst == _Mylast) { // already empty, nothing to do

  00053	8b 47 10	 mov	 eax, DWORD PTR [edi+16]
  00056	3b 47 14	 cmp	 eax, DWORD PTR [edi+20]
  00059	74 03		 je	 SHORT $LN29@CDynamicPo

; 1830 :             // This is an optimization for debug mode: we can avoid taking the debug lock to invalidate iterators.
; 1831 :             // Note that when clearing an empty vector, this will preserve past-the-end iterators, which is allowed by
; 1832 :             // N4901 [tab:container.seq.req] "a.clear() [...] may invalidate the past-the-end iterator".
; 1833 :             return;
; 1834 :         }
; 1835 : 
; 1836 :         _My_data._Orphan_all();
; 1837 :         _Destroy_range(_Myfirst, _Mylast, _Getal());
; 1838 :         _ASAN_VECTOR_MODIFY(static_cast<difference_type>(_Myfirst - _Mylast)); // negative when destroying elements
; 1839 :         _Mylast = _Myfirst;

  0005b	89 47 14	 mov	 DWORD PTR [edi+20], eax
$LN29@CDynamicPo:

; 2107 :         if (_Myfirst) { // destroy and deallocate old array

  0005e	85 c0		 test	 eax, eax
  00060	74 41		 je	 SHORT $LN35@CDynamicPo

; 2108 :             _Destroy_range(_Myfirst, _Mylast, _Al);
; 2109 :             _ASAN_VECTOR_REMOVE;
; 2110 :             _Al.deallocate(_Myfirst, static_cast<size_type>(_Myend - _Myfirst));

  00062	8b 4f 18	 mov	 ecx, DWORD PTR [edi+24]
  00065	2b c8		 sub	 ecx, eax
; File C:\Program Files\Microsoft Visual Studio\2022\Community\VC\Tools\MSVC\14.34.31933\include\xmemory

; 830  :         _Deallocate<_New_alignof<_Ty>>(_Ptr, sizeof(_Ty) * _Count);

  00067	83 e1 fc	 and	 ecx, -4			; fffffffcH

; 251  :         if (_Bytes >= _Big_allocation_threshold) { // boost the alignment of big allocations to help autovectorization

  0006a	81 f9 00 10 00
	00		 cmp	 ecx, 4096		; 00001000H
  00070	72 12		 jb	 SHORT $LN51@CDynamicPo

; 150  :     const uintptr_t _Ptr_container   = _Ptr_user[-1];

  00072	8b 50 fc	 mov	 edx, DWORD PTR [eax-4]
  00075	83 c1 23	 add	 ecx, 35			; 00000023H

; 151  : 
; 152  :     // If the following asserts, it likely means that we are performing
; 153  :     // an aligned delete on memory coming from an unaligned allocation.
; 154  :     _STL_ASSERT(_Ptr_user[-2] == _Big_allocation_sentinel, "invalid argument");
; 155  : 
; 156  :     // Extra paranoia on aligned allocation/deallocation; ensure _Ptr_container is
; 157  :     // in range [_Min_back_shift, _Non_user_size]
; 158  : #ifdef _DEBUG
; 159  :     constexpr uintptr_t _Min_back_shift = 2 * sizeof(void*);
; 160  : #else // ^^^ _DEBUG ^^^ // vvv !_DEBUG vvv
; 161  :     constexpr uintptr_t _Min_back_shift = sizeof(void*);
; 162  : #endif // _DEBUG
; 163  :     const uintptr_t _Back_shift = reinterpret_cast<uintptr_t>(_Ptr) - _Ptr_container;

  00078	2b c2		 sub	 eax, edx

; 164  :     _STL_VERIFY(_Back_shift >= _Min_back_shift && _Back_shift <= _Non_user_size, "invalid argument");

  0007a	83 c0 fc	 add	 eax, -4			; fffffffcH
  0007d	83 f8 1f	 cmp	 eax, 31			; 0000001fH
  00080	77 7b		 ja	 SHORT $LN73@CDynamicPo

; 165  :     _Ptr = reinterpret_cast<void*>(_Ptr_container);

  00082	8b c2		 mov	 eax, edx
$LN51@CDynamicPo:

; 255  :         ::operator delete(_Ptr, _Bytes);

  00084	51		 push	 ecx
  00085	50		 push	 eax
  00086	e8 00 00 00 00	 call	 ??3@YAXPAXI@Z		; operator delete
; File C:\Program Files\Microsoft Visual Studio\2022\Community\VC\Tools\MSVC\14.34.31933\include\vector

; 2112 :             _Myfirst = nullptr;

  0008b	c7 47 10 00 00
	00 00		 mov	 DWORD PTR [edi+16], 0
; File C:\Program Files\Microsoft Visual Studio\2022\Community\VC\Tools\MSVC\14.34.31933\include\xmemory

; 255  :         ::operator delete(_Ptr, _Bytes);

  00092	83 c4 08	 add	 esp, 8
; File C:\Program Files\Microsoft Visual Studio\2022\Community\VC\Tools\MSVC\14.34.31933\include\vector

; 2113 :             _Mylast  = nullptr;

  00095	c7 47 14 00 00
	00 00		 mov	 DWORD PTR [edi+20], 0

; 2114 :             _Myend   = nullptr;

  0009c	c7 47 18 00 00
	00 00		 mov	 DWORD PTR [edi+24], 0
$LN35@CDynamicPo:

; 2107 :         if (_Myfirst) { // destroy and deallocate old array

  000a3	8b 47 04	 mov	 eax, DWORD PTR [edi+4]
  000a6	85 c0		 test	 eax, eax
  000a8	74 41		 je	 SHORT $LN60@CDynamicPo

; 2108 :             _Destroy_range(_Myfirst, _Mylast, _Al);
; 2109 :             _ASAN_VECTOR_REMOVE;
; 2110 :             _Al.deallocate(_Myfirst, static_cast<size_type>(_Myend - _Myfirst));

  000aa	8b 4f 0c	 mov	 ecx, DWORD PTR [edi+12]
  000ad	2b c8		 sub	 ecx, eax
; File C:\Program Files\Microsoft Visual Studio\2022\Community\VC\Tools\MSVC\14.34.31933\include\xmemory

; 830  :         _Deallocate<_New_alignof<_Ty>>(_Ptr, sizeof(_Ty) * _Count);

  000af	83 e1 fc	 and	 ecx, -4			; fffffffcH

; 251  :         if (_Bytes >= _Big_allocation_threshold) { // boost the alignment of big allocations to help autovectorization

  000b2	81 f9 00 10 00
	00		 cmp	 ecx, 4096		; 00001000H
  000b8	72 12		 jb	 SHORT $LN76@CDynamicPo

; 150  :     const uintptr_t _Ptr_container   = _Ptr_user[-1];

  000ba	8b 50 fc	 mov	 edx, DWORD PTR [eax-4]
  000bd	83 c1 23	 add	 ecx, 35			; 00000023H

; 151  : 
; 152  :     // If the following asserts, it likely means that we are performing
; 153  :     // an aligned delete on memory coming from an unaligned allocation.
; 154  :     _STL_ASSERT(_Ptr_user[-2] == _Big_allocation_sentinel, "invalid argument");
; 155  : 
; 156  :     // Extra paranoia on aligned allocation/deallocation; ensure _Ptr_container is
; 157  :     // in range [_Min_back_shift, _Non_user_size]
; 158  : #ifdef _DEBUG
; 159  :     constexpr uintptr_t _Min_back_shift = 2 * sizeof(void*);
; 160  : #else // ^^^ _DEBUG ^^^ // vvv !_DEBUG vvv
; 161  :     constexpr uintptr_t _Min_back_shift = sizeof(void*);
; 162  : #endif // _DEBUG
; 163  :     const uintptr_t _Back_shift = reinterpret_cast<uintptr_t>(_Ptr) - _Ptr_container;

  000c0	2b c2		 sub	 eax, edx

; 164  :     _STL_VERIFY(_Back_shift >= _Min_back_shift && _Back_shift <= _Non_user_size, "invalid argument");

  000c2	83 c0 fc	 add	 eax, -4			; fffffffcH
  000c5	83 f8 1f	 cmp	 eax, 31			; 0000001fH
  000c8	77 33		 ja	 SHORT $LN73@CDynamicPo

; 165  :     _Ptr = reinterpret_cast<void*>(_Ptr_container);

  000ca	8b c2		 mov	 eax, edx
$LN76@CDynamicPo:

; 255  :         ::operator delete(_Ptr, _Bytes);

  000cc	51		 push	 ecx
  000cd	50		 push	 eax
  000ce	e8 00 00 00 00	 call	 ??3@YAXPAXI@Z		; operator delete
; File C:\Program Files\Microsoft Visual Studio\2022\Community\VC\Tools\MSVC\14.34.31933\include\vector

; 2112 :             _Myfirst = nullptr;

  000d3	c7 47 04 00 00
	00 00		 mov	 DWORD PTR [edi+4], 0
; File C:\Program Files\Microsoft Visual Studio\2022\Community\VC\Tools\MSVC\14.34.31933\include\xmemory

; 255  :         ::operator delete(_Ptr, _Bytes);

  000da	83 c4 08	 add	 esp, 8
; File C:\Program Files\Microsoft Visual Studio\2022\Community\VC\Tools\MSVC\14.34.31933\include\vector

; 2113 :             _Mylast  = nullptr;

  000dd	c7 47 08 00 00
	00 00		 mov	 DWORD PTR [edi+8], 0

; 2114 :             _Myend   = nullptr;

  000e4	c7 47 0c 00 00
	00 00		 mov	 DWORD PTR [edi+12], 0
$LN60@CDynamicPo:
; File C:\Users\flourine\Desktop\Xantios\client-src\Code\eterLib\Pool.h

; 146  : 	}

  000eb	8b 4d f4	 mov	 ecx, DWORD PTR __$EHRec$[ebp]
  000ee	64 89 0d 00 00
	00 00		 mov	 DWORD PTR fs:0, ecx
  000f5	59		 pop	 ecx
  000f6	5f		 pop	 edi
  000f7	5e		 pop	 esi
  000f8	5b		 pop	 ebx
  000f9	8b e5		 mov	 esp, ebp
  000fb	5d		 pop	 ebp
  000fc	c3		 ret	 0
$LN73@CDynamicPo:
; File C:\Program Files\Microsoft Visual Studio\2022\Community\VC\Tools\MSVC\14.34.31933\include\xmemory

; 164  :     _STL_VERIFY(_Back_shift >= _Min_back_shift && _Back_shift <= _Non_user_size, "invalid argument");

  000fd	e8 00 00 00 00	 call	 __invalid_parameter_noinfo_noreturn
$LN86@CDynamicPo:
  00102	cc		 int	 3
  00103	cc		 int	 3
  00104	cc		 int	 3
  00105	cc		 int	 3
  00106	cc		 int	 3
  00107	cc		 int	 3
_TEXT	ENDS
;	COMDAT text$x
text$x	SEGMENT
__ehhandler$??1?$CDynamicPoolEx@VCRotationDecorator@NEffectUpdateDecorator@@@@UAE@XZ:
  00000	90		 npad	 1
  00001	90		 npad	 1
  00002	8b 54 24 08	 mov	 edx, DWORD PTR [esp+8]
  00006	8d 42 0c	 lea	 eax, DWORD PTR [edx+12]
  00009	8b 4a f0	 mov	 ecx, DWORD PTR [edx-16]
  0000c	33 c8		 xor	 ecx, eax
  0000e	e8 00 00 00 00	 call	 @__security_check_cookie@4
  00013	b8 00 00 00 00	 mov	 eax, OFFSET __ehfuncinfo$??1?$CDynamicPoolEx@VCRotationDecorator@NEffectUpdateDecorator@@@@UAE@XZ
  00018	e9 00 00 00 00	 jmp	 ___CxxFrameHandler3
text$x	ENDS
??1?$CDynamicPoolEx@VCRotationDecorator@NEffectUpdateDecorator@@@@UAE@XZ ENDP ; CDynamicPoolEx<NEffectUpdateDecorator::CRotationDecorator>::~CDynamicPoolEx<NEffectUpdateDecorator::CRotationDecorator>
; Function compile flags: /Ogtp
; File C:\Program Files\Microsoft Visual Studio\2022\Community\VC\Tools\MSVC\14.34.31933\include\list
; File C:\Program Files\Microsoft Visual Studio\2022\Community\VC\Tools\MSVC\14.34.31933\include\xmemory
; File C:\Program Files\Microsoft Visual Studio\2022\Community\VC\Tools\MSVC\14.34.31933\include\list
; File C:\Program Files\Microsoft Visual Studio\2022\Community\VC\Tools\MSVC\14.34.31933\include\xmemory
; File C:\Program Files\Microsoft Visual Studio\2022\Community\VC\Tools\MSVC\14.34.31933\include\list
; File C:\Program Files\Microsoft Visual Studio\2022\Community\VC\Tools\MSVC\14.34.31933\include\xmemory
; File C:\Program Files\Microsoft Visual Studio\2022\Community\VC\Tools\MSVC\14.34.31933\include\vector
; File C:\Program Files\Microsoft Visual Studio\2022\Community\VC\Tools\MSVC\14.34.31933\include\xmemory
; File C:\Program Files\Microsoft Visual Studio\2022\Community\VC\Tools\MSVC\14.34.31933\include\vector
; File C:\Program Files\Microsoft Visual Studio\2022\Community\VC\Tools\MSVC\14.34.31933\include\xmemory
; File C:\Program Files\Microsoft Visual Studio\2022\Community\VC\Tools\MSVC\14.34.31933\include\vector
; File C:\Program Files\Microsoft Visual Studio\2022\Community\VC\Tools\MSVC\14.34.31933\include\list
; File C:\Program Files\Microsoft Visual Studio\2022\Community\VC\Tools\MSVC\14.34.31933\include\vector
; File C:\Program Files\Microsoft Visual Studio\2022\Community\VC\Tools\MSVC\14.34.31933\include\list
;	COMDAT ??$_Emplace@ABUSCollisionPointInstance@CActorInstance@@@?$list@USCollisionPointInstance@CActorInstance@@V?$allocator@USCollisionPointInstance@CActorInstance@@@std@@@std@@QAEPAU?$_List_node@USCollisionPointInstance@CActorInstance@@PAX@1@QAU21@ABUSCollisionPointInstance@CActorInstance@@@Z
_TEXT	SEGMENT
__Op$ = -24						; size = 8
_this$1$ = -16						; size = 4
__$EHRec$ = -12						; size = 12
__Where$ = 8						; size = 4
_<_Val_0>$ = 12						; size = 4
??$_Emplace@ABUSCollisionPointInstance@CActorInstance@@@?$list@USCollisionPointInstance@CActorInstance@@V?$allocator@USCollisionPointInstance@CActorInstance@@@std@@@std@@QAEPAU?$_List_node@USCollisionPointInstance@CActorInstance@@PAX@1@QAU21@ABUSCollisionPointInstance@CActorInstance@@@Z PROC ; std::list<CActorInstance::SCollisionPointInstance,std::allocator<CActorInstance::SCollisionPointInstance> >::_Emplace<CActorInstance::SCollisionPointInstance const &>, COMDAT
; _this$ = ecx

; 1010 :     _Nodeptr _Emplace(const _Nodeptr _Where, _Valty&&... _Val) { // insert element at _Where

  00000	55		 push	 ebp
  00001	8b ec		 mov	 ebp, esp
  00003	6a ff		 push	 -1
  00005	68 00 00 00 00	 push	 __ehhandler$??$_Emplace@ABUSCollisionPointInstance@CActorInstance@@@?$list@USCollisionPointInstance@CActorInstance@@V?$allocator@USCollisionPointInstance@CActorInstance@@@std@@@std@@QAEPAU?$_List_node@USCollisionPointInstance@CActorInstance@@PAX@1@QAU21@ABUSCollisionPointInstance@CActorInstance@@@Z
  0000a	64 a1 00 00 00
	00		 mov	 eax, DWORD PTR fs:0
  00010	50		 push	 eax
  00011	83 ec 0c	 sub	 esp, 12			; 0000000cH
  00014	53		 push	 ebx
  00015	56		 push	 esi
  00016	57		 push	 edi
  00017	a1 00 00 00 00	 mov	 eax, DWORD PTR ___security_cookie
  0001c	33 c5		 xor	 eax, ebp
  0001e	50		 push	 eax
  0001f	8d 45 f4	 lea	 eax, DWORD PTR __$EHRec$[ebp]
  00022	64 a3 00 00 00
	00		 mov	 DWORD PTR fs:0, eax
  00028	8b f1		 mov	 esi, ecx
  0002a	89 75 f0	 mov	 DWORD PTR _this$1$[ebp], esi

; 1011 :         size_type& _Mysize = _Mypair._Myval2._Mysize;
; 1012 :         if (_Mysize == max_size()) {

  0002d	81 7e 04 c7 71
	1c 07		 cmp	 DWORD PTR [esi+4], 119304647 ; 071c71c7H
  00034	0f 84 1b 01 00
	00		 je	 $LN123@Emplace
; File C:\Program Files\Microsoft Visual Studio\2022\Community\VC\Tools\MSVC\14.34.31933\include\xmemory

; 1005 :     _CONSTEXPR20 explicit _Alloc_construct_ptr(_Alloc& _Al_) : _Al(_Al_), _Ptr(nullptr) {}

  0003a	89 75 e8	 mov	 DWORD PTR __Op$[ebp], esi

; 77   :         return ::operator new(_Bytes);

  0003d	6a 24		 push	 36			; 00000024H
; File C:\Program Files\Microsoft Visual Studio\2022\Community\VC\Tools\MSVC\14.34.31933\include\list

; 584  :     explicit _List_node_emplace_op2(_Alnode& _Al_, _Valtys&&... _Vals) : _Alloc_construct_ptr<_Alnode>(_Al_) {

  0003f	c7 45 fc 00 00
	00 00		 mov	 DWORD PTR __$EHRec$[ebp+8], 0
; File C:\Program Files\Microsoft Visual Studio\2022\Community\VC\Tools\MSVC\14.34.31933\include\xmemory

; 1012 :         _Ptr = nullptr; // if allocate throws, prevents double-free

  00046	c7 45 ec 00 00
	00 00		 mov	 DWORD PTR __Op$[ebp+4], 0

; 77   :         return ::operator new(_Bytes);

  0004d	e8 00 00 00 00	 call	 ??2@YAPAXI@Z		; operator new
; File C:\Program Files\Microsoft Visual Studio\2022\Community\VC\Tools\MSVC\14.34.31933\include\list

; 586  :         _Alnode_traits::construct(this->_Al, _STD addressof(this->_Ptr->_Myval), _STD forward<_Valtys>(_Vals)...);

  00052	8b 7d 0c	 mov	 edi, DWORD PTR _<_Val_0>$[ebp]
; File C:\Program Files\Microsoft Visual Studio\2022\Community\VC\Tools\MSVC\14.34.31933\include\xmemory

; 235  :         return _Traits::_Allocate(_Bytes);

  00055	8b d8		 mov	 ebx, eax

; 77   :         return ::operator new(_Bytes);

  00057	83 c4 04	 add	 esp, 4

; 1013 :         _Ptr = _Al.allocate(1);

  0005a	89 5d ec	 mov	 DWORD PTR __Op$[ebp+4], ebx
  0005d	8b 0f		 mov	 ecx, DWORD PTR [edi]
  0005f	89 4b 08	 mov	 DWORD PTR [ebx+8], ecx
  00062	8b 4f 04	 mov	 ecx, DWORD PTR [edi+4]
  00065	89 4b 0c	 mov	 DWORD PTR [ebx+12], ecx
  00068	8b 4f 08	 mov	 ecx, DWORD PTR [edi+8]
  0006b	89 4b 10	 mov	 DWORD PTR [ebx+16], ecx
  0006e	8b 47 0c	 mov	 eax, DWORD PTR [edi+12]
  00071	89 43 14	 mov	 DWORD PTR [ebx+20], eax
; File C:\Program Files\Microsoft Visual Studio\2022\Community\VC\Tools\MSVC\14.34.31933\include\vector

; 748  :         const auto _Count       = static_cast<size_type>(_Right_data._Mylast - _Right_data._Myfirst);

  00074	b8 93 24 49 92	 mov	 eax, -1840700269	; 92492493H

; 390  :     _CONSTEXPR20 _Vector_val() noexcept : _Myfirst(), _Mylast(), _Myend() {}

  00079	c7 43 18 00 00
	00 00		 mov	 DWORD PTR [ebx+24], 0
  00080	c7 43 1c 00 00
	00 00		 mov	 DWORD PTR [ebx+28], 0
  00087	c7 43 20 00 00
	00 00		 mov	 DWORD PTR [ebx+32], 0

; 748  :         const auto _Count       = static_cast<size_type>(_Right_data._Mylast - _Right_data._Myfirst);

  0008e	8b 4f 14	 mov	 ecx, DWORD PTR [edi+20]
  00091	2b 4f 10	 sub	 ecx, DWORD PTR [edi+16]
  00094	f7 e9		 imul	 ecx
  00096	03 d1		 add	 edx, ecx
  00098	c1 fa 04	 sar	 edx, 4
  0009b	8b c2		 mov	 eax, edx
  0009d	c1 e8 1f	 shr	 eax, 31			; 0000001fH
  000a0	03 c2		 add	 eax, edx

; 2128 :         if (_Count != 0) {

  000a2	0f 84 84 00 00
	00		 je	 $LN75@Emplace

; 2069 :         if (_Newcapacity > max_size()) {

  000a8	3d 49 92 24 09	 cmp	 eax, 153391689		; 09249249H
  000ad	0f 87 ac 00 00
	00		 ja	 $LN124@Emplace
; File C:\Program Files\Microsoft Visual Studio\2022\Community\VC\Tools\MSVC\14.34.31933\include\xmemory

; 65   :     return _Count * _Ty_size;

  000b3	8d 34 c5 00 00
	00 00		 lea	 esi, DWORD PTR [eax*8]
  000ba	2b f0		 sub	 esi, eax
  000bc	c1 e6 02	 shl	 esi, 2

; 228  :         if (_Bytes >= _Big_allocation_threshold) { // boost the alignment of big allocations to help autovectorization

  000bf	81 fe 00 10 00
	00		 cmp	 esi, 4096		; 00001000H
  000c5	72 0b		 jb	 SHORT $LN53@Emplace

; 229  :             return _Allocate_manually_vector_aligned<_Traits>(_Bytes);

  000c7	56		 push	 esi
  000c8	e8 00 00 00 00	 call	 ??$_Allocate_manually_vector_aligned@U_Default_allocate_traits@std@@@std@@YAPAXI@Z ; std::_Allocate_manually_vector_aligned<std::_Default_allocate_traits>
  000cd	83 c4 04	 add	 esp, 4
  000d0	eb 11		 jmp	 SHORT $LN52@Emplace
$LN53@Emplace:

; 230  :         }
; 231  :     }
; 232  : #endif // defined(_M_IX86) || defined(_M_X64)
; 233  : 
; 234  :     if (_Bytes != 0) {

  000d2	85 f6		 test	 esi, esi
  000d4	74 0b		 je	 SHORT $LN54@Emplace

; 77   :         return ::operator new(_Bytes);

  000d6	56		 push	 esi
  000d7	e8 00 00 00 00	 call	 ??2@YAPAXI@Z		; operator new
  000dc	83 c4 04	 add	 esp, 4

; 235  :         return _Traits::_Allocate(_Bytes);

  000df	eb 02		 jmp	 SHORT $LN52@Emplace
$LN54@Emplace:

; 236  :     }
; 237  : 
; 238  :     return nullptr;

  000e1	33 c0		 xor	 eax, eax
$LN52@Emplace:
; File C:\Program Files\Microsoft Visual Studio\2022\Community\VC\Tools\MSVC\14.34.31933\include\vector

; 2053 :         _Myfirst           = _Newvec;

  000e3	89 43 18	 mov	 DWORD PTR [ebx+24], eax

; 2054 :         _Mylast            = _Newvec;

  000e6	89 43 1c	 mov	 DWORD PTR [ebx+28], eax

; 2055 :         _Myend             = _Newvec + _Newcapacity;

  000e9	03 c6		 add	 eax, esi
  000eb	89 43 20	 mov	 DWORD PTR [ebx+32], eax

; 2137 :                 _My_data._Mylast = _Uninitialized_copy(_STD forward<_Valty>(_Val)..., _My_data._Myfirst, _Al);

  000ee	8b 5b 18	 mov	 ebx, DWORD PTR [ebx+24]
; File C:\Program Files\Microsoft Visual Studio\2022\Community\VC\Tools\MSVC\14.34.31933\include\xmemory

; 1691 :     auto _UFirst = _Get_unwrapped(_STD move(_First));

  000f1	8b 77 10	 mov	 esi, DWORD PTR [edi+16]

; 1692 :     auto _ULast = _Get_unwrapped(_STD move(_Last));

  000f4	8b 7f 14	 mov	 edi, DWORD PTR [edi+20]

; 1693 : #endif // ^^^ !__cpp_lib_concepts ^^^
; 1694 : 
; 1695 :     constexpr bool _Can_memmove = _Sent_copy_cat<decltype(_UFirst), decltype(_ULast), _Ptrval>::_Bitcopy_constructible
; 1696 :                                && _Uses_default_construct<_Alloc, _Ptrval, decltype(*_UFirst)>::value;
; 1697 : 
; 1698 :     if constexpr (_Can_memmove) {
; 1699 : #if _HAS_CXX20
; 1700 :         if (!_STD is_constant_evaluated())
; 1701 : #endif // _HAS_CXX20
; 1702 :         {
; 1703 :             if constexpr (is_same_v<decltype(_UFirst), decltype(_ULast)>) {
; 1704 :                 _Copy_memmove(_To_address(_UFirst), _To_address(_ULast), _Unfancy(_Dest));

  000f7	53		 push	 ebx
  000f8	57		 push	 edi
  000f9	56		 push	 esi
  000fa	e8 00 00 00 00	 call	 ??$_Copy_memmove@PAUCDynamicSphereInstance@@PAU1@@std@@YAPAUCDynamicSphereInstance@@PAU1@00@Z ; std::_Copy_memmove<CDynamicSphereInstance *,CDynamicSphereInstance *>

; 1705 :                 _Dest += _ULast - _UFirst;

  000ff	2b fe		 sub	 edi, esi
  00101	b8 93 24 49 92	 mov	 eax, -1840700269	; 92492493H
  00106	f7 ef		 imul	 edi
  00108	8b 75 f0	 mov	 esi, DWORD PTR _this$1$[ebp]

; 1693 : #endif // ^^^ !__cpp_lib_concepts ^^^
; 1694 : 
; 1695 :     constexpr bool _Can_memmove = _Sent_copy_cat<decltype(_UFirst), decltype(_ULast), _Ptrval>::_Bitcopy_constructible
; 1696 :                                && _Uses_default_construct<_Alloc, _Ptrval, decltype(*_UFirst)>::value;
; 1697 : 
; 1698 :     if constexpr (_Can_memmove) {
; 1699 : #if _HAS_CXX20
; 1700 :         if (!_STD is_constant_evaluated())
; 1701 : #endif // _HAS_CXX20
; 1702 :         {
; 1703 :             if constexpr (is_same_v<decltype(_UFirst), decltype(_ULast)>) {
; 1704 :                 _Copy_memmove(_To_address(_UFirst), _To_address(_ULast), _Unfancy(_Dest));

  0010b	83 c4 0c	 add	 esp, 12			; 0000000cH

; 1705 :                 _Dest += _ULast - _UFirst;

  0010e	03 d7		 add	 edx, edi
  00110	c1 fa 04	 sar	 edx, 4
  00113	8b ca		 mov	 ecx, edx
  00115	c1 e9 1f	 shr	 ecx, 31			; 0000001fH
  00118	03 ca		 add	 ecx, edx
  0011a	8d 04 cd 00 00
	00 00		 lea	 eax, DWORD PTR [ecx*8]
  00121	2b c1		 sub	 eax, ecx
  00123	8d 04 83	 lea	 eax, DWORD PTR [ebx+eax*4]
; File C:\Program Files\Microsoft Visual Studio\2022\Community\VC\Tools\MSVC\14.34.31933\include\vector

; 2137 :                 _My_data._Mylast = _Uninitialized_copy(_STD forward<_Valty>(_Val)..., _My_data._Myfirst, _Al);

  00126	8b 5d ec	 mov	 ebx, DWORD PTR __Op$[ebp+4]
  00129	89 43 1c	 mov	 DWORD PTR [ebx+28], eax
$LN75@Emplace:
; File C:\Program Files\Microsoft Visual Studio\2022\Community\VC\Tools\MSVC\14.34.31933\include\list

; 599  :         const pointer _Insert_after = _Insert_before->_Prev;

  0012c	8b 4d 08	 mov	 ecx, DWORD PTR __Where$[ebp]

; 1014 :         }
; 1015 : 
; 1016 :         _List_node_emplace_op2<_Alnode> _Op{_Getal(), _STD forward<_Valty>(_Val)...};
; 1017 :         ++_Mysize;

  0012f	ff 46 04	 inc	 DWORD PTR [esi+4]

; 599  :         const pointer _Insert_after = _Insert_before->_Prev;

  00132	8b 41 04	 mov	 eax, DWORD PTR [ecx+4]

; 600  :         _Construct_in_place(this->_Ptr->_Next, _Insert_before);

  00135	89 0b		 mov	 DWORD PTR [ebx], ecx

; 601  :         _Construct_in_place(this->_Ptr->_Prev, _Insert_after);

  00137	89 43 04	 mov	 DWORD PTR [ebx+4], eax

; 602  :         const auto _Result    = this->_Ptr;
; 603  :         this->_Ptr            = pointer{};
; 604  :         _Insert_before->_Prev = _Result;

  0013a	89 59 04	 mov	 DWORD PTR [ecx+4], ebx

; 605  :         _Insert_after->_Next  = _Result;

  0013d	89 18		 mov	 DWORD PTR [eax], ebx

; 1018 :         return _Op._Transfer_before(_Where);

  0013f	8b c3		 mov	 eax, ebx

; 1019 :     }

  00141	8b 4d f4	 mov	 ecx, DWORD PTR __$EHRec$[ebp]
  00144	64 89 0d 00 00
	00 00		 mov	 DWORD PTR fs:0, ecx
  0014b	59		 pop	 ecx
  0014c	5f		 pop	 edi
  0014d	5e		 pop	 esi
  0014e	5b		 pop	 ebx
  0014f	8b e5		 mov	 esp, ebp
  00151	5d		 pop	 ebp
  00152	c2 08 00	 ret	 8
$LN123@Emplace:

; 1013 :             _Xlength_error("list too long");

  00155	68 00 00 00 00	 push	 OFFSET ??_C@_0O@NKNMEGII@list?5too?5long@
  0015a	e8 00 00 00 00	 call	 ?_Xlength_error@std@@YAXPBD@Z ; std::_Xlength_error
$LN124@Emplace:
; File C:\Program Files\Microsoft Visual Studio\2022\Community\VC\Tools\MSVC\14.34.31933\include\vector

; 2070 :             _Xlength();

  0015f	e8 00 00 00 00	 call	 ?_Xlength@?$vector@UCDynamicSphereInstance@@V?$allocator@UCDynamicSphereInstance@@@std@@@std@@CAXXZ ; std::vector<CDynamicSphereInstance,std::allocator<CDynamicSphereInstance> >::_Xlength
$LN121@Emplace:
  00164	cc		 int	 3
_TEXT	ENDS
;	COMDAT text$x
text$x	SEGMENT
__unwindfunclet$??$_Emplace@ABUSCollisionPointInstance@CActorInstance@@@?$list@USCollisionPointInstance@CActorInstance@@V?$allocator@USCollisionPointInstance@CActorInstance@@@std@@@std@@QAEPAU?$_List_node@USCollisionPointInstance@CActorInstance@@PAX@1@QAU21@ABUSCollisionPointInstance@CActorInstance@@@Z$1:
  00000	8d 4d e8	 lea	 ecx, DWORD PTR __Op$[ebp]
  00003	e9 00 00 00 00	 jmp	 ??1?$_Alloc_construct_ptr@V?$allocator@U?$_List_node@USCollisionPointInstance@CActorInstance@@PAX@std@@@std@@@std@@QAE@XZ ; std::_Alloc_construct_ptr<std::allocator<std::_List_node<CActorInstance::SCollisionPointInstance,void *> > >::~_Alloc_construct_ptr<std::allocator<std::_List_node<CActorInstance::SCollisionPointInstance,void *> > >
  00008	cc		 int	 3
  00009	cc		 int	 3
  0000a	cc		 int	 3
  0000b	cc		 int	 3
  0000c	cc		 int	 3
__ehhandler$??$_Emplace@ABUSCollisionPointInstance@CActorInstance@@@?$list@USCollisionPointInstance@CActorInstance@@V?$allocator@USCollisionPointInstance@CActorInstance@@@std@@@std@@QAEPAU?$_List_node@USCollisionPointInstance@CActorInstance@@PAX@1@QAU21@ABUSCollisionPointInstance@CActorInstance@@@Z:
  0000d	90		 npad	 1
  0000e	90		 npad	 1
  0000f	8b 54 24 08	 mov	 edx, DWORD PTR [esp+8]
  00013	8d 42 0c	 lea	 eax, DWORD PTR [edx+12]
  00016	8b 4a e4	 mov	 ecx, DWORD PTR [edx-28]
  00019	33 c8		 xor	 ecx, eax
  0001b	e8 00 00 00 00	 call	 @__security_check_cookie@4
  00020	b8 00 00 00 00	 mov	 eax, OFFSET __ehfuncinfo$??$_Emplace@ABUSCollisionPointInstance@CActorInstance@@@?$list@USCollisionPointInstance@CActorInstance@@V?$allocator@USCollisionPointInstance@CActorInstance@@@std@@@std@@QAEPAU?$_List_node@USCollisionPointInstance@CActorInstance@@PAX@1@QAU21@ABUSCollisionPointInstance@CActorInstance@@@Z
  00025	e9 00 00 00 00	 jmp	 ___CxxFrameHandler3
text$x	ENDS
??$_Emplace@ABUSCollisionPointInstance@CActorInstance@@@?$list@USCollisionPointInstance@CActorInstance@@V?$allocator@USCollisionPointInstance@CActorInstance@@@std@@@std@@QAEPAU?$_List_node@USCollisionPointInstance@CActorInstance@@PAX@1@QAU21@ABUSCollisionPointInstance@CActorInstance@@@Z ENDP ; std::list<CActorInstance::SCollisionPointInstance,std::allocator<CActorInstance::SCollisionPointInstance> >::_Emplace<CActorInstance::SCollisionPointInstance const &>
; Function compile flags: /Ogtp
; File C:\Users\flourine\Desktop\Xantios\client-src\Code\GameLib\ActorInstanceAttach.cpp
;	COMDAT ?Vietnam_ConvertWeaponVnum@@YAKK@Z
_TEXT	SEGMENT
_vnum$ = 8						; size = 4
?Vietnam_ConvertWeaponVnum@@YAKK@Z PROC			; Vietnam_ConvertWeaponVnum, COMDAT

; 16   : {

  00000	55		 push	 ebp
  00001	8b ec		 mov	 ebp, esp
  00003	56		 push	 esi

; 17   : 	DWORD base = vnum / 10 * 10;

  00004	8b 75 08	 mov	 esi, DWORD PTR _vnum$[ebp]
  00007	b8 cd cc cc cc	 mov	 eax, -858993459		; cccccccdH
  0000c	f7 e6		 mul	 esi
  0000e	c1 ea 03	 shr	 edx, 3
  00011	8d 0c 92	 lea	 ecx, DWORD PTR [edx+edx*4]
  00014	03 c9		 add	 ecx, ecx

; 18   : 	DWORD rest = vnum % 10;

  00016	2b f1		 sub	 esi, ecx

; 19   : 	switch (base)

  00018	81 f9 0e 01 00
	00		 cmp	 ecx, 270		; 0000010eH
  0001e	0f 87 bc 00 00
	00		 ja	 $LN74@Vietnam_Co
  00024	0f 84 ab 00 00
	00		 je	 $LN29@Vietnam_Co
  0002a	8d 41 f6	 lea	 eax, DWORD PTR [ecx-10]
  0002d	3d fa 00 00 00	 cmp	 eax, 250		; 000000faH
  00032	0f 87 d7 00 00
	00		 ja	 $LN2@Vietnam_Co
  00038	0f b6 80 00 00
	00 00		 movzx	 eax, BYTE PTR $LN77@Vietnam_Co[eax]
  0003f	ff 24 85 00 00
	00 00		 jmp	 DWORD PTR $LN78@Vietnam_Co[eax*4]
$LN4@Vietnam_Co:

; 20   : 	{
; 21   : 	case  10:
; 22   : 		base = 5000;
; 23   : 		break;
; 24   : 	case  20:
; 25   : 		base = 5010;
; 26   : 		break;
; 27   : 	case  30:
; 28   : 		base = 5020;
; 29   : 		break;
; 30   : 	case  40:
; 31   : 		base = 5030;
; 32   : 		break;
; 33   : 	case  50:
; 34   : 		base = 5030;
; 35   : 		break;
; 36   : 	case  60:
; 37   : 		base = 5040;
; 38   : 		break;
; 39   : 	case  70:
; 40   : 		base = 5040;
; 41   : 		break;
; 42   : 	case  80:
; 43   : 		base = 5050;
; 44   : 		break;
; 45   : 	case  90:
; 46   : 		base = 5050;
; 47   : 		break;
; 48   : 	case 100:
; 49   : 		base = 5060;
; 50   : 		break;
; 51   : 	case 110:
; 52   : 		base = 5060;
; 53   : 		break;
; 54   : 	case 120:
; 55   : 		base = 5070;
; 56   : 		break;
; 57   : 	case 130:
; 58   : 		base = 5070;
; 59   : 		break;
; 60   : 	case 140:
; 61   : 		base = 5080;
; 62   : 		break;
; 63   : 	case 150:
; 64   : 		base = 5080;
; 65   : 		break;
; 66   : 	case 160:
; 67   : 		base = 5090;
; 68   : 		break;
; 69   : 	case 170:
; 70   : 		base = 5090;
; 71   : 		break;
; 72   : 	case 180:
; 73   : 		base = 5100;
; 74   : 		break;
; 75   : 	case 190:
; 76   : 		base = 5100;
; 77   : 		break;
; 78   : 	case 200:
; 79   : 		base = 5110;
; 80   : 		break;
; 81   : 	case 210:
; 82   : 		base = 5110;
; 83   : 		break;
; 84   : 	case 220:
; 85   : 		base = 5120;
; 86   : 		break;
; 87   : 	case 230:
; 88   : 		base = 5120;
; 89   : 		break;
; 90   : 	case 240:
; 91   : 		base = 5130;
; 92   : 		break;
; 93   : 	case 250:
; 94   : 		base = 5130;
; 95   : 		break;
; 96   : 	case 260:
; 97   : 		base = 5140;
; 98   : 		break;
; 99   : 	case 270:
; 100  : 		base = 5140;
; 101  : 		break;
; 102  : 	case 280:
; 103  : 		base = 5150;
; 104  : 		break;
; 105  : 	case 290:
; 106  : 		base = 5150;
; 107  : 		break;
; 108  : 	case 1000:
; 109  : 		base = 5000;
; 110  : 		break;
; 111  : 	case 1010:
; 112  : 		base = 5010;
; 113  : 		break;
; 114  : 	case 1020:
; 115  : 		base = 5020;
; 116  : 		break;
; 117  : 	case 1030:
; 118  : 		base = 5030;
; 119  : 		break;
; 120  : 	case 1040:
; 121  : 		base = 5040;
; 122  : 		break;
; 123  : 	case 1050:
; 124  : 		base = 5050;
; 125  : 		break;
; 126  : 	case 1060:
; 127  : 		base = 5060;
; 128  : 		break;
; 129  : 	case 1070:
; 130  : 		base = 5070;
; 131  : 		break;
; 132  : 	case 1080:
; 133  : 		base = 5080;
; 134  : 		break;
; 135  : 	case 1090:
; 136  : 		base = 5090;
; 137  : 		break;
; 138  : 	case 1100:
; 139  : 		base = 5100;
; 140  : 		break;
; 141  : 	case 1110:
; 142  : 		base = 5110;
; 143  : 		break;
; 144  : 	case 1120:
; 145  : 		base = 5120;
; 146  : 		break;
; 147  : 	case 1130:
; 148  : 		base = 5130;
; 149  : 		break;
; 150  : 	case 1140:
; 151  : 		base = 5140;
; 152  : 		break;
; 153  : 	case 1150:
; 154  : 		base = 5150;
; 155  : 		break;
; 156  : 	case 1160:
; 157  : 		base = 5150;
; 158  : 		break;
; 159  : 	case 1170:
; 160  : 		base = 5150;
; 161  : 		break;
; 162  : 	case 3000:
; 163  : 		base = 5000;
; 164  : 		break;
; 165  : 	case 3010:
; 166  : 		base = 5010;
; 167  : 		break;
; 168  : 	case 3020:
; 169  : 		base = 5020;
; 170  : 		break;
; 171  : 	case 3030:
; 172  : 		base = 5030;
; 173  : 		break;
; 174  : 	case 3040:
; 175  : 		base = 5040;
; 176  : 		break;
; 177  : 	case 3050:
; 178  : 		base = 5050;
; 179  : 		break;
; 180  : 	case 3060:
; 181  : 		base = 5060;
; 182  : 		break;
; 183  : 	case 3070:
; 184  : 		base = 5070;
; 185  : 		break;
; 186  : 	case 3080:
; 187  : 		base = 5080;
; 188  : 		break;
; 189  : 	case 3090:
; 190  : 		base = 5090;
; 191  : 		break;
; 192  : 	case 3100:
; 193  : 		base = 5100;
; 194  : 		break;
; 195  : 	case 3110:
; 196  : 		base = 5100;
; 197  : 		break;
; 198  : 	case 3120:
; 199  : 		base = 5110;
; 200  : 		break;
; 201  : 	case 3130:
; 202  : 		base = 5110;
; 203  : 		break;
; 204  : 	case 3140:
; 205  : 		base = 5120;
; 206  : 		break;
; 207  : 	case 3150:
; 208  : 		base = 5120;
; 209  : 		break;
; 210  : 	case 3160:
; 211  : 		base = 5130;
; 212  : 		break;
; 213  : 	case 3170:
; 214  : 		base = 5130;
; 215  : 		break;
; 216  : 	case 3180:
; 217  : 		base = 5140;
; 218  : 		break;
; 219  : 	case 3190:
; 220  : 		base = 5140;
; 221  : 		break;
; 222  : 	case 3200:
; 223  : 		base = 5150;
; 224  : 		break;
; 225  : 	case 3210:
; 226  : 		base = 5150;
; 227  : 		break;
; 228  : 	}
; 229  : 	return base + rest;

  00046	b9 88 13 00 00	 mov	 ecx, 5000		; 00001388H
  0004b	8d 04 0e	 lea	 eax, DWORD PTR [esi+ecx]
  0004e	5e		 pop	 esi

; 230  : }

  0004f	5d		 pop	 ebp
  00050	c3		 ret	 0
$LN6@Vietnam_Co:

; 20   : 	{
; 21   : 	case  10:
; 22   : 		base = 5000;
; 23   : 		break;
; 24   : 	case  20:
; 25   : 		base = 5010;
; 26   : 		break;
; 27   : 	case  30:
; 28   : 		base = 5020;
; 29   : 		break;
; 30   : 	case  40:
; 31   : 		base = 5030;
; 32   : 		break;
; 33   : 	case  50:
; 34   : 		base = 5030;
; 35   : 		break;
; 36   : 	case  60:
; 37   : 		base = 5040;
; 38   : 		break;
; 39   : 	case  70:
; 40   : 		base = 5040;
; 41   : 		break;
; 42   : 	case  80:
; 43   : 		base = 5050;
; 44   : 		break;
; 45   : 	case  90:
; 46   : 		base = 5050;
; 47   : 		break;
; 48   : 	case 100:
; 49   : 		base = 5060;
; 50   : 		break;
; 51   : 	case 110:
; 52   : 		base = 5060;
; 53   : 		break;
; 54   : 	case 120:
; 55   : 		base = 5070;
; 56   : 		break;
; 57   : 	case 130:
; 58   : 		base = 5070;
; 59   : 		break;
; 60   : 	case 140:
; 61   : 		base = 5080;
; 62   : 		break;
; 63   : 	case 150:
; 64   : 		base = 5080;
; 65   : 		break;
; 66   : 	case 160:
; 67   : 		base = 5090;
; 68   : 		break;
; 69   : 	case 170:
; 70   : 		base = 5090;
; 71   : 		break;
; 72   : 	case 180:
; 73   : 		base = 5100;
; 74   : 		break;
; 75   : 	case 190:
; 76   : 		base = 5100;
; 77   : 		break;
; 78   : 	case 200:
; 79   : 		base = 5110;
; 80   : 		break;
; 81   : 	case 210:
; 82   : 		base = 5110;
; 83   : 		break;
; 84   : 	case 220:
; 85   : 		base = 5120;
; 86   : 		break;
; 87   : 	case 230:
; 88   : 		base = 5120;
; 89   : 		break;
; 90   : 	case 240:
; 91   : 		base = 5130;
; 92   : 		break;
; 93   : 	case 250:
; 94   : 		base = 5130;
; 95   : 		break;
; 96   : 	case 260:
; 97   : 		base = 5140;
; 98   : 		break;
; 99   : 	case 270:
; 100  : 		base = 5140;
; 101  : 		break;
; 102  : 	case 280:
; 103  : 		base = 5150;
; 104  : 		break;
; 105  : 	case 290:
; 106  : 		base = 5150;
; 107  : 		break;
; 108  : 	case 1000:
; 109  : 		base = 5000;
; 110  : 		break;
; 111  : 	case 1010:
; 112  : 		base = 5010;
; 113  : 		break;
; 114  : 	case 1020:
; 115  : 		base = 5020;
; 116  : 		break;
; 117  : 	case 1030:
; 118  : 		base = 5030;
; 119  : 		break;
; 120  : 	case 1040:
; 121  : 		base = 5040;
; 122  : 		break;
; 123  : 	case 1050:
; 124  : 		base = 5050;
; 125  : 		break;
; 126  : 	case 1060:
; 127  : 		base = 5060;
; 128  : 		break;
; 129  : 	case 1070:
; 130  : 		base = 5070;
; 131  : 		break;
; 132  : 	case 1080:
; 133  : 		base = 5080;
; 134  : 		break;
; 135  : 	case 1090:
; 136  : 		base = 5090;
; 137  : 		break;
; 138  : 	case 1100:
; 139  : 		base = 5100;
; 140  : 		break;
; 141  : 	case 1110:
; 142  : 		base = 5110;
; 143  : 		break;
; 144  : 	case 1120:
; 145  : 		base = 5120;
; 146  : 		break;
; 147  : 	case 1130:
; 148  : 		base = 5130;
; 149  : 		break;
; 150  : 	case 1140:
; 151  : 		base = 5140;
; 152  : 		break;
; 153  : 	case 1150:
; 154  : 		base = 5150;
; 155  : 		break;
; 156  : 	case 1160:
; 157  : 		base = 5150;
; 158  : 		break;
; 159  : 	case 1170:
; 160  : 		base = 5150;
; 161  : 		break;
; 162  : 	case 3000:
; 163  : 		base = 5000;
; 164  : 		break;
; 165  : 	case 3010:
; 166  : 		base = 5010;
; 167  : 		break;
; 168  : 	case 3020:
; 169  : 		base = 5020;
; 170  : 		break;
; 171  : 	case 3030:
; 172  : 		base = 5030;
; 173  : 		break;
; 174  : 	case 3040:
; 175  : 		base = 5040;
; 176  : 		break;
; 177  : 	case 3050:
; 178  : 		base = 5050;
; 179  : 		break;
; 180  : 	case 3060:
; 181  : 		base = 5060;
; 182  : 		break;
; 183  : 	case 3070:
; 184  : 		base = 5070;
; 185  : 		break;
; 186  : 	case 3080:
; 187  : 		base = 5080;
; 188  : 		break;
; 189  : 	case 3090:
; 190  : 		base = 5090;
; 191  : 		break;
; 192  : 	case 3100:
; 193  : 		base = 5100;
; 194  : 		break;
; 195  : 	case 3110:
; 196  : 		base = 5100;
; 197  : 		break;
; 198  : 	case 3120:
; 199  : 		base = 5110;
; 200  : 		break;
; 201  : 	case 3130:
; 202  : 		base = 5110;
; 203  : 		break;
; 204  : 	case 3140:
; 205  : 		base = 5120;
; 206  : 		break;
; 207  : 	case 3150:
; 208  : 		base = 5120;
; 209  : 		break;
; 210  : 	case 3160:
; 211  : 		base = 5130;
; 212  : 		break;
; 213  : 	case 3170:
; 214  : 		base = 5130;
; 215  : 		break;
; 216  : 	case 3180:
; 217  : 		base = 5140;
; 218  : 		break;
; 219  : 	case 3190:
; 220  : 		base = 5140;
; 221  : 		break;
; 222  : 	case 3200:
; 223  : 		base = 5150;
; 224  : 		break;
; 225  : 	case 3210:
; 226  : 		base = 5150;
; 227  : 		break;
; 228  : 	}
; 229  : 	return base + rest;

  00051	b9 9c 13 00 00	 mov	 ecx, 5020		; 0000139cH
  00056	8d 04 0e	 lea	 eax, DWORD PTR [esi+ecx]
  00059	5e		 pop	 esi

; 230  : }

  0005a	5d		 pop	 ebp
  0005b	c3		 ret	 0
$LN7@Vietnam_Co:

; 20   : 	{
; 21   : 	case  10:
; 22   : 		base = 5000;
; 23   : 		break;
; 24   : 	case  20:
; 25   : 		base = 5010;
; 26   : 		break;
; 27   : 	case  30:
; 28   : 		base = 5020;
; 29   : 		break;
; 30   : 	case  40:
; 31   : 		base = 5030;
; 32   : 		break;
; 33   : 	case  50:
; 34   : 		base = 5030;
; 35   : 		break;
; 36   : 	case  60:
; 37   : 		base = 5040;
; 38   : 		break;
; 39   : 	case  70:
; 40   : 		base = 5040;
; 41   : 		break;
; 42   : 	case  80:
; 43   : 		base = 5050;
; 44   : 		break;
; 45   : 	case  90:
; 46   : 		base = 5050;
; 47   : 		break;
; 48   : 	case 100:
; 49   : 		base = 5060;
; 50   : 		break;
; 51   : 	case 110:
; 52   : 		base = 5060;
; 53   : 		break;
; 54   : 	case 120:
; 55   : 		base = 5070;
; 56   : 		break;
; 57   : 	case 130:
; 58   : 		base = 5070;
; 59   : 		break;
; 60   : 	case 140:
; 61   : 		base = 5080;
; 62   : 		break;
; 63   : 	case 150:
; 64   : 		base = 5080;
; 65   : 		break;
; 66   : 	case 160:
; 67   : 		base = 5090;
; 68   : 		break;
; 69   : 	case 170:
; 70   : 		base = 5090;
; 71   : 		break;
; 72   : 	case 180:
; 73   : 		base = 5100;
; 74   : 		break;
; 75   : 	case 190:
; 76   : 		base = 5100;
; 77   : 		break;
; 78   : 	case 200:
; 79   : 		base = 5110;
; 80   : 		break;
; 81   : 	case 210:
; 82   : 		base = 5110;
; 83   : 		break;
; 84   : 	case 220:
; 85   : 		base = 5120;
; 86   : 		break;
; 87   : 	case 230:
; 88   : 		base = 5120;
; 89   : 		break;
; 90   : 	case 240:
; 91   : 		base = 5130;
; 92   : 		break;
; 93   : 	case 250:
; 94   : 		base = 5130;
; 95   : 		break;
; 96   : 	case 260:
; 97   : 		base = 5140;
; 98   : 		break;
; 99   : 	case 270:
; 100  : 		base = 5140;
; 101  : 		break;
; 102  : 	case 280:
; 103  : 		base = 5150;
; 104  : 		break;
; 105  : 	case 290:
; 106  : 		base = 5150;
; 107  : 		break;
; 108  : 	case 1000:
; 109  : 		base = 5000;
; 110  : 		break;
; 111  : 	case 1010:
; 112  : 		base = 5010;
; 113  : 		break;
; 114  : 	case 1020:
; 115  : 		base = 5020;
; 116  : 		break;
; 117  : 	case 1030:
; 118  : 		base = 5030;
; 119  : 		break;
; 120  : 	case 1040:
; 121  : 		base = 5040;
; 122  : 		break;
; 123  : 	case 1050:
; 124  : 		base = 5050;
; 125  : 		break;
; 126  : 	case 1060:
; 127  : 		base = 5060;
; 128  : 		break;
; 129  : 	case 1070:
; 130  : 		base = 5070;
; 131  : 		break;
; 132  : 	case 1080:
; 133  : 		base = 5080;
; 134  : 		break;
; 135  : 	case 1090:
; 136  : 		base = 5090;
; 137  : 		break;
; 138  : 	case 1100:
; 139  : 		base = 5100;
; 140  : 		break;
; 141  : 	case 1110:
; 142  : 		base = 5110;
; 143  : 		break;
; 144  : 	case 1120:
; 145  : 		base = 5120;
; 146  : 		break;
; 147  : 	case 1130:
; 148  : 		base = 5130;
; 149  : 		break;
; 150  : 	case 1140:
; 151  : 		base = 5140;
; 152  : 		break;
; 153  : 	case 1150:
; 154  : 		base = 5150;
; 155  : 		break;
; 156  : 	case 1160:
; 157  : 		base = 5150;
; 158  : 		break;
; 159  : 	case 1170:
; 160  : 		base = 5150;
; 161  : 		break;
; 162  : 	case 3000:
; 163  : 		base = 5000;
; 164  : 		break;
; 165  : 	case 3010:
; 166  : 		base = 5010;
; 167  : 		break;
; 168  : 	case 3020:
; 169  : 		base = 5020;
; 170  : 		break;
; 171  : 	case 3030:
; 172  : 		base = 5030;
; 173  : 		break;
; 174  : 	case 3040:
; 175  : 		base = 5040;
; 176  : 		break;
; 177  : 	case 3050:
; 178  : 		base = 5050;
; 179  : 		break;
; 180  : 	case 3060:
; 181  : 		base = 5060;
; 182  : 		break;
; 183  : 	case 3070:
; 184  : 		base = 5070;
; 185  : 		break;
; 186  : 	case 3080:
; 187  : 		base = 5080;
; 188  : 		break;
; 189  : 	case 3090:
; 190  : 		base = 5090;
; 191  : 		break;
; 192  : 	case 3100:
; 193  : 		base = 5100;
; 194  : 		break;
; 195  : 	case 3110:
; 196  : 		base = 5100;
; 197  : 		break;
; 198  : 	case 3120:
; 199  : 		base = 5110;
; 200  : 		break;
; 201  : 	case 3130:
; 202  : 		base = 5110;
; 203  : 		break;
; 204  : 	case 3140:
; 205  : 		base = 5120;
; 206  : 		break;
; 207  : 	case 3150:
; 208  : 		base = 5120;
; 209  : 		break;
; 210  : 	case 3160:
; 211  : 		base = 5130;
; 212  : 		break;
; 213  : 	case 3170:
; 214  : 		base = 5130;
; 215  : 		break;
; 216  : 	case 3180:
; 217  : 		base = 5140;
; 218  : 		break;
; 219  : 	case 3190:
; 220  : 		base = 5140;
; 221  : 		break;
; 222  : 	case 3200:
; 223  : 		base = 5150;
; 224  : 		break;
; 225  : 	case 3210:
; 226  : 		base = 5150;
; 227  : 		break;
; 228  : 	}
; 229  : 	return base + rest;

  0005c	b9 a6 13 00 00	 mov	 ecx, 5030		; 000013a6H
  00061	8d 04 0e	 lea	 eax, DWORD PTR [esi+ecx]
  00064	5e		 pop	 esi

; 230  : }

  00065	5d		 pop	 ebp
  00066	c3		 ret	 0
$LN9@Vietnam_Co:

; 20   : 	{
; 21   : 	case  10:
; 22   : 		base = 5000;
; 23   : 		break;
; 24   : 	case  20:
; 25   : 		base = 5010;
; 26   : 		break;
; 27   : 	case  30:
; 28   : 		base = 5020;
; 29   : 		break;
; 30   : 	case  40:
; 31   : 		base = 5030;
; 32   : 		break;
; 33   : 	case  50:
; 34   : 		base = 5030;
; 35   : 		break;
; 36   : 	case  60:
; 37   : 		base = 5040;
; 38   : 		break;
; 39   : 	case  70:
; 40   : 		base = 5040;
; 41   : 		break;
; 42   : 	case  80:
; 43   : 		base = 5050;
; 44   : 		break;
; 45   : 	case  90:
; 46   : 		base = 5050;
; 47   : 		break;
; 48   : 	case 100:
; 49   : 		base = 5060;
; 50   : 		break;
; 51   : 	case 110:
; 52   : 		base = 5060;
; 53   : 		break;
; 54   : 	case 120:
; 55   : 		base = 5070;
; 56   : 		break;
; 57   : 	case 130:
; 58   : 		base = 5070;
; 59   : 		break;
; 60   : 	case 140:
; 61   : 		base = 5080;
; 62   : 		break;
; 63   : 	case 150:
; 64   : 		base = 5080;
; 65   : 		break;
; 66   : 	case 160:
; 67   : 		base = 5090;
; 68   : 		break;
; 69   : 	case 170:
; 70   : 		base = 5090;
; 71   : 		break;
; 72   : 	case 180:
; 73   : 		base = 5100;
; 74   : 		break;
; 75   : 	case 190:
; 76   : 		base = 5100;
; 77   : 		break;
; 78   : 	case 200:
; 79   : 		base = 5110;
; 80   : 		break;
; 81   : 	case 210:
; 82   : 		base = 5110;
; 83   : 		break;
; 84   : 	case 220:
; 85   : 		base = 5120;
; 86   : 		break;
; 87   : 	case 230:
; 88   : 		base = 5120;
; 89   : 		break;
; 90   : 	case 240:
; 91   : 		base = 5130;
; 92   : 		break;
; 93   : 	case 250:
; 94   : 		base = 5130;
; 95   : 		break;
; 96   : 	case 260:
; 97   : 		base = 5140;
; 98   : 		break;
; 99   : 	case 270:
; 100  : 		base = 5140;
; 101  : 		break;
; 102  : 	case 280:
; 103  : 		base = 5150;
; 104  : 		break;
; 105  : 	case 290:
; 106  : 		base = 5150;
; 107  : 		break;
; 108  : 	case 1000:
; 109  : 		base = 5000;
; 110  : 		break;
; 111  : 	case 1010:
; 112  : 		base = 5010;
; 113  : 		break;
; 114  : 	case 1020:
; 115  : 		base = 5020;
; 116  : 		break;
; 117  : 	case 1030:
; 118  : 		base = 5030;
; 119  : 		break;
; 120  : 	case 1040:
; 121  : 		base = 5040;
; 122  : 		break;
; 123  : 	case 1050:
; 124  : 		base = 5050;
; 125  : 		break;
; 126  : 	case 1060:
; 127  : 		base = 5060;
; 128  : 		break;
; 129  : 	case 1070:
; 130  : 		base = 5070;
; 131  : 		break;
; 132  : 	case 1080:
; 133  : 		base = 5080;
; 134  : 		break;
; 135  : 	case 1090:
; 136  : 		base = 5090;
; 137  : 		break;
; 138  : 	case 1100:
; 139  : 		base = 5100;
; 140  : 		break;
; 141  : 	case 1110:
; 142  : 		base = 5110;
; 143  : 		break;
; 144  : 	case 1120:
; 145  : 		base = 5120;
; 146  : 		break;
; 147  : 	case 1130:
; 148  : 		base = 5130;
; 149  : 		break;
; 150  : 	case 1140:
; 151  : 		base = 5140;
; 152  : 		break;
; 153  : 	case 1150:
; 154  : 		base = 5150;
; 155  : 		break;
; 156  : 	case 1160:
; 157  : 		base = 5150;
; 158  : 		break;
; 159  : 	case 1170:
; 160  : 		base = 5150;
; 161  : 		break;
; 162  : 	case 3000:
; 163  : 		base = 5000;
; 164  : 		break;
; 165  : 	case 3010:
; 166  : 		base = 5010;
; 167  : 		break;
; 168  : 	case 3020:
; 169  : 		base = 5020;
; 170  : 		break;
; 171  : 	case 3030:
; 172  : 		base = 5030;
; 173  : 		break;
; 174  : 	case 3040:
; 175  : 		base = 5040;
; 176  : 		break;
; 177  : 	case 3050:
; 178  : 		base = 5050;
; 179  : 		break;
; 180  : 	case 3060:
; 181  : 		base = 5060;
; 182  : 		break;
; 183  : 	case 3070:
; 184  : 		base = 5070;
; 185  : 		break;
; 186  : 	case 3080:
; 187  : 		base = 5080;
; 188  : 		break;
; 189  : 	case 3090:
; 190  : 		base = 5090;
; 191  : 		break;
; 192  : 	case 3100:
; 193  : 		base = 5100;
; 194  : 		break;
; 195  : 	case 3110:
; 196  : 		base = 5100;
; 197  : 		break;
; 198  : 	case 3120:
; 199  : 		base = 5110;
; 200  : 		break;
; 201  : 	case 3130:
; 202  : 		base = 5110;
; 203  : 		break;
; 204  : 	case 3140:
; 205  : 		base = 5120;
; 206  : 		break;
; 207  : 	case 3150:
; 208  : 		base = 5120;
; 209  : 		break;
; 210  : 	case 3160:
; 211  : 		base = 5130;
; 212  : 		break;
; 213  : 	case 3170:
; 214  : 		base = 5130;
; 215  : 		break;
; 216  : 	case 3180:
; 217  : 		base = 5140;
; 218  : 		break;
; 219  : 	case 3190:
; 220  : 		base = 5140;
; 221  : 		break;
; 222  : 	case 3200:
; 223  : 		base = 5150;
; 224  : 		break;
; 225  : 	case 3210:
; 226  : 		base = 5150;
; 227  : 		break;
; 228  : 	}
; 229  : 	return base + rest;

  00067	b9 b0 13 00 00	 mov	 ecx, 5040		; 000013b0H
  0006c	8d 04 0e	 lea	 eax, DWORD PTR [esi+ecx]
  0006f	5e		 pop	 esi

; 230  : }

  00070	5d		 pop	 ebp
  00071	c3		 ret	 0
$LN11@Vietnam_Co:

; 20   : 	{
; 21   : 	case  10:
; 22   : 		base = 5000;
; 23   : 		break;
; 24   : 	case  20:
; 25   : 		base = 5010;
; 26   : 		break;
; 27   : 	case  30:
; 28   : 		base = 5020;
; 29   : 		break;
; 30   : 	case  40:
; 31   : 		base = 5030;
; 32   : 		break;
; 33   : 	case  50:
; 34   : 		base = 5030;
; 35   : 		break;
; 36   : 	case  60:
; 37   : 		base = 5040;
; 38   : 		break;
; 39   : 	case  70:
; 40   : 		base = 5040;
; 41   : 		break;
; 42   : 	case  80:
; 43   : 		base = 5050;
; 44   : 		break;
; 45   : 	case  90:
; 46   : 		base = 5050;
; 47   : 		break;
; 48   : 	case 100:
; 49   : 		base = 5060;
; 50   : 		break;
; 51   : 	case 110:
; 52   : 		base = 5060;
; 53   : 		break;
; 54   : 	case 120:
; 55   : 		base = 5070;
; 56   : 		break;
; 57   : 	case 130:
; 58   : 		base = 5070;
; 59   : 		break;
; 60   : 	case 140:
; 61   : 		base = 5080;
; 62   : 		break;
; 63   : 	case 150:
; 64   : 		base = 5080;
; 65   : 		break;
; 66   : 	case 160:
; 67   : 		base = 5090;
; 68   : 		break;
; 69   : 	case 170:
; 70   : 		base = 5090;
; 71   : 		break;
; 72   : 	case 180:
; 73   : 		base = 5100;
; 74   : 		break;
; 75   : 	case 190:
; 76   : 		base = 5100;
; 77   : 		break;
; 78   : 	case 200:
; 79   : 		base = 5110;
; 80   : 		break;
; 81   : 	case 210:
; 82   : 		base = 5110;
; 83   : 		break;
; 84   : 	case 220:
; 85   : 		base = 5120;
; 86   : 		break;
; 87   : 	case 230:
; 88   : 		base = 5120;
; 89   : 		break;
; 90   : 	case 240:
; 91   : 		base = 5130;
; 92   : 		break;
; 93   : 	case 250:
; 94   : 		base = 5130;
; 95   : 		break;
; 96   : 	case 260:
; 97   : 		base = 5140;
; 98   : 		break;
; 99   : 	case 270:
; 100  : 		base = 5140;
; 101  : 		break;
; 102  : 	case 280:
; 103  : 		base = 5150;
; 104  : 		break;
; 105  : 	case 290:
; 106  : 		base = 5150;
; 107  : 		break;
; 108  : 	case 1000:
; 109  : 		base = 5000;
; 110  : 		break;
; 111  : 	case 1010:
; 112  : 		base = 5010;
; 113  : 		break;
; 114  : 	case 1020:
; 115  : 		base = 5020;
; 116  : 		break;
; 117  : 	case 1030:
; 118  : 		base = 5030;
; 119  : 		break;
; 120  : 	case 1040:
; 121  : 		base = 5040;
; 122  : 		break;
; 123  : 	case 1050:
; 124  : 		base = 5050;
; 125  : 		break;
; 126  : 	case 1060:
; 127  : 		base = 5060;
; 128  : 		break;
; 129  : 	case 1070:
; 130  : 		base = 5070;
; 131  : 		break;
; 132  : 	case 1080:
; 133  : 		base = 5080;
; 134  : 		break;
; 135  : 	case 1090:
; 136  : 		base = 5090;
; 137  : 		break;
; 138  : 	case 1100:
; 139  : 		base = 5100;
; 140  : 		break;
; 141  : 	case 1110:
; 142  : 		base = 5110;
; 143  : 		break;
; 144  : 	case 1120:
; 145  : 		base = 5120;
; 146  : 		break;
; 147  : 	case 1130:
; 148  : 		base = 5130;
; 149  : 		break;
; 150  : 	case 1140:
; 151  : 		base = 5140;
; 152  : 		break;
; 153  : 	case 1150:
; 154  : 		base = 5150;
; 155  : 		break;
; 156  : 	case 1160:
; 157  : 		base = 5150;
; 158  : 		break;
; 159  : 	case 1170:
; 160  : 		base = 5150;
; 161  : 		break;
; 162  : 	case 3000:
; 163  : 		base = 5000;
; 164  : 		break;
; 165  : 	case 3010:
; 166  : 		base = 5010;
; 167  : 		break;
; 168  : 	case 3020:
; 169  : 		base = 5020;
; 170  : 		break;
; 171  : 	case 3030:
; 172  : 		base = 5030;
; 173  : 		break;
; 174  : 	case 3040:
; 175  : 		base = 5040;
; 176  : 		break;
; 177  : 	case 3050:
; 178  : 		base = 5050;
; 179  : 		break;
; 180  : 	case 3060:
; 181  : 		base = 5060;
; 182  : 		break;
; 183  : 	case 3070:
; 184  : 		base = 5070;
; 185  : 		break;
; 186  : 	case 3080:
; 187  : 		base = 5080;
; 188  : 		break;
; 189  : 	case 3090:
; 190  : 		base = 5090;
; 191  : 		break;
; 192  : 	case 3100:
; 193  : 		base = 5100;
; 194  : 		break;
; 195  : 	case 3110:
; 196  : 		base = 5100;
; 197  : 		break;
; 198  : 	case 3120:
; 199  : 		base = 5110;
; 200  : 		break;
; 201  : 	case 3130:
; 202  : 		base = 5110;
; 203  : 		break;
; 204  : 	case 3140:
; 205  : 		base = 5120;
; 206  : 		break;
; 207  : 	case 3150:
; 208  : 		base = 5120;
; 209  : 		break;
; 210  : 	case 3160:
; 211  : 		base = 5130;
; 212  : 		break;
; 213  : 	case 3170:
; 214  : 		base = 5130;
; 215  : 		break;
; 216  : 	case 3180:
; 217  : 		base = 5140;
; 218  : 		break;
; 219  : 	case 3190:
; 220  : 		base = 5140;
; 221  : 		break;
; 222  : 	case 3200:
; 223  : 		base = 5150;
; 224  : 		break;
; 225  : 	case 3210:
; 226  : 		base = 5150;
; 227  : 		break;
; 228  : 	}
; 229  : 	return base + rest;

  00072	b9 ba 13 00 00	 mov	 ecx, 5050		; 000013baH
  00077	8d 04 0e	 lea	 eax, DWORD PTR [esi+ecx]
  0007a	5e		 pop	 esi

; 230  : }

  0007b	5d		 pop	 ebp
  0007c	c3		 ret	 0
$LN13@Vietnam_Co:

; 20   : 	{
; 21   : 	case  10:
; 22   : 		base = 5000;
; 23   : 		break;
; 24   : 	case  20:
; 25   : 		base = 5010;
; 26   : 		break;
; 27   : 	case  30:
; 28   : 		base = 5020;
; 29   : 		break;
; 30   : 	case  40:
; 31   : 		base = 5030;
; 32   : 		break;
; 33   : 	case  50:
; 34   : 		base = 5030;
; 35   : 		break;
; 36   : 	case  60:
; 37   : 		base = 5040;
; 38   : 		break;
; 39   : 	case  70:
; 40   : 		base = 5040;
; 41   : 		break;
; 42   : 	case  80:
; 43   : 		base = 5050;
; 44   : 		break;
; 45   : 	case  90:
; 46   : 		base = 5050;
; 47   : 		break;
; 48   : 	case 100:
; 49   : 		base = 5060;
; 50   : 		break;
; 51   : 	case 110:
; 52   : 		base = 5060;
; 53   : 		break;
; 54   : 	case 120:
; 55   : 		base = 5070;
; 56   : 		break;
; 57   : 	case 130:
; 58   : 		base = 5070;
; 59   : 		break;
; 60   : 	case 140:
; 61   : 		base = 5080;
; 62   : 		break;
; 63   : 	case 150:
; 64   : 		base = 5080;
; 65   : 		break;
; 66   : 	case 160:
; 67   : 		base = 5090;
; 68   : 		break;
; 69   : 	case 170:
; 70   : 		base = 5090;
; 71   : 		break;
; 72   : 	case 180:
; 73   : 		base = 5100;
; 74   : 		break;
; 75   : 	case 190:
; 76   : 		base = 5100;
; 77   : 		break;
; 78   : 	case 200:
; 79   : 		base = 5110;
; 80   : 		break;
; 81   : 	case 210:
; 82   : 		base = 5110;
; 83   : 		break;
; 84   : 	case 220:
; 85   : 		base = 5120;
; 86   : 		break;
; 87   : 	case 230:
; 88   : 		base = 5120;
; 89   : 		break;
; 90   : 	case 240:
; 91   : 		base = 5130;
; 92   : 		break;
; 93   : 	case 250:
; 94   : 		base = 5130;
; 95   : 		break;
; 96   : 	case 260:
; 97   : 		base = 5140;
; 98   : 		break;
; 99   : 	case 270:
; 100  : 		base = 5140;
; 101  : 		break;
; 102  : 	case 280:
; 103  : 		base = 5150;
; 104  : 		break;
; 105  : 	case 290:
; 106  : 		base = 5150;
; 107  : 		break;
; 108  : 	case 1000:
; 109  : 		base = 5000;
; 110  : 		break;
; 111  : 	case 1010:
; 112  : 		base = 5010;
; 113  : 		break;
; 114  : 	case 1020:
; 115  : 		base = 5020;
; 116  : 		break;
; 117  : 	case 1030:
; 118  : 		base = 5030;
; 119  : 		break;
; 120  : 	case 1040:
; 121  : 		base = 5040;
; 122  : 		break;
; 123  : 	case 1050:
; 124  : 		base = 5050;
; 125  : 		break;
; 126  : 	case 1060:
; 127  : 		base = 5060;
; 128  : 		break;
; 129  : 	case 1070:
; 130  : 		base = 5070;
; 131  : 		break;
; 132  : 	case 1080:
; 133  : 		base = 5080;
; 134  : 		break;
; 135  : 	case 1090:
; 136  : 		base = 5090;
; 137  : 		break;
; 138  : 	case 1100:
; 139  : 		base = 5100;
; 140  : 		break;
; 141  : 	case 1110:
; 142  : 		base = 5110;
; 143  : 		break;
; 144  : 	case 1120:
; 145  : 		base = 5120;
; 146  : 		break;
; 147  : 	case 1130:
; 148  : 		base = 5130;
; 149  : 		break;
; 150  : 	case 1140:
; 151  : 		base = 5140;
; 152  : 		break;
; 153  : 	case 1150:
; 154  : 		base = 5150;
; 155  : 		break;
; 156  : 	case 1160:
; 157  : 		base = 5150;
; 158  : 		break;
; 159  : 	case 1170:
; 160  : 		base = 5150;
; 161  : 		break;
; 162  : 	case 3000:
; 163  : 		base = 5000;
; 164  : 		break;
; 165  : 	case 3010:
; 166  : 		base = 5010;
; 167  : 		break;
; 168  : 	case 3020:
; 169  : 		base = 5020;
; 170  : 		break;
; 171  : 	case 3030:
; 172  : 		base = 5030;
; 173  : 		break;
; 174  : 	case 3040:
; 175  : 		base = 5040;
; 176  : 		break;
; 177  : 	case 3050:
; 178  : 		base = 5050;
; 179  : 		break;
; 180  : 	case 3060:
; 181  : 		base = 5060;
; 182  : 		break;
; 183  : 	case 3070:
; 184  : 		base = 5070;
; 185  : 		break;
; 186  : 	case 3080:
; 187  : 		base = 5080;
; 188  : 		break;
; 189  : 	case 3090:
; 190  : 		base = 5090;
; 191  : 		break;
; 192  : 	case 3100:
; 193  : 		base = 5100;
; 194  : 		break;
; 195  : 	case 3110:
; 196  : 		base = 5100;
; 197  : 		break;
; 198  : 	case 3120:
; 199  : 		base = 5110;
; 200  : 		break;
; 201  : 	case 3130:
; 202  : 		base = 5110;
; 203  : 		break;
; 204  : 	case 3140:
; 205  : 		base = 5120;
; 206  : 		break;
; 207  : 	case 3150:
; 208  : 		base = 5120;
; 209  : 		break;
; 210  : 	case 3160:
; 211  : 		base = 5130;
; 212  : 		break;
; 213  : 	case 3170:
; 214  : 		base = 5130;
; 215  : 		break;
; 216  : 	case 3180:
; 217  : 		base = 5140;
; 218  : 		break;
; 219  : 	case 3190:
; 220  : 		base = 5140;
; 221  : 		break;
; 222  : 	case 3200:
; 223  : 		base = 5150;
; 224  : 		break;
; 225  : 	case 3210:
; 226  : 		base = 5150;
; 227  : 		break;
; 228  : 	}
; 229  : 	return base + rest;

  0007d	b9 c4 13 00 00	 mov	 ecx, 5060		; 000013c4H
  00082	8d 04 0e	 lea	 eax, DWORD PTR [esi+ecx]
  00085	5e		 pop	 esi

; 230  : }

  00086	5d		 pop	 ebp
  00087	c3		 ret	 0
$LN15@Vietnam_Co:

; 20   : 	{
; 21   : 	case  10:
; 22   : 		base = 5000;
; 23   : 		break;
; 24   : 	case  20:
; 25   : 		base = 5010;
; 26   : 		break;
; 27   : 	case  30:
; 28   : 		base = 5020;
; 29   : 		break;
; 30   : 	case  40:
; 31   : 		base = 5030;
; 32   : 		break;
; 33   : 	case  50:
; 34   : 		base = 5030;
; 35   : 		break;
; 36   : 	case  60:
; 37   : 		base = 5040;
; 38   : 		break;
; 39   : 	case  70:
; 40   : 		base = 5040;
; 41   : 		break;
; 42   : 	case  80:
; 43   : 		base = 5050;
; 44   : 		break;
; 45   : 	case  90:
; 46   : 		base = 5050;
; 47   : 		break;
; 48   : 	case 100:
; 49   : 		base = 5060;
; 50   : 		break;
; 51   : 	case 110:
; 52   : 		base = 5060;
; 53   : 		break;
; 54   : 	case 120:
; 55   : 		base = 5070;
; 56   : 		break;
; 57   : 	case 130:
; 58   : 		base = 5070;
; 59   : 		break;
; 60   : 	case 140:
; 61   : 		base = 5080;
; 62   : 		break;
; 63   : 	case 150:
; 64   : 		base = 5080;
; 65   : 		break;
; 66   : 	case 160:
; 67   : 		base = 5090;
; 68   : 		break;
; 69   : 	case 170:
; 70   : 		base = 5090;
; 71   : 		break;
; 72   : 	case 180:
; 73   : 		base = 5100;
; 74   : 		break;
; 75   : 	case 190:
; 76   : 		base = 5100;
; 77   : 		break;
; 78   : 	case 200:
; 79   : 		base = 5110;
; 80   : 		break;
; 81   : 	case 210:
; 82   : 		base = 5110;
; 83   : 		break;
; 84   : 	case 220:
; 85   : 		base = 5120;
; 86   : 		break;
; 87   : 	case 230:
; 88   : 		base = 5120;
; 89   : 		break;
; 90   : 	case 240:
; 91   : 		base = 5130;
; 92   : 		break;
; 93   : 	case 250:
; 94   : 		base = 5130;
; 95   : 		break;
; 96   : 	case 260:
; 97   : 		base = 5140;
; 98   : 		break;
; 99   : 	case 270:
; 100  : 		base = 5140;
; 101  : 		break;
; 102  : 	case 280:
; 103  : 		base = 5150;
; 104  : 		break;
; 105  : 	case 290:
; 106  : 		base = 5150;
; 107  : 		break;
; 108  : 	case 1000:
; 109  : 		base = 5000;
; 110  : 		break;
; 111  : 	case 1010:
; 112  : 		base = 5010;
; 113  : 		break;
; 114  : 	case 1020:
; 115  : 		base = 5020;
; 116  : 		break;
; 117  : 	case 1030:
; 118  : 		base = 5030;
; 119  : 		break;
; 120  : 	case 1040:
; 121  : 		base = 5040;
; 122  : 		break;
; 123  : 	case 1050:
; 124  : 		base = 5050;
; 125  : 		break;
; 126  : 	case 1060:
; 127  : 		base = 5060;
; 128  : 		break;
; 129  : 	case 1070:
; 130  : 		base = 5070;
; 131  : 		break;
; 132  : 	case 1080:
; 133  : 		base = 5080;
; 134  : 		break;
; 135  : 	case 1090:
; 136  : 		base = 5090;
; 137  : 		break;
; 138  : 	case 1100:
; 139  : 		base = 5100;
; 140  : 		break;
; 141  : 	case 1110:
; 142  : 		base = 5110;
; 143  : 		break;
; 144  : 	case 1120:
; 145  : 		base = 5120;
; 146  : 		break;
; 147  : 	case 1130:
; 148  : 		base = 5130;
; 149  : 		break;
; 150  : 	case 1140:
; 151  : 		base = 5140;
; 152  : 		break;
; 153  : 	case 1150:
; 154  : 		base = 5150;
; 155  : 		break;
; 156  : 	case 1160:
; 157  : 		base = 5150;
; 158  : 		break;
; 159  : 	case 1170:
; 160  : 		base = 5150;
; 161  : 		break;
; 162  : 	case 3000:
; 163  : 		base = 5000;
; 164  : 		break;
; 165  : 	case 3010:
; 166  : 		base = 5010;
; 167  : 		break;
; 168  : 	case 3020:
; 169  : 		base = 5020;
; 170  : 		break;
; 171  : 	case 3030:
; 172  : 		base = 5030;
; 173  : 		break;
; 174  : 	case 3040:
; 175  : 		base = 5040;
; 176  : 		break;
; 177  : 	case 3050:
; 178  : 		base = 5050;
; 179  : 		break;
; 180  : 	case 3060:
; 181  : 		base = 5060;
; 182  : 		break;
; 183  : 	case 3070:
; 184  : 		base = 5070;
; 185  : 		break;
; 186  : 	case 3080:
; 187  : 		base = 5080;
; 188  : 		break;
; 189  : 	case 3090:
; 190  : 		base = 5090;
; 191  : 		break;
; 192  : 	case 3100:
; 193  : 		base = 5100;
; 194  : 		break;
; 195  : 	case 3110:
; 196  : 		base = 5100;
; 197  : 		break;
; 198  : 	case 3120:
; 199  : 		base = 5110;
; 200  : 		break;
; 201  : 	case 3130:
; 202  : 		base = 5110;
; 203  : 		break;
; 204  : 	case 3140:
; 205  : 		base = 5120;
; 206  : 		break;
; 207  : 	case 3150:
; 208  : 		base = 5120;
; 209  : 		break;
; 210  : 	case 3160:
; 211  : 		base = 5130;
; 212  : 		break;
; 213  : 	case 3170:
; 214  : 		base = 5130;
; 215  : 		break;
; 216  : 	case 3180:
; 217  : 		base = 5140;
; 218  : 		break;
; 219  : 	case 3190:
; 220  : 		base = 5140;
; 221  : 		break;
; 222  : 	case 3200:
; 223  : 		base = 5150;
; 224  : 		break;
; 225  : 	case 3210:
; 226  : 		base = 5150;
; 227  : 		break;
; 228  : 	}
; 229  : 	return base + rest;

  00088	b9 ce 13 00 00	 mov	 ecx, 5070		; 000013ceH
  0008d	8d 04 0e	 lea	 eax, DWORD PTR [esi+ecx]
  00090	5e		 pop	 esi

; 230  : }

  00091	5d		 pop	 ebp
  00092	c3		 ret	 0
$LN17@Vietnam_Co:

; 20   : 	{
; 21   : 	case  10:
; 22   : 		base = 5000;
; 23   : 		break;
; 24   : 	case  20:
; 25   : 		base = 5010;
; 26   : 		break;
; 27   : 	case  30:
; 28   : 		base = 5020;
; 29   : 		break;
; 30   : 	case  40:
; 31   : 		base = 5030;
; 32   : 		break;
; 33   : 	case  50:
; 34   : 		base = 5030;
; 35   : 		break;
; 36   : 	case  60:
; 37   : 		base = 5040;
; 38   : 		break;
; 39   : 	case  70:
; 40   : 		base = 5040;
; 41   : 		break;
; 42   : 	case  80:
; 43   : 		base = 5050;
; 44   : 		break;
; 45   : 	case  90:
; 46   : 		base = 5050;
; 47   : 		break;
; 48   : 	case 100:
; 49   : 		base = 5060;
; 50   : 		break;
; 51   : 	case 110:
; 52   : 		base = 5060;
; 53   : 		break;
; 54   : 	case 120:
; 55   : 		base = 5070;
; 56   : 		break;
; 57   : 	case 130:
; 58   : 		base = 5070;
; 59   : 		break;
; 60   : 	case 140:
; 61   : 		base = 5080;
; 62   : 		break;
; 63   : 	case 150:
; 64   : 		base = 5080;
; 65   : 		break;
; 66   : 	case 160:
; 67   : 		base = 5090;
; 68   : 		break;
; 69   : 	case 170:
; 70   : 		base = 5090;
; 71   : 		break;
; 72   : 	case 180:
; 73   : 		base = 5100;
; 74   : 		break;
; 75   : 	case 190:
; 76   : 		base = 5100;
; 77   : 		break;
; 78   : 	case 200:
; 79   : 		base = 5110;
; 80   : 		break;
; 81   : 	case 210:
; 82   : 		base = 5110;
; 83   : 		break;
; 84   : 	case 220:
; 85   : 		base = 5120;
; 86   : 		break;
; 87   : 	case 230:
; 88   : 		base = 5120;
; 89   : 		break;
; 90   : 	case 240:
; 91   : 		base = 5130;
; 92   : 		break;
; 93   : 	case 250:
; 94   : 		base = 5130;
; 95   : 		break;
; 96   : 	case 260:
; 97   : 		base = 5140;
; 98   : 		break;
; 99   : 	case 270:
; 100  : 		base = 5140;
; 101  : 		break;
; 102  : 	case 280:
; 103  : 		base = 5150;
; 104  : 		break;
; 105  : 	case 290:
; 106  : 		base = 5150;
; 107  : 		break;
; 108  : 	case 1000:
; 109  : 		base = 5000;
; 110  : 		break;
; 111  : 	case 1010:
; 112  : 		base = 5010;
; 113  : 		break;
; 114  : 	case 1020:
; 115  : 		base = 5020;
; 116  : 		break;
; 117  : 	case 1030:
; 118  : 		base = 5030;
; 119  : 		break;
; 120  : 	case 1040:
; 121  : 		base = 5040;
; 122  : 		break;
; 123  : 	case 1050:
; 124  : 		base = 5050;
; 125  : 		break;
; 126  : 	case 1060:
; 127  : 		base = 5060;
; 128  : 		break;
; 129  : 	case 1070:
; 130  : 		base = 5070;
; 131  : 		break;
; 132  : 	case 1080:
; 133  : 		base = 5080;
; 134  : 		break;
; 135  : 	case 1090:
; 136  : 		base = 5090;
; 137  : 		break;
; 138  : 	case 1100:
; 139  : 		base = 5100;
; 140  : 		break;
; 141  : 	case 1110:
; 142  : 		base = 5110;
; 143  : 		break;
; 144  : 	case 1120:
; 145  : 		base = 5120;
; 146  : 		break;
; 147  : 	case 1130:
; 148  : 		base = 5130;
; 149  : 		break;
; 150  : 	case 1140:
; 151  : 		base = 5140;
; 152  : 		break;
; 153  : 	case 1150:
; 154  : 		base = 5150;
; 155  : 		break;
; 156  : 	case 1160:
; 157  : 		base = 5150;
; 158  : 		break;
; 159  : 	case 1170:
; 160  : 		base = 5150;
; 161  : 		break;
; 162  : 	case 3000:
; 163  : 		base = 5000;
; 164  : 		break;
; 165  : 	case 3010:
; 166  : 		base = 5010;
; 167  : 		break;
; 168  : 	case 3020:
; 169  : 		base = 5020;
; 170  : 		break;
; 171  : 	case 3030:
; 172  : 		base = 5030;
; 173  : 		break;
; 174  : 	case 3040:
; 175  : 		base = 5040;
; 176  : 		break;
; 177  : 	case 3050:
; 178  : 		base = 5050;
; 179  : 		break;
; 180  : 	case 3060:
; 181  : 		base = 5060;
; 182  : 		break;
; 183  : 	case 3070:
; 184  : 		base = 5070;
; 185  : 		break;
; 186  : 	case 3080:
; 187  : 		base = 5080;
; 188  : 		break;
; 189  : 	case 3090:
; 190  : 		base = 5090;
; 191  : 		break;
; 192  : 	case 3100:
; 193  : 		base = 5100;
; 194  : 		break;
; 195  : 	case 3110:
; 196  : 		base = 5100;
; 197  : 		break;
; 198  : 	case 3120:
; 199  : 		base = 5110;
; 200  : 		break;
; 201  : 	case 3130:
; 202  : 		base = 5110;
; 203  : 		break;
; 204  : 	case 3140:
; 205  : 		base = 5120;
; 206  : 		break;
; 207  : 	case 3150:
; 208  : 		base = 5120;
; 209  : 		break;
; 210  : 	case 3160:
; 211  : 		base = 5130;
; 212  : 		break;
; 213  : 	case 3170:
; 214  : 		base = 5130;
; 215  : 		break;
; 216  : 	case 3180:
; 217  : 		base = 5140;
; 218  : 		break;
; 219  : 	case 3190:
; 220  : 		base = 5140;
; 221  : 		break;
; 222  : 	case 3200:
; 223  : 		base = 5150;
; 224  : 		break;
; 225  : 	case 3210:
; 226  : 		base = 5150;
; 227  : 		break;
; 228  : 	}
; 229  : 	return base + rest;

  00093	b9 d8 13 00 00	 mov	 ecx, 5080		; 000013d8H
  00098	8d 04 0e	 lea	 eax, DWORD PTR [esi+ecx]
  0009b	5e		 pop	 esi

; 230  : }

  0009c	5d		 pop	 ebp
  0009d	c3		 ret	 0
$LN19@Vietnam_Co:

; 20   : 	{
; 21   : 	case  10:
; 22   : 		base = 5000;
; 23   : 		break;
; 24   : 	case  20:
; 25   : 		base = 5010;
; 26   : 		break;
; 27   : 	case  30:
; 28   : 		base = 5020;
; 29   : 		break;
; 30   : 	case  40:
; 31   : 		base = 5030;
; 32   : 		break;
; 33   : 	case  50:
; 34   : 		base = 5030;
; 35   : 		break;
; 36   : 	case  60:
; 37   : 		base = 5040;
; 38   : 		break;
; 39   : 	case  70:
; 40   : 		base = 5040;
; 41   : 		break;
; 42   : 	case  80:
; 43   : 		base = 5050;
; 44   : 		break;
; 45   : 	case  90:
; 46   : 		base = 5050;
; 47   : 		break;
; 48   : 	case 100:
; 49   : 		base = 5060;
; 50   : 		break;
; 51   : 	case 110:
; 52   : 		base = 5060;
; 53   : 		break;
; 54   : 	case 120:
; 55   : 		base = 5070;
; 56   : 		break;
; 57   : 	case 130:
; 58   : 		base = 5070;
; 59   : 		break;
; 60   : 	case 140:
; 61   : 		base = 5080;
; 62   : 		break;
; 63   : 	case 150:
; 64   : 		base = 5080;
; 65   : 		break;
; 66   : 	case 160:
; 67   : 		base = 5090;
; 68   : 		break;
; 69   : 	case 170:
; 70   : 		base = 5090;
; 71   : 		break;
; 72   : 	case 180:
; 73   : 		base = 5100;
; 74   : 		break;
; 75   : 	case 190:
; 76   : 		base = 5100;
; 77   : 		break;
; 78   : 	case 200:
; 79   : 		base = 5110;
; 80   : 		break;
; 81   : 	case 210:
; 82   : 		base = 5110;
; 83   : 		break;
; 84   : 	case 220:
; 85   : 		base = 5120;
; 86   : 		break;
; 87   : 	case 230:
; 88   : 		base = 5120;
; 89   : 		break;
; 90   : 	case 240:
; 91   : 		base = 5130;
; 92   : 		break;
; 93   : 	case 250:
; 94   : 		base = 5130;
; 95   : 		break;
; 96   : 	case 260:
; 97   : 		base = 5140;
; 98   : 		break;
; 99   : 	case 270:
; 100  : 		base = 5140;
; 101  : 		break;
; 102  : 	case 280:
; 103  : 		base = 5150;
; 104  : 		break;
; 105  : 	case 290:
; 106  : 		base = 5150;
; 107  : 		break;
; 108  : 	case 1000:
; 109  : 		base = 5000;
; 110  : 		break;
; 111  : 	case 1010:
; 112  : 		base = 5010;
; 113  : 		break;
; 114  : 	case 1020:
; 115  : 		base = 5020;
; 116  : 		break;
; 117  : 	case 1030:
; 118  : 		base = 5030;
; 119  : 		break;
; 120  : 	case 1040:
; 121  : 		base = 5040;
; 122  : 		break;
; 123  : 	case 1050:
; 124  : 		base = 5050;
; 125  : 		break;
; 126  : 	case 1060:
; 127  : 		base = 5060;
; 128  : 		break;
; 129  : 	case 1070:
; 130  : 		base = 5070;
; 131  : 		break;
; 132  : 	case 1080:
; 133  : 		base = 5080;
; 134  : 		break;
; 135  : 	case 1090:
; 136  : 		base = 5090;
; 137  : 		break;
; 138  : 	case 1100:
; 139  : 		base = 5100;
; 140  : 		break;
; 141  : 	case 1110:
; 142  : 		base = 5110;
; 143  : 		break;
; 144  : 	case 1120:
; 145  : 		base = 5120;
; 146  : 		break;
; 147  : 	case 1130:
; 148  : 		base = 5130;
; 149  : 		break;
; 150  : 	case 1140:
; 151  : 		base = 5140;
; 152  : 		break;
; 153  : 	case 1150:
; 154  : 		base = 5150;
; 155  : 		break;
; 156  : 	case 1160:
; 157  : 		base = 5150;
; 158  : 		break;
; 159  : 	case 1170:
; 160  : 		base = 5150;
; 161  : 		break;
; 162  : 	case 3000:
; 163  : 		base = 5000;
; 164  : 		break;
; 165  : 	case 3010:
; 166  : 		base = 5010;
; 167  : 		break;
; 168  : 	case 3020:
; 169  : 		base = 5020;
; 170  : 		break;
; 171  : 	case 3030:
; 172  : 		base = 5030;
; 173  : 		break;
; 174  : 	case 3040:
; 175  : 		base = 5040;
; 176  : 		break;
; 177  : 	case 3050:
; 178  : 		base = 5050;
; 179  : 		break;
; 180  : 	case 3060:
; 181  : 		base = 5060;
; 182  : 		break;
; 183  : 	case 3070:
; 184  : 		base = 5070;
; 185  : 		break;
; 186  : 	case 3080:
; 187  : 		base = 5080;
; 188  : 		break;
; 189  : 	case 3090:
; 190  : 		base = 5090;
; 191  : 		break;
; 192  : 	case 3100:
; 193  : 		base = 5100;
; 194  : 		break;
; 195  : 	case 3110:
; 196  : 		base = 5100;
; 197  : 		break;
; 198  : 	case 3120:
; 199  : 		base = 5110;
; 200  : 		break;
; 201  : 	case 3130:
; 202  : 		base = 5110;
; 203  : 		break;
; 204  : 	case 3140:
; 205  : 		base = 5120;
; 206  : 		break;
; 207  : 	case 3150:
; 208  : 		base = 5120;
; 209  : 		break;
; 210  : 	case 3160:
; 211  : 		base = 5130;
; 212  : 		break;
; 213  : 	case 3170:
; 214  : 		base = 5130;
; 215  : 		break;
; 216  : 	case 3180:
; 217  : 		base = 5140;
; 218  : 		break;
; 219  : 	case 3190:
; 220  : 		base = 5140;
; 221  : 		break;
; 222  : 	case 3200:
; 223  : 		base = 5150;
; 224  : 		break;
; 225  : 	case 3210:
; 226  : 		base = 5150;
; 227  : 		break;
; 228  : 	}
; 229  : 	return base + rest;

  0009e	b9 e2 13 00 00	 mov	 ecx, 5090		; 000013e2H
  000a3	8d 04 0e	 lea	 eax, DWORD PTR [esi+ecx]
  000a6	5e		 pop	 esi

; 230  : }

  000a7	5d		 pop	 ebp
  000a8	c3		 ret	 0
$LN21@Vietnam_Co:

; 20   : 	{
; 21   : 	case  10:
; 22   : 		base = 5000;
; 23   : 		break;
; 24   : 	case  20:
; 25   : 		base = 5010;
; 26   : 		break;
; 27   : 	case  30:
; 28   : 		base = 5020;
; 29   : 		break;
; 30   : 	case  40:
; 31   : 		base = 5030;
; 32   : 		break;
; 33   : 	case  50:
; 34   : 		base = 5030;
; 35   : 		break;
; 36   : 	case  60:
; 37   : 		base = 5040;
; 38   : 		break;
; 39   : 	case  70:
; 40   : 		base = 5040;
; 41   : 		break;
; 42   : 	case  80:
; 43   : 		base = 5050;
; 44   : 		break;
; 45   : 	case  90:
; 46   : 		base = 5050;
; 47   : 		break;
; 48   : 	case 100:
; 49   : 		base = 5060;
; 50   : 		break;
; 51   : 	case 110:
; 52   : 		base = 5060;
; 53   : 		break;
; 54   : 	case 120:
; 55   : 		base = 5070;
; 56   : 		break;
; 57   : 	case 130:
; 58   : 		base = 5070;
; 59   : 		break;
; 60   : 	case 140:
; 61   : 		base = 5080;
; 62   : 		break;
; 63   : 	case 150:
; 64   : 		base = 5080;
; 65   : 		break;
; 66   : 	case 160:
; 67   : 		base = 5090;
; 68   : 		break;
; 69   : 	case 170:
; 70   : 		base = 5090;
; 71   : 		break;
; 72   : 	case 180:
; 73   : 		base = 5100;
; 74   : 		break;
; 75   : 	case 190:
; 76   : 		base = 5100;
; 77   : 		break;
; 78   : 	case 200:
; 79   : 		base = 5110;
; 80   : 		break;
; 81   : 	case 210:
; 82   : 		base = 5110;
; 83   : 		break;
; 84   : 	case 220:
; 85   : 		base = 5120;
; 86   : 		break;
; 87   : 	case 230:
; 88   : 		base = 5120;
; 89   : 		break;
; 90   : 	case 240:
; 91   : 		base = 5130;
; 92   : 		break;
; 93   : 	case 250:
; 94   : 		base = 5130;
; 95   : 		break;
; 96   : 	case 260:
; 97   : 		base = 5140;
; 98   : 		break;
; 99   : 	case 270:
; 100  : 		base = 5140;
; 101  : 		break;
; 102  : 	case 280:
; 103  : 		base = 5150;
; 104  : 		break;
; 105  : 	case 290:
; 106  : 		base = 5150;
; 107  : 		break;
; 108  : 	case 1000:
; 109  : 		base = 5000;
; 110  : 		break;
; 111  : 	case 1010:
; 112  : 		base = 5010;
; 113  : 		break;
; 114  : 	case 1020:
; 115  : 		base = 5020;
; 116  : 		break;
; 117  : 	case 1030:
; 118  : 		base = 5030;
; 119  : 		break;
; 120  : 	case 1040:
; 121  : 		base = 5040;
; 122  : 		break;
; 123  : 	case 1050:
; 124  : 		base = 5050;
; 125  : 		break;
; 126  : 	case 1060:
; 127  : 		base = 5060;
; 128  : 		break;
; 129  : 	case 1070:
; 130  : 		base = 5070;
; 131  : 		break;
; 132  : 	case 1080:
; 133  : 		base = 5080;
; 134  : 		break;
; 135  : 	case 1090:
; 136  : 		base = 5090;
; 137  : 		break;
; 138  : 	case 1100:
; 139  : 		base = 5100;
; 140  : 		break;
; 141  : 	case 1110:
; 142  : 		base = 5110;
; 143  : 		break;
; 144  : 	case 1120:
; 145  : 		base = 5120;
; 146  : 		break;
; 147  : 	case 1130:
; 148  : 		base = 5130;
; 149  : 		break;
; 150  : 	case 1140:
; 151  : 		base = 5140;
; 152  : 		break;
; 153  : 	case 1150:
; 154  : 		base = 5150;
; 155  : 		break;
; 156  : 	case 1160:
; 157  : 		base = 5150;
; 158  : 		break;
; 159  : 	case 1170:
; 160  : 		base = 5150;
; 161  : 		break;
; 162  : 	case 3000:
; 163  : 		base = 5000;
; 164  : 		break;
; 165  : 	case 3010:
; 166  : 		base = 5010;
; 167  : 		break;
; 168  : 	case 3020:
; 169  : 		base = 5020;
; 170  : 		break;
; 171  : 	case 3030:
; 172  : 		base = 5030;
; 173  : 		break;
; 174  : 	case 3040:
; 175  : 		base = 5040;
; 176  : 		break;
; 177  : 	case 3050:
; 178  : 		base = 5050;
; 179  : 		break;
; 180  : 	case 3060:
; 181  : 		base = 5060;
; 182  : 		break;
; 183  : 	case 3070:
; 184  : 		base = 5070;
; 185  : 		break;
; 186  : 	case 3080:
; 187  : 		base = 5080;
; 188  : 		break;
; 189  : 	case 3090:
; 190  : 		base = 5090;
; 191  : 		break;
; 192  : 	case 3100:
; 193  : 		base = 5100;
; 194  : 		break;
; 195  : 	case 3110:
; 196  : 		base = 5100;
; 197  : 		break;
; 198  : 	case 3120:
; 199  : 		base = 5110;
; 200  : 		break;
; 201  : 	case 3130:
; 202  : 		base = 5110;
; 203  : 		break;
; 204  : 	case 3140:
; 205  : 		base = 5120;
; 206  : 		break;
; 207  : 	case 3150:
; 208  : 		base = 5120;
; 209  : 		break;
; 210  : 	case 3160:
; 211  : 		base = 5130;
; 212  : 		break;
; 213  : 	case 3170:
; 214  : 		base = 5130;
; 215  : 		break;
; 216  : 	case 3180:
; 217  : 		base = 5140;
; 218  : 		break;
; 219  : 	case 3190:
; 220  : 		base = 5140;
; 221  : 		break;
; 222  : 	case 3200:
; 223  : 		base = 5150;
; 224  : 		break;
; 225  : 	case 3210:
; 226  : 		base = 5150;
; 227  : 		break;
; 228  : 	}
; 229  : 	return base + rest;

  000a9	b9 ec 13 00 00	 mov	 ecx, 5100		; 000013ecH
  000ae	8d 04 0e	 lea	 eax, DWORD PTR [esi+ecx]
  000b1	5e		 pop	 esi

; 230  : }

  000b2	5d		 pop	 ebp
  000b3	c3		 ret	 0
$LN23@Vietnam_Co:

; 20   : 	{
; 21   : 	case  10:
; 22   : 		base = 5000;
; 23   : 		break;
; 24   : 	case  20:
; 25   : 		base = 5010;
; 26   : 		break;
; 27   : 	case  30:
; 28   : 		base = 5020;
; 29   : 		break;
; 30   : 	case  40:
; 31   : 		base = 5030;
; 32   : 		break;
; 33   : 	case  50:
; 34   : 		base = 5030;
; 35   : 		break;
; 36   : 	case  60:
; 37   : 		base = 5040;
; 38   : 		break;
; 39   : 	case  70:
; 40   : 		base = 5040;
; 41   : 		break;
; 42   : 	case  80:
; 43   : 		base = 5050;
; 44   : 		break;
; 45   : 	case  90:
; 46   : 		base = 5050;
; 47   : 		break;
; 48   : 	case 100:
; 49   : 		base = 5060;
; 50   : 		break;
; 51   : 	case 110:
; 52   : 		base = 5060;
; 53   : 		break;
; 54   : 	case 120:
; 55   : 		base = 5070;
; 56   : 		break;
; 57   : 	case 130:
; 58   : 		base = 5070;
; 59   : 		break;
; 60   : 	case 140:
; 61   : 		base = 5080;
; 62   : 		break;
; 63   : 	case 150:
; 64   : 		base = 5080;
; 65   : 		break;
; 66   : 	case 160:
; 67   : 		base = 5090;
; 68   : 		break;
; 69   : 	case 170:
; 70   : 		base = 5090;
; 71   : 		break;
; 72   : 	case 180:
; 73   : 		base = 5100;
; 74   : 		break;
; 75   : 	case 190:
; 76   : 		base = 5100;
; 77   : 		break;
; 78   : 	case 200:
; 79   : 		base = 5110;
; 80   : 		break;
; 81   : 	case 210:
; 82   : 		base = 5110;
; 83   : 		break;
; 84   : 	case 220:
; 85   : 		base = 5120;
; 86   : 		break;
; 87   : 	case 230:
; 88   : 		base = 5120;
; 89   : 		break;
; 90   : 	case 240:
; 91   : 		base = 5130;
; 92   : 		break;
; 93   : 	case 250:
; 94   : 		base = 5130;
; 95   : 		break;
; 96   : 	case 260:
; 97   : 		base = 5140;
; 98   : 		break;
; 99   : 	case 270:
; 100  : 		base = 5140;
; 101  : 		break;
; 102  : 	case 280:
; 103  : 		base = 5150;
; 104  : 		break;
; 105  : 	case 290:
; 106  : 		base = 5150;
; 107  : 		break;
; 108  : 	case 1000:
; 109  : 		base = 5000;
; 110  : 		break;
; 111  : 	case 1010:
; 112  : 		base = 5010;
; 113  : 		break;
; 114  : 	case 1020:
; 115  : 		base = 5020;
; 116  : 		break;
; 117  : 	case 1030:
; 118  : 		base = 5030;
; 119  : 		break;
; 120  : 	case 1040:
; 121  : 		base = 5040;
; 122  : 		break;
; 123  : 	case 1050:
; 124  : 		base = 5050;
; 125  : 		break;
; 126  : 	case 1060:
; 127  : 		base = 5060;
; 128  : 		break;
; 129  : 	case 1070:
; 130  : 		base = 5070;
; 131  : 		break;
; 132  : 	case 1080:
; 133  : 		base = 5080;
; 134  : 		break;
; 135  : 	case 1090:
; 136  : 		base = 5090;
; 137  : 		break;
; 138  : 	case 1100:
; 139  : 		base = 5100;
; 140  : 		break;
; 141  : 	case 1110:
; 142  : 		base = 5110;
; 143  : 		break;
; 144  : 	case 1120:
; 145  : 		base = 5120;
; 146  : 		break;
; 147  : 	case 1130:
; 148  : 		base = 5130;
; 149  : 		break;
; 150  : 	case 1140:
; 151  : 		base = 5140;
; 152  : 		break;
; 153  : 	case 1150:
; 154  : 		base = 5150;
; 155  : 		break;
; 156  : 	case 1160:
; 157  : 		base = 5150;
; 158  : 		break;
; 159  : 	case 1170:
; 160  : 		base = 5150;
; 161  : 		break;
; 162  : 	case 3000:
; 163  : 		base = 5000;
; 164  : 		break;
; 165  : 	case 3010:
; 166  : 		base = 5010;
; 167  : 		break;
; 168  : 	case 3020:
; 169  : 		base = 5020;
; 170  : 		break;
; 171  : 	case 3030:
; 172  : 		base = 5030;
; 173  : 		break;
; 174  : 	case 3040:
; 175  : 		base = 5040;
; 176  : 		break;
; 177  : 	case 3050:
; 178  : 		base = 5050;
; 179  : 		break;
; 180  : 	case 3060:
; 181  : 		base = 5060;
; 182  : 		break;
; 183  : 	case 3070:
; 184  : 		base = 5070;
; 185  : 		break;
; 186  : 	case 3080:
; 187  : 		base = 5080;
; 188  : 		break;
; 189  : 	case 3090:
; 190  : 		base = 5090;
; 191  : 		break;
; 192  : 	case 3100:
; 193  : 		base = 5100;
; 194  : 		break;
; 195  : 	case 3110:
; 196  : 		base = 5100;
; 197  : 		break;
; 198  : 	case 3120:
; 199  : 		base = 5110;
; 200  : 		break;
; 201  : 	case 3130:
; 202  : 		base = 5110;
; 203  : 		break;
; 204  : 	case 3140:
; 205  : 		base = 5120;
; 206  : 		break;
; 207  : 	case 3150:
; 208  : 		base = 5120;
; 209  : 		break;
; 210  : 	case 3160:
; 211  : 		base = 5130;
; 212  : 		break;
; 213  : 	case 3170:
; 214  : 		base = 5130;
; 215  : 		break;
; 216  : 	case 3180:
; 217  : 		base = 5140;
; 218  : 		break;
; 219  : 	case 3190:
; 220  : 		base = 5140;
; 221  : 		break;
; 222  : 	case 3200:
; 223  : 		base = 5150;
; 224  : 		break;
; 225  : 	case 3210:
; 226  : 		base = 5150;
; 227  : 		break;
; 228  : 	}
; 229  : 	return base + rest;

  000b4	b9 f6 13 00 00	 mov	 ecx, 5110		; 000013f6H
  000b9	8d 04 0e	 lea	 eax, DWORD PTR [esi+ecx]
  000bc	5e		 pop	 esi

; 230  : }

  000bd	5d		 pop	 ebp
  000be	c3		 ret	 0
$LN25@Vietnam_Co:

; 20   : 	{
; 21   : 	case  10:
; 22   : 		base = 5000;
; 23   : 		break;
; 24   : 	case  20:
; 25   : 		base = 5010;
; 26   : 		break;
; 27   : 	case  30:
; 28   : 		base = 5020;
; 29   : 		break;
; 30   : 	case  40:
; 31   : 		base = 5030;
; 32   : 		break;
; 33   : 	case  50:
; 34   : 		base = 5030;
; 35   : 		break;
; 36   : 	case  60:
; 37   : 		base = 5040;
; 38   : 		break;
; 39   : 	case  70:
; 40   : 		base = 5040;
; 41   : 		break;
; 42   : 	case  80:
; 43   : 		base = 5050;
; 44   : 		break;
; 45   : 	case  90:
; 46   : 		base = 5050;
; 47   : 		break;
; 48   : 	case 100:
; 49   : 		base = 5060;
; 50   : 		break;
; 51   : 	case 110:
; 52   : 		base = 5060;
; 53   : 		break;
; 54   : 	case 120:
; 55   : 		base = 5070;
; 56   : 		break;
; 57   : 	case 130:
; 58   : 		base = 5070;
; 59   : 		break;
; 60   : 	case 140:
; 61   : 		base = 5080;
; 62   : 		break;
; 63   : 	case 150:
; 64   : 		base = 5080;
; 65   : 		break;
; 66   : 	case 160:
; 67   : 		base = 5090;
; 68   : 		break;
; 69   : 	case 170:
; 70   : 		base = 5090;
; 71   : 		break;
; 72   : 	case 180:
; 73   : 		base = 5100;
; 74   : 		break;
; 75   : 	case 190:
; 76   : 		base = 5100;
; 77   : 		break;
; 78   : 	case 200:
; 79   : 		base = 5110;
; 80   : 		break;
; 81   : 	case 210:
; 82   : 		base = 5110;
; 83   : 		break;
; 84   : 	case 220:
; 85   : 		base = 5120;
; 86   : 		break;
; 87   : 	case 230:
; 88   : 		base = 5120;
; 89   : 		break;
; 90   : 	case 240:
; 91   : 		base = 5130;
; 92   : 		break;
; 93   : 	case 250:
; 94   : 		base = 5130;
; 95   : 		break;
; 96   : 	case 260:
; 97   : 		base = 5140;
; 98   : 		break;
; 99   : 	case 270:
; 100  : 		base = 5140;
; 101  : 		break;
; 102  : 	case 280:
; 103  : 		base = 5150;
; 104  : 		break;
; 105  : 	case 290:
; 106  : 		base = 5150;
; 107  : 		break;
; 108  : 	case 1000:
; 109  : 		base = 5000;
; 110  : 		break;
; 111  : 	case 1010:
; 112  : 		base = 5010;
; 113  : 		break;
; 114  : 	case 1020:
; 115  : 		base = 5020;
; 116  : 		break;
; 117  : 	case 1030:
; 118  : 		base = 5030;
; 119  : 		break;
; 120  : 	case 1040:
; 121  : 		base = 5040;
; 122  : 		break;
; 123  : 	case 1050:
; 124  : 		base = 5050;
; 125  : 		break;
; 126  : 	case 1060:
; 127  : 		base = 5060;
; 128  : 		break;
; 129  : 	case 1070:
; 130  : 		base = 5070;
; 131  : 		break;
; 132  : 	case 1080:
; 133  : 		base = 5080;
; 134  : 		break;
; 135  : 	case 1090:
; 136  : 		base = 5090;
; 137  : 		break;
; 138  : 	case 1100:
; 139  : 		base = 5100;
; 140  : 		break;
; 141  : 	case 1110:
; 142  : 		base = 5110;
; 143  : 		break;
; 144  : 	case 1120:
; 145  : 		base = 5120;
; 146  : 		break;
; 147  : 	case 1130:
; 148  : 		base = 5130;
; 149  : 		break;
; 150  : 	case 1140:
; 151  : 		base = 5140;
; 152  : 		break;
; 153  : 	case 1150:
; 154  : 		base = 5150;
; 155  : 		break;
; 156  : 	case 1160:
; 157  : 		base = 5150;
; 158  : 		break;
; 159  : 	case 1170:
; 160  : 		base = 5150;
; 161  : 		break;
; 162  : 	case 3000:
; 163  : 		base = 5000;
; 164  : 		break;
; 165  : 	case 3010:
; 166  : 		base = 5010;
; 167  : 		break;
; 168  : 	case 3020:
; 169  : 		base = 5020;
; 170  : 		break;
; 171  : 	case 3030:
; 172  : 		base = 5030;
; 173  : 		break;
; 174  : 	case 3040:
; 175  : 		base = 5040;
; 176  : 		break;
; 177  : 	case 3050:
; 178  : 		base = 5050;
; 179  : 		break;
; 180  : 	case 3060:
; 181  : 		base = 5060;
; 182  : 		break;
; 183  : 	case 3070:
; 184  : 		base = 5070;
; 185  : 		break;
; 186  : 	case 3080:
; 187  : 		base = 5080;
; 188  : 		break;
; 189  : 	case 3090:
; 190  : 		base = 5090;
; 191  : 		break;
; 192  : 	case 3100:
; 193  : 		base = 5100;
; 194  : 		break;
; 195  : 	case 3110:
; 196  : 		base = 5100;
; 197  : 		break;
; 198  : 	case 3120:
; 199  : 		base = 5110;
; 200  : 		break;
; 201  : 	case 3130:
; 202  : 		base = 5110;
; 203  : 		break;
; 204  : 	case 3140:
; 205  : 		base = 5120;
; 206  : 		break;
; 207  : 	case 3150:
; 208  : 		base = 5120;
; 209  : 		break;
; 210  : 	case 3160:
; 211  : 		base = 5130;
; 212  : 		break;
; 213  : 	case 3170:
; 214  : 		base = 5130;
; 215  : 		break;
; 216  : 	case 3180:
; 217  : 		base = 5140;
; 218  : 		break;
; 219  : 	case 3190:
; 220  : 		base = 5140;
; 221  : 		break;
; 222  : 	case 3200:
; 223  : 		base = 5150;
; 224  : 		break;
; 225  : 	case 3210:
; 226  : 		base = 5150;
; 227  : 		break;
; 228  : 	}
; 229  : 	return base + rest;

  000bf	b9 00 14 00 00	 mov	 ecx, 5120		; 00001400H
  000c4	8d 04 0e	 lea	 eax, DWORD PTR [esi+ecx]
  000c7	5e		 pop	 esi

; 230  : }

  000c8	5d		 pop	 ebp
  000c9	c3		 ret	 0
$LN27@Vietnam_Co:

; 20   : 	{
; 21   : 	case  10:
; 22   : 		base = 5000;
; 23   : 		break;
; 24   : 	case  20:
; 25   : 		base = 5010;
; 26   : 		break;
; 27   : 	case  30:
; 28   : 		base = 5020;
; 29   : 		break;
; 30   : 	case  40:
; 31   : 		base = 5030;
; 32   : 		break;
; 33   : 	case  50:
; 34   : 		base = 5030;
; 35   : 		break;
; 36   : 	case  60:
; 37   : 		base = 5040;
; 38   : 		break;
; 39   : 	case  70:
; 40   : 		base = 5040;
; 41   : 		break;
; 42   : 	case  80:
; 43   : 		base = 5050;
; 44   : 		break;
; 45   : 	case  90:
; 46   : 		base = 5050;
; 47   : 		break;
; 48   : 	case 100:
; 49   : 		base = 5060;
; 50   : 		break;
; 51   : 	case 110:
; 52   : 		base = 5060;
; 53   : 		break;
; 54   : 	case 120:
; 55   : 		base = 5070;
; 56   : 		break;
; 57   : 	case 130:
; 58   : 		base = 5070;
; 59   : 		break;
; 60   : 	case 140:
; 61   : 		base = 5080;
; 62   : 		break;
; 63   : 	case 150:
; 64   : 		base = 5080;
; 65   : 		break;
; 66   : 	case 160:
; 67   : 		base = 5090;
; 68   : 		break;
; 69   : 	case 170:
; 70   : 		base = 5090;
; 71   : 		break;
; 72   : 	case 180:
; 73   : 		base = 5100;
; 74   : 		break;
; 75   : 	case 190:
; 76   : 		base = 5100;
; 77   : 		break;
; 78   : 	case 200:
; 79   : 		base = 5110;
; 80   : 		break;
; 81   : 	case 210:
; 82   : 		base = 5110;
; 83   : 		break;
; 84   : 	case 220:
; 85   : 		base = 5120;
; 86   : 		break;
; 87   : 	case 230:
; 88   : 		base = 5120;
; 89   : 		break;
; 90   : 	case 240:
; 91   : 		base = 5130;
; 92   : 		break;
; 93   : 	case 250:
; 94   : 		base = 5130;
; 95   : 		break;
; 96   : 	case 260:
; 97   : 		base = 5140;
; 98   : 		break;
; 99   : 	case 270:
; 100  : 		base = 5140;
; 101  : 		break;
; 102  : 	case 280:
; 103  : 		base = 5150;
; 104  : 		break;
; 105  : 	case 290:
; 106  : 		base = 5150;
; 107  : 		break;
; 108  : 	case 1000:
; 109  : 		base = 5000;
; 110  : 		break;
; 111  : 	case 1010:
; 112  : 		base = 5010;
; 113  : 		break;
; 114  : 	case 1020:
; 115  : 		base = 5020;
; 116  : 		break;
; 117  : 	case 1030:
; 118  : 		base = 5030;
; 119  : 		break;
; 120  : 	case 1040:
; 121  : 		base = 5040;
; 122  : 		break;
; 123  : 	case 1050:
; 124  : 		base = 5050;
; 125  : 		break;
; 126  : 	case 1060:
; 127  : 		base = 5060;
; 128  : 		break;
; 129  : 	case 1070:
; 130  : 		base = 5070;
; 131  : 		break;
; 132  : 	case 1080:
; 133  : 		base = 5080;
; 134  : 		break;
; 135  : 	case 1090:
; 136  : 		base = 5090;
; 137  : 		break;
; 138  : 	case 1100:
; 139  : 		base = 5100;
; 140  : 		break;
; 141  : 	case 1110:
; 142  : 		base = 5110;
; 143  : 		break;
; 144  : 	case 1120:
; 145  : 		base = 5120;
; 146  : 		break;
; 147  : 	case 1130:
; 148  : 		base = 5130;
; 149  : 		break;
; 150  : 	case 1140:
; 151  : 		base = 5140;
; 152  : 		break;
; 153  : 	case 1150:
; 154  : 		base = 5150;
; 155  : 		break;
; 156  : 	case 1160:
; 157  : 		base = 5150;
; 158  : 		break;
; 159  : 	case 1170:
; 160  : 		base = 5150;
; 161  : 		break;
; 162  : 	case 3000:
; 163  : 		base = 5000;
; 164  : 		break;
; 165  : 	case 3010:
; 166  : 		base = 5010;
; 167  : 		break;
; 168  : 	case 3020:
; 169  : 		base = 5020;
; 170  : 		break;
; 171  : 	case 3030:
; 172  : 		base = 5030;
; 173  : 		break;
; 174  : 	case 3040:
; 175  : 		base = 5040;
; 176  : 		break;
; 177  : 	case 3050:
; 178  : 		base = 5050;
; 179  : 		break;
; 180  : 	case 3060:
; 181  : 		base = 5060;
; 182  : 		break;
; 183  : 	case 3070:
; 184  : 		base = 5070;
; 185  : 		break;
; 186  : 	case 3080:
; 187  : 		base = 5080;
; 188  : 		break;
; 189  : 	case 3090:
; 190  : 		base = 5090;
; 191  : 		break;
; 192  : 	case 3100:
; 193  : 		base = 5100;
; 194  : 		break;
; 195  : 	case 3110:
; 196  : 		base = 5100;
; 197  : 		break;
; 198  : 	case 3120:
; 199  : 		base = 5110;
; 200  : 		break;
; 201  : 	case 3130:
; 202  : 		base = 5110;
; 203  : 		break;
; 204  : 	case 3140:
; 205  : 		base = 5120;
; 206  : 		break;
; 207  : 	case 3150:
; 208  : 		base = 5120;
; 209  : 		break;
; 210  : 	case 3160:
; 211  : 		base = 5130;
; 212  : 		break;
; 213  : 	case 3170:
; 214  : 		base = 5130;
; 215  : 		break;
; 216  : 	case 3180:
; 217  : 		base = 5140;
; 218  : 		break;
; 219  : 	case 3190:
; 220  : 		base = 5140;
; 221  : 		break;
; 222  : 	case 3200:
; 223  : 		base = 5150;
; 224  : 		break;
; 225  : 	case 3210:
; 226  : 		base = 5150;
; 227  : 		break;
; 228  : 	}
; 229  : 	return base + rest;

  000ca	b9 0a 14 00 00	 mov	 ecx, 5130		; 0000140aH
  000cf	8d 04 0e	 lea	 eax, DWORD PTR [esi+ecx]
  000d2	5e		 pop	 esi

; 230  : }

  000d3	5d		 pop	 ebp
  000d4	c3		 ret	 0
$LN29@Vietnam_Co:

; 20   : 	{
; 21   : 	case  10:
; 22   : 		base = 5000;
; 23   : 		break;
; 24   : 	case  20:
; 25   : 		base = 5010;
; 26   : 		break;
; 27   : 	case  30:
; 28   : 		base = 5020;
; 29   : 		break;
; 30   : 	case  40:
; 31   : 		base = 5030;
; 32   : 		break;
; 33   : 	case  50:
; 34   : 		base = 5030;
; 35   : 		break;
; 36   : 	case  60:
; 37   : 		base = 5040;
; 38   : 		break;
; 39   : 	case  70:
; 40   : 		base = 5040;
; 41   : 		break;
; 42   : 	case  80:
; 43   : 		base = 5050;
; 44   : 		break;
; 45   : 	case  90:
; 46   : 		base = 5050;
; 47   : 		break;
; 48   : 	case 100:
; 49   : 		base = 5060;
; 50   : 		break;
; 51   : 	case 110:
; 52   : 		base = 5060;
; 53   : 		break;
; 54   : 	case 120:
; 55   : 		base = 5070;
; 56   : 		break;
; 57   : 	case 130:
; 58   : 		base = 5070;
; 59   : 		break;
; 60   : 	case 140:
; 61   : 		base = 5080;
; 62   : 		break;
; 63   : 	case 150:
; 64   : 		base = 5080;
; 65   : 		break;
; 66   : 	case 160:
; 67   : 		base = 5090;
; 68   : 		break;
; 69   : 	case 170:
; 70   : 		base = 5090;
; 71   : 		break;
; 72   : 	case 180:
; 73   : 		base = 5100;
; 74   : 		break;
; 75   : 	case 190:
; 76   : 		base = 5100;
; 77   : 		break;
; 78   : 	case 200:
; 79   : 		base = 5110;
; 80   : 		break;
; 81   : 	case 210:
; 82   : 		base = 5110;
; 83   : 		break;
; 84   : 	case 220:
; 85   : 		base = 5120;
; 86   : 		break;
; 87   : 	case 230:
; 88   : 		base = 5120;
; 89   : 		break;
; 90   : 	case 240:
; 91   : 		base = 5130;
; 92   : 		break;
; 93   : 	case 250:
; 94   : 		base = 5130;
; 95   : 		break;
; 96   : 	case 260:
; 97   : 		base = 5140;
; 98   : 		break;
; 99   : 	case 270:
; 100  : 		base = 5140;
; 101  : 		break;
; 102  : 	case 280:
; 103  : 		base = 5150;
; 104  : 		break;
; 105  : 	case 290:
; 106  : 		base = 5150;
; 107  : 		break;
; 108  : 	case 1000:
; 109  : 		base = 5000;
; 110  : 		break;
; 111  : 	case 1010:
; 112  : 		base = 5010;
; 113  : 		break;
; 114  : 	case 1020:
; 115  : 		base = 5020;
; 116  : 		break;
; 117  : 	case 1030:
; 118  : 		base = 5030;
; 119  : 		break;
; 120  : 	case 1040:
; 121  : 		base = 5040;
; 122  : 		break;
; 123  : 	case 1050:
; 124  : 		base = 5050;
; 125  : 		break;
; 126  : 	case 1060:
; 127  : 		base = 5060;
; 128  : 		break;
; 129  : 	case 1070:
; 130  : 		base = 5070;
; 131  : 		break;
; 132  : 	case 1080:
; 133  : 		base = 5080;
; 134  : 		break;
; 135  : 	case 1090:
; 136  : 		base = 5090;
; 137  : 		break;
; 138  : 	case 1100:
; 139  : 		base = 5100;
; 140  : 		break;
; 141  : 	case 1110:
; 142  : 		base = 5110;
; 143  : 		break;
; 144  : 	case 1120:
; 145  : 		base = 5120;
; 146  : 		break;
; 147  : 	case 1130:
; 148  : 		base = 5130;
; 149  : 		break;
; 150  : 	case 1140:
; 151  : 		base = 5140;
; 152  : 		break;
; 153  : 	case 1150:
; 154  : 		base = 5150;
; 155  : 		break;
; 156  : 	case 1160:
; 157  : 		base = 5150;
; 158  : 		break;
; 159  : 	case 1170:
; 160  : 		base = 5150;
; 161  : 		break;
; 162  : 	case 3000:
; 163  : 		base = 5000;
; 164  : 		break;
; 165  : 	case 3010:
; 166  : 		base = 5010;
; 167  : 		break;
; 168  : 	case 3020:
; 169  : 		base = 5020;
; 170  : 		break;
; 171  : 	case 3030:
; 172  : 		base = 5030;
; 173  : 		break;
; 174  : 	case 3040:
; 175  : 		base = 5040;
; 176  : 		break;
; 177  : 	case 3050:
; 178  : 		base = 5050;
; 179  : 		break;
; 180  : 	case 3060:
; 181  : 		base = 5060;
; 182  : 		break;
; 183  : 	case 3070:
; 184  : 		base = 5070;
; 185  : 		break;
; 186  : 	case 3080:
; 187  : 		base = 5080;
; 188  : 		break;
; 189  : 	case 3090:
; 190  : 		base = 5090;
; 191  : 		break;
; 192  : 	case 3100:
; 193  : 		base = 5100;
; 194  : 		break;
; 195  : 	case 3110:
; 196  : 		base = 5100;
; 197  : 		break;
; 198  : 	case 3120:
; 199  : 		base = 5110;
; 200  : 		break;
; 201  : 	case 3130:
; 202  : 		base = 5110;
; 203  : 		break;
; 204  : 	case 3140:
; 205  : 		base = 5120;
; 206  : 		break;
; 207  : 	case 3150:
; 208  : 		base = 5120;
; 209  : 		break;
; 210  : 	case 3160:
; 211  : 		base = 5130;
; 212  : 		break;
; 213  : 	case 3170:
; 214  : 		base = 5130;
; 215  : 		break;
; 216  : 	case 3180:
; 217  : 		base = 5140;
; 218  : 		break;
; 219  : 	case 3190:
; 220  : 		base = 5140;
; 221  : 		break;
; 222  : 	case 3200:
; 223  : 		base = 5150;
; 224  : 		break;
; 225  : 	case 3210:
; 226  : 		base = 5150;
; 227  : 		break;
; 228  : 	}
; 229  : 	return base + rest;

  000d5	b9 14 14 00 00	 mov	 ecx, 5140		; 00001414H
  000da	8d 04 0e	 lea	 eax, DWORD PTR [esi+ecx]
  000dd	5e		 pop	 esi

; 230  : }

  000de	5d		 pop	 ebp
  000df	c3		 ret	 0
$LN74@Vietnam_Co:

; 19   : 	switch (base)

  000e0	81 f9 b8 0b 00
	00		 cmp	 ecx, 3000		; 00000bb8H
  000e6	77 53		 ja	 SHORT $LN75@Vietnam_Co
  000e8	0f 84 58 ff ff
	ff		 je	 $LN4@Vietnam_Co
  000ee	81 f9 e8 03 00
	00		 cmp	 ecx, 1000		; 000003e8H
  000f4	77 1f		 ja	 SHORT $LN76@Vietnam_Co
  000f6	0f 84 4a ff ff
	ff		 je	 $LN4@Vietnam_Co
  000fc	8b c1		 mov	 eax, ecx
  000fe	2d 18 01 00 00	 sub	 eax, 280		; 00000118H
  00103	74 05		 je	 SHORT $LN72@Vietnam_Co
  00105	83 e8 0a	 sub	 eax, 10			; 0000000aH
  00108	75 05		 jne	 SHORT $LN2@Vietnam_Co
$LN72@Vietnam_Co:

; 20   : 	{
; 21   : 	case  10:
; 22   : 		base = 5000;
; 23   : 		break;
; 24   : 	case  20:
; 25   : 		base = 5010;
; 26   : 		break;
; 27   : 	case  30:
; 28   : 		base = 5020;
; 29   : 		break;
; 30   : 	case  40:
; 31   : 		base = 5030;
; 32   : 		break;
; 33   : 	case  50:
; 34   : 		base = 5030;
; 35   : 		break;
; 36   : 	case  60:
; 37   : 		base = 5040;
; 38   : 		break;
; 39   : 	case  70:
; 40   : 		base = 5040;
; 41   : 		break;
; 42   : 	case  80:
; 43   : 		base = 5050;
; 44   : 		break;
; 45   : 	case  90:
; 46   : 		base = 5050;
; 47   : 		break;
; 48   : 	case 100:
; 49   : 		base = 5060;
; 50   : 		break;
; 51   : 	case 110:
; 52   : 		base = 5060;
; 53   : 		break;
; 54   : 	case 120:
; 55   : 		base = 5070;
; 56   : 		break;
; 57   : 	case 130:
; 58   : 		base = 5070;
; 59   : 		break;
; 60   : 	case 140:
; 61   : 		base = 5080;
; 62   : 		break;
; 63   : 	case 150:
; 64   : 		base = 5080;
; 65   : 		break;
; 66   : 	case 160:
; 67   : 		base = 5090;
; 68   : 		break;
; 69   : 	case 170:
; 70   : 		base = 5090;
; 71   : 		break;
; 72   : 	case 180:
; 73   : 		base = 5100;
; 74   : 		break;
; 75   : 	case 190:
; 76   : 		base = 5100;
; 77   : 		break;
; 78   : 	case 200:
; 79   : 		base = 5110;
; 80   : 		break;
; 81   : 	case 210:
; 82   : 		base = 5110;
; 83   : 		break;
; 84   : 	case 220:
; 85   : 		base = 5120;
; 86   : 		break;
; 87   : 	case 230:
; 88   : 		base = 5120;
; 89   : 		break;
; 90   : 	case 240:
; 91   : 		base = 5130;
; 92   : 		break;
; 93   : 	case 250:
; 94   : 		base = 5130;
; 95   : 		break;
; 96   : 	case 260:
; 97   : 		base = 5140;
; 98   : 		break;
; 99   : 	case 270:
; 100  : 		base = 5140;
; 101  : 		break;
; 102  : 	case 280:
; 103  : 		base = 5150;
; 104  : 		break;
; 105  : 	case 290:
; 106  : 		base = 5150;
; 107  : 		break;
; 108  : 	case 1000:
; 109  : 		base = 5000;
; 110  : 		break;
; 111  : 	case 1010:
; 112  : 		base = 5010;
; 113  : 		break;
; 114  : 	case 1020:
; 115  : 		base = 5020;
; 116  : 		break;
; 117  : 	case 1030:
; 118  : 		base = 5030;
; 119  : 		break;
; 120  : 	case 1040:
; 121  : 		base = 5040;
; 122  : 		break;
; 123  : 	case 1050:
; 124  : 		base = 5050;
; 125  : 		break;
; 126  : 	case 1060:
; 127  : 		base = 5060;
; 128  : 		break;
; 129  : 	case 1070:
; 130  : 		base = 5070;
; 131  : 		break;
; 132  : 	case 1080:
; 133  : 		base = 5080;
; 134  : 		break;
; 135  : 	case 1090:
; 136  : 		base = 5090;
; 137  : 		break;
; 138  : 	case 1100:
; 139  : 		base = 5100;
; 140  : 		break;
; 141  : 	case 1110:
; 142  : 		base = 5110;
; 143  : 		break;
; 144  : 	case 1120:
; 145  : 		base = 5120;
; 146  : 		break;
; 147  : 	case 1130:
; 148  : 		base = 5130;
; 149  : 		break;
; 150  : 	case 1140:
; 151  : 		base = 5140;
; 152  : 		break;
; 153  : 	case 1150:
; 154  : 		base = 5150;
; 155  : 		break;
; 156  : 	case 1160:
; 157  : 		base = 5150;
; 158  : 		break;
; 159  : 	case 1170:
; 160  : 		base = 5150;
; 161  : 		break;
; 162  : 	case 3000:
; 163  : 		base = 5000;
; 164  : 		break;
; 165  : 	case 3010:
; 166  : 		base = 5010;
; 167  : 		break;
; 168  : 	case 3020:
; 169  : 		base = 5020;
; 170  : 		break;
; 171  : 	case 3030:
; 172  : 		base = 5030;
; 173  : 		break;
; 174  : 	case 3040:
; 175  : 		base = 5040;
; 176  : 		break;
; 177  : 	case 3050:
; 178  : 		base = 5050;
; 179  : 		break;
; 180  : 	case 3060:
; 181  : 		base = 5060;
; 182  : 		break;
; 183  : 	case 3070:
; 184  : 		base = 5070;
; 185  : 		break;
; 186  : 	case 3080:
; 187  : 		base = 5080;
; 188  : 		break;
; 189  : 	case 3090:
; 190  : 		base = 5090;
; 191  : 		break;
; 192  : 	case 3100:
; 193  : 		base = 5100;
; 194  : 		break;
; 195  : 	case 3110:
; 196  : 		base = 5100;
; 197  : 		break;
; 198  : 	case 3120:
; 199  : 		base = 5110;
; 200  : 		break;
; 201  : 	case 3130:
; 202  : 		base = 5110;
; 203  : 		break;
; 204  : 	case 3140:
; 205  : 		base = 5120;
; 206  : 		break;
; 207  : 	case 3150:
; 208  : 		base = 5120;
; 209  : 		break;
; 210  : 	case 3160:
; 211  : 		base = 5130;
; 212  : 		break;
; 213  : 	case 3170:
; 214  : 		base = 5130;
; 215  : 		break;
; 216  : 	case 3180:
; 217  : 		base = 5140;
; 218  : 		break;
; 219  : 	case 3190:
; 220  : 		base = 5140;
; 221  : 		break;
; 222  : 	case 3200:
; 223  : 		base = 5150;
; 224  : 		break;
; 225  : 	case 3210:
; 226  : 		base = 5150;
; 227  : 		break;
; 228  : 	}
; 229  : 	return base + rest;

  0010a	b9 1e 14 00 00	 mov	 ecx, 5150		; 0000141eH
$LN2@Vietnam_Co:
  0010f	8d 04 0e	 lea	 eax, DWORD PTR [esi+ecx]
  00112	5e		 pop	 esi

; 230  : }

  00113	5d		 pop	 ebp
  00114	c3		 ret	 0
$LN76@Vietnam_Co:

; 19   : 	switch (base)

  00115	8d 81 0e fc ff
	ff		 lea	 eax, DWORD PTR [ecx-1010]
  0011b	3d a0 00 00 00	 cmp	 eax, 160		; 000000a0H
  00120	77 ed		 ja	 SHORT $LN2@Vietnam_Co
  00122	0f b6 80 00 00
	00 00		 movzx	 eax, BYTE PTR $LN79@Vietnam_Co[eax]
  00129	ff 24 85 00 00
	00 00		 jmp	 DWORD PTR $LN80@Vietnam_Co[eax*4]
$LN34@Vietnam_Co:

; 20   : 	{
; 21   : 	case  10:
; 22   : 		base = 5000;
; 23   : 		break;
; 24   : 	case  20:
; 25   : 		base = 5010;
; 26   : 		break;
; 27   : 	case  30:
; 28   : 		base = 5020;
; 29   : 		break;
; 30   : 	case  40:
; 31   : 		base = 5030;
; 32   : 		break;
; 33   : 	case  50:
; 34   : 		base = 5030;
; 35   : 		break;
; 36   : 	case  60:
; 37   : 		base = 5040;
; 38   : 		break;
; 39   : 	case  70:
; 40   : 		base = 5040;
; 41   : 		break;
; 42   : 	case  80:
; 43   : 		base = 5050;
; 44   : 		break;
; 45   : 	case  90:
; 46   : 		base = 5050;
; 47   : 		break;
; 48   : 	case 100:
; 49   : 		base = 5060;
; 50   : 		break;
; 51   : 	case 110:
; 52   : 		base = 5060;
; 53   : 		break;
; 54   : 	case 120:
; 55   : 		base = 5070;
; 56   : 		break;
; 57   : 	case 130:
; 58   : 		base = 5070;
; 59   : 		break;
; 60   : 	case 140:
; 61   : 		base = 5080;
; 62   : 		break;
; 63   : 	case 150:
; 64   : 		base = 5080;
; 65   : 		break;
; 66   : 	case 160:
; 67   : 		base = 5090;
; 68   : 		break;
; 69   : 	case 170:
; 70   : 		base = 5090;
; 71   : 		break;
; 72   : 	case 180:
; 73   : 		base = 5100;
; 74   : 		break;
; 75   : 	case 190:
; 76   : 		base = 5100;
; 77   : 		break;
; 78   : 	case 200:
; 79   : 		base = 5110;
; 80   : 		break;
; 81   : 	case 210:
; 82   : 		base = 5110;
; 83   : 		break;
; 84   : 	case 220:
; 85   : 		base = 5120;
; 86   : 		break;
; 87   : 	case 230:
; 88   : 		base = 5120;
; 89   : 		break;
; 90   : 	case 240:
; 91   : 		base = 5130;
; 92   : 		break;
; 93   : 	case 250:
; 94   : 		base = 5130;
; 95   : 		break;
; 96   : 	case 260:
; 97   : 		base = 5140;
; 98   : 		break;
; 99   : 	case 270:
; 100  : 		base = 5140;
; 101  : 		break;
; 102  : 	case 280:
; 103  : 		base = 5150;
; 104  : 		break;
; 105  : 	case 290:
; 106  : 		base = 5150;
; 107  : 		break;
; 108  : 	case 1000:
; 109  : 		base = 5000;
; 110  : 		break;
; 111  : 	case 1010:
; 112  : 		base = 5010;
; 113  : 		break;
; 114  : 	case 1020:
; 115  : 		base = 5020;
; 116  : 		break;
; 117  : 	case 1030:
; 118  : 		base = 5030;
; 119  : 		break;
; 120  : 	case 1040:
; 121  : 		base = 5040;
; 122  : 		break;
; 123  : 	case 1050:
; 124  : 		base = 5050;
; 125  : 		break;
; 126  : 	case 1060:
; 127  : 		base = 5060;
; 128  : 		break;
; 129  : 	case 1070:
; 130  : 		base = 5070;
; 131  : 		break;
; 132  : 	case 1080:
; 133  : 		base = 5080;
; 134  : 		break;
; 135  : 	case 1090:
; 136  : 		base = 5090;
; 137  : 		break;
; 138  : 	case 1100:
; 139  : 		base = 5100;
; 140  : 		break;
; 141  : 	case 1110:
; 142  : 		base = 5110;
; 143  : 		break;
; 144  : 	case 1120:
; 145  : 		base = 5120;
; 146  : 		break;
; 147  : 	case 1130:
; 148  : 		base = 5130;
; 149  : 		break;
; 150  : 	case 1140:
; 151  : 		base = 5140;
; 152  : 		break;
; 153  : 	case 1150:
; 154  : 		base = 5150;
; 155  : 		break;
; 156  : 	case 1160:
; 157  : 		base = 5150;
; 158  : 		break;
; 159  : 	case 1170:
; 160  : 		base = 5150;
; 161  : 		break;
; 162  : 	case 3000:
; 163  : 		base = 5000;
; 164  : 		break;
; 165  : 	case 3010:
; 166  : 		base = 5010;
; 167  : 		break;
; 168  : 	case 3020:
; 169  : 		base = 5020;
; 170  : 		break;
; 171  : 	case 3030:
; 172  : 		base = 5030;
; 173  : 		break;
; 174  : 	case 3040:
; 175  : 		base = 5040;
; 176  : 		break;
; 177  : 	case 3050:
; 178  : 		base = 5050;
; 179  : 		break;
; 180  : 	case 3060:
; 181  : 		base = 5060;
; 182  : 		break;
; 183  : 	case 3070:
; 184  : 		base = 5070;
; 185  : 		break;
; 186  : 	case 3080:
; 187  : 		base = 5080;
; 188  : 		break;
; 189  : 	case 3090:
; 190  : 		base = 5090;
; 191  : 		break;
; 192  : 	case 3100:
; 193  : 		base = 5100;
; 194  : 		break;
; 195  : 	case 3110:
; 196  : 		base = 5100;
; 197  : 		break;
; 198  : 	case 3120:
; 199  : 		base = 5110;
; 200  : 		break;
; 201  : 	case 3130:
; 202  : 		base = 5110;
; 203  : 		break;
; 204  : 	case 3140:
; 205  : 		base = 5120;
; 206  : 		break;
; 207  : 	case 3150:
; 208  : 		base = 5120;
; 209  : 		break;
; 210  : 	case 3160:
; 211  : 		base = 5130;
; 212  : 		break;
; 213  : 	case 3170:
; 214  : 		base = 5130;
; 215  : 		break;
; 216  : 	case 3180:
; 217  : 		base = 5140;
; 218  : 		break;
; 219  : 	case 3190:
; 220  : 		base = 5140;
; 221  : 		break;
; 222  : 	case 3200:
; 223  : 		base = 5150;
; 224  : 		break;
; 225  : 	case 3210:
; 226  : 		base = 5150;
; 227  : 		break;
; 228  : 	}
; 229  : 	return base + rest;

  00130	b9 92 13 00 00	 mov	 ecx, 5010		; 00001392H
  00135	8d 04 0e	 lea	 eax, DWORD PTR [esi+ecx]
  00138	5e		 pop	 esi

; 230  : }

  00139	5d		 pop	 ebp
  0013a	c3		 ret	 0
$LN75@Vietnam_Co:

; 19   : 	switch (base)

  0013b	8d 81 3e f4 ff
	ff		 lea	 eax, DWORD PTR [ecx-3010]
  00141	3d c8 00 00 00	 cmp	 eax, 200		; 000000c8H
  00146	77 c7		 ja	 SHORT $LN2@Vietnam_Co
  00148	0f b6 80 00 00
	00 00		 movzx	 eax, BYTE PTR $LN81@Vietnam_Co[eax]
  0014f	ff 24 85 00 00
	00 00		 jmp	 DWORD PTR $LN82@Vietnam_Co[eax*4]
  00156	66 90		 npad	 2
$LN78@Vietnam_Co:

; 230  : }

  00158	00 00 00 00	 DD	 $LN4@Vietnam_Co
  0015c	00 00 00 00	 DD	 $LN34@Vietnam_Co
  00160	00 00 00 00	 DD	 $LN6@Vietnam_Co
  00164	00 00 00 00	 DD	 $LN7@Vietnam_Co
  00168	00 00 00 00	 DD	 $LN9@Vietnam_Co
  0016c	00 00 00 00	 DD	 $LN11@Vietnam_Co
  00170	00 00 00 00	 DD	 $LN13@Vietnam_Co
  00174	00 00 00 00	 DD	 $LN15@Vietnam_Co
  00178	00 00 00 00	 DD	 $LN17@Vietnam_Co
  0017c	00 00 00 00	 DD	 $LN19@Vietnam_Co
  00180	00 00 00 00	 DD	 $LN21@Vietnam_Co
  00184	00 00 00 00	 DD	 $LN23@Vietnam_Co
  00188	00 00 00 00	 DD	 $LN25@Vietnam_Co
  0018c	00 00 00 00	 DD	 $LN27@Vietnam_Co
  00190	00 00 00 00	 DD	 $LN29@Vietnam_Co
  00194	00 00 00 00	 DD	 $LN2@Vietnam_Co
$LN77@Vietnam_Co:
  00198	00		 DB	 0
  00199	0f		 DB	 15			; 0000000fH
  0019a	0f		 DB	 15			; 0000000fH
  0019b	0f		 DB	 15			; 0000000fH
  0019c	0f		 DB	 15			; 0000000fH
  0019d	0f		 DB	 15			; 0000000fH
  0019e	0f		 DB	 15			; 0000000fH
  0019f	0f		 DB	 15			; 0000000fH
  001a0	0f		 DB	 15			; 0000000fH
  001a1	0f		 DB	 15			; 0000000fH
  001a2	01		 DB	 1
  001a3	0f		 DB	 15			; 0000000fH
  001a4	0f		 DB	 15			; 0000000fH
  001a5	0f		 DB	 15			; 0000000fH
  001a6	0f		 DB	 15			; 0000000fH
  001a7	0f		 DB	 15			; 0000000fH
  001a8	0f		 DB	 15			; 0000000fH
  001a9	0f		 DB	 15			; 0000000fH
  001aa	0f		 DB	 15			; 0000000fH
  001ab	0f		 DB	 15			; 0000000fH
  001ac	02		 DB	 2
  001ad	0f		 DB	 15			; 0000000fH
  001ae	0f		 DB	 15			; 0000000fH
  001af	0f		 DB	 15			; 0000000fH
  001b0	0f		 DB	 15			; 0000000fH
  001b1	0f		 DB	 15			; 0000000fH
  001b2	0f		 DB	 15			; 0000000fH
  001b3	0f		 DB	 15			; 0000000fH
  001b4	0f		 DB	 15			; 0000000fH
  001b5	0f		 DB	 15			; 0000000fH
  001b6	03		 DB	 3
  001b7	0f		 DB	 15			; 0000000fH
  001b8	0f		 DB	 15			; 0000000fH
  001b9	0f		 DB	 15			; 0000000fH
  001ba	0f		 DB	 15			; 0000000fH
  001bb	0f		 DB	 15			; 0000000fH
  001bc	0f		 DB	 15			; 0000000fH
  001bd	0f		 DB	 15			; 0000000fH
  001be	0f		 DB	 15			; 0000000fH
  001bf	0f		 DB	 15			; 0000000fH
  001c0	03		 DB	 3
  001c1	0f		 DB	 15			; 0000000fH
  001c2	0f		 DB	 15			; 0000000fH
  001c3	0f		 DB	 15			; 0000000fH
  001c4	0f		 DB	 15			; 0000000fH
  001c5	0f		 DB	 15			; 0000000fH
  001c6	0f		 DB	 15			; 0000000fH
  001c7	0f		 DB	 15			; 0000000fH
  001c8	0f		 DB	 15			; 0000000fH
  001c9	0f		 DB	 15			; 0000000fH
  001ca	04		 DB	 4
  001cb	0f		 DB	 15			; 0000000fH
  001cc	0f		 DB	 15			; 0000000fH
  001cd	0f		 DB	 15			; 0000000fH
  001ce	0f		 DB	 15			; 0000000fH
  001cf	0f		 DB	 15			; 0000000fH
  001d0	0f		 DB	 15			; 0000000fH
  001d1	0f		 DB	 15			; 0000000fH
  001d2	0f		 DB	 15			; 0000000fH
  001d3	0f		 DB	 15			; 0000000fH
  001d4	04		 DB	 4
  001d5	0f		 DB	 15			; 0000000fH
  001d6	0f		 DB	 15			; 0000000fH
  001d7	0f		 DB	 15			; 0000000fH
  001d8	0f		 DB	 15			; 0000000fH
  001d9	0f		 DB	 15			; 0000000fH
  001da	0f		 DB	 15			; 0000000fH
  001db	0f		 DB	 15			; 0000000fH
  001dc	0f		 DB	 15			; 0000000fH
  001dd	0f		 DB	 15			; 0000000fH
  001de	05		 DB	 5
  001df	0f		 DB	 15			; 0000000fH
  001e0	0f		 DB	 15			; 0000000fH
  001e1	0f		 DB	 15			; 0000000fH
  001e2	0f		 DB	 15			; 0000000fH
  001e3	0f		 DB	 15			; 0000000fH
  001e4	0f		 DB	 15			; 0000000fH
  001e5	0f		 DB	 15			; 0000000fH
  001e6	0f		 DB	 15			; 0000000fH
  001e7	0f		 DB	 15			; 0000000fH
  001e8	05		 DB	 5
  001e9	0f		 DB	 15			; 0000000fH
  001ea	0f		 DB	 15			; 0000000fH
  001eb	0f		 DB	 15			; 0000000fH
  001ec	0f		 DB	 15			; 0000000fH
  001ed	0f		 DB	 15			; 0000000fH
  001ee	0f		 DB	 15			; 0000000fH
  001ef	0f		 DB	 15			; 0000000fH
  001f0	0f		 DB	 15			; 0000000fH
  001f1	0f		 DB	 15			; 0000000fH
  001f2	06		 DB	 6
  001f3	0f		 DB	 15			; 0000000fH
  001f4	0f		 DB	 15			; 0000000fH
  001f5	0f		 DB	 15			; 0000000fH
  001f6	0f		 DB	 15			; 0000000fH
  001f7	0f		 DB	 15			; 0000000fH
  001f8	0f		 DB	 15			; 0000000fH
  001f9	0f		 DB	 15			; 0000000fH
  001fa	0f		 DB	 15			; 0000000fH
  001fb	0f		 DB	 15			; 0000000fH
  001fc	06		 DB	 6
  001fd	0f		 DB	 15			; 0000000fH
  001fe	0f		 DB	 15			; 0000000fH
  001ff	0f		 DB	 15			; 0000000fH
  00200	0f		 DB	 15			; 0000000fH
  00201	0f		 DB	 15			; 0000000fH
  00202	0f		 DB	 15			; 0000000fH
  00203	0f		 DB	 15			; 0000000fH
  00204	0f		 DB	 15			; 0000000fH
  00205	0f		 DB	 15			; 0000000fH
  00206	07		 DB	 7
  00207	0f		 DB	 15			; 0000000fH
  00208	0f		 DB	 15			; 0000000fH
  00209	0f		 DB	 15			; 0000000fH
  0020a	0f		 DB	 15			; 0000000fH
  0020b	0f		 DB	 15			; 0000000fH
  0020c	0f		 DB	 15			; 0000000fH
  0020d	0f		 DB	 15			; 0000000fH
  0020e	0f		 DB	 15			; 0000000fH
  0020f	0f		 DB	 15			; 0000000fH
  00210	07		 DB	 7
  00211	0f		 DB	 15			; 0000000fH
  00212	0f		 DB	 15			; 0000000fH
  00213	0f		 DB	 15			; 0000000fH
  00214	0f		 DB	 15			; 0000000fH
  00215	0f		 DB	 15			; 0000000fH
  00216	0f		 DB	 15			; 0000000fH
  00217	0f		 DB	 15			; 0000000fH
  00218	0f		 DB	 15			; 0000000fH
  00219	0f		 DB	 15			; 0000000fH
  0021a	08		 DB	 8
  0021b	0f		 DB	 15			; 0000000fH
  0021c	0f		 DB	 15			; 0000000fH
  0021d	0f		 DB	 15			; 0000000fH
  0021e	0f		 DB	 15			; 0000000fH
  0021f	0f		 DB	 15			; 0000000fH
  00220	0f		 DB	 15			; 0000000fH
  00221	0f		 DB	 15			; 0000000fH
  00222	0f		 DB	 15			; 0000000fH
  00223	0f		 DB	 15			; 0000000fH
  00224	08		 DB	 8
  00225	0f		 DB	 15			; 0000000fH
  00226	0f		 DB	 15			; 0000000fH
  00227	0f		 DB	 15			; 0000000fH
  00228	0f		 DB	 15			; 0000000fH
  00229	0f		 DB	 15			; 0000000fH
  0022a	0f		 DB	 15			; 0000000fH
  0022b	0f		 DB	 15			; 0000000fH
  0022c	0f		 DB	 15			; 0000000fH
  0022d	0f		 DB	 15			; 0000000fH
  0022e	09		 DB	 9
  0022f	0f		 DB	 15			; 0000000fH
  00230	0f		 DB	 15			; 0000000fH
  00231	0f		 DB	 15			; 0000000fH
  00232	0f		 DB	 15			; 0000000fH
  00233	0f		 DB	 15			; 0000000fH
  00234	0f		 DB	 15			; 0000000fH
  00235	0f		 DB	 15			; 0000000fH
  00236	0f		 DB	 15			; 0000000fH
  00237	0f		 DB	 15			; 0000000fH
  00238	09		 DB	 9
  00239	0f		 DB	 15			; 0000000fH
  0023a	0f		 DB	 15			; 0000000fH
  0023b	0f		 DB	 15			; 0000000fH
  0023c	0f		 DB	 15			; 0000000fH
  0023d	0f		 DB	 15			; 0000000fH
  0023e	0f		 DB	 15			; 0000000fH
  0023f	0f		 DB	 15			; 0000000fH
  00240	0f		 DB	 15			; 0000000fH
  00241	0f		 DB	 15			; 0000000fH
  00242	0a		 DB	 10			; 0000000aH
  00243	0f		 DB	 15			; 0000000fH
  00244	0f		 DB	 15			; 0000000fH
  00245	0f		 DB	 15			; 0000000fH
  00246	0f		 DB	 15			; 0000000fH
  00247	0f		 DB	 15			; 0000000fH
  00248	0f		 DB	 15			; 0000000fH
  00249	0f		 DB	 15			; 0000000fH
  0024a	0f		 DB	 15			; 0000000fH
  0024b	0f		 DB	 15			; 0000000fH
  0024c	0a		 DB	 10			; 0000000aH
  0024d	0f		 DB	 15			; 0000000fH
  0024e	0f		 DB	 15			; 0000000fH
  0024f	0f		 DB	 15			; 0000000fH
  00250	0f		 DB	 15			; 0000000fH
  00251	0f		 DB	 15			; 0000000fH
  00252	0f		 DB	 15			; 0000000fH
  00253	0f		 DB	 15			; 0000000fH
  00254	0f		 DB	 15			; 0000000fH
  00255	0f		 DB	 15			; 0000000fH
  00256	0b		 DB	 11			; 0000000bH
  00257	0f		 DB	 15			; 0000000fH
  00258	0f		 DB	 15			; 0000000fH
  00259	0f		 DB	 15			; 0000000fH
  0025a	0f		 DB	 15			; 0000000fH
  0025b	0f		 DB	 15			; 0000000fH
  0025c	0f		 DB	 15			; 0000000fH
  0025d	0f		 DB	 15			; 0000000fH
  0025e	0f		 DB	 15			; 0000000fH
  0025f	0f		 DB	 15			; 0000000fH
  00260	0b		 DB	 11			; 0000000bH
  00261	0f		 DB	 15			; 0000000fH
  00262	0f		 DB	 15			; 0000000fH
  00263	0f		 DB	 15			; 0000000fH
  00264	0f		 DB	 15			; 0000000fH
  00265	0f		 DB	 15			; 0000000fH
  00266	0f		 DB	 15			; 0000000fH
  00267	0f		 DB	 15			; 0000000fH
  00268	0f		 DB	 15			; 0000000fH
  00269	0f		 DB	 15			; 0000000fH
  0026a	0c		 DB	 12			; 0000000cH
  0026b	0f		 DB	 15			; 0000000fH
  0026c	0f		 DB	 15			; 0000000fH
  0026d	0f		 DB	 15			; 0000000fH
  0026e	0f		 DB	 15			; 0000000fH
  0026f	0f		 DB	 15			; 0000000fH
  00270	0f		 DB	 15			; 0000000fH
  00271	0f		 DB	 15			; 0000000fH
  00272	0f		 DB	 15			; 0000000fH
  00273	0f		 DB	 15			; 0000000fH
  00274	0c		 DB	 12			; 0000000cH
  00275	0f		 DB	 15			; 0000000fH
  00276	0f		 DB	 15			; 0000000fH
  00277	0f		 DB	 15			; 0000000fH
  00278	0f		 DB	 15			; 0000000fH
  00279	0f		 DB	 15			; 0000000fH
  0027a	0f		 DB	 15			; 0000000fH
  0027b	0f		 DB	 15			; 0000000fH
  0027c	0f		 DB	 15			; 0000000fH
  0027d	0f		 DB	 15			; 0000000fH
  0027e	0d		 DB	 13			; 0000000dH
  0027f	0f		 DB	 15			; 0000000fH
  00280	0f		 DB	 15			; 0000000fH
  00281	0f		 DB	 15			; 0000000fH
  00282	0f		 DB	 15			; 0000000fH
  00283	0f		 DB	 15			; 0000000fH
  00284	0f		 DB	 15			; 0000000fH
  00285	0f		 DB	 15			; 0000000fH
  00286	0f		 DB	 15			; 0000000fH
  00287	0f		 DB	 15			; 0000000fH
  00288	0d		 DB	 13			; 0000000dH
  00289	0f		 DB	 15			; 0000000fH
  0028a	0f		 DB	 15			; 0000000fH
  0028b	0f		 DB	 15			; 0000000fH
  0028c	0f		 DB	 15			; 0000000fH
  0028d	0f		 DB	 15			; 0000000fH
  0028e	0f		 DB	 15			; 0000000fH
  0028f	0f		 DB	 15			; 0000000fH
  00290	0f		 DB	 15			; 0000000fH
  00291	0f		 DB	 15			; 0000000fH
  00292	0e		 DB	 14			; 0000000eH
  00293	90		 npad	 1
$LN80@Vietnam_Co:
  00294	00 00 00 00	 DD	 $LN34@Vietnam_Co
  00298	00 00 00 00	 DD	 $LN6@Vietnam_Co
  0029c	00 00 00 00	 DD	 $LN7@Vietnam_Co
  002a0	00 00 00 00	 DD	 $LN9@Vietnam_Co
  002a4	00 00 00 00	 DD	 $LN11@Vietnam_Co
  002a8	00 00 00 00	 DD	 $LN13@Vietnam_Co
  002ac	00 00 00 00	 DD	 $LN15@Vietnam_Co
  002b0	00 00 00 00	 DD	 $LN17@Vietnam_Co
  002b4	00 00 00 00	 DD	 $LN19@Vietnam_Co
  002b8	00 00 00 00	 DD	 $LN21@Vietnam_Co
  002bc	00 00 00 00	 DD	 $LN23@Vietnam_Co
  002c0	00 00 00 00	 DD	 $LN25@Vietnam_Co
  002c4	00 00 00 00	 DD	 $LN27@Vietnam_Co
  002c8	00 00 00 00	 DD	 $LN29@Vietnam_Co
  002cc	00 00 00 00	 DD	 $LN72@Vietnam_Co
  002d0	00 00 00 00	 DD	 $LN2@Vietnam_Co
$LN79@Vietnam_Co:
  002d4	00		 DB	 0
  002d5	0f		 DB	 15			; 0000000fH
  002d6	0f		 DB	 15			; 0000000fH
  002d7	0f		 DB	 15			; 0000000fH
  002d8	0f		 DB	 15			; 0000000fH
  002d9	0f		 DB	 15			; 0000000fH
  002da	0f		 DB	 15			; 0000000fH
  002db	0f		 DB	 15			; 0000000fH
  002dc	0f		 DB	 15			; 0000000fH
  002dd	0f		 DB	 15			; 0000000fH
  002de	01		 DB	 1
  002df	0f		 DB	 15			; 0000000fH
  002e0	0f		 DB	 15			; 0000000fH
  002e1	0f		 DB	 15			; 0000000fH
  002e2	0f		 DB	 15			; 0000000fH
  002e3	0f		 DB	 15			; 0000000fH
  002e4	0f		 DB	 15			; 0000000fH
  002e5	0f		 DB	 15			; 0000000fH
  002e6	0f		 DB	 15			; 0000000fH
  002e7	0f		 DB	 15			; 0000000fH
  002e8	02		 DB	 2
  002e9	0f		 DB	 15			; 0000000fH
  002ea	0f		 DB	 15			; 0000000fH
  002eb	0f		 DB	 15			; 0000000fH
  002ec	0f		 DB	 15			; 0000000fH
  002ed	0f		 DB	 15			; 0000000fH
  002ee	0f		 DB	 15			; 0000000fH
  002ef	0f		 DB	 15			; 0000000fH
  002f0	0f		 DB	 15			; 0000000fH
  002f1	0f		 DB	 15			; 0000000fH
  002f2	03		 DB	 3
  002f3	0f		 DB	 15			; 0000000fH
  002f4	0f		 DB	 15			; 0000000fH
  002f5	0f		 DB	 15			; 0000000fH
  002f6	0f		 DB	 15			; 0000000fH
  002f7	0f		 DB	 15			; 0000000fH
  002f8	0f		 DB	 15			; 0000000fH
  002f9	0f		 DB	 15			; 0000000fH
  002fa	0f		 DB	 15			; 0000000fH
  002fb	0f		 DB	 15			; 0000000fH
  002fc	04		 DB	 4
  002fd	0f		 DB	 15			; 0000000fH
  002fe	0f		 DB	 15			; 0000000fH
  002ff	0f		 DB	 15			; 0000000fH
  00300	0f		 DB	 15			; 0000000fH
  00301	0f		 DB	 15			; 0000000fH
  00302	0f		 DB	 15			; 0000000fH
  00303	0f		 DB	 15			; 0000000fH
  00304	0f		 DB	 15			; 0000000fH
  00305	0f		 DB	 15			; 0000000fH
  00306	05		 DB	 5
  00307	0f		 DB	 15			; 0000000fH
  00308	0f		 DB	 15			; 0000000fH
  00309	0f		 DB	 15			; 0000000fH
  0030a	0f		 DB	 15			; 0000000fH
  0030b	0f		 DB	 15			; 0000000fH
  0030c	0f		 DB	 15			; 0000000fH
  0030d	0f		 DB	 15			; 0000000fH
  0030e	0f		 DB	 15			; 0000000fH
  0030f	0f		 DB	 15			; 0000000fH
  00310	06		 DB	 6
  00311	0f		 DB	 15			; 0000000fH
  00312	0f		 DB	 15			; 0000000fH
  00313	0f		 DB	 15			; 0000000fH
  00314	0f		 DB	 15			; 0000000fH
  00315	0f		 DB	 15			; 0000000fH
  00316	0f		 DB	 15			; 0000000fH
  00317	0f		 DB	 15			; 0000000fH
  00318	0f		 DB	 15			; 0000000fH
  00319	0f		 DB	 15			; 0000000fH
  0031a	07		 DB	 7
  0031b	0f		 DB	 15			; 0000000fH
  0031c	0f		 DB	 15			; 0000000fH
  0031d	0f		 DB	 15			; 0000000fH
  0031e	0f		 DB	 15			; 0000000fH
  0031f	0f		 DB	 15			; 0000000fH
  00320	0f		 DB	 15			; 0000000fH
  00321	0f		 DB	 15			; 0000000fH
  00322	0f		 DB	 15			; 0000000fH
  00323	0f		 DB	 15			; 0000000fH
  00324	08		 DB	 8
  00325	0f		 DB	 15			; 0000000fH
  00326	0f		 DB	 15			; 0000000fH
  00327	0f		 DB	 15			; 0000000fH
  00328	0f		 DB	 15			; 0000000fH
  00329	0f		 DB	 15			; 0000000fH
  0032a	0f		 DB	 15			; 0000000fH
  0032b	0f		 DB	 15			; 0000000fH
  0032c	0f		 DB	 15			; 0000000fH
  0032d	0f		 DB	 15			; 0000000fH
  0032e	09		 DB	 9
  0032f	0f		 DB	 15			; 0000000fH
  00330	0f		 DB	 15			; 0000000fH
  00331	0f		 DB	 15			; 0000000fH
  00332	0f		 DB	 15			; 0000000fH
  00333	0f		 DB	 15			; 0000000fH
  00334	0f		 DB	 15			; 0000000fH
  00335	0f		 DB	 15			; 0000000fH
  00336	0f		 DB	 15			; 0000000fH
  00337	0f		 DB	 15			; 0000000fH
  00338	0a		 DB	 10			; 0000000aH
  00339	0f		 DB	 15			; 0000000fH
  0033a	0f		 DB	 15			; 0000000fH
  0033b	0f		 DB	 15			; 0000000fH
  0033c	0f		 DB	 15			; 0000000fH
  0033d	0f		 DB	 15			; 0000000fH
  0033e	0f		 DB	 15			; 0000000fH
  0033f	0f		 DB	 15			; 0000000fH
  00340	0f		 DB	 15			; 0000000fH
  00341	0f		 DB	 15			; 0000000fH
  00342	0b		 DB	 11			; 0000000bH
  00343	0f		 DB	 15			; 0000000fH
  00344	0f		 DB	 15			; 0000000fH
  00345	0f		 DB	 15			; 0000000fH
  00346	0f		 DB	 15			; 0000000fH
  00347	0f		 DB	 15			; 0000000fH
  00348	0f		 DB	 15			; 0000000fH
  00349	0f		 DB	 15			; 0000000fH
  0034a	0f		 DB	 15			; 0000000fH
  0034b	0f		 DB	 15			; 0000000fH
  0034c	0c		 DB	 12			; 0000000cH
  0034d	0f		 DB	 15			; 0000000fH
  0034e	0f		 DB	 15			; 0000000fH
  0034f	0f		 DB	 15			; 0000000fH
  00350	0f		 DB	 15			; 0000000fH
  00351	0f		 DB	 15			; 0000000fH
  00352	0f		 DB	 15			; 0000000fH
  00353	0f		 DB	 15			; 0000000fH
  00354	0f		 DB	 15			; 0000000fH
  00355	0f		 DB	 15			; 0000000fH
  00356	0d		 DB	 13			; 0000000dH
  00357	0f		 DB	 15			; 0000000fH
  00358	0f		 DB	 15			; 0000000fH
  00359	0f		 DB	 15			; 0000000fH
  0035a	0f		 DB	 15			; 0000000fH
  0035b	0f		 DB	 15			; 0000000fH
  0035c	0f		 DB	 15			; 0000000fH
  0035d	0f		 DB	 15			; 0000000fH
  0035e	0f		 DB	 15			; 0000000fH
  0035f	0f		 DB	 15			; 0000000fH
  00360	0e		 DB	 14			; 0000000eH
  00361	0f		 DB	 15			; 0000000fH
  00362	0f		 DB	 15			; 0000000fH
  00363	0f		 DB	 15			; 0000000fH
  00364	0f		 DB	 15			; 0000000fH
  00365	0f		 DB	 15			; 0000000fH
  00366	0f		 DB	 15			; 0000000fH
  00367	0f		 DB	 15			; 0000000fH
  00368	0f		 DB	 15			; 0000000fH
  00369	0f		 DB	 15			; 0000000fH
  0036a	0e		 DB	 14			; 0000000eH
  0036b	0f		 DB	 15			; 0000000fH
  0036c	0f		 DB	 15			; 0000000fH
  0036d	0f		 DB	 15			; 0000000fH
  0036e	0f		 DB	 15			; 0000000fH
  0036f	0f		 DB	 15			; 0000000fH
  00370	0f		 DB	 15			; 0000000fH
  00371	0f		 DB	 15			; 0000000fH
  00372	0f		 DB	 15			; 0000000fH
  00373	0f		 DB	 15			; 0000000fH
  00374	0e		 DB	 14			; 0000000eH
  00375	0f 1f 00	 npad	 3
$LN82@Vietnam_Co:
  00378	00 00 00 00	 DD	 $LN34@Vietnam_Co
  0037c	00 00 00 00	 DD	 $LN6@Vietnam_Co
  00380	00 00 00 00	 DD	 $LN7@Vietnam_Co
  00384	00 00 00 00	 DD	 $LN9@Vietnam_Co
  00388	00 00 00 00	 DD	 $LN11@Vietnam_Co
  0038c	00 00 00 00	 DD	 $LN13@Vietnam_Co
  00390	00 00 00 00	 DD	 $LN15@Vietnam_Co
  00394	00 00 00 00	 DD	 $LN17@Vietnam_Co
  00398	00 00 00 00	 DD	 $LN19@Vietnam_Co
  0039c	00 00 00 00	 DD	 $LN21@Vietnam_Co
  003a0	00 00 00 00	 DD	 $LN23@Vietnam_Co
  003a4	00 00 00 00	 DD	 $LN25@Vietnam_Co
  003a8	00 00 00 00	 DD	 $LN27@Vietnam_Co
  003ac	00 00 00 00	 DD	 $LN29@Vietnam_Co
  003b0	00 00 00 00	 DD	 $LN72@Vietnam_Co
  003b4	00 00 00 00	 DD	 $LN2@Vietnam_Co
$LN81@Vietnam_Co:
  003b8	00		 DB	 0
  003b9	0f		 DB	 15			; 0000000fH
  003ba	0f		 DB	 15			; 0000000fH
  003bb	0f		 DB	 15			; 0000000fH
  003bc	0f		 DB	 15			; 0000000fH
  003bd	0f		 DB	 15			; 0000000fH
  003be	0f		 DB	 15			; 0000000fH
  003bf	0f		 DB	 15			; 0000000fH
  003c0	0f		 DB	 15			; 0000000fH
  003c1	0f		 DB	 15			; 0000000fH
  003c2	01		 DB	 1
  003c3	0f		 DB	 15			; 0000000fH
  003c4	0f		 DB	 15			; 0000000fH
  003c5	0f		 DB	 15			; 0000000fH
  003c6	0f		 DB	 15			; 0000000fH
  003c7	0f		 DB	 15			; 0000000fH
  003c8	0f		 DB	 15			; 0000000fH
  003c9	0f		 DB	 15			; 0000000fH
  003ca	0f		 DB	 15			; 0000000fH
  003cb	0f		 DB	 15			; 0000000fH
  003cc	02		 DB	 2
  003cd	0f		 DB	 15			; 0000000fH
  003ce	0f		 DB	 15			; 0000000fH
  003cf	0f		 DB	 15			; 0000000fH
  003d0	0f		 DB	 15			; 0000000fH
  003d1	0f		 DB	 15			; 0000000fH
  003d2	0f		 DB	 15			; 0000000fH
  003d3	0f		 DB	 15			; 0000000fH
  003d4	0f		 DB	 15			; 0000000fH
  003d5	0f		 DB	 15			; 0000000fH
  003d6	03		 DB	 3
  003d7	0f		 DB	 15			; 0000000fH
  003d8	0f		 DB	 15			; 0000000fH
  003d9	0f		 DB	 15			; 0000000fH
  003da	0f		 DB	 15			; 0000000fH
  003db	0f		 DB	 15			; 0000000fH
  003dc	0f		 DB	 15			; 0000000fH
  003dd	0f		 DB	 15			; 0000000fH
  003de	0f		 DB	 15			; 0000000fH
  003df	0f		 DB	 15			; 0000000fH
  003e0	04		 DB	 4
  003e1	0f		 DB	 15			; 0000000fH
  003e2	0f		 DB	 15			; 0000000fH
  003e3	0f		 DB	 15			; 0000000fH
  003e4	0f		 DB	 15			; 0000000fH
  003e5	0f		 DB	 15			; 0000000fH
  003e6	0f		 DB	 15			; 0000000fH
  003e7	0f		 DB	 15			; 0000000fH
  003e8	0f		 DB	 15			; 0000000fH
  003e9	0f		 DB	 15			; 0000000fH
  003ea	05		 DB	 5
  003eb	0f		 DB	 15			; 0000000fH
  003ec	0f		 DB	 15			; 0000000fH
  003ed	0f		 DB	 15			; 0000000fH
  003ee	0f		 DB	 15			; 0000000fH
  003ef	0f		 DB	 15			; 0000000fH
  003f0	0f		 DB	 15			; 0000000fH
  003f1	0f		 DB	 15			; 0000000fH
  003f2	0f		 DB	 15			; 0000000fH
  003f3	0f		 DB	 15			; 0000000fH
  003f4	06		 DB	 6
  003f5	0f		 DB	 15			; 0000000fH
  003f6	0f		 DB	 15			; 0000000fH
  003f7	0f		 DB	 15			; 0000000fH
  003f8	0f		 DB	 15			; 0000000fH
  003f9	0f		 DB	 15			; 0000000fH
  003fa	0f		 DB	 15			; 0000000fH
  003fb	0f		 DB	 15			; 0000000fH
  003fc	0f		 DB	 15			; 0000000fH
  003fd	0f		 DB	 15			; 0000000fH
  003fe	07		 DB	 7
  003ff	0f		 DB	 15			; 0000000fH
  00400	0f		 DB	 15			; 0000000fH
  00401	0f		 DB	 15			; 0000000fH
  00402	0f		 DB	 15			; 0000000fH
  00403	0f		 DB	 15			; 0000000fH
  00404	0f		 DB	 15			; 0000000fH
  00405	0f		 DB	 15			; 0000000fH
  00406	0f		 DB	 15			; 0000000fH
  00407	0f		 DB	 15			; 0000000fH
  00408	08		 DB	 8
  00409	0f		 DB	 15			; 0000000fH
  0040a	0f		 DB	 15			; 0000000fH
  0040b	0f		 DB	 15			; 0000000fH
  0040c	0f		 DB	 15			; 0000000fH
  0040d	0f		 DB	 15			; 0000000fH
  0040e	0f		 DB	 15			; 0000000fH
  0040f	0f		 DB	 15			; 0000000fH
  00410	0f		 DB	 15			; 0000000fH
  00411	0f		 DB	 15			; 0000000fH
  00412	09		 DB	 9
  00413	0f		 DB	 15			; 0000000fH
  00414	0f		 DB	 15			; 0000000fH
  00415	0f		 DB	 15			; 0000000fH
  00416	0f		 DB	 15			; 0000000fH
  00417	0f		 DB	 15			; 0000000fH
  00418	0f		 DB	 15			; 0000000fH
  00419	0f		 DB	 15			; 0000000fH
  0041a	0f		 DB	 15			; 0000000fH
  0041b	0f		 DB	 15			; 0000000fH
  0041c	09		 DB	 9
  0041d	0f		 DB	 15			; 0000000fH
  0041e	0f		 DB	 15			; 0000000fH
  0041f	0f		 DB	 15			; 0000000fH
  00420	0f		 DB	 15			; 0000000fH
  00421	0f		 DB	 15			; 0000000fH
  00422	0f		 DB	 15			; 0000000fH
  00423	0f		 DB	 15			; 0000000fH
  00424	0f		 DB	 15			; 0000000fH
  00425	0f		 DB	 15			; 0000000fH
  00426	0a		 DB	 10			; 0000000aH
  00427	0f		 DB	 15			; 0000000fH
  00428	0f		 DB	 15			; 0000000fH
  00429	0f		 DB	 15			; 0000000fH
  0042a	0f		 DB	 15			; 0000000fH
  0042b	0f		 DB	 15			; 0000000fH
  0042c	0f		 DB	 15			; 0000000fH
  0042d	0f		 DB	 15			; 0000000fH
  0042e	0f		 DB	 15			; 0000000fH
  0042f	0f		 DB	 15			; 0000000fH
  00430	0a		 DB	 10			; 0000000aH
  00431	0f		 DB	 15			; 0000000fH
  00432	0f		 DB	 15			; 0000000fH
  00433	0f		 DB	 15			; 0000000fH
  00434	0f		 DB	 15			; 0000000fH
  00435	0f		 DB	 15			; 0000000fH
  00436	0f		 DB	 15			; 0000000fH
  00437	0f		 DB	 15			; 0000000fH
  00438	0f		 DB	 15			; 0000000fH
  00439	0f		 DB	 15			; 0000000fH
  0043a	0b		 DB	 11			; 0000000bH
  0043b	0f		 DB	 15			; 0000000fH
  0043c	0f		 DB	 15			; 0000000fH
  0043d	0f		 DB	 15			; 0000000fH
  0043e	0f		 DB	 15			; 0000000fH
  0043f	0f		 DB	 15			; 0000000fH
  00440	0f		 DB	 15			; 0000000fH
  00441	0f		 DB	 15			; 0000000fH
  00442	0f		 DB	 15			; 0000000fH
  00443	0f		 DB	 15			; 0000000fH
  00444	0b		 DB	 11			; 0000000bH
  00445	0f		 DB	 15			; 0000000fH
  00446	0f		 DB	 15			; 0000000fH
  00447	0f		 DB	 15			; 0000000fH
  00448	0f		 DB	 15			; 0000000fH
  00449	0f		 DB	 15			; 0000000fH
  0044a	0f		 DB	 15			; 0000000fH
  0044b	0f		 DB	 15			; 0000000fH
  0044c	0f		 DB	 15			; 0000000fH
  0044d	0f		 DB	 15			; 0000000fH
  0044e	0c		 DB	 12			; 0000000cH
  0044f	0f		 DB	 15			; 0000000fH
  00450	0f		 DB	 15			; 0000000fH
  00451	0f		 DB	 15			; 0000000fH
  00452	0f		 DB	 15			; 0000000fH
  00453	0f		 DB	 15			; 0000000fH
  00454	0f		 DB	 15			; 0000000fH
  00455	0f		 DB	 15			; 0000000fH
  00456	0f		 DB	 15			; 0000000fH
  00457	0f		 DB	 15			; 0000000fH
  00458	0c		 DB	 12			; 0000000cH
  00459	0f		 DB	 15			; 0000000fH
  0045a	0f		 DB	 15			; 0000000fH
  0045b	0f		 DB	 15			; 0000000fH
  0045c	0f		 DB	 15			; 0000000fH
  0045d	0f		 DB	 15			; 0000000fH
  0045e	0f		 DB	 15			; 0000000fH
  0045f	0f		 DB	 15			; 0000000fH
  00460	0f		 DB	 15			; 0000000fH
  00461	0f		 DB	 15			; 0000000fH
  00462	0d		 DB	 13			; 0000000dH
  00463	0f		 DB	 15			; 0000000fH
  00464	0f		 DB	 15			; 0000000fH
  00465	0f		 DB	 15			; 0000000fH
  00466	0f		 DB	 15			; 0000000fH
  00467	0f		 DB	 15			; 0000000fH
  00468	0f		 DB	 15			; 0000000fH
  00469	0f		 DB	 15			; 0000000fH
  0046a	0f		 DB	 15			; 0000000fH
  0046b	0f		 DB	 15			; 0000000fH
  0046c	0d		 DB	 13			; 0000000dH
  0046d	0f		 DB	 15			; 0000000fH
  0046e	0f		 DB	 15			; 0000000fH
  0046f	0f		 DB	 15			; 0000000fH
  00470	0f		 DB	 15			; 0000000fH
  00471	0f		 DB	 15			; 0000000fH
  00472	0f		 DB	 15			; 0000000fH
  00473	0f		 DB	 15			; 0000000fH
  00474	0f		 DB	 15			; 0000000fH
  00475	0f		 DB	 15			; 0000000fH
  00476	0e		 DB	 14			; 0000000eH
  00477	0f		 DB	 15			; 0000000fH
  00478	0f		 DB	 15			; 0000000fH
  00479	0f		 DB	 15			; 0000000fH
  0047a	0f		 DB	 15			; 0000000fH
  0047b	0f		 DB	 15			; 0000000fH
  0047c	0f		 DB	 15			; 0000000fH
  0047d	0f		 DB	 15			; 0000000fH
  0047e	0f		 DB	 15			; 0000000fH
  0047f	0f		 DB	 15			; 0000000fH
  00480	0e		 DB	 14			; 0000000eH
?Vietnam_ConvertWeaponVnum@@YAKK@Z ENDP			; Vietnam_ConvertWeaponVnum
_TEXT	ENDS
; Function compile flags: /Ogtp
; File C:\Users\flourine\Desktop\Xantios\client-src\Code\GameLib\ActorInstanceAttach.cpp
;	COMDAT ?SetQuiverEffectID@CActorInstance@@QAEXK@Z
_TEXT	SEGMENT
_dwEffectID$ = 8					; size = 4
?SetQuiverEffectID@CActorInstance@@QAEXK@Z PROC		; CActorInstance::SetQuiverEffectID, COMDAT
; _this$ = ecx

; 946  : {

  00000	55		 push	 ebp
  00001	8b ec		 mov	 ebp, esp

; 947  : 	m_dwQuiverEffectID = dwEffectID;

  00003	8b 45 08	 mov	 eax, DWORD PTR _dwEffectID$[ebp]
  00006	89 81 c8 05 00
	00		 mov	 DWORD PTR [ecx+1480], eax

; 948  : }

  0000c	5d		 pop	 ebp
  0000d	c2 04 00	 ret	 4
?SetQuiverEffectID@CActorInstance@@QAEXK@Z ENDP		; CActorInstance::SetQuiverEffectID
_TEXT	ENDS
; Function compile flags: /Ogtp
; File C:\Users\flourine\Desktop\Xantios\client-src\Code\GameLib\ActorInstanceAttach.cpp
;	COMDAT ?SetQuiverEquipped@CActorInstance@@QAEX_N@Z
_TEXT	SEGMENT
_bEquipped$ = 8						; size = 1
?SetQuiverEquipped@CActorInstance@@QAEX_N@Z PROC	; CActorInstance::SetQuiverEquipped, COMDAT
; _this$ = ecx

; 942  : {

  00000	55		 push	 ebp
  00001	8b ec		 mov	 ebp, esp

; 943  : 	m_bIsQuiverEquipped = bEquipped;

  00003	8a 45 08	 mov	 al, BYTE PTR _bEquipped$[ebp]
  00006	88 81 c4 05 00
	00		 mov	 BYTE PTR [ecx+1476], al

; 944  : }

  0000c	5d		 pop	 ebp
  0000d	c2 04 00	 ret	 4
?SetQuiverEquipped@CActorInstance@@QAEX_N@Z ENDP	; CActorInstance::SetQuiverEquipped
_TEXT	ENDS
; Function compile flags: /Ogtp
; File C:\Program Files\Microsoft Visual Studio\2022\Community\VC\Tools\MSVC\14.34.31933\include\list
; File C:\Program Files\Microsoft Visual Studio\2022\Community\VC\Tools\MSVC\14.34.31933\include\xmemory
; File C:\Program Files\Microsoft Visual Studio\2022\Community\VC\Tools\MSVC\14.34.31933\include\list
; File C:\Program Files\Microsoft Visual Studio\2022\Community\VC\Tools\MSVC\14.34.31933\include\xmemory
; File C:\Program Files\Microsoft Visual Studio\2022\Community\VC\Tools\MSVC\14.34.31933\include\list
;	COMDAT ?push_back@?$list@UTAttachingEffect@CActorInstance@@V?$allocator@UTAttachingEffect@CActorInstance@@@std@@@std@@QAEXABUTAttachingEffect@CActorInstance@@@Z
_TEXT	SEGMENT
__Op$2 = -20						; size = 8
__$EHRec$ = -12						; size = 12
__Val$ = 8						; size = 4
?push_back@?$list@UTAttachingEffect@CActorInstance@@V?$allocator@UTAttachingEffect@CActorInstance@@@std@@@std@@QAEXABUTAttachingEffect@CActorInstance@@@Z PROC ; std::list<CActorInstance::TAttachingEffect,std::allocator<CActorInstance::TAttachingEffect> >::push_back, COMDAT
; _this$ = ecx

; 1255 :     void push_back(const _Ty& _Val) {

  00000	55		 push	 ebp
  00001	8b ec		 mov	 ebp, esp
  00003	6a ff		 push	 -1
  00005	68 00 00 00 00	 push	 __ehhandler$?push_back@?$list@UTAttachingEffect@CActorInstance@@V?$allocator@UTAttachingEffect@CActorInstance@@@std@@@std@@QAEXABUTAttachingEffect@CActorInstance@@@Z
  0000a	64 a1 00 00 00
	00		 mov	 eax, DWORD PTR fs:0
  00010	50		 push	 eax
  00011	83 ec 08	 sub	 esp, 8
  00014	56		 push	 esi
  00015	57		 push	 edi
  00016	a1 00 00 00 00	 mov	 eax, DWORD PTR ___security_cookie
  0001b	33 c5		 xor	 eax, ebp
  0001d	50		 push	 eax
  0001e	8d 45 f4	 lea	 eax, DWORD PTR __$EHRec$[ebp]
  00021	64 a3 00 00 00
	00		 mov	 DWORD PTR fs:0, eax
  00027	8b f1		 mov	 esi, ecx

; 1012 :         if (_Mysize == max_size()) {

  00029	81 7e 04 aa aa
	aa 02		 cmp	 DWORD PTR [esi+4], 44739242 ; 02aaaaaaH

; 1256 :         _Emplace(_Mypair._Myval2._Myhead, _Val);

  00030	8b 3e		 mov	 edi, DWORD PTR [esi]

; 1012 :         if (_Mysize == max_size()) {

  00032	74 74		 je	 SHORT $LN64@push_back
; File C:\Program Files\Microsoft Visual Studio\2022\Community\VC\Tools\MSVC\14.34.31933\include\xmemory

; 1005 :     _CONSTEXPR20 explicit _Alloc_construct_ptr(_Alloc& _Al_) : _Al(_Al_), _Ptr(nullptr) {}

  00034	89 75 ec	 mov	 DWORD PTR __Op$2[ebp], esi

; 77   :         return ::operator new(_Bytes);

  00037	6a 60		 push	 96			; 00000060H
; File C:\Program Files\Microsoft Visual Studio\2022\Community\VC\Tools\MSVC\14.34.31933\include\list

; 584  :     explicit _List_node_emplace_op2(_Alnode& _Al_, _Valtys&&... _Vals) : _Alloc_construct_ptr<_Alnode>(_Al_) {

  00039	c7 45 fc 00 00
	00 00		 mov	 DWORD PTR __$EHRec$[ebp+8], 0
; File C:\Program Files\Microsoft Visual Studio\2022\Community\VC\Tools\MSVC\14.34.31933\include\xmemory

; 1012 :         _Ptr = nullptr; // if allocate throws, prevents double-free

  00040	c7 45 f0 00 00
	00 00		 mov	 DWORD PTR __Op$2[ebp+4], 0

; 77   :         return ::operator new(_Bytes);

  00047	e8 00 00 00 00	 call	 ??2@YAPAXI@Z		; operator new

; 680  :             ::new (_Voidify_iter(_Ptr)) _Objty(_STD forward<_Types>(_Args)...);

  0004c	8b 4d 08	 mov	 ecx, DWORD PTR __Val$[ebp]

; 235  :         return _Traits::_Allocate(_Bytes);

  0004f	8b d0		 mov	 edx, eax

; 77   :         return ::operator new(_Bytes);

  00051	83 c4 04	 add	 esp, 4

; 680  :             ::new (_Voidify_iter(_Ptr)) _Objty(_STD forward<_Types>(_Args)...);

  00054	0f 10 01	 movups	 xmm0, XMMWORD PTR [ecx]
  00057	0f 11 42 08	 movups	 XMMWORD PTR [edx+8], xmm0
  0005b	0f 10 41 10	 movups	 xmm0, XMMWORD PTR [ecx+16]
  0005f	0f 11 42 18	 movups	 XMMWORD PTR [edx+24], xmm0
  00063	0f 10 41 20	 movups	 xmm0, XMMWORD PTR [ecx+32]
  00067	0f 11 42 28	 movups	 XMMWORD PTR [edx+40], xmm0
  0006b	0f 10 41 30	 movups	 xmm0, XMMWORD PTR [ecx+48]
  0006f	0f 11 42 38	 movups	 XMMWORD PTR [edx+56], xmm0
  00073	0f 10 41 40	 movups	 xmm0, XMMWORD PTR [ecx+64]
  00077	0f 11 42 48	 movups	 XMMWORD PTR [edx+72], xmm0
  0007b	f3 0f 7e 41 50	 movq	 xmm0, QWORD PTR [ecx+80]
  00080	66 0f d6 42 58	 movq	 QWORD PTR [edx+88], xmm0
; File C:\Program Files\Microsoft Visual Studio\2022\Community\VC\Tools\MSVC\14.34.31933\include\list

; 1017 :         ++_Mysize;

  00085	ff 46 04	 inc	 DWORD PTR [esi+4]

; 599  :         const pointer _Insert_after = _Insert_before->_Prev;

  00088	8b 47 04	 mov	 eax, DWORD PTR [edi+4]

; 600  :         _Construct_in_place(this->_Ptr->_Next, _Insert_before);

  0008b	89 3a		 mov	 DWORD PTR [edx], edi

; 601  :         _Construct_in_place(this->_Ptr->_Prev, _Insert_after);

  0008d	89 42 04	 mov	 DWORD PTR [edx+4], eax

; 602  :         const auto _Result    = this->_Ptr;
; 603  :         this->_Ptr            = pointer{};
; 604  :         _Insert_before->_Prev = _Result;

  00090	89 57 04	 mov	 DWORD PTR [edi+4], edx

; 605  :         _Insert_after->_Next  = _Result;

  00093	89 10		 mov	 DWORD PTR [eax], edx

; 1257 :     }

  00095	8b 4d f4	 mov	 ecx, DWORD PTR __$EHRec$[ebp]
  00098	64 89 0d 00 00
	00 00		 mov	 DWORD PTR fs:0, ecx
  0009f	59		 pop	 ecx
  000a0	5f		 pop	 edi
  000a1	5e		 pop	 esi
  000a2	8b e5		 mov	 esp, ebp
  000a4	5d		 pop	 ebp
  000a5	c2 04 00	 ret	 4
$LN64@push_back:

; 1013 :             _Xlength_error("list too long");

  000a8	68 00 00 00 00	 push	 OFFSET ??_C@_0O@NKNMEGII@list?5too?5long@
  000ad	e8 00 00 00 00	 call	 ?_Xlength_error@std@@YAXPBD@Z ; std::_Xlength_error
$LN62@push_back:
  000b2	cc		 int	 3
_TEXT	ENDS
;	COMDAT text$x
text$x	SEGMENT
__unwindfunclet$?push_back@?$list@UTAttachingEffect@CActorInstance@@V?$allocator@UTAttachingEffect@CActorInstance@@@std@@@std@@QAEXABUTAttachingEffect@CActorInstance@@@Z$1:
  00000	8d 4d ec	 lea	 ecx, DWORD PTR __Op$2[ebp]
  00003	e9 00 00 00 00	 jmp	 ??1?$_Alloc_construct_ptr@V?$allocator@U?$_List_node@UTAttachingEffect@CActorInstance@@PAX@std@@@std@@@std@@QAE@XZ ; std::_Alloc_construct_ptr<std::allocator<std::_List_node<CActorInstance::TAttachingEffect,void *> > >::~_Alloc_construct_ptr<std::allocator<std::_List_node<CActorInstance::TAttachingEffect,void *> > >
  00008	cc		 int	 3
  00009	cc		 int	 3
  0000a	cc		 int	 3
  0000b	cc		 int	 3
  0000c	cc		 int	 3
__ehhandler$?push_back@?$list@UTAttachingEffect@CActorInstance@@V?$allocator@UTAttachingEffect@CActorInstance@@@std@@@std@@QAEXABUTAttachingEffect@CActorInstance@@@Z:
  0000d	90		 npad	 1
  0000e	90		 npad	 1
  0000f	8b 54 24 08	 mov	 edx, DWORD PTR [esp+8]
  00013	8d 42 0c	 lea	 eax, DWORD PTR [edx+12]
  00016	8b 4a ec	 mov	 ecx, DWORD PTR [edx-20]
  00019	33 c8		 xor	 ecx, eax
  0001b	e8 00 00 00 00	 call	 @__security_check_cookie@4
  00020	b8 00 00 00 00	 mov	 eax, OFFSET __ehfuncinfo$?push_back@?$list@UTAttachingEffect@CActorInstance@@V?$allocator@UTAttachingEffect@CActorInstance@@@std@@@std@@QAEXABUTAttachingEffect@CActorInstance@@@Z
  00025	e9 00 00 00 00	 jmp	 ___CxxFrameHandler3
text$x	ENDS
?push_back@?$list@UTAttachingEffect@CActorInstance@@V?$allocator@UTAttachingEffect@CActorInstance@@@std@@@std@@QAEXABUTAttachingEffect@CActorInstance@@@Z ENDP ; std::list<CActorInstance::TAttachingEffect,std::allocator<CActorInstance::TAttachingEffect> >::push_back
; Function compile flags: /Ogtp
; File C:\Program Files\Microsoft Visual Studio\2022\Community\VC\Tools\MSVC\14.34.31933\include\vector
;	COMDAT ?_Xlength@?$vector@PAVCWeaponTrace@@V?$allocator@PAVCWeaponTrace@@@std@@@std@@CAXXZ
_TEXT	SEGMENT
?_Xlength@?$vector@PAVCWeaponTrace@@V?$allocator@PAVCWeaponTrace@@@std@@@std@@CAXXZ PROC ; std::vector<CWeaponTrace *,std::allocator<CWeaponTrace *> >::_Xlength, COMDAT

; 2201 :         _Xlength_error("vector too long");

  00000	68 00 00 00 00	 push	 OFFSET ??_C@_0BA@FOIKENOD@vector?5too?5long@
  00005	e8 00 00 00 00	 call	 ?_Xlength_error@std@@YAXPBD@Z ; std::_Xlength_error
$LN3@Xlength:
  0000a	cc		 int	 3
?_Xlength@?$vector@PAVCWeaponTrace@@V?$allocator@PAVCWeaponTrace@@@std@@@std@@CAXXZ ENDP ; std::vector<CWeaponTrace *,std::allocator<CWeaponTrace *> >::_Xlength
_TEXT	ENDS
; Function compile flags: /Ogtp
; File C:\Users\flourine\Desktop\Xantios\client-src\Code\GameLib\ActorInstanceAttach.cpp
; File C:\Program Files\Microsoft Visual Studio\2022\Community\VC\Tools\MSVC\14.34.31933\include\list
; File C:\Users\flourine\Desktop\Xantios\client-src\Code\GameLib\ActorInstanceAttach.cpp
; File C:\Program Files\Microsoft Visual Studio\2022\Community\VC\Tools\MSVC\14.34.31933\include\list
; File C:\Users\flourine\Desktop\Xantios\client-src\Code\GameLib\ActorInstanceAttach.cpp
; File C:\Program Files\Microsoft Visual Studio\2022\Community\VC\Tools\MSVC\14.34.31933\include\list
; File C:\Program Files\Microsoft Visual Studio\2022\Community\VC\Tools\MSVC\14.34.31933\include\xmemory
; File C:\Program Files\Microsoft Visual Studio\2022\Community\VC\Tools\MSVC\14.34.31933\include\list
; File C:\Users\flourine\Desktop\Xantios\client-src\Code\GameLib\ActorInstanceAttach.cpp
;	COMDAT ?__ClearAttachingEffect@CActorInstance@@IAEXXZ
_TEXT	SEGMENT
?__ClearAttachingEffect@CActorInstance@@IAEXXZ PROC	; CActorInstance::__ClearAttachingEffect, COMDAT
; _this$ = ecx

; 845  : {

  00000	56		 push	 esi
  00001	57		 push	 edi
  00002	8b f9		 mov	 edi, ecx

; 846  : 	m_bEffectInitialized = false;

  00004	c6 87 44 05 00
	00 00		 mov	 BYTE PTR [edi+1348], 0
; File C:\Program Files\Microsoft Visual Studio\2022\Community\VC\Tools\MSVC\14.34.31933\include\list

; 1087 :         return iterator(_Mypair._Myval2._Myhead->_Next, _STD addressof(_Mypair._Myval2));

  0000b	8b 87 3c 05 00
	00		 mov	 eax, DWORD PTR [edi+1340]

; 38   :     _List_unchecked_const_iterator(_Nodeptr _Pnode, const _Mylist* _Plist) noexcept : _Ptr(_Pnode) {

  00011	8b 30		 mov	 esi, DWORD PTR [eax]
  00013	3b f0		 cmp	 esi, eax
; File C:\Users\flourine\Desktop\Xantios\client-src\Code\GameLib\ActorInstanceAttach.cpp

; 849  : 	for (it = m_AttachingEffectList.begin(); it != m_AttachingEffectList.end(); ++it)

  00015	74 23		 je	 SHORT $LN3@ClearAttac
  00017	66 0f 1f 84 00
	00 00 00 00	 npad	 9
$LL21@ClearAttac:

; 850  : 	{
; 851  : 		CEffectManager::Instance().DestroyEffectInstance(it->dwEffectIndex);

  00020	ff 76 08	 push	 DWORD PTR [esi+8]
  00023	8b 0d 00 00 00
	00		 mov	 ecx, DWORD PTR ?ms_singleton@?$CSingleton@VCEffectManager@@@@0PAVCEffectManager@@A ; CSingleton<CEffectManager>::ms_singleton
  00029	e8 00 00 00 00	 call	 ?DestroyEffectInstance@CEffectManager@@QAE_NK@Z ; CEffectManager::DestroyEffectInstance
; File C:\Program Files\Microsoft Visual Studio\2022\Community\VC\Tools\MSVC\14.34.31933\include\list

; 165  :         this->_Ptr = this->_Ptr->_Next;

  0002e	8b 36		 mov	 esi, DWORD PTR [esi]

; 38   :     _List_unchecked_const_iterator(_Nodeptr _Pnode, const _Mylist* _Plist) noexcept : _Ptr(_Pnode) {

  00030	8b 87 3c 05 00
	00		 mov	 eax, DWORD PTR [edi+1340]

; 198  :         return this->_Ptr == _Right._Ptr;

  00036	3b f0		 cmp	 esi, eax
; File C:\Users\flourine\Desktop\Xantios\client-src\Code\GameLib\ActorInstanceAttach.cpp

; 849  : 	for (it = m_AttachingEffectList.begin(); it != m_AttachingEffectList.end(); ++it)

  00038	75 e6		 jne	 SHORT $LL21@ClearAttac
$LN3@ClearAttac:
; File C:\Program Files\Microsoft Visual Studio\2022\Community\VC\Tools\MSVC\14.34.31933\include\list

; 325  :         _Head->_Prev->_Next = nullptr;

  0003a	8b 48 04	 mov	 ecx, DWORD PTR [eax+4]
  0003d	c7 01 00 00 00
	00		 mov	 DWORD PTR [ecx], 0

; 326  : 
; 327  :         auto _Pnode = _Head->_Next;

  00043	8b 00		 mov	 eax, DWORD PTR [eax]

; 328  :         for (_Nodeptr _Pnext; _Pnode; _Pnode = _Pnext) {

  00045	85 c0		 test	 eax, eax
  00047	74 1a		 je	 SHORT $LN32@ClearAttac
  00049	0f 1f 80 00 00
	00 00		 npad	 7
$LL33@ClearAttac:

; 329  :             _Pnext = _Pnode->_Next;

  00050	8b 30		 mov	 esi, DWORD PTR [eax]
; File C:\Program Files\Microsoft Visual Studio\2022\Community\VC\Tools\MSVC\14.34.31933\include\xmemory

; 255  :         ::operator delete(_Ptr, _Bytes);

  00052	6a 60		 push	 96			; 00000060H
  00054	50		 push	 eax
  00055	e8 00 00 00 00	 call	 ??3@YAXPAXI@Z		; operator delete
  0005a	83 c4 08	 add	 esp, 8
; File C:\Program Files\Microsoft Visual Studio\2022\Community\VC\Tools\MSVC\14.34.31933\include\list

; 328  :         for (_Nodeptr _Pnext; _Pnode; _Pnode = _Pnext) {

  0005d	8b c6		 mov	 eax, esi
  0005f	85 f6		 test	 esi, esi
  00061	75 ed		 jne	 SHORT $LL33@ClearAttac
$LN32@ClearAttac:

; 1488 :         _My_data._Myhead->_Next = _My_data._Myhead;

  00063	8b 87 3c 05 00
	00		 mov	 eax, DWORD PTR [edi+1340]
  00069	89 00		 mov	 DWORD PTR [eax], eax

; 1489 :         _My_data._Myhead->_Prev = _My_data._Myhead;

  0006b	8b 87 3c 05 00
	00		 mov	 eax, DWORD PTR [edi+1340]
  00071	89 40 04	 mov	 DWORD PTR [eax+4], eax

; 1490 :         _My_data._Mysize        = 0;

  00074	c7 87 40 05 00
	00 00 00 00 00	 mov	 DWORD PTR [edi+1344], 0
  0007e	5f		 pop	 edi
  0007f	5e		 pop	 esi
; File C:\Users\flourine\Desktop\Xantios\client-src\Code\GameLib\ActorInstanceAttach.cpp

; 854  : }

  00080	c3		 ret	 0
?__ClearAttachingEffect@CActorInstance@@IAEXXZ ENDP	; CActorInstance::__ClearAttachingEffect
_TEXT	ENDS
; Function compile flags: /Ogtp
; File C:\Users\flourine\Desktop\Xantios\client-src\Code\GameLib\ActorInstanceAttach.cpp
;	COMDAT ?__IsWeaponTrace@CActorInstance@@IAE_NK@Z
_TEXT	SEGMENT
_weaponType$ = 8					; size = 4
?__IsWeaponTrace@CActorInstance@@IAE_NK@Z PROC		; CActorInstance::__IsWeaponTrace, COMDAT
; _this$ = ecx

; 290  : {

  00000	55		 push	 ebp
  00001	8b ec		 mov	 ebp, esp

; 291  : 	switch (weaponType)

  00003	8b 45 08	 mov	 eax, DWORD PTR _weaponType$[ebp]
  00006	83 e8 02	 sub	 eax, 2
  00009	74 10		 je	 SHORT $LN4@IsWeaponTr
  0000b	83 e8 02	 sub	 eax, 2
  0000e	74 0b		 je	 SHORT $LN4@IsWeaponTr
  00010	83 e8 01	 sub	 eax, 1
  00013	74 06		 je	 SHORT $LN4@IsWeaponTr

; 297  : 	default:
; 298  : 		return true;

  00015	b0 01		 mov	 al, 1

; 299  : 
; 300  : 	}
; 301  : }

  00017	5d		 pop	 ebp
  00018	c2 04 00	 ret	 4
$LN4@IsWeaponTr:

; 292  : 	{
; 293  : 	case CItemData::WEAPON_BELL:
; 294  : 	case CItemData::WEAPON_FAN:
; 295  : 	case CItemData::WEAPON_BOW:
; 296  : 		return false;

  0001b	32 c0		 xor	 al, al

; 299  : 
; 300  : 	}
; 301  : }

  0001d	5d		 pop	 ebp
  0001e	c2 04 00	 ret	 4
?__IsWeaponTrace@CActorInstance@@IAE_NK@Z ENDP		; CActorInstance::__IsWeaponTrace
_TEXT	ENDS
; Function compile flags: /Ogtp
; File C:\Users\flourine\Desktop\Xantios\client-src\Code\GameLib\ActorInstanceAttach.cpp
;	COMDAT ?__IsRightHandWeapon@CActorInstance@@IAE_NK@Z
_TEXT	SEGMENT
_type$ = 8						; size = 4
tv67 = 11						; size = 1
?__IsRightHandWeapon@CActorInstance@@IAE_NK@Z PROC	; CActorInstance::__IsRightHandWeapon, COMDAT
; _this$ = ecx

; 268  : {

  00000	55		 push	 ebp
  00001	8b ec		 mov	 ebp, esp

; 269  : 	if (CItemData::WEAPON_DAGGER == type || (CItemData::WEAPON_FAN == type && __IsMountingHorse()))

  00003	8b 45 08	 mov	 eax, DWORD PTR _type$[ebp]
  00006	83 f8 01	 cmp	 eax, 1
  00009	74 0a		 je	 SHORT $LN4@IsRightHan
  0000b	83 f8 05	 cmp	 eax, 5
  0000e	75 0b		 jne	 SHORT $LN2@IsRightHan
  00010	e8 00 00 00 00	 call	 ?__IsMountingHorse@CActorInstance@@IAE_NXZ ; CActorInstance::__IsMountingHorse
$LN4@IsRightHan:

; 270  : 	{
; 271  : 		return true;

  00015	b0 01		 mov	 al, 1

; 276  : 	}
; 277  : #ifdef ENABLE_WOLFMAN_CHARACTER
; 278  : 	else if (CItemData::WEAPON_CLAW == type)
; 279  : 	{
; 280  : 		return true;
; 281  : 	}
; 282  : #endif
; 283  : 	else
; 284  : 	{
; 285  : 		return true;
; 286  : 	}
; 287  : }

  00017	5d		 pop	 ebp
  00018	c2 04 00	 ret	 4
$LN2@IsRightHan:

; 272  : 	}
; 273  : 	else if (CItemData::WEAPON_BOW == type)

  0001b	83 f8 02	 cmp	 eax, 2
  0001e	75 f5		 jne	 SHORT $LN4@IsRightHan

; 274  : 	{
; 275  : 		return false;

  00020	32 c0		 xor	 al, al

; 276  : 	}
; 277  : #ifdef ENABLE_WOLFMAN_CHARACTER
; 278  : 	else if (CItemData::WEAPON_CLAW == type)
; 279  : 	{
; 280  : 		return true;
; 281  : 	}
; 282  : #endif
; 283  : 	else
; 284  : 	{
; 285  : 		return true;
; 286  : 	}
; 287  : }

  00022	5d		 pop	 ebp
  00023	c2 04 00	 ret	 4
?__IsRightHandWeapon@CActorInstance@@IAE_NK@Z ENDP	; CActorInstance::__IsRightHandWeapon
_TEXT	ENDS
; Function compile flags: /Ogtp
; File C:\Users\flourine\Desktop\Xantios\client-src\Code\GameLib\ActorInstanceAttach.cpp
;	COMDAT ?__IsLeftHandWeapon@CActorInstance@@IAE_NK@Z
_TEXT	SEGMENT
_type$ = 8						; size = 4
?__IsLeftHandWeapon@CActorInstance@@IAE_NK@Z PROC	; CActorInstance::__IsLeftHandWeapon, COMDAT
; _this$ = ecx

; 246  : {

  00000	55		 push	 ebp
  00001	8b ec		 mov	 ebp, esp

; 247  : 	if (CItemData::WEAPON_DAGGER == type || (CItemData::WEAPON_FAN == type && __IsMountingHorse()))

  00003	8b 45 08	 mov	 eax, DWORD PTR _type$[ebp]
  00006	83 f8 01	 cmp	 eax, 1
  00009	74 0e		 je	 SHORT $LN4@IsLeftHand
  0000b	83 f8 05	 cmp	 eax, 5
  0000e	75 0f		 jne	 SHORT $LN2@IsLeftHand
  00010	e8 00 00 00 00	 call	 ?__IsMountingHorse@CActorInstance@@IAE_NXZ ; CActorInstance::__IsMountingHorse
  00015	84 c0		 test	 al, al
  00017	74 0b		 je	 SHORT $LN5@IsLeftHand
$LN4@IsLeftHand:

; 248  : 	{
; 249  : 		return true;

  00019	b0 01		 mov	 al, 1

; 264  : 	}
; 265  : }

  0001b	5d		 pop	 ebp
  0001c	c2 04 00	 ret	 4
$LN2@IsLeftHand:

; 250  : 	}
; 251  : 	else if (CItemData::WEAPON_BOW == type)

  0001f	83 f8 02	 cmp	 eax, 2
  00022	74 f5		 je	 SHORT $LN4@IsLeftHand
$LN5@IsLeftHand:

; 252  : 	{
; 253  : 		return true;
; 254  : 	}
; 255  : #ifdef ENABLE_WOLFMAN_CHARACTER
; 256  : 	else if (CItemData::WEAPON_CLAW == type)
; 257  : 	{
; 258  : 		return true;
; 259  : 	}
; 260  : #endif
; 261  : 	else
; 262  : 	{
; 263  : 		return false;

  00024	32 c0		 xor	 al, al

; 264  : 	}
; 265  : }

  00026	5d		 pop	 ebp
  00027	c2 04 00	 ret	 4
?__IsLeftHandWeapon@CActorInstance@@IAE_NK@Z ENDP	; CActorInstance::__IsLeftHandWeapon
_TEXT	ENDS
; Function compile flags: /Ogtp
; File C:\Users\flourine\Desktop\Xantios\client-src\Code\GameLib\ActorInstanceAttach.cpp
; File C:\Program Files\Microsoft Visual Studio\2022\Community\VC\Tools\MSVC\14.34.31933\include\list
; File C:\Users\flourine\Desktop\Xantios\client-src\Code\GameLib\ActorInstanceAttach.cpp
; File C:\Program Files\Microsoft Visual Studio\2022\Community\VC\Tools\MSVC\14.34.31933\include\list
; File C:\Users\flourine\Desktop\Xantios\client-src\Code\GameLib\ActorInstanceAttach.cpp
;	COMDAT ?WikiRenderAllAttachingModuleEffect@CActorInstance@@QAEXXZ
_TEXT	SEGMENT
?WikiRenderAllAttachingModuleEffect@CActorInstance@@QAEXXZ PROC ; CActorInstance::WikiRenderAllAttachingModuleEffect, COMDAT
; _this$ = ecx

; 858  : {

  00000	56		 push	 esi
  00001	57		 push	 edi
; File C:\Program Files\Microsoft Visual Studio\2022\Community\VC\Tools\MSVC\14.34.31933\include\list

; 1103 :         return _Unchecked_iterator(_Mypair._Myval2._Myhead->_Next, nullptr);

  00002	8b b9 3c 05 00
	00		 mov	 edi, DWORD PTR [ecx+1340]

; 38   :     _List_unchecked_const_iterator(_Nodeptr _Pnode, const _Mylist* _Plist) noexcept : _Ptr(_Pnode) {

  00008	8b 37		 mov	 esi, DWORD PTR [edi]

; 73   :         return _Ptr == _Right._Ptr;

  0000a	3b f7		 cmp	 esi, edi
; File C:\Users\flourine\Desktop\Xantios\client-src\Code\GameLib\ActorInstanceAttach.cpp

; 859  : 	for (const auto& it : m_AttachingEffectList)

  0000c	74 16		 je	 SHORT $LN3@WikiRender
  0000e	66 90		 npad	 2
$LL13@WikiRender:

; 860  : 	{
; 861  : 		CEffectManager::Instance().WikiModuleRenderOneEffect(it.dwEffectIndex);

  00010	ff 76 08	 push	 DWORD PTR [esi+8]
  00013	8b 0d 00 00 00
	00		 mov	 ecx, DWORD PTR ?ms_singleton@?$CSingleton@VCEffectManager@@@@0PAVCEffectManager@@A ; CSingleton<CEffectManager>::ms_singleton
  00019	e8 00 00 00 00	 call	 ?WikiModuleRenderOneEffect@CEffectManager@@QAEXK@Z ; CEffectManager::WikiModuleRenderOneEffect
; File C:\Program Files\Microsoft Visual Studio\2022\Community\VC\Tools\MSVC\14.34.31933\include\list

; 51   :         _Ptr = _Ptr->_Next;

  0001e	8b 36		 mov	 esi, DWORD PTR [esi]

; 73   :         return _Ptr == _Right._Ptr;

  00020	3b f7		 cmp	 esi, edi
; File C:\Users\flourine\Desktop\Xantios\client-src\Code\GameLib\ActorInstanceAttach.cpp

; 859  : 	for (const auto& it : m_AttachingEffectList)

  00022	75 ec		 jne	 SHORT $LL13@WikiRender
$LN3@WikiRender:
  00024	5f		 pop	 edi

; 862  : 	}
; 863  : }

  00025	5e		 pop	 esi
  00026	c3		 ret	 0
?WikiRenderAllAttachingModuleEffect@CActorInstance@@QAEXXZ ENDP ; CActorInstance::WikiRenderAllAttachingModuleEffect
_TEXT	ENDS
; Function compile flags: /Ogtp
; File C:\Users\flourine\Desktop\Xantios\client-src\Code\GameLib\ActorInstanceAttach.cpp
; File C:\Program Files\Microsoft Visual Studio\2022\Community\VC\Tools\MSVC\14.34.31933\include\list
; File C:\Users\flourine\Desktop\Xantios\client-src\Code\GameLib\ActorInstanceAttach.cpp
; File C:\Program Files\Microsoft Visual Studio\2022\Community\VC\Tools\MSVC\14.34.31933\include\list
; File C:\Users\flourine\Desktop\Xantios\client-src\Code\GameLib\ActorInstanceAttach.cpp
;	COMDAT ?HideAllAttachingEffect@CActorInstance@@QAEXXZ
_TEXT	SEGMENT
?HideAllAttachingEffect@CActorInstance@@QAEXXZ PROC	; CActorInstance::HideAllAttachingEffect, COMDAT
; _this$ = ecx

; 831  : {

  00000	56		 push	 esi
  00001	57		 push	 edi
  00002	8b f9		 mov	 edi, ecx

; 832  : #ifdef ENABLE_HIDE_EFFECTS
; 833  : 	m_bIsHideEffect = true;

  00004	c6 87 45 05 00
	00 01		 mov	 BYTE PTR [edi+1349], 1
; File C:\Program Files\Microsoft Visual Studio\2022\Community\VC\Tools\MSVC\14.34.31933\include\list

; 1087 :         return iterator(_Mypair._Myval2._Myhead->_Next, _STD addressof(_Mypair._Myval2));

  0000b	8b 87 3c 05 00
	00		 mov	 eax, DWORD PTR [edi+1340]

; 38   :     _List_unchecked_const_iterator(_Nodeptr _Pnode, const _Mylist* _Plist) noexcept : _Ptr(_Pnode) {

  00011	8b 30		 mov	 esi, DWORD PTR [eax]
  00013	3b f0		 cmp	 esi, eax
; File C:\Users\flourine\Desktop\Xantios\client-src\Code\GameLib\ActorInstanceAttach.cpp

; 837  : 	for (it = m_AttachingEffectList.begin(); it != m_AttachingEffectList.end(); ++it)

  00015	74 2c		 je	 SHORT $LN3@HideAllAtt
  00017	66 0f 1f 84 00
	00 00 00 00	 npad	 9
$LL21@HideAllAtt:

; 838  : 	{
; 839  : 		CEffectManager::Instance().SelectEffectInstance(it->dwEffectIndex);

  00020	ff 76 08	 push	 DWORD PTR [esi+8]
  00023	8b 0d 00 00 00
	00		 mov	 ecx, DWORD PTR ?ms_singleton@?$CSingleton@VCEffectManager@@@@0PAVCEffectManager@@A ; CSingleton<CEffectManager>::ms_singleton
  00029	e8 00 00 00 00	 call	 ?SelectEffectInstance@CEffectManager@@QAEHK@Z ; CEffectManager::SelectEffectInstance

; 840  : 		CEffectManager::Instance().HideEffect();

  0002e	8b 0d 00 00 00
	00		 mov	 ecx, DWORD PTR ?ms_singleton@?$CSingleton@VCEffectManager@@@@0PAVCEffectManager@@A ; CSingleton<CEffectManager>::ms_singleton
  00034	e8 00 00 00 00	 call	 ?HideEffect@CEffectManager@@QAEXXZ ; CEffectManager::HideEffect
; File C:\Program Files\Microsoft Visual Studio\2022\Community\VC\Tools\MSVC\14.34.31933\include\list

; 165  :         this->_Ptr = this->_Ptr->_Next;

  00039	8b 36		 mov	 esi, DWORD PTR [esi]

; 198  :         return this->_Ptr == _Right._Ptr;

  0003b	3b b7 3c 05 00
	00		 cmp	 esi, DWORD PTR [edi+1340]
; File C:\Users\flourine\Desktop\Xantios\client-src\Code\GameLib\ActorInstanceAttach.cpp

; 837  : 	for (it = m_AttachingEffectList.begin(); it != m_AttachingEffectList.end(); ++it)

  00041	75 dd		 jne	 SHORT $LL21@HideAllAtt
$LN3@HideAllAtt:
  00043	5f		 pop	 edi

; 841  : 	}
; 842  : }

  00044	5e		 pop	 esi
  00045	c3		 ret	 0
?HideAllAttachingEffect@CActorInstance@@QAEXXZ ENDP	; CActorInstance::HideAllAttachingEffect
_TEXT	ENDS
; Function compile flags: /Ogtp
; File C:\Users\flourine\Desktop\Xantios\client-src\Code\GameLib\ActorInstanceAttach.cpp
; File C:\Program Files\Microsoft Visual Studio\2022\Community\VC\Tools\MSVC\14.34.31933\include\list
; File C:\Users\flourine\Desktop\Xantios\client-src\Code\GameLib\ActorInstanceAttach.cpp
; File C:\Program Files\Microsoft Visual Studio\2022\Community\VC\Tools\MSVC\14.34.31933\include\list
; File C:\Users\flourine\Desktop\Xantios\client-src\Code\GameLib\ActorInstanceAttach.cpp
;	COMDAT ?ShowAllAttachingEffect@CActorInstance@@QAEXXZ
_TEXT	SEGMENT
?ShowAllAttachingEffect@CActorInstance@@QAEXXZ PROC	; CActorInstance::ShowAllAttachingEffect, COMDAT
; _this$ = ecx

; 817  : {

  00000	56		 push	 esi
  00001	57		 push	 edi
  00002	8b f9		 mov	 edi, ecx

; 818  : #ifdef ENABLE_HIDE_EFFECTS
; 819  : 	m_bIsHideEffect = false;

  00004	c6 87 45 05 00
	00 00		 mov	 BYTE PTR [edi+1349], 0
; File C:\Program Files\Microsoft Visual Studio\2022\Community\VC\Tools\MSVC\14.34.31933\include\list

; 1087 :         return iterator(_Mypair._Myval2._Myhead->_Next, _STD addressof(_Mypair._Myval2));

  0000b	8b 87 3c 05 00
	00		 mov	 eax, DWORD PTR [edi+1340]

; 38   :     _List_unchecked_const_iterator(_Nodeptr _Pnode, const _Mylist* _Plist) noexcept : _Ptr(_Pnode) {

  00011	8b 30		 mov	 esi, DWORD PTR [eax]
  00013	3b f0		 cmp	 esi, eax
; File C:\Users\flourine\Desktop\Xantios\client-src\Code\GameLib\ActorInstanceAttach.cpp

; 823  : 	for (it = m_AttachingEffectList.begin(); it != m_AttachingEffectList.end(); ++it)

  00015	74 2c		 je	 SHORT $LN3@ShowAllAtt
  00017	66 0f 1f 84 00
	00 00 00 00	 npad	 9
$LL21@ShowAllAtt:

; 824  : 	{
; 825  : 		CEffectManager::Instance().SelectEffectInstance(it->dwEffectIndex);

  00020	ff 76 08	 push	 DWORD PTR [esi+8]
  00023	8b 0d 00 00 00
	00		 mov	 ecx, DWORD PTR ?ms_singleton@?$CSingleton@VCEffectManager@@@@0PAVCEffectManager@@A ; CSingleton<CEffectManager>::ms_singleton
  00029	e8 00 00 00 00	 call	 ?SelectEffectInstance@CEffectManager@@QAEHK@Z ; CEffectManager::SelectEffectInstance

; 826  : 		CEffectManager::Instance().ShowEffect();

  0002e	8b 0d 00 00 00
	00		 mov	 ecx, DWORD PTR ?ms_singleton@?$CSingleton@VCEffectManager@@@@0PAVCEffectManager@@A ; CSingleton<CEffectManager>::ms_singleton
  00034	e8 00 00 00 00	 call	 ?ShowEffect@CEffectManager@@QAEXXZ ; CEffectManager::ShowEffect
; File C:\Program Files\Microsoft Visual Studio\2022\Community\VC\Tools\MSVC\14.34.31933\include\list

; 165  :         this->_Ptr = this->_Ptr->_Next;

  00039	8b 36		 mov	 esi, DWORD PTR [esi]

; 198  :         return this->_Ptr == _Right._Ptr;

  0003b	3b b7 3c 05 00
	00		 cmp	 esi, DWORD PTR [edi+1340]
; File C:\Users\flourine\Desktop\Xantios\client-src\Code\GameLib\ActorInstanceAttach.cpp

; 823  : 	for (it = m_AttachingEffectList.begin(); it != m_AttachingEffectList.end(); ++it)

  00041	75 dd		 jne	 SHORT $LL21@ShowAllAtt
$LN3@ShowAllAtt:
  00043	5f		 pop	 edi

; 827  : 	}
; 828  : }

  00044	5e		 pop	 esi
  00045	c3		 ret	 0
?ShowAllAttachingEffect@CActorInstance@@QAEXXZ ENDP	; CActorInstance::ShowAllAttachingEffect
_TEXT	ENDS
; Function compile flags: /Ogtp
; File C:\Users\flourine\Desktop\Xantios\client-src\Code\GameLib\ActorInstanceAttach.cpp
; File C:\Program Files\Microsoft Visual Studio\2022\Community\VC\Tools\MSVC\14.34.31933\include\algorithm
; File C:\Users\flourine\Desktop\Xantios\client-src\Code\GameLib\ActorInstanceAttach.cpp
; File C:\Program Files\Microsoft Visual Studio\2022\Community\VC\Tools\MSVC\14.34.31933\include\vector
; File C:\Program Files\Microsoft Visual Studio\2022\Community\VC\Tools\MSVC\14.34.31933\include\algorithm
; File C:\Program Files\Microsoft Visual Studio\2022\Community\VC\Tools\MSVC\14.34.31933\include\type_traits
; File C:\Program Files\Microsoft Visual Studio\2022\Community\VC\Tools\MSVC\14.34.31933\include\algorithm
; File C:\Users\flourine\Desktop\Xantios\client-src\Code\GameLib\ActorInstanceAttach.cpp
;	COMDAT ?UseAlphaWeaponTrace@CActorInstance@@QAEXXZ
_TEXT	SEGMENT
?UseAlphaWeaponTrace@CActorInstance@@QAEXXZ PROC	; CActorInstance::UseAlphaWeaponTrace, COMDAT
; _this$ = ecx

; 751  : {

  00000	56		 push	 esi
; File C:\Program Files\Microsoft Visual Studio\2022\Community\VC\Tools\MSVC\14.34.31933\include\algorithm

; 265  :     for (; _UFirst != _ULast; ++_UFirst) {

  00001	8b b1 b8 03 00
	00		 mov	 esi, DWORD PTR [ecx+952]
; File C:\Users\flourine\Desktop\Xantios\client-src\Code\GameLib\ActorInstanceAttach.cpp

; 751  : {

  00007	57		 push	 edi
; File C:\Program Files\Microsoft Visual Studio\2022\Community\VC\Tools\MSVC\14.34.31933\include\vector

; 41   :     _CONSTEXPR20 _Vector_const_iterator(_Tptr _Parg, const _Container_base* _Pvector) noexcept : _Ptr(_Parg) {

  00008	8b b9 bc 03 00
	00		 mov	 edi, DWORD PTR [ecx+956]
; File C:\Program Files\Microsoft Visual Studio\2022\Community\VC\Tools\MSVC\14.34.31933\include\algorithm

; 265  :     for (; _UFirst != _ULast; ++_UFirst) {

  0000e	3b f7		 cmp	 esi, edi
  00010	74 0e		 je	 SHORT $LN21@UseAlphaWe
$LL22@UseAlphaWe:
; File C:\Program Files\Microsoft Visual Studio\2022\Community\VC\Tools\MSVC\14.34.31933\include\type_traits

; 1578 :         return ((*static_cast<_Ty1&&>(_Arg1)).*_Obj)(static_cast<_Types2&&>(_Args2)...);

  00012	8b 0e		 mov	 ecx, DWORD PTR [esi]
  00014	e8 00 00 00 00	 call	 ?UseAlpha@CWeaponTrace@@QAEXXZ ; CWeaponTrace::UseAlpha
; File C:\Program Files\Microsoft Visual Studio\2022\Community\VC\Tools\MSVC\14.34.31933\include\algorithm

; 265  :     for (; _UFirst != _ULast; ++_UFirst) {

  00019	83 c6 04	 add	 esi, 4
  0001c	3b f7		 cmp	 esi, edi
  0001e	75 f2		 jne	 SHORT $LL22@UseAlphaWe
$LN21@UseAlphaWe:
  00020	5f		 pop	 edi
; File C:\Users\flourine\Desktop\Xantios\client-src\Code\GameLib\ActorInstanceAttach.cpp

; 757  : }

  00021	5e		 pop	 esi
  00022	c3		 ret	 0
?UseAlphaWeaponTrace@CActorInstance@@QAEXXZ ENDP	; CActorInstance::UseAlphaWeaponTrace
_TEXT	ENDS
; Function compile flags: /Ogtp
; File C:\Users\flourine\Desktop\Xantios\client-src\Code\GameLib\ActorInstanceAttach.cpp
; File C:\Program Files\Microsoft Visual Studio\2022\Community\VC\Tools\MSVC\14.34.31933\include\algorithm
; File C:\Users\flourine\Desktop\Xantios\client-src\Code\GameLib\ActorInstanceAttach.cpp
; File C:\Program Files\Microsoft Visual Studio\2022\Community\VC\Tools\MSVC\14.34.31933\include\vector
; File C:\Program Files\Microsoft Visual Studio\2022\Community\VC\Tools\MSVC\14.34.31933\include\algorithm
; File C:\Program Files\Microsoft Visual Studio\2022\Community\VC\Tools\MSVC\14.34.31933\include\type_traits
; File C:\Program Files\Microsoft Visual Studio\2022\Community\VC\Tools\MSVC\14.34.31933\include\algorithm
; File C:\Users\flourine\Desktop\Xantios\client-src\Code\GameLib\ActorInstanceAttach.cpp
;	COMDAT ?UseTextureWeaponTrace@CActorInstance@@QAEXXZ
_TEXT	SEGMENT
?UseTextureWeaponTrace@CActorInstance@@QAEXXZ PROC	; CActorInstance::UseTextureWeaponTrace, COMDAT
; _this$ = ecx

; 742  : {

  00000	56		 push	 esi
; File C:\Program Files\Microsoft Visual Studio\2022\Community\VC\Tools\MSVC\14.34.31933\include\algorithm

; 265  :     for (; _UFirst != _ULast; ++_UFirst) {

  00001	8b b1 b8 03 00
	00		 mov	 esi, DWORD PTR [ecx+952]
; File C:\Users\flourine\Desktop\Xantios\client-src\Code\GameLib\ActorInstanceAttach.cpp

; 742  : {

  00007	57		 push	 edi
; File C:\Program Files\Microsoft Visual Studio\2022\Community\VC\Tools\MSVC\14.34.31933\include\vector

; 41   :     _CONSTEXPR20 _Vector_const_iterator(_Tptr _Parg, const _Container_base* _Pvector) noexcept : _Ptr(_Parg) {

  00008	8b b9 bc 03 00
	00		 mov	 edi, DWORD PTR [ecx+956]
; File C:\Program Files\Microsoft Visual Studio\2022\Community\VC\Tools\MSVC\14.34.31933\include\algorithm

; 265  :     for (; _UFirst != _ULast; ++_UFirst) {

  0000e	3b f7		 cmp	 esi, edi
  00010	74 0e		 je	 SHORT $LN21@UseTexture
$LL22@UseTexture:
; File C:\Program Files\Microsoft Visual Studio\2022\Community\VC\Tools\MSVC\14.34.31933\include\type_traits

; 1578 :         return ((*static_cast<_Ty1&&>(_Arg1)).*_Obj)(static_cast<_Types2&&>(_Args2)...);

  00012	8b 0e		 mov	 ecx, DWORD PTR [esi]
  00014	e8 00 00 00 00	 call	 ?UseTexture@CWeaponTrace@@QAEXXZ ; CWeaponTrace::UseTexture
; File C:\Program Files\Microsoft Visual Studio\2022\Community\VC\Tools\MSVC\14.34.31933\include\algorithm

; 265  :     for (; _UFirst != _ULast; ++_UFirst) {

  00019	83 c6 04	 add	 esi, 4
  0001c	3b f7		 cmp	 esi, edi
  0001e	75 f2		 jne	 SHORT $LL22@UseTexture
$LN21@UseTexture:
  00020	5f		 pop	 edi
; File C:\Users\flourine\Desktop\Xantios\client-src\Code\GameLib\ActorInstanceAttach.cpp

; 748  : }

  00021	5e		 pop	 esi
  00022	c3		 ret	 0
?UseTextureWeaponTrace@CActorInstance@@QAEXXZ ENDP	; CActorInstance::UseTextureWeaponTrace
_TEXT	ENDS
; Function compile flags: /Ogtp
; File C:\Users\flourine\Desktop\Xantios\client-src\Code\GameLib\ActorInstanceAttach.cpp
; File C:\Program Files\Microsoft Visual Studio\2022\Community\VC\Tools\MSVC\14.34.31933\include\vector
; File C:\Users\flourine\Desktop\Xantios\client-src\Code\GameLib\ActorInstanceAttach.cpp
; File C:\Program Files\Microsoft Visual Studio\2022\Community\VC\Tools\MSVC\14.34.31933\include\vector
; File C:\Users\flourine\Desktop\Xantios\client-src\Code\GameLib\ActorInstanceAttach.cpp
;	COMDAT ?SetWeaponTraceTexture@CActorInstance@@QAEXPBD@Z
_TEXT	SEGMENT
_szTextureName$ = 8					; size = 4
?SetWeaponTraceTexture@CActorInstance@@QAEXPBD@Z PROC	; CActorInstance::SetWeaponTraceTexture, COMDAT
; _this$ = ecx

; 733  : {

  00000	55		 push	 ebp
  00001	8b ec		 mov	 ebp, esp
  00003	56		 push	 esi
  00004	57		 push	 edi
  00005	8b f9		 mov	 edi, ecx
; File C:\Program Files\Microsoft Visual Studio\2022\Community\VC\Tools\MSVC\14.34.31933\include\vector

; 41   :     _CONSTEXPR20 _Vector_const_iterator(_Tptr _Parg, const _Container_base* _Pvector) noexcept : _Ptr(_Parg) {

  00007	8b b7 b8 03 00
	00		 mov	 esi, DWORD PTR [edi+952]
  0000d	3b b7 bc 03 00
	00		 cmp	 esi, DWORD PTR [edi+956]
; File C:\Users\flourine\Desktop\Xantios\client-src\Code\GameLib\ActorInstanceAttach.cpp

; 735  : 	for (it = m_WeaponTraceVector.begin(); it != m_WeaponTraceVector.end(); ++it)

  00013	74 1f		 je	 SHORT $LN3@SetWeaponT
  00015	53		 push	 ebx
  00016	8b 5d 08	 mov	 ebx, DWORD PTR _szTextureName$[ebp]
  00019	0f 1f 80 00 00
	00 00		 npad	 7
$LL19@SetWeaponT:

; 736  : 	{
; 737  : 		(*it)->SetTexture(szTextureName);

  00020	8b 0e		 mov	 ecx, DWORD PTR [esi]
  00022	53		 push	 ebx
  00023	e8 00 00 00 00	 call	 ?SetTexture@CWeaponTrace@@QAEXPBD@Z ; CWeaponTrace::SetTexture
; File C:\Program Files\Microsoft Visual Studio\2022\Community\VC\Tools\MSVC\14.34.31933\include\vector

; 74   :         ++_Ptr;

  00028	83 c6 04	 add	 esi, 4

; 156  :         return _Ptr == _Right._Ptr;

  0002b	3b b7 bc 03 00
	00		 cmp	 esi, DWORD PTR [edi+956]
; File C:\Users\flourine\Desktop\Xantios\client-src\Code\GameLib\ActorInstanceAttach.cpp

; 735  : 	for (it = m_WeaponTraceVector.begin(); it != m_WeaponTraceVector.end(); ++it)

  00031	75 ed		 jne	 SHORT $LL19@SetWeaponT
  00033	5b		 pop	 ebx
$LN3@SetWeaponT:
  00034	5f		 pop	 edi

; 738  : 	}
; 739  : }

  00035	5e		 pop	 esi
  00036	5d		 pop	 ebp
  00037	c2 04 00	 ret	 4
?SetWeaponTraceTexture@CActorInstance@@QAEXPBD@Z ENDP	; CActorInstance::SetWeaponTraceTexture
_TEXT	ENDS
; Function compile flags: /Ogtp
; File C:\Users\flourine\Desktop\Xantios\client-src\Code\GameLib\ActorInstanceAttach.cpp
; File C:\Program Files\Microsoft Visual Studio\2022\Community\VC\Tools\MSVC\14.34.31933\include\xstring
; File C:\Users\flourine\Desktop\Xantios\client-src\Code\GameLib\ActorInstanceAttach.cpp
;	COMDAT ?AttachSmokeEffect@CActorInstance@@QAEKK@Z
_TEXT	SEGMENT
_eSmoke$ = 8						; size = 4
?AttachSmokeEffect@CActorInstance@@QAEKK@Z PROC		; CActorInstance::AttachSmokeEffect, COMDAT
; _this$ = ecx

; 234  : {

  00000	55		 push	 ebp
  00001	8b ec		 mov	 ebp, esp
  00003	56		 push	 esi
  00004	8b f1		 mov	 esi, ecx

; 235  : 	if (!m_pkCurRaceData)

  00006	8b 8e 64 04 00
	00		 mov	 ecx, DWORD PTR [esi+1124]
  0000c	85 c9		 test	 ecx, ecx
  0000e	75 07		 jne	 SHORT $LN2@AttachSmok

; 236  : 	{
; 237  : 		return 0;

  00010	33 c0		 xor	 eax, eax
  00012	5e		 pop	 esi

; 243  : }

  00013	5d		 pop	 ebp
  00014	c2 04 00	 ret	 4
$LN2@AttachSmok:
  00017	57		 push	 edi

; 238  : 	}
; 239  : 
; 240  : 	DWORD dwSmokeEffectID = m_pkCurRaceData->GetSmokeEffectID(eSmoke);

  00018	ff 75 08	 push	 DWORD PTR _eSmoke$[ebp]
  0001b	e8 00 00 00 00	 call	 ?GetSmokeEffectID@CRaceData@@QAEKI@Z ; CRaceData::GetSmokeEffectID

; 242  : 	return AttachEffectByID(0, m_pkCurRaceData->GetSmokeBone().c_str(), dwSmokeEffectID);

  00020	8b 8e 64 04 00
	00		 mov	 ecx, DWORD PTR [esi+1124]
  00026	8b f8		 mov	 edi, eax
  00028	e8 00 00 00 00	 call	 ?GetSmokeBone@CRaceData@@QAEABV?$basic_string@DU?$char_traits@D@std@@V?$allocator@D@2@@std@@XZ ; CRaceData::GetSmokeBone
; File C:\Program Files\Microsoft Visual Studio\2022\Community\VC\Tools\MSVC\14.34.31933\include\xstring

; 2301 :         return _BUF_SIZE <= _Myres;

  0002d	83 78 14 10	 cmp	 DWORD PTR [eax+20], 16	; 00000010H

; 2293 :         if (_Large_string_engaged()) {

  00031	72 02		 jb	 SHORT $LN7@AttachSmok

; 2294 :             _Result = _Unfancy(_Bx._Ptr);

  00033	8b 00		 mov	 eax, DWORD PTR [eax]
$LN7@AttachSmok:
; File C:\Users\flourine\Desktop\Xantios\client-src\Code\GameLib\ActorInstanceAttach.cpp

; 242  : 	return AttachEffectByID(0, m_pkCurRaceData->GetSmokeBone().c_str(), dwSmokeEffectID);

  00035	6a 00		 push	 0
  00037	51		 push	 ecx
  00038	c7 04 24 00 00
	80 3f		 mov	 DWORD PTR [esp], 1065353216 ; 3f800000H
  0003f	8b ce		 mov	 ecx, esi
  00041	6a 00		 push	 0
  00043	57		 push	 edi
  00044	50		 push	 eax
  00045	6a 00		 push	 0
  00047	e8 00 00 00 00	 call	 ?AttachEffectByID@CActorInstance@@QAEKKPBDKPBUD3DXVECTOR3@@M1@Z ; CActorInstance::AttachEffectByID
  0004c	5f		 pop	 edi
  0004d	5e		 pop	 esi

; 243  : }

  0004e	5d		 pop	 ebp
  0004f	c2 04 00	 ret	 4
?AttachSmokeEffect@CActorInstance@@QAEKK@Z ENDP		; CActorInstance::AttachSmokeEffect
_TEXT	ENDS
; Function compile flags: /Ogtp
; File C:\Users\flourine\Desktop\Xantios\client-src\Code\GameLib\ActorInstanceAttach.cpp
; File C:\Users\flourine\Desktop\Xantios\client-src\extern\include\directX\d3dx9math.inl
; File C:\Users\flourine\Desktop\Xantios\client-src\Code\GameLib\ActorInstanceAttach.cpp
;	COMDAT ?AttachEffectByID@CActorInstance@@QAEKKPBDKPBUD3DXVECTOR3@@M1@Z
_TEXT	SEGMENT
_c_pv3MeshScale$GSCopy$1$ = -96				; size = 4
_iBoneIndex$1 = -96					; size = 4
_ae$ = -92						; size = 88
__$ArrayPad$ = -4					; size = 4
_dwParentPartIndex$ = 8					; size = 4
_c_pszBoneName$ = 12					; size = 4
_dwEffectID$ = 16					; size = 4
_c_pv3Position$ = 20					; size = 4
_fParticleScale$ = 24					; size = 4
_c_pv3MeshScale$ = 28					; size = 4
?AttachEffectByID@CActorInstance@@QAEKKPBDKPBUD3DXVECTOR3@@M1@Z PROC ; CActorInstance::AttachEffectByID, COMDAT
; _this$ = ecx

; 447  : {

  00000	55		 push	 ebp
  00001	8b ec		 mov	 ebp, esp
  00003	83 ec 60	 sub	 esp, 96			; 00000060H
  00006	a1 00 00 00 00	 mov	 eax, DWORD PTR ___security_cookie
  0000b	33 c5		 xor	 eax, ebp
  0000d	89 45 fc	 mov	 DWORD PTR __$ArrayPad$[ebp], eax
  00010	8b 45 1c	 mov	 eax, DWORD PTR _c_pv3MeshScale$[ebp]
  00013	53		 push	 ebx
  00014	8b 5d 0c	 mov	 ebx, DWORD PTR _c_pszBoneName$[ebp]
  00017	56		 push	 esi
  00018	8b f1		 mov	 esi, ecx
  0001a	89 45 a0	 mov	 DWORD PTR _c_pv3MeshScale$GSCopy$1$[ebp], eax

; 448  : 	TAttachingEffect ae;
; 449  : 	ae.iLifeType = EFFECT_LIFE_INFINITE;
; 450  : 	ae.dwEndTime = 0;
; 451  : 	ae.dwModelIndex = dwParentPartIndex;

  0001d	8b 45 08	 mov	 eax, DWORD PTR _dwParentPartIndex$[ebp]

; 452  : 	ae.dwEffectIndex = CEffectManager::Instance().GetEmptyIndex();

  00020	8b 0d 00 00 00
	00		 mov	 ecx, DWORD PTR ?ms_singleton@?$CSingleton@VCEffectManager@@@@0PAVCEffectManager@@A ; CSingleton<CEffectManager>::ms_singleton
  00026	57		 push	 edi
  00027	8b 7d 14	 mov	 edi, DWORD PTR _c_pv3Position$[ebp]
  0002a	c7 45 f4 01 00
	00 00		 mov	 DWORD PTR _ae$[ebp+80], 1
  00031	c7 45 f8 00 00
	00 00		 mov	 DWORD PTR _ae$[ebp+84], 0
  00038	89 45 ac	 mov	 DWORD PTR _ae$[ebp+8], eax
  0003b	e8 00 00 00 00	 call	 ?GetEmptyIndex@CEffectManager@@QAEHXZ ; CEffectManager::GetEmptyIndex
  00040	89 45 a4	 mov	 DWORD PTR _ae$[ebp], eax

; 453  : 	ae.isAttaching = TRUE;

  00043	c7 45 f0 01 00
	00 00		 mov	 DWORD PTR _ae$[ebp+76], 1

; 454  : 	if (c_pv3Position
; 455  : #ifdef ENABLE_RENDER_TARGET_EFFECT
; 456  : 		&& !IsRenderTarget()

  0004a	85 ff		 test	 edi, edi
  0004c	74 3e		 je	 SHORT $LN2@AttachEffe
  0004e	8b ce		 mov	 ecx, esi
  00050	e8 00 00 00 00	 call	 ?IsRenderTarget@CActorInstance@@QAE_NXZ ; CActorInstance::IsRenderTarget
  00055	84 c0		 test	 al, al
  00057	75 30		 jne	 SHORT $LN16@AttachEffe

; 457  : #endif
; 458  : 		)
; 459  : 	{
; 460  : 		D3DXMatrixTranslation(&ae.matTranslation, c_pv3Position->x, c_pv3Position->y, c_pv3Position->z);

  00059	f3 0f 10 47 08	 movss	 xmm0, DWORD PTR [edi+8]
  0005e	8d 45 b0	 lea	 eax, DWORD PTR _ae$[ebp+12]
  00061	83 ec 0c	 sub	 esp, 12			; 0000000cH
  00064	f3 0f 11 44 24
	08		 movss	 DWORD PTR [esp+8], xmm0
  0006a	f3 0f 10 47 04	 movss	 xmm0, DWORD PTR [edi+4]
  0006f	f3 0f 11 44 24
	04		 movss	 DWORD PTR [esp+4], xmm0
  00075	f3 0f 10 07	 movss	 xmm0, DWORD PTR [edi]
  00079	f3 0f 11 04 24	 movss	 DWORD PTR [esp], xmm0
  0007e	50		 push	 eax
  0007f	e8 00 00 00 00	 call	 _D3DXMatrixTranslation@16

; 461  : 	}

  00084	8b 45 a4	 mov	 eax, DWORD PTR _ae$[ebp]
  00087	eb 73		 jmp	 SHORT $LN3@AttachEffe
$LN16@AttachEffe:

; 454  : 	if (c_pv3Position
; 455  : #ifdef ENABLE_RENDER_TARGET_EFFECT
; 456  : 		&& !IsRenderTarget()

  00089	8b 45 a4	 mov	 eax, DWORD PTR _ae$[ebp]
$LN2@AttachEffe:
; File C:\Users\flourine\Desktop\Xantios\client-src\extern\include\directX\d3dx9math.inl

; 2261 :     pOut->m[0][1] = pOut->m[0][2] = pOut->m[0][3] =

  0008c	c7 45 e8 00 00
	00 00		 mov	 DWORD PTR _ae$[ebp+68], 0
  00093	c7 45 e4 00 00
	00 00		 mov	 DWORD PTR _ae$[ebp+64], 0
  0009a	c7 45 e0 00 00
	00 00		 mov	 DWORD PTR _ae$[ebp+60], 0
  000a1	c7 45 dc 00 00
	00 00		 mov	 DWORD PTR _ae$[ebp+56], 0
  000a8	c7 45 d4 00 00
	00 00		 mov	 DWORD PTR _ae$[ebp+48], 0
  000af	c7 45 d0 00 00
	00 00		 mov	 DWORD PTR _ae$[ebp+44], 0
  000b6	c7 45 cc 00 00
	00 00		 mov	 DWORD PTR _ae$[ebp+40], 0
  000bd	c7 45 c8 00 00
	00 00		 mov	 DWORD PTR _ae$[ebp+36], 0
  000c4	c7 45 c0 00 00
	00 00		 mov	 DWORD PTR _ae$[ebp+28], 0
  000cb	c7 45 bc 00 00
	00 00		 mov	 DWORD PTR _ae$[ebp+24], 0
  000d2	c7 45 b8 00 00
	00 00		 mov	 DWORD PTR _ae$[ebp+20], 0
  000d9	c7 45 b4 00 00
	00 00		 mov	 DWORD PTR _ae$[ebp+16], 0

; 2262 :     pOut->m[1][0] = pOut->m[1][2] = pOut->m[1][3] =
; 2263 :     pOut->m[2][0] = pOut->m[2][1] = pOut->m[2][3] =
; 2264 :     pOut->m[3][0] = pOut->m[3][1] = pOut->m[3][2] = 0.0f;
; 2265 : 
; 2266 :     pOut->m[0][0] = pOut->m[1][1] = pOut->m[2][2] = pOut->m[3][3] = 1.0f;

  000e0	c7 45 ec 00 00
	80 3f		 mov	 DWORD PTR _ae$[ebp+72], 1065353216 ; 3f800000H
  000e7	c7 45 d8 00 00
	80 3f		 mov	 DWORD PTR _ae$[ebp+52], 1065353216 ; 3f800000H
  000ee	c7 45 c4 00 00
	80 3f		 mov	 DWORD PTR _ae$[ebp+32], 1065353216 ; 3f800000H
  000f5	c7 45 b0 00 00
	80 3f		 mov	 DWORD PTR _ae$[ebp+12], 1065353216 ; 3f800000H
$LN3@AttachEffe:
; File C:\Users\flourine\Desktop\Xantios\client-src\Code\GameLib\ActorInstanceAttach.cpp

; 467  : 	if (c_pv3MeshScale)

  000fc	8b 4d a0	 mov	 ecx, DWORD PTR _c_pv3MeshScale$GSCopy$1$[ebp]
  000ff	8b 3d 00 00 00
	00		 mov	 edi, DWORD PTR ?ms_singleton@?$CSingleton@VCEffectManager@@@@0PAVCEffectManager@@A ; CSingleton<CEffectManager>::ms_singleton
  00105	f3 0f 10 45 18	 movss	 xmm0, DWORD PTR _fParticleScale$[ebp]
  0010a	85 c9		 test	 ecx, ecx
  0010c	74 03		 je	 SHORT $LN4@AttachEffe

; 468  : 		rkEftMgr.CreateEffectInstance(ae.dwEffectIndex, dwEffectID, fParticleScale, c_pv3MeshScale);

  0010e	51		 push	 ecx
  0010f	eb 02		 jmp	 SHORT $LN17@AttachEffe
$LN4@AttachEffe:

; 469  : 	else
; 470  : 		rkEftMgr.CreateEffectInstance(ae.dwEffectIndex, dwEffectID, fParticleScale);

  00111	6a 00		 push	 0
$LN17@AttachEffe:

; 471  : 
; 472  : #ifdef ENABLE_RENDER_TARGET_EFFECT
; 473  : 	if (IsRenderTarget())

  00113	51		 push	 ecx
  00114	f3 0f 11 04 24	 movss	 DWORD PTR [esp], xmm0
  00119	8b cf		 mov	 ecx, edi
  0011b	ff 75 10	 push	 DWORD PTR _dwEffectID$[ebp]
  0011e	50		 push	 eax
  0011f	e8 00 00 00 00	 call	 ?CreateEffectInstance@CEffectManager@@QAEXKKMPBUD3DXVECTOR3@@@Z ; CEffectManager::CreateEffectInstance
  00124	8b ce		 mov	 ecx, esi
  00126	e8 00 00 00 00	 call	 ?IsRenderTarget@CActorInstance@@QAE_NXZ ; CActorInstance::IsRenderTarget
  0012b	84 c0		 test	 al, al
  0012d	74 0a		 je	 SHORT $LN6@AttachEffe

; 474  : 		rkEftMgr.SetSpecialRenderEffect(ae.dwEffectIndex);

  0012f	ff 75 a4	 push	 DWORD PTR _ae$[ebp]
  00132	8b cf		 mov	 ecx, edi
  00134	e8 00 00 00 00	 call	 ?SetSpecialRenderEffect@CEffectManager@@QAEXK@Z ; CEffectManager::SetSpecialRenderEffect
$LN6@AttachEffe:

; 475  : #endif
; 476  : 
; 477  : 	if (c_pszBoneName)

  00139	85 db		 test	 ebx, ebx
  0013b	74 1f		 je	 SHORT $LN7@AttachEffe

; 478  : 	{
; 479  : 		int iBoneIndex;
; 480  : 		if (!FindBoneIndex(dwParentPartIndex, c_pszBoneName, &iBoneIndex))

  0013d	8d 45 a0	 lea	 eax, DWORD PTR _iBoneIndex$1[ebp]
  00140	8b ce		 mov	 ecx, esi
  00142	50		 push	 eax
  00143	53		 push	 ebx
  00144	ff 75 08	 push	 DWORD PTR _dwParentPartIndex$[ebp]
  00147	e8 00 00 00 00	 call	 ?FindBoneIndex@CGraphicThingInstance@@QAE_NHPBDPAH@Z ; CGraphicThingInstance::FindBoneIndex
  0014c	8b 4d a0	 mov	 ecx, DWORD PTR _iBoneIndex$1[ebp]
  0014f	83 ca ff	 or	 edx, -1
  00152	84 c0		 test	 al, al
  00154	0f 44 ca	 cmove	 ecx, edx
  00157	89 4d a8	 mov	 DWORD PTR _ae$[ebp+4], ecx

; 481  : 		{
; 482  : 			ae.iBoneIndex = -1;
; 483  : 			//Tracef("Cannot get Bone Index\n");
; 484  : 			//assert(false && "Cannot get Bone Index");
; 485  : 		}
; 486  : 		else
; 487  : 		{
; 488  : 			ae.iBoneIndex = iBoneIndex;
; 489  : 		}
; 490  : 	}

  0015a	eb 07		 jmp	 SHORT $LN8@AttachEffe
$LN7@AttachEffe:

; 491  : 	else
; 492  : 	{
; 493  : 		ae.iBoneIndex = -1;

  0015c	c7 45 a8 ff ff
	ff ff		 mov	 DWORD PTR _ae$[ebp+4], -1
$LN8@AttachEffe:

; 494  : 	}
; 495  : 
; 496  : 	m_AttachingEffectList.push_back(ae);

  00163	8d 45 a4	 lea	 eax, DWORD PTR _ae$[ebp]
  00166	50		 push	 eax
  00167	8d 8e 3c 05 00
	00		 lea	 ecx, DWORD PTR [esi+1340]
  0016d	e8 00 00 00 00	 call	 ?push_back@?$list@UTAttachingEffect@CActorInstance@@V?$allocator@UTAttachingEffect@CActorInstance@@@std@@@std@@QAEXABUTAttachingEffect@CActorInstance@@@Z ; std::list<CActorInstance::TAttachingEffect,std::allocator<CActorInstance::TAttachingEffect> >::push_back

; 497  : 
; 498  : #ifdef ENABLE_HIDE_EFFECTS
; 499  : 	if (m_bIsHideEffect)

  00172	80 be 45 05 00
	00 00		 cmp	 BYTE PTR [esi+1349], 0
  00179	8b ce		 mov	 ecx, esi
  0017b	74 07		 je	 SHORT $LN11@AttachEffe

; 500  : 	{
; 501  : 		HideAllAttachingEffect();

  0017d	e8 00 00 00 00	 call	 ?HideAllAttachingEffect@CActorInstance@@QAEXXZ ; CActorInstance::HideAllAttachingEffect

; 502  : 	}

  00182	eb 05		 jmp	 SHORT $LN18@AttachEffe
$LN11@AttachEffe:

; 503  : 	else
; 504  : 	{
; 505  : 		ShowAllAttachingEffect();

  00184	e8 00 00 00 00	 call	 ?ShowAllAttachingEffect@CActorInstance@@QAEXXZ ; CActorInstance::ShowAllAttachingEffect
$LN18@AttachEffe:

; 506  : 	}
; 507  : #endif
; 508  : 
; 509  : 	return ae.dwEffectIndex;
; 510  : }

  00189	8b 4d fc	 mov	 ecx, DWORD PTR __$ArrayPad$[ebp]
  0018c	8b 45 a4	 mov	 eax, DWORD PTR _ae$[ebp]
  0018f	33 cd		 xor	 ecx, ebp
  00191	5f		 pop	 edi
  00192	5e		 pop	 esi
  00193	5b		 pop	 ebx
  00194	e8 00 00 00 00	 call	 @__security_check_cookie@4
  00199	8b e5		 mov	 esp, ebp
  0019b	5d		 pop	 ebp
  0019c	c2 18 00	 ret	 24			; 00000018H
?AttachEffectByID@CActorInstance@@QAEKKPBDKPBUD3DXVECTOR3@@M1@Z ENDP ; CActorInstance::AttachEffectByID
_TEXT	ENDS
; Function compile flags: /Ogtp
; File C:\Users\flourine\Desktop\Xantios\client-src\Code\GameLib\ActorInstanceAttach.cpp
; File C:\Program Files\Microsoft Visual Studio\2022\Community\VC\Tools\MSVC\14.34.31933\include\xstring
; File C:\Users\flourine\Desktop\Xantios\client-src\Code\GameLib\ActorInstanceAttach.cpp
; File C:\Program Files\Microsoft Visual Studio\2022\Community\VC\Tools\MSVC\14.34.31933\include\xstring
; File C:\Users\flourine\Desktop\Xantios\client-src\Code\GameLib\ActorInstanceAttach.cpp
; File C:\Program Files\Microsoft Visual Studio\2022\Community\VC\Tools\MSVC\14.34.31933\include\xstring
; File C:\Users\flourine\Desktop\Xantios\client-src\Code\GameLib\ActorInstanceAttach.cpp
; File C:\Program Files\Microsoft Visual Studio\2022\Community\VC\Tools\MSVC\14.34.31933\include\xstring
; File C:\Users\flourine\Desktop\Xantios\client-src\Code\GameLib\ActorInstanceAttach.cpp
; File C:\Program Files\Microsoft Visual Studio\2022\Community\VC\Tools\MSVC\14.34.31933\include\xstring
; File C:\Program Files\Microsoft Visual Studio\2022\Community\VC\Tools\MSVC\14.34.31933\include\xmemory
; File C:\Program Files\Microsoft Visual Studio\2022\Community\VC\Tools\MSVC\14.34.31933\include\xstring
; File C:\Program Files\Microsoft Visual Studio\2022\Community\VC\Tools\MSVC\14.34.31933\include\xmemory
; File C:\Users\flourine\Desktop\Xantios\client-src\Code\GameLib\ActorInstanceAttach.cpp
; File C:\Program Files\Microsoft Visual Studio\2022\Community\VC\Tools\MSVC\14.34.31933\include\xmemory
; File C:\Users\flourine\Desktop\Xantios\client-src\Code\GameLib\ActorInstanceAttach.cpp
;	COMDAT ?AttachEffectByName@CActorInstance@@QAEKKPBD0@Z
_TEXT	SEGMENT
_str$ = -40						; size = 24
__$ArrayPad$ = -16					; size = 4
__$EHRec$ = -12						; size = 12
_dwParentPartIndex$ = 8					; size = 4
_c_pszBoneName$ = 12					; size = 4
_c_pszEffectName$ = 16					; size = 4
?AttachEffectByName@CActorInstance@@QAEKKPBD0@Z PROC	; CActorInstance::AttachEffectByName, COMDAT
; _this$ = ecx

; 437  : {

  00000	55		 push	 ebp
  00001	8b ec		 mov	 ebp, esp
  00003	6a ff		 push	 -1
  00005	68 00 00 00 00	 push	 __ehhandler$?AttachEffectByName@CActorInstance@@QAEKKPBD0@Z
  0000a	64 a1 00 00 00
	00		 mov	 eax, DWORD PTR fs:0
  00010	50		 push	 eax
  00011	83 ec 1c	 sub	 esp, 28			; 0000001cH
  00014	a1 00 00 00 00	 mov	 eax, DWORD PTR ___security_cookie
  00019	33 c5		 xor	 eax, ebp
  0001b	89 45 f0	 mov	 DWORD PTR __$ArrayPad$[ebp], eax
  0001e	56		 push	 esi
  0001f	57		 push	 edi
  00020	50		 push	 eax
  00021	8d 45 f4	 lea	 eax, DWORD PTR __$EHRec$[ebp]
  00024	64 a3 00 00 00
	00		 mov	 DWORD PTR fs:0, eax
  0002a	8b f9		 mov	 edi, ecx
  0002c	8b 75 0c	 mov	 esi, DWORD PTR _c_pszBoneName$[ebp]
  0002f	0f 57 c0	 xorps	 xmm0, xmm0
  00032	8b 45 10	 mov	 eax, DWORD PTR _c_pszEffectName$[ebp]
; File C:\Program Files\Microsoft Visual Studio\2022\Community\VC\Tools\MSVC\14.34.31933\include\xstring

; 2341 :         _CONSTEXPR20 _Bxty() noexcept : _Buf() {} // user-provided, for fancy pointers

  00035	0f 11 45 d8	 movups	 XMMWORD PTR _str$[ebp], xmm0

; 4998 :         _My_data._Mysize = 0;

  00039	c7 45 e8 00 00
	00 00		 mov	 DWORD PTR _str$[ebp+16], 0

; 4999 :         _My_data._Myres  = _BUF_SIZE - 1;

  00040	c7 45 ec 0f 00
	00 00		 mov	 DWORD PTR _str$[ebp+20], 15 ; 0000000fH

; 5000 :         _My_data._Activate_SSO_buffer();
; 5001 : 
; 5002 :         // the _Traits::assign is last so the codegen doesn't think the char write can alias this
; 5003 :         _Traits::assign(_My_data._Bx._Buf[0], _Elem());

  00047	c6 45 d8 00	 mov	 BYTE PTR _str$[ebp], 0
; File C:\Users\flourine\Desktop\Xantios\client-src\Code\GameLib\ActorInstanceAttach.cpp

; 440  : 	StringPath(c_pszEffectName, str);

  0004b	8d 4d d8	 lea	 ecx, DWORD PTR _str$[ebp]
  0004e	c7 45 fc 00 00
	00 00		 mov	 DWORD PTR __$EHRec$[ebp+8], 0
  00055	51		 push	 ecx
  00056	50		 push	 eax
  00057	e8 00 00 00 00	 call	 ?StringPath@@YAXPBDAAV?$basic_string@DU?$char_traits@D@std@@V?$allocator@D@2@@std@@@Z ; StringPath
; File C:\Program Files\Microsoft Visual Studio\2022\Community\VC\Tools\MSVC\14.34.31933\include\xstring

; 2301 :         return _BUF_SIZE <= _Myres;

  0005c	83 7d ec 10	 cmp	 DWORD PTR _str$[ebp+20], 16 ; 00000010H

; 2292 :         const value_type* _Result = _Bx._Buf;

  00060	8d 45 d8	 lea	 eax, DWORD PTR _str$[ebp]
; File C:\Users\flourine\Desktop\Xantios\client-src\Code\GameLib\ActorInstanceAttach.cpp

; 441  : 	dwCRC = GetCaseCRC32(str.c_str(), str.length());

  00063	ff 75 e8	 push	 DWORD PTR _str$[ebp+16]
; File C:\Program Files\Microsoft Visual Studio\2022\Community\VC\Tools\MSVC\14.34.31933\include\xstring

; 2293 :         if (_Large_string_engaged()) {

  00066	0f 43 45 d8	 cmovae	 eax, DWORD PTR _str$[ebp]
; File C:\Users\flourine\Desktop\Xantios\client-src\Code\GameLib\ActorInstanceAttach.cpp

; 441  : 	dwCRC = GetCaseCRC32(str.c_str(), str.length());

  0006a	50		 push	 eax
  0006b	e8 00 00 00 00	 call	 ?GetCaseCRC32@@YAKPBDI@Z ; GetCaseCRC32
  00070	83 c4 10	 add	 esp, 16			; 00000010H

; 443  : 	return AttachEffectByID(dwParentPartIndex, c_pszBoneName, dwCRC);

  00073	6a 00		 push	 0
  00075	51		 push	 ecx
  00076	c7 04 24 00 00
	80 3f		 mov	 DWORD PTR [esp], 1065353216 ; 3f800000H
  0007d	8b cf		 mov	 ecx, edi
  0007f	6a 00		 push	 0
  00081	50		 push	 eax
  00082	56		 push	 esi
  00083	ff 75 08	 push	 DWORD PTR _dwParentPartIndex$[ebp]
  00086	e8 00 00 00 00	 call	 ?AttachEffectByID@CActorInstance@@QAEKKPBDKPBUD3DXVECTOR3@@M1@Z ; CActorInstance::AttachEffectByID
; File C:\Program Files\Microsoft Visual Studio\2022\Community\VC\Tools\MSVC\14.34.31933\include\xstring

; 2301 :         return _BUF_SIZE <= _Myres;

  0008b	8b 4d ec	 mov	 ecx, DWORD PTR _str$[ebp+20]
; File C:\Users\flourine\Desktop\Xantios\client-src\Code\GameLib\ActorInstanceAttach.cpp

; 443  : 	return AttachEffectByID(dwParentPartIndex, c_pszBoneName, dwCRC);

  0008e	8b f0		 mov	 esi, eax
; File C:\Program Files\Microsoft Visual Studio\2022\Community\VC\Tools\MSVC\14.34.31933\include\xstring

; 2301 :         return _BUF_SIZE <= _Myres;

  00090	83 f9 10	 cmp	 ecx, 16			; 00000010H

; 5011 :         if (_My_data._Large_string_engaged()) {

  00093	72 28		 jb	 SHORT $LN36@AttachEffe
; File C:\Program Files\Microsoft Visual Studio\2022\Community\VC\Tools\MSVC\14.34.31933\include\xmemory

; 830  :         _Deallocate<_New_alignof<_Ty>>(_Ptr, sizeof(_Ty) * _Count);

  00095	8b 55 d8	 mov	 edx, DWORD PTR _str$[ebp]
; File C:\Program Files\Microsoft Visual Studio\2022\Community\VC\Tools\MSVC\14.34.31933\include\xstring

; 5016 :             _Al.deallocate(_Ptr, _My_data._Myres + 1);

  00098	41		 inc	 ecx
; File C:\Program Files\Microsoft Visual Studio\2022\Community\VC\Tools\MSVC\14.34.31933\include\xmemory

; 830  :         _Deallocate<_New_alignof<_Ty>>(_Ptr, sizeof(_Ty) * _Count);

  00099	8b c2		 mov	 eax, edx

; 251  :         if (_Bytes >= _Big_allocation_threshold) { // boost the alignment of big allocations to help autovectorization

  0009b	81 f9 00 10 00
	00		 cmp	 ecx, 4096		; 00001000H
  000a1	72 10		 jb	 SHORT $LN46@AttachEffe

; 150  :     const uintptr_t _Ptr_container   = _Ptr_user[-1];

  000a3	8b 50 fc	 mov	 edx, DWORD PTR [eax-4]
  000a6	83 c1 23	 add	 ecx, 35			; 00000023H
  000a9	2b c2		 sub	 eax, edx

; 164  :     _STL_VERIFY(_Back_shift >= _Min_back_shift && _Back_shift <= _Non_user_size, "invalid argument");

  000ab	83 c0 fc	 add	 eax, -4			; fffffffcH
  000ae	83 f8 1f	 cmp	 eax, 31			; 0000001fH
  000b1	77 29		 ja	 SHORT $LN55@AttachEffe
$LN46@AttachEffe:

; 255  :         ::operator delete(_Ptr, _Bytes);

  000b3	51		 push	 ecx
  000b4	52		 push	 edx
  000b5	e8 00 00 00 00	 call	 ??3@YAXPAXI@Z		; operator delete
  000ba	83 c4 08	 add	 esp, 8
$LN36@AttachEffe:
; File C:\Users\flourine\Desktop\Xantios\client-src\Code\GameLib\ActorInstanceAttach.cpp

; 443  : 	return AttachEffectByID(dwParentPartIndex, c_pszBoneName, dwCRC);

  000bd	8b c6		 mov	 eax, esi

; 444  : }

  000bf	8b 4d f4	 mov	 ecx, DWORD PTR __$EHRec$[ebp]
  000c2	64 89 0d 00 00
	00 00		 mov	 DWORD PTR fs:0, ecx
  000c9	59		 pop	 ecx
  000ca	5f		 pop	 edi
  000cb	5e		 pop	 esi
  000cc	8b 4d f0	 mov	 ecx, DWORD PTR __$ArrayPad$[ebp]
  000cf	33 cd		 xor	 ecx, ebp
  000d1	e8 00 00 00 00	 call	 @__security_check_cookie@4
  000d6	8b e5		 mov	 esp, ebp
  000d8	5d		 pop	 ebp
  000d9	c2 0c 00	 ret	 12			; 0000000cH
$LN55@AttachEffe:
; File C:\Program Files\Microsoft Visual Studio\2022\Community\VC\Tools\MSVC\14.34.31933\include\xmemory

; 164  :     _STL_VERIFY(_Back_shift >= _Min_back_shift && _Back_shift <= _Non_user_size, "invalid argument");

  000dc	e8 00 00 00 00	 call	 __invalid_parameter_noinfo_noreturn
$LN53@AttachEffe:
  000e1	cc		 int	 3
_TEXT	ENDS
;	COMDAT text$x
text$x	SEGMENT
__unwindfunclet$?AttachEffectByName@CActorInstance@@QAEKKPBD0@Z$0:
  00000	8d 4d d8	 lea	 ecx, DWORD PTR _str$[ebp]
  00003	e9 00 00 00 00	 jmp	 ??1?$basic_string@DU?$char_traits@D@std@@V?$allocator@D@2@@std@@QAE@XZ ; std::basic_string<char,std::char_traits<char>,std::allocator<char> >::~basic_string<char,std::char_traits<char>,std::allocator<char> >
  00008	cc		 int	 3
  00009	cc		 int	 3
  0000a	cc		 int	 3
  0000b	cc		 int	 3
  0000c	cc		 int	 3
__ehhandler$?AttachEffectByName@CActorInstance@@QAEKKPBD0@Z:
  0000d	90		 npad	 1
  0000e	90		 npad	 1
  0000f	8b 54 24 08	 mov	 edx, DWORD PTR [esp+8]
  00013	8d 42 0c	 lea	 eax, DWORD PTR [edx+12]
  00016	8b 4a d8	 mov	 ecx, DWORD PTR [edx-40]
  00019	33 c8		 xor	 ecx, eax
  0001b	e8 00 00 00 00	 call	 @__security_check_cookie@4
  00020	8b 4a fc	 mov	 ecx, DWORD PTR [edx-4]
  00023	33 c8		 xor	 ecx, eax
  00025	e8 00 00 00 00	 call	 @__security_check_cookie@4
  0002a	b8 00 00 00 00	 mov	 eax, OFFSET __ehfuncinfo$?AttachEffectByName@CActorInstance@@QAEKKPBD0@Z
  0002f	e9 00 00 00 00	 jmp	 ___CxxFrameHandler3
text$x	ENDS
?AttachEffectByName@CActorInstance@@QAEKKPBD0@Z ENDP	; CActorInstance::AttachEffectByName
; Function compile flags: /Ogtp
; File C:\Users\flourine\Desktop\Xantios\client-src\Code\GameLib\ActorInstanceAttach.cpp
; File C:\Program Files\Microsoft Visual Studio\2022\Community\VC\Tools\MSVC\14.34.31933\include\list
; File C:\Users\flourine\Desktop\Xantios\client-src\Code\GameLib\ActorInstanceAttach.cpp
; File C:\Program Files\Microsoft Visual Studio\2022\Community\VC\Tools\MSVC\14.34.31933\include\list
; File C:\Program Files\Microsoft Visual Studio\2022\Community\VC\Tools\MSVC\14.34.31933\include\xmemory
; File C:\Program Files\Microsoft Visual Studio\2022\Community\VC\Tools\MSVC\14.34.31933\include\list
; File C:\Program Files\Microsoft Visual Studio\2022\Community\VC\Tools\MSVC\14.34.31933\include\xmemory
; File C:\Users\flourine\Desktop\Xantios\client-src\Code\GameLib\ActorInstanceAttach.cpp
; File C:\Program Files\Microsoft Visual Studio\2022\Community\VC\Tools\MSVC\14.34.31933\include\xmemory
; File C:\Users\flourine\Desktop\Xantios\client-src\Code\GameLib\ActorInstanceAttach.cpp
; File C:\Program Files\Microsoft Visual Studio\2022\Community\VC\Tools\MSVC\14.34.31933\include\list
; File C:\Users\flourine\Desktop\Xantios\client-src\Code\GameLib\ActorInstanceAttach.cpp
;	COMDAT ?DettachEffect@CActorInstance@@QAEXK@Z
_TEXT	SEGMENT
_dwEID$ = 8						; size = 4
?DettachEffect@CActorInstance@@QAEXK@Z PROC		; CActorInstance::DettachEffect, COMDAT
; _this$ = ecx

; 417  : {

  00000	55		 push	 ebp
  00001	8b ec		 mov	 ebp, esp
  00003	57		 push	 edi
  00004	8b f9		 mov	 edi, ecx
; File C:\Program Files\Microsoft Visual Studio\2022\Community\VC\Tools\MSVC\14.34.31933\include\list

; 1087 :         return iterator(_Mypair._Myval2._Myhead->_Next, _STD addressof(_Mypair._Myval2));

  00006	8b 97 3c 05 00
	00		 mov	 edx, DWORD PTR [edi+1340]

; 38   :     _List_unchecked_const_iterator(_Nodeptr _Pnode, const _Mylist* _Plist) noexcept : _Ptr(_Pnode) {

  0000c	8b 02		 mov	 eax, DWORD PTR [edx]
  0000e	3b c2		 cmp	 eax, edx
; File C:\Users\flourine\Desktop\Xantios\client-src\Code\GameLib\ActorInstanceAttach.cpp

; 420  : 	while (i != m_AttachingEffectList.end())

  00010	74 42		 je	 SHORT $LN3@DettachEff
  00012	53		 push	 ebx
  00013	8b 5d 08	 mov	 ebx, DWORD PTR _dwEID$[ebp]
  00016	56		 push	 esi
$LL2@DettachEff:

; 421  : 	{
; 422  : 		TAttachingEffect & rkAttEft = (*i);
; 423  : 
; 424  : 		if (rkAttEft.dwEffectIndex == dwEID)

  00017	8b 30		 mov	 esi, DWORD PTR [eax]
  00019	39 58 08	 cmp	 DWORD PTR [eax+8], ebx
  0001c	75 2a		 jne	 SHORT $LN4@DettachEff
; File C:\Program Files\Microsoft Visual Studio\2022\Community\VC\Tools\MSVC\14.34.31933\include\list

; 396  :         _Pnode->_Prev->_Next = _Pnode->_Next;

  0001e	8b 48 04	 mov	 ecx, DWORD PTR [eax+4]
; File C:\Program Files\Microsoft Visual Studio\2022\Community\VC\Tools\MSVC\14.34.31933\include\xmemory

; 255  :         ::operator delete(_Ptr, _Bytes);

  00021	6a 60		 push	 96			; 00000060H
  00023	50		 push	 eax
; File C:\Program Files\Microsoft Visual Studio\2022\Community\VC\Tools\MSVC\14.34.31933\include\list

; 396  :         _Pnode->_Prev->_Next = _Pnode->_Next;

  00024	89 31		 mov	 DWORD PTR [ecx], esi

; 397  :         _Pnode->_Next->_Prev = _Pnode->_Prev;

  00026	8b 10		 mov	 edx, DWORD PTR [eax]
  00028	8b 48 04	 mov	 ecx, DWORD PTR [eax+4]
  0002b	89 4a 04	 mov	 DWORD PTR [edx+4], ecx

; 398  :         --_Mysize;

  0002e	ff 8f 40 05 00
	00		 dec	 DWORD PTR [edi+1344]
; File C:\Program Files\Microsoft Visual Studio\2022\Community\VC\Tools\MSVC\14.34.31933\include\xmemory

; 255  :         ::operator delete(_Ptr, _Bytes);

  00034	e8 00 00 00 00	 call	 ??3@YAXPAXI@Z		; operator delete
; File C:\Users\flourine\Desktop\Xantios\client-src\Code\GameLib\ActorInstanceAttach.cpp

; 427  : 			CEffectManager::Instance().DestroyEffectInstance(dwEID);

  00039	8b 0d 00 00 00
	00		 mov	 ecx, DWORD PTR ?ms_singleton@?$CSingleton@VCEffectManager@@@@0PAVCEffectManager@@A ; CSingleton<CEffectManager>::ms_singleton
; File C:\Program Files\Microsoft Visual Studio\2022\Community\VC\Tools\MSVC\14.34.31933\include\xmemory

; 255  :         ::operator delete(_Ptr, _Bytes);

  0003f	83 c4 08	 add	 esp, 8
; File C:\Users\flourine\Desktop\Xantios\client-src\Code\GameLib\ActorInstanceAttach.cpp

; 427  : 			CEffectManager::Instance().DestroyEffectInstance(dwEID);

  00042	53		 push	 ebx
  00043	e8 00 00 00 00	 call	 ?DestroyEffectInstance@CEffectManager@@QAE_NK@Z ; CEffectManager::DestroyEffectInstance
$LN4@DettachEff:
; File C:\Program Files\Microsoft Visual Studio\2022\Community\VC\Tools\MSVC\14.34.31933\include\list

; 38   :     _List_unchecked_const_iterator(_Nodeptr _Pnode, const _Mylist* _Plist) noexcept : _Ptr(_Pnode) {

  00048	8b c6		 mov	 eax, esi

; 198  :         return this->_Ptr == _Right._Ptr;

  0004a	3b b7 3c 05 00
	00		 cmp	 esi, DWORD PTR [edi+1340]
; File C:\Users\flourine\Desktop\Xantios\client-src\Code\GameLib\ActorInstanceAttach.cpp

; 420  : 	while (i != m_AttachingEffectList.end())

  00050	75 c5		 jne	 SHORT $LL2@DettachEff
  00052	5e		 pop	 esi
  00053	5b		 pop	 ebx
$LN3@DettachEff:
  00054	5f		 pop	 edi

; 428  : 		}
; 429  : 		else
; 430  : 		{
; 431  : 			++i;
; 432  : 		}
; 433  : 	}
; 434  : }

  00055	5d		 pop	 ebp
  00056	c2 04 00	 ret	 4
?DettachEffect@CActorInstance@@QAEXK@Z ENDP		; CActorInstance::DettachEffect
_TEXT	ENDS
; Function compile flags: /Ogtp
; File C:\Users\flourine\Desktop\Xantios\client-src\Code\GameLib\ActorInstanceAttach.cpp
; File C:\Program Files\Microsoft Visual Studio\2022\Community\VC\Tools\MSVC\14.34.31933\include\list
; File C:\Users\flourine\Desktop\Xantios\client-src\Code\GameLib\ActorInstanceAttach.cpp
; File C:\Program Files\Microsoft Visual Studio\2022\Community\VC\Tools\MSVC\14.34.31933\include\list
; File C:\Users\flourine\Desktop\Xantios\client-src\Code\GameLib\ActorInstanceAttach.cpp
; File C:\Program Files\Microsoft Visual Studio\2022\Community\VC\Tools\MSVC\14.34.31933\include\list
; File C:\Program Files\Microsoft Visual Studio\2022\Community\VC\Tools\MSVC\14.34.31933\include\xmemory
; File C:\Program Files\Microsoft Visual Studio\2022\Community\VC\Tools\MSVC\14.34.31933\include\list
; File C:\Program Files\Microsoft Visual Studio\2022\Community\VC\Tools\MSVC\14.34.31933\include\xmemory
; File C:\Users\flourine\Desktop\Xantios\client-src\Code\GameLib\ActorInstanceAttach.cpp
; File C:\Program Files\Microsoft Visual Studio\2022\Community\VC\Tools\MSVC\14.34.31933\include\xmemory
; File C:\Users\flourine\Desktop\Xantios\client-src\Code\GameLib\ActorInstanceAttach.cpp
; File C:\Users\flourine\Desktop\Xantios\client-src\extern\include\directX\d3dx9math.inl
; File C:\Users\flourine\Desktop\Xantios\client-src\Code\GameLib\ActorInstanceAttach.cpp
; File C:\Users\flourine\Desktop\Xantios\client-src\extern\include\directX\d3dx9math.inl
; File C:\Users\flourine\Desktop\Xantios\client-src\Code\GameLib\ActorInstanceAttach.cpp
; File C:\Users\flourine\Desktop\Xantios\client-src\extern\include\directX\d3dx9math.inl
; File C:\Users\flourine\Desktop\Xantios\client-src\Code\GameLib\ActorInstanceAttach.cpp
; File C:\Program Files\Microsoft Visual Studio\2022\Community\VC\Tools\MSVC\14.34.31933\include\list
; File C:\Users\flourine\Desktop\Xantios\client-src\Code\GameLib\ActorInstanceAttach.cpp
;	COMDAT ?UpdateAttachingInstances@CActorInstance@@QAEXXZ
_TEXT	SEGMENT
_pBoneMat$1 = -80					; size = 4
_rkEftMgr$1$ = -76					; size = 4
_dwCurrentTime$1$ = -72					; size = 4
_matTransform$2 = -68					; size = 64
_matTransform$3 = -68					; size = 64
__$ArrayPad$ = -4					; size = 4
?UpdateAttachingInstances@CActorInstance@@QAEXXZ PROC	; CActorInstance::UpdateAttachingInstances, COMDAT
; _this$ = ecx

; 760  : {

  00000	55		 push	 ebp
  00001	8b ec		 mov	 ebp, esp
  00003	83 ec 50	 sub	 esp, 80			; 00000050H
  00006	a1 00 00 00 00	 mov	 eax, DWORD PTR ___security_cookie
  0000b	33 c5		 xor	 eax, ebp
  0000d	89 45 fc	 mov	 DWORD PTR __$ArrayPad$[ebp], eax
  00010	53		 push	 ebx
  00011	56		 push	 esi
  00012	57		 push	 edi

; 761  : 	CEffectManager& rkEftMgr = CEffectManager::Instance();

  00013	8b 3d 00 00 00
	00		 mov	 edi, DWORD PTR ?ms_singleton@?$CSingleton@VCEffectManager@@@@0PAVCEffectManager@@A ; CSingleton<CEffectManager>::ms_singleton
  00019	8b d9		 mov	 ebx, ecx

; 764  : 	DWORD dwCurrentTime = CTimer::Instance().GetCurrentMillisecond();

  0001b	8b 0d 00 00 00
	00		 mov	 ecx, DWORD PTR ?ms_singleton@?$CSingleton@VCTimer@@@@0PAVCTimer@@A ; CSingleton<CTimer>::ms_singleton
  00021	89 7d b4	 mov	 DWORD PTR _rkEftMgr$1$[ebp], edi
  00024	e8 00 00 00 00	 call	 ?GetCurrentMillisecond@CTimer@@QAEKXZ ; CTimer::GetCurrentMillisecond
; File C:\Program Files\Microsoft Visual Studio\2022\Community\VC\Tools\MSVC\14.34.31933\include\list

; 1087 :         return iterator(_Mypair._Myval2._Myhead->_Next, _STD addressof(_Mypair._Myval2));

  00029	8b 8b 3c 05 00
	00		 mov	 ecx, DWORD PTR [ebx+1340]
; File C:\Users\flourine\Desktop\Xantios\client-src\Code\GameLib\ActorInstanceAttach.cpp

; 764  : 	DWORD dwCurrentTime = CTimer::Instance().GetCurrentMillisecond();

  0002f	8b d0		 mov	 edx, eax
  00031	89 55 b8	 mov	 DWORD PTR _dwCurrentTime$1$[ebp], edx
; File C:\Program Files\Microsoft Visual Studio\2022\Community\VC\Tools\MSVC\14.34.31933\include\list

; 38   :     _List_unchecked_const_iterator(_Nodeptr _Pnode, const _Mylist* _Plist) noexcept : _Ptr(_Pnode) {

  00034	8b 31		 mov	 esi, DWORD PTR [ecx]
  00036	3b f1		 cmp	 esi, ecx
; File C:\Users\flourine\Desktop\Xantios\client-src\Code\GameLib\ActorInstanceAttach.cpp

; 765  : 	for (it = m_AttachingEffectList.begin(); it != m_AttachingEffectList.end();)

  00038	0f 84 07 01 00
	00		 je	 $LN3@UpdateAtta
  0003e	66 90		 npad	 2
$LL2@UpdateAtta:

; 766  : 	{
; 767  : 		if (EFFECT_LIFE_WITH_MOTION == it->iLifeType)

  00040	8b 46 58	 mov	 eax, DWORD PTR [esi+88]
  00043	83 f8 02	 cmp	 eax, 2
  00046	0f 84 eb 00 00
	00		 je	 $LN169@UpdateAtta

; 768  : 		{
; 769  : 			++it;
; 770  : 			continue;
; 771  : 		}
; 772  : 
; 773  : 		if ((EFFECT_LIFE_NORMAL == it->iLifeType && it->dwEndTime < dwCurrentTime) ||

  0004c	85 c0		 test	 eax, eax
  0004e	75 05		 jne	 SHORT $LN9@UpdateAtta
  00050	39 56 5c	 cmp	 DWORD PTR [esi+92], edx
  00053	72 0e		 jb	 SHORT $LN8@UpdateAtta
$LN9@UpdateAtta:
  00055	ff 76 08	 push	 DWORD PTR [esi+8]
  00058	8b cf		 mov	 ecx, edi
  0005a	e8 00 00 00 00	 call	 ?IsAliveEffect@CEffectManager@@QAE_NK@Z ; CEffectManager::IsAliveEffect
  0005f	84 c0		 test	 al, al
  00061	75 37		 jne	 SHORT $LN6@UpdateAtta
$LN8@UpdateAtta:

; 774  : 				!rkEftMgr.IsAliveEffect(it->dwEffectIndex))
; 775  : 		{
; 776  : 			rkEftMgr.DestroyEffectInstance(it->dwEffectIndex);

  00063	ff 76 08	 push	 DWORD PTR [esi+8]
  00066	8b cf		 mov	 ecx, edi
  00068	e8 00 00 00 00	 call	 ?DestroyEffectInstance@CEffectManager@@QAE_NK@Z ; CEffectManager::DestroyEffectInstance
; File C:\Program Files\Microsoft Visual Studio\2022\Community\VC\Tools\MSVC\14.34.31933\include\list

; 396  :         _Pnode->_Prev->_Next = _Pnode->_Next;

  0006d	8b 46 04	 mov	 eax, DWORD PTR [esi+4]

; 1411 :         const auto _Result = _Where._Ptr->_Next;

  00070	8b 3e		 mov	 edi, DWORD PTR [esi]
; File C:\Program Files\Microsoft Visual Studio\2022\Community\VC\Tools\MSVC\14.34.31933\include\xmemory

; 255  :         ::operator delete(_Ptr, _Bytes);

  00072	6a 60		 push	 96			; 00000060H
  00074	56		 push	 esi
; File C:\Program Files\Microsoft Visual Studio\2022\Community\VC\Tools\MSVC\14.34.31933\include\list

; 396  :         _Pnode->_Prev->_Next = _Pnode->_Next;

  00075	89 38		 mov	 DWORD PTR [eax], edi

; 397  :         _Pnode->_Next->_Prev = _Pnode->_Prev;

  00077	8b 0e		 mov	 ecx, DWORD PTR [esi]
  00079	8b 46 04	 mov	 eax, DWORD PTR [esi+4]
  0007c	89 41 04	 mov	 DWORD PTR [ecx+4], eax

; 398  :         --_Mysize;

  0007f	ff 8b 40 05 00
	00		 dec	 DWORD PTR [ebx+1344]
; File C:\Program Files\Microsoft Visual Studio\2022\Community\VC\Tools\MSVC\14.34.31933\include\xmemory

; 255  :         ::operator delete(_Ptr, _Bytes);

  00085	e8 00 00 00 00	 call	 ??3@YAXPAXI@Z		; operator delete
; File C:\Users\flourine\Desktop\Xantios\client-src\Code\GameLib\ActorInstanceAttach.cpp

; 778  : 		}

  0008a	8b 55 b8	 mov	 edx, DWORD PTR _dwCurrentTime$1$[ebp]
  0008d	8b f7		 mov	 esi, edi
  0008f	8b 7d b4	 mov	 edi, DWORD PTR _rkEftMgr$1$[ebp]
; File C:\Program Files\Microsoft Visual Studio\2022\Community\VC\Tools\MSVC\14.34.31933\include\xmemory

; 255  :         ::operator delete(_Ptr, _Bytes);

  00092	83 c4 08	 add	 esp, 8
; File C:\Users\flourine\Desktop\Xantios\client-src\Code\GameLib\ActorInstanceAttach.cpp

; 778  : 		}

  00095	e9 9f 00 00 00	 jmp	 $LN122@UpdateAtta
$LN6@UpdateAtta:

; 779  : 		else
; 780  : 		{
; 781  : 			if (it->isAttaching)

  0009a	83 7e 54 00	 cmp	 DWORD PTR [esi+84], 0
  0009e	0f 84 90 00 00
	00		 je	 $LN13@UpdateAtta

; 782  : 			{
; 783  : 				rkEftMgr.SelectEffectInstance(it->dwEffectIndex);

  000a4	ff 76 08	 push	 DWORD PTR [esi+8]
  000a7	8b cf		 mov	 ecx, edi
  000a9	e8 00 00 00 00	 call	 ?SelectEffectInstance@CEffectManager@@QAEHK@Z ; CEffectManager::SelectEffectInstance

; 784  : 
; 785  : 				if (it->iBoneIndex == -1)

  000ae	8b 46 0c	 mov	 eax, DWORD PTR [esi+12]
  000b1	83 f8 ff	 cmp	 eax, -1
  000b4	75 22		 jne	 SHORT $LN11@UpdateAtta

; 786  : 				{
; 787  : 					D3DXMATRIX matTransform;
; 788  : 					matTransform = it->matTranslation;

  000b6	0f 10 46 14	 movups	 xmm0, XMMWORD PTR [esi+20]
  000ba	0f 11 45 bc	 movups	 XMMWORD PTR _matTransform$3[ebp], xmm0
  000be	0f 10 46 24	 movups	 xmm0, XMMWORD PTR [esi+36]
  000c2	0f 11 45 cc	 movups	 XMMWORD PTR _matTransform$3[ebp+16], xmm0
  000c6	0f 10 46 34	 movups	 xmm0, XMMWORD PTR [esi+52]
  000ca	0f 11 45 dc	 movups	 XMMWORD PTR _matTransform$3[ebp+32], xmm0
  000ce	0f 10 46 44	 movups	 xmm0, XMMWORD PTR [esi+68]
  000d2	0f 11 45 ec	 movups	 XMMWORD PTR _matTransform$3[ebp+48], xmm0

; 789  : 					matTransform *= m_worldMatrix;
; 790  : 					rkEftMgr.SetEffectInstanceGlobalMatrix(matTransform);
; 791  : 				}

  000d6	eb 43		 jmp	 SHORT $LN170@UpdateAtta
$LN11@UpdateAtta:

; 792  : 				else
; 793  : 				{
; 794  : 					D3DXMATRIX * pBoneMat;
; 795  : 					if (GetBoneMatrix(it->dwModelIndex, it->iBoneIndex, &pBoneMat))

  000d8	8d 4d b0	 lea	 ecx, DWORD PTR _pBoneMat$1[ebp]
  000db	51		 push	 ecx
  000dc	50		 push	 eax
  000dd	ff 76 10	 push	 DWORD PTR [esi+16]
  000e0	8b cb		 mov	 ecx, ebx
  000e2	e8 00 00 00 00	 call	 ?GetBoneMatrix@CGraphicThingInstance@@QAEHKKPAPAUD3DXMATRIX@@@Z ; CGraphicThingInstance::GetBoneMatrix
  000e7	85 c0		 test	 eax, eax
  000e9	74 49		 je	 SHORT $LN13@UpdateAtta

; 798  : 						matTransform = *pBoneMat;

  000eb	8b 45 b0	 mov	 eax, DWORD PTR _pBoneMat$1[ebp]
  000ee	0f 10 00	 movups	 xmm0, XMMWORD PTR [eax]
  000f1	0f 11 45 bc	 movups	 XMMWORD PTR _matTransform$2[ebp], xmm0
  000f5	0f 10 40 10	 movups	 xmm0, XMMWORD PTR [eax+16]
  000f9	0f 11 45 cc	 movups	 XMMWORD PTR _matTransform$2[ebp+16], xmm0
  000fd	0f 10 40 20	 movups	 xmm0, XMMWORD PTR [eax+32]
  00101	0f 11 45 dc	 movups	 XMMWORD PTR _matTransform$2[ebp+32], xmm0
  00105	0f 10 40 30	 movups	 xmm0, XMMWORD PTR [eax+48]

; 799  : 						matTransform *= it->matTranslation;

  00109	8d 46 14	 lea	 eax, DWORD PTR [esi+20]
; File C:\Users\flourine\Desktop\Xantios\client-src\extern\include\directX\d3dx9math.inl

; 817  :     D3DXMatrixMultiply(this, this, &mat);

  0010c	50		 push	 eax
  0010d	8d 45 bc	 lea	 eax, DWORD PTR _matTransform$2[ebp]
  00110	50		 push	 eax
  00111	50		 push	 eax
; File C:\Users\flourine\Desktop\Xantios\client-src\Code\GameLib\ActorInstanceAttach.cpp

; 798  : 						matTransform = *pBoneMat;

  00112	0f 11 45 ec	 movups	 XMMWORD PTR _matTransform$2[ebp+48], xmm0
; File C:\Users\flourine\Desktop\Xantios\client-src\extern\include\directX\d3dx9math.inl

; 817  :     D3DXMatrixMultiply(this, this, &mat);

  00116	e8 00 00 00 00	 call	 _D3DXMatrixMultiply@12
$LN170@UpdateAtta:
; File C:\Users\flourine\Desktop\Xantios\client-src\Code\GameLib\ActorInstanceAttach.cpp

; 800  : 						matTransform *= m_worldMatrix;

  0011b	8d 43 6c	 lea	 eax, DWORD PTR [ebx+108]
; File C:\Users\flourine\Desktop\Xantios\client-src\extern\include\directX\d3dx9math.inl

; 817  :     D3DXMatrixMultiply(this, this, &mat);

  0011e	50		 push	 eax
  0011f	8d 45 bc	 lea	 eax, DWORD PTR _matTransform$2[ebp]
  00122	50		 push	 eax
  00123	50		 push	 eax
  00124	e8 00 00 00 00	 call	 _D3DXMatrixMultiply@12
; File C:\Users\flourine\Desktop\Xantios\client-src\Code\GameLib\ActorInstanceAttach.cpp

; 801  : 						rkEftMgr.SetEffectInstanceGlobalMatrix(matTransform);

  00129	8d 45 bc	 lea	 eax, DWORD PTR _matTransform$2[ebp]
  0012c	8b cf		 mov	 ecx, edi
  0012e	50		 push	 eax
  0012f	e8 00 00 00 00	 call	 ?SetEffectInstanceGlobalMatrix@CEffectManager@@QAEXABUD3DXMATRIX@@@Z ; CEffectManager::SetEffectInstanceGlobalMatrix
$LN13@UpdateAtta:
  00134	8b 55 b8	 mov	 edx, DWORD PTR _dwCurrentTime$1$[ebp]
$LN169@UpdateAtta:
; File C:\Program Files\Microsoft Visual Studio\2022\Community\VC\Tools\MSVC\14.34.31933\include\list

; 198  :         return this->_Ptr == _Right._Ptr;

  00137	8b 36		 mov	 esi, DWORD PTR [esi]
$LN122@UpdateAtta:
  00139	3b b3 3c 05 00
	00		 cmp	 esi, DWORD PTR [ebx+1340]
; File C:\Users\flourine\Desktop\Xantios\client-src\Code\GameLib\ActorInstanceAttach.cpp

; 765  : 	for (it = m_AttachingEffectList.begin(); it != m_AttachingEffectList.end();)

  0013f	0f 85 fb fe ff
	ff		 jne	 $LL2@UpdateAtta
$LN3@UpdateAtta:

; 802  : 					}
; 803  : 					else
; 804  : 					{
; 805  : 						//TraceError("GetBoneMatrix(modelIndex(%d), boneIndex(%d)).NOT_FOUND_BONE",
; 806  : 						//	it->dwModelIndex, it->iBoneIndex);
; 807  : 					}
; 808  : 				}
; 809  : 			}
; 810  : 
; 811  : 			++it;
; 812  : 		}
; 813  : 	}
; 814  : }

  00145	8b 4d fc	 mov	 ecx, DWORD PTR __$ArrayPad$[ebp]
  00148	5f		 pop	 edi
  00149	5e		 pop	 esi
  0014a	33 cd		 xor	 ecx, ebp
  0014c	5b		 pop	 ebx
  0014d	e8 00 00 00 00	 call	 @__security_check_cookie@4
  00152	8b e5		 mov	 esp, ebp
  00154	5d		 pop	 ebp
  00155	c3		 ret	 0
?UpdateAttachingInstances@CActorInstance@@QAEXXZ ENDP	; CActorInstance::UpdateAttachingInstances
_TEXT	ENDS
; Function compile flags: /Ogtp
; File C:\Users\flourine\Desktop\Xantios\client-src\Code\GameLib\ActorInstanceAttach.cpp
;	COMDAT ?GetAttachingBoneName@CActorInstance@@QAEHKPAPBD@Z
_TEXT	SEGMENT
_dwPartIndex$ = 8					; size = 4
_c_pszBoneName$ = 12					; size = 4
?GetAttachingBoneName@CActorInstance@@QAEHKPAPBD@Z PROC	; CActorInstance::GetAttachingBoneName, COMDAT
; _this$ = ecx

; 342  : {

  00000	55		 push	 ebp
  00001	8b ec		 mov	 ebp, esp

; 343  : 	return m_pkCurRaceData->GetAttachingBoneName(dwPartIndex, c_pszBoneName);

  00003	8b 89 64 04 00
	00		 mov	 ecx, DWORD PTR [ecx+1124]

; 344  : }

  00009	5d		 pop	 ebp

; 343  : 	return m_pkCurRaceData->GetAttachingBoneName(dwPartIndex, c_pszBoneName);

  0000a	e9 00 00 00 00	 jmp	 ?GetAttachingBoneName@CRaceData@@QAEHKPAPBD@Z ; CRaceData::GetAttachingBoneName
?GetAttachingBoneName@CActorInstance@@QAEHKPAPBD@Z ENDP	; CActorInstance::GetAttachingBoneName
_TEXT	ENDS
; Function compile flags: /Ogtp
; File C:\Users\flourine\Desktop\Xantios\client-src\Code\GameLib\ActorInstanceAttach.cpp
; File C:\Program Files\Microsoft Visual Studio\2022\Community\VC\Tools\MSVC\14.34.31933\include\xstring
; File C:\Users\flourine\Desktop\Xantios\client-src\Code\GameLib\ActorInstanceAttach.cpp
; File C:\Program Files\Microsoft Visual Studio\2022\Community\VC\Tools\MSVC\14.34.31933\include\xstring
; File C:\Users\flourine\Desktop\Xantios\client-src\Code\GameLib\ActorInstanceAttach.cpp
; File C:\Program Files\Microsoft Visual Studio\2022\Community\VC\Tools\MSVC\14.34.31933\include\vector
; File C:\Users\flourine\Desktop\Xantios\client-src\Code\GameLib\ActorInstanceAttach.cpp
; File C:\Program Files\Microsoft Visual Studio\2022\Community\VC\Tools\MSVC\14.34.31933\include\list
; File C:\Users\flourine\Desktop\Xantios\client-src\Code\GameLib\ActorInstanceAttach.cpp
; File C:\Program Files\Microsoft Visual Studio\2022\Community\VC\Tools\MSVC\14.34.31933\include\list
; File C:\Users\flourine\Desktop\Xantios\client-src\Code\GameLib\ActorInstanceAttach.cpp
; File C:\Program Files\Microsoft Visual Studio\2022\Community\VC\Tools\MSVC\14.34.31933\include\xstring
; File C:\Users\flourine\Desktop\Xantios\client-src\Code\GameLib\ActorInstanceAttach.cpp
; File C:\Program Files\Microsoft Visual Studio\2022\Community\VC\Tools\MSVC\14.34.31933\include\xstring
; File C:\Users\flourine\Desktop\Xantios\client-src\Code\GameLib\ActorInstanceAttach.cpp
; File C:\Program Files\Microsoft Visual Studio\2022\Community\VC\Tools\MSVC\14.34.31933\include\list
; File C:\Program Files\Microsoft Visual Studio\2022\Community\VC\Tools\MSVC\14.34.31933\include\xmemory
; File C:\Program Files\Microsoft Visual Studio\2022\Community\VC\Tools\MSVC\14.34.31933\include\list
; File C:\Program Files\Microsoft Visual Studio\2022\Community\VC\Tools\MSVC\14.34.31933\include\xmemory
; File C:\Program Files\Microsoft Visual Studio\2022\Community\VC\Tools\MSVC\14.34.31933\include\list
; File C:\Program Files\Microsoft Visual Studio\2022\Community\VC\Tools\MSVC\14.34.31933\include\xmemory
; File C:\Program Files\Microsoft Visual Studio\2022\Community\VC\Tools\MSVC\14.34.31933\include\list
; File C:\Program Files\Microsoft Visual Studio\2022\Community\VC\Tools\MSVC\14.34.31933\include\xmemory
; File C:\Program Files\Microsoft Visual Studio\2022\Community\VC\Tools\MSVC\14.34.31933\include\list
; File C:\Users\flourine\Desktop\Xantios\client-src\Code\GameLib\ActorInstanceAttach.cpp
; File C:\Program Files\Microsoft Visual Studio\2022\Community\VC\Tools\MSVC\14.34.31933\include\vector
; File C:\Users\flourine\Desktop\Xantios\client-src\Code\GameLib\ActorInstanceAttach.cpp
; File C:\Program Files\Microsoft Visual Studio\2022\Community\VC\Tools\MSVC\14.34.31933\include\list
; File C:\Users\flourine\Desktop\Xantios\client-src\Code\GameLib\ActorInstanceAttach.cpp
; File C:\Program Files\Microsoft Visual Studio\2022\Community\VC\Tools\MSVC\14.34.31933\include\list
; File C:\Users\flourine\Desktop\Xantios\client-src\Code\GameLib\ActorInstanceAttach.cpp
; File C:\Program Files\Microsoft Visual Studio\2022\Community\VC\Tools\MSVC\14.34.31933\include\list
; File C:\Users\flourine\Desktop\Xantios\client-src\Code\GameLib\ActorInstanceAttach.cpp
;	COMDAT ?RefreshActorInstance@CActorInstance@@QAEXXZ
_TEXT	SEGMENT
__Op$2 = -168						; size = 8
__Where$1$ = -160					; size = 4
_iBoneIndex$3 = -156					; size = 4
_PointInstance$4 = -152					; size = 28
_PointInstance$5 = -152					; size = 28
_pItemData$6 = -124					; size = 4
_c_pAttachingData$7 = -120				; size = 4
tv1470 = -116						; size = 4
_c_pAttachingData$8 = -116				; size = 4
_j$1$ = -112						; size = 4
_k$1$ = -108						; size = 4
_i$1$ = -108						; size = 4
_ae$9 = -104						; size = 88
__$ArrayPad$ = -16					; size = 4
__$EHRec$ = -12						; size = 12
?RefreshActorInstance@CActorInstance@@QAEXXZ PROC	; CActorInstance::RefreshActorInstance, COMDAT
; _this$ = ecx

; 513  : {

  00000	55		 push	 ebp
  00001	8b ec		 mov	 ebp, esp
  00003	6a ff		 push	 -1
  00005	68 00 00 00 00	 push	 __ehhandler$?RefreshActorInstance@CActorInstance@@QAEXXZ
  0000a	64 a1 00 00 00
	00		 mov	 eax, DWORD PTR fs:0
  00010	50		 push	 eax
  00011	81 ec 9c 00 00
	00		 sub	 esp, 156		; 0000009cH
  00017	a1 00 00 00 00	 mov	 eax, DWORD PTR ___security_cookie
  0001c	33 c5		 xor	 eax, ebp
  0001e	89 45 f0	 mov	 DWORD PTR __$ArrayPad$[ebp], eax
  00021	56		 push	 esi
  00022	57		 push	 edi
  00023	50		 push	 eax
  00024	8d 45 f4	 lea	 eax, DWORD PTR __$EHRec$[ebp]
  00027	64 a3 00 00 00
	00		 mov	 DWORD PTR fs:0, eax
  0002d	8b f9		 mov	 edi, ecx

; 514  : 	if (!m_pkCurRaceData)

  0002f	83 bf 64 04 00
	00 00		 cmp	 DWORD PTR [edi+1124], 0
  00036	75 12		 jne	 SHORT $LN19@RefreshAct

; 515  : 	{
; 516  : 		TraceError("void CActorInstance::RefreshActorInstance() - m_pkCurRaceData=NULL");

  00038	68 00 00 00 00	 push	 OFFSET ??_C@_0ED@FCEINDDL@void?5CActorInstance?3?3RefreshAct@
  0003d	e8 00 00 00 00	 call	 ?TraceError@@YAXPBDZZ	; TraceError
  00042	83 c4 04	 add	 esp, 4

; 517  : 		return;

  00045	e9 c3 04 00 00	 jmp	 $LN1@RefreshAct
$LN19@RefreshAct:

; 518  : 	}
; 519  : 
; 520  : 	// This is Temporary place before making the weapon detection system
; 521  : 	// Setup Collison Detection Data
; 522  : 	m_BodyPointInstanceList.clear();

  0004a	8d 8f 7c 03 00
	00		 lea	 ecx, DWORD PTR [edi+892]
  00050	e8 00 00 00 00	 call	 ?clear@?$list@USCollisionPointInstance@CActorInstance@@V?$allocator@USCollisionPointInstance@CActorInstance@@@std@@@std@@QAEXXZ ; std::list<CActorInstance::SCollisionPointInstance,std::allocator<CActorInstance::SCollisionPointInstance> >::clear

; 523  : 	//m_AttackingPointInstanceList.clear();
; 524  : 	m_DefendingPointInstanceList.clear();

  00055	8d 8f 84 03 00
	00		 lea	 ecx, DWORD PTR [edi+900]
  0005b	e8 00 00 00 00	 call	 ?clear@?$list@USCollisionPointInstance@CActorInstance@@V?$allocator@USCollisionPointInstance@CActorInstance@@@std@@@std@@QAEXXZ ; std::list<CActorInstance::SCollisionPointInstance,std::allocator<CActorInstance::SCollisionPointInstance> >::clear

; 527  : 	for (DWORD i = 0; i < m_pkCurRaceData->GetAttachingDataCount(); ++i)

  00060	8b 8f 64 04 00
	00		 mov	 ecx, DWORD PTR [edi+1124]
  00066	33 f6		 xor	 esi, esi
  00068	89 75 94	 mov	 DWORD PTR _i$1$[ebp], esi
  0006b	e8 00 00 00 00	 call	 ?GetAttachingDataCount@CRaceData@@QAEKXZ ; CRaceData::GetAttachingDataCount
  00070	85 c0		 test	 eax, eax
  00072	0f 84 78 01 00
	00		 je	 $LN356@RefreshAct
  00078	0f 1f 84 00 00
	00 00 00	 npad	 8
$LL4@RefreshAct:

; 528  : 	{
; 529  : 		const NRaceData::TAttachingData * c_pAttachingData;
; 530  : 
; 531  : 		if (!m_pkCurRaceData->GetAttachingDataPointer(i, &c_pAttachingData))

  00080	8b 8f 64 04 00
	00		 mov	 ecx, DWORD PTR [edi+1124]
  00086	8d 45 8c	 lea	 eax, DWORD PTR _c_pAttachingData$8[ebp]
  00089	50		 push	 eax
  0008a	56		 push	 esi
  0008b	e8 00 00 00 00	 call	 ?GetAttachingDataPointer@CRaceData@@QAEHKPAPBUSAttachingData@NRaceData@@@Z ; CRaceData::GetAttachingDataPointer
  00090	85 c0		 test	 eax, eax
  00092	0f 84 3f 01 00
	00		 je	 $LN2@RefreshAct

; 532  : 		{
; 533  : 			continue;
; 534  : 		}
; 535  : 
; 536  : 		switch (c_pAttachingData->dwType)

  00098	8b 4d 8c	 mov	 ecx, DWORD PTR _c_pAttachingData$8[ebp]
  0009b	8b 01		 mov	 eax, DWORD PTR [ecx]
  0009d	83 e8 01	 sub	 eax, 1
  000a0	74 52		 je	 SHORT $LN21@RefreshAct
  000a2	83 e8 01	 sub	 eax, 1
  000a5	0f 85 2c 01 00
	00		 jne	 $LN2@RefreshAct

; 561  : 			case NRaceData::COLLISION_TYPE_BODY:
; 562  : 				m_BodyPointInstanceList.push_back(PointInstance);
; 563  : 				break;
; 564  : 			}
; 565  : 		}
; 566  : 		break;
; 567  : 
; 568  : 		case NRaceData::ATTACHING_DATA_TYPE_EFFECT:
; 569  : //				if (!m_bEffectInitialized)
; 570  : //				{
; 571  : //					DWORD dwCRC;
; 572  : //					StringPath(c_pAttachingData->pEffectData->strFileName);
; 573  : //					dwCRC = GetCaseCRC32(c_pAttachingData->pEffectData->strFileName.c_str(),c_pAttachingData->pEffectData->strFileName.length());
; 574  : //
; 575  : //					TAttachingEffect ae;
; 576  : //					ae.iLifeType = EFFECT_LIFE_INFINITE;
; 577  : //					ae.dwEndTime = 0;
; 578  : //					ae.dwModelIndex = 0;
; 579  : //					ae.dwEffectIndex = CEffectManager::Instance().GetEmptyIndex();
; 580  : //					ae.isAttaching = TRUE;
; 581  : //					CEffectManager::Instance().CreateEffectInstance(ae.dwEffectIndex, dwCRC);
; 582  : //
; 583  : //					if (c_pAttachingData->isAttaching)
; 584  : //					{
; 585  : //						int iBoneIndex;
; 586  : //						if (!FindBoneIndex(0,c_pAttachingData->strAttachingBoneName.c_str(), &iBoneIndex))
; 587  : //						{
; 588  : //							Tracef("Cannot get Bone Index\n");
; 589  : //							assert(false/*Cannot get Bone Index*/);
; 590  : //						}
; 591  : //
; 592  : //						ae.iBoneIndex = iBoneIndex;
; 593  : //					}
; 594  : //					else
; 595  : //					{
; 596  : //						ae.iBoneIndex = -1;
; 597  : //					}
; 598  : //
; 599  : //					m_AttachingEffectList.push_back(ae);
; 600  : //				}
; 601  : 
; 602  : 			if (c_pAttachingData->isAttaching)

  000ab	8b 41 28	 mov	 eax, DWORD PTR [ecx+40]
  000ae	83 c0 04	 add	 eax, 4
  000b1	83 79 04 00	 cmp	 DWORD PTR [ecx+4], 0
  000b5	74 23		 je	 SHORT $LN28@RefreshAct
; File C:\Program Files\Microsoft Visual Studio\2022\Community\VC\Tools\MSVC\14.34.31933\include\xstring

; 2293 :         if (_Large_string_engaged()) {

  000b7	83 78 14 10	 cmp	 DWORD PTR [eax+20], 16	; 00000010H
  000bb	72 02		 jb	 SHORT $LN263@RefreshAct

; 2294 :             _Result = _Unfancy(_Bx._Ptr);

  000bd	8b 00		 mov	 eax, DWORD PTR [eax]
$LN263@RefreshAct:

; 4259 :         return _Mypair._Myval2._Myptr();

  000bf	83 c1 0c	 add	 ecx, 12			; 0000000cH

; 2293 :         if (_Large_string_engaged()) {

  000c2	83 79 14 10	 cmp	 DWORD PTR [ecx+20], 16	; 00000010H
  000c6	72 1c		 jb	 SHORT $LN29@RefreshAct

; 2294 :             _Result = _Unfancy(_Bx._Ptr);

  000c8	8b 09		 mov	 ecx, DWORD PTR [ecx]
; File C:\Users\flourine\Desktop\Xantios\client-src\Code\GameLib\ActorInstanceAttach.cpp

; 610  : 			break;

  000ca	50		 push	 eax
  000cb	51		 push	 ecx
  000cc	6a 00		 push	 0
  000ce	8b cf		 mov	 ecx, edi
  000d0	e8 00 00 00 00	 call	 ?AttachEffectByName@CActorInstance@@QAEKKPBD0@Z ; CActorInstance::AttachEffectByName
  000d5	e9 fd 00 00 00	 jmp	 $LN2@RefreshAct
$LN28@RefreshAct:
; File C:\Program Files\Microsoft Visual Studio\2022\Community\VC\Tools\MSVC\14.34.31933\include\xstring

; 2293 :         if (_Large_string_engaged()) {

  000da	83 78 14 10	 cmp	 DWORD PTR [eax+20], 16	; 00000010H
  000de	72 02		 jb	 SHORT $LN277@RefreshAct

; 2294 :             _Result = _Unfancy(_Bx._Ptr);

  000e0	8b 00		 mov	 eax, DWORD PTR [eax]
$LN277@RefreshAct:
; File C:\Users\flourine\Desktop\Xantios\client-src\Code\GameLib\ActorInstanceAttach.cpp

; 608  : 				AttachEffectByName(0, 0, c_pAttachingData->pEffectData->strFileName.c_str());

  000e2	33 c9		 xor	 ecx, ecx
$LN29@RefreshAct:

; 610  : 			break;

  000e4	50		 push	 eax
  000e5	51		 push	 ecx
  000e6	6a 00		 push	 0
  000e8	8b cf		 mov	 ecx, edi
  000ea	e8 00 00 00 00	 call	 ?AttachEffectByName@CActorInstance@@QAEKKPBD0@Z ; CActorInstance::AttachEffectByName
  000ef	e9 e3 00 00 00	 jmp	 $LN2@RefreshAct
$LN21@RefreshAct:

; 537  : 		{
; 538  : 		case NRaceData::ATTACHING_DATA_TYPE_COLLISION_DATA:
; 539  : 		{
; 540  : 			const NRaceData::TCollisionData * c_pCollisionData = c_pAttachingData->pCollisionData;

  000f4	8b 71 24	 mov	 esi, DWORD PTR [ecx+36]
; File C:\Program Files\Microsoft Visual Studio\2022\Community\VC\Tools\MSVC\14.34.31933\include\vector

; 390  :     _CONSTEXPR20 _Vector_val() noexcept : _Myfirst(), _Mylast(), _Myend() {}

  000f7	c7 85 78 ff ff
	ff 00 00 00 00	 mov	 DWORD PTR _PointInstance$5[ebp+16], 0
  00101	c7 85 7c ff ff
	ff 00 00 00 00	 mov	 DWORD PTR _PointInstance$5[ebp+20], 0
  0010b	c7 45 80 00 00
	00 00		 mov	 DWORD PTR _PointInstance$5[ebp+24], 0
; File C:\Users\flourine\Desktop\Xantios\client-src\Code\GameLib\ActorInstanceAttach.cpp

; 543  : 			if (NRaceData::COLLISION_TYPE_ATTACKING == c_pCollisionData->iCollisionType)

  00112	83 7e 04 02	 cmp	 DWORD PTR [esi+4], 2
  00116	c7 45 fc 00 00
	00 00		 mov	 DWORD PTR __$EHRec$[ebp+8], 0
  0011d	75 0c		 jne	 SHORT $LN22@RefreshAct

; 544  : 			{
; 545  : 				continue;

  0011f	c7 45 fc ff ff
	ff ff		 mov	 DWORD PTR __$EHRec$[ebp+8], -1
  00126	e9 ac 00 00 00	 jmp	 $LN2@RefreshAct
$LN22@RefreshAct:

; 546  : 			}
; 547  : 
; 548  : 			if (!CreateCollisionInstancePiece(CRaceData::PART_MAIN, c_pAttachingData, &PointInstance))

  0012b	8d 85 68 ff ff
	ff		 lea	 eax, DWORD PTR _PointInstance$5[ebp]
  00131	50		 push	 eax
  00132	51		 push	 ecx
  00133	6a 00		 push	 0
  00135	8b cf		 mov	 ecx, edi
  00137	e8 00 00 00 00	 call	 ?CreateCollisionInstancePiece@CActorInstance@@QAE_NKPBUSAttachingData@NRaceData@@PAUSCollisionPointInstance@1@@Z ; CActorInstance::CreateCollisionInstancePiece
  0013c	84 c0		 test	 al, al
  0013e	74 3a		 je	 SHORT $LN7@RefreshAct

; 549  : 			{
; 550  : 				continue;
; 551  : 			}
; 552  : 
; 553  : 			switch (c_pCollisionData->iCollisionType)

  00140	8b 46 04	 mov	 eax, DWORD PTR [esi+4]
  00143	83 e8 01	 sub	 eax, 1
  00146	74 1a		 je	 SHORT $LN26@RefreshAct
  00148	83 e8 02	 sub	 eax, 2
  0014b	75 2d		 jne	 SHORT $LN7@RefreshAct
; File C:\Program Files\Microsoft Visual Studio\2022\Community\VC\Tools\MSVC\14.34.31933\include\list

; 1256 :         _Emplace(_Mypair._Myval2._Myhead, _Val);

  0014d	8d 85 68 ff ff
	ff		 lea	 eax, DWORD PTR _PointInstance$5[ebp]
  00153	50		 push	 eax
  00154	ff b7 84 03 00
	00		 push	 DWORD PTR [edi+900]
  0015a	8d 8f 84 03 00
	00		 lea	 ecx, DWORD PTR [edi+900]
; File C:\Users\flourine\Desktop\Xantios\client-src\Code\GameLib\ActorInstanceAttach.cpp

; 560  : 				break;

  00160	eb 13		 jmp	 SHORT $LN365@RefreshAct
$LN26@RefreshAct:
; File C:\Program Files\Microsoft Visual Studio\2022\Community\VC\Tools\MSVC\14.34.31933\include\list

; 1256 :         _Emplace(_Mypair._Myval2._Myhead, _Val);

  00162	8d 85 68 ff ff
	ff		 lea	 eax, DWORD PTR _PointInstance$5[ebp]
  00168	50		 push	 eax
  00169	ff b7 7c 03 00
	00		 push	 DWORD PTR [edi+892]
  0016f	8d 8f 7c 03 00
	00		 lea	 ecx, DWORD PTR [edi+892]
$LN365@RefreshAct:
; File C:\Users\flourine\Desktop\Xantios\client-src\Code\GameLib\ActorInstanceAttach.cpp

; 527  : 	for (DWORD i = 0; i < m_pkCurRaceData->GetAttachingDataCount(); ++i)

  00175	e8 00 00 00 00	 call	 ??$_Emplace@ABUSCollisionPointInstance@CActorInstance@@@?$list@USCollisionPointInstance@CActorInstance@@V?$allocator@USCollisionPointInstance@CActorInstance@@@std@@@std@@QAEPAU?$_List_node@USCollisionPointInstance@CActorInstance@@PAX@1@QAU21@ABUSCollisionPointInstance@CActorInstance@@@Z ; std::list<CActorInstance::SCollisionPointInstance,std::allocator<CActorInstance::SCollisionPointInstance> >::_Emplace<CActorInstance::SCollisionPointInstance const &>
$LN7@RefreshAct:
  0017a	8b b5 78 ff ff
	ff		 mov	 esi, DWORD PTR _PointInstance$5[ebp+16]
  00180	c7 45 fc ff ff
	ff ff		 mov	 DWORD PTR __$EHRec$[ebp+8], -1
  00187	85 f6		 test	 esi, esi
  00189	74 4c		 je	 SHORT $LN2@RefreshAct
  0018b	8b 4d 80	 mov	 ecx, DWORD PTR _PointInstance$5[ebp+24]
  0018e	b8 93 24 49 92	 mov	 eax, -1840700269	; 92492493H
  00193	2b ce		 sub	 ecx, esi
  00195	f7 e9		 imul	 ecx
  00197	03 d1		 add	 edx, ecx
  00199	c1 fa 04	 sar	 edx, 4
  0019c	8b c2		 mov	 eax, edx
  0019e	c1 e8 1f	 shr	 eax, 31			; 0000001fH
  001a1	03 c2		 add	 eax, edx
  001a3	8d 0c c5 00 00
	00 00		 lea	 ecx, DWORD PTR [eax*8]
  001aa	2b c8		 sub	 ecx, eax
  001ac	8b c6		 mov	 eax, esi
  001ae	c1 e1 02	 shl	 ecx, 2
  001b1	81 f9 00 10 00
	00		 cmp	 ecx, 4096		; 00001000H
  001b7	72 14		 jb	 SHORT $LN331@RefreshAct
  001b9	8b 70 fc	 mov	 esi, DWORD PTR [eax-4]
  001bc	83 c1 23	 add	 ecx, 35			; 00000023H
  001bf	2b c6		 sub	 eax, esi
  001c1	83 c0 fc	 add	 eax, -4			; fffffffcH
  001c4	83 f8 1f	 cmp	 eax, 31			; 0000001fH
  001c7	0f 87 5b 03 00
	00		 ja	 $LN328@RefreshAct
$LN331@RefreshAct:
  001cd	51		 push	 ecx
  001ce	56		 push	 esi
  001cf	e8 00 00 00 00	 call	 ??3@YAXPAXI@Z		; operator delete
  001d4	83 c4 08	 add	 esp, 8
$LN2@RefreshAct:
  001d7	8b 8f 64 04 00
	00		 mov	 ecx, DWORD PTR [edi+1124]
  001dd	ff 45 94	 inc	 DWORD PTR _i$1$[ebp]
  001e0	e8 00 00 00 00	 call	 ?GetAttachingDataCount@CRaceData@@QAEKXZ ; CRaceData::GetAttachingDataCount
  001e5	8b 75 94	 mov	 esi, DWORD PTR _i$1$[ebp]
  001e8	3b f0		 cmp	 esi, eax
  001ea	0f 82 90 fe ff
	ff		 jb	 $LL4@RefreshAct
$LN356@RefreshAct:

; 611  : 
; 612  : 		case NRaceData::ATTACHING_DATA_TYPE_OBJECT:
; 613  : 			break;
; 614  : 
; 615  : 		default:
; 616  : 			assert(false/*NOT_IMPLEMENTED*/);
; 617  : 			break;
; 618  : 		}
; 619  : 	}
; 620  : 
; 621  : 	for (DWORD j = 0; j < CRaceData::PART_MAX_NUM; ++j)

  001f0	33 c0		 xor	 eax, eax
  001f2	8d 8f 24 05 00
	00		 lea	 ecx, DWORD PTR [edi+1316]
  001f8	89 45 90	 mov	 DWORD PTR _j$1$[ebp], eax
  001fb	89 4d 8c	 mov	 DWORD PTR tv1470[ebp], ecx
  001fe	66 90		 npad	 2
$LL11@RefreshAct:

; 622  : 	{
; 623  : 		if (0 == m_adwPartItemID[j])

  00200	8b 09		 mov	 ecx, DWORD PTR [ecx]
  00202	85 c9		 test	 ecx, ecx
  00204	0f 84 cf 02 00
	00		 je	 $LN9@RefreshAct

; 624  : 		{
; 625  : 			continue;
; 626  : 		}
; 627  : 
; 628  : 		CItemData * pItemData;
; 629  : 		if (!CItemManager::Instance().GetItemDataPointer(m_adwPartItemID[j], &pItemData))

  0020a	8d 45 84	 lea	 eax, DWORD PTR _pItemData$6[ebp]
  0020d	50		 push	 eax
  0020e	51		 push	 ecx
  0020f	8b 0d 00 00 00
	00		 mov	 ecx, DWORD PTR ?ms_singleton@?$CSingleton@VCItemManager@@@@0PAVCItemManager@@A ; CSingleton<CItemManager>::ms_singleton
  00215	e8 00 00 00 00	 call	 ?GetItemDataPointer@CItemManager@@QAEHKPAPAVCItemData@@@Z ; CItemManager::GetItemDataPointer
  0021a	85 c0		 test	 eax, eax
  0021c	0f 84 eb 02 00
	00		 je	 $LN1@RefreshAct

; 634  : 		for (DWORD k = 0; k < pItemData->GetAttachingDataCount(); ++k)

  00222	8b 4d 84	 mov	 ecx, DWORD PTR _pItemData$6[ebp]
  00225	33 f6		 xor	 esi, esi
  00227	89 75 94	 mov	 DWORD PTR _k$1$[ebp], esi
  0022a	e8 00 00 00 00	 call	 ?GetAttachingDataCount@CItemData@@QAEKXZ ; CItemData::GetAttachingDataCount
  0022f	85 c0		 test	 eax, eax
  00231	0f 84 9f 02 00
	00		 je	 $LN359@RefreshAct
$LL14@RefreshAct:

; 635  : 		{
; 636  : 			const NRaceData::TAttachingData * c_pAttachingData;
; 637  : 
; 638  : 			if (!pItemData->GetAttachingDataPointer(k, &c_pAttachingData))

  00237	8b 4d 84	 mov	 ecx, DWORD PTR _pItemData$6[ebp]
  0023a	8d 45 88	 lea	 eax, DWORD PTR _c_pAttachingData$7[ebp]
  0023d	50		 push	 eax
  0023e	56		 push	 esi
  0023f	e8 00 00 00 00	 call	 ?GetAttachingDataPointer@CItemData@@QAEHKPAPBUSAttachingData@NRaceData@@@Z ; CItemData::GetAttachingDataPointer
  00244	85 c0		 test	 eax, eax
  00246	0f 84 74 02 00
	00		 je	 $LN12@RefreshAct

; 639  : 			{
; 640  : 				continue;
; 641  : 			}
; 642  : 
; 643  : 			switch (c_pAttachingData->dwType)

  0024c	8b 4d 88	 mov	 ecx, DWORD PTR _c_pAttachingData$7[ebp]
  0024f	8b 01		 mov	 eax, DWORD PTR [ecx]
  00251	83 e8 01	 sub	 eax, 1
  00254	0f 84 86 01 00
	00		 je	 $LN35@RefreshAct
  0025a	83 e8 01	 sub	 eax, 1
  0025d	0f 85 5d 02 00
	00		 jne	 $LN12@RefreshAct

; 667  : 				case NRaceData::COLLISION_TYPE_BODY:
; 668  : 					m_BodyPointInstanceList.push_back(PointInstance);
; 669  : 					break;
; 670  : 				}
; 671  : 			}
; 672  : 			break;
; 673  : 
; 674  : 			case NRaceData::ATTACHING_DATA_TYPE_EFFECT:
; 675  : 				if (!m_bEffectInitialized)

  00263	38 87 44 05 00
	00		 cmp	 BYTE PTR [edi+1348], al
  00269	0f 85 51 02 00
	00		 jne	 $LN12@RefreshAct

; 676  : 				{
; 677  : 					DWORD dwCRC;
; 678  : 					StringPath(c_pAttachingData->pEffectData->strFileName);

  0026f	8b 41 28	 mov	 eax, DWORD PTR [ecx+40]
  00272	83 c0 04	 add	 eax, 4
  00275	50		 push	 eax
  00276	e8 00 00 00 00	 call	 ?StringPath@@YAXAAV?$basic_string@DU?$char_traits@D@std@@V?$allocator@D@2@@std@@@Z ; StringPath

; 679  : 					dwCRC = GetCaseCRC32(c_pAttachingData->pEffectData->strFileName.c_str(), c_pAttachingData->pEffectData->strFileName.length());

  0027b	8b 45 88	 mov	 eax, DWORD PTR _c_pAttachingData$7[ebp]
  0027e	83 c4 04	 add	 esp, 4
  00281	8b 40 28	 mov	 eax, DWORD PTR [eax+40]
  00284	8b 48 14	 mov	 ecx, DWORD PTR [eax+20]
; File C:\Program Files\Microsoft Visual Studio\2022\Community\VC\Tools\MSVC\14.34.31933\include\xstring

; 4259 :         return _Mypair._Myval2._Myptr();

  00287	83 c0 04	 add	 eax, 4

; 2293 :         if (_Large_string_engaged()) {

  0028a	83 78 14 10	 cmp	 DWORD PTR [eax+20], 16	; 00000010H
  0028e	72 02		 jb	 SHORT $LN93@RefreshAct

; 2294 :             _Result = _Unfancy(_Bx._Ptr);

  00290	8b 00		 mov	 eax, DWORD PTR [eax]
$LN93@RefreshAct:
; File C:\Users\flourine\Desktop\Xantios\client-src\Code\GameLib\ActorInstanceAttach.cpp

; 679  : 					dwCRC = GetCaseCRC32(c_pAttachingData->pEffectData->strFileName.c_str(), c_pAttachingData->pEffectData->strFileName.length());

  00292	51		 push	 ecx
  00293	50		 push	 eax
  00294	e8 00 00 00 00	 call	 ?GetCaseCRC32@@YAKPBDI@Z ; GetCaseCRC32

; 680  : 
; 681  : 					TAttachingEffect ae;
; 682  : 					ae.iLifeType = EFFECT_LIFE_INFINITE;
; 683  : 					ae.dwEndTime = 0;
; 684  : 					ae.dwModelIndex = j;
; 685  : 					ae.dwEffectIndex = CEffectManager::Instance().GetEmptyIndex();

  00299	8b 0d 00 00 00
	00		 mov	 ecx, DWORD PTR ?ms_singleton@?$CSingleton@VCEffectManager@@@@0PAVCEffectManager@@A ; CSingleton<CEffectManager>::ms_singleton
  0029f	83 c4 08	 add	 esp, 8
  002a2	8b f0		 mov	 esi, eax
  002a4	c7 45 e8 01 00
	00 00		 mov	 DWORD PTR _ae$9[ebp+80], 1
  002ab	8b 45 90	 mov	 eax, DWORD PTR _j$1$[ebp]
  002ae	c7 45 ec 00 00
	00 00		 mov	 DWORD PTR _ae$9[ebp+84], 0
  002b5	89 45 a0	 mov	 DWORD PTR _ae$9[ebp+8], eax
  002b8	e8 00 00 00 00	 call	 ?GetEmptyIndex@CEffectManager@@QAEHXZ ; CEffectManager::GetEmptyIndex

; 686  : 					ae.isAttaching = TRUE;
; 687  : 					CEffectManager::Instance().CreateEffectInstance(ae.dwEffectIndex, dwCRC);

  002bd	6a 00		 push	 0
  002bf	51		 push	 ecx
  002c0	8b 0d 00 00 00
	00		 mov	 ecx, DWORD PTR ?ms_singleton@?$CSingleton@VCEffectManager@@@@0PAVCEffectManager@@A ; CSingleton<CEffectManager>::ms_singleton
  002c6	c7 04 24 00 00
	80 3f		 mov	 DWORD PTR [esp], 1065353216 ; 3f800000H
  002cd	56		 push	 esi
  002ce	50		 push	 eax
  002cf	89 45 98	 mov	 DWORD PTR _ae$9[ebp], eax
  002d2	c7 45 e4 01 00
	00 00		 mov	 DWORD PTR _ae$9[ebp+76], 1
  002d9	e8 00 00 00 00	 call	 ?CreateEffectInstance@CEffectManager@@QAEXKKMPBUD3DXVECTOR3@@@Z ; CEffectManager::CreateEffectInstance

; 688  : 
; 689  : #ifdef ENABLE_RENDER_TARGET_EFFECT
; 690  : 					if (IsRenderTarget())

  002de	8b cf		 mov	 ecx, edi
  002e0	e8 00 00 00 00	 call	 ?IsRenderTarget@CActorInstance@@QAE_NXZ ; CActorInstance::IsRenderTarget
  002e5	84 c0		 test	 al, al
  002e7	74 0e		 je	 SHORT $LN43@RefreshAct

; 691  : 						CEffectManager::Instance().SetSpecialRenderEffect(ae.dwEffectIndex);

  002e9	ff 75 98	 push	 DWORD PTR _ae$9[ebp]
  002ec	8b 0d 00 00 00
	00		 mov	 ecx, DWORD PTR ?ms_singleton@?$CSingleton@VCEffectManager@@@@0PAVCEffectManager@@A ; CSingleton<CEffectManager>::ms_singleton
  002f2	e8 00 00 00 00	 call	 ?SetSpecialRenderEffect@CEffectManager@@QAEXK@Z ; CEffectManager::SetSpecialRenderEffect
$LN43@RefreshAct:
; File C:\Program Files\Microsoft Visual Studio\2022\Community\VC\Tools\MSVC\14.34.31933\include\xstring

; 4259 :         return _Mypair._Myval2._Myptr();

  002f7	8b 45 88	 mov	 eax, DWORD PTR _c_pAttachingData$7[ebp]
  002fa	83 c0 0c	 add	 eax, 12			; 0000000cH

; 2293 :         if (_Large_string_engaged()) {

  002fd	83 78 14 10	 cmp	 DWORD PTR [eax+20], 16	; 00000010H
  00301	72 02		 jb	 SHORT $LN100@RefreshAct

; 2294 :             _Result = _Unfancy(_Bx._Ptr);

  00303	8b 00		 mov	 eax, DWORD PTR [eax]
$LN100@RefreshAct:
; File C:\Users\flourine\Desktop\Xantios\client-src\Code\GameLib\ActorInstanceAttach.cpp

; 695  : 					if (!FindBoneIndex(j, c_pAttachingData->strAttachingBoneName.c_str(), &iBoneIndex))

  00305	8b 75 90	 mov	 esi, DWORD PTR _j$1$[ebp]
  00308	8d 8d 64 ff ff
	ff		 lea	 ecx, DWORD PTR _iBoneIndex$3[ebp]
  0030e	51		 push	 ecx
  0030f	50		 push	 eax
  00310	56		 push	 esi
  00311	8b cf		 mov	 ecx, edi
  00313	e8 00 00 00 00	 call	 ?FindBoneIndex@CGraphicThingInstance@@QAE_NHPBDPAH@Z ; CGraphicThingInstance::FindBoneIndex
  00318	84 c0		 test	 al, al
  0031a	75 0d		 jne	 SHORT $LN44@RefreshAct

; 696  : 					{
; 697  : 						Tracef("Cannot get Bone Index\n");

  0031c	68 00 00 00 00	 push	 OFFSET ??_C@_0BH@KNPFFH@Cannot?5get?5Bone?5Index?6@
  00321	e8 00 00 00 00	 call	 ?Tracef@@YAXPBDZZ	; Tracef
  00326	83 c4 04	 add	 esp, 4
$LN44@RefreshAct:

; 698  : 						assert(false/*Cannot get Bone Index*/);
; 699  : 					}
; 700  : 					Tracef("Creating %p %d %d\n", this, j, k);

  00329	ff 75 94	 push	 DWORD PTR _k$1$[ebp]
  0032c	56		 push	 esi
  0032d	57		 push	 edi
  0032e	68 00 00 00 00	 push	 OFFSET ??_C@_0BD@NKMCNOEI@Creating?5?$CFp?5?$CFd?5?$CFd?6@
  00333	e8 00 00 00 00	 call	 ?Tracef@@YAXPBDZZ	; Tracef

; 701  : 
; 702  : 					ae.iBoneIndex = iBoneIndex;

  00338	8b 85 64 ff ff
	ff		 mov	 eax, DWORD PTR _iBoneIndex$3[ebp]

; 703  : 
; 704  : 					m_AttachingEffectList.push_back(ae);

  0033e	8d b7 3c 05 00
	00		 lea	 esi, DWORD PTR [edi+1340]
  00344	83 c4 10	 add	 esp, 16			; 00000010H
  00347	89 45 9c	 mov	 DWORD PTR _ae$9[ebp+4], eax
; File C:\Program Files\Microsoft Visual Studio\2022\Community\VC\Tools\MSVC\14.34.31933\include\list

; 1012 :         if (_Mysize == max_size()) {

  0034a	81 7e 04 aa aa
	aa 02		 cmp	 DWORD PTR [esi+4], 44739242 ; 02aaaaaaH

; 1256 :         _Emplace(_Mypair._Myval2._Myhead, _Val);

  00351	8b 06		 mov	 eax, DWORD PTR [esi]
  00353	89 85 60 ff ff
	ff		 mov	 DWORD PTR __Where$1$[ebp], eax

; 1012 :         if (_Mysize == max_size()) {

  00359	0f 84 ce 01 00
	00		 je	 $LN344@RefreshAct
; File C:\Program Files\Microsoft Visual Studio\2022\Community\VC\Tools\MSVC\14.34.31933\include\xmemory

; 1005 :     _CONSTEXPR20 explicit _Alloc_construct_ptr(_Alloc& _Al_) : _Al(_Al_), _Ptr(nullptr) {}

  0035f	89 b5 58 ff ff
	ff		 mov	 DWORD PTR __Op$2[ebp], esi

; 77   :         return ::operator new(_Bytes);

  00365	6a 60		 push	 96			; 00000060H
; File C:\Program Files\Microsoft Visual Studio\2022\Community\VC\Tools\MSVC\14.34.31933\include\list

; 584  :     explicit _List_node_emplace_op2(_Alnode& _Al_, _Valtys&&... _Vals) : _Alloc_construct_ptr<_Alnode>(_Al_) {

  00367	c7 45 fc 02 00
	00 00		 mov	 DWORD PTR __$EHRec$[ebp+8], 2
; File C:\Program Files\Microsoft Visual Studio\2022\Community\VC\Tools\MSVC\14.34.31933\include\xmemory

; 1012 :         _Ptr = nullptr; // if allocate throws, prevents double-free

  0036e	c7 85 5c ff ff
	ff 00 00 00 00	 mov	 DWORD PTR __Op$2[ebp+4], 0

; 77   :         return ::operator new(_Bytes);

  00378	e8 00 00 00 00	 call	 ??2@YAPAXI@Z		; operator new

; 680  :             ::new (_Voidify_iter(_Ptr)) _Objty(_STD forward<_Types>(_Args)...);

  0037d	0f 10 45 98	 movups	 xmm0, XMMWORD PTR _ae$9[ebp]

; 235  :         return _Traits::_Allocate(_Bytes);

  00381	8b c8		 mov	 ecx, eax
; File C:\Program Files\Microsoft Visual Studio\2022\Community\VC\Tools\MSVC\14.34.31933\include\list

; 599  :         const pointer _Insert_after = _Insert_before->_Prev;

  00383	8b 95 60 ff ff
	ff		 mov	 edx, DWORD PTR __Where$1$[ebp]
; File C:\Program Files\Microsoft Visual Studio\2022\Community\VC\Tools\MSVC\14.34.31933\include\xmemory

; 77   :         return ::operator new(_Bytes);

  00389	83 c4 04	 add	 esp, 4
; File C:\Program Files\Microsoft Visual Studio\2022\Community\VC\Tools\MSVC\14.34.31933\include\list

; 587  :     }

  0038c	c7 45 fc ff ff
	ff ff		 mov	 DWORD PTR __$EHRec$[ebp+8], -1

; 603  :         this->_Ptr            = pointer{};

  00393	c7 85 5c ff ff
	ff 00 00 00 00	 mov	 DWORD PTR __Op$2[ebp+4], 0
; File C:\Program Files\Microsoft Visual Studio\2022\Community\VC\Tools\MSVC\14.34.31933\include\xmemory

; 680  :             ::new (_Voidify_iter(_Ptr)) _Objty(_STD forward<_Types>(_Args)...);

  0039d	0f 11 41 08	 movups	 XMMWORD PTR [ecx+8], xmm0
  003a1	0f 10 45 a8	 movups	 xmm0, XMMWORD PTR _ae$9[ebp+16]
  003a5	0f 11 41 18	 movups	 XMMWORD PTR [ecx+24], xmm0
  003a9	0f 10 45 b8	 movups	 xmm0, XMMWORD PTR _ae$9[ebp+32]
  003ad	0f 11 41 28	 movups	 XMMWORD PTR [ecx+40], xmm0
  003b1	0f 10 45 c8	 movups	 xmm0, XMMWORD PTR _ae$9[ebp+48]
  003b5	0f 11 41 38	 movups	 XMMWORD PTR [ecx+56], xmm0
  003b9	0f 10 45 d8	 movups	 xmm0, XMMWORD PTR _ae$9[ebp+64]
  003bd	0f 11 41 48	 movups	 XMMWORD PTR [ecx+72], xmm0
  003c1	f3 0f 7e 45 e8	 movq	 xmm0, QWORD PTR _ae$9[ebp+80]
  003c6	66 0f d6 41 58	 movq	 QWORD PTR [ecx+88], xmm0
; File C:\Program Files\Microsoft Visual Studio\2022\Community\VC\Tools\MSVC\14.34.31933\include\list

; 1017 :         ++_Mysize;

  003cb	ff 46 04	 inc	 DWORD PTR [esi+4]

; 599  :         const pointer _Insert_after = _Insert_before->_Prev;

  003ce	8b 42 04	 mov	 eax, DWORD PTR [edx+4]

; 600  :         _Construct_in_place(this->_Ptr->_Next, _Insert_before);

  003d1	89 11		 mov	 DWORD PTR [ecx], edx

; 601  :         _Construct_in_place(this->_Ptr->_Prev, _Insert_after);

  003d3	89 41 04	 mov	 DWORD PTR [ecx+4], eax

; 604  :         _Insert_before->_Prev = _Result;

  003d6	89 4a 04	 mov	 DWORD PTR [edx+4], ecx

; 605  :         _Insert_after->_Next  = _Result;

  003d9	89 08		 mov	 DWORD PTR [eax], ecx
; File C:\Users\flourine\Desktop\Xantios\client-src\Code\GameLib\ActorInstanceAttach.cpp

; 706  : 				break;

  003db	e9 e0 00 00 00	 jmp	 $LN12@RefreshAct
$LN35@RefreshAct:

; 644  : 			{
; 645  : 			case NRaceData::ATTACHING_DATA_TYPE_COLLISION_DATA:
; 646  : 			{
; 647  : 				const NRaceData::TCollisionData * c_pCollisionData = c_pAttachingData->pCollisionData;

  003e0	8b 71 24	 mov	 esi, DWORD PTR [ecx+36]
; File C:\Program Files\Microsoft Visual Studio\2022\Community\VC\Tools\MSVC\14.34.31933\include\vector

; 390  :     _CONSTEXPR20 _Vector_val() noexcept : _Myfirst(), _Mylast(), _Myend() {}

  003e3	c7 85 78 ff ff
	ff 00 00 00 00	 mov	 DWORD PTR _PointInstance$4[ebp+16], 0
  003ed	c7 85 7c ff ff
	ff 00 00 00 00	 mov	 DWORD PTR _PointInstance$4[ebp+20], 0
  003f7	c7 45 80 00 00
	00 00		 mov	 DWORD PTR _PointInstance$4[ebp+24], 0
; File C:\Users\flourine\Desktop\Xantios\client-src\Code\GameLib\ActorInstanceAttach.cpp

; 650  : 				if (NRaceData::COLLISION_TYPE_ATTACKING == c_pCollisionData->iCollisionType)

  003fe	83 7e 04 02	 cmp	 DWORD PTR [esi+4], 2
  00402	c7 45 fc 01 00
	00 00		 mov	 DWORD PTR __$EHRec$[ebp+8], 1
  00409	75 0c		 jne	 SHORT $LN36@RefreshAct

; 651  : 				{
; 652  : 					continue;

  0040b	c7 45 fc ff ff
	ff ff		 mov	 DWORD PTR __$EHRec$[ebp+8], -1
  00412	e9 a9 00 00 00	 jmp	 $LN12@RefreshAct
$LN36@RefreshAct:

; 653  : 				}
; 654  : 				if (!CreateCollisionInstancePiece(j, c_pAttachingData, &PointInstance))

  00417	8d 85 68 ff ff
	ff		 lea	 eax, DWORD PTR _PointInstance$4[ebp]
  0041d	50		 push	 eax
  0041e	51		 push	 ecx
  0041f	ff 75 90	 push	 DWORD PTR _j$1$[ebp]
  00422	8b cf		 mov	 ecx, edi
  00424	e8 00 00 00 00	 call	 ?CreateCollisionInstancePiece@CActorInstance@@QAE_NKPBUSAttachingData@NRaceData@@PAUSCollisionPointInstance@1@@Z ; CActorInstance::CreateCollisionInstancePiece
  00429	84 c0		 test	 al, al
  0042b	74 3a		 je	 SHORT $LN17@RefreshAct

; 655  : 				{
; 656  : 					continue;
; 657  : 				}
; 658  : 
; 659  : 				switch (c_pCollisionData->iCollisionType)

  0042d	8b 46 04	 mov	 eax, DWORD PTR [esi+4]
  00430	83 e8 01	 sub	 eax, 1
  00433	74 1a		 je	 SHORT $LN40@RefreshAct
  00435	83 e8 02	 sub	 eax, 2
  00438	75 2d		 jne	 SHORT $LN17@RefreshAct
; File C:\Program Files\Microsoft Visual Studio\2022\Community\VC\Tools\MSVC\14.34.31933\include\list

; 1256 :         _Emplace(_Mypair._Myval2._Myhead, _Val);

  0043a	8d 85 68 ff ff
	ff		 lea	 eax, DWORD PTR _PointInstance$4[ebp]
  00440	50		 push	 eax
  00441	ff b7 84 03 00
	00		 push	 DWORD PTR [edi+900]
  00447	8d 8f 84 03 00
	00		 lea	 ecx, DWORD PTR [edi+900]
; File C:\Users\flourine\Desktop\Xantios\client-src\Code\GameLib\ActorInstanceAttach.cpp

; 666  : 					break;

  0044d	eb 13		 jmp	 SHORT $LN369@RefreshAct
$LN40@RefreshAct:
; File C:\Program Files\Microsoft Visual Studio\2022\Community\VC\Tools\MSVC\14.34.31933\include\list

; 1256 :         _Emplace(_Mypair._Myval2._Myhead, _Val);

  0044f	8d 85 68 ff ff
	ff		 lea	 eax, DWORD PTR _PointInstance$4[ebp]
  00455	50		 push	 eax
  00456	ff b7 7c 03 00
	00		 push	 DWORD PTR [edi+892]
  0045c	8d 8f 7c 03 00
	00		 lea	 ecx, DWORD PTR [edi+892]
$LN369@RefreshAct:
; File C:\Users\flourine\Desktop\Xantios\client-src\Code\GameLib\ActorInstanceAttach.cpp

; 634  : 		for (DWORD k = 0; k < pItemData->GetAttachingDataCount(); ++k)

  00462	e8 00 00 00 00	 call	 ??$_Emplace@ABUSCollisionPointInstance@CActorInstance@@@?$list@USCollisionPointInstance@CActorInstance@@V?$allocator@USCollisionPointInstance@CActorInstance@@@std@@@std@@QAEPAU?$_List_node@USCollisionPointInstance@CActorInstance@@PAX@1@QAU21@ABUSCollisionPointInstance@CActorInstance@@@Z ; std::list<CActorInstance::SCollisionPointInstance,std::allocator<CActorInstance::SCollisionPointInstance> >::_Emplace<CActorInstance::SCollisionPointInstance const &>
$LN17@RefreshAct:
  00467	8b b5 78 ff ff
	ff		 mov	 esi, DWORD PTR _PointInstance$4[ebp+16]
  0046d	c7 45 fc ff ff
	ff ff		 mov	 DWORD PTR __$EHRec$[ebp+8], -1
  00474	85 f6		 test	 esi, esi
  00476	74 48		 je	 SHORT $LN12@RefreshAct
  00478	8b 4d 80	 mov	 ecx, DWORD PTR _PointInstance$4[ebp+24]
  0047b	b8 93 24 49 92	 mov	 eax, -1840700269	; 92492493H
  00480	2b ce		 sub	 ecx, esi
  00482	f7 e9		 imul	 ecx
  00484	03 d1		 add	 edx, ecx
  00486	c1 fa 04	 sar	 edx, 4
  00489	8b c2		 mov	 eax, edx
  0048b	c1 e8 1f	 shr	 eax, 31			; 0000001fH
  0048e	03 c2		 add	 eax, edx
  00490	8d 0c c5 00 00
	00 00		 lea	 ecx, DWORD PTR [eax*8]
  00497	2b c8		 sub	 ecx, eax
  00499	8b c6		 mov	 eax, esi
  0049b	c1 e1 02	 shl	 ecx, 2
  0049e	81 f9 00 10 00
	00		 cmp	 ecx, 4096		; 00001000H
  004a4	72 10		 jb	 SHORT $LN213@RefreshAct
  004a6	8b 70 fc	 mov	 esi, DWORD PTR [eax-4]
  004a9	83 c1 23	 add	 ecx, 35			; 00000023H
  004ac	2b c6		 sub	 eax, esi
  004ae	83 c0 fc	 add	 eax, -4			; fffffffcH
  004b1	83 f8 1f	 cmp	 eax, 31			; 0000001fH
  004b4	77 72		 ja	 SHORT $LN328@RefreshAct
$LN213@RefreshAct:
  004b6	51		 push	 ecx
  004b7	56		 push	 esi
  004b8	e8 00 00 00 00	 call	 ??3@YAXPAXI@Z		; operator delete
  004bd	83 c4 08	 add	 esp, 8
$LN12@RefreshAct:
  004c0	8b 4d 84	 mov	 ecx, DWORD PTR _pItemData$6[ebp]
  004c3	ff 45 94	 inc	 DWORD PTR _k$1$[ebp]
  004c6	e8 00 00 00 00	 call	 ?GetAttachingDataCount@CItemData@@QAEKXZ ; CItemData::GetAttachingDataCount
  004cb	8b 75 94	 mov	 esi, DWORD PTR _k$1$[ebp]
  004ce	3b f0		 cmp	 esi, eax
  004d0	0f 82 61 fd ff
	ff		 jb	 $LL14@RefreshAct
$LN359@RefreshAct:

; 611  : 
; 612  : 		case NRaceData::ATTACHING_DATA_TYPE_OBJECT:
; 613  : 			break;
; 614  : 
; 615  : 		default:
; 616  : 			assert(false/*NOT_IMPLEMENTED*/);
; 617  : 			break;
; 618  : 		}
; 619  : 	}
; 620  : 
; 621  : 	for (DWORD j = 0; j < CRaceData::PART_MAX_NUM; ++j)

  004d6	8b 45 90	 mov	 eax, DWORD PTR _j$1$[ebp]
$LN9@RefreshAct:
  004d9	8b 4d 8c	 mov	 ecx, DWORD PTR tv1470[ebp]
  004dc	40		 inc	 eax
  004dd	83 c1 04	 add	 ecx, 4
  004e0	89 45 90	 mov	 DWORD PTR _j$1$[ebp], eax
  004e3	89 4d 8c	 mov	 DWORD PTR tv1470[ebp], ecx
  004e6	83 f8 06	 cmp	 eax, 6
  004e9	0f 82 11 fd ff
	ff		 jb	 $LL11@RefreshAct

; 707  : 
; 708  : 			case NRaceData::ATTACHING_DATA_TYPE_OBJECT:
; 709  : 				break;
; 710  : 
; 711  : 			default:
; 712  : 				assert(false/*NOT_IMPLEMENTED*/);
; 713  : 				break;
; 714  : 			}
; 715  : 		}
; 716  : 	}
; 717  : 
; 718  : #ifdef ENABLE_HIDE_EFFECTS
; 719  : 	if (m_bIsHideEffect)

  004ef	80 bf 45 05 00
	00 00		 cmp	 BYTE PTR [edi+1349], 0
  004f6	8b cf		 mov	 ecx, edi
  004f8	74 07		 je	 SHORT $LN47@RefreshAct

; 720  : 	{
; 721  : 		HideAllAttachingEffect();

  004fa	e8 00 00 00 00	 call	 ?HideAllAttachingEffect@CActorInstance@@QAEXXZ ; CActorInstance::HideAllAttachingEffect

; 722  : 	}

  004ff	eb 05		 jmp	 SHORT $LN48@RefreshAct
$LN47@RefreshAct:

; 723  : 	else
; 724  : 	{
; 725  : 		ShowAllAttachingEffect();

  00501	e8 00 00 00 00	 call	 ?ShowAllAttachingEffect@CActorInstance@@QAEXXZ ; CActorInstance::ShowAllAttachingEffect
$LN48@RefreshAct:

; 726  : 	}
; 727  : #endif
; 728  : 
; 729  : 	m_bEffectInitialized = true;

  00506	c6 87 44 05 00
	00 01		 mov	 BYTE PTR [edi+1348], 1
$LN1@RefreshAct:

; 730  : }

  0050d	8b 4d f4	 mov	 ecx, DWORD PTR __$EHRec$[ebp]
  00510	64 89 0d 00 00
	00 00		 mov	 DWORD PTR fs:0, ecx
  00517	59		 pop	 ecx
  00518	5f		 pop	 edi
  00519	5e		 pop	 esi
  0051a	8b 4d f0	 mov	 ecx, DWORD PTR __$ArrayPad$[ebp]
  0051d	33 cd		 xor	 ecx, ebp
  0051f	e8 00 00 00 00	 call	 @__security_check_cookie@4
  00524	8b e5		 mov	 esp, ebp
  00526	5d		 pop	 ebp
  00527	c3		 ret	 0
$LN328@RefreshAct:
  00528	e8 00 00 00 00	 call	 __invalid_parameter_noinfo_noreturn
$LN344@RefreshAct:
; File C:\Program Files\Microsoft Visual Studio\2022\Community\VC\Tools\MSVC\14.34.31933\include\list

; 1013 :             _Xlength_error("list too long");

  0052d	68 00 00 00 00	 push	 OFFSET ??_C@_0O@NKNMEGII@list?5too?5long@
  00532	e8 00 00 00 00	 call	 ?_Xlength_error@std@@YAXPBD@Z ; std::_Xlength_error
$LN361@RefreshAct:
  00537	cc		 int	 3
_TEXT	ENDS
;	COMDAT text$x
text$x	SEGMENT
__unwindfunclet$?RefreshActorInstance@CActorInstance@@QAEXXZ$0:
  00000	8d 8d 68 ff ff
	ff		 lea	 ecx, DWORD PTR _PointInstance$5[ebp]
  00006	e9 00 00 00 00	 jmp	 ??1SCollisionPointInstance@CActorInstance@@QAE@XZ
__unwindfunclet$?RefreshActorInstance@CActorInstance@@QAEXXZ$5:
  0000b	8d 8d 58 ff ff
	ff		 lea	 ecx, DWORD PTR __Op$2[ebp]
  00011	e9 00 00 00 00	 jmp	 ??1?$_Alloc_construct_ptr@V?$allocator@U?$_List_node@UTAttachingEffect@CActorInstance@@PAX@std@@@std@@@std@@QAE@XZ ; std::_Alloc_construct_ptr<std::allocator<std::_List_node<CActorInstance::TAttachingEffect,void *> > >::~_Alloc_construct_ptr<std::allocator<std::_List_node<CActorInstance::TAttachingEffect,void *> > >
__unwindfunclet$?RefreshActorInstance@CActorInstance@@QAEXXZ$1:
  00016	8d 8d 68 ff ff
	ff		 lea	 ecx, DWORD PTR _PointInstance$4[ebp]
  0001c	e9 00 00 00 00	 jmp	 ??1SCollisionPointInstance@CActorInstance@@QAE@XZ
  00021	cc		 int	 3
  00022	cc		 int	 3
  00023	cc		 int	 3
  00024	cc		 int	 3
  00025	cc		 int	 3
__ehhandler$?RefreshActorInstance@CActorInstance@@QAEXXZ:
  00026	90		 npad	 1
  00027	90		 npad	 1
  00028	8b 54 24 08	 mov	 edx, DWORD PTR [esp+8]
  0002c	8d 42 0c	 lea	 eax, DWORD PTR [edx+12]
  0002f	8b 8a 58 ff ff
	ff		 mov	 ecx, DWORD PTR [edx-168]
  00035	33 c8		 xor	 ecx, eax
  00037	e8 00 00 00 00	 call	 @__security_check_cookie@4
  0003c	8b 4a fc	 mov	 ecx, DWORD PTR [edx-4]
  0003f	33 c8		 xor	 ecx, eax
  00041	e8 00 00 00 00	 call	 @__security_check_cookie@4
  00046	b8 00 00 00 00	 mov	 eax, OFFSET __ehfuncinfo$?RefreshActorInstance@CActorInstance@@QAEXXZ
  0004b	e9 00 00 00 00	 jmp	 ___CxxFrameHandler3
text$x	ENDS
?RefreshActorInstance@CActorInstance@@QAEXXZ ENDP	; CActorInstance::RefreshActorInstance
; Function compile flags: /Ogtp
; File C:\Users\flourine\Desktop\Xantios\client-src\Code\GameLib\ActorInstanceAttach.cpp
;	COMDAT ?AttachSash@CActorInstance@@QAEXKKK@Z
_TEXT	SEGMENT
_dwItemIndex$ = 8					; size = 4
_dwParentPartIndex$ = 12				; size = 4
_pItemData$ = 16					; size = 4
_dwPartIndex$ = 16					; size = 4
?AttachSash@CActorInstance@@QAEXKKK@Z PROC		; CActorInstance::AttachSash, COMDAT
; _this$ = ecx

; 913  : {

  00000	55		 push	 ebp
  00001	8b ec		 mov	 ebp, esp
  00003	56		 push	 esi
  00004	57		 push	 edi

; 914  : 
; 915  : 	if (dwPartIndex >= CRaceData::PART_MAX_NUM)

  00005	8b 7d 10	 mov	 edi, DWORD PTR _dwPartIndex$[ebp]
  00008	8b f1		 mov	 esi, ecx
  0000a	83 ff 06	 cmp	 edi, 6
  0000d	73 72		 jae	 SHORT $LN1@AttachSash

; 916  : 	{
; 917  : 		return;
; 918  : 	}
; 919  : 
; 920  : 	m_adwPartItemID[dwPartIndex] = dwItemIndex;

  0000f	53		 push	 ebx
  00010	8b 5d 08	 mov	 ebx, DWORD PTR _dwItemIndex$[ebp]

; 921  : 
; 922  : 
; 923  : 	CItemData* pItemData;
; 924  : 	if (!CItemManager::Instance().GetItemDataPointer(dwItemIndex, &pItemData) || dwItemIndex == 0)

  00013	8d 45 10	 lea	 eax, DWORD PTR _pItemData$[ebp]
  00016	50		 push	 eax
  00017	89 9c be 24 05
	00 00		 mov	 DWORD PTR [esi+edi*4+1316], ebx
  0001e	8b 0d 00 00 00
	00		 mov	 ecx, DWORD PTR ?ms_singleton@?$CSingleton@VCItemManager@@@@0PAVCItemManager@@A ; CSingleton<CItemManager>::ms_singleton
  00024	53		 push	 ebx
  00025	e8 00 00 00 00	 call	 ?GetItemDataPointer@CItemManager@@QAEHKPAPAVCItemData@@@Z ; CItemManager::GetItemDataPointer
  0002a	85 c0		 test	 eax, eax
  0002c	74 1a		 je	 SHORT $LN4@AttachSash
  0002e	85 db		 test	 ebx, ebx
  00030	74 16		 je	 SHORT $LN4@AttachSash

; 933  : 		return;
; 934  : 	}
; 935  : 
; 936  : 	AttachSash(dwParentPartIndex, CRaceData::PART_SASH, pItemData);

  00032	ff 75 10	 push	 DWORD PTR _pItemData$[ebp]
  00035	8b ce		 mov	 ecx, esi
  00037	6a 05		 push	 5
  00039	ff 75 0c	 push	 DWORD PTR _dwParentPartIndex$[ebp]
  0003c	e8 00 00 00 00	 call	 ?AttachSash@CActorInstance@@QAEXKKPAVCItemData@@@Z ; CActorInstance::AttachSash
  00041	5b		 pop	 ebx
  00042	5f		 pop	 edi

; 937  : }

  00043	5e		 pop	 esi
  00044	5d		 pop	 ebp
  00045	c2 0c 00	 ret	 12			; 0000000cH
$LN4@AttachSash:

; 925  : 	{
; 926  : 		RegisterModelThing(dwPartIndex, NULL);

  00048	6a 00		 push	 0
  0004a	57		 push	 edi
  0004b	8b ce		 mov	 ecx, esi
  0004d	e8 00 00 00 00	 call	 ?RegisterModelThing@CGraphicThingInstance@@QAEXHPAVCGraphicThing@@@Z ; CGraphicThingInstance::RegisterModelThing

; 927  : 		SetModelInstance(dwPartIndex, dwPartIndex, 0);

  00052	6a ff		 push	 -1
  00054	6a 00		 push	 0
  00056	57		 push	 edi
  00057	57		 push	 edi
  00058	8b ce		 mov	 ecx, esi
  0005a	e8 00 00 00 00	 call	 ?SetModelInstance@CGraphicThingInstance@@QAE_NHHHH@Z ; CGraphicThingInstance::SetModelInstance

; 928  : 
; 929  : 		RegisterModelThing(CRaceData::PART_SASH, NULL);

  0005f	6a 00		 push	 0
  00061	6a 05		 push	 5
  00063	8b ce		 mov	 ecx, esi
  00065	e8 00 00 00 00	 call	 ?RegisterModelThing@CGraphicThingInstance@@QAEXHPAVCGraphicThing@@@Z ; CGraphicThingInstance::RegisterModelThing

; 930  : 		SetModelInstance(CRaceData::PART_SASH, CRaceData::PART_SASH, 0);

  0006a	6a ff		 push	 -1
  0006c	6a 00		 push	 0
  0006e	6a 05		 push	 5
  00070	6a 05		 push	 5
  00072	8b ce		 mov	 ecx, esi
  00074	e8 00 00 00 00	 call	 ?SetModelInstance@CGraphicThingInstance@@QAE_NHHHH@Z ; CGraphicThingInstance::SetModelInstance

; 931  : 
; 932  : 		RefreshActorInstance();

  00079	8b ce		 mov	 ecx, esi
  0007b	e8 00 00 00 00	 call	 ?RefreshActorInstance@CActorInstance@@QAEXXZ ; CActorInstance::RefreshActorInstance
  00080	5b		 pop	 ebx
$LN1@AttachSash:

; 937  : }

  00081	5f		 pop	 edi
  00082	5e		 pop	 esi
  00083	5d		 pop	 ebp
  00084	c2 0c 00	 ret	 12			; 0000000cH
?AttachSash@CActorInstance@@QAEXKKK@Z ENDP		; CActorInstance::AttachSash
_TEXT	ENDS
; Function compile flags: /Ogtp
; File C:\Users\flourine\Desktop\Xantios\client-src\Code\GameLib\ActorInstanceAttach.cpp
;	COMDAT ?AttachSash@CActorInstance@@QAEXKKPAVCItemData@@@Z
_TEXT	SEGMENT
_kMaterialData$ = -20					; size = 16
_this$1$ = -4						; size = 4
_dwParentPartIndex$ = 8					; size = 4
_dwPartIndex$ = 12					; size = 4
$T1 = 16						; size = 4
_pThing$2 = 16						; size = 4
_pItemData$ = 16					; size = 4
?AttachSash@CActorInstance@@QAEXKKPAVCItemData@@@Z PROC	; CActorInstance::AttachSash, COMDAT
; _this$ = ecx

; 868  : {

  00000	55		 push	 ebp
  00001	8b ec		 mov	 ebp, esp
  00003	83 ec 14	 sub	 esp, 20			; 00000014H
  00006	53		 push	 ebx
  00007	56		 push	 esi
  00008	57		 push	 edi

; 869  : 	if (!pItemData)

  00009	8b 7d 10	 mov	 edi, DWORD PTR _pItemData$[ebp]
  0000c	8b f1		 mov	 esi, ecx
  0000e	89 75 fc	 mov	 DWORD PTR _this$1$[ebp], esi
  00011	85 ff		 test	 edi, edi
  00013	0f 84 b1 00 00
	00		 je	 $LN1@AttachSash

; 870  : 	{
; 871  : 		return;
; 872  : 	}
; 873  : 
; 874  : 
; 875  : 	if (CRaceData::PART_SASH == dwPartIndex)

  00019	8b 5d 0c	 mov	 ebx, DWORD PTR _dwPartIndex$[ebp]
  0001c	8b cf		 mov	 ecx, edi
  0001e	83 fb 05	 cmp	 ebx, 5
  00021	75 0a		 jne	 SHORT $LN6@AttachSash

; 876  : 	{
; 877  : 		RegisterModelThing(CRaceData::PART_SASH, pItemData->GetSubModelThing());

  00023	89 5d 10	 mov	 DWORD PTR $T1[ebp], ebx
  00026	e8 00 00 00 00	 call	 ?GetSubModelThing@CItemData@@QAEPAVCGraphicThing@@XZ ; CItemData::GetSubModelThing

; 878  : 	}

  0002b	eb 08		 jmp	 SHORT $LN7@AttachSash
$LN6@AttachSash:

; 879  : 	else
; 880  : 	{
; 881  : 		RegisterModelThing(dwPartIndex, pItemData->GetModelThing());

  0002d	89 5d 10	 mov	 DWORD PTR $T1[ebp], ebx
  00030	e8 00 00 00 00	 call	 ?GetModelThing@CItemData@@QAEPAVCGraphicThing@@XZ ; CItemData::GetModelThing
$LN7@AttachSash:

; 882  : 	}
; 883  : 
; 884  : 
; 885  : 	for (DWORD i = 0; i < pItemData->GetLODModelThingCount(); ++i)

  00035	50		 push	 eax
  00036	ff 75 10	 push	 DWORD PTR $T1[ebp]
  00039	8b ce		 mov	 ecx, esi
  0003b	e8 00 00 00 00	 call	 ?RegisterModelThing@CGraphicThingInstance@@QAEXHPAVCGraphicThing@@@Z ; CGraphicThingInstance::RegisterModelThing
  00040	8b cf		 mov	 ecx, edi
  00042	33 f6		 xor	 esi, esi
  00044	e8 00 00 00 00	 call	 ?GetLODModelThingCount@CItemData@@QAEKXZ ; CItemData::GetLODModelThingCount
  00049	85 c0		 test	 eax, eax
  0004b	74 2b		 je	 SHORT $LN3@AttachSash
  0004d	0f 1f 00	 npad	 3
$LL4@AttachSash:

; 886  : 	{
; 887  : 		CGraphicThing* pThing;
; 888  : 
; 889  : 		if (!pItemData->GetLODModelThingPointer(i, &pThing))

  00050	8d 45 10	 lea	 eax, DWORD PTR _pThing$2[ebp]
  00053	8b cf		 mov	 ecx, edi
  00055	50		 push	 eax
  00056	56		 push	 esi
  00057	e8 00 00 00 00	 call	 ?GetLODModelThingPointer@CItemData@@QAEHKPAPAVCGraphicThing@@@Z ; CItemData::GetLODModelThingPointer
  0005c	85 c0		 test	 eax, eax
  0005e	74 0c		 je	 SHORT $LN2@AttachSash

; 890  : 		{
; 891  : 			continue;
; 892  : 		}
; 893  : 
; 894  : 		RegisterLODThing(dwPartIndex, pThing);

  00060	ff 75 10	 push	 DWORD PTR _pThing$2[ebp]
  00063	8b 4d fc	 mov	 ecx, DWORD PTR _this$1$[ebp]
  00066	53		 push	 ebx
  00067	e8 00 00 00 00	 call	 ?RegisterLODThing@CGraphicThingInstance@@QAEXHPAVCGraphicThing@@@Z ; CGraphicThingInstance::RegisterLODThing
$LN2@AttachSash:

; 882  : 	}
; 883  : 
; 884  : 
; 885  : 	for (DWORD i = 0; i < pItemData->GetLODModelThingCount(); ++i)

  0006c	8b cf		 mov	 ecx, edi
  0006e	46		 inc	 esi
  0006f	e8 00 00 00 00	 call	 ?GetLODModelThingCount@CItemData@@QAEKXZ ; CItemData::GetLODModelThingCount
  00074	3b f0		 cmp	 esi, eax
  00076	72 d8		 jb	 SHORT $LL4@AttachSash
$LN3@AttachSash:

; 895  : 	}
; 896  : 
; 897  : 
; 898  : 
; 899  : 	SetModelInstance(dwPartIndex, dwPartIndex, 0);

  00078	8b 75 fc	 mov	 esi, DWORD PTR _this$1$[ebp]
  0007b	8b ce		 mov	 ecx, esi
  0007d	6a ff		 push	 -1
  0007f	6a 00		 push	 0
  00081	53		 push	 ebx
  00082	53		 push	 ebx
  00083	e8 00 00 00 00	 call	 ?SetModelInstance@CGraphicThingInstance@@QAE_NHHHH@Z ; CGraphicThingInstance::SetModelInstance

; 900  : 
; 901  : 	AttachModelInstance(dwParentPartIndex, "Bip01 Spine2", dwPartIndex);

  00088	53		 push	 ebx
  00089	68 00 00 00 00	 push	 OFFSET ??_C@_0N@DLOEJLFF@Bip01?5Spine2@
  0008e	ff 75 08	 push	 DWORD PTR _dwParentPartIndex$[ebp]
  00091	8b ce		 mov	 ecx, esi
  00093	e8 00 00 00 00	 call	 ?AttachModelInstance@CGraphicThingInstance@@QAEXHPBDH@Z ; CGraphicThingInstance::AttachModelInstance

; 902  : 
; 903  : 	SMaterialData kMaterialData;
; 904  : 	kMaterialData.pImage = NULL;
; 905  : 	kMaterialData.isSpecularEnable = TRUE;
; 906  : 	kMaterialData.fSpecularPower = pItemData->GetSpecularPowerf();

  00098	8b cf		 mov	 ecx, edi
  0009a	c7 45 ec 00 00
	00 00		 mov	 DWORD PTR _kMaterialData$[ebp], 0
  000a1	c7 45 f4 01 00
	00 00		 mov	 DWORD PTR _kMaterialData$[ebp+8], 1
  000a8	e8 00 00 00 00	 call	 ?GetSpecularPowerf@CItemData@@QBEMXZ ; CItemData::GetSpecularPowerf

; 907  : 	kMaterialData.bSphereMapIndex = 1;
; 908  : 	SetMaterialData(dwPartIndex, NULL, kMaterialData);

  000ad	83 ec 10	 sub	 esp, 16			; 00000010H
  000b0	c6 45 f8 01	 mov	 BYTE PTR _kMaterialData$[ebp+12], 1
  000b4	8b c4		 mov	 eax, esp
  000b6	8b ce		 mov	 ecx, esi
  000b8	d9 5d f0	 fstp	 DWORD PTR _kMaterialData$[ebp+4]
  000bb	0f 10 45 ec	 movups	 xmm0, XMMWORD PTR _kMaterialData$[ebp]
  000bf	6a 00		 push	 0
  000c1	53		 push	 ebx
  000c2	0f 11 00	 movups	 XMMWORD PTR [eax], xmm0
  000c5	e8 00 00 00 00	 call	 ?SetMaterialData@CGraphicThingInstance@@QAEXIPBDUSMaterialData@@@Z ; CGraphicThingInstance::SetMaterialData
$LN1@AttachSash:

; 909  : 
; 910  : }

  000ca	5f		 pop	 edi
  000cb	5e		 pop	 esi
  000cc	5b		 pop	 ebx
  000cd	8b e5		 mov	 esp, ebp
  000cf	5d		 pop	 ebp
  000d0	c2 0c 00	 ret	 12			; 0000000cH
?AttachSash@CActorInstance@@QAEXKKPAVCItemData@@@Z ENDP	; CActorInstance::AttachSash
_TEXT	ENDS
; Function compile flags: /Ogtp
; File C:\Users\flourine\Desktop\Xantios\client-src\Code\GameLib\ActorInstanceAttach.cpp
; File C:\Program Files\Microsoft Visual Studio\2022\Community\VC\Tools\MSVC\14.34.31933\include\vector
; File C:\Users\flourine\Desktop\Xantios\client-src\Code\GameLib\ActorInstanceAttach.cpp
; File C:\Program Files\Microsoft Visual Studio\2022\Community\VC\Tools\MSVC\14.34.31933\include\vector
; File C:\Users\flourine\Desktop\Xantios\client-src\Code\GameLib\ActorInstanceAttach.cpp
; File C:\Program Files\Microsoft Visual Studio\2022\Community\VC\Tools\MSVC\14.34.31933\include\vector
; File C:\Users\flourine\Desktop\Xantios\client-src\Code\GameLib\ActorInstanceAttach.cpp
;	COMDAT ?AttachWeapon@CActorInstance@@QAEXKKPAVCItemData@@@Z
_TEXT	SEGMENT
_kMaterialData$1 = -20					; size = 16
_pThing$2 = -4						; size = 4
_dwParentPartIndex$ = 8					; size = 4
_pWeaponTrace$3 = 12					; size = 4
_dwPartIndex$ = 12					; size = 4
_szBoneName$ = 16					; size = 4
_pItemData$ = 16					; size = 4
?AttachWeapon@CActorInstance@@QAEXKKPAVCItemData@@@Z PROC ; CActorInstance::AttachWeapon, COMDAT
; _this$ = ecx

; 348  : {

  00000	55		 push	 ebp
  00001	8b ec		 mov	 ebp, esp
  00003	83 ec 14	 sub	 esp, 20			; 00000014H
  00006	53		 push	 ebx

; 349  : //	assert(m_pkCurRaceData);
; 350  : 	if (!pItemData)

  00007	8b 5d 10	 mov	 ebx, DWORD PTR _pItemData$[ebp]
  0000a	56		 push	 esi
  0000b	57		 push	 edi
  0000c	8b f9		 mov	 edi, ecx
  0000e	85 db		 test	 ebx, ebx
  00010	0f 84 19 01 00
	00		 je	 $LN15@AttachWeap

; 351  : 	{
; 352  : 		return;
; 353  : 	}
; 354  : 
; 355  : #if defined(ENABLE_WOLFMAN_CHARACTER) && defined(AUTODETECT_LYCAN_RODNPICK_BONE)
; 356  : 	const char * szBoneName;
; 357  : 	if ((GetRace() == 8) && (pItemData->GetType() == CItemData::ITEM_TYPE_ROD || pItemData->GetType() == CItemData::ITEM_TYPE_PICK))
; 358  : 	{
; 359  : 		szBoneName = "equip_right";
; 360  : 	}
; 361  : 	else if (!GetAttachingBoneName(dwPartIndex, &szBoneName))
; 362  : 	{
; 363  : 		return;
; 364  : 	}
; 365  : #else
; 366  : 	const char * szBoneName;
; 367  : 	if (!GetAttachingBoneName(dwPartIndex, &szBoneName))

  00016	8b 75 0c	 mov	 esi, DWORD PTR _dwPartIndex$[ebp]
  00019	8d 45 10	 lea	 eax, DWORD PTR _szBoneName$[ebp]
  0001c	50		 push	 eax
  0001d	56		 push	 esi
  0001e	e8 00 00 00 00	 call	 ?GetAttachingBoneName@CActorInstance@@QAEHKPAPBD@Z ; CActorInstance::GetAttachingBoneName
  00023	85 c0		 test	 eax, eax
  00025	0f 84 04 01 00
	00		 je	 $LN15@AttachWeap

; 368  : 	{
; 369  : 		return;
; 370  : 	}
; 371  : #endif
; 372  : 
; 373  : 	if (CRaceData::PART_WEAPON_LEFT == dwPartIndex)

  0002b	8b cb		 mov	 ecx, ebx
  0002d	83 fe 03	 cmp	 esi, 3
  00030	75 07		 jne	 SHORT $LN7@AttachWeap

; 374  : 	{
; 375  : 		RegisterModelThing(dwPartIndex, pItemData->GetSubModelThing());

  00032	e8 00 00 00 00	 call	 ?GetSubModelThing@CItemData@@QAEPAVCGraphicThing@@XZ ; CItemData::GetSubModelThing

; 376  : 	}

  00037	eb 05		 jmp	 SHORT $LN8@AttachWeap
$LN7@AttachWeap:

; 377  : 	else
; 378  : 	{
; 379  : 		RegisterModelThing(dwPartIndex, pItemData->GetModelThing());

  00039	e8 00 00 00 00	 call	 ?GetModelThing@CItemData@@QAEPAVCGraphicThing@@XZ ; CItemData::GetModelThing
$LN8@AttachWeap:

; 380  : 	}
; 381  : 
; 382  : 	for (DWORD i = 0; i < pItemData->GetLODModelThingCount(); ++i)

  0003e	50		 push	 eax
  0003f	56		 push	 esi
  00040	8b cf		 mov	 ecx, edi
  00042	e8 00 00 00 00	 call	 ?RegisterModelThing@CGraphicThingInstance@@QAEXHPAVCGraphicThing@@@Z ; CGraphicThingInstance::RegisterModelThing
  00047	8b cb		 mov	 ecx, ebx
  00049	33 f6		 xor	 esi, esi
  0004b	e8 00 00 00 00	 call	 ?GetLODModelThingCount@CItemData@@QAEKXZ ; CItemData::GetLODModelThingCount
  00050	85 c0		 test	 eax, eax
  00052	74 29		 je	 SHORT $LN3@AttachWeap
$LL4@AttachWeap:

; 383  : 	{
; 384  : 		CGraphicThing * pThing;
; 385  : 
; 386  : 		if (!pItemData->GetLODModelThingPointer(i, &pThing))

  00054	8d 45 fc	 lea	 eax, DWORD PTR _pThing$2[ebp]
  00057	8b cb		 mov	 ecx, ebx
  00059	50		 push	 eax
  0005a	56		 push	 esi
  0005b	e8 00 00 00 00	 call	 ?GetLODModelThingPointer@CItemData@@QAEHKPAPAVCGraphicThing@@@Z ; CItemData::GetLODModelThingPointer
  00060	85 c0		 test	 eax, eax
  00062	74 0d		 je	 SHORT $LN2@AttachWeap

; 387  : 		{
; 388  : 			continue;
; 389  : 		}
; 390  : 
; 391  : 		RegisterLODThing(dwPartIndex, pThing);

  00064	ff 75 fc	 push	 DWORD PTR _pThing$2[ebp]
  00067	8b cf		 mov	 ecx, edi
  00069	ff 75 0c	 push	 DWORD PTR _dwPartIndex$[ebp]
  0006c	e8 00 00 00 00	 call	 ?RegisterLODThing@CGraphicThingInstance@@QAEXHPAVCGraphicThing@@@Z ; CGraphicThingInstance::RegisterLODThing
$LN2@AttachWeap:

; 380  : 	}
; 381  : 
; 382  : 	for (DWORD i = 0; i < pItemData->GetLODModelThingCount(); ++i)

  00071	8b cb		 mov	 ecx, ebx
  00073	46		 inc	 esi
  00074	e8 00 00 00 00	 call	 ?GetLODModelThingCount@CItemData@@QAEKXZ ; CItemData::GetLODModelThingCount
  00079	3b f0		 cmp	 esi, eax
  0007b	72 d7		 jb	 SHORT $LL4@AttachWeap
$LN3@AttachWeap:

; 392  : 	}
; 393  : 
; 394  : 	SetModelInstance(dwPartIndex, dwPartIndex, 0);

  0007d	8b 75 0c	 mov	 esi, DWORD PTR _dwPartIndex$[ebp]
  00080	8b cf		 mov	 ecx, edi
  00082	6a ff		 push	 -1
  00084	6a 00		 push	 0
  00086	56		 push	 esi
  00087	56		 push	 esi
  00088	e8 00 00 00 00	 call	 ?SetModelInstance@CGraphicThingInstance@@QAE_NHHHH@Z ; CGraphicThingInstance::SetModelInstance

; 395  : 	AttachModelInstance(dwParentPartIndex, szBoneName, dwPartIndex);

  0008d	56		 push	 esi
  0008e	ff 75 10	 push	 DWORD PTR _szBoneName$[ebp]
  00091	8b cf		 mov	 ecx, edi
  00093	ff 75 08	 push	 DWORD PTR _dwParentPartIndex$[ebp]
  00096	e8 00 00 00 00	 call	 ?AttachModelInstance@CGraphicThingInstance@@QAEXHPBDH@Z ; CGraphicThingInstance::AttachModelInstance

; 396  : 
; 397  : 	if (USE_WEAPON_SPECULAR)

  0009b	83 3d 00 00 00
	00 00		 cmp	 DWORD PTR ?USE_WEAPON_SPECULAR@@3HA, 0 ; USE_WEAPON_SPECULAR
  000a2	74 32		 je	 SHORT $LN10@AttachWeap

; 398  : 	{
; 399  : 		SMaterialData kMaterialData;
; 400  : 		kMaterialData.pImage = NULL;
; 401  : 		kMaterialData.isSpecularEnable = TRUE;
; 402  : 		kMaterialData.fSpecularPower = pItemData->GetSpecularPowerf();

  000a4	8b cb		 mov	 ecx, ebx
  000a6	c7 45 ec 00 00
	00 00		 mov	 DWORD PTR _kMaterialData$1[ebp], 0
  000ad	c7 45 f4 01 00
	00 00		 mov	 DWORD PTR _kMaterialData$1[ebp+8], 1
  000b4	e8 00 00 00 00	 call	 ?GetSpecularPowerf@CItemData@@QBEMXZ ; CItemData::GetSpecularPowerf

; 403  : 		kMaterialData.bSphereMapIndex = 1;
; 404  : 		SetMaterialData(dwPartIndex, NULL, kMaterialData);

  000b9	83 ec 10	 sub	 esp, 16			; 00000010H
  000bc	c6 45 f8 01	 mov	 BYTE PTR _kMaterialData$1[ebp+12], 1
  000c0	8b c4		 mov	 eax, esp
  000c2	8b cf		 mov	 ecx, edi
  000c4	d9 5d f0	 fstp	 DWORD PTR _kMaterialData$1[ebp+4]
  000c7	0f 10 45 ec	 movups	 xmm0, XMMWORD PTR _kMaterialData$1[ebp]
  000cb	6a 00		 push	 0
  000cd	56		 push	 esi
  000ce	0f 11 00	 movups	 XMMWORD PTR [eax], xmm0
  000d1	e8 00 00 00 00	 call	 ?SetMaterialData@CGraphicThingInstance@@QAEXIPBDUSMaterialData@@@Z ; CGraphicThingInstance::SetMaterialData
$LN10@AttachWeap:

; 405  : 	}
; 406  : 
; 407  : 	// Weapon Trace
; 408  : 	if (__IsWeaponTrace(pItemData->GetWeaponType()))

  000d6	8b cb		 mov	 ecx, ebx
  000d8	e8 00 00 00 00	 call	 ?GetWeaponType@CItemData@@QBEKXZ ; CItemData::GetWeaponType
  000dd	50		 push	 eax
  000de	8b cf		 mov	 ecx, edi
  000e0	e8 00 00 00 00	 call	 ?__IsWeaponTrace@CActorInstance@@IAE_NK@Z ; CActorInstance::__IsWeaponTrace
  000e5	84 c0		 test	 al, al
  000e7	74 46		 je	 SHORT $LN15@AttachWeap

; 409  : 	{
; 410  : 		CWeaponTrace * pWeaponTrace = CWeaponTrace::New();

  000e9	e8 00 00 00 00	 call	 ?New@CWeaponTrace@@SAPAV1@XZ ; CWeaponTrace::New

; 411  : 		pWeaponTrace->SetWeaponInstance(this, dwPartIndex, szBoneName);

  000ee	ff 75 10	 push	 DWORD PTR _szBoneName$[ebp]
  000f1	8b d8		 mov	 ebx, eax
  000f3	56		 push	 esi
  000f4	57		 push	 edi
  000f5	8b cb		 mov	 ecx, ebx
  000f7	89 5d 0c	 mov	 DWORD PTR _pWeaponTrace$3[ebp], ebx
  000fa	e8 00 00 00 00	 call	 ?SetWeaponInstance@CWeaponTrace@@QAE_NPAVCGraphicThingInstance@@KPBD@Z ; CWeaponTrace::SetWeaponInstance
; File C:\Program Files\Microsoft Visual Studio\2022\Community\VC\Tools\MSVC\14.34.31933\include\vector

; 844  :         if (_Mylast != _My_data._Myend) {

  000ff	8b 87 bc 03 00
	00		 mov	 eax, DWORD PTR [edi+956]
; File C:\Users\flourine\Desktop\Xantios\client-src\Code\GameLib\ActorInstanceAttach.cpp

; 412  : 		m_WeaponTraceVector.push_back(pWeaponTrace);

  00105	8d 8f b8 03 00
	00		 lea	 ecx, DWORD PTR [edi+952]
; File C:\Program Files\Microsoft Visual Studio\2022\Community\VC\Tools\MSVC\14.34.31933\include\vector

; 844  :         if (_Mylast != _My_data._Myend) {

  0010b	3b 87 c0 03 00
	00		 cmp	 eax, DWORD PTR [edi+960]
  00111	74 12		 je	 SHORT $LN16@AttachWeap

; 860  :             _Construct_in_place(*_Mylast, _STD forward<_Valty>(_Val)...);

  00113	89 18		 mov	 DWORD PTR [eax], ebx

; 861  :         } else {
; 862  :             _ASAN_VECTOR_EXTEND_GUARD(static_cast<size_type>(_Mylast - _My_data._Myfirst) + 1);
; 863  :             _Alty_traits::construct(_Getal(), _Unfancy(_Mylast), _STD forward<_Valty>(_Val)...);
; 864  :             _ASAN_VECTOR_RELEASE_GUARD;
; 865  :         }
; 866  : 
; 867  :         _Orphan_range(_Mylast, _Mylast);
; 868  :         _Ty& _Result = *_Mylast;
; 869  :         ++_Mylast;

  00115	83 87 bc 03 00
	00 04		 add	 DWORD PTR [edi+956], 4
; File C:\Users\flourine\Desktop\Xantios\client-src\Code\GameLib\ActorInstanceAttach.cpp

; 414  : }

  0011c	5f		 pop	 edi
  0011d	5e		 pop	 esi
  0011e	5b		 pop	 ebx
  0011f	8b e5		 mov	 esp, ebp
  00121	5d		 pop	 ebp
  00122	c2 0c 00	 ret	 12			; 0000000cH
$LN16@AttachWeap:
; File C:\Program Files\Microsoft Visual Studio\2022\Community\VC\Tools\MSVC\14.34.31933\include\vector

; 848  :         return *_Emplace_reallocate(_Mylast, _STD forward<_Valty>(_Val)...);

  00125	8d 55 0c	 lea	 edx, DWORD PTR _pWeaponTrace$3[ebp]
  00128	52		 push	 edx
  00129	50		 push	 eax
  0012a	e8 00 00 00 00	 call	 ??$_Emplace_reallocate@ABQAVCWeaponTrace@@@?$vector@PAVCWeaponTrace@@V?$allocator@PAVCWeaponTrace@@@std@@@std@@AAEPAPAVCWeaponTrace@@QAPAV2@ABQAV2@@Z ; std::vector<CWeaponTrace *,std::allocator<CWeaponTrace *> >::_Emplace_reallocate<CWeaponTrace * const &>
$LN15@AttachWeap:
; File C:\Users\flourine\Desktop\Xantios\client-src\Code\GameLib\ActorInstanceAttach.cpp

; 414  : }

  0012f	5f		 pop	 edi
  00130	5e		 pop	 esi
  00131	5b		 pop	 ebx
  00132	8b e5		 mov	 esp, ebp
  00134	5d		 pop	 ebp
  00135	c2 0c 00	 ret	 12			; 0000000cH
?AttachWeapon@CActorInstance@@QAEXKKPAVCItemData@@@Z ENDP ; CActorInstance::AttachWeapon
_TEXT	ENDS
; Function compile flags: /Ogtp
; File C:\Users\flourine\Desktop\Xantios\client-src\Code\GameLib\ActorInstanceAttach.cpp
;	COMDAT ?AttachWeapon@CActorInstance@@QAEXKKK@Z
_TEXT	SEGMENT
_dwItemIndex$ = 8					; size = 4
_dwParentPartIndex$ = 12				; size = 4
_pItemData$ = 16					; size = 4
_dwPartIndex$ = 16					; size = 4
?AttachWeapon@CActorInstance@@QAEXKKK@Z PROC		; CActorInstance::AttachWeapon, COMDAT
; _this$ = ecx

; 304  : {

  00000	55		 push	 ebp
  00001	8b ec		 mov	 ebp, esp
  00003	56		 push	 esi
  00004	57		 push	 edi

; 305  : 	if (dwPartIndex >= CRaceData::PART_MAX_NUM)

  00005	8b 7d 10	 mov	 edi, DWORD PTR _dwPartIndex$[ebp]
  00008	8b f1		 mov	 esi, ecx
  0000a	83 ff 06	 cmp	 edi, 6
  0000d	0f 83 b7 00 00
	00		 jae	 $LN6@AttachWeap

; 306  : 	{
; 307  : 		return;
; 308  : 	}
; 309  : 
; 310  : 	m_adwPartItemID[dwPartIndex] = dwItemIndex;

  00013	8b 45 08	 mov	 eax, DWORD PTR _dwItemIndex$[ebp]
  00016	89 84 be 24 05
	00 00		 mov	 DWORD PTR [esi+edi*4+1316], eax

; 311  : 
; 312  : 	if (USE_VIETNAM_CONVERT_WEAPON_VNUM)

  0001d	83 3d 00 00 00
	00 00		 cmp	 DWORD PTR ?USE_VIETNAM_CONVERT_WEAPON_VNUM@@3HA, 0 ; USE_VIETNAM_CONVERT_WEAPON_VNUM
  00024	74 09		 je	 SHORT $LN3@AttachWeap

; 313  : 	{
; 314  : 		dwItemIndex = Vietnam_ConvertWeaponVnum(dwItemIndex);

  00026	50		 push	 eax
  00027	e8 00 00 00 00	 call	 ?Vietnam_ConvertWeaponVnum@@YAKK@Z ; Vietnam_ConvertWeaponVnum
  0002c	83 c4 04	 add	 esp, 4
$LN3@AttachWeap:

; 315  : 	}
; 316  : 
; 317  : 	CItemData * pItemData;
; 318  : 	if (!CItemManager::Instance().GetItemDataPointer(dwItemIndex, &pItemData))

  0002f	8d 4d 10	 lea	 ecx, DWORD PTR _pItemData$[ebp]
  00032	51		 push	 ecx
  00033	8b 0d 00 00 00
	00		 mov	 ecx, DWORD PTR ?ms_singleton@?$CSingleton@VCItemManager@@@@0PAVCItemManager@@A ; CSingleton<CItemManager>::ms_singleton
  00039	50		 push	 eax
  0003a	e8 00 00 00 00	 call	 ?GetItemDataPointer@CItemManager@@QAEHKPAPAVCItemData@@@Z ; CItemManager::GetItemDataPointer
  0003f	8b ce		 mov	 ecx, esi
  00041	85 c0		 test	 eax, eax
  00043	75 3b		 jne	 SHORT $LN4@AttachWeap

; 319  : 	{
; 320  : 		RegisterModelThing(dwPartIndex, NULL);

  00045	50		 push	 eax
  00046	57		 push	 edi
  00047	e8 00 00 00 00	 call	 ?RegisterModelThing@CGraphicThingInstance@@QAEXHPAVCGraphicThing@@@Z ; CGraphicThingInstance::RegisterModelThing

; 321  : 		SetModelInstance(dwPartIndex, dwPartIndex, 0);

  0004c	6a ff		 push	 -1
  0004e	6a 00		 push	 0
  00050	57		 push	 edi
  00051	57		 push	 edi
  00052	8b ce		 mov	 ecx, esi
  00054	e8 00 00 00 00	 call	 ?SetModelInstance@CGraphicThingInstance@@QAE_NHHHH@Z ; CGraphicThingInstance::SetModelInstance

; 322  : 
; 323  : 		RegisterModelThing(CRaceData::PART_WEAPON_LEFT, NULL);

  00059	6a 00		 push	 0
  0005b	6a 03		 push	 3
  0005d	8b ce		 mov	 ecx, esi
  0005f	e8 00 00 00 00	 call	 ?RegisterModelThing@CGraphicThingInstance@@QAEXHPAVCGraphicThing@@@Z ; CGraphicThingInstance::RegisterModelThing

; 324  : 		SetModelInstance(CRaceData::PART_WEAPON_LEFT, CRaceData::PART_WEAPON_LEFT, 0);

  00064	6a ff		 push	 -1
  00066	6a 00		 push	 0
  00068	6a 03		 push	 3
  0006a	6a 03		 push	 3
  0006c	8b ce		 mov	 ecx, esi
  0006e	e8 00 00 00 00	 call	 ?SetModelInstance@CGraphicThingInstance@@QAE_NHHHH@Z ; CGraphicThingInstance::SetModelInstance

; 325  : 
; 326  : 		RefreshActorInstance();

  00073	8b ce		 mov	 ecx, esi
  00075	e8 00 00 00 00	 call	 ?RefreshActorInstance@CActorInstance@@QAEXXZ ; CActorInstance::RefreshActorInstance
  0007a	5f		 pop	 edi

; 338  : 	}
; 339  : }

  0007b	5e		 pop	 esi
  0007c	5d		 pop	 ebp
  0007d	c2 0c 00	 ret	 12			; 0000000cH
$LN4@AttachWeap:

; 327  : 		return;
; 328  : 	}
; 329  : 
; 330  : 	__DestroyWeaponTrace();

  00080	e8 00 00 00 00	 call	 ?__DestroyWeaponTrace@CActorInstance@@IAEXXZ ; CActorInstance::__DestroyWeaponTrace

; 331  : 	if (__IsRightHandWeapon(pItemData->GetWeaponType()))

  00085	8b 4d 10	 mov	 ecx, DWORD PTR _pItemData$[ebp]
  00088	e8 00 00 00 00	 call	 ?GetWeaponType@CItemData@@QBEKXZ ; CItemData::GetWeaponType
  0008d	50		 push	 eax
  0008e	8b ce		 mov	 ecx, esi
  00090	e8 00 00 00 00	 call	 ?__IsRightHandWeapon@CActorInstance@@IAE_NK@Z ; CActorInstance::__IsRightHandWeapon
  00095	8b 7d 0c	 mov	 edi, DWORD PTR _dwParentPartIndex$[ebp]
  00098	84 c0		 test	 al, al
  0009a	74 0d		 je	 SHORT $LN5@AttachWeap

; 332  : 	{
; 333  : 		AttachWeapon(dwParentPartIndex, CRaceData::PART_WEAPON, pItemData);

  0009c	ff 75 10	 push	 DWORD PTR _pItemData$[ebp]
  0009f	8b ce		 mov	 ecx, esi
  000a1	6a 01		 push	 1
  000a3	57		 push	 edi
  000a4	e8 00 00 00 00	 call	 ?AttachWeapon@CActorInstance@@QAEXKKPAVCItemData@@@Z ; CActorInstance::AttachWeapon
$LN5@AttachWeap:

; 334  : 	}
; 335  : 	if (__IsLeftHandWeapon(pItemData->GetWeaponType()))

  000a9	8b 4d 10	 mov	 ecx, DWORD PTR _pItemData$[ebp]
  000ac	e8 00 00 00 00	 call	 ?GetWeaponType@CItemData@@QBEKXZ ; CItemData::GetWeaponType
  000b1	50		 push	 eax
  000b2	8b ce		 mov	 ecx, esi
  000b4	e8 00 00 00 00	 call	 ?__IsLeftHandWeapon@CActorInstance@@IAE_NK@Z ; CActorInstance::__IsLeftHandWeapon
  000b9	84 c0		 test	 al, al
  000bb	74 0d		 je	 SHORT $LN6@AttachWeap

; 336  : 	{
; 337  : 		AttachWeapon(dwParentPartIndex, CRaceData::PART_WEAPON_LEFT, pItemData);

  000bd	ff 75 10	 push	 DWORD PTR _pItemData$[ebp]
  000c0	8b ce		 mov	 ecx, esi
  000c2	6a 03		 push	 3
  000c4	57		 push	 edi
  000c5	e8 00 00 00 00	 call	 ?AttachWeapon@CActorInstance@@QAEXKKPAVCItemData@@@Z ; CActorInstance::AttachWeapon
$LN6@AttachWeap:

; 338  : 	}
; 339  : }

  000ca	5f		 pop	 edi
  000cb	5e		 pop	 esi
  000cc	5d		 pop	 ebp
  000cd	c2 0c 00	 ret	 12			; 0000000cH
?AttachWeapon@CActorInstance@@QAEXKKK@Z ENDP		; CActorInstance::AttachWeapon
_TEXT	ENDS
; Function compile flags: /Ogtp
; File C:\Program Files\Microsoft Visual Studio\2022\Community\VC\Tools\MSVC\14.34.31933\include\list
; File C:\Program Files\Microsoft Visual Studio\2022\Community\VC\Tools\MSVC\14.34.31933\include\vector
; File C:\Program Files\Microsoft Visual Studio\2022\Community\VC\Tools\MSVC\14.34.31933\include\xmemory
; File C:\Program Files\Microsoft Visual Studio\2022\Community\VC\Tools\MSVC\14.34.31933\include\list
;	COMDAT ?clear@?$list@USCollisionPointInstance@CActorInstance@@V?$allocator@USCollisionPointInstance@CActorInstance@@@std@@@std@@QAEXXZ
_TEXT	SEGMENT
?clear@?$list@USCollisionPointInstance@CActorInstance@@V?$allocator@USCollisionPointInstance@CActorInstance@@@std@@@std@@QAEXXZ PROC ; std::list<CActorInstance::SCollisionPointInstance,std::allocator<CActorInstance::SCollisionPointInstance> >::clear, COMDAT
; _this$ = ecx

; 1484 :     void clear() noexcept { // erase all

  00000	53		 push	 ebx
  00001	8b d9		 mov	 ebx, ecx
  00003	57		 push	 edi

; 1485 :         auto& _My_data = _Mypair._Myval2;
; 1486 :         _My_data._Orphan_non_end();
; 1487 :         _Node::_Free_non_head(_Getal(), _My_data._Myhead);

  00004	8b 13		 mov	 edx, DWORD PTR [ebx]

; 325  :         _Head->_Prev->_Next = nullptr;

  00006	8b 42 04	 mov	 eax, DWORD PTR [edx+4]
  00009	c7 00 00 00 00
	00		 mov	 DWORD PTR [eax], 0

; 326  : 
; 327  :         auto _Pnode = _Head->_Next;

  0000f	8b 3a		 mov	 edi, DWORD PTR [edx]

; 328  :         for (_Nodeptr _Pnext; _Pnode; _Pnode = _Pnext) {

  00011	85 ff		 test	 edi, edi
  00013	74 1d		 je	 SHORT $LN5@clear
  00015	56		 push	 esi
$LL6@clear:

; 329  :             _Pnext = _Pnode->_Next;

  00016	8b 37		 mov	 esi, DWORD PTR [edi]

; 318  :         allocator_traits<_Alnode>::destroy(_Al, _STD addressof(_Ptr->_Myval));

  00018	8d 4f 18	 lea	 ecx, DWORD PTR [edi+24]
; File C:\Program Files\Microsoft Visual Studio\2022\Community\VC\Tools\MSVC\14.34.31933\include\vector

; 830  :         _Tidy();

  0001b	e8 00 00 00 00	 call	 ?_Tidy@?$vector@UCDynamicSphereInstance@@V?$allocator@UCDynamicSphereInstance@@@std@@@std@@AAEXXZ ; std::vector<CDynamicSphereInstance,std::allocator<CDynamicSphereInstance> >::_Tidy
; File C:\Program Files\Microsoft Visual Studio\2022\Community\VC\Tools\MSVC\14.34.31933\include\xmemory

; 255  :         ::operator delete(_Ptr, _Bytes);

  00020	6a 24		 push	 36			; 00000024H
  00022	57		 push	 edi
  00023	e8 00 00 00 00	 call	 ??3@YAXPAXI@Z		; operator delete
  00028	83 c4 08	 add	 esp, 8
; File C:\Program Files\Microsoft Visual Studio\2022\Community\VC\Tools\MSVC\14.34.31933\include\list

; 328  :         for (_Nodeptr _Pnext; _Pnode; _Pnode = _Pnext) {

  0002b	8b fe		 mov	 edi, esi
  0002d	85 f6		 test	 esi, esi
  0002f	75 e5		 jne	 SHORT $LL6@clear
  00031	5e		 pop	 esi
$LN5@clear:

; 1488 :         _My_data._Myhead->_Next = _My_data._Myhead;

  00032	8b 03		 mov	 eax, DWORD PTR [ebx]

; 1489 :         _My_data._Myhead->_Prev = _My_data._Myhead;
; 1490 :         _My_data._Mysize        = 0;

  00034	5f		 pop	 edi
  00035	89 00		 mov	 DWORD PTR [eax], eax
  00037	8b 03		 mov	 eax, DWORD PTR [ebx]
  00039	89 40 04	 mov	 DWORD PTR [eax+4], eax
  0003c	c7 43 04 00 00
	00 00		 mov	 DWORD PTR [ebx+4], 0
  00043	5b		 pop	 ebx

; 1491 :     }

  00044	c3		 ret	 0
?clear@?$list@USCollisionPointInstance@CActorInstance@@V?$allocator@USCollisionPointInstance@CActorInstance@@@std@@@std@@QAEXXZ ENDP ; std::list<CActorInstance::SCollisionPointInstance,std::allocator<CActorInstance::SCollisionPointInstance> >::clear
_TEXT	ENDS
; Function compile flags: /Ogtp
; File C:\Program Files\Microsoft Visual Studio\2022\Community\VC\Tools\MSVC\14.34.31933\include\vector
;	COMDAT ??1SCollisionPointInstance@CActorInstance@@QAE@XZ
_TEXT	SEGMENT
??1SCollisionPointInstance@CActorInstance@@QAE@XZ PROC	; CActorInstance::SCollisionPointInstance::~SCollisionPointInstance, COMDAT
; _this$ = ecx
  00000	83 c1 10	 add	 ecx, 16			; 00000010H

; 830  :         _Tidy();

  00003	e9 00 00 00 00	 jmp	 ?_Tidy@?$vector@UCDynamicSphereInstance@@V?$allocator@UCDynamicSphereInstance@@@std@@@std@@AAEXXZ ; std::vector<CDynamicSphereInstance,std::allocator<CDynamicSphereInstance> >::_Tidy
??1SCollisionPointInstance@CActorInstance@@QAE@XZ ENDP	; CActorInstance::SCollisionPointInstance::~SCollisionPointInstance
_TEXT	ENDS
; Function compile flags: /Ogtp
; File C:\Program Files\Microsoft Visual Studio\2022\Community\VC\Tools\MSVC\14.34.31933\include\vector
;	COMDAT ?_Xlength@?$vector@UCDynamicSphereInstance@@V?$allocator@UCDynamicSphereInstance@@@std@@@std@@CAXXZ
_TEXT	SEGMENT
?_Xlength@?$vector@UCDynamicSphereInstance@@V?$allocator@UCDynamicSphereInstance@@@std@@@std@@CAXXZ PROC ; std::vector<CDynamicSphereInstance,std::allocator<CDynamicSphereInstance> >::_Xlength, COMDAT

; 2201 :         _Xlength_error("vector too long");

  00000	68 00 00 00 00	 push	 OFFSET ??_C@_0BA@FOIKENOD@vector?5too?5long@
  00005	e8 00 00 00 00	 call	 ?_Xlength_error@std@@YAXPBD@Z ; std::_Xlength_error
$LN3@Xlength:
  0000a	cc		 int	 3
?_Xlength@?$vector@UCDynamicSphereInstance@@V?$allocator@UCDynamicSphereInstance@@@std@@@std@@CAXXZ ENDP ; std::vector<CDynamicSphereInstance,std::allocator<CDynamicSphereInstance> >::_Xlength
_TEXT	ENDS
; Function compile flags: /Ogtp
; File C:\Program Files\Microsoft Visual Studio\2022\Community\VC\Tools\MSVC\14.34.31933\include\vector
; File C:\Program Files\Microsoft Visual Studio\2022\Community\VC\Tools\MSVC\14.34.31933\include\xmemory
; File C:\Program Files\Microsoft Visual Studio\2022\Community\VC\Tools\MSVC\14.34.31933\include\vector
; File C:\Program Files\Microsoft Visual Studio\2022\Community\VC\Tools\MSVC\14.34.31933\include\xmemory
; File C:\Program Files\Microsoft Visual Studio\2022\Community\VC\Tools\MSVC\14.34.31933\include\vector
; File C:\Program Files\Microsoft Visual Studio\2022\Community\VC\Tools\MSVC\14.34.31933\include\xmemory
; File C:\Program Files\Microsoft Visual Studio\2022\Community\VC\Tools\MSVC\14.34.31933\include\vector
;	COMDAT ?_Tidy@?$vector@UCDynamicSphereInstance@@V?$allocator@UCDynamicSphereInstance@@@std@@@std@@AAEXXZ
_TEXT	SEGMENT
?_Tidy@?$vector@UCDynamicSphereInstance@@V?$allocator@UCDynamicSphereInstance@@@std@@@std@@AAEXXZ PROC ; std::vector<CDynamicSphereInstance,std::allocator<CDynamicSphereInstance> >::_Tidy, COMDAT
; _this$ = ecx

; 2098 :     _CONSTEXPR20 void _Tidy() noexcept { // free all storage

  00000	56		 push	 esi
  00001	57		 push	 edi
  00002	8b f9		 mov	 edi, ecx

; 2099 :         auto& _Al         = _Getal();
; 2100 :         auto& _My_data    = _Mypair._Myval2;
; 2101 :         pointer& _Myfirst = _My_data._Myfirst;
; 2102 :         pointer& _Mylast  = _My_data._Mylast;
; 2103 :         pointer& _Myend   = _My_data._Myend;
; 2104 : 
; 2105 :         _My_data._Orphan_all();
; 2106 : 
; 2107 :         if (_Myfirst) { // destroy and deallocate old array

  00004	8b 37		 mov	 esi, DWORD PTR [edi]
  00006	85 f6		 test	 esi, esi
  00008	74 5c		 je	 SHORT $LN2@Tidy

; 2108 :             _Destroy_range(_Myfirst, _Mylast, _Al);
; 2109 :             _ASAN_VECTOR_REMOVE;
; 2110 :             _Al.deallocate(_Myfirst, static_cast<size_type>(_Myend - _Myfirst));

  0000a	8b 4f 08	 mov	 ecx, DWORD PTR [edi+8]
  0000d	b8 93 24 49 92	 mov	 eax, -1840700269	; 92492493H
  00012	2b ce		 sub	 ecx, esi
  00014	f7 e9		 imul	 ecx
  00016	03 d1		 add	 edx, ecx
  00018	c1 fa 04	 sar	 edx, 4
  0001b	8b c2		 mov	 eax, edx
  0001d	c1 e8 1f	 shr	 eax, 31			; 0000001fH
  00020	03 c2		 add	 eax, edx
; File C:\Program Files\Microsoft Visual Studio\2022\Community\VC\Tools\MSVC\14.34.31933\include\xmemory

; 830  :         _Deallocate<_New_alignof<_Ty>>(_Ptr, sizeof(_Ty) * _Count);

  00022	8d 0c c5 00 00
	00 00		 lea	 ecx, DWORD PTR [eax*8]
  00029	2b c8		 sub	 ecx, eax
  0002b	c1 e1 02	 shl	 ecx, 2

; 251  :         if (_Bytes >= _Big_allocation_threshold) { // boost the alignment of big allocations to help autovectorization

  0002e	81 f9 00 10 00
	00		 cmp	 ecx, 4096		; 00001000H
  00034	72 12		 jb	 SHORT $LN18@Tidy

; 150  :     const uintptr_t _Ptr_container   = _Ptr_user[-1];

  00036	8b 56 fc	 mov	 edx, DWORD PTR [esi-4]
  00039	83 c1 23	 add	 ecx, 35			; 00000023H

; 151  : 
; 152  :     // If the following asserts, it likely means that we are performing
; 153  :     // an aligned delete on memory coming from an unaligned allocation.
; 154  :     _STL_ASSERT(_Ptr_user[-2] == _Big_allocation_sentinel, "invalid argument");
; 155  : 
; 156  :     // Extra paranoia on aligned allocation/deallocation; ensure _Ptr_container is
; 157  :     // in range [_Min_back_shift, _Non_user_size]
; 158  : #ifdef _DEBUG
; 159  :     constexpr uintptr_t _Min_back_shift = 2 * sizeof(void*);
; 160  : #else // ^^^ _DEBUG ^^^ // vvv !_DEBUG vvv
; 161  :     constexpr uintptr_t _Min_back_shift = sizeof(void*);
; 162  : #endif // _DEBUG
; 163  :     const uintptr_t _Back_shift = reinterpret_cast<uintptr_t>(_Ptr) - _Ptr_container;

  0003c	2b f2		 sub	 esi, edx

; 164  :     _STL_VERIFY(_Back_shift >= _Min_back_shift && _Back_shift <= _Non_user_size, "invalid argument");

  0003e	8d 46 fc	 lea	 eax, DWORD PTR [esi-4]
  00041	83 f8 1f	 cmp	 eax, 31			; 0000001fH
  00044	77 23		 ja	 SHORT $LN15@Tidy

; 165  :     _Ptr = reinterpret_cast<void*>(_Ptr_container);

  00046	8b f2		 mov	 esi, edx
$LN18@Tidy:

; 255  :         ::operator delete(_Ptr, _Bytes);

  00048	51		 push	 ecx
  00049	56		 push	 esi
  0004a	e8 00 00 00 00	 call	 ??3@YAXPAXI@Z		; operator delete
; File C:\Program Files\Microsoft Visual Studio\2022\Community\VC\Tools\MSVC\14.34.31933\include\vector

; 2112 :             _Myfirst = nullptr;

  0004f	c7 07 00 00 00
	00		 mov	 DWORD PTR [edi], 0
; File C:\Program Files\Microsoft Visual Studio\2022\Community\VC\Tools\MSVC\14.34.31933\include\xmemory

; 255  :         ::operator delete(_Ptr, _Bytes);

  00055	83 c4 08	 add	 esp, 8
; File C:\Program Files\Microsoft Visual Studio\2022\Community\VC\Tools\MSVC\14.34.31933\include\vector

; 2113 :             _Mylast  = nullptr;

  00058	c7 47 04 00 00
	00 00		 mov	 DWORD PTR [edi+4], 0

; 2114 :             _Myend   = nullptr;

  0005f	c7 47 08 00 00
	00 00		 mov	 DWORD PTR [edi+8], 0
$LN2@Tidy:

; 2116 :     }

  00066	5f		 pop	 edi
  00067	5e		 pop	 esi
  00068	c3		 ret	 0
$LN15@Tidy:
; File C:\Program Files\Microsoft Visual Studio\2022\Community\VC\Tools\MSVC\14.34.31933\include\xmemory

; 164  :     _STL_VERIFY(_Back_shift >= _Min_back_shift && _Back_shift <= _Non_user_size, "invalid argument");

  00069	e8 00 00 00 00	 call	 __invalid_parameter_noinfo_noreturn
$LN22@Tidy:
  0006e	cc		 int	 3
?_Tidy@?$vector@UCDynamicSphereInstance@@V?$allocator@UCDynamicSphereInstance@@@std@@@std@@AAEXXZ ENDP ; std::vector<CDynamicSphereInstance,std::allocator<CDynamicSphereInstance> >::_Tidy
_TEXT	ENDS
; Function compile flags: /Ogtp
; File C:\Program Files\Microsoft Visual Studio\2022\Community\VC\Tools\MSVC\14.34.31933\include\xmemory
;	COMDAT ??$_Allocate_manually_vector_aligned@U_Default_allocate_traits@std@@@std@@YAPAXI@Z
_TEXT	SEGMENT
__Bytes$ = 8						; size = 4
??$_Allocate_manually_vector_aligned@U_Default_allocate_traits@std@@@std@@YAPAXI@Z PROC ; std::_Allocate_manually_vector_aligned<std::_Default_allocate_traits>, COMDAT

; 127  : __declspec(allocator) void* _Allocate_manually_vector_aligned(const size_t _Bytes) {

  00000	55		 push	 ebp
  00001	8b ec		 mov	 ebp, esp

; 128  :     // allocate _Bytes manually aligned to at least _Big_allocation_alignment
; 129  :     const size_t _Block_size = _Non_user_size + _Bytes;

  00003	8b 45 08	 mov	 eax, DWORD PTR __Bytes$[ebp]
  00006	8d 48 23	 lea	 ecx, DWORD PTR [eax+35]

; 130  :     if (_Block_size <= _Bytes) {

  00009	3b c8		 cmp	 ecx, eax
  0000b	0f 86 00 00 00
	00		 jbe	 ?_Throw_bad_array_new_length@std@@YAXXZ ; std::_Throw_bad_array_new_length

; 77   :         return ::operator new(_Bytes);

  00011	51		 push	 ecx
  00012	e8 00 00 00 00	 call	 ??2@YAPAXI@Z		; operator new

; 131  :         _Throw_bad_array_new_length(); // add overflow
; 132  :     }
; 133  : 
; 134  :     const uintptr_t _Ptr_container = reinterpret_cast<uintptr_t>(_Traits::_Allocate(_Block_size));

  00017	8b c8		 mov	 ecx, eax

; 77   :         return ::operator new(_Bytes);

  00019	83 c4 04	 add	 esp, 4

; 135  :     _STL_VERIFY(_Ptr_container != 0, "invalid argument"); // validate even in release since we're doing p[-1]

  0001c	85 c9		 test	 ecx, ecx
  0001e	74 0b		 je	 SHORT $LN7@Allocate_m

; 136  :     void* const _Ptr = reinterpret_cast<void*>((_Ptr_container + _Non_user_size) & ~(_Big_allocation_alignment - 1));

  00020	8d 41 23	 lea	 eax, DWORD PTR [ecx+35]
  00023	83 e0 e0	 and	 eax, -32		; ffffffe0H

; 137  :     static_cast<uintptr_t*>(_Ptr)[-1] = _Ptr_container;

  00026	89 48 fc	 mov	 DWORD PTR [eax-4], ecx

; 138  : 
; 139  : #ifdef _DEBUG
; 140  :     static_cast<uintptr_t*>(_Ptr)[-2] = _Big_allocation_sentinel;
; 141  : #endif // _DEBUG
; 142  :     return _Ptr;
; 143  : }

  00029	5d		 pop	 ebp
  0002a	c3		 ret	 0
$LN7@Allocate_m:

; 135  :     _STL_VERIFY(_Ptr_container != 0, "invalid argument"); // validate even in release since we're doing p[-1]

  0002b	e9 00 00 00 00	 jmp	 __invalid_parameter_noinfo_noreturn
??$_Allocate_manually_vector_aligned@U_Default_allocate_traits@std@@@std@@YAPAXI@Z ENDP ; std::_Allocate_manually_vector_aligned<std::_Default_allocate_traits>
_TEXT	ENDS
; Function compile flags: /Ogtp
; File C:\Users\flourine\Desktop\Xantios\client-src\extern\include\directX\d3dx9math.h
;	COMDAT ??0D3DXMATRIX@@QAE@XZ
_TEXT	SEGMENT
??0D3DXMATRIX@@QAE@XZ PROC				; D3DXMATRIX::D3DXMATRIX, COMDAT
; _this$ = ecx

; 315  :     D3DXMATRIX() {};

  00000	8b c1		 mov	 eax, ecx
  00002	c3		 ret	 0
??0D3DXMATRIX@@QAE@XZ ENDP				; D3DXMATRIX::D3DXMATRIX
_TEXT	ENDS
; Function compile flags: /Ogtp
; File C:\Program Files\Microsoft Visual Studio\2022\Community\VC\Tools\MSVC\14.34.31933\include\xstring
; File C:\Program Files\Microsoft Visual Studio\2022\Community\VC\Tools\MSVC\14.34.31933\include\xmemory
; File C:\Program Files\Microsoft Visual Studio\2022\Community\VC\Tools\MSVC\14.34.31933\include\xstring
; File C:\Program Files\Microsoft Visual Studio\2022\Community\VC\Tools\MSVC\14.34.31933\include\xmemory
; File C:\Program Files\Microsoft Visual Studio\2022\Community\VC\Tools\MSVC\14.34.31933\include\xstring
; File C:\Program Files\Microsoft Visual Studio\2022\Community\VC\Tools\MSVC\14.34.31933\include\xmemory
; File C:\Program Files\Microsoft Visual Studio\2022\Community\VC\Tools\MSVC\14.34.31933\include\xstring
;	COMDAT ??1?$basic_string@DU?$char_traits@D@std@@V?$allocator@D@2@@std@@QAE@XZ
_TEXT	SEGMENT
??1?$basic_string@DU?$char_traits@D@std@@V?$allocator@D@2@@std@@QAE@XZ PROC ; std::basic_string<char,std::char_traits<char>,std::allocator<char> >::~basic_string<char,std::char_traits<char>,std::allocator<char> >, COMDAT
; _this$ = ecx

; 3270 :     _CONSTEXPR20 ~basic_string() noexcept {

  00000	56		 push	 esi
  00001	8b f1		 mov	 esi, ecx

; 2301 :         return _BUF_SIZE <= _Myres;

  00003	8b 4e 14	 mov	 ecx, DWORD PTR [esi+20]
  00006	83 f9 10	 cmp	 ecx, 16			; 00000010H

; 5011 :         if (_My_data._Large_string_engaged()) {

  00009	72 27		 jb	 SHORT $LN12@basic_stri
; File C:\Program Files\Microsoft Visual Studio\2022\Community\VC\Tools\MSVC\14.34.31933\include\xmemory

; 830  :         _Deallocate<_New_alignof<_Ty>>(_Ptr, sizeof(_Ty) * _Count);

  0000b	8b 06		 mov	 eax, DWORD PTR [esi]
; File C:\Program Files\Microsoft Visual Studio\2022\Community\VC\Tools\MSVC\14.34.31933\include\xstring

; 5016 :             _Al.deallocate(_Ptr, _My_data._Myres + 1);

  0000d	41		 inc	 ecx
; File C:\Program Files\Microsoft Visual Studio\2022\Community\VC\Tools\MSVC\14.34.31933\include\xmemory

; 251  :         if (_Bytes >= _Big_allocation_threshold) { // boost the alignment of big allocations to help autovectorization

  0000e	81 f9 00 10 00
	00		 cmp	 ecx, 4096		; 00001000H
  00014	72 12		 jb	 SHORT $LN22@basic_stri

; 150  :     const uintptr_t _Ptr_container   = _Ptr_user[-1];

  00016	8b 50 fc	 mov	 edx, DWORD PTR [eax-4]
  00019	83 c1 23	 add	 ecx, 35			; 00000023H

; 151  : 
; 152  :     // If the following asserts, it likely means that we are performing
; 153  :     // an aligned delete on memory coming from an unaligned allocation.
; 154  :     _STL_ASSERT(_Ptr_user[-2] == _Big_allocation_sentinel, "invalid argument");
; 155  : 
; 156  :     // Extra paranoia on aligned allocation/deallocation; ensure _Ptr_container is
; 157  :     // in range [_Min_back_shift, _Non_user_size]
; 158  : #ifdef _DEBUG
; 159  :     constexpr uintptr_t _Min_back_shift = 2 * sizeof(void*);
; 160  : #else // ^^^ _DEBUG ^^^ // vvv !_DEBUG vvv
; 161  :     constexpr uintptr_t _Min_back_shift = sizeof(void*);
; 162  : #endif // _DEBUG
; 163  :     const uintptr_t _Back_shift = reinterpret_cast<uintptr_t>(_Ptr) - _Ptr_container;

  0001c	2b c2		 sub	 eax, edx

; 164  :     _STL_VERIFY(_Back_shift >= _Min_back_shift && _Back_shift <= _Non_user_size, "invalid argument");

  0001e	83 c0 fc	 add	 eax, -4			; fffffffcH
  00021	83 f8 1f	 cmp	 eax, 31			; 0000001fH
  00024	77 1f		 ja	 SHORT $LN19@basic_stri

; 165  :     _Ptr = reinterpret_cast<void*>(_Ptr_container);

  00026	8b c2		 mov	 eax, edx
$LN22@basic_stri:

; 255  :         ::operator delete(_Ptr, _Bytes);

  00028	51		 push	 ecx
  00029	50		 push	 eax
  0002a	e8 00 00 00 00	 call	 ??3@YAXPAXI@Z		; operator delete
  0002f	83 c4 08	 add	 esp, 8
$LN12@basic_stri:
; File C:\Program Files\Microsoft Visual Studio\2022\Community\VC\Tools\MSVC\14.34.31933\include\xstring

; 5019 :         _My_data._Mysize = 0;

  00032	c7 46 10 00 00
	00 00		 mov	 DWORD PTR [esi+16], 0

; 5020 :         _My_data._Myres  = _BUF_SIZE - 1;

  00039	c7 46 14 0f 00
	00 00		 mov	 DWORD PTR [esi+20], 15	; 0000000fH

; 5021 :         // the _Traits::assign is last so the codegen doesn't think the char write can alias this
; 5022 :         _Traits::assign(_My_data._Bx._Buf[0], _Elem());

  00040	c6 06 00	 mov	 BYTE PTR [esi], 0
  00043	5e		 pop	 esi

; 3278 :     }

  00044	c3		 ret	 0
$LN19@basic_stri:
; File C:\Program Files\Microsoft Visual Studio\2022\Community\VC\Tools\MSVC\14.34.31933\include\xmemory

; 164  :     _STL_VERIFY(_Back_shift >= _Min_back_shift && _Back_shift <= _Non_user_size, "invalid argument");

  00045	e8 00 00 00 00	 call	 __invalid_parameter_noinfo_noreturn
$LN27@basic_stri:
  0004a	cc		 int	 3
??1?$basic_string@DU?$char_traits@D@std@@V?$allocator@D@2@@std@@QAE@XZ ENDP ; std::basic_string<char,std::char_traits<char>,std::allocator<char> >::~basic_string<char,std::char_traits<char>,std::allocator<char> >
_TEXT	ENDS
; Function compile flags: /Ogtp
; File C:\Program Files\Microsoft Visual Studio\2022\Community\VC\Tools\MSVC\14.34.31933\include\exception
;	COMDAT ?_Throw_bad_array_new_length@std@@YAXXZ
_TEXT	SEGMENT
$T1 = -12						; size = 12
?_Throw_bad_array_new_length@std@@YAXXZ PROC		; std::_Throw_bad_array_new_length, COMDAT

; 323  : [[noreturn]] inline void _Throw_bad_array_new_length() {

  00000	55		 push	 ebp
  00001	8b ec		 mov	 ebp, esp
  00003	83 ec 0c	 sub	 esp, 12			; 0000000cH

; 324  :     _THROW(bad_array_new_length{});

  00006	8d 4d f4	 lea	 ecx, DWORD PTR $T1[ebp]
  00009	e8 00 00 00 00	 call	 ??0bad_array_new_length@std@@QAE@XZ ; std::bad_array_new_length::bad_array_new_length
  0000e	68 00 00 00 00	 push	 OFFSET __TI3?AVbad_array_new_length@std@@
  00013	8d 45 f4	 lea	 eax, DWORD PTR $T1[ebp]
  00016	50		 push	 eax
  00017	e8 00 00 00 00	 call	 __CxxThrowException@8
$LN3@Throw_bad_:
  0001c	cc		 int	 3
?_Throw_bad_array_new_length@std@@YAXXZ ENDP		; std::_Throw_bad_array_new_length
_TEXT	ENDS
; Function compile flags: /Ogtp
; File C:\Program Files\Microsoft Visual Studio\2022\Community\VC\Tools\MSVC\14.34.31933\include\vcruntime_exception.h
;	COMDAT ??_Gbad_array_new_length@std@@UAEPAXI@Z
_TEXT	SEGMENT
___flags$ = 8						; size = 4
??_Gbad_array_new_length@std@@UAEPAXI@Z PROC		; std::bad_array_new_length::`scalar deleting destructor', COMDAT
; _this$ = ecx
  00000	55		 push	 ebp
  00001	8b ec		 mov	 ebp, esp

; 89   :     {

  00003	56		 push	 esi
  00004	8b f1		 mov	 esi, ecx

; 90   :         __std_exception_destroy(&_Data);

  00006	8d 46 04	 lea	 eax, DWORD PTR [esi+4]
  00009	c7 06 00 00 00
	00		 mov	 DWORD PTR [esi], OFFSET ??_7exception@std@@6B@
  0000f	50		 push	 eax
  00010	e8 00 00 00 00	 call	 ___std_exception_destroy
  00015	83 c4 04	 add	 esp, 4
  00018	f6 45 08 01	 test	 BYTE PTR ___flags$[ebp], 1
  0001c	74 0b		 je	 SHORT $LN12@scalar
  0001e	6a 0c		 push	 12			; 0000000cH
  00020	56		 push	 esi
  00021	e8 00 00 00 00	 call	 ??3@YAXPAXI@Z		; operator delete
  00026	83 c4 08	 add	 esp, 8
$LN12@scalar:
  00029	8b c6		 mov	 eax, esi
  0002b	5e		 pop	 esi
  0002c	5d		 pop	 ebp
  0002d	c2 04 00	 ret	 4
??_Gbad_array_new_length@std@@UAEPAXI@Z ENDP		; std::bad_array_new_length::`scalar deleting destructor'
_TEXT	ENDS
; Function compile flags: /Ogtp
; File C:\Program Files\Microsoft Visual Studio\2022\Community\VC\Tools\MSVC\14.34.31933\include\vcruntime_exception.h
;	COMDAT ??0bad_array_new_length@std@@QAE@ABV01@@Z
_TEXT	SEGMENT
___that$ = 8						; size = 4
??0bad_array_new_length@std@@QAE@ABV01@@Z PROC		; std::bad_array_new_length::bad_array_new_length, COMDAT
; _this$ = ecx
  00000	55		 push	 ebp
  00001	8b ec		 mov	 ebp, esp

; 72   :     {

  00003	56		 push	 esi
  00004	8b f1		 mov	 esi, ecx
  00006	0f 57 c0	 xorps	 xmm0, xmm0

; 71   :         : _Data()

  00009	8d 46 04	 lea	 eax, DWORD PTR [esi+4]

; 73   :         __std_exception_copy(&_Other._Data, &_Data);

  0000c	50		 push	 eax
  0000d	c7 06 00 00 00
	00		 mov	 DWORD PTR [esi], OFFSET ??_7exception@std@@6B@
  00013	66 0f d6 00	 movq	 QWORD PTR [eax], xmm0
  00017	8b 45 08	 mov	 eax, DWORD PTR ___that$[ebp]
  0001a	83 c0 04	 add	 eax, 4
  0001d	50		 push	 eax
  0001e	e8 00 00 00 00	 call	 ___std_exception_copy
  00023	83 c4 08	 add	 esp, 8
  00026	c7 06 00 00 00
	00		 mov	 DWORD PTR [esi], OFFSET ??_7bad_array_new_length@std@@6B@
  0002c	8b c6		 mov	 eax, esi
  0002e	5e		 pop	 esi
  0002f	5d		 pop	 ebp
  00030	c2 04 00	 ret	 4
??0bad_array_new_length@std@@QAE@ABV01@@Z ENDP		; std::bad_array_new_length::bad_array_new_length
_TEXT	ENDS
; Function compile flags: /Ogtp
; File C:\Program Files\Microsoft Visual Studio\2022\Community\VC\Tools\MSVC\14.34.31933\include\vcruntime_exception.h
;	COMDAT ??1bad_array_new_length@std@@UAE@XZ
_TEXT	SEGMENT
??1bad_array_new_length@std@@UAE@XZ PROC		; std::bad_array_new_length::~bad_array_new_length, COMDAT
; _this$ = ecx

; 90   :         __std_exception_destroy(&_Data);

  00000	8d 41 04	 lea	 eax, DWORD PTR [ecx+4]
  00003	c7 01 00 00 00
	00		 mov	 DWORD PTR [ecx], OFFSET ??_7exception@std@@6B@
  00009	50		 push	 eax
  0000a	e8 00 00 00 00	 call	 ___std_exception_destroy
  0000f	59		 pop	 ecx
  00010	c3		 ret	 0
??1bad_array_new_length@std@@UAE@XZ ENDP		; std::bad_array_new_length::~bad_array_new_length
_TEXT	ENDS
; Function compile flags: /Ogtp
; File C:\Program Files\Microsoft Visual Studio\2022\Community\VC\Tools\MSVC\14.34.31933\include\vcruntime_exception.h
;	COMDAT ??0bad_array_new_length@std@@QAE@XZ
_TEXT	SEGMENT
??0bad_array_new_length@std@@QAE@XZ PROC		; std::bad_array_new_length::bad_array_new_length, COMDAT
; _this$ = ecx

; 141  :     {

  00000	0f 57 c0	 xorps	 xmm0, xmm0

; 142  :     }

  00003	8b c1		 mov	 eax, ecx

; 65   :         : _Data()

  00005	66 0f d6 41 04	 movq	 QWORD PTR [ecx+4], xmm0

; 66   :     {
; 67   :         _Data._What = _Message;

  0000a	c7 41 04 00 00
	00 00		 mov	 DWORD PTR [ecx+4], OFFSET ??_C@_0BF@KINCDENJ@bad?5array?5new?5length@

; 141  :     {

  00011	c7 01 00 00 00
	00		 mov	 DWORD PTR [ecx], OFFSET ??_7bad_array_new_length@std@@6B@

; 142  :     }

  00017	c3		 ret	 0
??0bad_array_new_length@std@@QAE@XZ ENDP		; std::bad_array_new_length::bad_array_new_length
_TEXT	ENDS
; Function compile flags: /Ogtp
; File C:\Program Files\Microsoft Visual Studio\2022\Community\VC\Tools\MSVC\14.34.31933\include\vcruntime_exception.h
;	COMDAT ??_Gbad_alloc@std@@UAEPAXI@Z
_TEXT	SEGMENT
___flags$ = 8						; size = 4
??_Gbad_alloc@std@@UAEPAXI@Z PROC			; std::bad_alloc::`scalar deleting destructor', COMDAT
; _this$ = ecx
  00000	55		 push	 ebp
  00001	8b ec		 mov	 ebp, esp

; 89   :     {

  00003	56		 push	 esi
  00004	8b f1		 mov	 esi, ecx

; 90   :         __std_exception_destroy(&_Data);

  00006	8d 46 04	 lea	 eax, DWORD PTR [esi+4]
  00009	c7 06 00 00 00
	00		 mov	 DWORD PTR [esi], OFFSET ??_7exception@std@@6B@
  0000f	50		 push	 eax
  00010	e8 00 00 00 00	 call	 ___std_exception_destroy
  00015	83 c4 04	 add	 esp, 4
  00018	f6 45 08 01	 test	 BYTE PTR ___flags$[ebp], 1
  0001c	74 0b		 je	 SHORT $LN9@scalar
  0001e	6a 0c		 push	 12			; 0000000cH
  00020	56		 push	 esi
  00021	e8 00 00 00 00	 call	 ??3@YAXPAXI@Z		; operator delete
  00026	83 c4 08	 add	 esp, 8
$LN9@scalar:
  00029	8b c6		 mov	 eax, esi
  0002b	5e		 pop	 esi
  0002c	5d		 pop	 ebp
  0002d	c2 04 00	 ret	 4
??_Gbad_alloc@std@@UAEPAXI@Z ENDP			; std::bad_alloc::`scalar deleting destructor'
_TEXT	ENDS
; Function compile flags: /Ogtp
; File C:\Program Files\Microsoft Visual Studio\2022\Community\VC\Tools\MSVC\14.34.31933\include\vcruntime_exception.h
;	COMDAT ??0bad_alloc@std@@QAE@ABV01@@Z
_TEXT	SEGMENT
___that$ = 8						; size = 4
??0bad_alloc@std@@QAE@ABV01@@Z PROC			; std::bad_alloc::bad_alloc, COMDAT
; _this$ = ecx
  00000	55		 push	 ebp
  00001	8b ec		 mov	 ebp, esp

; 72   :     {

  00003	56		 push	 esi
  00004	8b f1		 mov	 esi, ecx
  00006	0f 57 c0	 xorps	 xmm0, xmm0

; 71   :         : _Data()

  00009	8d 46 04	 lea	 eax, DWORD PTR [esi+4]

; 73   :         __std_exception_copy(&_Other._Data, &_Data);

  0000c	50		 push	 eax
  0000d	c7 06 00 00 00
	00		 mov	 DWORD PTR [esi], OFFSET ??_7exception@std@@6B@
  00013	66 0f d6 00	 movq	 QWORD PTR [eax], xmm0
  00017	8b 45 08	 mov	 eax, DWORD PTR ___that$[ebp]
  0001a	83 c0 04	 add	 eax, 4
  0001d	50		 push	 eax
  0001e	e8 00 00 00 00	 call	 ___std_exception_copy
  00023	83 c4 08	 add	 esp, 8
  00026	c7 06 00 00 00
	00		 mov	 DWORD PTR [esi], OFFSET ??_7bad_alloc@std@@6B@
  0002c	8b c6		 mov	 eax, esi
  0002e	5e		 pop	 esi
  0002f	5d		 pop	 ebp
  00030	c2 04 00	 ret	 4
??0bad_alloc@std@@QAE@ABV01@@Z ENDP			; std::bad_alloc::bad_alloc
_TEXT	ENDS
; Function compile flags: /Ogtp
; File C:\Program Files\Microsoft Visual Studio\2022\Community\VC\Tools\MSVC\14.34.31933\include\vcruntime_exception.h
;	COMDAT ??_Gexception@std@@UAEPAXI@Z
_TEXT	SEGMENT
___flags$ = 8						; size = 4
??_Gexception@std@@UAEPAXI@Z PROC			; std::exception::`scalar deleting destructor', COMDAT
; _this$ = ecx
  00000	55		 push	 ebp
  00001	8b ec		 mov	 ebp, esp

; 89   :     {

  00003	56		 push	 esi
  00004	8b f1		 mov	 esi, ecx

; 90   :         __std_exception_destroy(&_Data);

  00006	8d 46 04	 lea	 eax, DWORD PTR [esi+4]
  00009	c7 06 00 00 00
	00		 mov	 DWORD PTR [esi], OFFSET ??_7exception@std@@6B@
  0000f	50		 push	 eax
  00010	e8 00 00 00 00	 call	 ___std_exception_destroy
  00015	83 c4 04	 add	 esp, 4
  00018	f6 45 08 01	 test	 BYTE PTR ___flags$[ebp], 1
  0001c	74 0b		 je	 SHORT $LN6@scalar
  0001e	6a 0c		 push	 12			; 0000000cH
  00020	56		 push	 esi
  00021	e8 00 00 00 00	 call	 ??3@YAXPAXI@Z		; operator delete
  00026	83 c4 08	 add	 esp, 8
$LN6@scalar:
  00029	8b c6		 mov	 eax, esi
  0002b	5e		 pop	 esi
  0002c	5d		 pop	 ebp
  0002d	c2 04 00	 ret	 4
??_Gexception@std@@UAEPAXI@Z ENDP			; std::exception::`scalar deleting destructor'
_TEXT	ENDS
; Function compile flags: /Ogtp
; File C:\Program Files\Microsoft Visual Studio\2022\Community\VC\Tools\MSVC\14.34.31933\include\vcruntime_exception.h
;	COMDAT ?what@exception@std@@UBEPBDXZ
_TEXT	SEGMENT
?what@exception@std@@UBEPBDXZ PROC			; std::exception::what, COMDAT
; _this$ = ecx

; 95   :         return _Data._What ? _Data._What : "Unknown exception";

  00000	8b 49 04	 mov	 ecx, DWORD PTR [ecx+4]
  00003	b8 00 00 00 00	 mov	 eax, OFFSET ??_C@_0BC@EOODALEL@Unknown?5exception@
  00008	85 c9		 test	 ecx, ecx
  0000a	0f 45 c1	 cmovne	 eax, ecx

; 96   :     }

  0000d	c3		 ret	 0
?what@exception@std@@UBEPBDXZ ENDP			; std::exception::what
_TEXT	ENDS
; Function compile flags: /Ogtp
; File C:\Program Files\Microsoft Visual Studio\2022\Community\VC\Tools\MSVC\14.34.31933\include\vcruntime_exception.h
;	COMDAT ??1exception@std@@UAE@XZ
_TEXT	SEGMENT
??1exception@std@@UAE@XZ PROC				; std::exception::~exception, COMDAT
; _this$ = ecx

; 90   :         __std_exception_destroy(&_Data);

  00000	8d 41 04	 lea	 eax, DWORD PTR [ecx+4]
  00003	c7 01 00 00 00
	00		 mov	 DWORD PTR [ecx], OFFSET ??_7exception@std@@6B@
  00009	50		 push	 eax
  0000a	e8 00 00 00 00	 call	 ___std_exception_destroy
  0000f	59		 pop	 ecx

; 91   :     }

  00010	c3		 ret	 0
??1exception@std@@UAE@XZ ENDP				; std::exception::~exception
_TEXT	ENDS
; Function compile flags: /Ogtp
; File C:\Program Files\Microsoft Visual Studio\2022\Community\VC\Tools\MSVC\14.34.31933\include\vcruntime_exception.h
;	COMDAT ??0exception@std@@QAE@ABV01@@Z
_TEXT	SEGMENT
__Other$ = 8						; size = 4
??0exception@std@@QAE@ABV01@@Z PROC			; std::exception::exception, COMDAT
; _this$ = ecx

; 72   :     {

  00000	55		 push	 ebp
  00001	8b ec		 mov	 ebp, esp
  00003	56		 push	 esi
  00004	8b f1		 mov	 esi, ecx
  00006	0f 57 c0	 xorps	 xmm0, xmm0
  00009	8d 46 04	 lea	 eax, DWORD PTR [esi+4]

; 73   :         __std_exception_copy(&_Other._Data, &_Data);

  0000c	50		 push	 eax
  0000d	c7 06 00 00 00
	00		 mov	 DWORD PTR [esi], OFFSET ??_7exception@std@@6B@
  00013	66 0f d6 00	 movq	 QWORD PTR [eax], xmm0
  00017	8b 45 08	 mov	 eax, DWORD PTR __Other$[ebp]
  0001a	83 c0 04	 add	 eax, 4
  0001d	50		 push	 eax
  0001e	e8 00 00 00 00	 call	 ___std_exception_copy
  00023	83 c4 08	 add	 esp, 8

; 74   :     }

  00026	8b c6		 mov	 eax, esi
  00028	5e		 pop	 esi
  00029	5d		 pop	 ebp
  0002a	c2 04 00	 ret	 4
??0exception@std@@QAE@ABV01@@Z ENDP			; std::exception::exception
_TEXT	ENDS
; Function compile flags: /Ogtp
; File C:\Users\flourine\Desktop\Xantios\client-src\Code\GameLib\ActorInstanceAttach.cpp
;	COMDAT ?__empty_global_delete@@YAXPAXIW4align_val_t@std@@@Z
_TEXT	SEGMENT
___formal$ = 8						; size = 4
___formal$ = 12						; size = 4
___formal$ = 16						; size = 4
?__empty_global_delete@@YAXPAXIW4align_val_t@std@@@Z PROC ; __empty_global_delete, COMDAT

  00000	c2 00 00	 ret	 0
?__empty_global_delete@@YAXPAXIW4align_val_t@std@@@Z ENDP ; __empty_global_delete
_TEXT	ENDS
; Function compile flags: /Ogtp
; File C:\Users\flourine\Desktop\Xantios\client-src\Code\GameLib\ActorInstanceAttach.cpp
;	COMDAT ?__empty_global_delete@@YAXPAXW4align_val_t@std@@@Z
_TEXT	SEGMENT
___formal$ = 8						; size = 4
___formal$ = 12						; size = 4
?__empty_global_delete@@YAXPAXW4align_val_t@std@@@Z PROC ; __empty_global_delete, COMDAT

  00000	c2 00 00	 ret	 0
?__empty_global_delete@@YAXPAXW4align_val_t@std@@@Z ENDP ; __empty_global_delete
_TEXT	ENDS
; Function compile flags: /Ogtp
; File C:\Users\flourine\Desktop\Xantios\client-src\Code\GameLib\ActorInstanceAttach.cpp
;	COMDAT ?__empty_global_delete@@YAXPAXI@Z
_TEXT	SEGMENT
___formal$ = 8						; size = 4
___formal$ = 12						; size = 4
?__empty_global_delete@@YAXPAXI@Z PROC			; __empty_global_delete, COMDAT

  00000	c2 00 00	 ret	 0
?__empty_global_delete@@YAXPAXI@Z ENDP			; __empty_global_delete
_TEXT	ENDS
; Function compile flags: /Ogtp
; File C:\Users\flourine\Desktop\Xantios\client-src\Code\GameLib\ActorInstanceAttach.cpp
;	COMDAT ?__empty_global_delete@@YAXPAX@Z
_TEXT	SEGMENT
___formal$ = 8						; size = 4
?__empty_global_delete@@YAXPAX@Z PROC			; __empty_global_delete, COMDAT

  00000	c2 00 00	 ret	 0
?__empty_global_delete@@YAXPAX@Z ENDP			; __empty_global_delete
_TEXT	ENDS
; Function compile flags: /Ogtp
;	COMDAT ??_H@YGXPAXIIP6EPAX0@Z@Z
_TEXT	SEGMENT
___t$ = 8						; size = 4
___s$ = 12						; size = 4
___n$ = 16						; size = 4
___f$ = 20						; size = 4
??_H@YGXPAXIIP6EPAX0@Z@Z PROC				; `vector constructor iterator', COMDAT
  00000	55		 push	 ebp
  00001	8b ec		 mov	 ebp, esp
  00003	56		 push	 esi
  00004	8b 75 10	 mov	 esi, DWORD PTR ___n$[ebp]
  00007	85 f6		 test	 esi, esi
  00009	74 16		 je	 SHORT $LN6@vector
  0000b	53		 push	 ebx
  0000c	8b 5d 14	 mov	 ebx, DWORD PTR ___f$[ebp]
  0000f	57		 push	 edi
  00010	8b 7d 08	 mov	 edi, DWORD PTR ___t$[ebp]
$LL2@vector:
  00013	8b cf		 mov	 ecx, edi
  00015	ff d3		 call	 ebx
  00017	03 7d 0c	 add	 edi, DWORD PTR ___s$[ebp]
  0001a	83 ee 01	 sub	 esi, 1
  0001d	75 f4		 jne	 SHORT $LL2@vector
  0001f	5f		 pop	 edi
  00020	5b		 pop	 ebx
$LN6@vector:
  00021	5e		 pop	 esi
  00022	5d		 pop	 ebp
  00023	c2 10 00	 ret	 16			; 00000010H
??_H@YGXPAXIIP6EPAX0@Z@Z ENDP				; `vector constructor iterator'
_TEXT	ENDS
END
