; Listing generated by Microsoft (R) Optimizing Compiler Version 19.34.31942.0 

	TITLE	C:\Users\flourine\Desktop\Xantios\client-src\Code\GameLib\Distribute\ActorInstanceMotion.obj
	.686P
	.XMM
	include listing.inc
	.model	flat

INCLUDELIB LIBCMT
INCLUDELIB OLDNAMES

PUBLIC	??_7?$CDynamicPoolEx@VCTextureAnimationRandomDecorator@NEffectUpdateDecorator@@@@6B@ ; CDynamicPoolEx<NEffectUpdateDecorator::CTextureAnimationRandomDecorator>::`vftable'
PUBLIC	??_G?$CDynamicPoolEx@VCTextureAnimationRandomDecorator@NEffectUpdateDecorator@@@@UAEPAXI@Z ; CDynamicPoolEx<NEffectUpdateDecorator::CTextureAnimationRandomDecorator>::`scalar deleting destructor'
PUBLIC	??_7?$CDynamicPoolEx@VCTextureAnimationCCWDecorator@NEffectUpdateDecorator@@@@6B@ ; CDynamicPoolEx<NEffectUpdateDecorator::CTextureAnimationCCWDecorator>::`vftable'
PUBLIC	??_G?$CDynamicPoolEx@VCTextureAnimationCCWDecorator@NEffectUpdateDecorator@@@@UAEPAXI@Z ; CDynamicPoolEx<NEffectUpdateDecorator::CTextureAnimationCCWDecorator>::`scalar deleting destructor'
PUBLIC	??_7?$CDynamicPoolEx@VCTextureAnimationCWDecorator@NEffectUpdateDecorator@@@@6B@ ; CDynamicPoolEx<NEffectUpdateDecorator::CTextureAnimationCWDecorator>::`vftable'
PUBLIC	??_G?$CDynamicPoolEx@VCTextureAnimationCWDecorator@NEffectUpdateDecorator@@@@UAEPAXI@Z ; CDynamicPoolEx<NEffectUpdateDecorator::CTextureAnimationCWDecorator>::`scalar deleting destructor'
PUBLIC	??_7?$CDynamicPoolEx@VCNullDecorator@NEffectUpdateDecorator@@@@6B@ ; CDynamicPoolEx<NEffectUpdateDecorator::CNullDecorator>::`vftable'
PUBLIC	??_G?$CDynamicPoolEx@VCNullDecorator@NEffectUpdateDecorator@@@@UAEPAXI@Z ; CDynamicPoolEx<NEffectUpdateDecorator::CNullDecorator>::`scalar deleting destructor'
PUBLIC	??_7?$CDynamicPoolEx@VCHeaderDecorator@NEffectUpdateDecorator@@@@6B@ ; CDynamicPoolEx<NEffectUpdateDecorator::CHeaderDecorator>::`vftable'
PUBLIC	??_G?$CDynamicPoolEx@VCHeaderDecorator@NEffectUpdateDecorator@@@@UAEPAXI@Z ; CDynamicPoolEx<NEffectUpdateDecorator::CHeaderDecorator>::`scalar deleting destructor'
PUBLIC	?_Fake_alloc@std@@3U_Fake_allocator@1@B		; std::_Fake_alloc
PUBLIC	??_R4?$CDynamicPoolEx@VCHeaderDecorator@NEffectUpdateDecorator@@@@6B@ ; CDynamicPoolEx<NEffectUpdateDecorator::CHeaderDecorator>::`RTTI Complete Object Locator'
PUBLIC	??_R0?AV?$CDynamicPoolEx@VCHeaderDecorator@NEffectUpdateDecorator@@@@@8 ; CDynamicPoolEx<NEffectUpdateDecorator::CHeaderDecorator> `RTTI Type Descriptor'
PUBLIC	??_R3?$CDynamicPoolEx@VCHeaderDecorator@NEffectUpdateDecorator@@@@8 ; CDynamicPoolEx<NEffectUpdateDecorator::CHeaderDecorator>::`RTTI Class Hierarchy Descriptor'
PUBLIC	??_R2?$CDynamicPoolEx@VCHeaderDecorator@NEffectUpdateDecorator@@@@8 ; CDynamicPoolEx<NEffectUpdateDecorator::CHeaderDecorator>::`RTTI Base Class Array'
PUBLIC	??_R1A@?0A@EA@?$CDynamicPoolEx@VCHeaderDecorator@NEffectUpdateDecorator@@@@8 ; CDynamicPoolEx<NEffectUpdateDecorator::CHeaderDecorator>::`RTTI Base Class Descriptor at (0,-1,0,64)'
PUBLIC	??_R4?$CDynamicPoolEx@VCNullDecorator@NEffectUpdateDecorator@@@@6B@ ; CDynamicPoolEx<NEffectUpdateDecorator::CNullDecorator>::`RTTI Complete Object Locator'
PUBLIC	??_R0?AV?$CDynamicPoolEx@VCNullDecorator@NEffectUpdateDecorator@@@@@8 ; CDynamicPoolEx<NEffectUpdateDecorator::CNullDecorator> `RTTI Type Descriptor'
PUBLIC	??_R3?$CDynamicPoolEx@VCNullDecorator@NEffectUpdateDecorator@@@@8 ; CDynamicPoolEx<NEffectUpdateDecorator::CNullDecorator>::`RTTI Class Hierarchy Descriptor'
PUBLIC	??_R2?$CDynamicPoolEx@VCNullDecorator@NEffectUpdateDecorator@@@@8 ; CDynamicPoolEx<NEffectUpdateDecorator::CNullDecorator>::`RTTI Base Class Array'
PUBLIC	??_R1A@?0A@EA@?$CDynamicPoolEx@VCNullDecorator@NEffectUpdateDecorator@@@@8 ; CDynamicPoolEx<NEffectUpdateDecorator::CNullDecorator>::`RTTI Base Class Descriptor at (0,-1,0,64)'
PUBLIC	??_R4?$CDynamicPoolEx@VCTextureAnimationCWDecorator@NEffectUpdateDecorator@@@@6B@ ; CDynamicPoolEx<NEffectUpdateDecorator::CTextureAnimationCWDecorator>::`RTTI Complete Object Locator'
PUBLIC	??_R0?AV?$CDynamicPoolEx@VCTextureAnimationCWDecorator@NEffectUpdateDecorator@@@@@8 ; CDynamicPoolEx<NEffectUpdateDecorator::CTextureAnimationCWDecorator> `RTTI Type Descriptor'
PUBLIC	??_R3?$CDynamicPoolEx@VCTextureAnimationCWDecorator@NEffectUpdateDecorator@@@@8 ; CDynamicPoolEx<NEffectUpdateDecorator::CTextureAnimationCWDecorator>::`RTTI Class Hierarchy Descriptor'
PUBLIC	??_R2?$CDynamicPoolEx@VCTextureAnimationCWDecorator@NEffectUpdateDecorator@@@@8 ; CDynamicPoolEx<NEffectUpdateDecorator::CTextureAnimationCWDecorator>::`RTTI Base Class Array'
PUBLIC	??_R1A@?0A@EA@?$CDynamicPoolEx@VCTextureAnimationCWDecorator@NEffectUpdateDecorator@@@@8 ; CDynamicPoolEx<NEffectUpdateDecorator::CTextureAnimationCWDecorator>::`RTTI Base Class Descriptor at (0,-1,0,64)'
PUBLIC	??_R4?$CDynamicPoolEx@VCTextureAnimationCCWDecorator@NEffectUpdateDecorator@@@@6B@ ; CDynamicPoolEx<NEffectUpdateDecorator::CTextureAnimationCCWDecorator>::`RTTI Complete Object Locator'
PUBLIC	??_R0?AV?$CDynamicPoolEx@VCTextureAnimationCCWDecorator@NEffectUpdateDecorator@@@@@8 ; CDynamicPoolEx<NEffectUpdateDecorator::CTextureAnimationCCWDecorator> `RTTI Type Descriptor'
PUBLIC	??_R3?$CDynamicPoolEx@VCTextureAnimationCCWDecorator@NEffectUpdateDecorator@@@@8 ; CDynamicPoolEx<NEffectUpdateDecorator::CTextureAnimationCCWDecorator>::`RTTI Class Hierarchy Descriptor'
PUBLIC	??_R2?$CDynamicPoolEx@VCTextureAnimationCCWDecorator@NEffectUpdateDecorator@@@@8 ; CDynamicPoolEx<NEffectUpdateDecorator::CTextureAnimationCCWDecorator>::`RTTI Base Class Array'
PUBLIC	??_R1A@?0A@EA@?$CDynamicPoolEx@VCTextureAnimationCCWDecorator@NEffectUpdateDecorator@@@@8 ; CDynamicPoolEx<NEffectUpdateDecorator::CTextureAnimationCCWDecorator>::`RTTI Base Class Descriptor at (0,-1,0,64)'
PUBLIC	??_R4?$CDynamicPoolEx@VCTextureAnimationRandomDecorator@NEffectUpdateDecorator@@@@6B@ ; CDynamicPoolEx<NEffectUpdateDecorator::CTextureAnimationRandomDecorator>::`RTTI Complete Object Locator'
PUBLIC	??_R0?AV?$CDynamicPoolEx@VCTextureAnimationRandomDecorator@NEffectUpdateDecorator@@@@@8 ; CDynamicPoolEx<NEffectUpdateDecorator::CTextureAnimationRandomDecorator> `RTTI Type Descriptor'
PUBLIC	??_R3?$CDynamicPoolEx@VCTextureAnimationRandomDecorator@NEffectUpdateDecorator@@@@8 ; CDynamicPoolEx<NEffectUpdateDecorator::CTextureAnimationRandomDecorator>::`RTTI Class Hierarchy Descriptor'
PUBLIC	??_R2?$CDynamicPoolEx@VCTextureAnimationRandomDecorator@NEffectUpdateDecorator@@@@8 ; CDynamicPoolEx<NEffectUpdateDecorator::CTextureAnimationRandomDecorator>::`RTTI Base Class Array'
PUBLIC	??_R1A@?0A@EA@?$CDynamicPoolEx@VCTextureAnimationRandomDecorator@NEffectUpdateDecorator@@@@8 ; CDynamicPoolEx<NEffectUpdateDecorator::CTextureAnimationRandomDecorator>::`RTTI Base Class Descriptor at (0,-1,0,64)'
PUBLIC	??_R4?$CDynamicPoolEx@VCAirResistanceDecorator@NEffectUpdateDecorator@@@@6B@ ; CDynamicPoolEx<NEffectUpdateDecorator::CAirResistanceDecorator>::`RTTI Complete Object Locator'
PUBLIC	??_R0?AV?$CDynamicPoolEx@VCAirResistanceDecorator@NEffectUpdateDecorator@@@@@8 ; CDynamicPoolEx<NEffectUpdateDecorator::CAirResistanceDecorator> `RTTI Type Descriptor'
PUBLIC	??_R3?$CDynamicPoolEx@VCAirResistanceDecorator@NEffectUpdateDecorator@@@@8 ; CDynamicPoolEx<NEffectUpdateDecorator::CAirResistanceDecorator>::`RTTI Class Hierarchy Descriptor'
PUBLIC	??_R2?$CDynamicPoolEx@VCAirResistanceDecorator@NEffectUpdateDecorator@@@@8 ; CDynamicPoolEx<NEffectUpdateDecorator::CAirResistanceDecorator>::`RTTI Base Class Array'
PUBLIC	??_R1A@?0A@EA@?$CDynamicPoolEx@VCAirResistanceDecorator@NEffectUpdateDecorator@@@@8 ; CDynamicPoolEx<NEffectUpdateDecorator::CAirResistanceDecorator>::`RTTI Base Class Descriptor at (0,-1,0,64)'
PUBLIC	??_R4?$CDynamicPoolEx@VCGravityDecorator@NEffectUpdateDecorator@@@@6B@ ; CDynamicPoolEx<NEffectUpdateDecorator::CGravityDecorator>::`RTTI Complete Object Locator'
PUBLIC	??_R0?AV?$CDynamicPoolEx@VCGravityDecorator@NEffectUpdateDecorator@@@@@8 ; CDynamicPoolEx<NEffectUpdateDecorator::CGravityDecorator> `RTTI Type Descriptor'
PUBLIC	??_R3?$CDynamicPoolEx@VCGravityDecorator@NEffectUpdateDecorator@@@@8 ; CDynamicPoolEx<NEffectUpdateDecorator::CGravityDecorator>::`RTTI Class Hierarchy Descriptor'
PUBLIC	??_R2?$CDynamicPoolEx@VCGravityDecorator@NEffectUpdateDecorator@@@@8 ; CDynamicPoolEx<NEffectUpdateDecorator::CGravityDecorator>::`RTTI Base Class Array'
PUBLIC	??_R1A@?0A@EA@?$CDynamicPoolEx@VCGravityDecorator@NEffectUpdateDecorator@@@@8 ; CDynamicPoolEx<NEffectUpdateDecorator::CGravityDecorator>::`RTTI Base Class Descriptor at (0,-1,0,64)'
PUBLIC	??_R4?$CDynamicPoolEx@VCRotationDecorator@NEffectUpdateDecorator@@@@6B@ ; CDynamicPoolEx<NEffectUpdateDecorator::CRotationDecorator>::`RTTI Complete Object Locator'
PUBLIC	??_R0?AV?$CDynamicPoolEx@VCRotationDecorator@NEffectUpdateDecorator@@@@@8 ; CDynamicPoolEx<NEffectUpdateDecorator::CRotationDecorator> `RTTI Type Descriptor'
PUBLIC	??_R3?$CDynamicPoolEx@VCRotationDecorator@NEffectUpdateDecorator@@@@8 ; CDynamicPoolEx<NEffectUpdateDecorator::CRotationDecorator>::`RTTI Class Hierarchy Descriptor'
PUBLIC	??_R2?$CDynamicPoolEx@VCRotationDecorator@NEffectUpdateDecorator@@@@8 ; CDynamicPoolEx<NEffectUpdateDecorator::CRotationDecorator>::`RTTI Base Class Array'
PUBLIC	??_R1A@?0A@EA@?$CDynamicPoolEx@VCRotationDecorator@NEffectUpdateDecorator@@@@8 ; CDynamicPoolEx<NEffectUpdateDecorator::CRotationDecorator>::`RTTI Base Class Descriptor at (0,-1,0,64)'
PUBLIC	??_7?$CDynamicPoolEx@VCRotationDecorator@NEffectUpdateDecorator@@@@6B@ ; CDynamicPoolEx<NEffectUpdateDecorator::CRotationDecorator>::`vftable'
PUBLIC	??_G?$CDynamicPoolEx@VCRotationDecorator@NEffectUpdateDecorator@@@@UAEPAXI@Z ; CDynamicPoolEx<NEffectUpdateDecorator::CRotationDecorator>::`scalar deleting destructor'
PUBLIC	??_7?$CDynamicPoolEx@VCGravityDecorator@NEffectUpdateDecorator@@@@6B@ ; CDynamicPoolEx<NEffectUpdateDecorator::CGravityDecorator>::`vftable'
PUBLIC	??_G?$CDynamicPoolEx@VCGravityDecorator@NEffectUpdateDecorator@@@@UAEPAXI@Z ; CDynamicPoolEx<NEffectUpdateDecorator::CGravityDecorator>::`scalar deleting destructor'
PUBLIC	??_7?$CDynamicPoolEx@VCAirResistanceDecorator@NEffectUpdateDecorator@@@@6B@ ; CDynamicPoolEx<NEffectUpdateDecorator::CAirResistanceDecorator>::`vftable'
PUBLIC	??_G?$CDynamicPoolEx@VCAirResistanceDecorator@NEffectUpdateDecorator@@@@UAEPAXI@Z ; CDynamicPoolEx<NEffectUpdateDecorator::CAirResistanceDecorator>::`scalar deleting destructor'
EXTRN	??_E?$CDynamicPoolEx@VCTextureAnimationRandomDecorator@NEffectUpdateDecorator@@@@UAEPAXI@Z:PROC ; CDynamicPoolEx<NEffectUpdateDecorator::CTextureAnimationRandomDecorator>::`vector deleting destructor'
EXTRN	??_E?$CDynamicPoolEx@VCTextureAnimationCCWDecorator@NEffectUpdateDecorator@@@@UAEPAXI@Z:PROC ; CDynamicPoolEx<NEffectUpdateDecorator::CTextureAnimationCCWDecorator>::`vector deleting destructor'
EXTRN	??_E?$CDynamicPoolEx@VCTextureAnimationCWDecorator@NEffectUpdateDecorator@@@@UAEPAXI@Z:PROC ; CDynamicPoolEx<NEffectUpdateDecorator::CTextureAnimationCWDecorator>::`vector deleting destructor'
EXTRN	??_E?$CDynamicPoolEx@VCNullDecorator@NEffectUpdateDecorator@@@@UAEPAXI@Z:PROC ; CDynamicPoolEx<NEffectUpdateDecorator::CNullDecorator>::`vector deleting destructor'
EXTRN	??_E?$CDynamicPoolEx@VCHeaderDecorator@NEffectUpdateDecorator@@@@UAEPAXI@Z:PROC ; CDynamicPoolEx<NEffectUpdateDecorator::CHeaderDecorator>::`vector deleting destructor'
EXTRN	??_E?$CDynamicPoolEx@VCRotationDecorator@NEffectUpdateDecorator@@@@UAEPAXI@Z:PROC ; CDynamicPoolEx<NEffectUpdateDecorator::CRotationDecorator>::`vector deleting destructor'
EXTRN	??_E?$CDynamicPoolEx@VCGravityDecorator@NEffectUpdateDecorator@@@@UAEPAXI@Z:PROC ; CDynamicPoolEx<NEffectUpdateDecorator::CGravityDecorator>::`vector deleting destructor'
EXTRN	??_7type_info@@6B@:QWORD			; type_info::`vftable'
EXTRN	??_E?$CDynamicPoolEx@VCAirResistanceDecorator@NEffectUpdateDecorator@@@@UAEPAXI@Z:PROC ; CDynamicPoolEx<NEffectUpdateDecorator::CAirResistanceDecorator>::`vector deleting destructor'
;	COMDAT ??_7?$CDynamicPoolEx@VCAirResistanceDecorator@NEffectUpdateDecorator@@@@6B@
CONST	SEGMENT
??_7?$CDynamicPoolEx@VCAirResistanceDecorator@NEffectUpdateDecorator@@@@6B@ DD FLAT:??_R4?$CDynamicPoolEx@VCAirResistanceDecorator@NEffectUpdateDecorator@@@@6B@ ; CDynamicPoolEx<NEffectUpdateDecorator::CAirResistanceDecorator>::`vftable'
	DD	FLAT:??_E?$CDynamicPoolEx@VCAirResistanceDecorator@NEffectUpdateDecorator@@@@UAEPAXI@Z
CONST	ENDS
;	COMDAT ??_7?$CDynamicPoolEx@VCGravityDecorator@NEffectUpdateDecorator@@@@6B@
CONST	SEGMENT
??_7?$CDynamicPoolEx@VCGravityDecorator@NEffectUpdateDecorator@@@@6B@ DD FLAT:??_R4?$CDynamicPoolEx@VCGravityDecorator@NEffectUpdateDecorator@@@@6B@ ; CDynamicPoolEx<NEffectUpdateDecorator::CGravityDecorator>::`vftable'
	DD	FLAT:??_E?$CDynamicPoolEx@VCGravityDecorator@NEffectUpdateDecorator@@@@UAEPAXI@Z
CONST	ENDS
;	COMDAT ??_7?$CDynamicPoolEx@VCRotationDecorator@NEffectUpdateDecorator@@@@6B@
CONST	SEGMENT
??_7?$CDynamicPoolEx@VCRotationDecorator@NEffectUpdateDecorator@@@@6B@ DD FLAT:??_R4?$CDynamicPoolEx@VCRotationDecorator@NEffectUpdateDecorator@@@@6B@ ; CDynamicPoolEx<NEffectUpdateDecorator::CRotationDecorator>::`vftable'
	DD	FLAT:??_E?$CDynamicPoolEx@VCRotationDecorator@NEffectUpdateDecorator@@@@UAEPAXI@Z
CONST	ENDS
;	COMDAT ??_R1A@?0A@EA@?$CDynamicPoolEx@VCRotationDecorator@NEffectUpdateDecorator@@@@8
rdata$r	SEGMENT
??_R1A@?0A@EA@?$CDynamicPoolEx@VCRotationDecorator@NEffectUpdateDecorator@@@@8 DD FLAT:??_R0?AV?$CDynamicPoolEx@VCRotationDecorator@NEffectUpdateDecorator@@@@@8 ; CDynamicPoolEx<NEffectUpdateDecorator::CRotationDecorator>::`RTTI Base Class Descriptor at (0,-1,0,64)'
	DD	00H
	DD	00H
	DD	0ffffffffH
	DD	00H
	DD	040H
	DD	FLAT:??_R3?$CDynamicPoolEx@VCRotationDecorator@NEffectUpdateDecorator@@@@8
rdata$r	ENDS
;	COMDAT ??_R2?$CDynamicPoolEx@VCRotationDecorator@NEffectUpdateDecorator@@@@8
rdata$r	SEGMENT
??_R2?$CDynamicPoolEx@VCRotationDecorator@NEffectUpdateDecorator@@@@8 DD FLAT:??_R1A@?0A@EA@?$CDynamicPoolEx@VCRotationDecorator@NEffectUpdateDecorator@@@@8 ; CDynamicPoolEx<NEffectUpdateDecorator::CRotationDecorator>::`RTTI Base Class Array'
rdata$r	ENDS
;	COMDAT ??_R3?$CDynamicPoolEx@VCRotationDecorator@NEffectUpdateDecorator@@@@8
rdata$r	SEGMENT
??_R3?$CDynamicPoolEx@VCRotationDecorator@NEffectUpdateDecorator@@@@8 DD 00H ; CDynamicPoolEx<NEffectUpdateDecorator::CRotationDecorator>::`RTTI Class Hierarchy Descriptor'
	DD	00H
	DD	01H
	DD	FLAT:??_R2?$CDynamicPoolEx@VCRotationDecorator@NEffectUpdateDecorator@@@@8
rdata$r	ENDS
;	COMDAT ??_R0?AV?$CDynamicPoolEx@VCRotationDecorator@NEffectUpdateDecorator@@@@@8
data$rs	SEGMENT
??_R0?AV?$CDynamicPoolEx@VCRotationDecorator@NEffectUpdateDecorator@@@@@8 DD FLAT:??_7type_info@@6B@ ; CDynamicPoolEx<NEffectUpdateDecorator::CRotationDecorator> `RTTI Type Descriptor'
	DD	00H
	DB	'.?AV?$CDynamicPoolEx@VCRotationDecorator@NEffectUpdateDe'
	DB	'corator@@@@', 00H
data$rs	ENDS
;	COMDAT ??_R4?$CDynamicPoolEx@VCRotationDecorator@NEffectUpdateDecorator@@@@6B@
rdata$r	SEGMENT
??_R4?$CDynamicPoolEx@VCRotationDecorator@NEffectUpdateDecorator@@@@6B@ DD 00H ; CDynamicPoolEx<NEffectUpdateDecorator::CRotationDecorator>::`RTTI Complete Object Locator'
	DD	00H
	DD	00H
	DD	FLAT:??_R0?AV?$CDynamicPoolEx@VCRotationDecorator@NEffectUpdateDecorator@@@@@8
	DD	FLAT:??_R3?$CDynamicPoolEx@VCRotationDecorator@NEffectUpdateDecorator@@@@8
rdata$r	ENDS
;	COMDAT ??_R1A@?0A@EA@?$CDynamicPoolEx@VCGravityDecorator@NEffectUpdateDecorator@@@@8
rdata$r	SEGMENT
??_R1A@?0A@EA@?$CDynamicPoolEx@VCGravityDecorator@NEffectUpdateDecorator@@@@8 DD FLAT:??_R0?AV?$CDynamicPoolEx@VCGravityDecorator@NEffectUpdateDecorator@@@@@8 ; CDynamicPoolEx<NEffectUpdateDecorator::CGravityDecorator>::`RTTI Base Class Descriptor at (0,-1,0,64)'
	DD	00H
	DD	00H
	DD	0ffffffffH
	DD	00H
	DD	040H
	DD	FLAT:??_R3?$CDynamicPoolEx@VCGravityDecorator@NEffectUpdateDecorator@@@@8
rdata$r	ENDS
;	COMDAT ??_R2?$CDynamicPoolEx@VCGravityDecorator@NEffectUpdateDecorator@@@@8
rdata$r	SEGMENT
??_R2?$CDynamicPoolEx@VCGravityDecorator@NEffectUpdateDecorator@@@@8 DD FLAT:??_R1A@?0A@EA@?$CDynamicPoolEx@VCGravityDecorator@NEffectUpdateDecorator@@@@8 ; CDynamicPoolEx<NEffectUpdateDecorator::CGravityDecorator>::`RTTI Base Class Array'
rdata$r	ENDS
;	COMDAT ??_R3?$CDynamicPoolEx@VCGravityDecorator@NEffectUpdateDecorator@@@@8
rdata$r	SEGMENT
??_R3?$CDynamicPoolEx@VCGravityDecorator@NEffectUpdateDecorator@@@@8 DD 00H ; CDynamicPoolEx<NEffectUpdateDecorator::CGravityDecorator>::`RTTI Class Hierarchy Descriptor'
	DD	00H
	DD	01H
	DD	FLAT:??_R2?$CDynamicPoolEx@VCGravityDecorator@NEffectUpdateDecorator@@@@8
rdata$r	ENDS
;	COMDAT ??_R0?AV?$CDynamicPoolEx@VCGravityDecorator@NEffectUpdateDecorator@@@@@8
data$rs	SEGMENT
??_R0?AV?$CDynamicPoolEx@VCGravityDecorator@NEffectUpdateDecorator@@@@@8 DD FLAT:??_7type_info@@6B@ ; CDynamicPoolEx<NEffectUpdateDecorator::CGravityDecorator> `RTTI Type Descriptor'
	DD	00H
	DB	'.?AV?$CDynamicPoolEx@VCGravityDecorator@NEffectUpdateDec'
	DB	'orator@@@@', 00H
data$rs	ENDS
;	COMDAT ??_R4?$CDynamicPoolEx@VCGravityDecorator@NEffectUpdateDecorator@@@@6B@
rdata$r	SEGMENT
??_R4?$CDynamicPoolEx@VCGravityDecorator@NEffectUpdateDecorator@@@@6B@ DD 00H ; CDynamicPoolEx<NEffectUpdateDecorator::CGravityDecorator>::`RTTI Complete Object Locator'
	DD	00H
	DD	00H
	DD	FLAT:??_R0?AV?$CDynamicPoolEx@VCGravityDecorator@NEffectUpdateDecorator@@@@@8
	DD	FLAT:??_R3?$CDynamicPoolEx@VCGravityDecorator@NEffectUpdateDecorator@@@@8
rdata$r	ENDS
;	COMDAT ??_R1A@?0A@EA@?$CDynamicPoolEx@VCAirResistanceDecorator@NEffectUpdateDecorator@@@@8
rdata$r	SEGMENT
??_R1A@?0A@EA@?$CDynamicPoolEx@VCAirResistanceDecorator@NEffectUpdateDecorator@@@@8 DD FLAT:??_R0?AV?$CDynamicPoolEx@VCAirResistanceDecorator@NEffectUpdateDecorator@@@@@8 ; CDynamicPoolEx<NEffectUpdateDecorator::CAirResistanceDecorator>::`RTTI Base Class Descriptor at (0,-1,0,64)'
	DD	00H
	DD	00H
	DD	0ffffffffH
	DD	00H
	DD	040H
	DD	FLAT:??_R3?$CDynamicPoolEx@VCAirResistanceDecorator@NEffectUpdateDecorator@@@@8
rdata$r	ENDS
;	COMDAT ??_R2?$CDynamicPoolEx@VCAirResistanceDecorator@NEffectUpdateDecorator@@@@8
rdata$r	SEGMENT
??_R2?$CDynamicPoolEx@VCAirResistanceDecorator@NEffectUpdateDecorator@@@@8 DD FLAT:??_R1A@?0A@EA@?$CDynamicPoolEx@VCAirResistanceDecorator@NEffectUpdateDecorator@@@@8 ; CDynamicPoolEx<NEffectUpdateDecorator::CAirResistanceDecorator>::`RTTI Base Class Array'
rdata$r	ENDS
;	COMDAT ??_R3?$CDynamicPoolEx@VCAirResistanceDecorator@NEffectUpdateDecorator@@@@8
rdata$r	SEGMENT
??_R3?$CDynamicPoolEx@VCAirResistanceDecorator@NEffectUpdateDecorator@@@@8 DD 00H ; CDynamicPoolEx<NEffectUpdateDecorator::CAirResistanceDecorator>::`RTTI Class Hierarchy Descriptor'
	DD	00H
	DD	01H
	DD	FLAT:??_R2?$CDynamicPoolEx@VCAirResistanceDecorator@NEffectUpdateDecorator@@@@8
rdata$r	ENDS
;	COMDAT ??_R0?AV?$CDynamicPoolEx@VCAirResistanceDecorator@NEffectUpdateDecorator@@@@@8
data$rs	SEGMENT
??_R0?AV?$CDynamicPoolEx@VCAirResistanceDecorator@NEffectUpdateDecorator@@@@@8 DD FLAT:??_7type_info@@6B@ ; CDynamicPoolEx<NEffectUpdateDecorator::CAirResistanceDecorator> `RTTI Type Descriptor'
	DD	00H
	DB	'.?AV?$CDynamicPoolEx@VCAirResistanceDecorator@NEffectUpd'
	DB	'ateDecorator@@@@', 00H
data$rs	ENDS
;	COMDAT ??_R4?$CDynamicPoolEx@VCAirResistanceDecorator@NEffectUpdateDecorator@@@@6B@
rdata$r	SEGMENT
??_R4?$CDynamicPoolEx@VCAirResistanceDecorator@NEffectUpdateDecorator@@@@6B@ DD 00H ; CDynamicPoolEx<NEffectUpdateDecorator::CAirResistanceDecorator>::`RTTI Complete Object Locator'
	DD	00H
	DD	00H
	DD	FLAT:??_R0?AV?$CDynamicPoolEx@VCAirResistanceDecorator@NEffectUpdateDecorator@@@@@8
	DD	FLAT:??_R3?$CDynamicPoolEx@VCAirResistanceDecorator@NEffectUpdateDecorator@@@@8
rdata$r	ENDS
;	COMDAT ??_R1A@?0A@EA@?$CDynamicPoolEx@VCTextureAnimationRandomDecorator@NEffectUpdateDecorator@@@@8
rdata$r	SEGMENT
??_R1A@?0A@EA@?$CDynamicPoolEx@VCTextureAnimationRandomDecorator@NEffectUpdateDecorator@@@@8 DD FLAT:??_R0?AV?$CDynamicPoolEx@VCTextureAnimationRandomDecorator@NEffectUpdateDecorator@@@@@8 ; CDynamicPoolEx<NEffectUpdateDecorator::CTextureAnimationRandomDecorator>::`RTTI Base Class Descriptor at (0,-1,0,64)'
	DD	00H
	DD	00H
	DD	0ffffffffH
	DD	00H
	DD	040H
	DD	FLAT:??_R3?$CDynamicPoolEx@VCTextureAnimationRandomDecorator@NEffectUpdateDecorator@@@@8
rdata$r	ENDS
;	COMDAT ??_R2?$CDynamicPoolEx@VCTextureAnimationRandomDecorator@NEffectUpdateDecorator@@@@8
rdata$r	SEGMENT
??_R2?$CDynamicPoolEx@VCTextureAnimationRandomDecorator@NEffectUpdateDecorator@@@@8 DD FLAT:??_R1A@?0A@EA@?$CDynamicPoolEx@VCTextureAnimationRandomDecorator@NEffectUpdateDecorator@@@@8 ; CDynamicPoolEx<NEffectUpdateDecorator::CTextureAnimationRandomDecorator>::`RTTI Base Class Array'
rdata$r	ENDS
;	COMDAT ??_R3?$CDynamicPoolEx@VCTextureAnimationRandomDecorator@NEffectUpdateDecorator@@@@8
rdata$r	SEGMENT
??_R3?$CDynamicPoolEx@VCTextureAnimationRandomDecorator@NEffectUpdateDecorator@@@@8 DD 00H ; CDynamicPoolEx<NEffectUpdateDecorator::CTextureAnimationRandomDecorator>::`RTTI Class Hierarchy Descriptor'
	DD	00H
	DD	01H
	DD	FLAT:??_R2?$CDynamicPoolEx@VCTextureAnimationRandomDecorator@NEffectUpdateDecorator@@@@8
rdata$r	ENDS
;	COMDAT ??_R0?AV?$CDynamicPoolEx@VCTextureAnimationRandomDecorator@NEffectUpdateDecorator@@@@@8
data$rs	SEGMENT
??_R0?AV?$CDynamicPoolEx@VCTextureAnimationRandomDecorator@NEffectUpdateDecorator@@@@@8 DD FLAT:??_7type_info@@6B@ ; CDynamicPoolEx<NEffectUpdateDecorator::CTextureAnimationRandomDecorator> `RTTI Type Descriptor'
	DD	00H
	DB	'.?AV?$CDynamicPoolEx@VCTextureAnimationRandomDecorator@N'
	DB	'EffectUpdateDecorator@@@@', 00H
data$rs	ENDS
;	COMDAT ??_R4?$CDynamicPoolEx@VCTextureAnimationRandomDecorator@NEffectUpdateDecorator@@@@6B@
rdata$r	SEGMENT
??_R4?$CDynamicPoolEx@VCTextureAnimationRandomDecorator@NEffectUpdateDecorator@@@@6B@ DD 00H ; CDynamicPoolEx<NEffectUpdateDecorator::CTextureAnimationRandomDecorator>::`RTTI Complete Object Locator'
	DD	00H
	DD	00H
	DD	FLAT:??_R0?AV?$CDynamicPoolEx@VCTextureAnimationRandomDecorator@NEffectUpdateDecorator@@@@@8
	DD	FLAT:??_R3?$CDynamicPoolEx@VCTextureAnimationRandomDecorator@NEffectUpdateDecorator@@@@8
rdata$r	ENDS
;	COMDAT ??_R1A@?0A@EA@?$CDynamicPoolEx@VCTextureAnimationCCWDecorator@NEffectUpdateDecorator@@@@8
rdata$r	SEGMENT
??_R1A@?0A@EA@?$CDynamicPoolEx@VCTextureAnimationCCWDecorator@NEffectUpdateDecorator@@@@8 DD FLAT:??_R0?AV?$CDynamicPoolEx@VCTextureAnimationCCWDecorator@NEffectUpdateDecorator@@@@@8 ; CDynamicPoolEx<NEffectUpdateDecorator::CTextureAnimationCCWDecorator>::`RTTI Base Class Descriptor at (0,-1,0,64)'
	DD	00H
	DD	00H
	DD	0ffffffffH
	DD	00H
	DD	040H
	DD	FLAT:??_R3?$CDynamicPoolEx@VCTextureAnimationCCWDecorator@NEffectUpdateDecorator@@@@8
rdata$r	ENDS
;	COMDAT ??_R2?$CDynamicPoolEx@VCTextureAnimationCCWDecorator@NEffectUpdateDecorator@@@@8
rdata$r	SEGMENT
??_R2?$CDynamicPoolEx@VCTextureAnimationCCWDecorator@NEffectUpdateDecorator@@@@8 DD FLAT:??_R1A@?0A@EA@?$CDynamicPoolEx@VCTextureAnimationCCWDecorator@NEffectUpdateDecorator@@@@8 ; CDynamicPoolEx<NEffectUpdateDecorator::CTextureAnimationCCWDecorator>::`RTTI Base Class Array'
rdata$r	ENDS
;	COMDAT ??_R3?$CDynamicPoolEx@VCTextureAnimationCCWDecorator@NEffectUpdateDecorator@@@@8
rdata$r	SEGMENT
??_R3?$CDynamicPoolEx@VCTextureAnimationCCWDecorator@NEffectUpdateDecorator@@@@8 DD 00H ; CDynamicPoolEx<NEffectUpdateDecorator::CTextureAnimationCCWDecorator>::`RTTI Class Hierarchy Descriptor'
	DD	00H
	DD	01H
	DD	FLAT:??_R2?$CDynamicPoolEx@VCTextureAnimationCCWDecorator@NEffectUpdateDecorator@@@@8
rdata$r	ENDS
;	COMDAT ??_R0?AV?$CDynamicPoolEx@VCTextureAnimationCCWDecorator@NEffectUpdateDecorator@@@@@8
data$rs	SEGMENT
??_R0?AV?$CDynamicPoolEx@VCTextureAnimationCCWDecorator@NEffectUpdateDecorator@@@@@8 DD FLAT:??_7type_info@@6B@ ; CDynamicPoolEx<NEffectUpdateDecorator::CTextureAnimationCCWDecorator> `RTTI Type Descriptor'
	DD	00H
	DB	'.?AV?$CDynamicPoolEx@VCTextureAnimationCCWDecorator@NEff'
	DB	'ectUpdateDecorator@@@@', 00H
data$rs	ENDS
;	COMDAT ??_R4?$CDynamicPoolEx@VCTextureAnimationCCWDecorator@NEffectUpdateDecorator@@@@6B@
rdata$r	SEGMENT
??_R4?$CDynamicPoolEx@VCTextureAnimationCCWDecorator@NEffectUpdateDecorator@@@@6B@ DD 00H ; CDynamicPoolEx<NEffectUpdateDecorator::CTextureAnimationCCWDecorator>::`RTTI Complete Object Locator'
	DD	00H
	DD	00H
	DD	FLAT:??_R0?AV?$CDynamicPoolEx@VCTextureAnimationCCWDecorator@NEffectUpdateDecorator@@@@@8
	DD	FLAT:??_R3?$CDynamicPoolEx@VCTextureAnimationCCWDecorator@NEffectUpdateDecorator@@@@8
rdata$r	ENDS
;	COMDAT ??_R1A@?0A@EA@?$CDynamicPoolEx@VCTextureAnimationCWDecorator@NEffectUpdateDecorator@@@@8
rdata$r	SEGMENT
??_R1A@?0A@EA@?$CDynamicPoolEx@VCTextureAnimationCWDecorator@NEffectUpdateDecorator@@@@8 DD FLAT:??_R0?AV?$CDynamicPoolEx@VCTextureAnimationCWDecorator@NEffectUpdateDecorator@@@@@8 ; CDynamicPoolEx<NEffectUpdateDecorator::CTextureAnimationCWDecorator>::`RTTI Base Class Descriptor at (0,-1,0,64)'
	DD	00H
	DD	00H
	DD	0ffffffffH
	DD	00H
	DD	040H
	DD	FLAT:??_R3?$CDynamicPoolEx@VCTextureAnimationCWDecorator@NEffectUpdateDecorator@@@@8
rdata$r	ENDS
;	COMDAT ??_R2?$CDynamicPoolEx@VCTextureAnimationCWDecorator@NEffectUpdateDecorator@@@@8
rdata$r	SEGMENT
??_R2?$CDynamicPoolEx@VCTextureAnimationCWDecorator@NEffectUpdateDecorator@@@@8 DD FLAT:??_R1A@?0A@EA@?$CDynamicPoolEx@VCTextureAnimationCWDecorator@NEffectUpdateDecorator@@@@8 ; CDynamicPoolEx<NEffectUpdateDecorator::CTextureAnimationCWDecorator>::`RTTI Base Class Array'
rdata$r	ENDS
;	COMDAT ??_R3?$CDynamicPoolEx@VCTextureAnimationCWDecorator@NEffectUpdateDecorator@@@@8
rdata$r	SEGMENT
??_R3?$CDynamicPoolEx@VCTextureAnimationCWDecorator@NEffectUpdateDecorator@@@@8 DD 00H ; CDynamicPoolEx<NEffectUpdateDecorator::CTextureAnimationCWDecorator>::`RTTI Class Hierarchy Descriptor'
	DD	00H
	DD	01H
	DD	FLAT:??_R2?$CDynamicPoolEx@VCTextureAnimationCWDecorator@NEffectUpdateDecorator@@@@8
rdata$r	ENDS
;	COMDAT ??_R0?AV?$CDynamicPoolEx@VCTextureAnimationCWDecorator@NEffectUpdateDecorator@@@@@8
data$rs	SEGMENT
??_R0?AV?$CDynamicPoolEx@VCTextureAnimationCWDecorator@NEffectUpdateDecorator@@@@@8 DD FLAT:??_7type_info@@6B@ ; CDynamicPoolEx<NEffectUpdateDecorator::CTextureAnimationCWDecorator> `RTTI Type Descriptor'
	DD	00H
	DB	'.?AV?$CDynamicPoolEx@VCTextureAnimationCWDecorator@NEffe'
	DB	'ctUpdateDecorator@@@@', 00H
data$rs	ENDS
;	COMDAT ??_R4?$CDynamicPoolEx@VCTextureAnimationCWDecorator@NEffectUpdateDecorator@@@@6B@
rdata$r	SEGMENT
??_R4?$CDynamicPoolEx@VCTextureAnimationCWDecorator@NEffectUpdateDecorator@@@@6B@ DD 00H ; CDynamicPoolEx<NEffectUpdateDecorator::CTextureAnimationCWDecorator>::`RTTI Complete Object Locator'
	DD	00H
	DD	00H
	DD	FLAT:??_R0?AV?$CDynamicPoolEx@VCTextureAnimationCWDecorator@NEffectUpdateDecorator@@@@@8
	DD	FLAT:??_R3?$CDynamicPoolEx@VCTextureAnimationCWDecorator@NEffectUpdateDecorator@@@@8
rdata$r	ENDS
;	COMDAT ??_R1A@?0A@EA@?$CDynamicPoolEx@VCNullDecorator@NEffectUpdateDecorator@@@@8
rdata$r	SEGMENT
??_R1A@?0A@EA@?$CDynamicPoolEx@VCNullDecorator@NEffectUpdateDecorator@@@@8 DD FLAT:??_R0?AV?$CDynamicPoolEx@VCNullDecorator@NEffectUpdateDecorator@@@@@8 ; CDynamicPoolEx<NEffectUpdateDecorator::CNullDecorator>::`RTTI Base Class Descriptor at (0,-1,0,64)'
	DD	00H
	DD	00H
	DD	0ffffffffH
	DD	00H
	DD	040H
	DD	FLAT:??_R3?$CDynamicPoolEx@VCNullDecorator@NEffectUpdateDecorator@@@@8
rdata$r	ENDS
;	COMDAT ??_R2?$CDynamicPoolEx@VCNullDecorator@NEffectUpdateDecorator@@@@8
rdata$r	SEGMENT
??_R2?$CDynamicPoolEx@VCNullDecorator@NEffectUpdateDecorator@@@@8 DD FLAT:??_R1A@?0A@EA@?$CDynamicPoolEx@VCNullDecorator@NEffectUpdateDecorator@@@@8 ; CDynamicPoolEx<NEffectUpdateDecorator::CNullDecorator>::`RTTI Base Class Array'
rdata$r	ENDS
;	COMDAT ??_R3?$CDynamicPoolEx@VCNullDecorator@NEffectUpdateDecorator@@@@8
rdata$r	SEGMENT
??_R3?$CDynamicPoolEx@VCNullDecorator@NEffectUpdateDecorator@@@@8 DD 00H ; CDynamicPoolEx<NEffectUpdateDecorator::CNullDecorator>::`RTTI Class Hierarchy Descriptor'
	DD	00H
	DD	01H
	DD	FLAT:??_R2?$CDynamicPoolEx@VCNullDecorator@NEffectUpdateDecorator@@@@8
rdata$r	ENDS
;	COMDAT ??_R0?AV?$CDynamicPoolEx@VCNullDecorator@NEffectUpdateDecorator@@@@@8
data$rs	SEGMENT
??_R0?AV?$CDynamicPoolEx@VCNullDecorator@NEffectUpdateDecorator@@@@@8 DD FLAT:??_7type_info@@6B@ ; CDynamicPoolEx<NEffectUpdateDecorator::CNullDecorator> `RTTI Type Descriptor'
	DD	00H
	DB	'.?AV?$CDynamicPoolEx@VCNullDecorator@NEffectUpdateDecora'
	DB	'tor@@@@', 00H
data$rs	ENDS
;	COMDAT ??_R4?$CDynamicPoolEx@VCNullDecorator@NEffectUpdateDecorator@@@@6B@
rdata$r	SEGMENT
??_R4?$CDynamicPoolEx@VCNullDecorator@NEffectUpdateDecorator@@@@6B@ DD 00H ; CDynamicPoolEx<NEffectUpdateDecorator::CNullDecorator>::`RTTI Complete Object Locator'
	DD	00H
	DD	00H
	DD	FLAT:??_R0?AV?$CDynamicPoolEx@VCNullDecorator@NEffectUpdateDecorator@@@@@8
	DD	FLAT:??_R3?$CDynamicPoolEx@VCNullDecorator@NEffectUpdateDecorator@@@@8
rdata$r	ENDS
;	COMDAT ??_R1A@?0A@EA@?$CDynamicPoolEx@VCHeaderDecorator@NEffectUpdateDecorator@@@@8
rdata$r	SEGMENT
??_R1A@?0A@EA@?$CDynamicPoolEx@VCHeaderDecorator@NEffectUpdateDecorator@@@@8 DD FLAT:??_R0?AV?$CDynamicPoolEx@VCHeaderDecorator@NEffectUpdateDecorator@@@@@8 ; CDynamicPoolEx<NEffectUpdateDecorator::CHeaderDecorator>::`RTTI Base Class Descriptor at (0,-1,0,64)'
	DD	00H
	DD	00H
	DD	0ffffffffH
	DD	00H
	DD	040H
	DD	FLAT:??_R3?$CDynamicPoolEx@VCHeaderDecorator@NEffectUpdateDecorator@@@@8
rdata$r	ENDS
;	COMDAT ??_R2?$CDynamicPoolEx@VCHeaderDecorator@NEffectUpdateDecorator@@@@8
rdata$r	SEGMENT
??_R2?$CDynamicPoolEx@VCHeaderDecorator@NEffectUpdateDecorator@@@@8 DD FLAT:??_R1A@?0A@EA@?$CDynamicPoolEx@VCHeaderDecorator@NEffectUpdateDecorator@@@@8 ; CDynamicPoolEx<NEffectUpdateDecorator::CHeaderDecorator>::`RTTI Base Class Array'
rdata$r	ENDS
;	COMDAT ??_R3?$CDynamicPoolEx@VCHeaderDecorator@NEffectUpdateDecorator@@@@8
rdata$r	SEGMENT
??_R3?$CDynamicPoolEx@VCHeaderDecorator@NEffectUpdateDecorator@@@@8 DD 00H ; CDynamicPoolEx<NEffectUpdateDecorator::CHeaderDecorator>::`RTTI Class Hierarchy Descriptor'
	DD	00H
	DD	01H
	DD	FLAT:??_R2?$CDynamicPoolEx@VCHeaderDecorator@NEffectUpdateDecorator@@@@8
rdata$r	ENDS
;	COMDAT ??_R0?AV?$CDynamicPoolEx@VCHeaderDecorator@NEffectUpdateDecorator@@@@@8
data$rs	SEGMENT
??_R0?AV?$CDynamicPoolEx@VCHeaderDecorator@NEffectUpdateDecorator@@@@@8 DD FLAT:??_7type_info@@6B@ ; CDynamicPoolEx<NEffectUpdateDecorator::CHeaderDecorator> `RTTI Type Descriptor'
	DD	00H
	DB	'.?AV?$CDynamicPoolEx@VCHeaderDecorator@NEffectUpdateDeco'
	DB	'rator@@@@', 00H
data$rs	ENDS
;	COMDAT ??_R4?$CDynamicPoolEx@VCHeaderDecorator@NEffectUpdateDecorator@@@@6B@
rdata$r	SEGMENT
??_R4?$CDynamicPoolEx@VCHeaderDecorator@NEffectUpdateDecorator@@@@6B@ DD 00H ; CDynamicPoolEx<NEffectUpdateDecorator::CHeaderDecorator>::`RTTI Complete Object Locator'
	DD	00H
	DD	00H
	DD	FLAT:??_R0?AV?$CDynamicPoolEx@VCHeaderDecorator@NEffectUpdateDecorator@@@@@8
	DD	FLAT:??_R3?$CDynamicPoolEx@VCHeaderDecorator@NEffectUpdateDecorator@@@@8
rdata$r	ENDS
;	COMDAT ?_Fake_alloc@std@@3U_Fake_allocator@1@B
CONST	SEGMENT
?_Fake_alloc@std@@3U_Fake_allocator@1@B	ORG $+1		; std::_Fake_alloc
CONST	ENDS
;	COMDAT ??_7?$CDynamicPoolEx@VCHeaderDecorator@NEffectUpdateDecorator@@@@6B@
CONST	SEGMENT
??_7?$CDynamicPoolEx@VCHeaderDecorator@NEffectUpdateDecorator@@@@6B@ DD FLAT:??_R4?$CDynamicPoolEx@VCHeaderDecorator@NEffectUpdateDecorator@@@@6B@ ; CDynamicPoolEx<NEffectUpdateDecorator::CHeaderDecorator>::`vftable'
	DD	FLAT:??_E?$CDynamicPoolEx@VCHeaderDecorator@NEffectUpdateDecorator@@@@UAEPAXI@Z
CONST	ENDS
;	COMDAT ??_7?$CDynamicPoolEx@VCNullDecorator@NEffectUpdateDecorator@@@@6B@
CONST	SEGMENT
??_7?$CDynamicPoolEx@VCNullDecorator@NEffectUpdateDecorator@@@@6B@ DD FLAT:??_R4?$CDynamicPoolEx@VCNullDecorator@NEffectUpdateDecorator@@@@6B@ ; CDynamicPoolEx<NEffectUpdateDecorator::CNullDecorator>::`vftable'
	DD	FLAT:??_E?$CDynamicPoolEx@VCNullDecorator@NEffectUpdateDecorator@@@@UAEPAXI@Z
CONST	ENDS
;	COMDAT ??_7?$CDynamicPoolEx@VCTextureAnimationCWDecorator@NEffectUpdateDecorator@@@@6B@
CONST	SEGMENT
??_7?$CDynamicPoolEx@VCTextureAnimationCWDecorator@NEffectUpdateDecorator@@@@6B@ DD FLAT:??_R4?$CDynamicPoolEx@VCTextureAnimationCWDecorator@NEffectUpdateDecorator@@@@6B@ ; CDynamicPoolEx<NEffectUpdateDecorator::CTextureAnimationCWDecorator>::`vftable'
	DD	FLAT:??_E?$CDynamicPoolEx@VCTextureAnimationCWDecorator@NEffectUpdateDecorator@@@@UAEPAXI@Z
CONST	ENDS
;	COMDAT ??_7?$CDynamicPoolEx@VCTextureAnimationCCWDecorator@NEffectUpdateDecorator@@@@6B@
CONST	SEGMENT
??_7?$CDynamicPoolEx@VCTextureAnimationCCWDecorator@NEffectUpdateDecorator@@@@6B@ DD FLAT:??_R4?$CDynamicPoolEx@VCTextureAnimationCCWDecorator@NEffectUpdateDecorator@@@@6B@ ; CDynamicPoolEx<NEffectUpdateDecorator::CTextureAnimationCCWDecorator>::`vftable'
	DD	FLAT:??_E?$CDynamicPoolEx@VCTextureAnimationCCWDecorator@NEffectUpdateDecorator@@@@UAEPAXI@Z
CONST	ENDS
;	COMDAT ??_7?$CDynamicPoolEx@VCTextureAnimationRandomDecorator@NEffectUpdateDecorator@@@@6B@
CONST	SEGMENT
??_7?$CDynamicPoolEx@VCTextureAnimationRandomDecorator@NEffectUpdateDecorator@@@@6B@ DD FLAT:??_R4?$CDynamicPoolEx@VCTextureAnimationRandomDecorator@NEffectUpdateDecorator@@@@6B@ ; CDynamicPoolEx<NEffectUpdateDecorator::CTextureAnimationRandomDecorator>::`vftable'
	DD	FLAT:??_E?$CDynamicPoolEx@VCTextureAnimationRandomDecorator@NEffectUpdateDecorator@@@@UAEPAXI@Z
CONST	ENDS
PUBLIC	??_H@YGXPAXIIP6EPAX0@Z@Z			; `vector constructor iterator'
PUBLIC	?__empty_global_delete@@YAXPAX@Z		; __empty_global_delete
PUBLIC	?__empty_global_delete@@YAXPAXI@Z		; __empty_global_delete
PUBLIC	?__empty_global_delete@@YAXPAXW4align_val_t@std@@@Z ; __empty_global_delete
PUBLIC	?__empty_global_delete@@YAXPAXIW4align_val_t@std@@@Z ; __empty_global_delete
PUBLIC	??0exception@std@@QAE@ABV01@@Z			; std::exception::exception
PUBLIC	??1exception@std@@UAE@XZ			; std::exception::~exception
PUBLIC	?what@exception@std@@UBEPBDXZ			; std::exception::what
PUBLIC	??_Gexception@std@@UAEPAXI@Z			; std::exception::`scalar deleting destructor'
PUBLIC	??0bad_alloc@std@@QAE@ABV01@@Z			; std::bad_alloc::bad_alloc
PUBLIC	??_Gbad_alloc@std@@UAEPAXI@Z			; std::bad_alloc::`scalar deleting destructor'
PUBLIC	??0bad_array_new_length@std@@QAE@XZ		; std::bad_array_new_length::bad_array_new_length
PUBLIC	??1bad_array_new_length@std@@UAE@XZ		; std::bad_array_new_length::~bad_array_new_length
PUBLIC	??0bad_array_new_length@std@@QAE@ABV01@@Z	; std::bad_array_new_length::bad_array_new_length
PUBLIC	??_Gbad_array_new_length@std@@UAEPAXI@Z		; std::bad_array_new_length::`scalar deleting destructor'
PUBLIC	?_Throw_bad_array_new_length@std@@YAXXZ		; std::_Throw_bad_array_new_length
PUBLIC	??$_Allocate_manually_vector_aligned@U_Default_allocate_traits@std@@@std@@YAPAXI@Z ; std::_Allocate_manually_vector_aligned<std::_Default_allocate_traits>
PUBLIC	?SetMotionMode@CActorInstance@@QAEXH@Z		; CActorInstance::SetMotionMode
PUBLIC	?GetMotionMode@CActorInstance@@QAEHXZ		; CActorInstance::GetMotionMode
PUBLIC	?SetLoopMotion@CActorInstance@@QAEXKMM@Z	; CActorInstance::SetLoopMotion
PUBLIC	?InterceptOnceMotion@CActorInstance@@QAE_NKMIM@Z ; CActorInstance::InterceptOnceMotion
PUBLIC	?InterceptLoopMotion@CActorInstance@@QAE_NKM@Z	; CActorInstance::InterceptLoopMotion
PUBLIC	?PushOnceMotion@CActorInstance@@QAE_NKMM@Z	; CActorInstance::PushOnceMotion
PUBLIC	?PushLoopMotion@CActorInstance@@QAE_NKMM@Z	; CActorInstance::PushLoopMotion
PUBLIC	?SetMotionLoopCount@CActorInstance@@QAEXH@Z	; CActorInstance::SetMotionLoopCount
PUBLIC	?isLock@CActorInstance@@QAEHXZ			; CActorInstance::isLock
PUBLIC	?IsUsingSkill@CActorInstance@@QAEHXZ		; CActorInstance::IsUsingSkill
PUBLIC	?CanCancelSkill@CActorInstance@@QAEHXZ		; CActorInstance::CanCancelSkill
PUBLIC	?PreAttack@CActorInstance@@QAEXXZ		; CActorInstance::PreAttack
PUBLIC	?IsFishing@CActorInstance@@QAEHXZ		; CActorInstance::IsFishing
PUBLIC	?HORSE_MotionProcess@CActorInstance@@QAEXH@Z	; CActorInstance::HORSE_MotionProcess
PUBLIC	?MotionProcess@CActorInstance@@QAEXH@Z		; CActorInstance::MotionProcess
PUBLIC	?__MotionEventProcess@CActorInstance@@QAEXH@Z	; CActorInstance::__MotionEventProcess
PUBLIC	?ReservingMotionProcess@CActorInstance@@IAEXXZ	; CActorInstance::ReservingMotionProcess
PUBLIC	?CurrentMotionProcess@CActorInstance@@IAEXXZ	; CActorInstance::CurrentMotionProcess
PUBLIC	?GetRandomMotionKey@CActorInstance@@IAEKK@Z	; CActorInstance::GetRandomMotionKey
PUBLIC	?GetLastMotionTime@CActorInstance@@IAEMM@Z	; CActorInstance::GetLastMotionTime
PUBLIC	?GetMotionDuration@CActorInstance@@IAEMK@Z	; CActorInstance::GetMotionDuration
PUBLIC	?InterceptMotion@CActorInstance@@IAE_NW4EMotionPushType@1@GMIM@Z ; CActorInstance::InterceptMotion
PUBLIC	?PushMotion@CActorInstance@@IAEXW4EMotionPushType@1@KMM@Z ; CActorInstance::PushMotion
PUBLIC	?__SetMotion@CActorInstance@@IAEKABUSSetMotionData@1@K@Z ; CActorInstance::__SetMotion
PUBLIC	?__ClearMotion@CActorInstance@@IAEXXZ		; CActorInstance::__ClearMotion
PUBLIC	?__BindMotionData@CActorInstance@@IAE_NK@Z	; CActorInstance::__BindMotionData
PUBLIC	?__GetMotionType@CActorInstance@@IAEIXZ		; CActorInstance::__GetMotionType
PUBLIC	?__IsNeedFlyTargetMotion@CActorInstance@@IAE_NXZ ; CActorInstance::__IsNeedFlyTargetMotion
PUBLIC	?__HasMotionFlyEvent@CActorInstance@@IAE_NXZ	; CActorInstance::__HasMotionFlyEvent
PUBLIC	?__IsWaitMotion@CActorInstance@@IAE_NXZ		; CActorInstance::__IsWaitMotion
PUBLIC	?__IsMoveMotion@CActorInstance@@IAE_NXZ		; CActorInstance::__IsMoveMotion
PUBLIC	?__IsAttackMotion@CActorInstance@@IAE_NXZ	; CActorInstance::__IsAttackMotion
PUBLIC	?__IsComboAttackMotion@CActorInstance@@IAE_NXZ	; CActorInstance::__IsComboAttackMotion
PUBLIC	?__IsDamageMotion@CActorInstance@@IAE_NXZ	; CActorInstance::__IsDamageMotion
PUBLIC	?__IsKnockDownMotion@CActorInstance@@IAE_NXZ	; CActorInstance::__IsKnockDownMotion
PUBLIC	?__IsDieMotion@CActorInstance@@IAE_NXZ		; CActorInstance::__IsDieMotion
PUBLIC	?__IsStandUpMotion@CActorInstance@@IAE_NXZ	; CActorInstance::__IsStandUpMotion
PUBLIC	?__CanAttack@CActorInstance@@IAE_NXZ		; CActorInstance::__CanAttack
PUBLIC	?__CanNextComboAttack@CActorInstance@@IAE_NXZ	; CActorInstance::__CanNextComboAttack
PUBLIC	?__IsComboAttacking@CActorInstance@@IAE_NXZ	; CActorInstance::__IsComboAttacking
PUBLIC	?__GetCurrentMotionIndex@CActorInstance@@IAEGXZ	; CActorInstance::__GetCurrentMotionIndex
PUBLIC	?__GetCurrentMotionKey@CActorInstance@@IAEKXZ	; CActorInstance::__GetCurrentMotionKey
PUBLIC	?__GetLoopCount@CActorInstance@@IAEHXZ		; CActorInstance::__GetLoopCount
PUBLIC	?_Xlen@?$deque@USReservingMotionNode@CActorInstance@@V?$allocator@USReservingMotionNode@CActorInstance@@@std@@@std@@ABEXXZ ; std::deque<CActorInstance::SReservingMotionNode,std::allocator<CActorInstance::SReservingMotionNode> >::_Xlen
PUBLIC	?_Growmap@?$deque@USReservingMotionNode@CActorInstance@@V?$allocator@USReservingMotionNode@CActorInstance@@@std@@@std@@AAEXI@Z ; std::deque<CActorInstance::SReservingMotionNode,std::allocator<CActorInstance::SReservingMotionNode> >::_Growmap
PUBLIC	?_Xrange@?$vector@USMotion@CRaceData@@V?$allocator@USMotion@CRaceData@@@std@@@std@@CAXXZ ; std::vector<CRaceData::SMotion,std::allocator<CRaceData::SMotion> >::_Xrange
PUBLIC	??$_Erase_tree@V?$allocator@U?$_Tree_node@U?$pair@QBUSHitData@NRaceData@@V?$map@PAVCActorInstance@@MU?$less@PAVCActorInstance@@@std@@V?$allocator@U?$pair@QAVCActorInstance@@M@std@@@3@@std@@@std@@PAX@std@@@std@@@?$_Tree_val@U?$_Tree_simple_types@U?$pair@QBUSHitData@NRaceData@@V?$map@PAVCActorInstance@@MU?$less@PAVCActorInstance@@@std@@V?$allocator@U?$pair@QAVCActorInstance@@M@std@@@3@@std@@@std@@@std@@@std@@QAEXAAV?$allocator@U?$_Tree_node@U?$pair@QBUSHitData@NRaceData@@V?$map@PAVCActorInstance@@MU?$less@PAVCActorInstance@@@std@@V?$allocator@U?$pair@QAVCActorInstance@@M@std@@@3@@std@@@std@@PAX@std@@@1@PAU?$_Tree_node@U?$pair@QBUSHitData@NRaceData@@V?$map@PAVCActorInstance@@MU?$less@PAVCActorInstance@@@std@@V?$allocator@U?$pair@QAVCActorInstance@@M@std@@@3@@std@@@std@@PAX@1@@Z ; std::_Tree_val<std::_Tree_simple_types<std::pair<NRaceData::SHitData const * const,std::map<CActorInstance *,float,std::less<CActorInstance *>,std::allocator<std::pair<CActorInstance * const,float> > > > > >::_Erase_tree<std::allocator<std::_Tree_node<std::pair<NRaceData::SHitData const * const,std::map<CActorInstance *,float,std::less<CActorInstance *>,std::allocator<std::pair<CActorInstance * const,float> > > >,void *> > >
PUBLIC	??1?$CDynamicPoolEx@VCRotationDecorator@NEffectUpdateDecorator@@@@UAE@XZ ; CDynamicPoolEx<NEffectUpdateDecorator::CRotationDecorator>::~CDynamicPoolEx<NEffectUpdateDecorator::CRotationDecorator>
PUBLIC	?Delete@?$CDynamicPoolEx@VCRotationDecorator@NEffectUpdateDecorator@@@@KAXPAVCRotationDecorator@NEffectUpdateDecorator@@@Z ; CDynamicPoolEx<NEffectUpdateDecorator::CRotationDecorator>::Delete
PUBLIC	??1?$CDynamicPoolEx@VCGravityDecorator@NEffectUpdateDecorator@@@@UAE@XZ ; CDynamicPoolEx<NEffectUpdateDecorator::CGravityDecorator>::~CDynamicPoolEx<NEffectUpdateDecorator::CGravityDecorator>
PUBLIC	?Delete@?$CDynamicPoolEx@VCGravityDecorator@NEffectUpdateDecorator@@@@KAXPAVCGravityDecorator@NEffectUpdateDecorator@@@Z ; CDynamicPoolEx<NEffectUpdateDecorator::CGravityDecorator>::Delete
PUBLIC	??1?$CDynamicPoolEx@VCAirResistanceDecorator@NEffectUpdateDecorator@@@@UAE@XZ ; CDynamicPoolEx<NEffectUpdateDecorator::CAirResistanceDecorator>::~CDynamicPoolEx<NEffectUpdateDecorator::CAirResistanceDecorator>
PUBLIC	?Delete@?$CDynamicPoolEx@VCAirResistanceDecorator@NEffectUpdateDecorator@@@@KAXPAVCAirResistanceDecorator@NEffectUpdateDecorator@@@Z ; CDynamicPoolEx<NEffectUpdateDecorator::CAirResistanceDecorator>::Delete
PUBLIC	??1?$CDynamicPoolEx@VCTextureAnimationRandomDecorator@NEffectUpdateDecorator@@@@UAE@XZ ; CDynamicPoolEx<NEffectUpdateDecorator::CTextureAnimationRandomDecorator>::~CDynamicPoolEx<NEffectUpdateDecorator::CTextureAnimationRandomDecorator>
PUBLIC	?Delete@?$CDynamicPoolEx@VCTextureAnimationRandomDecorator@NEffectUpdateDecorator@@@@KAXPAVCTextureAnimationRandomDecorator@NEffectUpdateDecorator@@@Z ; CDynamicPoolEx<NEffectUpdateDecorator::CTextureAnimationRandomDecorator>::Delete
PUBLIC	??1?$CDynamicPoolEx@VCTextureAnimationCCWDecorator@NEffectUpdateDecorator@@@@UAE@XZ ; CDynamicPoolEx<NEffectUpdateDecorator::CTextureAnimationCCWDecorator>::~CDynamicPoolEx<NEffectUpdateDecorator::CTextureAnimationCCWDecorator>
PUBLIC	?Delete@?$CDynamicPoolEx@VCTextureAnimationCCWDecorator@NEffectUpdateDecorator@@@@KAXPAVCTextureAnimationCCWDecorator@NEffectUpdateDecorator@@@Z ; CDynamicPoolEx<NEffectUpdateDecorator::CTextureAnimationCCWDecorator>::Delete
PUBLIC	??1?$CDynamicPoolEx@VCTextureAnimationCWDecorator@NEffectUpdateDecorator@@@@UAE@XZ ; CDynamicPoolEx<NEffectUpdateDecorator::CTextureAnimationCWDecorator>::~CDynamicPoolEx<NEffectUpdateDecorator::CTextureAnimationCWDecorator>
PUBLIC	?Delete@?$CDynamicPoolEx@VCTextureAnimationCWDecorator@NEffectUpdateDecorator@@@@KAXPAVCTextureAnimationCWDecorator@NEffectUpdateDecorator@@@Z ; CDynamicPoolEx<NEffectUpdateDecorator::CTextureAnimationCWDecorator>::Delete
PUBLIC	??1?$CDynamicPoolEx@VCNullDecorator@NEffectUpdateDecorator@@@@UAE@XZ ; CDynamicPoolEx<NEffectUpdateDecorator::CNullDecorator>::~CDynamicPoolEx<NEffectUpdateDecorator::CNullDecorator>
PUBLIC	?Delete@?$CDynamicPoolEx@VCNullDecorator@NEffectUpdateDecorator@@@@KAXPAVCNullDecorator@NEffectUpdateDecorator@@@Z ; CDynamicPoolEx<NEffectUpdateDecorator::CNullDecorator>::Delete
PUBLIC	??1?$CDynamicPoolEx@VCHeaderDecorator@NEffectUpdateDecorator@@@@UAE@XZ ; CDynamicPoolEx<NEffectUpdateDecorator::CHeaderDecorator>::~CDynamicPoolEx<NEffectUpdateDecorator::CHeaderDecorator>
PUBLIC	?Delete@?$CDynamicPoolEx@VCHeaderDecorator@NEffectUpdateDecorator@@@@KAXPAVCHeaderDecorator@NEffectUpdateDecorator@@@Z ; CDynamicPoolEx<NEffectUpdateDecorator::CHeaderDecorator>::Delete
PUBLIC	??$uninitialized_copy@PAPAUSReservingMotionNode@CActorInstance@@PAPAU12@@std@@YAPAPAUSReservingMotionNode@CActorInstance@@QAPAU12@0PAPAU12@@Z ; std::uninitialized_copy<CActorInstance::SReservingMotionNode * *,CActorInstance::SReservingMotionNode * *>
PUBLIC	??$_Uninitialized_value_construct_n_unchecked1@PAPAUSReservingMotionNode@CActorInstance@@I@std@@YAPAPAUSReservingMotionNode@CActorInstance@@PAPAU12@I@Z ; std::_Uninitialized_value_construct_n_unchecked1<CActorInstance::SReservingMotionNode * *,unsigned int>
PUBLIC	??$_Zero_range@PAPAUSReservingMotionNode@CActorInstance@@@std@@YAPAPAUSReservingMotionNode@CActorInstance@@QAPAU12@0@Z ; std::_Zero_range<CActorInstance::SReservingMotionNode * *>
PUBLIC	??$_Copy_memmove@PAPAUSReservingMotionNode@CActorInstance@@PAPAU12@@std@@YAPAPAUSReservingMotionNode@CActorInstance@@PAPAU12@00@Z ; std::_Copy_memmove<CActorInstance::SReservingMotionNode * *,CActorInstance::SReservingMotionNode * *>
PUBLIC	??$_Erase_tree@V?$allocator@U?$_Tree_node@U?$pair@QAVCActorInstance@@M@std@@PAX@std@@@std@@@?$_Tree_val@U?$_Tree_simple_types@U?$pair@QAVCActorInstance@@M@std@@@std@@@std@@QAEXAAV?$allocator@U?$_Tree_node@U?$pair@QAVCActorInstance@@M@std@@PAX@std@@@1@PAU?$_Tree_node@U?$pair@QAVCActorInstance@@M@std@@PAX@1@@Z ; std::_Tree_val<std::_Tree_simple_types<std::pair<CActorInstance * const,float> > >::_Erase_tree<std::allocator<std::_Tree_node<std::pair<CActorInstance * const,float>,void *> > >
PUBLIC	??_7exception@std@@6B@				; std::exception::`vftable'
PUBLIC	??_C@_0BC@EOODALEL@Unknown?5exception@		; `string'
PUBLIC	??_7bad_alloc@std@@6B@				; std::bad_alloc::`vftable'
PUBLIC	??_7bad_array_new_length@std@@6B@		; std::bad_array_new_length::`vftable'
PUBLIC	??_C@_0BF@KINCDENJ@bad?5array?5new?5length@	; `string'
PUBLIC	__TI3?AVbad_array_new_length@std@@
PUBLIC	__CTA3?AVbad_array_new_length@std@@
PUBLIC	??_R0?AVbad_array_new_length@std@@@8		; std::bad_array_new_length `RTTI Type Descriptor'
PUBLIC	__CT??_R0?AVbad_array_new_length@std@@@8??0bad_array_new_length@std@@QAE@ABV01@@Z12
PUBLIC	??_R0?AVbad_alloc@std@@@8			; std::bad_alloc `RTTI Type Descriptor'
PUBLIC	__CT??_R0?AVbad_alloc@std@@@8??0bad_alloc@std@@QAE@ABV01@@Z12
PUBLIC	??_R0?AVexception@std@@@8			; std::exception `RTTI Type Descriptor'
PUBLIC	__CT??_R0?AVexception@std@@@8??0exception@std@@QAE@ABV01@@Z12
PUBLIC	??_R4exception@std@@6B@				; std::exception::`RTTI Complete Object Locator'
PUBLIC	??_R3exception@std@@8				; std::exception::`RTTI Class Hierarchy Descriptor'
PUBLIC	??_R2exception@std@@8				; std::exception::`RTTI Base Class Array'
PUBLIC	??_R1A@?0A@EA@exception@std@@8			; std::exception::`RTTI Base Class Descriptor at (0,-1,0,64)'
PUBLIC	??_R4bad_alloc@std@@6B@				; std::bad_alloc::`RTTI Complete Object Locator'
PUBLIC	??_R3bad_alloc@std@@8				; std::bad_alloc::`RTTI Class Hierarchy Descriptor'
PUBLIC	??_R2bad_alloc@std@@8				; std::bad_alloc::`RTTI Base Class Array'
PUBLIC	??_R1A@?0A@EA@bad_alloc@std@@8			; std::bad_alloc::`RTTI Base Class Descriptor at (0,-1,0,64)'
PUBLIC	??_R4bad_array_new_length@std@@6B@		; std::bad_array_new_length::`RTTI Complete Object Locator'
PUBLIC	??_R3bad_array_new_length@std@@8		; std::bad_array_new_length::`RTTI Class Hierarchy Descriptor'
PUBLIC	??_R2bad_array_new_length@std@@8		; std::bad_array_new_length::`RTTI Base Class Array'
PUBLIC	??_R1A@?0A@EA@bad_array_new_length@std@@8	; std::bad_array_new_length::`RTTI Base Class Descriptor at (0,-1,0,64)'
PUBLIC	?ms_kPool@?$CPooledObject@VCHeaderDecorator@NEffectUpdateDecorator@@@@1V?$CDynamicPoolEx@VCHeaderDecorator@NEffectUpdateDecorator@@@@A ; CPooledObject<NEffectUpdateDecorator::CHeaderDecorator>::ms_kPool
PUBLIC	?ms_kPool@?$CPooledObject@VCNullDecorator@NEffectUpdateDecorator@@@@1V?$CDynamicPoolEx@VCNullDecorator@NEffectUpdateDecorator@@@@A ; CPooledObject<NEffectUpdateDecorator::CNullDecorator>::ms_kPool
PUBLIC	?ms_kPool@?$CPooledObject@VCTextureAnimationCWDecorator@NEffectUpdateDecorator@@@@1V?$CDynamicPoolEx@VCTextureAnimationCWDecorator@NEffectUpdateDecorator@@@@A ; CPooledObject<NEffectUpdateDecorator::CTextureAnimationCWDecorator>::ms_kPool
PUBLIC	?ms_kPool@?$CPooledObject@VCTextureAnimationCCWDecorator@NEffectUpdateDecorator@@@@1V?$CDynamicPoolEx@VCTextureAnimationCCWDecorator@NEffectUpdateDecorator@@@@A ; CPooledObject<NEffectUpdateDecorator::CTextureAnimationCCWDecorator>::ms_kPool
PUBLIC	?ms_kPool@?$CPooledObject@VCTextureAnimationRandomDecorator@NEffectUpdateDecorator@@@@1V?$CDynamicPoolEx@VCTextureAnimationRandomDecorator@NEffectUpdateDecorator@@@@A ; CPooledObject<NEffectUpdateDecorator::CTextureAnimationRandomDecorator>::ms_kPool
PUBLIC	?ms_kPool@?$CPooledObject@VCAirResistanceDecorator@NEffectUpdateDecorator@@@@1V?$CDynamicPoolEx@VCAirResistanceDecorator@NEffectUpdateDecorator@@@@A ; CPooledObject<NEffectUpdateDecorator::CAirResistanceDecorator>::ms_kPool
PUBLIC	?ms_kPool@?$CPooledObject@VCGravityDecorator@NEffectUpdateDecorator@@@@1V?$CDynamicPoolEx@VCGravityDecorator@NEffectUpdateDecorator@@@@A ; CPooledObject<NEffectUpdateDecorator::CGravityDecorator>::ms_kPool
PUBLIC	?ms_kPool@?$CPooledObject@VCRotationDecorator@NEffectUpdateDecorator@@@@1V?$CDynamicPoolEx@VCRotationDecorator@NEffectUpdateDecorator@@@@A ; CPooledObject<NEffectUpdateDecorator::CRotationDecorator>::ms_kPool
PUBLIC	?ms_singleton@?$CSingleton@VCEffectManager@@@@0PAVCEffectManager@@A ; CSingleton<CEffectManager>::ms_singleton
PUBLIC	??_C@_0CO@FPMNJLLG@?5Error?5?9?5Not?5found?5want?5to?5usin@ ; `string'
PUBLIC	??_C@_0EK@IFOPNGGO@CActorInstance?3?3SetLoopMotion?$CId@ ; `string'
PUBLIC	??_C@_0IN@JKOADFII@CActorInstance?3?3SetLoopMotion?$CId@ ; `string'
PUBLIC	??_C@_0GC@LNLDMJJ@CActorInstance?3?3InterceptMotion@ ; `string'
PUBLIC	??_C@_0JL@GEIDCHAJ@CActorInstance?3?3InterceptMotion@ ; `string'
PUBLIC	??_C@_0DP@CBIMEEGJ@CActorInstance?3?3GetMotionDurati@ ; `string'
PUBLIC	??_C@_0CO@FJGPJKBE@Only?5MainActor?5can?5receive?5dama@ ; `string'
PUBLIC	??_C@_0BH@MJFHAINF@Failed?5to?5bind?5motion?4@	; `string'
PUBLIC	??_C@_0DP@MJFILIBP@CActorInstance?3?3__GetLoopCount?$CI@ ; `string'
PUBLIC	??_C@_0DM@CHLCPNIC@CActorInstance?3?3__CanAttack?$CI?$CJ?5?9@ ; `string'
PUBLIC	??_C@_0EF@EBECGAL@CActorInstance?3?3__CanNextComboA@ ; `string'
PUBLIC	??_C@_0BJ@DHFDPMIM@invalid?5vector?5subscript@	; `string'
PUBLIC	??_C@_0BC@KBDMBKEH@deque?$DMT?$DO?5too?5long@	; `string'
PUBLIC	__real@00000000
PUBLIC	__real@3f800000
PUBLIC	__real@40400000
EXTRN	??2@YAPAXI@Z:PROC				; operator new
EXTRN	??3@YAXPAX@Z:PROC				; operator delete
EXTRN	??3@YAXPAXI@Z:PROC				; operator delete
EXTRN	_atexit:PROC
EXTRN	__invalid_parameter_noinfo_noreturn:PROC
EXTRN	___std_exception_copy:PROC
EXTRN	___std_exception_destroy:PROC
EXTRN	??_Eexception@std@@UAEPAXI@Z:PROC		; std::exception::`vector deleting destructor'
EXTRN	??_Ebad_alloc@std@@UAEPAXI@Z:PROC		; std::bad_alloc::`vector deleting destructor'
EXTRN	??_Ebad_array_new_length@std@@UAEPAXI@Z:PROC	; std::bad_array_new_length::`vector deleting destructor'
EXTRN	?_Xlength_error@std@@YAXPBD@Z:PROC		; std::_Xlength_error
EXTRN	?_Xout_of_range@std@@YAXPBD@Z:PROC		; std::_Xout_of_range
EXTRN	?random@@YAKXZ:PROC				; random
EXTRN	?Logn@@YAXIPBD@Z:PROC				; Logn
EXTRN	?Tracen@@YAXPBD@Z:PROC				; Tracen
EXTRN	?Tracenf@@YAXPBDZZ:PROC				; Tracenf
EXTRN	?Tracef@@YAXPBDZZ:PROC				; Tracef
EXTRN	?TraceError@@YAXPBDZZ:PROC			; TraceError
EXTRN	?Clear@CFlyTarget@@QAEXXZ:PROC			; CFlyTarget::Clear
EXTRN	?IsObject@CFlyTarget@@QAE_NXZ:PROC		; CFlyTarget::IsObject
EXTRN	?IsValidTarget@CFlyTarget@@QAE_NXZ:PROC		; CFlyTarget::IsValidTarget
EXTRN	??4CFlyTarget@@QAEAAV0@ABV0@@Z:PROC		; CFlyTarget::operator=
EXTRN	?GetDuration@CGrannyMotion@@QBEMXZ:PROC		; CGrannyMotion::GetDuration
EXTRN	?GetMotionPointer@CGraphicThing@@QAEPAVCGrannyMotion@@H@Z:PROC ; CGraphicThing::GetMotionPointer
EXTRN	?GetMotionCount@CGraphicThing@@QBEHXZ:PROC	; CGraphicThing::GetMotionCount
EXTRN	?GetMotionKey@CRaceData@@QAEHGGPAK@Z:PROC	; CRaceData::GetMotionKey
EXTRN	?GetMotionVectorPointer@CRaceData@@QAEHGGPAPBV?$vector@USMotion@CRaceData@@V?$allocator@USMotion@CRaceData@@@std@@@std@@@Z:PROC ; CRaceData::GetMotionVectorPointer
EXTRN	?GetMotionDataPointer@CRaceData@@QAEHKPAPAVCRaceMotionData@@@Z:PROC ; CRaceData::GetMotionDataPointer
EXTRN	?DeactiveEffectInstance@CEffectManager@@QAEXK@Z:PROC ; CEffectManager::DeactiveEffectInstance
EXTRN	?GetType@CRaceMotionData@@QBEIXZ:PROC		; CRaceMotionData::GetType
EXTRN	?GetLoopCount@CRaceMotionData@@QBEHXZ:PROC	; CRaceMotionData::GetLoopCount
EXTRN	?IsComboInputTimeData@CRaceMotionData@@QBEHXZ:PROC ; CRaceMotionData::IsComboInputTimeData
EXTRN	?isAttackingMotion@CRaceMotionData@@QBEHXZ:PROC	; CRaceMotionData::isAttackingMotion
EXTRN	?IsCancelEnableSkill@CRaceMotionData@@QBEHXZ:PROC ; CRaceMotionData::IsCancelEnableSkill
EXTRN	?IsLoopMotion@CRaceMotionData@@QBEHXZ:PROC	; CRaceMotionData::IsLoopMotion
EXTRN	?GetLoopStartTime@CRaceMotionData@@QBEMXZ:PROC	; CRaceMotionData::GetLoopStartTime
EXTRN	?GetLoopEndTime@CRaceMotionData@@QBEMXZ:PROC	; CRaceMotionData::GetLoopEndTime
EXTRN	?GetMotionEventDataCount@CRaceMotionData@@QBEKXZ:PROC ; CRaceMotionData::GetMotionEventDataCount
EXTRN	?GetMotionEventDataPointer@CRaceMotionData@@QBEHEPAPBUSMotionEventData@NMotionEvent@@@Z:PROC ; CRaceMotionData::GetMotionEventDataPointer
EXTRN	?CheckMotionThingIndex@CGraphicThingInstance@@QAE_NK@Z:PROC ; CGraphicThingInstance::CheckMotionThingIndex
EXTRN	?GetMotionThingPointer@CGraphicThingInstance@@QAE_NKPAPAVCGraphicThing@@@Z:PROC ; CGraphicThingInstance::GetMotionThingPointer
EXTRN	?SetEndStopMotion@CGraphicThingInstance@@QAEXXZ:PROC ; CGraphicThingInstance::SetEndStopMotion
EXTRN	?__SetLocalTime@CGraphicThingInstance@@QAEXM@Z:PROC ; CGraphicThingInstance::__SetLocalTime
EXTRN	?GetLocalTime@CGraphicThingInstance@@QAEMXZ:PROC ; CGraphicThingInstance::GetLocalTime
EXTRN	?SetMotion@CGraphicThingInstance@@QAE_NKMHM@Z:PROC ; CGraphicThingInstance::SetMotion
EXTRN	?ChangeMotion@CGraphicThingInstance@@QAE_NKHM@Z:PROC ; CGraphicThingInstance::ChangeMotion
EXTRN	?IsPoly@CActorInstance@@QAE_NXZ:PROC		; CActorInstance::IsPoly
EXTRN	?isAttacking@CActorInstance@@QAEHXZ:PROC	; CActorInstance::isAttacking
EXTRN	?GetAttackingElapsedTime@CActorInstance@@QAEMXZ:PROC ; CActorInstance::GetAttackingElapsedTime
EXTRN	?IsFaint@CActorInstance@@QAEHXZ:PROC		; CActorInstance::IsFaint
EXTRN	?IsDead@CActorInstance@@QAEHXZ:PROC		; CActorInstance::IsDead
EXTRN	?MotionEventProcess@CActorInstance@@QAEXXZ:PROC	; CActorInstance::MotionEventProcess
EXTRN	?SoundEventProcess@CActorInstance@@QAEXH@Z:PROC	; CActorInstance::SoundEventProcess
EXTRN	?SetFlyTarget@CActorInstance@@QAEXABVCFlyTarget@@@Z:PROC ; CActorInstance::SetFlyTarget
EXTRN	?__ShowEvent@CActorInstance@@IAEXXZ:PROC	; CActorInstance::__ShowEvent
EXTRN	?__IsHiding@CActorInstance@@IAEHXZ:PROC		; CActorInstance::__IsHiding
EXTRN	?__IsMovingSkill@CActorInstance@@IAEHG@Z:PROC	; CActorInstance::__IsMovingSkill
EXTRN	?__ShowWeaponTrace@CActorInstance@@IAEXXZ:PROC	; CActorInstance::__ShowWeaponTrace
EXTRN	?__HideWeaponTrace@CActorInstance@@IAEXXZ:PROC	; CActorInstance::__HideWeaponTrace
EXTRN	?__OnMove@CActorInstance@@QAEXXZ:PROC		; CActorInstance::__OnMove
EXTRN	?__OnStop@CActorInstance@@QAEXXZ:PROC		; CActorInstance::__OnStop
EXTRN	@__security_check_cookie@4:PROC
EXTRN	__CxxThrowException@8:PROC
EXTRN	___CxxFrameHandler3:PROC
EXTRN	__ftol3:PROC
EXTRN	_memmove:PROC
EXTRN	_memset:PROC
EXTRN	?g_fGameFPS@@3MA:DWORD				; g_fGameFPS
EXTRN	___security_cookie:DWORD
EXTRN	__fltused:DWORD
;	COMDAT ?ms_singleton@?$CSingleton@VCEffectManager@@@@0PAVCEffectManager@@A
_BSS	SEGMENT
?ms_singleton@?$CSingleton@VCEffectManager@@@@0PAVCEffectManager@@A DD 01H DUP (?) ; CSingleton<CEffectManager>::ms_singleton
_BSS	ENDS
;	COMDAT CRT$XCU
CRT$XCU	SEGMENT
??ms_kPool$initializer$@?$CPooledObject@VCHeaderDecorator@NEffectUpdateDecorator@@@@1P6AXXZA@@3P6AXXZA DD FLAT:??__E?ms_kPool@?$CPooledObject@VCHeaderDecorator@NEffectUpdateDecorator@@@@1V?$CDynamicPoolEx@VCHeaderDecorator@NEffectUpdateDecorator@@@@A@@YAXXZ ; ??ms_kPool$initializer$@?$CPooledObject@VCHeaderDecorator@NEffectUpdateDecorator@@@@1P6AXXZA@@3P6AXXZA
CRT$XCU	ENDS
;	COMDAT __real@40400000
CONST	SEGMENT
__real@40400000 DD 040400000r			; 3
CONST	ENDS
;	COMDAT __real@3f800000
CONST	SEGMENT
__real@3f800000 DD 03f800000r			; 1
CONST	ENDS
;	COMDAT __real@00000000
CONST	SEGMENT
__real@00000000 DD 000000000r			; 0
CONST	ENDS
;	COMDAT ??_C@_0BC@KBDMBKEH@deque?$DMT?$DO?5too?5long@
CONST	SEGMENT
??_C@_0BC@KBDMBKEH@deque?$DMT?$DO?5too?5long@ DB 'deque<T> too long', 00H ; `string'
CONST	ENDS
;	COMDAT ??_C@_0BJ@DHFDPMIM@invalid?5vector?5subscript@
CONST	SEGMENT
??_C@_0BJ@DHFDPMIM@invalid?5vector?5subscript@ DB 'invalid vector subscri'
	DB	'pt', 00H					; `string'
CONST	ENDS
;	COMDAT ??_C@_0EF@EBECGAL@CActorInstance?3?3__CanNextComboA@
CONST	SEGMENT
??_C@_0EF@EBECGAL@CActorInstance?3?3__CanNextComboA@ DB 'CActorInstance::'
	DB	'__CanNextComboAttack() - m_pkCurRaceMotionData==NULL', 00H ; `string'
CONST	ENDS
;	COMDAT ??_C@_0DM@CHLCPNIC@CActorInstance?3?3__CanAttack?$CI?$CJ?5?9@
CONST	SEGMENT
??_C@_0DM@CHLCPNIC@CActorInstance?3?3__CanAttack?$CI?$CJ?5?9@ DB 'CActorI'
	DB	'nstance::__CanAttack() - m_pkCurRaceMotionData==NULL', 00H ; `string'
CONST	ENDS
;	COMDAT ??_C@_0DP@MJFILIBP@CActorInstance?3?3__GetLoopCount?$CI@
CONST	SEGMENT
??_C@_0DP@MJFILIBP@CActorInstance?3?3__GetLoopCount?$CI@ DB 'CActorInstan'
	DB	'ce::__GetLoopCount() - m_pkCurRaceMotionData==NULL', 00H ; `string'
CONST	ENDS
;	COMDAT ??_C@_0BH@MJFHAINF@Failed?5to?5bind?5motion?4@
CONST	SEGMENT
??_C@_0BH@MJFHAINF@Failed?5to?5bind?5motion?4@ DB 'Failed to bind motion.'
	DB	00H						; `string'
CONST	ENDS
;	COMDAT ??_C@_0CO@FJGPJKBE@Only?5MainActor?5can?5receive?5dama@
CONST	SEGMENT
??_C@_0CO@FJGPJKBE@Only?5MainActor?5can?5receive?5dama@ DB 'Only MainActo'
	DB	'r can receive damage when moving', 00H	; `string'
CONST	ENDS
;	COMDAT ??_C@_0DP@CBIMEEGJ@CActorInstance?3?3GetMotionDurati@
CONST	SEGMENT
??_C@_0DP@CBIMEEGJ@CActorInstance?3?3GetMotionDurati@ DB 'CActorInstance:'
	DB	':GetMotionDuration - Cannot get motion: %d / %d', 00H ; `string'
CONST	ENDS
;	COMDAT ??_C@_0JL@GEIDCHAJ@CActorInstance?3?3InterceptMotion@
CONST	SEGMENT
??_C@_0JL@GEIDCHAJ@CActorInstance?3?3InterceptMotion@ DB 'CActorInstance:'
	DB	':InterceptMotion(iLoopType=%d, wMotionMode=%d, wMotion=%d, fB'
	DB	'lendTime=%f) - GetMotionKey(m_wcurMotionMode=%d, wMotion=%d, '
	DB	'&MotionKey) ERROR', 00H			; `string'
CONST	ENDS
;	COMDAT ??_C@_0GC@LNLDMJJ@CActorInstance?3?3InterceptMotion@
CONST	SEGMENT
??_C@_0GC@LNLDMJJ@CActorInstance?3?3InterceptMotion@ DB 'CActorInstance::'
	DB	'InterceptMotion(iMotionType=%d, wMotion=%d, fBlendTime=%f) - '
	DB	'm_pkCurRaceData=NULL', 00H			; `string'
CONST	ENDS
;	COMDAT ??_C@_0IN@JKOADFII@CActorInstance?3?3SetLoopMotion?$CId@
CONST	SEGMENT
??_C@_0IN@JKOADFII@CActorInstance?3?3SetLoopMotion?$CId@ DB 'CActorInstan'
	DB	'ce::SetLoopMotion(dwMotion=%d, fBlendTime=%f, fSpeedRatio=%f)'
	DB	' - GetMotionKey(m_wcurMotionMode=%d, dwMotion=%d, &MotionKey)'
	DB	' ERROR', 00H				; `string'
CONST	ENDS
;	COMDAT ??_C@_0EK@IFOPNGGO@CActorInstance?3?3SetLoopMotion?$CId@
CONST	SEGMENT
??_C@_0EK@IFOPNGGO@CActorInstance?3?3SetLoopMotion?$CId@ DB 'CActorInstan'
	DB	'ce::SetLoopMotion(dwMotion=%d, fBlendTime=%f, fSpeedRatio=%f)'
	DB	00H						; `string'
CONST	ENDS
;	COMDAT ??_C@_0CO@FPMNJLLG@?5Error?5?9?5Not?5found?5want?5to?5usin@
CONST	SEGMENT
??_C@_0CO@FPMNJLLG@?5Error?5?9?5Not?5found?5want?5to?5usin@ DB ' Error - '
	DB	'Not found want to using motion : %d', 0aH, 00H ; `string'
CONST	ENDS
;	COMDAT ?ms_kPool@?$CPooledObject@VCRotationDecorator@NEffectUpdateDecorator@@@@1V?$CDynamicPoolEx@VCRotationDecorator@NEffectUpdateDecorator@@@@A
_DATA	SEGMENT
?ms_kPool@?$CPooledObject@VCRotationDecorator@NEffectUpdateDecorator@@@@1V?$CDynamicPoolEx@VCRotationDecorator@NEffectUpdateDecorator@@@@A DD FLAT:??_7?$CDynamicPoolEx@VCRotationDecorator@NEffectUpdateDecorator@@@@6B@ ; CPooledObject<NEffectUpdateDecorator::CRotationDecorator>::ms_kPool
	DD	00H
	DD	00H
	DD	00H
	DD	00H
	DD	00H
	DD	00H
	DD	00H
	DD	00H
_DATA	ENDS
;	COMDAT ?ms_kPool@?$CPooledObject@VCGravityDecorator@NEffectUpdateDecorator@@@@1V?$CDynamicPoolEx@VCGravityDecorator@NEffectUpdateDecorator@@@@A
_DATA	SEGMENT
?ms_kPool@?$CPooledObject@VCGravityDecorator@NEffectUpdateDecorator@@@@1V?$CDynamicPoolEx@VCGravityDecorator@NEffectUpdateDecorator@@@@A DD FLAT:??_7?$CDynamicPoolEx@VCGravityDecorator@NEffectUpdateDecorator@@@@6B@ ; CPooledObject<NEffectUpdateDecorator::CGravityDecorator>::ms_kPool
	DD	00H
	DD	00H
	DD	00H
	DD	00H
	DD	00H
	DD	00H
	DD	00H
	DD	00H
_DATA	ENDS
;	COMDAT ?ms_kPool@?$CPooledObject@VCAirResistanceDecorator@NEffectUpdateDecorator@@@@1V?$CDynamicPoolEx@VCAirResistanceDecorator@NEffectUpdateDecorator@@@@A
_DATA	SEGMENT
?ms_kPool@?$CPooledObject@VCAirResistanceDecorator@NEffectUpdateDecorator@@@@1V?$CDynamicPoolEx@VCAirResistanceDecorator@NEffectUpdateDecorator@@@@A DD FLAT:??_7?$CDynamicPoolEx@VCAirResistanceDecorator@NEffectUpdateDecorator@@@@6B@ ; CPooledObject<NEffectUpdateDecorator::CAirResistanceDecorator>::ms_kPool
	DD	00H
	DD	00H
	DD	00H
	DD	00H
	DD	00H
	DD	00H
	DD	00H
	DD	00H
_DATA	ENDS
;	COMDAT ?ms_kPool@?$CPooledObject@VCTextureAnimationRandomDecorator@NEffectUpdateDecorator@@@@1V?$CDynamicPoolEx@VCTextureAnimationRandomDecorator@NEffectUpdateDecorator@@@@A
_DATA	SEGMENT
?ms_kPool@?$CPooledObject@VCTextureAnimationRandomDecorator@NEffectUpdateDecorator@@@@1V?$CDynamicPoolEx@VCTextureAnimationRandomDecorator@NEffectUpdateDecorator@@@@A DD FLAT:??_7?$CDynamicPoolEx@VCTextureAnimationRandomDecorator@NEffectUpdateDecorator@@@@6B@ ; CPooledObject<NEffectUpdateDecorator::CTextureAnimationRandomDecorator>::ms_kPool
	DD	00H
	DD	00H
	DD	00H
	DD	00H
	DD	00H
	DD	00H
	DD	00H
	DD	00H
_DATA	ENDS
;	COMDAT ?ms_kPool@?$CPooledObject@VCTextureAnimationCCWDecorator@NEffectUpdateDecorator@@@@1V?$CDynamicPoolEx@VCTextureAnimationCCWDecorator@NEffectUpdateDecorator@@@@A
_DATA	SEGMENT
?ms_kPool@?$CPooledObject@VCTextureAnimationCCWDecorator@NEffectUpdateDecorator@@@@1V?$CDynamicPoolEx@VCTextureAnimationCCWDecorator@NEffectUpdateDecorator@@@@A DD FLAT:??_7?$CDynamicPoolEx@VCTextureAnimationCCWDecorator@NEffectUpdateDecorator@@@@6B@ ; CPooledObject<NEffectUpdateDecorator::CTextureAnimationCCWDecorator>::ms_kPool
	DD	00H
	DD	00H
	DD	00H
	DD	00H
	DD	00H
	DD	00H
	DD	00H
	DD	00H
_DATA	ENDS
;	COMDAT ?ms_kPool@?$CPooledObject@VCTextureAnimationCWDecorator@NEffectUpdateDecorator@@@@1V?$CDynamicPoolEx@VCTextureAnimationCWDecorator@NEffectUpdateDecorator@@@@A
_DATA	SEGMENT
?ms_kPool@?$CPooledObject@VCTextureAnimationCWDecorator@NEffectUpdateDecorator@@@@1V?$CDynamicPoolEx@VCTextureAnimationCWDecorator@NEffectUpdateDecorator@@@@A DD FLAT:??_7?$CDynamicPoolEx@VCTextureAnimationCWDecorator@NEffectUpdateDecorator@@@@6B@ ; CPooledObject<NEffectUpdateDecorator::CTextureAnimationCWDecorator>::ms_kPool
	DD	00H
	DD	00H
	DD	00H
	DD	00H
	DD	00H
	DD	00H
	DD	00H
	DD	00H
_DATA	ENDS
;	COMDAT ?ms_kPool@?$CPooledObject@VCNullDecorator@NEffectUpdateDecorator@@@@1V?$CDynamicPoolEx@VCNullDecorator@NEffectUpdateDecorator@@@@A
_DATA	SEGMENT
?ms_kPool@?$CPooledObject@VCNullDecorator@NEffectUpdateDecorator@@@@1V?$CDynamicPoolEx@VCNullDecorator@NEffectUpdateDecorator@@@@A DD FLAT:??_7?$CDynamicPoolEx@VCNullDecorator@NEffectUpdateDecorator@@@@6B@ ; CPooledObject<NEffectUpdateDecorator::CNullDecorator>::ms_kPool
	DD	00H
	DD	00H
	DD	00H
	DD	00H
	DD	00H
	DD	00H
	DD	00H
	DD	00H
_DATA	ENDS
;	COMDAT ?ms_kPool@?$CPooledObject@VCHeaderDecorator@NEffectUpdateDecorator@@@@1V?$CDynamicPoolEx@VCHeaderDecorator@NEffectUpdateDecorator@@@@A
_DATA	SEGMENT
?ms_kPool@?$CPooledObject@VCHeaderDecorator@NEffectUpdateDecorator@@@@1V?$CDynamicPoolEx@VCHeaderDecorator@NEffectUpdateDecorator@@@@A DD FLAT:??_7?$CDynamicPoolEx@VCHeaderDecorator@NEffectUpdateDecorator@@@@6B@ ; CPooledObject<NEffectUpdateDecorator::CHeaderDecorator>::ms_kPool
	DD	00H
	DD	00H
	DD	00H
	DD	00H
	DD	00H
	DD	00H
	DD	00H
	DD	00H
_DATA	ENDS
;	COMDAT ??_R1A@?0A@EA@bad_array_new_length@std@@8
rdata$r	SEGMENT
??_R1A@?0A@EA@bad_array_new_length@std@@8 DD FLAT:??_R0?AVbad_array_new_length@std@@@8 ; std::bad_array_new_length::`RTTI Base Class Descriptor at (0,-1,0,64)'
	DD	02H
	DD	00H
	DD	0ffffffffH
	DD	00H
	DD	040H
	DD	FLAT:??_R3bad_array_new_length@std@@8
rdata$r	ENDS
;	COMDAT ??_R2bad_array_new_length@std@@8
rdata$r	SEGMENT
??_R2bad_array_new_length@std@@8 DD FLAT:??_R1A@?0A@EA@bad_array_new_length@std@@8 ; std::bad_array_new_length::`RTTI Base Class Array'
	DD	FLAT:??_R1A@?0A@EA@bad_alloc@std@@8
	DD	FLAT:??_R1A@?0A@EA@exception@std@@8
rdata$r	ENDS
;	COMDAT ??_R3bad_array_new_length@std@@8
rdata$r	SEGMENT
??_R3bad_array_new_length@std@@8 DD 00H			; std::bad_array_new_length::`RTTI Class Hierarchy Descriptor'
	DD	00H
	DD	03H
	DD	FLAT:??_R2bad_array_new_length@std@@8
rdata$r	ENDS
;	COMDAT ??_R4bad_array_new_length@std@@6B@
rdata$r	SEGMENT
??_R4bad_array_new_length@std@@6B@ DD 00H		; std::bad_array_new_length::`RTTI Complete Object Locator'
	DD	00H
	DD	00H
	DD	FLAT:??_R0?AVbad_array_new_length@std@@@8
	DD	FLAT:??_R3bad_array_new_length@std@@8
rdata$r	ENDS
;	COMDAT ??_R1A@?0A@EA@bad_alloc@std@@8
rdata$r	SEGMENT
??_R1A@?0A@EA@bad_alloc@std@@8 DD FLAT:??_R0?AVbad_alloc@std@@@8 ; std::bad_alloc::`RTTI Base Class Descriptor at (0,-1,0,64)'
	DD	01H
	DD	00H
	DD	0ffffffffH
	DD	00H
	DD	040H
	DD	FLAT:??_R3bad_alloc@std@@8
rdata$r	ENDS
;	COMDAT ??_R2bad_alloc@std@@8
rdata$r	SEGMENT
??_R2bad_alloc@std@@8 DD FLAT:??_R1A@?0A@EA@bad_alloc@std@@8 ; std::bad_alloc::`RTTI Base Class Array'
	DD	FLAT:??_R1A@?0A@EA@exception@std@@8
rdata$r	ENDS
;	COMDAT ??_R3bad_alloc@std@@8
rdata$r	SEGMENT
??_R3bad_alloc@std@@8 DD 00H				; std::bad_alloc::`RTTI Class Hierarchy Descriptor'
	DD	00H
	DD	02H
	DD	FLAT:??_R2bad_alloc@std@@8
rdata$r	ENDS
;	COMDAT ??_R4bad_alloc@std@@6B@
rdata$r	SEGMENT
??_R4bad_alloc@std@@6B@ DD 00H				; std::bad_alloc::`RTTI Complete Object Locator'
	DD	00H
	DD	00H
	DD	FLAT:??_R0?AVbad_alloc@std@@@8
	DD	FLAT:??_R3bad_alloc@std@@8
rdata$r	ENDS
;	COMDAT ??_R1A@?0A@EA@exception@std@@8
rdata$r	SEGMENT
??_R1A@?0A@EA@exception@std@@8 DD FLAT:??_R0?AVexception@std@@@8 ; std::exception::`RTTI Base Class Descriptor at (0,-1,0,64)'
	DD	00H
	DD	00H
	DD	0ffffffffH
	DD	00H
	DD	040H
	DD	FLAT:??_R3exception@std@@8
rdata$r	ENDS
;	COMDAT ??_R2exception@std@@8
rdata$r	SEGMENT
??_R2exception@std@@8 DD FLAT:??_R1A@?0A@EA@exception@std@@8 ; std::exception::`RTTI Base Class Array'
rdata$r	ENDS
;	COMDAT ??_R3exception@std@@8
rdata$r	SEGMENT
??_R3exception@std@@8 DD 00H				; std::exception::`RTTI Class Hierarchy Descriptor'
	DD	00H
	DD	01H
	DD	FLAT:??_R2exception@std@@8
rdata$r	ENDS
;	COMDAT ??_R4exception@std@@6B@
rdata$r	SEGMENT
??_R4exception@std@@6B@ DD 00H				; std::exception::`RTTI Complete Object Locator'
	DD	00H
	DD	00H
	DD	FLAT:??_R0?AVexception@std@@@8
	DD	FLAT:??_R3exception@std@@8
rdata$r	ENDS
;	COMDAT __CT??_R0?AVexception@std@@@8??0exception@std@@QAE@ABV01@@Z12
xdata$x	SEGMENT
__CT??_R0?AVexception@std@@@8??0exception@std@@QAE@ABV01@@Z12 DD 00H
	DD	FLAT:??_R0?AVexception@std@@@8
	DD	00H
	DD	0ffffffffH
	ORG $+4
	DD	0cH
	DD	FLAT:??0exception@std@@QAE@ABV01@@Z
xdata$x	ENDS
;	COMDAT ??_R0?AVexception@std@@@8
data$r	SEGMENT
??_R0?AVexception@std@@@8 DD FLAT:??_7type_info@@6B@	; std::exception `RTTI Type Descriptor'
	DD	00H
	DB	'.?AVexception@std@@', 00H
data$r	ENDS
;	COMDAT __CT??_R0?AVbad_alloc@std@@@8??0bad_alloc@std@@QAE@ABV01@@Z12
xdata$x	SEGMENT
__CT??_R0?AVbad_alloc@std@@@8??0bad_alloc@std@@QAE@ABV01@@Z12 DD 010H
	DD	FLAT:??_R0?AVbad_alloc@std@@@8
	DD	00H
	DD	0ffffffffH
	ORG $+4
	DD	0cH
	DD	FLAT:??0bad_alloc@std@@QAE@ABV01@@Z
xdata$x	ENDS
;	COMDAT ??_R0?AVbad_alloc@std@@@8
data$r	SEGMENT
??_R0?AVbad_alloc@std@@@8 DD FLAT:??_7type_info@@6B@	; std::bad_alloc `RTTI Type Descriptor'
	DD	00H
	DB	'.?AVbad_alloc@std@@', 00H
data$r	ENDS
;	COMDAT __CT??_R0?AVbad_array_new_length@std@@@8??0bad_array_new_length@std@@QAE@ABV01@@Z12
xdata$x	SEGMENT
__CT??_R0?AVbad_array_new_length@std@@@8??0bad_array_new_length@std@@QAE@ABV01@@Z12 DD 00H
	DD	FLAT:??_R0?AVbad_array_new_length@std@@@8
	DD	00H
	DD	0ffffffffH
	ORG $+4
	DD	0cH
	DD	FLAT:??0bad_array_new_length@std@@QAE@ABV01@@Z
xdata$x	ENDS
;	COMDAT ??_R0?AVbad_array_new_length@std@@@8
data$r	SEGMENT
??_R0?AVbad_array_new_length@std@@@8 DD FLAT:??_7type_info@@6B@ ; std::bad_array_new_length `RTTI Type Descriptor'
	DD	00H
	DB	'.?AVbad_array_new_length@std@@', 00H
data$r	ENDS
;	COMDAT __CTA3?AVbad_array_new_length@std@@
xdata$x	SEGMENT
__CTA3?AVbad_array_new_length@std@@ DD 03H
	DD	FLAT:__CT??_R0?AVbad_array_new_length@std@@@8??0bad_array_new_length@std@@QAE@ABV01@@Z12
	DD	FLAT:__CT??_R0?AVbad_alloc@std@@@8??0bad_alloc@std@@QAE@ABV01@@Z12
	DD	FLAT:__CT??_R0?AVexception@std@@@8??0exception@std@@QAE@ABV01@@Z12
xdata$x	ENDS
;	COMDAT __TI3?AVbad_array_new_length@std@@
xdata$x	SEGMENT
__TI3?AVbad_array_new_length@std@@ DD 00H
	DD	FLAT:??1bad_array_new_length@std@@UAE@XZ
	DD	00H
	DD	FLAT:__CTA3?AVbad_array_new_length@std@@
xdata$x	ENDS
;	COMDAT ??_C@_0BF@KINCDENJ@bad?5array?5new?5length@
CONST	SEGMENT
??_C@_0BF@KINCDENJ@bad?5array?5new?5length@ DB 'bad array new length', 00H ; `string'
CONST	ENDS
;	COMDAT ??_7bad_array_new_length@std@@6B@
CONST	SEGMENT
??_7bad_array_new_length@std@@6B@ DD FLAT:??_R4bad_array_new_length@std@@6B@ ; std::bad_array_new_length::`vftable'
	DD	FLAT:??_Ebad_array_new_length@std@@UAEPAXI@Z
	DD	FLAT:?what@exception@std@@UBEPBDXZ
CONST	ENDS
;	COMDAT ??_7bad_alloc@std@@6B@
CONST	SEGMENT
??_7bad_alloc@std@@6B@ DD FLAT:??_R4bad_alloc@std@@6B@	; std::bad_alloc::`vftable'
	DD	FLAT:??_Ebad_alloc@std@@UAEPAXI@Z
	DD	FLAT:?what@exception@std@@UBEPBDXZ
CONST	ENDS
;	COMDAT ??_C@_0BC@EOODALEL@Unknown?5exception@
CONST	SEGMENT
??_C@_0BC@EOODALEL@Unknown?5exception@ DB 'Unknown exception', 00H ; `string'
CONST	ENDS
;	COMDAT ??_7exception@std@@6B@
CONST	SEGMENT
??_7exception@std@@6B@ DD FLAT:??_R4exception@std@@6B@	; std::exception::`vftable'
	DD	FLAT:??_Eexception@std@@UAEPAXI@Z
	DD	FLAT:?what@exception@std@@UBEPBDXZ
CONST	ENDS
;	COMDAT xdata$x
xdata$x	SEGMENT
__ehfuncinfo$??1?$CDynamicPoolEx@VCHeaderDecorator@NEffectUpdateDecorator@@@@UAE@XZ DD 019930522H
	DD	00H
	DD	00H
	DD	2 DUP(00H)
	DD	2 DUP(00H)
	DD	00H
	DD	05H
xdata$x	ENDS
;	COMDAT xdata$x
xdata$x	SEGMENT
__ehfuncinfo$??1?$CDynamicPoolEx@VCNullDecorator@NEffectUpdateDecorator@@@@UAE@XZ DD 019930522H
	DD	00H
	DD	00H
	DD	2 DUP(00H)
	DD	2 DUP(00H)
	DD	00H
	DD	05H
xdata$x	ENDS
;	COMDAT xdata$x
xdata$x	SEGMENT
__ehfuncinfo$??1?$CDynamicPoolEx@VCTextureAnimationCWDecorator@NEffectUpdateDecorator@@@@UAE@XZ DD 019930522H
	DD	00H
	DD	00H
	DD	2 DUP(00H)
	DD	2 DUP(00H)
	DD	00H
	DD	05H
xdata$x	ENDS
;	COMDAT xdata$x
xdata$x	SEGMENT
__ehfuncinfo$??1?$CDynamicPoolEx@VCTextureAnimationCCWDecorator@NEffectUpdateDecorator@@@@UAE@XZ DD 019930522H
	DD	00H
	DD	00H
	DD	2 DUP(00H)
	DD	2 DUP(00H)
	DD	00H
	DD	05H
xdata$x	ENDS
;	COMDAT xdata$x
xdata$x	SEGMENT
__ehfuncinfo$??1?$CDynamicPoolEx@VCTextureAnimationRandomDecorator@NEffectUpdateDecorator@@@@UAE@XZ DD 019930522H
	DD	00H
	DD	00H
	DD	2 DUP(00H)
	DD	2 DUP(00H)
	DD	00H
	DD	05H
xdata$x	ENDS
;	COMDAT xdata$x
xdata$x	SEGMENT
__ehfuncinfo$??1?$CDynamicPoolEx@VCAirResistanceDecorator@NEffectUpdateDecorator@@@@UAE@XZ DD 019930522H
	DD	00H
	DD	00H
	DD	2 DUP(00H)
	DD	2 DUP(00H)
	DD	00H
	DD	05H
xdata$x	ENDS
;	COMDAT xdata$x
xdata$x	SEGMENT
__ehfuncinfo$??1?$CDynamicPoolEx@VCGravityDecorator@NEffectUpdateDecorator@@@@UAE@XZ DD 019930522H
	DD	00H
	DD	00H
	DD	2 DUP(00H)
	DD	2 DUP(00H)
	DD	00H
	DD	05H
xdata$x	ENDS
;	COMDAT xdata$x
xdata$x	SEGMENT
__ehfuncinfo$??1?$CDynamicPoolEx@VCRotationDecorator@NEffectUpdateDecorator@@@@UAE@XZ DD 019930522H
	DD	00H
	DD	00H
	DD	2 DUP(00H)
	DD	2 DUP(00H)
	DD	00H
	DD	05H
xdata$x	ENDS
;	COMDAT CRT$XCU
CRT$XCU	SEGMENT
??ms_kPool$initializer$@?$CPooledObject@VCNullDecorator@NEffectUpdateDecorator@@@@1P6AXXZA@@3P6AXXZA DD FLAT:??__E?ms_kPool@?$CPooledObject@VCNullDecorator@NEffectUpdateDecorator@@@@1V?$CDynamicPoolEx@VCNullDecorator@NEffectUpdateDecorator@@@@A@@YAXXZ ; ??ms_kPool$initializer$@?$CPooledObject@VCNullDecorator@NEffectUpdateDecorator@@@@1P6AXXZA@@3P6AXXZA
CRT$XCU	ENDS
;	COMDAT CRT$XCU
CRT$XCU	SEGMENT
??ms_kPool$initializer$@?$CPooledObject@VCTextureAnimationCWDecorator@NEffectUpdateDecorator@@@@1P6AXXZA@@3P6AXXZA DD FLAT:??__E?ms_kPool@?$CPooledObject@VCTextureAnimationCWDecorator@NEffectUpdateDecorator@@@@1V?$CDynamicPoolEx@VCTextureAnimationCWDecorator@NEffectUpdateDecorator@@@@A@@YAXXZ ; ??ms_kPool$initializer$@?$CPooledObject@VCTextureAnimationCWDecorator@NEffectUpdateDecorator@@@@1P6AXXZA@@3P6AXXZA
CRT$XCU	ENDS
;	COMDAT CRT$XCU
CRT$XCU	SEGMENT
??ms_kPool$initializer$@?$CPooledObject@VCTextureAnimationCCWDecorator@NEffectUpdateDecorator@@@@1P6AXXZA@@3P6AXXZA DD FLAT:??__E?ms_kPool@?$CPooledObject@VCTextureAnimationCCWDecorator@NEffectUpdateDecorator@@@@1V?$CDynamicPoolEx@VCTextureAnimationCCWDecorator@NEffectUpdateDecorator@@@@A@@YAXXZ ; ??ms_kPool$initializer$@?$CPooledObject@VCTextureAnimationCCWDecorator@NEffectUpdateDecorator@@@@1P6AXXZA@@3P6AXXZA
CRT$XCU	ENDS
;	COMDAT CRT$XCU
CRT$XCU	SEGMENT
??ms_kPool$initializer$@?$CPooledObject@VCTextureAnimationRandomDecorator@NEffectUpdateDecorator@@@@1P6AXXZA@@3P6AXXZA DD FLAT:??__E?ms_kPool@?$CPooledObject@VCTextureAnimationRandomDecorator@NEffectUpdateDecorator@@@@1V?$CDynamicPoolEx@VCTextureAnimationRandomDecorator@NEffectUpdateDecorator@@@@A@@YAXXZ ; ??ms_kPool$initializer$@?$CPooledObject@VCTextureAnimationRandomDecorator@NEffectUpdateDecorator@@@@1P6AXXZA@@3P6AXXZA
CRT$XCU	ENDS
;	COMDAT CRT$XCU
CRT$XCU	SEGMENT
??ms_kPool$initializer$@?$CPooledObject@VCAirResistanceDecorator@NEffectUpdateDecorator@@@@1P6AXXZA@@3P6AXXZA DD FLAT:??__E?ms_kPool@?$CPooledObject@VCAirResistanceDecorator@NEffectUpdateDecorator@@@@1V?$CDynamicPoolEx@VCAirResistanceDecorator@NEffectUpdateDecorator@@@@A@@YAXXZ ; ??ms_kPool$initializer$@?$CPooledObject@VCAirResistanceDecorator@NEffectUpdateDecorator@@@@1P6AXXZA@@3P6AXXZA
CRT$XCU	ENDS
;	COMDAT CRT$XCU
CRT$XCU	SEGMENT
??ms_kPool$initializer$@?$CPooledObject@VCGravityDecorator@NEffectUpdateDecorator@@@@1P6AXXZA@@3P6AXXZA DD FLAT:??__E?ms_kPool@?$CPooledObject@VCGravityDecorator@NEffectUpdateDecorator@@@@1V?$CDynamicPoolEx@VCGravityDecorator@NEffectUpdateDecorator@@@@A@@YAXXZ ; ??ms_kPool$initializer$@?$CPooledObject@VCGravityDecorator@NEffectUpdateDecorator@@@@1P6AXXZA@@3P6AXXZA
CRT$XCU	ENDS
;	COMDAT CRT$XCU
CRT$XCU	SEGMENT
??ms_kPool$initializer$@?$CPooledObject@VCRotationDecorator@NEffectUpdateDecorator@@@@1P6AXXZA@@3P6AXXZA DD FLAT:??__E?ms_kPool@?$CPooledObject@VCRotationDecorator@NEffectUpdateDecorator@@@@1V?$CDynamicPoolEx@VCRotationDecorator@NEffectUpdateDecorator@@@@A@@YAXXZ ; ??ms_kPool$initializer$@?$CPooledObject@VCRotationDecorator@NEffectUpdateDecorator@@@@1P6AXXZA@@3P6AXXZA
CRT$XCU	ENDS
; Function compile flags: /Ogtp
; File C:\Program Files\Microsoft Visual Studio\2022\Community\VC\Tools\MSVC\14.34.31933\include\xtree
; File C:\Program Files\Microsoft Visual Studio\2022\Community\VC\Tools\MSVC\14.34.31933\include\utility
; File C:\Program Files\Microsoft Visual Studio\2022\Community\VC\Tools\MSVC\14.34.31933\include\xmemory
; File C:\Program Files\Microsoft Visual Studio\2022\Community\VC\Tools\MSVC\14.34.31933\include\xtree
;	COMDAT ??$_Erase_tree@V?$allocator@U?$_Tree_node@U?$pair@QAVCActorInstance@@M@std@@PAX@std@@@std@@@?$_Tree_val@U?$_Tree_simple_types@U?$pair@QAVCActorInstance@@M@std@@@std@@@std@@QAEXAAV?$allocator@U?$_Tree_node@U?$pair@QAVCActorInstance@@M@std@@PAX@std@@@1@PAU?$_Tree_node@U?$pair@QAVCActorInstance@@M@std@@PAX@1@@Z
_TEXT	SEGMENT
__Al$ = 8						; size = 4
__Rootnode$ = 12					; size = 4
??$_Erase_tree@V?$allocator@U?$_Tree_node@U?$pair@QAVCActorInstance@@M@std@@PAX@std@@@std@@@?$_Tree_val@U?$_Tree_simple_types@U?$pair@QAVCActorInstance@@M@std@@@std@@@std@@QAEXAAV?$allocator@U?$_Tree_node@U?$pair@QAVCActorInstance@@M@std@@PAX@std@@@1@PAU?$_Tree_node@U?$pair@QAVCActorInstance@@M@std@@PAX@1@@Z PROC ; std::_Tree_val<std::_Tree_simple_types<std::pair<CActorInstance * const,float> > >::_Erase_tree<std::allocator<std::_Tree_node<std::pair<CActorInstance * const,float>,void *> > >, COMDAT
; _this$ = ecx

; 744  :     void _Erase_tree(_Alnode& _Al, _Nodeptr _Rootnode) noexcept {

  00000	55		 push	 ebp
  00001	8b ec		 mov	 ebp, esp
  00003	53		 push	 ebx
  00004	56		 push	 esi

; 745  :         while (!_Rootnode->_Isnil) { // free subtrees, then node

  00005	8b 75 0c	 mov	 esi, DWORD PTR __Rootnode$[ebp]
  00008	8b d9		 mov	 ebx, ecx
  0000a	80 7e 0d 00	 cmp	 BYTE PTR [esi+13], 0
  0000e	75 25		 jne	 SHORT $LN3@Erase_tree
  00010	57		 push	 edi
  00011	8b 7d 08	 mov	 edi, DWORD PTR __Al$[ebp]
$LL2@Erase_tree:

; 746  :             _Erase_tree(_Al, _Rootnode->_Right);

  00014	ff 76 08	 push	 DWORD PTR [esi+8]
  00017	8b cb		 mov	 ecx, ebx
  00019	57		 push	 edi
  0001a	e8 00 00 00 00	 call	 ??$_Erase_tree@V?$allocator@U?$_Tree_node@U?$pair@QAVCActorInstance@@M@std@@PAX@std@@@std@@@?$_Tree_val@U?$_Tree_simple_types@U?$pair@QAVCActorInstance@@M@std@@@std@@@std@@QAEXAAV?$allocator@U?$_Tree_node@U?$pair@QAVCActorInstance@@M@std@@PAX@std@@@1@PAU?$_Tree_node@U?$pair@QAVCActorInstance@@M@std@@PAX@1@@Z ; std::_Tree_val<std::_Tree_simple_types<std::pair<CActorInstance * const,float> > >::_Erase_tree<std::allocator<std::_Tree_node<std::pair<CActorInstance * const,float>,void *> > >
; File C:\Program Files\Microsoft Visual Studio\2022\Community\VC\Tools\MSVC\14.34.31933\include\utility

; 653  :     _Ty _Old_val = static_cast<_Ty&&>(_Val);

  0001f	8b c6		 mov	 eax, esi

; 654  :     _Val         = static_cast<_Other&&>(_New_val);

  00021	8b 36		 mov	 esi, DWORD PTR [esi]
; File C:\Program Files\Microsoft Visual Studio\2022\Community\VC\Tools\MSVC\14.34.31933\include\xmemory

; 255  :         ::operator delete(_Ptr, _Bytes);

  00023	6a 18		 push	 24			; 00000018H
  00025	50		 push	 eax
  00026	e8 00 00 00 00	 call	 ??3@YAXPAXI@Z		; operator delete
  0002b	83 c4 08	 add	 esp, 8
; File C:\Program Files\Microsoft Visual Studio\2022\Community\VC\Tools\MSVC\14.34.31933\include\xtree

; 745  :         while (!_Rootnode->_Isnil) { // free subtrees, then node

  0002e	80 7e 0d 00	 cmp	 BYTE PTR [esi+13], 0
  00032	74 e0		 je	 SHORT $LL2@Erase_tree
  00034	5f		 pop	 edi
$LN3@Erase_tree:
  00035	5e		 pop	 esi

; 747  :             _Alnode::value_type::_Freenode(_Al, _STD exchange(_Rootnode, _Rootnode->_Left));
; 748  :         }
; 749  :     }

  00036	5b		 pop	 ebx
  00037	5d		 pop	 ebp
  00038	c2 08 00	 ret	 8
??$_Erase_tree@V?$allocator@U?$_Tree_node@U?$pair@QAVCActorInstance@@M@std@@PAX@std@@@std@@@?$_Tree_val@U?$_Tree_simple_types@U?$pair@QAVCActorInstance@@M@std@@@std@@@std@@QAEXAAV?$allocator@U?$_Tree_node@U?$pair@QAVCActorInstance@@M@std@@PAX@std@@@1@PAU?$_Tree_node@U?$pair@QAVCActorInstance@@M@std@@PAX@1@@Z ENDP ; std::_Tree_val<std::_Tree_simple_types<std::pair<CActorInstance * const,float> > >::_Erase_tree<std::allocator<std::_Tree_node<std::pair<CActorInstance * const,float>,void *> > >
_TEXT	ENDS
; Function compile flags: /Ogtp
; File C:\Program Files\Microsoft Visual Studio\2022\Community\VC\Tools\MSVC\14.34.31933\include\xutility
;	COMDAT ??$_Copy_memmove@PAPAUSReservingMotionNode@CActorInstance@@PAPAU12@@std@@YAPAPAUSReservingMotionNode@CActorInstance@@PAPAU12@00@Z
_TEXT	SEGMENT
__First$ = 8						; size = 4
__Last$ = 12						; size = 4
__Dest$ = 16						; size = 4
??$_Copy_memmove@PAPAUSReservingMotionNode@CActorInstance@@PAPAU12@@std@@YAPAPAUSReservingMotionNode@CActorInstance@@PAPAU12@00@Z PROC ; std::_Copy_memmove<CActorInstance::SReservingMotionNode * *,CActorInstance::SReservingMotionNode * *>, COMDAT

; 3833 : _OutCtgIt _Copy_memmove(_CtgIt _First, _CtgIt _Last, _OutCtgIt _Dest) {

  00000	55		 push	 ebp
  00001	8b ec		 mov	 ebp, esp

; 3834 :     auto _FirstPtr              = _To_address(_First);
; 3835 :     auto _LastPtr               = _To_address(_Last);
; 3836 :     auto _DestPtr               = _To_address(_Dest);
; 3837 :     const char* const _First_ch = const_cast<const char*>(reinterpret_cast<const volatile char*>(_FirstPtr));
; 3838 :     const char* const _Last_ch  = const_cast<const char*>(reinterpret_cast<const volatile char*>(_LastPtr));
; 3839 :     char* const _Dest_ch        = const_cast<char*>(reinterpret_cast<const volatile char*>(_DestPtr));
; 3840 :     const auto _Count           = static_cast<size_t>(_Last_ch - _First_ch);

  00003	8b 45 08	 mov	 eax, DWORD PTR __First$[ebp]
  00006	56		 push	 esi

; 3841 :     _CSTD memmove(_Dest_ch, _First_ch, _Count);

  00007	8b 75 10	 mov	 esi, DWORD PTR __Dest$[ebp]
  0000a	57		 push	 edi
  0000b	8b 7d 0c	 mov	 edi, DWORD PTR __Last$[ebp]
  0000e	2b f8		 sub	 edi, eax
  00010	57		 push	 edi
  00011	50		 push	 eax
  00012	56		 push	 esi
  00013	e8 00 00 00 00	 call	 _memmove
  00018	83 c4 0c	 add	 esp, 12			; 0000000cH

; 3842 :     if constexpr (is_pointer_v<_OutCtgIt>) {
; 3843 :         return reinterpret_cast<_OutCtgIt>(_Dest_ch + _Count);

  0001b	8d 04 37	 lea	 eax, DWORD PTR [edi+esi]
  0001e	5f		 pop	 edi
  0001f	5e		 pop	 esi

; 3844 :     } else {
; 3845 :         return _Dest + (_LastPtr - _FirstPtr);
; 3846 :     }
; 3847 : }

  00020	5d		 pop	 ebp
  00021	c3		 ret	 0
??$_Copy_memmove@PAPAUSReservingMotionNode@CActorInstance@@PAPAU12@@std@@YAPAPAUSReservingMotionNode@CActorInstance@@PAPAU12@00@Z ENDP ; std::_Copy_memmove<CActorInstance::SReservingMotionNode * *,CActorInstance::SReservingMotionNode * *>
_TEXT	ENDS
; Function compile flags: /Ogtp
; File C:\Program Files\Microsoft Visual Studio\2022\Community\VC\Tools\MSVC\14.34.31933\include\xmemory
;	COMDAT ??$_Zero_range@PAPAUSReservingMotionNode@CActorInstance@@@std@@YAPAPAUSReservingMotionNode@CActorInstance@@QAPAU12@0@Z
_TEXT	SEGMENT
__First$ = 8						; size = 4
__Last$ = 12						; size = 4
??$_Zero_range@PAPAUSReservingMotionNode@CActorInstance@@@std@@YAPAPAUSReservingMotionNode@CActorInstance@@QAPAU12@0@Z PROC ; std::_Zero_range<CActorInstance::SReservingMotionNode * *>, COMDAT

; 1878 : _Ptr _Zero_range(const _Ptr _First, const _Ptr _Last) { // fill [_First, _Last) with zeroes

  00000	55		 push	 ebp
  00001	8b ec		 mov	 ebp, esp

; 1879 :     char* const _First_ch = reinterpret_cast<char*>(_To_address(_First));
; 1880 :     char* const _Last_ch  = reinterpret_cast<char*>(_To_address(_Last));
; 1881 :     _CSTD memset(_First_ch, 0, static_cast<size_t>(_Last_ch - _First_ch));

  00003	8b 55 08	 mov	 edx, DWORD PTR __First$[ebp]
  00006	8b 4d 0c	 mov	 ecx, DWORD PTR __Last$[ebp]
  00009	2b ca		 sub	 ecx, edx
  0000b	51		 push	 ecx
  0000c	6a 00		 push	 0
  0000e	52		 push	 edx
  0000f	e8 00 00 00 00	 call	 _memset

; 1882 :     return _Last;

  00014	8b 45 0c	 mov	 eax, DWORD PTR __Last$[ebp]
  00017	83 c4 0c	 add	 esp, 12			; 0000000cH

; 1883 : }

  0001a	5d		 pop	 ebp
  0001b	c3		 ret	 0
??$_Zero_range@PAPAUSReservingMotionNode@CActorInstance@@@std@@YAPAPAUSReservingMotionNode@CActorInstance@@QAPAU12@0@Z ENDP ; std::_Zero_range<CActorInstance::SReservingMotionNode * *>
_TEXT	ENDS
; Function compile flags: /Ogtp
; File C:\Program Files\Microsoft Visual Studio\2022\Community\VC\Tools\MSVC\14.34.31933\include\xmemory
;	COMDAT ??$_Uninitialized_value_construct_n_unchecked1@PAPAUSReservingMotionNode@CActorInstance@@I@std@@YAPAPAUSReservingMotionNode@CActorInstance@@PAPAU12@I@Z
_TEXT	SEGMENT
__UFirst$ = 8						; size = 4
__Count$ = 12						; size = 4
??$_Uninitialized_value_construct_n_unchecked1@PAPAUSReservingMotionNode@CActorInstance@@I@std@@YAPAPAUSReservingMotionNode@CActorInstance@@PAPAU12@I@Z PROC ; std::_Uninitialized_value_construct_n_unchecked1<CActorInstance::SReservingMotionNode * *,unsigned int>, COMDAT

; 1910 : _NoThrowFwdIt _Uninitialized_value_construct_n_unchecked1(_NoThrowFwdIt _UFirst, _Diff _Count) {

  00000	55		 push	 ebp
  00001	8b ec		 mov	 ebp, esp

; 1911 :     // value-initialize all elements in [_UFirst, _UFirst + _Count_raw)
; 1912 :     _STL_INTERNAL_CHECK(_Count >= 0);
; 1913 :     if constexpr (_Use_memset_value_construct_v<_NoThrowFwdIt>) {
; 1914 :         return _Zero_range(_UFirst, _UFirst + _Count);

  00003	8b 4d 08	 mov	 ecx, DWORD PTR __UFirst$[ebp]
  00006	8b 45 0c	 mov	 eax, DWORD PTR __Count$[ebp]
  00009	8d 04 81	 lea	 eax, DWORD PTR [ecx+eax*4]
  0000c	89 45 0c	 mov	 DWORD PTR __Count$[ebp], eax
  0000f	89 4d 08	 mov	 DWORD PTR __UFirst$[ebp], ecx

; 1915 :     } else {
; 1916 :         _Uninitialized_backout<_NoThrowFwdIt> _Backout{_UFirst};
; 1917 :         for (; 0 < _Count; --_Count) {
; 1918 :             _Backout._Emplace_back();
; 1919 :         }
; 1920 : 
; 1921 :         return _Backout._Release();
; 1922 :     }
; 1923 : }

  00012	5d		 pop	 ebp

; 1911 :     // value-initialize all elements in [_UFirst, _UFirst + _Count_raw)
; 1912 :     _STL_INTERNAL_CHECK(_Count >= 0);
; 1913 :     if constexpr (_Use_memset_value_construct_v<_NoThrowFwdIt>) {
; 1914 :         return _Zero_range(_UFirst, _UFirst + _Count);

  00013	e9 00 00 00 00	 jmp	 ??$_Zero_range@PAPAUSReservingMotionNode@CActorInstance@@@std@@YAPAPAUSReservingMotionNode@CActorInstance@@QAPAU12@0@Z ; std::_Zero_range<CActorInstance::SReservingMotionNode * *>
??$_Uninitialized_value_construct_n_unchecked1@PAPAUSReservingMotionNode@CActorInstance@@I@std@@YAPAPAUSReservingMotionNode@CActorInstance@@PAPAU12@I@Z ENDP ; std::_Uninitialized_value_construct_n_unchecked1<CActorInstance::SReservingMotionNode * *,unsigned int>
_TEXT	ENDS
; Function compile flags: /Ogtp
; File C:\Program Files\Microsoft Visual Studio\2022\Community\VC\Tools\MSVC\14.34.31933\include\xmemory
;	COMDAT ??$uninitialized_copy@PAPAUSReservingMotionNode@CActorInstance@@PAPAU12@@std@@YAPAPAUSReservingMotionNode@CActorInstance@@QAPAU12@0PAPAU12@@Z
_TEXT	SEGMENT
__First$ = 8						; size = 4
__Last$ = 12						; size = 4
__Dest$ = 16						; size = 4
??$uninitialized_copy@PAPAUSReservingMotionNode@CActorInstance@@PAPAU12@@std@@YAPAPAUSReservingMotionNode@CActorInstance@@QAPAU12@0PAPAU12@@Z PROC ; std::uninitialized_copy<CActorInstance::SReservingMotionNode * *,CActorInstance::SReservingMotionNode * *>, COMDAT

; 1776 : _NoThrowFwdIt uninitialized_copy(const _InIt _First, const _InIt _Last, _NoThrowFwdIt _Dest) {

  00000	55		 push	 ebp
  00001	8b ec		 mov	 ebp, esp

; 1777 :     // copy [_First, _Last) to raw [_Dest, ...)
; 1778 :     _Adl_verify_range(_First, _Last);
; 1779 :     auto _UFirst      = _Get_unwrapped(_First);
; 1780 :     const auto _ULast = _Get_unwrapped(_Last);
; 1781 :     auto _UDest       = _Get_unwrapped_n(_Dest, _Idl_distance<_InIt>(_UFirst, _ULast));
; 1782 :     _Seek_wrapped(_Dest, _Uninitialized_copy_unchecked(_UFirst, _ULast, _UDest));
; 1783 :     return _Dest;
; 1784 : }

  00003	5d		 pop	 ebp

; 1763 :             return _Copy_memmove(_First, _Last, _Dest);

  00004	e9 00 00 00 00	 jmp	 ??$_Copy_memmove@PAPAUSReservingMotionNode@CActorInstance@@PAPAU12@@std@@YAPAPAUSReservingMotionNode@CActorInstance@@PAPAU12@00@Z ; std::_Copy_memmove<CActorInstance::SReservingMotionNode * *,CActorInstance::SReservingMotionNode * *>
??$uninitialized_copy@PAPAUSReservingMotionNode@CActorInstance@@PAPAU12@@std@@YAPAPAUSReservingMotionNode@CActorInstance@@QAPAU12@0PAPAU12@@Z ENDP ; std::uninitialized_copy<CActorInstance::SReservingMotionNode * *,CActorInstance::SReservingMotionNode * *>
_TEXT	ENDS
; Function compile flags: /Ogtp
;	COMDAT ??__F?ms_kPool@?$CPooledObject@VCRotationDecorator@NEffectUpdateDecorator@@@@1V?$CDynamicPoolEx@VCRotationDecorator@NEffectUpdateDecorator@@@@A@@YAXXZ
text$yd	SEGMENT
??__F?ms_kPool@?$CPooledObject@VCRotationDecorator@NEffectUpdateDecorator@@@@1V?$CDynamicPoolEx@VCRotationDecorator@NEffectUpdateDecorator@@@@A@@YAXXZ PROC ; `dynamic atexit destructor for 'CPooledObject<NEffectUpdateDecorator::CRotationDecorator>::ms_kPool'', COMDAT
  00000	b9 00 00 00 00	 mov	 ecx, OFFSET ?ms_kPool@?$CPooledObject@VCRotationDecorator@NEffectUpdateDecorator@@@@1V?$CDynamicPoolEx@VCRotationDecorator@NEffectUpdateDecorator@@@@A ; CPooledObject<NEffectUpdateDecorator::CRotationDecorator>::ms_kPool
  00005	e9 00 00 00 00	 jmp	 ??1?$CDynamicPoolEx@VCRotationDecorator@NEffectUpdateDecorator@@@@UAE@XZ ; CDynamicPoolEx<NEffectUpdateDecorator::CRotationDecorator>::~CDynamicPoolEx<NEffectUpdateDecorator::CRotationDecorator>
??__F?ms_kPool@?$CPooledObject@VCRotationDecorator@NEffectUpdateDecorator@@@@1V?$CDynamicPoolEx@VCRotationDecorator@NEffectUpdateDecorator@@@@A@@YAXXZ ENDP ; `dynamic atexit destructor for 'CPooledObject<NEffectUpdateDecorator::CRotationDecorator>::ms_kPool''
text$yd	ENDS
; Function compile flags: /Ogtp
; File C:\Users\flourine\Desktop\Xantios\client-src\Code\eterLib\Pool.h
;	COMDAT ??__E?ms_kPool@?$CPooledObject@VCRotationDecorator@NEffectUpdateDecorator@@@@1V?$CDynamicPoolEx@VCRotationDecorator@NEffectUpdateDecorator@@@@A@@YAXXZ
text$di	SEGMENT
??__E?ms_kPool@?$CPooledObject@VCRotationDecorator@NEffectUpdateDecorator@@@@1V?$CDynamicPoolEx@VCRotationDecorator@NEffectUpdateDecorator@@@@A@@YAXXZ PROC ; `dynamic initializer for 'CPooledObject<NEffectUpdateDecorator::CRotationDecorator>::ms_kPool'', COMDAT

; 280  : template <class T> CDynamicPoolEx<T> CPooledObject<T>::ms_kPool;

  00000	68 00 00 00 00	 push	 OFFSET ??__F?ms_kPool@?$CPooledObject@VCRotationDecorator@NEffectUpdateDecorator@@@@1V?$CDynamicPoolEx@VCRotationDecorator@NEffectUpdateDecorator@@@@A@@YAXXZ ; `dynamic atexit destructor for 'CPooledObject<NEffectUpdateDecorator::CRotationDecorator>::ms_kPool''
  00005	e8 00 00 00 00	 call	 _atexit
  0000a	59		 pop	 ecx
  0000b	c3		 ret	 0
??__E?ms_kPool@?$CPooledObject@VCRotationDecorator@NEffectUpdateDecorator@@@@1V?$CDynamicPoolEx@VCRotationDecorator@NEffectUpdateDecorator@@@@A@@YAXXZ ENDP ; `dynamic initializer for 'CPooledObject<NEffectUpdateDecorator::CRotationDecorator>::ms_kPool''
text$di	ENDS
; Function compile flags: /Ogtp
;	COMDAT ??__F?ms_kPool@?$CPooledObject@VCGravityDecorator@NEffectUpdateDecorator@@@@1V?$CDynamicPoolEx@VCGravityDecorator@NEffectUpdateDecorator@@@@A@@YAXXZ
text$yd	SEGMENT
??__F?ms_kPool@?$CPooledObject@VCGravityDecorator@NEffectUpdateDecorator@@@@1V?$CDynamicPoolEx@VCGravityDecorator@NEffectUpdateDecorator@@@@A@@YAXXZ PROC ; `dynamic atexit destructor for 'CPooledObject<NEffectUpdateDecorator::CGravityDecorator>::ms_kPool'', COMDAT
  00000	b9 00 00 00 00	 mov	 ecx, OFFSET ?ms_kPool@?$CPooledObject@VCGravityDecorator@NEffectUpdateDecorator@@@@1V?$CDynamicPoolEx@VCGravityDecorator@NEffectUpdateDecorator@@@@A ; CPooledObject<NEffectUpdateDecorator::CGravityDecorator>::ms_kPool
  00005	e9 00 00 00 00	 jmp	 ??1?$CDynamicPoolEx@VCGravityDecorator@NEffectUpdateDecorator@@@@UAE@XZ ; CDynamicPoolEx<NEffectUpdateDecorator::CGravityDecorator>::~CDynamicPoolEx<NEffectUpdateDecorator::CGravityDecorator>
??__F?ms_kPool@?$CPooledObject@VCGravityDecorator@NEffectUpdateDecorator@@@@1V?$CDynamicPoolEx@VCGravityDecorator@NEffectUpdateDecorator@@@@A@@YAXXZ ENDP ; `dynamic atexit destructor for 'CPooledObject<NEffectUpdateDecorator::CGravityDecorator>::ms_kPool''
text$yd	ENDS
; Function compile flags: /Ogtp
; File C:\Users\flourine\Desktop\Xantios\client-src\Code\eterLib\Pool.h
;	COMDAT ??__E?ms_kPool@?$CPooledObject@VCGravityDecorator@NEffectUpdateDecorator@@@@1V?$CDynamicPoolEx@VCGravityDecorator@NEffectUpdateDecorator@@@@A@@YAXXZ
text$di	SEGMENT
??__E?ms_kPool@?$CPooledObject@VCGravityDecorator@NEffectUpdateDecorator@@@@1V?$CDynamicPoolEx@VCGravityDecorator@NEffectUpdateDecorator@@@@A@@YAXXZ PROC ; `dynamic initializer for 'CPooledObject<NEffectUpdateDecorator::CGravityDecorator>::ms_kPool'', COMDAT

; 280  : template <class T> CDynamicPoolEx<T> CPooledObject<T>::ms_kPool;

  00000	68 00 00 00 00	 push	 OFFSET ??__F?ms_kPool@?$CPooledObject@VCGravityDecorator@NEffectUpdateDecorator@@@@1V?$CDynamicPoolEx@VCGravityDecorator@NEffectUpdateDecorator@@@@A@@YAXXZ ; `dynamic atexit destructor for 'CPooledObject<NEffectUpdateDecorator::CGravityDecorator>::ms_kPool''
  00005	e8 00 00 00 00	 call	 _atexit
  0000a	59		 pop	 ecx
  0000b	c3		 ret	 0
??__E?ms_kPool@?$CPooledObject@VCGravityDecorator@NEffectUpdateDecorator@@@@1V?$CDynamicPoolEx@VCGravityDecorator@NEffectUpdateDecorator@@@@A@@YAXXZ ENDP ; `dynamic initializer for 'CPooledObject<NEffectUpdateDecorator::CGravityDecorator>::ms_kPool''
text$di	ENDS
; Function compile flags: /Ogtp
;	COMDAT ??__F?ms_kPool@?$CPooledObject@VCAirResistanceDecorator@NEffectUpdateDecorator@@@@1V?$CDynamicPoolEx@VCAirResistanceDecorator@NEffectUpdateDecorator@@@@A@@YAXXZ
text$yd	SEGMENT
??__F?ms_kPool@?$CPooledObject@VCAirResistanceDecorator@NEffectUpdateDecorator@@@@1V?$CDynamicPoolEx@VCAirResistanceDecorator@NEffectUpdateDecorator@@@@A@@YAXXZ PROC ; `dynamic atexit destructor for 'CPooledObject<NEffectUpdateDecorator::CAirResistanceDecorator>::ms_kPool'', COMDAT
  00000	b9 00 00 00 00	 mov	 ecx, OFFSET ?ms_kPool@?$CPooledObject@VCAirResistanceDecorator@NEffectUpdateDecorator@@@@1V?$CDynamicPoolEx@VCAirResistanceDecorator@NEffectUpdateDecorator@@@@A ; CPooledObject<NEffectUpdateDecorator::CAirResistanceDecorator>::ms_kPool
  00005	e9 00 00 00 00	 jmp	 ??1?$CDynamicPoolEx@VCAirResistanceDecorator@NEffectUpdateDecorator@@@@UAE@XZ ; CDynamicPoolEx<NEffectUpdateDecorator::CAirResistanceDecorator>::~CDynamicPoolEx<NEffectUpdateDecorator::CAirResistanceDecorator>
??__F?ms_kPool@?$CPooledObject@VCAirResistanceDecorator@NEffectUpdateDecorator@@@@1V?$CDynamicPoolEx@VCAirResistanceDecorator@NEffectUpdateDecorator@@@@A@@YAXXZ ENDP ; `dynamic atexit destructor for 'CPooledObject<NEffectUpdateDecorator::CAirResistanceDecorator>::ms_kPool''
text$yd	ENDS
; Function compile flags: /Ogtp
; File C:\Users\flourine\Desktop\Xantios\client-src\Code\eterLib\Pool.h
;	COMDAT ??__E?ms_kPool@?$CPooledObject@VCAirResistanceDecorator@NEffectUpdateDecorator@@@@1V?$CDynamicPoolEx@VCAirResistanceDecorator@NEffectUpdateDecorator@@@@A@@YAXXZ
text$di	SEGMENT
??__E?ms_kPool@?$CPooledObject@VCAirResistanceDecorator@NEffectUpdateDecorator@@@@1V?$CDynamicPoolEx@VCAirResistanceDecorator@NEffectUpdateDecorator@@@@A@@YAXXZ PROC ; `dynamic initializer for 'CPooledObject<NEffectUpdateDecorator::CAirResistanceDecorator>::ms_kPool'', COMDAT

; 280  : template <class T> CDynamicPoolEx<T> CPooledObject<T>::ms_kPool;

  00000	68 00 00 00 00	 push	 OFFSET ??__F?ms_kPool@?$CPooledObject@VCAirResistanceDecorator@NEffectUpdateDecorator@@@@1V?$CDynamicPoolEx@VCAirResistanceDecorator@NEffectUpdateDecorator@@@@A@@YAXXZ ; `dynamic atexit destructor for 'CPooledObject<NEffectUpdateDecorator::CAirResistanceDecorator>::ms_kPool''
  00005	e8 00 00 00 00	 call	 _atexit
  0000a	59		 pop	 ecx
  0000b	c3		 ret	 0
??__E?ms_kPool@?$CPooledObject@VCAirResistanceDecorator@NEffectUpdateDecorator@@@@1V?$CDynamicPoolEx@VCAirResistanceDecorator@NEffectUpdateDecorator@@@@A@@YAXXZ ENDP ; `dynamic initializer for 'CPooledObject<NEffectUpdateDecorator::CAirResistanceDecorator>::ms_kPool''
text$di	ENDS
; Function compile flags: /Ogtp
;	COMDAT ??__F?ms_kPool@?$CPooledObject@VCTextureAnimationRandomDecorator@NEffectUpdateDecorator@@@@1V?$CDynamicPoolEx@VCTextureAnimationRandomDecorator@NEffectUpdateDecorator@@@@A@@YAXXZ
text$yd	SEGMENT
??__F?ms_kPool@?$CPooledObject@VCTextureAnimationRandomDecorator@NEffectUpdateDecorator@@@@1V?$CDynamicPoolEx@VCTextureAnimationRandomDecorator@NEffectUpdateDecorator@@@@A@@YAXXZ PROC ; `dynamic atexit destructor for 'CPooledObject<NEffectUpdateDecorator::CTextureAnimationRandomDecorator>::ms_kPool'', COMDAT
  00000	b9 00 00 00 00	 mov	 ecx, OFFSET ?ms_kPool@?$CPooledObject@VCTextureAnimationRandomDecorator@NEffectUpdateDecorator@@@@1V?$CDynamicPoolEx@VCTextureAnimationRandomDecorator@NEffectUpdateDecorator@@@@A ; CPooledObject<NEffectUpdateDecorator::CTextureAnimationRandomDecorator>::ms_kPool
  00005	e9 00 00 00 00	 jmp	 ??1?$CDynamicPoolEx@VCTextureAnimationRandomDecorator@NEffectUpdateDecorator@@@@UAE@XZ ; CDynamicPoolEx<NEffectUpdateDecorator::CTextureAnimationRandomDecorator>::~CDynamicPoolEx<NEffectUpdateDecorator::CTextureAnimationRandomDecorator>
??__F?ms_kPool@?$CPooledObject@VCTextureAnimationRandomDecorator@NEffectUpdateDecorator@@@@1V?$CDynamicPoolEx@VCTextureAnimationRandomDecorator@NEffectUpdateDecorator@@@@A@@YAXXZ ENDP ; `dynamic atexit destructor for 'CPooledObject<NEffectUpdateDecorator::CTextureAnimationRandomDecorator>::ms_kPool''
text$yd	ENDS
; Function compile flags: /Ogtp
; File C:\Users\flourine\Desktop\Xantios\client-src\Code\eterLib\Pool.h
;	COMDAT ??__E?ms_kPool@?$CPooledObject@VCTextureAnimationRandomDecorator@NEffectUpdateDecorator@@@@1V?$CDynamicPoolEx@VCTextureAnimationRandomDecorator@NEffectUpdateDecorator@@@@A@@YAXXZ
text$di	SEGMENT
??__E?ms_kPool@?$CPooledObject@VCTextureAnimationRandomDecorator@NEffectUpdateDecorator@@@@1V?$CDynamicPoolEx@VCTextureAnimationRandomDecorator@NEffectUpdateDecorator@@@@A@@YAXXZ PROC ; `dynamic initializer for 'CPooledObject<NEffectUpdateDecorator::CTextureAnimationRandomDecorator>::ms_kPool'', COMDAT

; 280  : template <class T> CDynamicPoolEx<T> CPooledObject<T>::ms_kPool;

  00000	68 00 00 00 00	 push	 OFFSET ??__F?ms_kPool@?$CPooledObject@VCTextureAnimationRandomDecorator@NEffectUpdateDecorator@@@@1V?$CDynamicPoolEx@VCTextureAnimationRandomDecorator@NEffectUpdateDecorator@@@@A@@YAXXZ ; `dynamic atexit destructor for 'CPooledObject<NEffectUpdateDecorator::CTextureAnimationRandomDecorator>::ms_kPool''
  00005	e8 00 00 00 00	 call	 _atexit
  0000a	59		 pop	 ecx
  0000b	c3		 ret	 0
??__E?ms_kPool@?$CPooledObject@VCTextureAnimationRandomDecorator@NEffectUpdateDecorator@@@@1V?$CDynamicPoolEx@VCTextureAnimationRandomDecorator@NEffectUpdateDecorator@@@@A@@YAXXZ ENDP ; `dynamic initializer for 'CPooledObject<NEffectUpdateDecorator::CTextureAnimationRandomDecorator>::ms_kPool''
text$di	ENDS
; Function compile flags: /Ogtp
;	COMDAT ??__F?ms_kPool@?$CPooledObject@VCTextureAnimationCCWDecorator@NEffectUpdateDecorator@@@@1V?$CDynamicPoolEx@VCTextureAnimationCCWDecorator@NEffectUpdateDecorator@@@@A@@YAXXZ
text$yd	SEGMENT
??__F?ms_kPool@?$CPooledObject@VCTextureAnimationCCWDecorator@NEffectUpdateDecorator@@@@1V?$CDynamicPoolEx@VCTextureAnimationCCWDecorator@NEffectUpdateDecorator@@@@A@@YAXXZ PROC ; `dynamic atexit destructor for 'CPooledObject<NEffectUpdateDecorator::CTextureAnimationCCWDecorator>::ms_kPool'', COMDAT
  00000	b9 00 00 00 00	 mov	 ecx, OFFSET ?ms_kPool@?$CPooledObject@VCTextureAnimationCCWDecorator@NEffectUpdateDecorator@@@@1V?$CDynamicPoolEx@VCTextureAnimationCCWDecorator@NEffectUpdateDecorator@@@@A ; CPooledObject<NEffectUpdateDecorator::CTextureAnimationCCWDecorator>::ms_kPool
  00005	e9 00 00 00 00	 jmp	 ??1?$CDynamicPoolEx@VCTextureAnimationCCWDecorator@NEffectUpdateDecorator@@@@UAE@XZ ; CDynamicPoolEx<NEffectUpdateDecorator::CTextureAnimationCCWDecorator>::~CDynamicPoolEx<NEffectUpdateDecorator::CTextureAnimationCCWDecorator>
??__F?ms_kPool@?$CPooledObject@VCTextureAnimationCCWDecorator@NEffectUpdateDecorator@@@@1V?$CDynamicPoolEx@VCTextureAnimationCCWDecorator@NEffectUpdateDecorator@@@@A@@YAXXZ ENDP ; `dynamic atexit destructor for 'CPooledObject<NEffectUpdateDecorator::CTextureAnimationCCWDecorator>::ms_kPool''
text$yd	ENDS
; Function compile flags: /Ogtp
; File C:\Users\flourine\Desktop\Xantios\client-src\Code\eterLib\Pool.h
;	COMDAT ??__E?ms_kPool@?$CPooledObject@VCTextureAnimationCCWDecorator@NEffectUpdateDecorator@@@@1V?$CDynamicPoolEx@VCTextureAnimationCCWDecorator@NEffectUpdateDecorator@@@@A@@YAXXZ
text$di	SEGMENT
??__E?ms_kPool@?$CPooledObject@VCTextureAnimationCCWDecorator@NEffectUpdateDecorator@@@@1V?$CDynamicPoolEx@VCTextureAnimationCCWDecorator@NEffectUpdateDecorator@@@@A@@YAXXZ PROC ; `dynamic initializer for 'CPooledObject<NEffectUpdateDecorator::CTextureAnimationCCWDecorator>::ms_kPool'', COMDAT

; 280  : template <class T> CDynamicPoolEx<T> CPooledObject<T>::ms_kPool;

  00000	68 00 00 00 00	 push	 OFFSET ??__F?ms_kPool@?$CPooledObject@VCTextureAnimationCCWDecorator@NEffectUpdateDecorator@@@@1V?$CDynamicPoolEx@VCTextureAnimationCCWDecorator@NEffectUpdateDecorator@@@@A@@YAXXZ ; `dynamic atexit destructor for 'CPooledObject<NEffectUpdateDecorator::CTextureAnimationCCWDecorator>::ms_kPool''
  00005	e8 00 00 00 00	 call	 _atexit
  0000a	59		 pop	 ecx
  0000b	c3		 ret	 0
??__E?ms_kPool@?$CPooledObject@VCTextureAnimationCCWDecorator@NEffectUpdateDecorator@@@@1V?$CDynamicPoolEx@VCTextureAnimationCCWDecorator@NEffectUpdateDecorator@@@@A@@YAXXZ ENDP ; `dynamic initializer for 'CPooledObject<NEffectUpdateDecorator::CTextureAnimationCCWDecorator>::ms_kPool''
text$di	ENDS
; Function compile flags: /Ogtp
;	COMDAT ??__F?ms_kPool@?$CPooledObject@VCTextureAnimationCWDecorator@NEffectUpdateDecorator@@@@1V?$CDynamicPoolEx@VCTextureAnimationCWDecorator@NEffectUpdateDecorator@@@@A@@YAXXZ
text$yd	SEGMENT
??__F?ms_kPool@?$CPooledObject@VCTextureAnimationCWDecorator@NEffectUpdateDecorator@@@@1V?$CDynamicPoolEx@VCTextureAnimationCWDecorator@NEffectUpdateDecorator@@@@A@@YAXXZ PROC ; `dynamic atexit destructor for 'CPooledObject<NEffectUpdateDecorator::CTextureAnimationCWDecorator>::ms_kPool'', COMDAT
  00000	b9 00 00 00 00	 mov	 ecx, OFFSET ?ms_kPool@?$CPooledObject@VCTextureAnimationCWDecorator@NEffectUpdateDecorator@@@@1V?$CDynamicPoolEx@VCTextureAnimationCWDecorator@NEffectUpdateDecorator@@@@A ; CPooledObject<NEffectUpdateDecorator::CTextureAnimationCWDecorator>::ms_kPool
  00005	e9 00 00 00 00	 jmp	 ??1?$CDynamicPoolEx@VCTextureAnimationCWDecorator@NEffectUpdateDecorator@@@@UAE@XZ ; CDynamicPoolEx<NEffectUpdateDecorator::CTextureAnimationCWDecorator>::~CDynamicPoolEx<NEffectUpdateDecorator::CTextureAnimationCWDecorator>
??__F?ms_kPool@?$CPooledObject@VCTextureAnimationCWDecorator@NEffectUpdateDecorator@@@@1V?$CDynamicPoolEx@VCTextureAnimationCWDecorator@NEffectUpdateDecorator@@@@A@@YAXXZ ENDP ; `dynamic atexit destructor for 'CPooledObject<NEffectUpdateDecorator::CTextureAnimationCWDecorator>::ms_kPool''
text$yd	ENDS
; Function compile flags: /Ogtp
; File C:\Users\flourine\Desktop\Xantios\client-src\Code\eterLib\Pool.h
;	COMDAT ??__E?ms_kPool@?$CPooledObject@VCTextureAnimationCWDecorator@NEffectUpdateDecorator@@@@1V?$CDynamicPoolEx@VCTextureAnimationCWDecorator@NEffectUpdateDecorator@@@@A@@YAXXZ
text$di	SEGMENT
??__E?ms_kPool@?$CPooledObject@VCTextureAnimationCWDecorator@NEffectUpdateDecorator@@@@1V?$CDynamicPoolEx@VCTextureAnimationCWDecorator@NEffectUpdateDecorator@@@@A@@YAXXZ PROC ; `dynamic initializer for 'CPooledObject<NEffectUpdateDecorator::CTextureAnimationCWDecorator>::ms_kPool'', COMDAT

; 280  : template <class T> CDynamicPoolEx<T> CPooledObject<T>::ms_kPool;

  00000	68 00 00 00 00	 push	 OFFSET ??__F?ms_kPool@?$CPooledObject@VCTextureAnimationCWDecorator@NEffectUpdateDecorator@@@@1V?$CDynamicPoolEx@VCTextureAnimationCWDecorator@NEffectUpdateDecorator@@@@A@@YAXXZ ; `dynamic atexit destructor for 'CPooledObject<NEffectUpdateDecorator::CTextureAnimationCWDecorator>::ms_kPool''
  00005	e8 00 00 00 00	 call	 _atexit
  0000a	59		 pop	 ecx
  0000b	c3		 ret	 0
??__E?ms_kPool@?$CPooledObject@VCTextureAnimationCWDecorator@NEffectUpdateDecorator@@@@1V?$CDynamicPoolEx@VCTextureAnimationCWDecorator@NEffectUpdateDecorator@@@@A@@YAXXZ ENDP ; `dynamic initializer for 'CPooledObject<NEffectUpdateDecorator::CTextureAnimationCWDecorator>::ms_kPool''
text$di	ENDS
; Function compile flags: /Ogtp
;	COMDAT ??__F?ms_kPool@?$CPooledObject@VCNullDecorator@NEffectUpdateDecorator@@@@1V?$CDynamicPoolEx@VCNullDecorator@NEffectUpdateDecorator@@@@A@@YAXXZ
text$yd	SEGMENT
??__F?ms_kPool@?$CPooledObject@VCNullDecorator@NEffectUpdateDecorator@@@@1V?$CDynamicPoolEx@VCNullDecorator@NEffectUpdateDecorator@@@@A@@YAXXZ PROC ; `dynamic atexit destructor for 'CPooledObject<NEffectUpdateDecorator::CNullDecorator>::ms_kPool'', COMDAT
  00000	b9 00 00 00 00	 mov	 ecx, OFFSET ?ms_kPool@?$CPooledObject@VCNullDecorator@NEffectUpdateDecorator@@@@1V?$CDynamicPoolEx@VCNullDecorator@NEffectUpdateDecorator@@@@A ; CPooledObject<NEffectUpdateDecorator::CNullDecorator>::ms_kPool
  00005	e9 00 00 00 00	 jmp	 ??1?$CDynamicPoolEx@VCNullDecorator@NEffectUpdateDecorator@@@@UAE@XZ ; CDynamicPoolEx<NEffectUpdateDecorator::CNullDecorator>::~CDynamicPoolEx<NEffectUpdateDecorator::CNullDecorator>
??__F?ms_kPool@?$CPooledObject@VCNullDecorator@NEffectUpdateDecorator@@@@1V?$CDynamicPoolEx@VCNullDecorator@NEffectUpdateDecorator@@@@A@@YAXXZ ENDP ; `dynamic atexit destructor for 'CPooledObject<NEffectUpdateDecorator::CNullDecorator>::ms_kPool''
text$yd	ENDS
; Function compile flags: /Ogtp
; File C:\Users\flourine\Desktop\Xantios\client-src\Code\eterLib\Pool.h
;	COMDAT ??__E?ms_kPool@?$CPooledObject@VCNullDecorator@NEffectUpdateDecorator@@@@1V?$CDynamicPoolEx@VCNullDecorator@NEffectUpdateDecorator@@@@A@@YAXXZ
text$di	SEGMENT
??__E?ms_kPool@?$CPooledObject@VCNullDecorator@NEffectUpdateDecorator@@@@1V?$CDynamicPoolEx@VCNullDecorator@NEffectUpdateDecorator@@@@A@@YAXXZ PROC ; `dynamic initializer for 'CPooledObject<NEffectUpdateDecorator::CNullDecorator>::ms_kPool'', COMDAT

; 280  : template <class T> CDynamicPoolEx<T> CPooledObject<T>::ms_kPool;

  00000	68 00 00 00 00	 push	 OFFSET ??__F?ms_kPool@?$CPooledObject@VCNullDecorator@NEffectUpdateDecorator@@@@1V?$CDynamicPoolEx@VCNullDecorator@NEffectUpdateDecorator@@@@A@@YAXXZ ; `dynamic atexit destructor for 'CPooledObject<NEffectUpdateDecorator::CNullDecorator>::ms_kPool''
  00005	e8 00 00 00 00	 call	 _atexit
  0000a	59		 pop	 ecx
  0000b	c3		 ret	 0
??__E?ms_kPool@?$CPooledObject@VCNullDecorator@NEffectUpdateDecorator@@@@1V?$CDynamicPoolEx@VCNullDecorator@NEffectUpdateDecorator@@@@A@@YAXXZ ENDP ; `dynamic initializer for 'CPooledObject<NEffectUpdateDecorator::CNullDecorator>::ms_kPool''
text$di	ENDS
; Function compile flags: /Ogtp
;	COMDAT ??__F?ms_kPool@?$CPooledObject@VCHeaderDecorator@NEffectUpdateDecorator@@@@1V?$CDynamicPoolEx@VCHeaderDecorator@NEffectUpdateDecorator@@@@A@@YAXXZ
text$yd	SEGMENT
??__F?ms_kPool@?$CPooledObject@VCHeaderDecorator@NEffectUpdateDecorator@@@@1V?$CDynamicPoolEx@VCHeaderDecorator@NEffectUpdateDecorator@@@@A@@YAXXZ PROC ; `dynamic atexit destructor for 'CPooledObject<NEffectUpdateDecorator::CHeaderDecorator>::ms_kPool'', COMDAT
  00000	b9 00 00 00 00	 mov	 ecx, OFFSET ?ms_kPool@?$CPooledObject@VCHeaderDecorator@NEffectUpdateDecorator@@@@1V?$CDynamicPoolEx@VCHeaderDecorator@NEffectUpdateDecorator@@@@A ; CPooledObject<NEffectUpdateDecorator::CHeaderDecorator>::ms_kPool
  00005	e9 00 00 00 00	 jmp	 ??1?$CDynamicPoolEx@VCHeaderDecorator@NEffectUpdateDecorator@@@@UAE@XZ ; CDynamicPoolEx<NEffectUpdateDecorator::CHeaderDecorator>::~CDynamicPoolEx<NEffectUpdateDecorator::CHeaderDecorator>
??__F?ms_kPool@?$CPooledObject@VCHeaderDecorator@NEffectUpdateDecorator@@@@1V?$CDynamicPoolEx@VCHeaderDecorator@NEffectUpdateDecorator@@@@A@@YAXXZ ENDP ; `dynamic atexit destructor for 'CPooledObject<NEffectUpdateDecorator::CHeaderDecorator>::ms_kPool''
text$yd	ENDS
; Function compile flags: /Ogtp
; File C:\Users\flourine\Desktop\Xantios\client-src\Code\eterLib\Pool.h
;	COMDAT ??__E?ms_kPool@?$CPooledObject@VCHeaderDecorator@NEffectUpdateDecorator@@@@1V?$CDynamicPoolEx@VCHeaderDecorator@NEffectUpdateDecorator@@@@A@@YAXXZ
text$di	SEGMENT
??__E?ms_kPool@?$CPooledObject@VCHeaderDecorator@NEffectUpdateDecorator@@@@1V?$CDynamicPoolEx@VCHeaderDecorator@NEffectUpdateDecorator@@@@A@@YAXXZ PROC ; `dynamic initializer for 'CPooledObject<NEffectUpdateDecorator::CHeaderDecorator>::ms_kPool'', COMDAT

; 280  : template <class T> CDynamicPoolEx<T> CPooledObject<T>::ms_kPool;

  00000	68 00 00 00 00	 push	 OFFSET ??__F?ms_kPool@?$CPooledObject@VCHeaderDecorator@NEffectUpdateDecorator@@@@1V?$CDynamicPoolEx@VCHeaderDecorator@NEffectUpdateDecorator@@@@A@@YAXXZ ; `dynamic atexit destructor for 'CPooledObject<NEffectUpdateDecorator::CHeaderDecorator>::ms_kPool''
  00005	e8 00 00 00 00	 call	 _atexit
  0000a	59		 pop	 ecx
  0000b	c3		 ret	 0
??__E?ms_kPool@?$CPooledObject@VCHeaderDecorator@NEffectUpdateDecorator@@@@1V?$CDynamicPoolEx@VCHeaderDecorator@NEffectUpdateDecorator@@@@A@@YAXXZ ENDP ; `dynamic initializer for 'CPooledObject<NEffectUpdateDecorator::CHeaderDecorator>::ms_kPool''
text$di	ENDS
; Function compile flags: /Ogtp
;	COMDAT ??_G?$CDynamicPoolEx@VCHeaderDecorator@NEffectUpdateDecorator@@@@UAEPAXI@Z
_TEXT	SEGMENT
___flags$ = 8						; size = 4
??_G?$CDynamicPoolEx@VCHeaderDecorator@NEffectUpdateDecorator@@@@UAEPAXI@Z PROC ; CDynamicPoolEx<NEffectUpdateDecorator::CHeaderDecorator>::`scalar deleting destructor', COMDAT
; _this$ = ecx
  00000	55		 push	 ebp
  00001	8b ec		 mov	 ebp, esp
  00003	56		 push	 esi
  00004	8b f1		 mov	 esi, ecx
  00006	e8 00 00 00 00	 call	 ??1?$CDynamicPoolEx@VCHeaderDecorator@NEffectUpdateDecorator@@@@UAE@XZ ; CDynamicPoolEx<NEffectUpdateDecorator::CHeaderDecorator>::~CDynamicPoolEx<NEffectUpdateDecorator::CHeaderDecorator>
  0000b	f6 45 08 01	 test	 BYTE PTR ___flags$[ebp], 1
  0000f	74 0b		 je	 SHORT $LN4@scalar
  00011	6a 24		 push	 36			; 00000024H
  00013	56		 push	 esi
  00014	e8 00 00 00 00	 call	 ??3@YAXPAXI@Z		; operator delete
  00019	83 c4 08	 add	 esp, 8
$LN4@scalar:
  0001c	8b c6		 mov	 eax, esi
  0001e	5e		 pop	 esi
  0001f	5d		 pop	 ebp
  00020	c2 04 00	 ret	 4
??_G?$CDynamicPoolEx@VCHeaderDecorator@NEffectUpdateDecorator@@@@UAEPAXI@Z ENDP ; CDynamicPoolEx<NEffectUpdateDecorator::CHeaderDecorator>::`scalar deleting destructor'
_TEXT	ENDS
; Function compile flags: /Ogtp
; File C:\Users\flourine\Desktop\Xantios\client-src\Code\eterLib\Pool.h
;	COMDAT ?Delete@?$CDynamicPoolEx@VCHeaderDecorator@NEffectUpdateDecorator@@@@KAXPAVCHeaderDecorator@NEffectUpdateDecorator@@@Z
_TEXT	SEGMENT
_pkData$ = 8						; size = 4
?Delete@?$CDynamicPoolEx@VCHeaderDecorator@NEffectUpdateDecorator@@@@KAXPAVCHeaderDecorator@NEffectUpdateDecorator@@@Z PROC ; CDynamicPoolEx<NEffectUpdateDecorator::CHeaderDecorator>::Delete, COMDAT

; 232  : 		::operator delete (pkData);

  00000	e9 00 00 00 00	 jmp	 ??3@YAXPAX@Z		; operator delete
?Delete@?$CDynamicPoolEx@VCHeaderDecorator@NEffectUpdateDecorator@@@@KAXPAVCHeaderDecorator@NEffectUpdateDecorator@@@Z ENDP ; CDynamicPoolEx<NEffectUpdateDecorator::CHeaderDecorator>::Delete
_TEXT	ENDS
; Function compile flags: /Ogtp
; File C:\Users\flourine\Desktop\Xantios\client-src\Code\eterLib\Pool.h
; File C:\Program Files\Microsoft Visual Studio\2022\Community\VC\Tools\MSVC\14.34.31933\include\vector
; File C:\Program Files\Microsoft Visual Studio\2022\Community\VC\Tools\MSVC\14.34.31933\include\algorithm
; File C:\Users\flourine\Desktop\Xantios\client-src\Code\eterLib\Pool.h
; File C:\Program Files\Microsoft Visual Studio\2022\Community\VC\Tools\MSVC\14.34.31933\include\algorithm
; File C:\Users\flourine\Desktop\Xantios\client-src\Code\eterLib\Pool.h
; File C:\Program Files\Microsoft Visual Studio\2022\Community\VC\Tools\MSVC\14.34.31933\include\algorithm
; File C:\Program Files\Microsoft Visual Studio\2022\Community\VC\Tools\MSVC\14.34.31933\include\vector
; File C:\Program Files\Microsoft Visual Studio\2022\Community\VC\Tools\MSVC\14.34.31933\include\xmemory
; File C:\Program Files\Microsoft Visual Studio\2022\Community\VC\Tools\MSVC\14.34.31933\include\vector
; File C:\Program Files\Microsoft Visual Studio\2022\Community\VC\Tools\MSVC\14.34.31933\include\xmemory
; File C:\Program Files\Microsoft Visual Studio\2022\Community\VC\Tools\MSVC\14.34.31933\include\vector
; File C:\Program Files\Microsoft Visual Studio\2022\Community\VC\Tools\MSVC\14.34.31933\include\xmemory
; File C:\Program Files\Microsoft Visual Studio\2022\Community\VC\Tools\MSVC\14.34.31933\include\vector
; File C:\Program Files\Microsoft Visual Studio\2022\Community\VC\Tools\MSVC\14.34.31933\include\xmemory
; File C:\Program Files\Microsoft Visual Studio\2022\Community\VC\Tools\MSVC\14.34.31933\include\vector
; File C:\Users\flourine\Desktop\Xantios\client-src\Code\eterLib\Pool.h
; File C:\Program Files\Microsoft Visual Studio\2022\Community\VC\Tools\MSVC\14.34.31933\include\xmemory
; File C:\Users\flourine\Desktop\Xantios\client-src\Code\eterLib\Pool.h
;	COMDAT ??1?$CDynamicPoolEx@VCHeaderDecorator@NEffectUpdateDecorator@@@@UAE@XZ
_TEXT	SEGMENT
__$EHRec$ = -12						; size = 12
??1?$CDynamicPoolEx@VCHeaderDecorator@NEffectUpdateDecorator@@@@UAE@XZ PROC ; CDynamicPoolEx<NEffectUpdateDecorator::CHeaderDecorator>::~CDynamicPoolEx<NEffectUpdateDecorator::CHeaderDecorator>, COMDAT
; _this$ = ecx

; 136  : 	{

  00000	55		 push	 ebp
  00001	8b ec		 mov	 ebp, esp
  00003	6a ff		 push	 -1
  00005	68 00 00 00 00	 push	 __ehhandler$??1?$CDynamicPoolEx@VCHeaderDecorator@NEffectUpdateDecorator@@@@UAE@XZ
  0000a	64 a1 00 00 00
	00		 mov	 eax, DWORD PTR fs:0
  00010	50		 push	 eax
  00011	53		 push	 ebx
  00012	56		 push	 esi
  00013	57		 push	 edi
  00014	a1 00 00 00 00	 mov	 eax, DWORD PTR ___security_cookie
  00019	33 c5		 xor	 eax, ebp
  0001b	50		 push	 eax
  0001c	8d 45 f4	 lea	 eax, DWORD PTR __$EHRec$[ebp]
  0001f	64 a3 00 00 00
	00		 mov	 DWORD PTR fs:0, eax
  00025	8b f9		 mov	 edi, ecx
  00027	c7 07 00 00 00
	00		 mov	 DWORD PTR [edi], OFFSET ??_7?$CDynamicPoolEx@VCHeaderDecorator@NEffectUpdateDecorator@@@@6B@
; File C:\Program Files\Microsoft Visual Studio\2022\Community\VC\Tools\MSVC\14.34.31933\include\vector

; 41   :     _CONSTEXPR20 _Vector_const_iterator(_Tptr _Parg, const _Container_base* _Pvector) noexcept : _Ptr(_Parg) {

  0002d	8b 5f 08	 mov	 ebx, DWORD PTR [edi+8]
; File C:\Program Files\Microsoft Visual Studio\2022\Community\VC\Tools\MSVC\14.34.31933\include\algorithm

; 265  :     for (; _UFirst != _ULast; ++_UFirst) {

  00030	8b 77 04	 mov	 esi, DWORD PTR [edi+4]
  00033	3b f3		 cmp	 esi, ebx
  00035	74 11		 je	 SHORT $LN19@CDynamicPo
$LL20@CDynamicPo:
; File C:\Users\flourine\Desktop\Xantios\client-src\Code\eterLib\Pool.h

; 232  : 		::operator delete (pkData);

  00037	ff 36		 push	 DWORD PTR [esi]
  00039	e8 00 00 00 00	 call	 ??3@YAXPAX@Z		; operator delete
; File C:\Program Files\Microsoft Visual Studio\2022\Community\VC\Tools\MSVC\14.34.31933\include\algorithm

; 265  :     for (; _UFirst != _ULast; ++_UFirst) {

  0003e	83 c6 04	 add	 esi, 4
; File C:\Users\flourine\Desktop\Xantios\client-src\Code\eterLib\Pool.h

; 232  : 		::operator delete (pkData);

  00041	83 c4 04	 add	 esp, 4
; File C:\Program Files\Microsoft Visual Studio\2022\Community\VC\Tools\MSVC\14.34.31933\include\algorithm

; 265  :     for (; _UFirst != _ULast; ++_UFirst) {

  00044	3b f3		 cmp	 esi, ebx
  00046	75 ef		 jne	 SHORT $LL20@CDynamicPo
$LN19@CDynamicPo:
; File C:\Program Files\Microsoft Visual Studio\2022\Community\VC\Tools\MSVC\14.34.31933\include\vector

; 1829 :         if (_Myfirst == _Mylast) { // already empty, nothing to do

  00048	8b 47 04	 mov	 eax, DWORD PTR [edi+4]
  0004b	3b 47 08	 cmp	 eax, DWORD PTR [edi+8]
  0004e	74 03		 je	 SHORT $LN26@CDynamicPo

; 1830 :             // This is an optimization for debug mode: we can avoid taking the debug lock to invalidate iterators.
; 1831 :             // Note that when clearing an empty vector, this will preserve past-the-end iterators, which is allowed by
; 1832 :             // N4901 [tab:container.seq.req] "a.clear() [...] may invalidate the past-the-end iterator".
; 1833 :             return;
; 1834 :         }
; 1835 : 
; 1836 :         _My_data._Orphan_all();
; 1837 :         _Destroy_range(_Myfirst, _Mylast, _Getal());
; 1838 :         _ASAN_VECTOR_MODIFY(static_cast<difference_type>(_Myfirst - _Mylast)); // negative when destroying elements
; 1839 :         _Mylast = _Myfirst;

  00050	89 47 08	 mov	 DWORD PTR [edi+8], eax
$LN26@CDynamicPo:

; 1829 :         if (_Myfirst == _Mylast) { // already empty, nothing to do

  00053	8b 47 10	 mov	 eax, DWORD PTR [edi+16]
  00056	3b 47 14	 cmp	 eax, DWORD PTR [edi+20]
  00059	74 03		 je	 SHORT $LN29@CDynamicPo

; 1830 :             // This is an optimization for debug mode: we can avoid taking the debug lock to invalidate iterators.
; 1831 :             // Note that when clearing an empty vector, this will preserve past-the-end iterators, which is allowed by
; 1832 :             // N4901 [tab:container.seq.req] "a.clear() [...] may invalidate the past-the-end iterator".
; 1833 :             return;
; 1834 :         }
; 1835 : 
; 1836 :         _My_data._Orphan_all();
; 1837 :         _Destroy_range(_Myfirst, _Mylast, _Getal());
; 1838 :         _ASAN_VECTOR_MODIFY(static_cast<difference_type>(_Myfirst - _Mylast)); // negative when destroying elements
; 1839 :         _Mylast = _Myfirst;

  0005b	89 47 14	 mov	 DWORD PTR [edi+20], eax
$LN29@CDynamicPo:

; 2107 :         if (_Myfirst) { // destroy and deallocate old array

  0005e	85 c0		 test	 eax, eax
  00060	74 41		 je	 SHORT $LN35@CDynamicPo

; 2108 :             _Destroy_range(_Myfirst, _Mylast, _Al);
; 2109 :             _ASAN_VECTOR_REMOVE;
; 2110 :             _Al.deallocate(_Myfirst, static_cast<size_type>(_Myend - _Myfirst));

  00062	8b 4f 18	 mov	 ecx, DWORD PTR [edi+24]
  00065	2b c8		 sub	 ecx, eax
; File C:\Program Files\Microsoft Visual Studio\2022\Community\VC\Tools\MSVC\14.34.31933\include\xmemory

; 830  :         _Deallocate<_New_alignof<_Ty>>(_Ptr, sizeof(_Ty) * _Count);

  00067	83 e1 fc	 and	 ecx, -4			; fffffffcH

; 251  :         if (_Bytes >= _Big_allocation_threshold) { // boost the alignment of big allocations to help autovectorization

  0006a	81 f9 00 10 00
	00		 cmp	 ecx, 4096		; 00001000H
  00070	72 12		 jb	 SHORT $LN51@CDynamicPo

; 150  :     const uintptr_t _Ptr_container   = _Ptr_user[-1];

  00072	8b 50 fc	 mov	 edx, DWORD PTR [eax-4]
  00075	83 c1 23	 add	 ecx, 35			; 00000023H

; 151  : 
; 152  :     // If the following asserts, it likely means that we are performing
; 153  :     // an aligned delete on memory coming from an unaligned allocation.
; 154  :     _STL_ASSERT(_Ptr_user[-2] == _Big_allocation_sentinel, "invalid argument");
; 155  : 
; 156  :     // Extra paranoia on aligned allocation/deallocation; ensure _Ptr_container is
; 157  :     // in range [_Min_back_shift, _Non_user_size]
; 158  : #ifdef _DEBUG
; 159  :     constexpr uintptr_t _Min_back_shift = 2 * sizeof(void*);
; 160  : #else // ^^^ _DEBUG ^^^ // vvv !_DEBUG vvv
; 161  :     constexpr uintptr_t _Min_back_shift = sizeof(void*);
; 162  : #endif // _DEBUG
; 163  :     const uintptr_t _Back_shift = reinterpret_cast<uintptr_t>(_Ptr) - _Ptr_container;

  00078	2b c2		 sub	 eax, edx

; 164  :     _STL_VERIFY(_Back_shift >= _Min_back_shift && _Back_shift <= _Non_user_size, "invalid argument");

  0007a	83 c0 fc	 add	 eax, -4			; fffffffcH
  0007d	83 f8 1f	 cmp	 eax, 31			; 0000001fH
  00080	77 7b		 ja	 SHORT $LN73@CDynamicPo

; 165  :     _Ptr = reinterpret_cast<void*>(_Ptr_container);

  00082	8b c2		 mov	 eax, edx
$LN51@CDynamicPo:

; 255  :         ::operator delete(_Ptr, _Bytes);

  00084	51		 push	 ecx
  00085	50		 push	 eax
  00086	e8 00 00 00 00	 call	 ??3@YAXPAXI@Z		; operator delete
; File C:\Program Files\Microsoft Visual Studio\2022\Community\VC\Tools\MSVC\14.34.31933\include\vector

; 2112 :             _Myfirst = nullptr;

  0008b	c7 47 10 00 00
	00 00		 mov	 DWORD PTR [edi+16], 0
; File C:\Program Files\Microsoft Visual Studio\2022\Community\VC\Tools\MSVC\14.34.31933\include\xmemory

; 255  :         ::operator delete(_Ptr, _Bytes);

  00092	83 c4 08	 add	 esp, 8
; File C:\Program Files\Microsoft Visual Studio\2022\Community\VC\Tools\MSVC\14.34.31933\include\vector

; 2113 :             _Mylast  = nullptr;

  00095	c7 47 14 00 00
	00 00		 mov	 DWORD PTR [edi+20], 0

; 2114 :             _Myend   = nullptr;

  0009c	c7 47 18 00 00
	00 00		 mov	 DWORD PTR [edi+24], 0
$LN35@CDynamicPo:

; 2107 :         if (_Myfirst) { // destroy and deallocate old array

  000a3	8b 47 04	 mov	 eax, DWORD PTR [edi+4]
  000a6	85 c0		 test	 eax, eax
  000a8	74 41		 je	 SHORT $LN60@CDynamicPo

; 2108 :             _Destroy_range(_Myfirst, _Mylast, _Al);
; 2109 :             _ASAN_VECTOR_REMOVE;
; 2110 :             _Al.deallocate(_Myfirst, static_cast<size_type>(_Myend - _Myfirst));

  000aa	8b 4f 0c	 mov	 ecx, DWORD PTR [edi+12]
  000ad	2b c8		 sub	 ecx, eax
; File C:\Program Files\Microsoft Visual Studio\2022\Community\VC\Tools\MSVC\14.34.31933\include\xmemory

; 830  :         _Deallocate<_New_alignof<_Ty>>(_Ptr, sizeof(_Ty) * _Count);

  000af	83 e1 fc	 and	 ecx, -4			; fffffffcH

; 251  :         if (_Bytes >= _Big_allocation_threshold) { // boost the alignment of big allocations to help autovectorization

  000b2	81 f9 00 10 00
	00		 cmp	 ecx, 4096		; 00001000H
  000b8	72 12		 jb	 SHORT $LN76@CDynamicPo

; 150  :     const uintptr_t _Ptr_container   = _Ptr_user[-1];

  000ba	8b 50 fc	 mov	 edx, DWORD PTR [eax-4]
  000bd	83 c1 23	 add	 ecx, 35			; 00000023H

; 151  : 
; 152  :     // If the following asserts, it likely means that we are performing
; 153  :     // an aligned delete on memory coming from an unaligned allocation.
; 154  :     _STL_ASSERT(_Ptr_user[-2] == _Big_allocation_sentinel, "invalid argument");
; 155  : 
; 156  :     // Extra paranoia on aligned allocation/deallocation; ensure _Ptr_container is
; 157  :     // in range [_Min_back_shift, _Non_user_size]
; 158  : #ifdef _DEBUG
; 159  :     constexpr uintptr_t _Min_back_shift = 2 * sizeof(void*);
; 160  : #else // ^^^ _DEBUG ^^^ // vvv !_DEBUG vvv
; 161  :     constexpr uintptr_t _Min_back_shift = sizeof(void*);
; 162  : #endif // _DEBUG
; 163  :     const uintptr_t _Back_shift = reinterpret_cast<uintptr_t>(_Ptr) - _Ptr_container;

  000c0	2b c2		 sub	 eax, edx

; 164  :     _STL_VERIFY(_Back_shift >= _Min_back_shift && _Back_shift <= _Non_user_size, "invalid argument");

  000c2	83 c0 fc	 add	 eax, -4			; fffffffcH
  000c5	83 f8 1f	 cmp	 eax, 31			; 0000001fH
  000c8	77 33		 ja	 SHORT $LN73@CDynamicPo

; 165  :     _Ptr = reinterpret_cast<void*>(_Ptr_container);

  000ca	8b c2		 mov	 eax, edx
$LN76@CDynamicPo:

; 255  :         ::operator delete(_Ptr, _Bytes);

  000cc	51		 push	 ecx
  000cd	50		 push	 eax
  000ce	e8 00 00 00 00	 call	 ??3@YAXPAXI@Z		; operator delete
; File C:\Program Files\Microsoft Visual Studio\2022\Community\VC\Tools\MSVC\14.34.31933\include\vector

; 2112 :             _Myfirst = nullptr;

  000d3	c7 47 04 00 00
	00 00		 mov	 DWORD PTR [edi+4], 0
; File C:\Program Files\Microsoft Visual Studio\2022\Community\VC\Tools\MSVC\14.34.31933\include\xmemory

; 255  :         ::operator delete(_Ptr, _Bytes);

  000da	83 c4 08	 add	 esp, 8
; File C:\Program Files\Microsoft Visual Studio\2022\Community\VC\Tools\MSVC\14.34.31933\include\vector

; 2113 :             _Mylast  = nullptr;

  000dd	c7 47 08 00 00
	00 00		 mov	 DWORD PTR [edi+8], 0

; 2114 :             _Myend   = nullptr;

  000e4	c7 47 0c 00 00
	00 00		 mov	 DWORD PTR [edi+12], 0
$LN60@CDynamicPo:
; File C:\Users\flourine\Desktop\Xantios\client-src\Code\eterLib\Pool.h

; 146  : 	}

  000eb	8b 4d f4	 mov	 ecx, DWORD PTR __$EHRec$[ebp]
  000ee	64 89 0d 00 00
	00 00		 mov	 DWORD PTR fs:0, ecx
  000f5	59		 pop	 ecx
  000f6	5f		 pop	 edi
  000f7	5e		 pop	 esi
  000f8	5b		 pop	 ebx
  000f9	8b e5		 mov	 esp, ebp
  000fb	5d		 pop	 ebp
  000fc	c3		 ret	 0
$LN73@CDynamicPo:
; File C:\Program Files\Microsoft Visual Studio\2022\Community\VC\Tools\MSVC\14.34.31933\include\xmemory

; 164  :     _STL_VERIFY(_Back_shift >= _Min_back_shift && _Back_shift <= _Non_user_size, "invalid argument");

  000fd	e8 00 00 00 00	 call	 __invalid_parameter_noinfo_noreturn
$LN86@CDynamicPo:
  00102	cc		 int	 3
  00103	cc		 int	 3
  00104	cc		 int	 3
  00105	cc		 int	 3
  00106	cc		 int	 3
  00107	cc		 int	 3
_TEXT	ENDS
;	COMDAT text$x
text$x	SEGMENT
__ehhandler$??1?$CDynamicPoolEx@VCHeaderDecorator@NEffectUpdateDecorator@@@@UAE@XZ:
  00000	90		 npad	 1
  00001	90		 npad	 1
  00002	8b 54 24 08	 mov	 edx, DWORD PTR [esp+8]
  00006	8d 42 0c	 lea	 eax, DWORD PTR [edx+12]
  00009	8b 4a f0	 mov	 ecx, DWORD PTR [edx-16]
  0000c	33 c8		 xor	 ecx, eax
  0000e	e8 00 00 00 00	 call	 @__security_check_cookie@4
  00013	b8 00 00 00 00	 mov	 eax, OFFSET __ehfuncinfo$??1?$CDynamicPoolEx@VCHeaderDecorator@NEffectUpdateDecorator@@@@UAE@XZ
  00018	e9 00 00 00 00	 jmp	 ___CxxFrameHandler3
text$x	ENDS
??1?$CDynamicPoolEx@VCHeaderDecorator@NEffectUpdateDecorator@@@@UAE@XZ ENDP ; CDynamicPoolEx<NEffectUpdateDecorator::CHeaderDecorator>::~CDynamicPoolEx<NEffectUpdateDecorator::CHeaderDecorator>
; Function compile flags: /Ogtp
;	COMDAT ??_G?$CDynamicPoolEx@VCNullDecorator@NEffectUpdateDecorator@@@@UAEPAXI@Z
_TEXT	SEGMENT
___flags$ = 8						; size = 4
??_G?$CDynamicPoolEx@VCNullDecorator@NEffectUpdateDecorator@@@@UAEPAXI@Z PROC ; CDynamicPoolEx<NEffectUpdateDecorator::CNullDecorator>::`scalar deleting destructor', COMDAT
; _this$ = ecx
  00000	55		 push	 ebp
  00001	8b ec		 mov	 ebp, esp
  00003	56		 push	 esi
  00004	8b f1		 mov	 esi, ecx
  00006	e8 00 00 00 00	 call	 ??1?$CDynamicPoolEx@VCNullDecorator@NEffectUpdateDecorator@@@@UAE@XZ ; CDynamicPoolEx<NEffectUpdateDecorator::CNullDecorator>::~CDynamicPoolEx<NEffectUpdateDecorator::CNullDecorator>
  0000b	f6 45 08 01	 test	 BYTE PTR ___flags$[ebp], 1
  0000f	74 0b		 je	 SHORT $LN4@scalar
  00011	6a 24		 push	 36			; 00000024H
  00013	56		 push	 esi
  00014	e8 00 00 00 00	 call	 ??3@YAXPAXI@Z		; operator delete
  00019	83 c4 08	 add	 esp, 8
$LN4@scalar:
  0001c	8b c6		 mov	 eax, esi
  0001e	5e		 pop	 esi
  0001f	5d		 pop	 ebp
  00020	c2 04 00	 ret	 4
??_G?$CDynamicPoolEx@VCNullDecorator@NEffectUpdateDecorator@@@@UAEPAXI@Z ENDP ; CDynamicPoolEx<NEffectUpdateDecorator::CNullDecorator>::`scalar deleting destructor'
_TEXT	ENDS
; Function compile flags: /Ogtp
; File C:\Users\flourine\Desktop\Xantios\client-src\Code\eterLib\Pool.h
;	COMDAT ?Delete@?$CDynamicPoolEx@VCNullDecorator@NEffectUpdateDecorator@@@@KAXPAVCNullDecorator@NEffectUpdateDecorator@@@Z
_TEXT	SEGMENT
_pkData$ = 8						; size = 4
?Delete@?$CDynamicPoolEx@VCNullDecorator@NEffectUpdateDecorator@@@@KAXPAVCNullDecorator@NEffectUpdateDecorator@@@Z PROC ; CDynamicPoolEx<NEffectUpdateDecorator::CNullDecorator>::Delete, COMDAT

; 232  : 		::operator delete (pkData);

  00000	e9 00 00 00 00	 jmp	 ??3@YAXPAX@Z		; operator delete
?Delete@?$CDynamicPoolEx@VCNullDecorator@NEffectUpdateDecorator@@@@KAXPAVCNullDecorator@NEffectUpdateDecorator@@@Z ENDP ; CDynamicPoolEx<NEffectUpdateDecorator::CNullDecorator>::Delete
_TEXT	ENDS
; Function compile flags: /Ogtp
; File C:\Users\flourine\Desktop\Xantios\client-src\Code\eterLib\Pool.h
; File C:\Program Files\Microsoft Visual Studio\2022\Community\VC\Tools\MSVC\14.34.31933\include\vector
; File C:\Program Files\Microsoft Visual Studio\2022\Community\VC\Tools\MSVC\14.34.31933\include\algorithm
; File C:\Users\flourine\Desktop\Xantios\client-src\Code\eterLib\Pool.h
; File C:\Program Files\Microsoft Visual Studio\2022\Community\VC\Tools\MSVC\14.34.31933\include\algorithm
; File C:\Users\flourine\Desktop\Xantios\client-src\Code\eterLib\Pool.h
; File C:\Program Files\Microsoft Visual Studio\2022\Community\VC\Tools\MSVC\14.34.31933\include\algorithm
; File C:\Program Files\Microsoft Visual Studio\2022\Community\VC\Tools\MSVC\14.34.31933\include\vector
; File C:\Program Files\Microsoft Visual Studio\2022\Community\VC\Tools\MSVC\14.34.31933\include\xmemory
; File C:\Program Files\Microsoft Visual Studio\2022\Community\VC\Tools\MSVC\14.34.31933\include\vector
; File C:\Program Files\Microsoft Visual Studio\2022\Community\VC\Tools\MSVC\14.34.31933\include\xmemory
; File C:\Program Files\Microsoft Visual Studio\2022\Community\VC\Tools\MSVC\14.34.31933\include\vector
; File C:\Program Files\Microsoft Visual Studio\2022\Community\VC\Tools\MSVC\14.34.31933\include\xmemory
; File C:\Program Files\Microsoft Visual Studio\2022\Community\VC\Tools\MSVC\14.34.31933\include\vector
; File C:\Program Files\Microsoft Visual Studio\2022\Community\VC\Tools\MSVC\14.34.31933\include\xmemory
; File C:\Program Files\Microsoft Visual Studio\2022\Community\VC\Tools\MSVC\14.34.31933\include\vector
; File C:\Users\flourine\Desktop\Xantios\client-src\Code\eterLib\Pool.h
; File C:\Program Files\Microsoft Visual Studio\2022\Community\VC\Tools\MSVC\14.34.31933\include\xmemory
; File C:\Users\flourine\Desktop\Xantios\client-src\Code\eterLib\Pool.h
;	COMDAT ??1?$CDynamicPoolEx@VCNullDecorator@NEffectUpdateDecorator@@@@UAE@XZ
_TEXT	SEGMENT
__$EHRec$ = -12						; size = 12
??1?$CDynamicPoolEx@VCNullDecorator@NEffectUpdateDecorator@@@@UAE@XZ PROC ; CDynamicPoolEx<NEffectUpdateDecorator::CNullDecorator>::~CDynamicPoolEx<NEffectUpdateDecorator::CNullDecorator>, COMDAT
; _this$ = ecx

; 136  : 	{

  00000	55		 push	 ebp
  00001	8b ec		 mov	 ebp, esp
  00003	6a ff		 push	 -1
  00005	68 00 00 00 00	 push	 __ehhandler$??1?$CDynamicPoolEx@VCNullDecorator@NEffectUpdateDecorator@@@@UAE@XZ
  0000a	64 a1 00 00 00
	00		 mov	 eax, DWORD PTR fs:0
  00010	50		 push	 eax
  00011	53		 push	 ebx
  00012	56		 push	 esi
  00013	57		 push	 edi
  00014	a1 00 00 00 00	 mov	 eax, DWORD PTR ___security_cookie
  00019	33 c5		 xor	 eax, ebp
  0001b	50		 push	 eax
  0001c	8d 45 f4	 lea	 eax, DWORD PTR __$EHRec$[ebp]
  0001f	64 a3 00 00 00
	00		 mov	 DWORD PTR fs:0, eax
  00025	8b f9		 mov	 edi, ecx
  00027	c7 07 00 00 00
	00		 mov	 DWORD PTR [edi], OFFSET ??_7?$CDynamicPoolEx@VCNullDecorator@NEffectUpdateDecorator@@@@6B@
; File C:\Program Files\Microsoft Visual Studio\2022\Community\VC\Tools\MSVC\14.34.31933\include\vector

; 41   :     _CONSTEXPR20 _Vector_const_iterator(_Tptr _Parg, const _Container_base* _Pvector) noexcept : _Ptr(_Parg) {

  0002d	8b 5f 08	 mov	 ebx, DWORD PTR [edi+8]
; File C:\Program Files\Microsoft Visual Studio\2022\Community\VC\Tools\MSVC\14.34.31933\include\algorithm

; 265  :     for (; _UFirst != _ULast; ++_UFirst) {

  00030	8b 77 04	 mov	 esi, DWORD PTR [edi+4]
  00033	3b f3		 cmp	 esi, ebx
  00035	74 11		 je	 SHORT $LN19@CDynamicPo
$LL20@CDynamicPo:
; File C:\Users\flourine\Desktop\Xantios\client-src\Code\eterLib\Pool.h

; 232  : 		::operator delete (pkData);

  00037	ff 36		 push	 DWORD PTR [esi]
  00039	e8 00 00 00 00	 call	 ??3@YAXPAX@Z		; operator delete
; File C:\Program Files\Microsoft Visual Studio\2022\Community\VC\Tools\MSVC\14.34.31933\include\algorithm

; 265  :     for (; _UFirst != _ULast; ++_UFirst) {

  0003e	83 c6 04	 add	 esi, 4
; File C:\Users\flourine\Desktop\Xantios\client-src\Code\eterLib\Pool.h

; 232  : 		::operator delete (pkData);

  00041	83 c4 04	 add	 esp, 4
; File C:\Program Files\Microsoft Visual Studio\2022\Community\VC\Tools\MSVC\14.34.31933\include\algorithm

; 265  :     for (; _UFirst != _ULast; ++_UFirst) {

  00044	3b f3		 cmp	 esi, ebx
  00046	75 ef		 jne	 SHORT $LL20@CDynamicPo
$LN19@CDynamicPo:
; File C:\Program Files\Microsoft Visual Studio\2022\Community\VC\Tools\MSVC\14.34.31933\include\vector

; 1829 :         if (_Myfirst == _Mylast) { // already empty, nothing to do

  00048	8b 47 04	 mov	 eax, DWORD PTR [edi+4]
  0004b	3b 47 08	 cmp	 eax, DWORD PTR [edi+8]
  0004e	74 03		 je	 SHORT $LN26@CDynamicPo

; 1830 :             // This is an optimization for debug mode: we can avoid taking the debug lock to invalidate iterators.
; 1831 :             // Note that when clearing an empty vector, this will preserve past-the-end iterators, which is allowed by
; 1832 :             // N4901 [tab:container.seq.req] "a.clear() [...] may invalidate the past-the-end iterator".
; 1833 :             return;
; 1834 :         }
; 1835 : 
; 1836 :         _My_data._Orphan_all();
; 1837 :         _Destroy_range(_Myfirst, _Mylast, _Getal());
; 1838 :         _ASAN_VECTOR_MODIFY(static_cast<difference_type>(_Myfirst - _Mylast)); // negative when destroying elements
; 1839 :         _Mylast = _Myfirst;

  00050	89 47 08	 mov	 DWORD PTR [edi+8], eax
$LN26@CDynamicPo:

; 1829 :         if (_Myfirst == _Mylast) { // already empty, nothing to do

  00053	8b 47 10	 mov	 eax, DWORD PTR [edi+16]
  00056	3b 47 14	 cmp	 eax, DWORD PTR [edi+20]
  00059	74 03		 je	 SHORT $LN29@CDynamicPo

; 1830 :             // This is an optimization for debug mode: we can avoid taking the debug lock to invalidate iterators.
; 1831 :             // Note that when clearing an empty vector, this will preserve past-the-end iterators, which is allowed by
; 1832 :             // N4901 [tab:container.seq.req] "a.clear() [...] may invalidate the past-the-end iterator".
; 1833 :             return;
; 1834 :         }
; 1835 : 
; 1836 :         _My_data._Orphan_all();
; 1837 :         _Destroy_range(_Myfirst, _Mylast, _Getal());
; 1838 :         _ASAN_VECTOR_MODIFY(static_cast<difference_type>(_Myfirst - _Mylast)); // negative when destroying elements
; 1839 :         _Mylast = _Myfirst;

  0005b	89 47 14	 mov	 DWORD PTR [edi+20], eax
$LN29@CDynamicPo:

; 2107 :         if (_Myfirst) { // destroy and deallocate old array

  0005e	85 c0		 test	 eax, eax
  00060	74 41		 je	 SHORT $LN35@CDynamicPo

; 2108 :             _Destroy_range(_Myfirst, _Mylast, _Al);
; 2109 :             _ASAN_VECTOR_REMOVE;
; 2110 :             _Al.deallocate(_Myfirst, static_cast<size_type>(_Myend - _Myfirst));

  00062	8b 4f 18	 mov	 ecx, DWORD PTR [edi+24]
  00065	2b c8		 sub	 ecx, eax
; File C:\Program Files\Microsoft Visual Studio\2022\Community\VC\Tools\MSVC\14.34.31933\include\xmemory

; 830  :         _Deallocate<_New_alignof<_Ty>>(_Ptr, sizeof(_Ty) * _Count);

  00067	83 e1 fc	 and	 ecx, -4			; fffffffcH

; 251  :         if (_Bytes >= _Big_allocation_threshold) { // boost the alignment of big allocations to help autovectorization

  0006a	81 f9 00 10 00
	00		 cmp	 ecx, 4096		; 00001000H
  00070	72 12		 jb	 SHORT $LN51@CDynamicPo

; 150  :     const uintptr_t _Ptr_container   = _Ptr_user[-1];

  00072	8b 50 fc	 mov	 edx, DWORD PTR [eax-4]
  00075	83 c1 23	 add	 ecx, 35			; 00000023H

; 151  : 
; 152  :     // If the following asserts, it likely means that we are performing
; 153  :     // an aligned delete on memory coming from an unaligned allocation.
; 154  :     _STL_ASSERT(_Ptr_user[-2] == _Big_allocation_sentinel, "invalid argument");
; 155  : 
; 156  :     // Extra paranoia on aligned allocation/deallocation; ensure _Ptr_container is
; 157  :     // in range [_Min_back_shift, _Non_user_size]
; 158  : #ifdef _DEBUG
; 159  :     constexpr uintptr_t _Min_back_shift = 2 * sizeof(void*);
; 160  : #else // ^^^ _DEBUG ^^^ // vvv !_DEBUG vvv
; 161  :     constexpr uintptr_t _Min_back_shift = sizeof(void*);
; 162  : #endif // _DEBUG
; 163  :     const uintptr_t _Back_shift = reinterpret_cast<uintptr_t>(_Ptr) - _Ptr_container;

  00078	2b c2		 sub	 eax, edx

; 164  :     _STL_VERIFY(_Back_shift >= _Min_back_shift && _Back_shift <= _Non_user_size, "invalid argument");

  0007a	83 c0 fc	 add	 eax, -4			; fffffffcH
  0007d	83 f8 1f	 cmp	 eax, 31			; 0000001fH
  00080	77 7b		 ja	 SHORT $LN73@CDynamicPo

; 165  :     _Ptr = reinterpret_cast<void*>(_Ptr_container);

  00082	8b c2		 mov	 eax, edx
$LN51@CDynamicPo:

; 255  :         ::operator delete(_Ptr, _Bytes);

  00084	51		 push	 ecx
  00085	50		 push	 eax
  00086	e8 00 00 00 00	 call	 ??3@YAXPAXI@Z		; operator delete
; File C:\Program Files\Microsoft Visual Studio\2022\Community\VC\Tools\MSVC\14.34.31933\include\vector

; 2112 :             _Myfirst = nullptr;

  0008b	c7 47 10 00 00
	00 00		 mov	 DWORD PTR [edi+16], 0
; File C:\Program Files\Microsoft Visual Studio\2022\Community\VC\Tools\MSVC\14.34.31933\include\xmemory

; 255  :         ::operator delete(_Ptr, _Bytes);

  00092	83 c4 08	 add	 esp, 8
; File C:\Program Files\Microsoft Visual Studio\2022\Community\VC\Tools\MSVC\14.34.31933\include\vector

; 2113 :             _Mylast  = nullptr;

  00095	c7 47 14 00 00
	00 00		 mov	 DWORD PTR [edi+20], 0

; 2114 :             _Myend   = nullptr;

  0009c	c7 47 18 00 00
	00 00		 mov	 DWORD PTR [edi+24], 0
$LN35@CDynamicPo:

; 2107 :         if (_Myfirst) { // destroy and deallocate old array

  000a3	8b 47 04	 mov	 eax, DWORD PTR [edi+4]
  000a6	85 c0		 test	 eax, eax
  000a8	74 41		 je	 SHORT $LN60@CDynamicPo

; 2108 :             _Destroy_range(_Myfirst, _Mylast, _Al);
; 2109 :             _ASAN_VECTOR_REMOVE;
; 2110 :             _Al.deallocate(_Myfirst, static_cast<size_type>(_Myend - _Myfirst));

  000aa	8b 4f 0c	 mov	 ecx, DWORD PTR [edi+12]
  000ad	2b c8		 sub	 ecx, eax
; File C:\Program Files\Microsoft Visual Studio\2022\Community\VC\Tools\MSVC\14.34.31933\include\xmemory

; 830  :         _Deallocate<_New_alignof<_Ty>>(_Ptr, sizeof(_Ty) * _Count);

  000af	83 e1 fc	 and	 ecx, -4			; fffffffcH

; 251  :         if (_Bytes >= _Big_allocation_threshold) { // boost the alignment of big allocations to help autovectorization

  000b2	81 f9 00 10 00
	00		 cmp	 ecx, 4096		; 00001000H
  000b8	72 12		 jb	 SHORT $LN76@CDynamicPo

; 150  :     const uintptr_t _Ptr_container   = _Ptr_user[-1];

  000ba	8b 50 fc	 mov	 edx, DWORD PTR [eax-4]
  000bd	83 c1 23	 add	 ecx, 35			; 00000023H

; 151  : 
; 152  :     // If the following asserts, it likely means that we are performing
; 153  :     // an aligned delete on memory coming from an unaligned allocation.
; 154  :     _STL_ASSERT(_Ptr_user[-2] == _Big_allocation_sentinel, "invalid argument");
; 155  : 
; 156  :     // Extra paranoia on aligned allocation/deallocation; ensure _Ptr_container is
; 157  :     // in range [_Min_back_shift, _Non_user_size]
; 158  : #ifdef _DEBUG
; 159  :     constexpr uintptr_t _Min_back_shift = 2 * sizeof(void*);
; 160  : #else // ^^^ _DEBUG ^^^ // vvv !_DEBUG vvv
; 161  :     constexpr uintptr_t _Min_back_shift = sizeof(void*);
; 162  : #endif // _DEBUG
; 163  :     const uintptr_t _Back_shift = reinterpret_cast<uintptr_t>(_Ptr) - _Ptr_container;

  000c0	2b c2		 sub	 eax, edx

; 164  :     _STL_VERIFY(_Back_shift >= _Min_back_shift && _Back_shift <= _Non_user_size, "invalid argument");

  000c2	83 c0 fc	 add	 eax, -4			; fffffffcH
  000c5	83 f8 1f	 cmp	 eax, 31			; 0000001fH
  000c8	77 33		 ja	 SHORT $LN73@CDynamicPo

; 165  :     _Ptr = reinterpret_cast<void*>(_Ptr_container);

  000ca	8b c2		 mov	 eax, edx
$LN76@CDynamicPo:

; 255  :         ::operator delete(_Ptr, _Bytes);

  000cc	51		 push	 ecx
  000cd	50		 push	 eax
  000ce	e8 00 00 00 00	 call	 ??3@YAXPAXI@Z		; operator delete
; File C:\Program Files\Microsoft Visual Studio\2022\Community\VC\Tools\MSVC\14.34.31933\include\vector

; 2112 :             _Myfirst = nullptr;

  000d3	c7 47 04 00 00
	00 00		 mov	 DWORD PTR [edi+4], 0
; File C:\Program Files\Microsoft Visual Studio\2022\Community\VC\Tools\MSVC\14.34.31933\include\xmemory

; 255  :         ::operator delete(_Ptr, _Bytes);

  000da	83 c4 08	 add	 esp, 8
; File C:\Program Files\Microsoft Visual Studio\2022\Community\VC\Tools\MSVC\14.34.31933\include\vector

; 2113 :             _Mylast  = nullptr;

  000dd	c7 47 08 00 00
	00 00		 mov	 DWORD PTR [edi+8], 0

; 2114 :             _Myend   = nullptr;

  000e4	c7 47 0c 00 00
	00 00		 mov	 DWORD PTR [edi+12], 0
$LN60@CDynamicPo:
; File C:\Users\flourine\Desktop\Xantios\client-src\Code\eterLib\Pool.h

; 146  : 	}

  000eb	8b 4d f4	 mov	 ecx, DWORD PTR __$EHRec$[ebp]
  000ee	64 89 0d 00 00
	00 00		 mov	 DWORD PTR fs:0, ecx
  000f5	59		 pop	 ecx
  000f6	5f		 pop	 edi
  000f7	5e		 pop	 esi
  000f8	5b		 pop	 ebx
  000f9	8b e5		 mov	 esp, ebp
  000fb	5d		 pop	 ebp
  000fc	c3		 ret	 0
$LN73@CDynamicPo:
; File C:\Program Files\Microsoft Visual Studio\2022\Community\VC\Tools\MSVC\14.34.31933\include\xmemory

; 164  :     _STL_VERIFY(_Back_shift >= _Min_back_shift && _Back_shift <= _Non_user_size, "invalid argument");

  000fd	e8 00 00 00 00	 call	 __invalid_parameter_noinfo_noreturn
$LN86@CDynamicPo:
  00102	cc		 int	 3
  00103	cc		 int	 3
  00104	cc		 int	 3
  00105	cc		 int	 3
  00106	cc		 int	 3
  00107	cc		 int	 3
_TEXT	ENDS
;	COMDAT text$x
text$x	SEGMENT
__ehhandler$??1?$CDynamicPoolEx@VCNullDecorator@NEffectUpdateDecorator@@@@UAE@XZ:
  00000	90		 npad	 1
  00001	90		 npad	 1
  00002	8b 54 24 08	 mov	 edx, DWORD PTR [esp+8]
  00006	8d 42 0c	 lea	 eax, DWORD PTR [edx+12]
  00009	8b 4a f0	 mov	 ecx, DWORD PTR [edx-16]
  0000c	33 c8		 xor	 ecx, eax
  0000e	e8 00 00 00 00	 call	 @__security_check_cookie@4
  00013	b8 00 00 00 00	 mov	 eax, OFFSET __ehfuncinfo$??1?$CDynamicPoolEx@VCNullDecorator@NEffectUpdateDecorator@@@@UAE@XZ
  00018	e9 00 00 00 00	 jmp	 ___CxxFrameHandler3
text$x	ENDS
??1?$CDynamicPoolEx@VCNullDecorator@NEffectUpdateDecorator@@@@UAE@XZ ENDP ; CDynamicPoolEx<NEffectUpdateDecorator::CNullDecorator>::~CDynamicPoolEx<NEffectUpdateDecorator::CNullDecorator>
; Function compile flags: /Ogtp
;	COMDAT ??_G?$CDynamicPoolEx@VCTextureAnimationCWDecorator@NEffectUpdateDecorator@@@@UAEPAXI@Z
_TEXT	SEGMENT
___flags$ = 8						; size = 4
??_G?$CDynamicPoolEx@VCTextureAnimationCWDecorator@NEffectUpdateDecorator@@@@UAEPAXI@Z PROC ; CDynamicPoolEx<NEffectUpdateDecorator::CTextureAnimationCWDecorator>::`scalar deleting destructor', COMDAT
; _this$ = ecx
  00000	55		 push	 ebp
  00001	8b ec		 mov	 ebp, esp
  00003	56		 push	 esi
  00004	8b f1		 mov	 esi, ecx
  00006	e8 00 00 00 00	 call	 ??1?$CDynamicPoolEx@VCTextureAnimationCWDecorator@NEffectUpdateDecorator@@@@UAE@XZ ; CDynamicPoolEx<NEffectUpdateDecorator::CTextureAnimationCWDecorator>::~CDynamicPoolEx<NEffectUpdateDecorator::CTextureAnimationCWDecorator>
  0000b	f6 45 08 01	 test	 BYTE PTR ___flags$[ebp], 1
  0000f	74 0b		 je	 SHORT $LN4@scalar
  00011	6a 24		 push	 36			; 00000024H
  00013	56		 push	 esi
  00014	e8 00 00 00 00	 call	 ??3@YAXPAXI@Z		; operator delete
  00019	83 c4 08	 add	 esp, 8
$LN4@scalar:
  0001c	8b c6		 mov	 eax, esi
  0001e	5e		 pop	 esi
  0001f	5d		 pop	 ebp
  00020	c2 04 00	 ret	 4
??_G?$CDynamicPoolEx@VCTextureAnimationCWDecorator@NEffectUpdateDecorator@@@@UAEPAXI@Z ENDP ; CDynamicPoolEx<NEffectUpdateDecorator::CTextureAnimationCWDecorator>::`scalar deleting destructor'
_TEXT	ENDS
; Function compile flags: /Ogtp
; File C:\Users\flourine\Desktop\Xantios\client-src\Code\eterLib\Pool.h
;	COMDAT ?Delete@?$CDynamicPoolEx@VCTextureAnimationCWDecorator@NEffectUpdateDecorator@@@@KAXPAVCTextureAnimationCWDecorator@NEffectUpdateDecorator@@@Z
_TEXT	SEGMENT
_pkData$ = 8						; size = 4
?Delete@?$CDynamicPoolEx@VCTextureAnimationCWDecorator@NEffectUpdateDecorator@@@@KAXPAVCTextureAnimationCWDecorator@NEffectUpdateDecorator@@@Z PROC ; CDynamicPoolEx<NEffectUpdateDecorator::CTextureAnimationCWDecorator>::Delete, COMDAT

; 232  : 		::operator delete (pkData);

  00000	e9 00 00 00 00	 jmp	 ??3@YAXPAX@Z		; operator delete
?Delete@?$CDynamicPoolEx@VCTextureAnimationCWDecorator@NEffectUpdateDecorator@@@@KAXPAVCTextureAnimationCWDecorator@NEffectUpdateDecorator@@@Z ENDP ; CDynamicPoolEx<NEffectUpdateDecorator::CTextureAnimationCWDecorator>::Delete
_TEXT	ENDS
; Function compile flags: /Ogtp
; File C:\Users\flourine\Desktop\Xantios\client-src\Code\eterLib\Pool.h
; File C:\Program Files\Microsoft Visual Studio\2022\Community\VC\Tools\MSVC\14.34.31933\include\vector
; File C:\Program Files\Microsoft Visual Studio\2022\Community\VC\Tools\MSVC\14.34.31933\include\algorithm
; File C:\Users\flourine\Desktop\Xantios\client-src\Code\eterLib\Pool.h
; File C:\Program Files\Microsoft Visual Studio\2022\Community\VC\Tools\MSVC\14.34.31933\include\algorithm
; File C:\Users\flourine\Desktop\Xantios\client-src\Code\eterLib\Pool.h
; File C:\Program Files\Microsoft Visual Studio\2022\Community\VC\Tools\MSVC\14.34.31933\include\algorithm
; File C:\Program Files\Microsoft Visual Studio\2022\Community\VC\Tools\MSVC\14.34.31933\include\vector
; File C:\Program Files\Microsoft Visual Studio\2022\Community\VC\Tools\MSVC\14.34.31933\include\xmemory
; File C:\Program Files\Microsoft Visual Studio\2022\Community\VC\Tools\MSVC\14.34.31933\include\vector
; File C:\Program Files\Microsoft Visual Studio\2022\Community\VC\Tools\MSVC\14.34.31933\include\xmemory
; File C:\Program Files\Microsoft Visual Studio\2022\Community\VC\Tools\MSVC\14.34.31933\include\vector
; File C:\Program Files\Microsoft Visual Studio\2022\Community\VC\Tools\MSVC\14.34.31933\include\xmemory
; File C:\Program Files\Microsoft Visual Studio\2022\Community\VC\Tools\MSVC\14.34.31933\include\vector
; File C:\Program Files\Microsoft Visual Studio\2022\Community\VC\Tools\MSVC\14.34.31933\include\xmemory
; File C:\Program Files\Microsoft Visual Studio\2022\Community\VC\Tools\MSVC\14.34.31933\include\vector
; File C:\Users\flourine\Desktop\Xantios\client-src\Code\eterLib\Pool.h
; File C:\Program Files\Microsoft Visual Studio\2022\Community\VC\Tools\MSVC\14.34.31933\include\xmemory
; File C:\Users\flourine\Desktop\Xantios\client-src\Code\eterLib\Pool.h
;	COMDAT ??1?$CDynamicPoolEx@VCTextureAnimationCWDecorator@NEffectUpdateDecorator@@@@UAE@XZ
_TEXT	SEGMENT
__$EHRec$ = -12						; size = 12
??1?$CDynamicPoolEx@VCTextureAnimationCWDecorator@NEffectUpdateDecorator@@@@UAE@XZ PROC ; CDynamicPoolEx<NEffectUpdateDecorator::CTextureAnimationCWDecorator>::~CDynamicPoolEx<NEffectUpdateDecorator::CTextureAnimationCWDecorator>, COMDAT
; _this$ = ecx

; 136  : 	{

  00000	55		 push	 ebp
  00001	8b ec		 mov	 ebp, esp
  00003	6a ff		 push	 -1
  00005	68 00 00 00 00	 push	 __ehhandler$??1?$CDynamicPoolEx@VCTextureAnimationCWDecorator@NEffectUpdateDecorator@@@@UAE@XZ
  0000a	64 a1 00 00 00
	00		 mov	 eax, DWORD PTR fs:0
  00010	50		 push	 eax
  00011	53		 push	 ebx
  00012	56		 push	 esi
  00013	57		 push	 edi
  00014	a1 00 00 00 00	 mov	 eax, DWORD PTR ___security_cookie
  00019	33 c5		 xor	 eax, ebp
  0001b	50		 push	 eax
  0001c	8d 45 f4	 lea	 eax, DWORD PTR __$EHRec$[ebp]
  0001f	64 a3 00 00 00
	00		 mov	 DWORD PTR fs:0, eax
  00025	8b f9		 mov	 edi, ecx
  00027	c7 07 00 00 00
	00		 mov	 DWORD PTR [edi], OFFSET ??_7?$CDynamicPoolEx@VCTextureAnimationCWDecorator@NEffectUpdateDecorator@@@@6B@
; File C:\Program Files\Microsoft Visual Studio\2022\Community\VC\Tools\MSVC\14.34.31933\include\vector

; 41   :     _CONSTEXPR20 _Vector_const_iterator(_Tptr _Parg, const _Container_base* _Pvector) noexcept : _Ptr(_Parg) {

  0002d	8b 5f 08	 mov	 ebx, DWORD PTR [edi+8]
; File C:\Program Files\Microsoft Visual Studio\2022\Community\VC\Tools\MSVC\14.34.31933\include\algorithm

; 265  :     for (; _UFirst != _ULast; ++_UFirst) {

  00030	8b 77 04	 mov	 esi, DWORD PTR [edi+4]
  00033	3b f3		 cmp	 esi, ebx
  00035	74 11		 je	 SHORT $LN19@CDynamicPo
$LL20@CDynamicPo:
; File C:\Users\flourine\Desktop\Xantios\client-src\Code\eterLib\Pool.h

; 232  : 		::operator delete (pkData);

  00037	ff 36		 push	 DWORD PTR [esi]
  00039	e8 00 00 00 00	 call	 ??3@YAXPAX@Z		; operator delete
; File C:\Program Files\Microsoft Visual Studio\2022\Community\VC\Tools\MSVC\14.34.31933\include\algorithm

; 265  :     for (; _UFirst != _ULast; ++_UFirst) {

  0003e	83 c6 04	 add	 esi, 4
; File C:\Users\flourine\Desktop\Xantios\client-src\Code\eterLib\Pool.h

; 232  : 		::operator delete (pkData);

  00041	83 c4 04	 add	 esp, 4
; File C:\Program Files\Microsoft Visual Studio\2022\Community\VC\Tools\MSVC\14.34.31933\include\algorithm

; 265  :     for (; _UFirst != _ULast; ++_UFirst) {

  00044	3b f3		 cmp	 esi, ebx
  00046	75 ef		 jne	 SHORT $LL20@CDynamicPo
$LN19@CDynamicPo:
; File C:\Program Files\Microsoft Visual Studio\2022\Community\VC\Tools\MSVC\14.34.31933\include\vector

; 1829 :         if (_Myfirst == _Mylast) { // already empty, nothing to do

  00048	8b 47 04	 mov	 eax, DWORD PTR [edi+4]
  0004b	3b 47 08	 cmp	 eax, DWORD PTR [edi+8]
  0004e	74 03		 je	 SHORT $LN26@CDynamicPo

; 1830 :             // This is an optimization for debug mode: we can avoid taking the debug lock to invalidate iterators.
; 1831 :             // Note that when clearing an empty vector, this will preserve past-the-end iterators, which is allowed by
; 1832 :             // N4901 [tab:container.seq.req] "a.clear() [...] may invalidate the past-the-end iterator".
; 1833 :             return;
; 1834 :         }
; 1835 : 
; 1836 :         _My_data._Orphan_all();
; 1837 :         _Destroy_range(_Myfirst, _Mylast, _Getal());
; 1838 :         _ASAN_VECTOR_MODIFY(static_cast<difference_type>(_Myfirst - _Mylast)); // negative when destroying elements
; 1839 :         _Mylast = _Myfirst;

  00050	89 47 08	 mov	 DWORD PTR [edi+8], eax
$LN26@CDynamicPo:

; 1829 :         if (_Myfirst == _Mylast) { // already empty, nothing to do

  00053	8b 47 10	 mov	 eax, DWORD PTR [edi+16]
  00056	3b 47 14	 cmp	 eax, DWORD PTR [edi+20]
  00059	74 03		 je	 SHORT $LN29@CDynamicPo

; 1830 :             // This is an optimization for debug mode: we can avoid taking the debug lock to invalidate iterators.
; 1831 :             // Note that when clearing an empty vector, this will preserve past-the-end iterators, which is allowed by
; 1832 :             // N4901 [tab:container.seq.req] "a.clear() [...] may invalidate the past-the-end iterator".
; 1833 :             return;
; 1834 :         }
; 1835 : 
; 1836 :         _My_data._Orphan_all();
; 1837 :         _Destroy_range(_Myfirst, _Mylast, _Getal());
; 1838 :         _ASAN_VECTOR_MODIFY(static_cast<difference_type>(_Myfirst - _Mylast)); // negative when destroying elements
; 1839 :         _Mylast = _Myfirst;

  0005b	89 47 14	 mov	 DWORD PTR [edi+20], eax
$LN29@CDynamicPo:

; 2107 :         if (_Myfirst) { // destroy and deallocate old array

  0005e	85 c0		 test	 eax, eax
  00060	74 41		 je	 SHORT $LN35@CDynamicPo

; 2108 :             _Destroy_range(_Myfirst, _Mylast, _Al);
; 2109 :             _ASAN_VECTOR_REMOVE;
; 2110 :             _Al.deallocate(_Myfirst, static_cast<size_type>(_Myend - _Myfirst));

  00062	8b 4f 18	 mov	 ecx, DWORD PTR [edi+24]
  00065	2b c8		 sub	 ecx, eax
; File C:\Program Files\Microsoft Visual Studio\2022\Community\VC\Tools\MSVC\14.34.31933\include\xmemory

; 830  :         _Deallocate<_New_alignof<_Ty>>(_Ptr, sizeof(_Ty) * _Count);

  00067	83 e1 fc	 and	 ecx, -4			; fffffffcH

; 251  :         if (_Bytes >= _Big_allocation_threshold) { // boost the alignment of big allocations to help autovectorization

  0006a	81 f9 00 10 00
	00		 cmp	 ecx, 4096		; 00001000H
  00070	72 12		 jb	 SHORT $LN51@CDynamicPo

; 150  :     const uintptr_t _Ptr_container   = _Ptr_user[-1];

  00072	8b 50 fc	 mov	 edx, DWORD PTR [eax-4]
  00075	83 c1 23	 add	 ecx, 35			; 00000023H

; 151  : 
; 152  :     // If the following asserts, it likely means that we are performing
; 153  :     // an aligned delete on memory coming from an unaligned allocation.
; 154  :     _STL_ASSERT(_Ptr_user[-2] == _Big_allocation_sentinel, "invalid argument");
; 155  : 
; 156  :     // Extra paranoia on aligned allocation/deallocation; ensure _Ptr_container is
; 157  :     // in range [_Min_back_shift, _Non_user_size]
; 158  : #ifdef _DEBUG
; 159  :     constexpr uintptr_t _Min_back_shift = 2 * sizeof(void*);
; 160  : #else // ^^^ _DEBUG ^^^ // vvv !_DEBUG vvv
; 161  :     constexpr uintptr_t _Min_back_shift = sizeof(void*);
; 162  : #endif // _DEBUG
; 163  :     const uintptr_t _Back_shift = reinterpret_cast<uintptr_t>(_Ptr) - _Ptr_container;

  00078	2b c2		 sub	 eax, edx

; 164  :     _STL_VERIFY(_Back_shift >= _Min_back_shift && _Back_shift <= _Non_user_size, "invalid argument");

  0007a	83 c0 fc	 add	 eax, -4			; fffffffcH
  0007d	83 f8 1f	 cmp	 eax, 31			; 0000001fH
  00080	77 7b		 ja	 SHORT $LN73@CDynamicPo

; 165  :     _Ptr = reinterpret_cast<void*>(_Ptr_container);

  00082	8b c2		 mov	 eax, edx
$LN51@CDynamicPo:

; 255  :         ::operator delete(_Ptr, _Bytes);

  00084	51		 push	 ecx
  00085	50		 push	 eax
  00086	e8 00 00 00 00	 call	 ??3@YAXPAXI@Z		; operator delete
; File C:\Program Files\Microsoft Visual Studio\2022\Community\VC\Tools\MSVC\14.34.31933\include\vector

; 2112 :             _Myfirst = nullptr;

  0008b	c7 47 10 00 00
	00 00		 mov	 DWORD PTR [edi+16], 0
; File C:\Program Files\Microsoft Visual Studio\2022\Community\VC\Tools\MSVC\14.34.31933\include\xmemory

; 255  :         ::operator delete(_Ptr, _Bytes);

  00092	83 c4 08	 add	 esp, 8
; File C:\Program Files\Microsoft Visual Studio\2022\Community\VC\Tools\MSVC\14.34.31933\include\vector

; 2113 :             _Mylast  = nullptr;

  00095	c7 47 14 00 00
	00 00		 mov	 DWORD PTR [edi+20], 0

; 2114 :             _Myend   = nullptr;

  0009c	c7 47 18 00 00
	00 00		 mov	 DWORD PTR [edi+24], 0
$LN35@CDynamicPo:

; 2107 :         if (_Myfirst) { // destroy and deallocate old array

  000a3	8b 47 04	 mov	 eax, DWORD PTR [edi+4]
  000a6	85 c0		 test	 eax, eax
  000a8	74 41		 je	 SHORT $LN60@CDynamicPo

; 2108 :             _Destroy_range(_Myfirst, _Mylast, _Al);
; 2109 :             _ASAN_VECTOR_REMOVE;
; 2110 :             _Al.deallocate(_Myfirst, static_cast<size_type>(_Myend - _Myfirst));

  000aa	8b 4f 0c	 mov	 ecx, DWORD PTR [edi+12]
  000ad	2b c8		 sub	 ecx, eax
; File C:\Program Files\Microsoft Visual Studio\2022\Community\VC\Tools\MSVC\14.34.31933\include\xmemory

; 830  :         _Deallocate<_New_alignof<_Ty>>(_Ptr, sizeof(_Ty) * _Count);

  000af	83 e1 fc	 and	 ecx, -4			; fffffffcH

; 251  :         if (_Bytes >= _Big_allocation_threshold) { // boost the alignment of big allocations to help autovectorization

  000b2	81 f9 00 10 00
	00		 cmp	 ecx, 4096		; 00001000H
  000b8	72 12		 jb	 SHORT $LN76@CDynamicPo

; 150  :     const uintptr_t _Ptr_container   = _Ptr_user[-1];

  000ba	8b 50 fc	 mov	 edx, DWORD PTR [eax-4]
  000bd	83 c1 23	 add	 ecx, 35			; 00000023H

; 151  : 
; 152  :     // If the following asserts, it likely means that we are performing
; 153  :     // an aligned delete on memory coming from an unaligned allocation.
; 154  :     _STL_ASSERT(_Ptr_user[-2] == _Big_allocation_sentinel, "invalid argument");
; 155  : 
; 156  :     // Extra paranoia on aligned allocation/deallocation; ensure _Ptr_container is
; 157  :     // in range [_Min_back_shift, _Non_user_size]
; 158  : #ifdef _DEBUG
; 159  :     constexpr uintptr_t _Min_back_shift = 2 * sizeof(void*);
; 160  : #else // ^^^ _DEBUG ^^^ // vvv !_DEBUG vvv
; 161  :     constexpr uintptr_t _Min_back_shift = sizeof(void*);
; 162  : #endif // _DEBUG
; 163  :     const uintptr_t _Back_shift = reinterpret_cast<uintptr_t>(_Ptr) - _Ptr_container;

  000c0	2b c2		 sub	 eax, edx

; 164  :     _STL_VERIFY(_Back_shift >= _Min_back_shift && _Back_shift <= _Non_user_size, "invalid argument");

  000c2	83 c0 fc	 add	 eax, -4			; fffffffcH
  000c5	83 f8 1f	 cmp	 eax, 31			; 0000001fH
  000c8	77 33		 ja	 SHORT $LN73@CDynamicPo

; 165  :     _Ptr = reinterpret_cast<void*>(_Ptr_container);

  000ca	8b c2		 mov	 eax, edx
$LN76@CDynamicPo:

; 255  :         ::operator delete(_Ptr, _Bytes);

  000cc	51		 push	 ecx
  000cd	50		 push	 eax
  000ce	e8 00 00 00 00	 call	 ??3@YAXPAXI@Z		; operator delete
; File C:\Program Files\Microsoft Visual Studio\2022\Community\VC\Tools\MSVC\14.34.31933\include\vector

; 2112 :             _Myfirst = nullptr;

  000d3	c7 47 04 00 00
	00 00		 mov	 DWORD PTR [edi+4], 0
; File C:\Program Files\Microsoft Visual Studio\2022\Community\VC\Tools\MSVC\14.34.31933\include\xmemory

; 255  :         ::operator delete(_Ptr, _Bytes);

  000da	83 c4 08	 add	 esp, 8
; File C:\Program Files\Microsoft Visual Studio\2022\Community\VC\Tools\MSVC\14.34.31933\include\vector

; 2113 :             _Mylast  = nullptr;

  000dd	c7 47 08 00 00
	00 00		 mov	 DWORD PTR [edi+8], 0

; 2114 :             _Myend   = nullptr;

  000e4	c7 47 0c 00 00
	00 00		 mov	 DWORD PTR [edi+12], 0
$LN60@CDynamicPo:
; File C:\Users\flourine\Desktop\Xantios\client-src\Code\eterLib\Pool.h

; 146  : 	}

  000eb	8b 4d f4	 mov	 ecx, DWORD PTR __$EHRec$[ebp]
  000ee	64 89 0d 00 00
	00 00		 mov	 DWORD PTR fs:0, ecx
  000f5	59		 pop	 ecx
  000f6	5f		 pop	 edi
  000f7	5e		 pop	 esi
  000f8	5b		 pop	 ebx
  000f9	8b e5		 mov	 esp, ebp
  000fb	5d		 pop	 ebp
  000fc	c3		 ret	 0
$LN73@CDynamicPo:
; File C:\Program Files\Microsoft Visual Studio\2022\Community\VC\Tools\MSVC\14.34.31933\include\xmemory

; 164  :     _STL_VERIFY(_Back_shift >= _Min_back_shift && _Back_shift <= _Non_user_size, "invalid argument");

  000fd	e8 00 00 00 00	 call	 __invalid_parameter_noinfo_noreturn
$LN86@CDynamicPo:
  00102	cc		 int	 3
  00103	cc		 int	 3
  00104	cc		 int	 3
  00105	cc		 int	 3
  00106	cc		 int	 3
  00107	cc		 int	 3
_TEXT	ENDS
;	COMDAT text$x
text$x	SEGMENT
__ehhandler$??1?$CDynamicPoolEx@VCTextureAnimationCWDecorator@NEffectUpdateDecorator@@@@UAE@XZ:
  00000	90		 npad	 1
  00001	90		 npad	 1
  00002	8b 54 24 08	 mov	 edx, DWORD PTR [esp+8]
  00006	8d 42 0c	 lea	 eax, DWORD PTR [edx+12]
  00009	8b 4a f0	 mov	 ecx, DWORD PTR [edx-16]
  0000c	33 c8		 xor	 ecx, eax
  0000e	e8 00 00 00 00	 call	 @__security_check_cookie@4
  00013	b8 00 00 00 00	 mov	 eax, OFFSET __ehfuncinfo$??1?$CDynamicPoolEx@VCTextureAnimationCWDecorator@NEffectUpdateDecorator@@@@UAE@XZ
  00018	e9 00 00 00 00	 jmp	 ___CxxFrameHandler3
text$x	ENDS
??1?$CDynamicPoolEx@VCTextureAnimationCWDecorator@NEffectUpdateDecorator@@@@UAE@XZ ENDP ; CDynamicPoolEx<NEffectUpdateDecorator::CTextureAnimationCWDecorator>::~CDynamicPoolEx<NEffectUpdateDecorator::CTextureAnimationCWDecorator>
; Function compile flags: /Ogtp
;	COMDAT ??_G?$CDynamicPoolEx@VCTextureAnimationCCWDecorator@NEffectUpdateDecorator@@@@UAEPAXI@Z
_TEXT	SEGMENT
___flags$ = 8						; size = 4
??_G?$CDynamicPoolEx@VCTextureAnimationCCWDecorator@NEffectUpdateDecorator@@@@UAEPAXI@Z PROC ; CDynamicPoolEx<NEffectUpdateDecorator::CTextureAnimationCCWDecorator>::`scalar deleting destructor', COMDAT
; _this$ = ecx
  00000	55		 push	 ebp
  00001	8b ec		 mov	 ebp, esp
  00003	56		 push	 esi
  00004	8b f1		 mov	 esi, ecx
  00006	e8 00 00 00 00	 call	 ??1?$CDynamicPoolEx@VCTextureAnimationCCWDecorator@NEffectUpdateDecorator@@@@UAE@XZ ; CDynamicPoolEx<NEffectUpdateDecorator::CTextureAnimationCCWDecorator>::~CDynamicPoolEx<NEffectUpdateDecorator::CTextureAnimationCCWDecorator>
  0000b	f6 45 08 01	 test	 BYTE PTR ___flags$[ebp], 1
  0000f	74 0b		 je	 SHORT $LN4@scalar
  00011	6a 24		 push	 36			; 00000024H
  00013	56		 push	 esi
  00014	e8 00 00 00 00	 call	 ??3@YAXPAXI@Z		; operator delete
  00019	83 c4 08	 add	 esp, 8
$LN4@scalar:
  0001c	8b c6		 mov	 eax, esi
  0001e	5e		 pop	 esi
  0001f	5d		 pop	 ebp
  00020	c2 04 00	 ret	 4
??_G?$CDynamicPoolEx@VCTextureAnimationCCWDecorator@NEffectUpdateDecorator@@@@UAEPAXI@Z ENDP ; CDynamicPoolEx<NEffectUpdateDecorator::CTextureAnimationCCWDecorator>::`scalar deleting destructor'
_TEXT	ENDS
; Function compile flags: /Ogtp
; File C:\Users\flourine\Desktop\Xantios\client-src\Code\eterLib\Pool.h
;	COMDAT ?Delete@?$CDynamicPoolEx@VCTextureAnimationCCWDecorator@NEffectUpdateDecorator@@@@KAXPAVCTextureAnimationCCWDecorator@NEffectUpdateDecorator@@@Z
_TEXT	SEGMENT
_pkData$ = 8						; size = 4
?Delete@?$CDynamicPoolEx@VCTextureAnimationCCWDecorator@NEffectUpdateDecorator@@@@KAXPAVCTextureAnimationCCWDecorator@NEffectUpdateDecorator@@@Z PROC ; CDynamicPoolEx<NEffectUpdateDecorator::CTextureAnimationCCWDecorator>::Delete, COMDAT

; 232  : 		::operator delete (pkData);

  00000	e9 00 00 00 00	 jmp	 ??3@YAXPAX@Z		; operator delete
?Delete@?$CDynamicPoolEx@VCTextureAnimationCCWDecorator@NEffectUpdateDecorator@@@@KAXPAVCTextureAnimationCCWDecorator@NEffectUpdateDecorator@@@Z ENDP ; CDynamicPoolEx<NEffectUpdateDecorator::CTextureAnimationCCWDecorator>::Delete
_TEXT	ENDS
; Function compile flags: /Ogtp
; File C:\Users\flourine\Desktop\Xantios\client-src\Code\eterLib\Pool.h
; File C:\Program Files\Microsoft Visual Studio\2022\Community\VC\Tools\MSVC\14.34.31933\include\vector
; File C:\Program Files\Microsoft Visual Studio\2022\Community\VC\Tools\MSVC\14.34.31933\include\algorithm
; File C:\Users\flourine\Desktop\Xantios\client-src\Code\eterLib\Pool.h
; File C:\Program Files\Microsoft Visual Studio\2022\Community\VC\Tools\MSVC\14.34.31933\include\algorithm
; File C:\Users\flourine\Desktop\Xantios\client-src\Code\eterLib\Pool.h
; File C:\Program Files\Microsoft Visual Studio\2022\Community\VC\Tools\MSVC\14.34.31933\include\algorithm
; File C:\Program Files\Microsoft Visual Studio\2022\Community\VC\Tools\MSVC\14.34.31933\include\vector
; File C:\Program Files\Microsoft Visual Studio\2022\Community\VC\Tools\MSVC\14.34.31933\include\xmemory
; File C:\Program Files\Microsoft Visual Studio\2022\Community\VC\Tools\MSVC\14.34.31933\include\vector
; File C:\Program Files\Microsoft Visual Studio\2022\Community\VC\Tools\MSVC\14.34.31933\include\xmemory
; File C:\Program Files\Microsoft Visual Studio\2022\Community\VC\Tools\MSVC\14.34.31933\include\vector
; File C:\Program Files\Microsoft Visual Studio\2022\Community\VC\Tools\MSVC\14.34.31933\include\xmemory
; File C:\Program Files\Microsoft Visual Studio\2022\Community\VC\Tools\MSVC\14.34.31933\include\vector
; File C:\Program Files\Microsoft Visual Studio\2022\Community\VC\Tools\MSVC\14.34.31933\include\xmemory
; File C:\Program Files\Microsoft Visual Studio\2022\Community\VC\Tools\MSVC\14.34.31933\include\vector
; File C:\Users\flourine\Desktop\Xantios\client-src\Code\eterLib\Pool.h
; File C:\Program Files\Microsoft Visual Studio\2022\Community\VC\Tools\MSVC\14.34.31933\include\xmemory
; File C:\Users\flourine\Desktop\Xantios\client-src\Code\eterLib\Pool.h
;	COMDAT ??1?$CDynamicPoolEx@VCTextureAnimationCCWDecorator@NEffectUpdateDecorator@@@@UAE@XZ
_TEXT	SEGMENT
__$EHRec$ = -12						; size = 12
??1?$CDynamicPoolEx@VCTextureAnimationCCWDecorator@NEffectUpdateDecorator@@@@UAE@XZ PROC ; CDynamicPoolEx<NEffectUpdateDecorator::CTextureAnimationCCWDecorator>::~CDynamicPoolEx<NEffectUpdateDecorator::CTextureAnimationCCWDecorator>, COMDAT
; _this$ = ecx

; 136  : 	{

  00000	55		 push	 ebp
  00001	8b ec		 mov	 ebp, esp
  00003	6a ff		 push	 -1
  00005	68 00 00 00 00	 push	 __ehhandler$??1?$CDynamicPoolEx@VCTextureAnimationCCWDecorator@NEffectUpdateDecorator@@@@UAE@XZ
  0000a	64 a1 00 00 00
	00		 mov	 eax, DWORD PTR fs:0
  00010	50		 push	 eax
  00011	53		 push	 ebx
  00012	56		 push	 esi
  00013	57		 push	 edi
  00014	a1 00 00 00 00	 mov	 eax, DWORD PTR ___security_cookie
  00019	33 c5		 xor	 eax, ebp
  0001b	50		 push	 eax
  0001c	8d 45 f4	 lea	 eax, DWORD PTR __$EHRec$[ebp]
  0001f	64 a3 00 00 00
	00		 mov	 DWORD PTR fs:0, eax
  00025	8b f9		 mov	 edi, ecx
  00027	c7 07 00 00 00
	00		 mov	 DWORD PTR [edi], OFFSET ??_7?$CDynamicPoolEx@VCTextureAnimationCCWDecorator@NEffectUpdateDecorator@@@@6B@
; File C:\Program Files\Microsoft Visual Studio\2022\Community\VC\Tools\MSVC\14.34.31933\include\vector

; 41   :     _CONSTEXPR20 _Vector_const_iterator(_Tptr _Parg, const _Container_base* _Pvector) noexcept : _Ptr(_Parg) {

  0002d	8b 5f 08	 mov	 ebx, DWORD PTR [edi+8]
; File C:\Program Files\Microsoft Visual Studio\2022\Community\VC\Tools\MSVC\14.34.31933\include\algorithm

; 265  :     for (; _UFirst != _ULast; ++_UFirst) {

  00030	8b 77 04	 mov	 esi, DWORD PTR [edi+4]
  00033	3b f3		 cmp	 esi, ebx
  00035	74 11		 je	 SHORT $LN19@CDynamicPo
$LL20@CDynamicPo:
; File C:\Users\flourine\Desktop\Xantios\client-src\Code\eterLib\Pool.h

; 232  : 		::operator delete (pkData);

  00037	ff 36		 push	 DWORD PTR [esi]
  00039	e8 00 00 00 00	 call	 ??3@YAXPAX@Z		; operator delete
; File C:\Program Files\Microsoft Visual Studio\2022\Community\VC\Tools\MSVC\14.34.31933\include\algorithm

; 265  :     for (; _UFirst != _ULast; ++_UFirst) {

  0003e	83 c6 04	 add	 esi, 4
; File C:\Users\flourine\Desktop\Xantios\client-src\Code\eterLib\Pool.h

; 232  : 		::operator delete (pkData);

  00041	83 c4 04	 add	 esp, 4
; File C:\Program Files\Microsoft Visual Studio\2022\Community\VC\Tools\MSVC\14.34.31933\include\algorithm

; 265  :     for (; _UFirst != _ULast; ++_UFirst) {

  00044	3b f3		 cmp	 esi, ebx
  00046	75 ef		 jne	 SHORT $LL20@CDynamicPo
$LN19@CDynamicPo:
; File C:\Program Files\Microsoft Visual Studio\2022\Community\VC\Tools\MSVC\14.34.31933\include\vector

; 1829 :         if (_Myfirst == _Mylast) { // already empty, nothing to do

  00048	8b 47 04	 mov	 eax, DWORD PTR [edi+4]
  0004b	3b 47 08	 cmp	 eax, DWORD PTR [edi+8]
  0004e	74 03		 je	 SHORT $LN26@CDynamicPo

; 1830 :             // This is an optimization for debug mode: we can avoid taking the debug lock to invalidate iterators.
; 1831 :             // Note that when clearing an empty vector, this will preserve past-the-end iterators, which is allowed by
; 1832 :             // N4901 [tab:container.seq.req] "a.clear() [...] may invalidate the past-the-end iterator".
; 1833 :             return;
; 1834 :         }
; 1835 : 
; 1836 :         _My_data._Orphan_all();
; 1837 :         _Destroy_range(_Myfirst, _Mylast, _Getal());
; 1838 :         _ASAN_VECTOR_MODIFY(static_cast<difference_type>(_Myfirst - _Mylast)); // negative when destroying elements
; 1839 :         _Mylast = _Myfirst;

  00050	89 47 08	 mov	 DWORD PTR [edi+8], eax
$LN26@CDynamicPo:

; 1829 :         if (_Myfirst == _Mylast) { // already empty, nothing to do

  00053	8b 47 10	 mov	 eax, DWORD PTR [edi+16]
  00056	3b 47 14	 cmp	 eax, DWORD PTR [edi+20]
  00059	74 03		 je	 SHORT $LN29@CDynamicPo

; 1830 :             // This is an optimization for debug mode: we can avoid taking the debug lock to invalidate iterators.
; 1831 :             // Note that when clearing an empty vector, this will preserve past-the-end iterators, which is allowed by
; 1832 :             // N4901 [tab:container.seq.req] "a.clear() [...] may invalidate the past-the-end iterator".
; 1833 :             return;
; 1834 :         }
; 1835 : 
; 1836 :         _My_data._Orphan_all();
; 1837 :         _Destroy_range(_Myfirst, _Mylast, _Getal());
; 1838 :         _ASAN_VECTOR_MODIFY(static_cast<difference_type>(_Myfirst - _Mylast)); // negative when destroying elements
; 1839 :         _Mylast = _Myfirst;

  0005b	89 47 14	 mov	 DWORD PTR [edi+20], eax
$LN29@CDynamicPo:

; 2107 :         if (_Myfirst) { // destroy and deallocate old array

  0005e	85 c0		 test	 eax, eax
  00060	74 41		 je	 SHORT $LN35@CDynamicPo

; 2108 :             _Destroy_range(_Myfirst, _Mylast, _Al);
; 2109 :             _ASAN_VECTOR_REMOVE;
; 2110 :             _Al.deallocate(_Myfirst, static_cast<size_type>(_Myend - _Myfirst));

  00062	8b 4f 18	 mov	 ecx, DWORD PTR [edi+24]
  00065	2b c8		 sub	 ecx, eax
; File C:\Program Files\Microsoft Visual Studio\2022\Community\VC\Tools\MSVC\14.34.31933\include\xmemory

; 830  :         _Deallocate<_New_alignof<_Ty>>(_Ptr, sizeof(_Ty) * _Count);

  00067	83 e1 fc	 and	 ecx, -4			; fffffffcH

; 251  :         if (_Bytes >= _Big_allocation_threshold) { // boost the alignment of big allocations to help autovectorization

  0006a	81 f9 00 10 00
	00		 cmp	 ecx, 4096		; 00001000H
  00070	72 12		 jb	 SHORT $LN51@CDynamicPo

; 150  :     const uintptr_t _Ptr_container   = _Ptr_user[-1];

  00072	8b 50 fc	 mov	 edx, DWORD PTR [eax-4]
  00075	83 c1 23	 add	 ecx, 35			; 00000023H

; 151  : 
; 152  :     // If the following asserts, it likely means that we are performing
; 153  :     // an aligned delete on memory coming from an unaligned allocation.
; 154  :     _STL_ASSERT(_Ptr_user[-2] == _Big_allocation_sentinel, "invalid argument");
; 155  : 
; 156  :     // Extra paranoia on aligned allocation/deallocation; ensure _Ptr_container is
; 157  :     // in range [_Min_back_shift, _Non_user_size]
; 158  : #ifdef _DEBUG
; 159  :     constexpr uintptr_t _Min_back_shift = 2 * sizeof(void*);
; 160  : #else // ^^^ _DEBUG ^^^ // vvv !_DEBUG vvv
; 161  :     constexpr uintptr_t _Min_back_shift = sizeof(void*);
; 162  : #endif // _DEBUG
; 163  :     const uintptr_t _Back_shift = reinterpret_cast<uintptr_t>(_Ptr) - _Ptr_container;

  00078	2b c2		 sub	 eax, edx

; 164  :     _STL_VERIFY(_Back_shift >= _Min_back_shift && _Back_shift <= _Non_user_size, "invalid argument");

  0007a	83 c0 fc	 add	 eax, -4			; fffffffcH
  0007d	83 f8 1f	 cmp	 eax, 31			; 0000001fH
  00080	77 7b		 ja	 SHORT $LN73@CDynamicPo

; 165  :     _Ptr = reinterpret_cast<void*>(_Ptr_container);

  00082	8b c2		 mov	 eax, edx
$LN51@CDynamicPo:

; 255  :         ::operator delete(_Ptr, _Bytes);

  00084	51		 push	 ecx
  00085	50		 push	 eax
  00086	e8 00 00 00 00	 call	 ??3@YAXPAXI@Z		; operator delete
; File C:\Program Files\Microsoft Visual Studio\2022\Community\VC\Tools\MSVC\14.34.31933\include\vector

; 2112 :             _Myfirst = nullptr;

  0008b	c7 47 10 00 00
	00 00		 mov	 DWORD PTR [edi+16], 0
; File C:\Program Files\Microsoft Visual Studio\2022\Community\VC\Tools\MSVC\14.34.31933\include\xmemory

; 255  :         ::operator delete(_Ptr, _Bytes);

  00092	83 c4 08	 add	 esp, 8
; File C:\Program Files\Microsoft Visual Studio\2022\Community\VC\Tools\MSVC\14.34.31933\include\vector

; 2113 :             _Mylast  = nullptr;

  00095	c7 47 14 00 00
	00 00		 mov	 DWORD PTR [edi+20], 0

; 2114 :             _Myend   = nullptr;

  0009c	c7 47 18 00 00
	00 00		 mov	 DWORD PTR [edi+24], 0
$LN35@CDynamicPo:

; 2107 :         if (_Myfirst) { // destroy and deallocate old array

  000a3	8b 47 04	 mov	 eax, DWORD PTR [edi+4]
  000a6	85 c0		 test	 eax, eax
  000a8	74 41		 je	 SHORT $LN60@CDynamicPo

; 2108 :             _Destroy_range(_Myfirst, _Mylast, _Al);
; 2109 :             _ASAN_VECTOR_REMOVE;
; 2110 :             _Al.deallocate(_Myfirst, static_cast<size_type>(_Myend - _Myfirst));

  000aa	8b 4f 0c	 mov	 ecx, DWORD PTR [edi+12]
  000ad	2b c8		 sub	 ecx, eax
; File C:\Program Files\Microsoft Visual Studio\2022\Community\VC\Tools\MSVC\14.34.31933\include\xmemory

; 830  :         _Deallocate<_New_alignof<_Ty>>(_Ptr, sizeof(_Ty) * _Count);

  000af	83 e1 fc	 and	 ecx, -4			; fffffffcH

; 251  :         if (_Bytes >= _Big_allocation_threshold) { // boost the alignment of big allocations to help autovectorization

  000b2	81 f9 00 10 00
	00		 cmp	 ecx, 4096		; 00001000H
  000b8	72 12		 jb	 SHORT $LN76@CDynamicPo

; 150  :     const uintptr_t _Ptr_container   = _Ptr_user[-1];

  000ba	8b 50 fc	 mov	 edx, DWORD PTR [eax-4]
  000bd	83 c1 23	 add	 ecx, 35			; 00000023H

; 151  : 
; 152  :     // If the following asserts, it likely means that we are performing
; 153  :     // an aligned delete on memory coming from an unaligned allocation.
; 154  :     _STL_ASSERT(_Ptr_user[-2] == _Big_allocation_sentinel, "invalid argument");
; 155  : 
; 156  :     // Extra paranoia on aligned allocation/deallocation; ensure _Ptr_container is
; 157  :     // in range [_Min_back_shift, _Non_user_size]
; 158  : #ifdef _DEBUG
; 159  :     constexpr uintptr_t _Min_back_shift = 2 * sizeof(void*);
; 160  : #else // ^^^ _DEBUG ^^^ // vvv !_DEBUG vvv
; 161  :     constexpr uintptr_t _Min_back_shift = sizeof(void*);
; 162  : #endif // _DEBUG
; 163  :     const uintptr_t _Back_shift = reinterpret_cast<uintptr_t>(_Ptr) - _Ptr_container;

  000c0	2b c2		 sub	 eax, edx

; 164  :     _STL_VERIFY(_Back_shift >= _Min_back_shift && _Back_shift <= _Non_user_size, "invalid argument");

  000c2	83 c0 fc	 add	 eax, -4			; fffffffcH
  000c5	83 f8 1f	 cmp	 eax, 31			; 0000001fH
  000c8	77 33		 ja	 SHORT $LN73@CDynamicPo

; 165  :     _Ptr = reinterpret_cast<void*>(_Ptr_container);

  000ca	8b c2		 mov	 eax, edx
$LN76@CDynamicPo:

; 255  :         ::operator delete(_Ptr, _Bytes);

  000cc	51		 push	 ecx
  000cd	50		 push	 eax
  000ce	e8 00 00 00 00	 call	 ??3@YAXPAXI@Z		; operator delete
; File C:\Program Files\Microsoft Visual Studio\2022\Community\VC\Tools\MSVC\14.34.31933\include\vector

; 2112 :             _Myfirst = nullptr;

  000d3	c7 47 04 00 00
	00 00		 mov	 DWORD PTR [edi+4], 0
; File C:\Program Files\Microsoft Visual Studio\2022\Community\VC\Tools\MSVC\14.34.31933\include\xmemory

; 255  :         ::operator delete(_Ptr, _Bytes);

  000da	83 c4 08	 add	 esp, 8
; File C:\Program Files\Microsoft Visual Studio\2022\Community\VC\Tools\MSVC\14.34.31933\include\vector

; 2113 :             _Mylast  = nullptr;

  000dd	c7 47 08 00 00
	00 00		 mov	 DWORD PTR [edi+8], 0

; 2114 :             _Myend   = nullptr;

  000e4	c7 47 0c 00 00
	00 00		 mov	 DWORD PTR [edi+12], 0
$LN60@CDynamicPo:
; File C:\Users\flourine\Desktop\Xantios\client-src\Code\eterLib\Pool.h

; 146  : 	}

  000eb	8b 4d f4	 mov	 ecx, DWORD PTR __$EHRec$[ebp]
  000ee	64 89 0d 00 00
	00 00		 mov	 DWORD PTR fs:0, ecx
  000f5	59		 pop	 ecx
  000f6	5f		 pop	 edi
  000f7	5e		 pop	 esi
  000f8	5b		 pop	 ebx
  000f9	8b e5		 mov	 esp, ebp
  000fb	5d		 pop	 ebp
  000fc	c3		 ret	 0
$LN73@CDynamicPo:
; File C:\Program Files\Microsoft Visual Studio\2022\Community\VC\Tools\MSVC\14.34.31933\include\xmemory

; 164  :     _STL_VERIFY(_Back_shift >= _Min_back_shift && _Back_shift <= _Non_user_size, "invalid argument");

  000fd	e8 00 00 00 00	 call	 __invalid_parameter_noinfo_noreturn
$LN86@CDynamicPo:
  00102	cc		 int	 3
  00103	cc		 int	 3
  00104	cc		 int	 3
  00105	cc		 int	 3
  00106	cc		 int	 3
  00107	cc		 int	 3
_TEXT	ENDS
;	COMDAT text$x
text$x	SEGMENT
__ehhandler$??1?$CDynamicPoolEx@VCTextureAnimationCCWDecorator@NEffectUpdateDecorator@@@@UAE@XZ:
  00000	90		 npad	 1
  00001	90		 npad	 1
  00002	8b 54 24 08	 mov	 edx, DWORD PTR [esp+8]
  00006	8d 42 0c	 lea	 eax, DWORD PTR [edx+12]
  00009	8b 4a f0	 mov	 ecx, DWORD PTR [edx-16]
  0000c	33 c8		 xor	 ecx, eax
  0000e	e8 00 00 00 00	 call	 @__security_check_cookie@4
  00013	b8 00 00 00 00	 mov	 eax, OFFSET __ehfuncinfo$??1?$CDynamicPoolEx@VCTextureAnimationCCWDecorator@NEffectUpdateDecorator@@@@UAE@XZ
  00018	e9 00 00 00 00	 jmp	 ___CxxFrameHandler3
text$x	ENDS
??1?$CDynamicPoolEx@VCTextureAnimationCCWDecorator@NEffectUpdateDecorator@@@@UAE@XZ ENDP ; CDynamicPoolEx<NEffectUpdateDecorator::CTextureAnimationCCWDecorator>::~CDynamicPoolEx<NEffectUpdateDecorator::CTextureAnimationCCWDecorator>
; Function compile flags: /Ogtp
;	COMDAT ??_G?$CDynamicPoolEx@VCTextureAnimationRandomDecorator@NEffectUpdateDecorator@@@@UAEPAXI@Z
_TEXT	SEGMENT
___flags$ = 8						; size = 4
??_G?$CDynamicPoolEx@VCTextureAnimationRandomDecorator@NEffectUpdateDecorator@@@@UAEPAXI@Z PROC ; CDynamicPoolEx<NEffectUpdateDecorator::CTextureAnimationRandomDecorator>::`scalar deleting destructor', COMDAT
; _this$ = ecx
  00000	55		 push	 ebp
  00001	8b ec		 mov	 ebp, esp
  00003	56		 push	 esi
  00004	8b f1		 mov	 esi, ecx
  00006	e8 00 00 00 00	 call	 ??1?$CDynamicPoolEx@VCTextureAnimationRandomDecorator@NEffectUpdateDecorator@@@@UAE@XZ ; CDynamicPoolEx<NEffectUpdateDecorator::CTextureAnimationRandomDecorator>::~CDynamicPoolEx<NEffectUpdateDecorator::CTextureAnimationRandomDecorator>
  0000b	f6 45 08 01	 test	 BYTE PTR ___flags$[ebp], 1
  0000f	74 0b		 je	 SHORT $LN4@scalar
  00011	6a 24		 push	 36			; 00000024H
  00013	56		 push	 esi
  00014	e8 00 00 00 00	 call	 ??3@YAXPAXI@Z		; operator delete
  00019	83 c4 08	 add	 esp, 8
$LN4@scalar:
  0001c	8b c6		 mov	 eax, esi
  0001e	5e		 pop	 esi
  0001f	5d		 pop	 ebp
  00020	c2 04 00	 ret	 4
??_G?$CDynamicPoolEx@VCTextureAnimationRandomDecorator@NEffectUpdateDecorator@@@@UAEPAXI@Z ENDP ; CDynamicPoolEx<NEffectUpdateDecorator::CTextureAnimationRandomDecorator>::`scalar deleting destructor'
_TEXT	ENDS
; Function compile flags: /Ogtp
; File C:\Users\flourine\Desktop\Xantios\client-src\Code\eterLib\Pool.h
;	COMDAT ?Delete@?$CDynamicPoolEx@VCTextureAnimationRandomDecorator@NEffectUpdateDecorator@@@@KAXPAVCTextureAnimationRandomDecorator@NEffectUpdateDecorator@@@Z
_TEXT	SEGMENT
_pkData$ = 8						; size = 4
?Delete@?$CDynamicPoolEx@VCTextureAnimationRandomDecorator@NEffectUpdateDecorator@@@@KAXPAVCTextureAnimationRandomDecorator@NEffectUpdateDecorator@@@Z PROC ; CDynamicPoolEx<NEffectUpdateDecorator::CTextureAnimationRandomDecorator>::Delete, COMDAT

; 232  : 		::operator delete (pkData);

  00000	e9 00 00 00 00	 jmp	 ??3@YAXPAX@Z		; operator delete
?Delete@?$CDynamicPoolEx@VCTextureAnimationRandomDecorator@NEffectUpdateDecorator@@@@KAXPAVCTextureAnimationRandomDecorator@NEffectUpdateDecorator@@@Z ENDP ; CDynamicPoolEx<NEffectUpdateDecorator::CTextureAnimationRandomDecorator>::Delete
_TEXT	ENDS
; Function compile flags: /Ogtp
; File C:\Users\flourine\Desktop\Xantios\client-src\Code\eterLib\Pool.h
; File C:\Program Files\Microsoft Visual Studio\2022\Community\VC\Tools\MSVC\14.34.31933\include\vector
; File C:\Program Files\Microsoft Visual Studio\2022\Community\VC\Tools\MSVC\14.34.31933\include\algorithm
; File C:\Users\flourine\Desktop\Xantios\client-src\Code\eterLib\Pool.h
; File C:\Program Files\Microsoft Visual Studio\2022\Community\VC\Tools\MSVC\14.34.31933\include\algorithm
; File C:\Users\flourine\Desktop\Xantios\client-src\Code\eterLib\Pool.h
; File C:\Program Files\Microsoft Visual Studio\2022\Community\VC\Tools\MSVC\14.34.31933\include\algorithm
; File C:\Program Files\Microsoft Visual Studio\2022\Community\VC\Tools\MSVC\14.34.31933\include\vector
; File C:\Program Files\Microsoft Visual Studio\2022\Community\VC\Tools\MSVC\14.34.31933\include\xmemory
; File C:\Program Files\Microsoft Visual Studio\2022\Community\VC\Tools\MSVC\14.34.31933\include\vector
; File C:\Program Files\Microsoft Visual Studio\2022\Community\VC\Tools\MSVC\14.34.31933\include\xmemory
; File C:\Program Files\Microsoft Visual Studio\2022\Community\VC\Tools\MSVC\14.34.31933\include\vector
; File C:\Program Files\Microsoft Visual Studio\2022\Community\VC\Tools\MSVC\14.34.31933\include\xmemory
; File C:\Program Files\Microsoft Visual Studio\2022\Community\VC\Tools\MSVC\14.34.31933\include\vector
; File C:\Program Files\Microsoft Visual Studio\2022\Community\VC\Tools\MSVC\14.34.31933\include\xmemory
; File C:\Program Files\Microsoft Visual Studio\2022\Community\VC\Tools\MSVC\14.34.31933\include\vector
; File C:\Users\flourine\Desktop\Xantios\client-src\Code\eterLib\Pool.h
; File C:\Program Files\Microsoft Visual Studio\2022\Community\VC\Tools\MSVC\14.34.31933\include\xmemory
; File C:\Users\flourine\Desktop\Xantios\client-src\Code\eterLib\Pool.h
;	COMDAT ??1?$CDynamicPoolEx@VCTextureAnimationRandomDecorator@NEffectUpdateDecorator@@@@UAE@XZ
_TEXT	SEGMENT
__$EHRec$ = -12						; size = 12
??1?$CDynamicPoolEx@VCTextureAnimationRandomDecorator@NEffectUpdateDecorator@@@@UAE@XZ PROC ; CDynamicPoolEx<NEffectUpdateDecorator::CTextureAnimationRandomDecorator>::~CDynamicPoolEx<NEffectUpdateDecorator::CTextureAnimationRandomDecorator>, COMDAT
; _this$ = ecx

; 136  : 	{

  00000	55		 push	 ebp
  00001	8b ec		 mov	 ebp, esp
  00003	6a ff		 push	 -1
  00005	68 00 00 00 00	 push	 __ehhandler$??1?$CDynamicPoolEx@VCTextureAnimationRandomDecorator@NEffectUpdateDecorator@@@@UAE@XZ
  0000a	64 a1 00 00 00
	00		 mov	 eax, DWORD PTR fs:0
  00010	50		 push	 eax
  00011	53		 push	 ebx
  00012	56		 push	 esi
  00013	57		 push	 edi
  00014	a1 00 00 00 00	 mov	 eax, DWORD PTR ___security_cookie
  00019	33 c5		 xor	 eax, ebp
  0001b	50		 push	 eax
  0001c	8d 45 f4	 lea	 eax, DWORD PTR __$EHRec$[ebp]
  0001f	64 a3 00 00 00
	00		 mov	 DWORD PTR fs:0, eax
  00025	8b f9		 mov	 edi, ecx
  00027	c7 07 00 00 00
	00		 mov	 DWORD PTR [edi], OFFSET ??_7?$CDynamicPoolEx@VCTextureAnimationRandomDecorator@NEffectUpdateDecorator@@@@6B@
; File C:\Program Files\Microsoft Visual Studio\2022\Community\VC\Tools\MSVC\14.34.31933\include\vector

; 41   :     _CONSTEXPR20 _Vector_const_iterator(_Tptr _Parg, const _Container_base* _Pvector) noexcept : _Ptr(_Parg) {

  0002d	8b 5f 08	 mov	 ebx, DWORD PTR [edi+8]
; File C:\Program Files\Microsoft Visual Studio\2022\Community\VC\Tools\MSVC\14.34.31933\include\algorithm

; 265  :     for (; _UFirst != _ULast; ++_UFirst) {

  00030	8b 77 04	 mov	 esi, DWORD PTR [edi+4]
  00033	3b f3		 cmp	 esi, ebx
  00035	74 11		 je	 SHORT $LN19@CDynamicPo
$LL20@CDynamicPo:
; File C:\Users\flourine\Desktop\Xantios\client-src\Code\eterLib\Pool.h

; 232  : 		::operator delete (pkData);

  00037	ff 36		 push	 DWORD PTR [esi]
  00039	e8 00 00 00 00	 call	 ??3@YAXPAX@Z		; operator delete
; File C:\Program Files\Microsoft Visual Studio\2022\Community\VC\Tools\MSVC\14.34.31933\include\algorithm

; 265  :     for (; _UFirst != _ULast; ++_UFirst) {

  0003e	83 c6 04	 add	 esi, 4
; File C:\Users\flourine\Desktop\Xantios\client-src\Code\eterLib\Pool.h

; 232  : 		::operator delete (pkData);

  00041	83 c4 04	 add	 esp, 4
; File C:\Program Files\Microsoft Visual Studio\2022\Community\VC\Tools\MSVC\14.34.31933\include\algorithm

; 265  :     for (; _UFirst != _ULast; ++_UFirst) {

  00044	3b f3		 cmp	 esi, ebx
  00046	75 ef		 jne	 SHORT $LL20@CDynamicPo
$LN19@CDynamicPo:
; File C:\Program Files\Microsoft Visual Studio\2022\Community\VC\Tools\MSVC\14.34.31933\include\vector

; 1829 :         if (_Myfirst == _Mylast) { // already empty, nothing to do

  00048	8b 47 04	 mov	 eax, DWORD PTR [edi+4]
  0004b	3b 47 08	 cmp	 eax, DWORD PTR [edi+8]
  0004e	74 03		 je	 SHORT $LN26@CDynamicPo

; 1830 :             // This is an optimization for debug mode: we can avoid taking the debug lock to invalidate iterators.
; 1831 :             // Note that when clearing an empty vector, this will preserve past-the-end iterators, which is allowed by
; 1832 :             // N4901 [tab:container.seq.req] "a.clear() [...] may invalidate the past-the-end iterator".
; 1833 :             return;
; 1834 :         }
; 1835 : 
; 1836 :         _My_data._Orphan_all();
; 1837 :         _Destroy_range(_Myfirst, _Mylast, _Getal());
; 1838 :         _ASAN_VECTOR_MODIFY(static_cast<difference_type>(_Myfirst - _Mylast)); // negative when destroying elements
; 1839 :         _Mylast = _Myfirst;

  00050	89 47 08	 mov	 DWORD PTR [edi+8], eax
$LN26@CDynamicPo:

; 1829 :         if (_Myfirst == _Mylast) { // already empty, nothing to do

  00053	8b 47 10	 mov	 eax, DWORD PTR [edi+16]
  00056	3b 47 14	 cmp	 eax, DWORD PTR [edi+20]
  00059	74 03		 je	 SHORT $LN29@CDynamicPo

; 1830 :             // This is an optimization for debug mode: we can avoid taking the debug lock to invalidate iterators.
; 1831 :             // Note that when clearing an empty vector, this will preserve past-the-end iterators, which is allowed by
; 1832 :             // N4901 [tab:container.seq.req] "a.clear() [...] may invalidate the past-the-end iterator".
; 1833 :             return;
; 1834 :         }
; 1835 : 
; 1836 :         _My_data._Orphan_all();
; 1837 :         _Destroy_range(_Myfirst, _Mylast, _Getal());
; 1838 :         _ASAN_VECTOR_MODIFY(static_cast<difference_type>(_Myfirst - _Mylast)); // negative when destroying elements
; 1839 :         _Mylast = _Myfirst;

  0005b	89 47 14	 mov	 DWORD PTR [edi+20], eax
$LN29@CDynamicPo:

; 2107 :         if (_Myfirst) { // destroy and deallocate old array

  0005e	85 c0		 test	 eax, eax
  00060	74 41		 je	 SHORT $LN35@CDynamicPo

; 2108 :             _Destroy_range(_Myfirst, _Mylast, _Al);
; 2109 :             _ASAN_VECTOR_REMOVE;
; 2110 :             _Al.deallocate(_Myfirst, static_cast<size_type>(_Myend - _Myfirst));

  00062	8b 4f 18	 mov	 ecx, DWORD PTR [edi+24]
  00065	2b c8		 sub	 ecx, eax
; File C:\Program Files\Microsoft Visual Studio\2022\Community\VC\Tools\MSVC\14.34.31933\include\xmemory

; 830  :         _Deallocate<_New_alignof<_Ty>>(_Ptr, sizeof(_Ty) * _Count);

  00067	83 e1 fc	 and	 ecx, -4			; fffffffcH

; 251  :         if (_Bytes >= _Big_allocation_threshold) { // boost the alignment of big allocations to help autovectorization

  0006a	81 f9 00 10 00
	00		 cmp	 ecx, 4096		; 00001000H
  00070	72 12		 jb	 SHORT $LN51@CDynamicPo

; 150  :     const uintptr_t _Ptr_container   = _Ptr_user[-1];

  00072	8b 50 fc	 mov	 edx, DWORD PTR [eax-4]
  00075	83 c1 23	 add	 ecx, 35			; 00000023H

; 151  : 
; 152  :     // If the following asserts, it likely means that we are performing
; 153  :     // an aligned delete on memory coming from an unaligned allocation.
; 154  :     _STL_ASSERT(_Ptr_user[-2] == _Big_allocation_sentinel, "invalid argument");
; 155  : 
; 156  :     // Extra paranoia on aligned allocation/deallocation; ensure _Ptr_container is
; 157  :     // in range [_Min_back_shift, _Non_user_size]
; 158  : #ifdef _DEBUG
; 159  :     constexpr uintptr_t _Min_back_shift = 2 * sizeof(void*);
; 160  : #else // ^^^ _DEBUG ^^^ // vvv !_DEBUG vvv
; 161  :     constexpr uintptr_t _Min_back_shift = sizeof(void*);
; 162  : #endif // _DEBUG
; 163  :     const uintptr_t _Back_shift = reinterpret_cast<uintptr_t>(_Ptr) - _Ptr_container;

  00078	2b c2		 sub	 eax, edx

; 164  :     _STL_VERIFY(_Back_shift >= _Min_back_shift && _Back_shift <= _Non_user_size, "invalid argument");

  0007a	83 c0 fc	 add	 eax, -4			; fffffffcH
  0007d	83 f8 1f	 cmp	 eax, 31			; 0000001fH
  00080	77 7b		 ja	 SHORT $LN73@CDynamicPo

; 165  :     _Ptr = reinterpret_cast<void*>(_Ptr_container);

  00082	8b c2		 mov	 eax, edx
$LN51@CDynamicPo:

; 255  :         ::operator delete(_Ptr, _Bytes);

  00084	51		 push	 ecx
  00085	50		 push	 eax
  00086	e8 00 00 00 00	 call	 ??3@YAXPAXI@Z		; operator delete
; File C:\Program Files\Microsoft Visual Studio\2022\Community\VC\Tools\MSVC\14.34.31933\include\vector

; 2112 :             _Myfirst = nullptr;

  0008b	c7 47 10 00 00
	00 00		 mov	 DWORD PTR [edi+16], 0
; File C:\Program Files\Microsoft Visual Studio\2022\Community\VC\Tools\MSVC\14.34.31933\include\xmemory

; 255  :         ::operator delete(_Ptr, _Bytes);

  00092	83 c4 08	 add	 esp, 8
; File C:\Program Files\Microsoft Visual Studio\2022\Community\VC\Tools\MSVC\14.34.31933\include\vector

; 2113 :             _Mylast  = nullptr;

  00095	c7 47 14 00 00
	00 00		 mov	 DWORD PTR [edi+20], 0

; 2114 :             _Myend   = nullptr;

  0009c	c7 47 18 00 00
	00 00		 mov	 DWORD PTR [edi+24], 0
$LN35@CDynamicPo:

; 2107 :         if (_Myfirst) { // destroy and deallocate old array

  000a3	8b 47 04	 mov	 eax, DWORD PTR [edi+4]
  000a6	85 c0		 test	 eax, eax
  000a8	74 41		 je	 SHORT $LN60@CDynamicPo

; 2108 :             _Destroy_range(_Myfirst, _Mylast, _Al);
; 2109 :             _ASAN_VECTOR_REMOVE;
; 2110 :             _Al.deallocate(_Myfirst, static_cast<size_type>(_Myend - _Myfirst));

  000aa	8b 4f 0c	 mov	 ecx, DWORD PTR [edi+12]
  000ad	2b c8		 sub	 ecx, eax
; File C:\Program Files\Microsoft Visual Studio\2022\Community\VC\Tools\MSVC\14.34.31933\include\xmemory

; 830  :         _Deallocate<_New_alignof<_Ty>>(_Ptr, sizeof(_Ty) * _Count);

  000af	83 e1 fc	 and	 ecx, -4			; fffffffcH

; 251  :         if (_Bytes >= _Big_allocation_threshold) { // boost the alignment of big allocations to help autovectorization

  000b2	81 f9 00 10 00
	00		 cmp	 ecx, 4096		; 00001000H
  000b8	72 12		 jb	 SHORT $LN76@CDynamicPo

; 150  :     const uintptr_t _Ptr_container   = _Ptr_user[-1];

  000ba	8b 50 fc	 mov	 edx, DWORD PTR [eax-4]
  000bd	83 c1 23	 add	 ecx, 35			; 00000023H

; 151  : 
; 152  :     // If the following asserts, it likely means that we are performing
; 153  :     // an aligned delete on memory coming from an unaligned allocation.
; 154  :     _STL_ASSERT(_Ptr_user[-2] == _Big_allocation_sentinel, "invalid argument");
; 155  : 
; 156  :     // Extra paranoia on aligned allocation/deallocation; ensure _Ptr_container is
; 157  :     // in range [_Min_back_shift, _Non_user_size]
; 158  : #ifdef _DEBUG
; 159  :     constexpr uintptr_t _Min_back_shift = 2 * sizeof(void*);
; 160  : #else // ^^^ _DEBUG ^^^ // vvv !_DEBUG vvv
; 161  :     constexpr uintptr_t _Min_back_shift = sizeof(void*);
; 162  : #endif // _DEBUG
; 163  :     const uintptr_t _Back_shift = reinterpret_cast<uintptr_t>(_Ptr) - _Ptr_container;

  000c0	2b c2		 sub	 eax, edx

; 164  :     _STL_VERIFY(_Back_shift >= _Min_back_shift && _Back_shift <= _Non_user_size, "invalid argument");

  000c2	83 c0 fc	 add	 eax, -4			; fffffffcH
  000c5	83 f8 1f	 cmp	 eax, 31			; 0000001fH
  000c8	77 33		 ja	 SHORT $LN73@CDynamicPo

; 165  :     _Ptr = reinterpret_cast<void*>(_Ptr_container);

  000ca	8b c2		 mov	 eax, edx
$LN76@CDynamicPo:

; 255  :         ::operator delete(_Ptr, _Bytes);

  000cc	51		 push	 ecx
  000cd	50		 push	 eax
  000ce	e8 00 00 00 00	 call	 ??3@YAXPAXI@Z		; operator delete
; File C:\Program Files\Microsoft Visual Studio\2022\Community\VC\Tools\MSVC\14.34.31933\include\vector

; 2112 :             _Myfirst = nullptr;

  000d3	c7 47 04 00 00
	00 00		 mov	 DWORD PTR [edi+4], 0
; File C:\Program Files\Microsoft Visual Studio\2022\Community\VC\Tools\MSVC\14.34.31933\include\xmemory

; 255  :         ::operator delete(_Ptr, _Bytes);

  000da	83 c4 08	 add	 esp, 8
; File C:\Program Files\Microsoft Visual Studio\2022\Community\VC\Tools\MSVC\14.34.31933\include\vector

; 2113 :             _Mylast  = nullptr;

  000dd	c7 47 08 00 00
	00 00		 mov	 DWORD PTR [edi+8], 0

; 2114 :             _Myend   = nullptr;

  000e4	c7 47 0c 00 00
	00 00		 mov	 DWORD PTR [edi+12], 0
$LN60@CDynamicPo:
; File C:\Users\flourine\Desktop\Xantios\client-src\Code\eterLib\Pool.h

; 146  : 	}

  000eb	8b 4d f4	 mov	 ecx, DWORD PTR __$EHRec$[ebp]
  000ee	64 89 0d 00 00
	00 00		 mov	 DWORD PTR fs:0, ecx
  000f5	59		 pop	 ecx
  000f6	5f		 pop	 edi
  000f7	5e		 pop	 esi
  000f8	5b		 pop	 ebx
  000f9	8b e5		 mov	 esp, ebp
  000fb	5d		 pop	 ebp
  000fc	c3		 ret	 0
$LN73@CDynamicPo:
; File C:\Program Files\Microsoft Visual Studio\2022\Community\VC\Tools\MSVC\14.34.31933\include\xmemory

; 164  :     _STL_VERIFY(_Back_shift >= _Min_back_shift && _Back_shift <= _Non_user_size, "invalid argument");

  000fd	e8 00 00 00 00	 call	 __invalid_parameter_noinfo_noreturn
$LN86@CDynamicPo:
  00102	cc		 int	 3
  00103	cc		 int	 3
  00104	cc		 int	 3
  00105	cc		 int	 3
  00106	cc		 int	 3
  00107	cc		 int	 3
_TEXT	ENDS
;	COMDAT text$x
text$x	SEGMENT
__ehhandler$??1?$CDynamicPoolEx@VCTextureAnimationRandomDecorator@NEffectUpdateDecorator@@@@UAE@XZ:
  00000	90		 npad	 1
  00001	90		 npad	 1
  00002	8b 54 24 08	 mov	 edx, DWORD PTR [esp+8]
  00006	8d 42 0c	 lea	 eax, DWORD PTR [edx+12]
  00009	8b 4a f0	 mov	 ecx, DWORD PTR [edx-16]
  0000c	33 c8		 xor	 ecx, eax
  0000e	e8 00 00 00 00	 call	 @__security_check_cookie@4
  00013	b8 00 00 00 00	 mov	 eax, OFFSET __ehfuncinfo$??1?$CDynamicPoolEx@VCTextureAnimationRandomDecorator@NEffectUpdateDecorator@@@@UAE@XZ
  00018	e9 00 00 00 00	 jmp	 ___CxxFrameHandler3
text$x	ENDS
??1?$CDynamicPoolEx@VCTextureAnimationRandomDecorator@NEffectUpdateDecorator@@@@UAE@XZ ENDP ; CDynamicPoolEx<NEffectUpdateDecorator::CTextureAnimationRandomDecorator>::~CDynamicPoolEx<NEffectUpdateDecorator::CTextureAnimationRandomDecorator>
; Function compile flags: /Ogtp
;	COMDAT ??_G?$CDynamicPoolEx@VCAirResistanceDecorator@NEffectUpdateDecorator@@@@UAEPAXI@Z
_TEXT	SEGMENT
___flags$ = 8						; size = 4
??_G?$CDynamicPoolEx@VCAirResistanceDecorator@NEffectUpdateDecorator@@@@UAEPAXI@Z PROC ; CDynamicPoolEx<NEffectUpdateDecorator::CAirResistanceDecorator>::`scalar deleting destructor', COMDAT
; _this$ = ecx
  00000	55		 push	 ebp
  00001	8b ec		 mov	 ebp, esp
  00003	56		 push	 esi
  00004	8b f1		 mov	 esi, ecx
  00006	e8 00 00 00 00	 call	 ??1?$CDynamicPoolEx@VCAirResistanceDecorator@NEffectUpdateDecorator@@@@UAE@XZ ; CDynamicPoolEx<NEffectUpdateDecorator::CAirResistanceDecorator>::~CDynamicPoolEx<NEffectUpdateDecorator::CAirResistanceDecorator>
  0000b	f6 45 08 01	 test	 BYTE PTR ___flags$[ebp], 1
  0000f	74 0b		 je	 SHORT $LN4@scalar
  00011	6a 24		 push	 36			; 00000024H
  00013	56		 push	 esi
  00014	e8 00 00 00 00	 call	 ??3@YAXPAXI@Z		; operator delete
  00019	83 c4 08	 add	 esp, 8
$LN4@scalar:
  0001c	8b c6		 mov	 eax, esi
  0001e	5e		 pop	 esi
  0001f	5d		 pop	 ebp
  00020	c2 04 00	 ret	 4
??_G?$CDynamicPoolEx@VCAirResistanceDecorator@NEffectUpdateDecorator@@@@UAEPAXI@Z ENDP ; CDynamicPoolEx<NEffectUpdateDecorator::CAirResistanceDecorator>::`scalar deleting destructor'
_TEXT	ENDS
; Function compile flags: /Ogtp
; File C:\Users\flourine\Desktop\Xantios\client-src\Code\eterLib\Pool.h
;	COMDAT ?Delete@?$CDynamicPoolEx@VCAirResistanceDecorator@NEffectUpdateDecorator@@@@KAXPAVCAirResistanceDecorator@NEffectUpdateDecorator@@@Z
_TEXT	SEGMENT
_pkData$ = 8						; size = 4
?Delete@?$CDynamicPoolEx@VCAirResistanceDecorator@NEffectUpdateDecorator@@@@KAXPAVCAirResistanceDecorator@NEffectUpdateDecorator@@@Z PROC ; CDynamicPoolEx<NEffectUpdateDecorator::CAirResistanceDecorator>::Delete, COMDAT

; 232  : 		::operator delete (pkData);

  00000	e9 00 00 00 00	 jmp	 ??3@YAXPAX@Z		; operator delete
?Delete@?$CDynamicPoolEx@VCAirResistanceDecorator@NEffectUpdateDecorator@@@@KAXPAVCAirResistanceDecorator@NEffectUpdateDecorator@@@Z ENDP ; CDynamicPoolEx<NEffectUpdateDecorator::CAirResistanceDecorator>::Delete
_TEXT	ENDS
; Function compile flags: /Ogtp
; File C:\Users\flourine\Desktop\Xantios\client-src\Code\eterLib\Pool.h
; File C:\Program Files\Microsoft Visual Studio\2022\Community\VC\Tools\MSVC\14.34.31933\include\vector
; File C:\Program Files\Microsoft Visual Studio\2022\Community\VC\Tools\MSVC\14.34.31933\include\algorithm
; File C:\Users\flourine\Desktop\Xantios\client-src\Code\eterLib\Pool.h
; File C:\Program Files\Microsoft Visual Studio\2022\Community\VC\Tools\MSVC\14.34.31933\include\algorithm
; File C:\Users\flourine\Desktop\Xantios\client-src\Code\eterLib\Pool.h
; File C:\Program Files\Microsoft Visual Studio\2022\Community\VC\Tools\MSVC\14.34.31933\include\algorithm
; File C:\Program Files\Microsoft Visual Studio\2022\Community\VC\Tools\MSVC\14.34.31933\include\vector
; File C:\Program Files\Microsoft Visual Studio\2022\Community\VC\Tools\MSVC\14.34.31933\include\xmemory
; File C:\Program Files\Microsoft Visual Studio\2022\Community\VC\Tools\MSVC\14.34.31933\include\vector
; File C:\Program Files\Microsoft Visual Studio\2022\Community\VC\Tools\MSVC\14.34.31933\include\xmemory
; File C:\Program Files\Microsoft Visual Studio\2022\Community\VC\Tools\MSVC\14.34.31933\include\vector
; File C:\Program Files\Microsoft Visual Studio\2022\Community\VC\Tools\MSVC\14.34.31933\include\xmemory
; File C:\Program Files\Microsoft Visual Studio\2022\Community\VC\Tools\MSVC\14.34.31933\include\vector
; File C:\Program Files\Microsoft Visual Studio\2022\Community\VC\Tools\MSVC\14.34.31933\include\xmemory
; File C:\Program Files\Microsoft Visual Studio\2022\Community\VC\Tools\MSVC\14.34.31933\include\vector
; File C:\Users\flourine\Desktop\Xantios\client-src\Code\eterLib\Pool.h
; File C:\Program Files\Microsoft Visual Studio\2022\Community\VC\Tools\MSVC\14.34.31933\include\xmemory
; File C:\Users\flourine\Desktop\Xantios\client-src\Code\eterLib\Pool.h
;	COMDAT ??1?$CDynamicPoolEx@VCAirResistanceDecorator@NEffectUpdateDecorator@@@@UAE@XZ
_TEXT	SEGMENT
__$EHRec$ = -12						; size = 12
??1?$CDynamicPoolEx@VCAirResistanceDecorator@NEffectUpdateDecorator@@@@UAE@XZ PROC ; CDynamicPoolEx<NEffectUpdateDecorator::CAirResistanceDecorator>::~CDynamicPoolEx<NEffectUpdateDecorator::CAirResistanceDecorator>, COMDAT
; _this$ = ecx

; 136  : 	{

  00000	55		 push	 ebp
  00001	8b ec		 mov	 ebp, esp
  00003	6a ff		 push	 -1
  00005	68 00 00 00 00	 push	 __ehhandler$??1?$CDynamicPoolEx@VCAirResistanceDecorator@NEffectUpdateDecorator@@@@UAE@XZ
  0000a	64 a1 00 00 00
	00		 mov	 eax, DWORD PTR fs:0
  00010	50		 push	 eax
  00011	53		 push	 ebx
  00012	56		 push	 esi
  00013	57		 push	 edi
  00014	a1 00 00 00 00	 mov	 eax, DWORD PTR ___security_cookie
  00019	33 c5		 xor	 eax, ebp
  0001b	50		 push	 eax
  0001c	8d 45 f4	 lea	 eax, DWORD PTR __$EHRec$[ebp]
  0001f	64 a3 00 00 00
	00		 mov	 DWORD PTR fs:0, eax
  00025	8b f9		 mov	 edi, ecx
  00027	c7 07 00 00 00
	00		 mov	 DWORD PTR [edi], OFFSET ??_7?$CDynamicPoolEx@VCAirResistanceDecorator@NEffectUpdateDecorator@@@@6B@
; File C:\Program Files\Microsoft Visual Studio\2022\Community\VC\Tools\MSVC\14.34.31933\include\vector

; 41   :     _CONSTEXPR20 _Vector_const_iterator(_Tptr _Parg, const _Container_base* _Pvector) noexcept : _Ptr(_Parg) {

  0002d	8b 5f 08	 mov	 ebx, DWORD PTR [edi+8]
; File C:\Program Files\Microsoft Visual Studio\2022\Community\VC\Tools\MSVC\14.34.31933\include\algorithm

; 265  :     for (; _UFirst != _ULast; ++_UFirst) {

  00030	8b 77 04	 mov	 esi, DWORD PTR [edi+4]
  00033	3b f3		 cmp	 esi, ebx
  00035	74 11		 je	 SHORT $LN19@CDynamicPo
$LL20@CDynamicPo:
; File C:\Users\flourine\Desktop\Xantios\client-src\Code\eterLib\Pool.h

; 232  : 		::operator delete (pkData);

  00037	ff 36		 push	 DWORD PTR [esi]
  00039	e8 00 00 00 00	 call	 ??3@YAXPAX@Z		; operator delete
; File C:\Program Files\Microsoft Visual Studio\2022\Community\VC\Tools\MSVC\14.34.31933\include\algorithm

; 265  :     for (; _UFirst != _ULast; ++_UFirst) {

  0003e	83 c6 04	 add	 esi, 4
; File C:\Users\flourine\Desktop\Xantios\client-src\Code\eterLib\Pool.h

; 232  : 		::operator delete (pkData);

  00041	83 c4 04	 add	 esp, 4
; File C:\Program Files\Microsoft Visual Studio\2022\Community\VC\Tools\MSVC\14.34.31933\include\algorithm

; 265  :     for (; _UFirst != _ULast; ++_UFirst) {

  00044	3b f3		 cmp	 esi, ebx
  00046	75 ef		 jne	 SHORT $LL20@CDynamicPo
$LN19@CDynamicPo:
; File C:\Program Files\Microsoft Visual Studio\2022\Community\VC\Tools\MSVC\14.34.31933\include\vector

; 1829 :         if (_Myfirst == _Mylast) { // already empty, nothing to do

  00048	8b 47 04	 mov	 eax, DWORD PTR [edi+4]
  0004b	3b 47 08	 cmp	 eax, DWORD PTR [edi+8]
  0004e	74 03		 je	 SHORT $LN26@CDynamicPo

; 1830 :             // This is an optimization for debug mode: we can avoid taking the debug lock to invalidate iterators.
; 1831 :             // Note that when clearing an empty vector, this will preserve past-the-end iterators, which is allowed by
; 1832 :             // N4901 [tab:container.seq.req] "a.clear() [...] may invalidate the past-the-end iterator".
; 1833 :             return;
; 1834 :         }
; 1835 : 
; 1836 :         _My_data._Orphan_all();
; 1837 :         _Destroy_range(_Myfirst, _Mylast, _Getal());
; 1838 :         _ASAN_VECTOR_MODIFY(static_cast<difference_type>(_Myfirst - _Mylast)); // negative when destroying elements
; 1839 :         _Mylast = _Myfirst;

  00050	89 47 08	 mov	 DWORD PTR [edi+8], eax
$LN26@CDynamicPo:

; 1829 :         if (_Myfirst == _Mylast) { // already empty, nothing to do

  00053	8b 47 10	 mov	 eax, DWORD PTR [edi+16]
  00056	3b 47 14	 cmp	 eax, DWORD PTR [edi+20]
  00059	74 03		 je	 SHORT $LN29@CDynamicPo

; 1830 :             // This is an optimization for debug mode: we can avoid taking the debug lock to invalidate iterators.
; 1831 :             // Note that when clearing an empty vector, this will preserve past-the-end iterators, which is allowed by
; 1832 :             // N4901 [tab:container.seq.req] "a.clear() [...] may invalidate the past-the-end iterator".
; 1833 :             return;
; 1834 :         }
; 1835 : 
; 1836 :         _My_data._Orphan_all();
; 1837 :         _Destroy_range(_Myfirst, _Mylast, _Getal());
; 1838 :         _ASAN_VECTOR_MODIFY(static_cast<difference_type>(_Myfirst - _Mylast)); // negative when destroying elements
; 1839 :         _Mylast = _Myfirst;

  0005b	89 47 14	 mov	 DWORD PTR [edi+20], eax
$LN29@CDynamicPo:

; 2107 :         if (_Myfirst) { // destroy and deallocate old array

  0005e	85 c0		 test	 eax, eax
  00060	74 41		 je	 SHORT $LN35@CDynamicPo

; 2108 :             _Destroy_range(_Myfirst, _Mylast, _Al);
; 2109 :             _ASAN_VECTOR_REMOVE;
; 2110 :             _Al.deallocate(_Myfirst, static_cast<size_type>(_Myend - _Myfirst));

  00062	8b 4f 18	 mov	 ecx, DWORD PTR [edi+24]
  00065	2b c8		 sub	 ecx, eax
; File C:\Program Files\Microsoft Visual Studio\2022\Community\VC\Tools\MSVC\14.34.31933\include\xmemory

; 830  :         _Deallocate<_New_alignof<_Ty>>(_Ptr, sizeof(_Ty) * _Count);

  00067	83 e1 fc	 and	 ecx, -4			; fffffffcH

; 251  :         if (_Bytes >= _Big_allocation_threshold) { // boost the alignment of big allocations to help autovectorization

  0006a	81 f9 00 10 00
	00		 cmp	 ecx, 4096		; 00001000H
  00070	72 12		 jb	 SHORT $LN51@CDynamicPo

; 150  :     const uintptr_t _Ptr_container   = _Ptr_user[-1];

  00072	8b 50 fc	 mov	 edx, DWORD PTR [eax-4]
  00075	83 c1 23	 add	 ecx, 35			; 00000023H

; 151  : 
; 152  :     // If the following asserts, it likely means that we are performing
; 153  :     // an aligned delete on memory coming from an unaligned allocation.
; 154  :     _STL_ASSERT(_Ptr_user[-2] == _Big_allocation_sentinel, "invalid argument");
; 155  : 
; 156  :     // Extra paranoia on aligned allocation/deallocation; ensure _Ptr_container is
; 157  :     // in range [_Min_back_shift, _Non_user_size]
; 158  : #ifdef _DEBUG
; 159  :     constexpr uintptr_t _Min_back_shift = 2 * sizeof(void*);
; 160  : #else // ^^^ _DEBUG ^^^ // vvv !_DEBUG vvv
; 161  :     constexpr uintptr_t _Min_back_shift = sizeof(void*);
; 162  : #endif // _DEBUG
; 163  :     const uintptr_t _Back_shift = reinterpret_cast<uintptr_t>(_Ptr) - _Ptr_container;

  00078	2b c2		 sub	 eax, edx

; 164  :     _STL_VERIFY(_Back_shift >= _Min_back_shift && _Back_shift <= _Non_user_size, "invalid argument");

  0007a	83 c0 fc	 add	 eax, -4			; fffffffcH
  0007d	83 f8 1f	 cmp	 eax, 31			; 0000001fH
  00080	77 7b		 ja	 SHORT $LN73@CDynamicPo

; 165  :     _Ptr = reinterpret_cast<void*>(_Ptr_container);

  00082	8b c2		 mov	 eax, edx
$LN51@CDynamicPo:

; 255  :         ::operator delete(_Ptr, _Bytes);

  00084	51		 push	 ecx
  00085	50		 push	 eax
  00086	e8 00 00 00 00	 call	 ??3@YAXPAXI@Z		; operator delete
; File C:\Program Files\Microsoft Visual Studio\2022\Community\VC\Tools\MSVC\14.34.31933\include\vector

; 2112 :             _Myfirst = nullptr;

  0008b	c7 47 10 00 00
	00 00		 mov	 DWORD PTR [edi+16], 0
; File C:\Program Files\Microsoft Visual Studio\2022\Community\VC\Tools\MSVC\14.34.31933\include\xmemory

; 255  :         ::operator delete(_Ptr, _Bytes);

  00092	83 c4 08	 add	 esp, 8
; File C:\Program Files\Microsoft Visual Studio\2022\Community\VC\Tools\MSVC\14.34.31933\include\vector

; 2113 :             _Mylast  = nullptr;

  00095	c7 47 14 00 00
	00 00		 mov	 DWORD PTR [edi+20], 0

; 2114 :             _Myend   = nullptr;

  0009c	c7 47 18 00 00
	00 00		 mov	 DWORD PTR [edi+24], 0
$LN35@CDynamicPo:

; 2107 :         if (_Myfirst) { // destroy and deallocate old array

  000a3	8b 47 04	 mov	 eax, DWORD PTR [edi+4]
  000a6	85 c0		 test	 eax, eax
  000a8	74 41		 je	 SHORT $LN60@CDynamicPo

; 2108 :             _Destroy_range(_Myfirst, _Mylast, _Al);
; 2109 :             _ASAN_VECTOR_REMOVE;
; 2110 :             _Al.deallocate(_Myfirst, static_cast<size_type>(_Myend - _Myfirst));

  000aa	8b 4f 0c	 mov	 ecx, DWORD PTR [edi+12]
  000ad	2b c8		 sub	 ecx, eax
; File C:\Program Files\Microsoft Visual Studio\2022\Community\VC\Tools\MSVC\14.34.31933\include\xmemory

; 830  :         _Deallocate<_New_alignof<_Ty>>(_Ptr, sizeof(_Ty) * _Count);

  000af	83 e1 fc	 and	 ecx, -4			; fffffffcH

; 251  :         if (_Bytes >= _Big_allocation_threshold) { // boost the alignment of big allocations to help autovectorization

  000b2	81 f9 00 10 00
	00		 cmp	 ecx, 4096		; 00001000H
  000b8	72 12		 jb	 SHORT $LN76@CDynamicPo

; 150  :     const uintptr_t _Ptr_container   = _Ptr_user[-1];

  000ba	8b 50 fc	 mov	 edx, DWORD PTR [eax-4]
  000bd	83 c1 23	 add	 ecx, 35			; 00000023H

; 151  : 
; 152  :     // If the following asserts, it likely means that we are performing
; 153  :     // an aligned delete on memory coming from an unaligned allocation.
; 154  :     _STL_ASSERT(_Ptr_user[-2] == _Big_allocation_sentinel, "invalid argument");
; 155  : 
; 156  :     // Extra paranoia on aligned allocation/deallocation; ensure _Ptr_container is
; 157  :     // in range [_Min_back_shift, _Non_user_size]
; 158  : #ifdef _DEBUG
; 159  :     constexpr uintptr_t _Min_back_shift = 2 * sizeof(void*);
; 160  : #else // ^^^ _DEBUG ^^^ // vvv !_DEBUG vvv
; 161  :     constexpr uintptr_t _Min_back_shift = sizeof(void*);
; 162  : #endif // _DEBUG
; 163  :     const uintptr_t _Back_shift = reinterpret_cast<uintptr_t>(_Ptr) - _Ptr_container;

  000c0	2b c2		 sub	 eax, edx

; 164  :     _STL_VERIFY(_Back_shift >= _Min_back_shift && _Back_shift <= _Non_user_size, "invalid argument");

  000c2	83 c0 fc	 add	 eax, -4			; fffffffcH
  000c5	83 f8 1f	 cmp	 eax, 31			; 0000001fH
  000c8	77 33		 ja	 SHORT $LN73@CDynamicPo

; 165  :     _Ptr = reinterpret_cast<void*>(_Ptr_container);

  000ca	8b c2		 mov	 eax, edx
$LN76@CDynamicPo:

; 255  :         ::operator delete(_Ptr, _Bytes);

  000cc	51		 push	 ecx
  000cd	50		 push	 eax
  000ce	e8 00 00 00 00	 call	 ??3@YAXPAXI@Z		; operator delete
; File C:\Program Files\Microsoft Visual Studio\2022\Community\VC\Tools\MSVC\14.34.31933\include\vector

; 2112 :             _Myfirst = nullptr;

  000d3	c7 47 04 00 00
	00 00		 mov	 DWORD PTR [edi+4], 0
; File C:\Program Files\Microsoft Visual Studio\2022\Community\VC\Tools\MSVC\14.34.31933\include\xmemory

; 255  :         ::operator delete(_Ptr, _Bytes);

  000da	83 c4 08	 add	 esp, 8
; File C:\Program Files\Microsoft Visual Studio\2022\Community\VC\Tools\MSVC\14.34.31933\include\vector

; 2113 :             _Mylast  = nullptr;

  000dd	c7 47 08 00 00
	00 00		 mov	 DWORD PTR [edi+8], 0

; 2114 :             _Myend   = nullptr;

  000e4	c7 47 0c 00 00
	00 00		 mov	 DWORD PTR [edi+12], 0
$LN60@CDynamicPo:
; File C:\Users\flourine\Desktop\Xantios\client-src\Code\eterLib\Pool.h

; 146  : 	}

  000eb	8b 4d f4	 mov	 ecx, DWORD PTR __$EHRec$[ebp]
  000ee	64 89 0d 00 00
	00 00		 mov	 DWORD PTR fs:0, ecx
  000f5	59		 pop	 ecx
  000f6	5f		 pop	 edi
  000f7	5e		 pop	 esi
  000f8	5b		 pop	 ebx
  000f9	8b e5		 mov	 esp, ebp
  000fb	5d		 pop	 ebp
  000fc	c3		 ret	 0
$LN73@CDynamicPo:
; File C:\Program Files\Microsoft Visual Studio\2022\Community\VC\Tools\MSVC\14.34.31933\include\xmemory

; 164  :     _STL_VERIFY(_Back_shift >= _Min_back_shift && _Back_shift <= _Non_user_size, "invalid argument");

  000fd	e8 00 00 00 00	 call	 __invalid_parameter_noinfo_noreturn
$LN86@CDynamicPo:
  00102	cc		 int	 3
  00103	cc		 int	 3
  00104	cc		 int	 3
  00105	cc		 int	 3
  00106	cc		 int	 3
  00107	cc		 int	 3
_TEXT	ENDS
;	COMDAT text$x
text$x	SEGMENT
__ehhandler$??1?$CDynamicPoolEx@VCAirResistanceDecorator@NEffectUpdateDecorator@@@@UAE@XZ:
  00000	90		 npad	 1
  00001	90		 npad	 1
  00002	8b 54 24 08	 mov	 edx, DWORD PTR [esp+8]
  00006	8d 42 0c	 lea	 eax, DWORD PTR [edx+12]
  00009	8b 4a f0	 mov	 ecx, DWORD PTR [edx-16]
  0000c	33 c8		 xor	 ecx, eax
  0000e	e8 00 00 00 00	 call	 @__security_check_cookie@4
  00013	b8 00 00 00 00	 mov	 eax, OFFSET __ehfuncinfo$??1?$CDynamicPoolEx@VCAirResistanceDecorator@NEffectUpdateDecorator@@@@UAE@XZ
  00018	e9 00 00 00 00	 jmp	 ___CxxFrameHandler3
text$x	ENDS
??1?$CDynamicPoolEx@VCAirResistanceDecorator@NEffectUpdateDecorator@@@@UAE@XZ ENDP ; CDynamicPoolEx<NEffectUpdateDecorator::CAirResistanceDecorator>::~CDynamicPoolEx<NEffectUpdateDecorator::CAirResistanceDecorator>
; Function compile flags: /Ogtp
;	COMDAT ??_G?$CDynamicPoolEx@VCGravityDecorator@NEffectUpdateDecorator@@@@UAEPAXI@Z
_TEXT	SEGMENT
___flags$ = 8						; size = 4
??_G?$CDynamicPoolEx@VCGravityDecorator@NEffectUpdateDecorator@@@@UAEPAXI@Z PROC ; CDynamicPoolEx<NEffectUpdateDecorator::CGravityDecorator>::`scalar deleting destructor', COMDAT
; _this$ = ecx
  00000	55		 push	 ebp
  00001	8b ec		 mov	 ebp, esp
  00003	56		 push	 esi
  00004	8b f1		 mov	 esi, ecx
  00006	e8 00 00 00 00	 call	 ??1?$CDynamicPoolEx@VCGravityDecorator@NEffectUpdateDecorator@@@@UAE@XZ ; CDynamicPoolEx<NEffectUpdateDecorator::CGravityDecorator>::~CDynamicPoolEx<NEffectUpdateDecorator::CGravityDecorator>
  0000b	f6 45 08 01	 test	 BYTE PTR ___flags$[ebp], 1
  0000f	74 0b		 je	 SHORT $LN4@scalar
  00011	6a 24		 push	 36			; 00000024H
  00013	56		 push	 esi
  00014	e8 00 00 00 00	 call	 ??3@YAXPAXI@Z		; operator delete
  00019	83 c4 08	 add	 esp, 8
$LN4@scalar:
  0001c	8b c6		 mov	 eax, esi
  0001e	5e		 pop	 esi
  0001f	5d		 pop	 ebp
  00020	c2 04 00	 ret	 4
??_G?$CDynamicPoolEx@VCGravityDecorator@NEffectUpdateDecorator@@@@UAEPAXI@Z ENDP ; CDynamicPoolEx<NEffectUpdateDecorator::CGravityDecorator>::`scalar deleting destructor'
_TEXT	ENDS
; Function compile flags: /Ogtp
; File C:\Users\flourine\Desktop\Xantios\client-src\Code\eterLib\Pool.h
;	COMDAT ?Delete@?$CDynamicPoolEx@VCGravityDecorator@NEffectUpdateDecorator@@@@KAXPAVCGravityDecorator@NEffectUpdateDecorator@@@Z
_TEXT	SEGMENT
_pkData$ = 8						; size = 4
?Delete@?$CDynamicPoolEx@VCGravityDecorator@NEffectUpdateDecorator@@@@KAXPAVCGravityDecorator@NEffectUpdateDecorator@@@Z PROC ; CDynamicPoolEx<NEffectUpdateDecorator::CGravityDecorator>::Delete, COMDAT

; 232  : 		::operator delete (pkData);

  00000	e9 00 00 00 00	 jmp	 ??3@YAXPAX@Z		; operator delete
?Delete@?$CDynamicPoolEx@VCGravityDecorator@NEffectUpdateDecorator@@@@KAXPAVCGravityDecorator@NEffectUpdateDecorator@@@Z ENDP ; CDynamicPoolEx<NEffectUpdateDecorator::CGravityDecorator>::Delete
_TEXT	ENDS
; Function compile flags: /Ogtp
; File C:\Users\flourine\Desktop\Xantios\client-src\Code\eterLib\Pool.h
; File C:\Program Files\Microsoft Visual Studio\2022\Community\VC\Tools\MSVC\14.34.31933\include\vector
; File C:\Program Files\Microsoft Visual Studio\2022\Community\VC\Tools\MSVC\14.34.31933\include\algorithm
; File C:\Users\flourine\Desktop\Xantios\client-src\Code\eterLib\Pool.h
; File C:\Program Files\Microsoft Visual Studio\2022\Community\VC\Tools\MSVC\14.34.31933\include\algorithm
; File C:\Users\flourine\Desktop\Xantios\client-src\Code\eterLib\Pool.h
; File C:\Program Files\Microsoft Visual Studio\2022\Community\VC\Tools\MSVC\14.34.31933\include\algorithm
; File C:\Program Files\Microsoft Visual Studio\2022\Community\VC\Tools\MSVC\14.34.31933\include\vector
; File C:\Program Files\Microsoft Visual Studio\2022\Community\VC\Tools\MSVC\14.34.31933\include\xmemory
; File C:\Program Files\Microsoft Visual Studio\2022\Community\VC\Tools\MSVC\14.34.31933\include\vector
; File C:\Program Files\Microsoft Visual Studio\2022\Community\VC\Tools\MSVC\14.34.31933\include\xmemory
; File C:\Program Files\Microsoft Visual Studio\2022\Community\VC\Tools\MSVC\14.34.31933\include\vector
; File C:\Program Files\Microsoft Visual Studio\2022\Community\VC\Tools\MSVC\14.34.31933\include\xmemory
; File C:\Program Files\Microsoft Visual Studio\2022\Community\VC\Tools\MSVC\14.34.31933\include\vector
; File C:\Program Files\Microsoft Visual Studio\2022\Community\VC\Tools\MSVC\14.34.31933\include\xmemory
; File C:\Program Files\Microsoft Visual Studio\2022\Community\VC\Tools\MSVC\14.34.31933\include\vector
; File C:\Users\flourine\Desktop\Xantios\client-src\Code\eterLib\Pool.h
; File C:\Program Files\Microsoft Visual Studio\2022\Community\VC\Tools\MSVC\14.34.31933\include\xmemory
; File C:\Users\flourine\Desktop\Xantios\client-src\Code\eterLib\Pool.h
;	COMDAT ??1?$CDynamicPoolEx@VCGravityDecorator@NEffectUpdateDecorator@@@@UAE@XZ
_TEXT	SEGMENT
__$EHRec$ = -12						; size = 12
??1?$CDynamicPoolEx@VCGravityDecorator@NEffectUpdateDecorator@@@@UAE@XZ PROC ; CDynamicPoolEx<NEffectUpdateDecorator::CGravityDecorator>::~CDynamicPoolEx<NEffectUpdateDecorator::CGravityDecorator>, COMDAT
; _this$ = ecx

; 136  : 	{

  00000	55		 push	 ebp
  00001	8b ec		 mov	 ebp, esp
  00003	6a ff		 push	 -1
  00005	68 00 00 00 00	 push	 __ehhandler$??1?$CDynamicPoolEx@VCGravityDecorator@NEffectUpdateDecorator@@@@UAE@XZ
  0000a	64 a1 00 00 00
	00		 mov	 eax, DWORD PTR fs:0
  00010	50		 push	 eax
  00011	53		 push	 ebx
  00012	56		 push	 esi
  00013	57		 push	 edi
  00014	a1 00 00 00 00	 mov	 eax, DWORD PTR ___security_cookie
  00019	33 c5		 xor	 eax, ebp
  0001b	50		 push	 eax
  0001c	8d 45 f4	 lea	 eax, DWORD PTR __$EHRec$[ebp]
  0001f	64 a3 00 00 00
	00		 mov	 DWORD PTR fs:0, eax
  00025	8b f9		 mov	 edi, ecx
  00027	c7 07 00 00 00
	00		 mov	 DWORD PTR [edi], OFFSET ??_7?$CDynamicPoolEx@VCGravityDecorator@NEffectUpdateDecorator@@@@6B@
; File C:\Program Files\Microsoft Visual Studio\2022\Community\VC\Tools\MSVC\14.34.31933\include\vector

; 41   :     _CONSTEXPR20 _Vector_const_iterator(_Tptr _Parg, const _Container_base* _Pvector) noexcept : _Ptr(_Parg) {

  0002d	8b 5f 08	 mov	 ebx, DWORD PTR [edi+8]
; File C:\Program Files\Microsoft Visual Studio\2022\Community\VC\Tools\MSVC\14.34.31933\include\algorithm

; 265  :     for (; _UFirst != _ULast; ++_UFirst) {

  00030	8b 77 04	 mov	 esi, DWORD PTR [edi+4]
  00033	3b f3		 cmp	 esi, ebx
  00035	74 11		 je	 SHORT $LN19@CDynamicPo
$LL20@CDynamicPo:
; File C:\Users\flourine\Desktop\Xantios\client-src\Code\eterLib\Pool.h

; 232  : 		::operator delete (pkData);

  00037	ff 36		 push	 DWORD PTR [esi]
  00039	e8 00 00 00 00	 call	 ??3@YAXPAX@Z		; operator delete
; File C:\Program Files\Microsoft Visual Studio\2022\Community\VC\Tools\MSVC\14.34.31933\include\algorithm

; 265  :     for (; _UFirst != _ULast; ++_UFirst) {

  0003e	83 c6 04	 add	 esi, 4
; File C:\Users\flourine\Desktop\Xantios\client-src\Code\eterLib\Pool.h

; 232  : 		::operator delete (pkData);

  00041	83 c4 04	 add	 esp, 4
; File C:\Program Files\Microsoft Visual Studio\2022\Community\VC\Tools\MSVC\14.34.31933\include\algorithm

; 265  :     for (; _UFirst != _ULast; ++_UFirst) {

  00044	3b f3		 cmp	 esi, ebx
  00046	75 ef		 jne	 SHORT $LL20@CDynamicPo
$LN19@CDynamicPo:
; File C:\Program Files\Microsoft Visual Studio\2022\Community\VC\Tools\MSVC\14.34.31933\include\vector

; 1829 :         if (_Myfirst == _Mylast) { // already empty, nothing to do

  00048	8b 47 04	 mov	 eax, DWORD PTR [edi+4]
  0004b	3b 47 08	 cmp	 eax, DWORD PTR [edi+8]
  0004e	74 03		 je	 SHORT $LN26@CDynamicPo

; 1830 :             // This is an optimization for debug mode: we can avoid taking the debug lock to invalidate iterators.
; 1831 :             // Note that when clearing an empty vector, this will preserve past-the-end iterators, which is allowed by
; 1832 :             // N4901 [tab:container.seq.req] "a.clear() [...] may invalidate the past-the-end iterator".
; 1833 :             return;
; 1834 :         }
; 1835 : 
; 1836 :         _My_data._Orphan_all();
; 1837 :         _Destroy_range(_Myfirst, _Mylast, _Getal());
; 1838 :         _ASAN_VECTOR_MODIFY(static_cast<difference_type>(_Myfirst - _Mylast)); // negative when destroying elements
; 1839 :         _Mylast = _Myfirst;

  00050	89 47 08	 mov	 DWORD PTR [edi+8], eax
$LN26@CDynamicPo:

; 1829 :         if (_Myfirst == _Mylast) { // already empty, nothing to do

  00053	8b 47 10	 mov	 eax, DWORD PTR [edi+16]
  00056	3b 47 14	 cmp	 eax, DWORD PTR [edi+20]
  00059	74 03		 je	 SHORT $LN29@CDynamicPo

; 1830 :             // This is an optimization for debug mode: we can avoid taking the debug lock to invalidate iterators.
; 1831 :             // Note that when clearing an empty vector, this will preserve past-the-end iterators, which is allowed by
; 1832 :             // N4901 [tab:container.seq.req] "a.clear() [...] may invalidate the past-the-end iterator".
; 1833 :             return;
; 1834 :         }
; 1835 : 
; 1836 :         _My_data._Orphan_all();
; 1837 :         _Destroy_range(_Myfirst, _Mylast, _Getal());
; 1838 :         _ASAN_VECTOR_MODIFY(static_cast<difference_type>(_Myfirst - _Mylast)); // negative when destroying elements
; 1839 :         _Mylast = _Myfirst;

  0005b	89 47 14	 mov	 DWORD PTR [edi+20], eax
$LN29@CDynamicPo:

; 2107 :         if (_Myfirst) { // destroy and deallocate old array

  0005e	85 c0		 test	 eax, eax
  00060	74 41		 je	 SHORT $LN35@CDynamicPo

; 2108 :             _Destroy_range(_Myfirst, _Mylast, _Al);
; 2109 :             _ASAN_VECTOR_REMOVE;
; 2110 :             _Al.deallocate(_Myfirst, static_cast<size_type>(_Myend - _Myfirst));

  00062	8b 4f 18	 mov	 ecx, DWORD PTR [edi+24]
  00065	2b c8		 sub	 ecx, eax
; File C:\Program Files\Microsoft Visual Studio\2022\Community\VC\Tools\MSVC\14.34.31933\include\xmemory

; 830  :         _Deallocate<_New_alignof<_Ty>>(_Ptr, sizeof(_Ty) * _Count);

  00067	83 e1 fc	 and	 ecx, -4			; fffffffcH

; 251  :         if (_Bytes >= _Big_allocation_threshold) { // boost the alignment of big allocations to help autovectorization

  0006a	81 f9 00 10 00
	00		 cmp	 ecx, 4096		; 00001000H
  00070	72 12		 jb	 SHORT $LN51@CDynamicPo

; 150  :     const uintptr_t _Ptr_container   = _Ptr_user[-1];

  00072	8b 50 fc	 mov	 edx, DWORD PTR [eax-4]
  00075	83 c1 23	 add	 ecx, 35			; 00000023H

; 151  : 
; 152  :     // If the following asserts, it likely means that we are performing
; 153  :     // an aligned delete on memory coming from an unaligned allocation.
; 154  :     _STL_ASSERT(_Ptr_user[-2] == _Big_allocation_sentinel, "invalid argument");
; 155  : 
; 156  :     // Extra paranoia on aligned allocation/deallocation; ensure _Ptr_container is
; 157  :     // in range [_Min_back_shift, _Non_user_size]
; 158  : #ifdef _DEBUG
; 159  :     constexpr uintptr_t _Min_back_shift = 2 * sizeof(void*);
; 160  : #else // ^^^ _DEBUG ^^^ // vvv !_DEBUG vvv
; 161  :     constexpr uintptr_t _Min_back_shift = sizeof(void*);
; 162  : #endif // _DEBUG
; 163  :     const uintptr_t _Back_shift = reinterpret_cast<uintptr_t>(_Ptr) - _Ptr_container;

  00078	2b c2		 sub	 eax, edx

; 164  :     _STL_VERIFY(_Back_shift >= _Min_back_shift && _Back_shift <= _Non_user_size, "invalid argument");

  0007a	83 c0 fc	 add	 eax, -4			; fffffffcH
  0007d	83 f8 1f	 cmp	 eax, 31			; 0000001fH
  00080	77 7b		 ja	 SHORT $LN73@CDynamicPo

; 165  :     _Ptr = reinterpret_cast<void*>(_Ptr_container);

  00082	8b c2		 mov	 eax, edx
$LN51@CDynamicPo:

; 255  :         ::operator delete(_Ptr, _Bytes);

  00084	51		 push	 ecx
  00085	50		 push	 eax
  00086	e8 00 00 00 00	 call	 ??3@YAXPAXI@Z		; operator delete
; File C:\Program Files\Microsoft Visual Studio\2022\Community\VC\Tools\MSVC\14.34.31933\include\vector

; 2112 :             _Myfirst = nullptr;

  0008b	c7 47 10 00 00
	00 00		 mov	 DWORD PTR [edi+16], 0
; File C:\Program Files\Microsoft Visual Studio\2022\Community\VC\Tools\MSVC\14.34.31933\include\xmemory

; 255  :         ::operator delete(_Ptr, _Bytes);

  00092	83 c4 08	 add	 esp, 8
; File C:\Program Files\Microsoft Visual Studio\2022\Community\VC\Tools\MSVC\14.34.31933\include\vector

; 2113 :             _Mylast  = nullptr;

  00095	c7 47 14 00 00
	00 00		 mov	 DWORD PTR [edi+20], 0

; 2114 :             _Myend   = nullptr;

  0009c	c7 47 18 00 00
	00 00		 mov	 DWORD PTR [edi+24], 0
$LN35@CDynamicPo:

; 2107 :         if (_Myfirst) { // destroy and deallocate old array

  000a3	8b 47 04	 mov	 eax, DWORD PTR [edi+4]
  000a6	85 c0		 test	 eax, eax
  000a8	74 41		 je	 SHORT $LN60@CDynamicPo

; 2108 :             _Destroy_range(_Myfirst, _Mylast, _Al);
; 2109 :             _ASAN_VECTOR_REMOVE;
; 2110 :             _Al.deallocate(_Myfirst, static_cast<size_type>(_Myend - _Myfirst));

  000aa	8b 4f 0c	 mov	 ecx, DWORD PTR [edi+12]
  000ad	2b c8		 sub	 ecx, eax
; File C:\Program Files\Microsoft Visual Studio\2022\Community\VC\Tools\MSVC\14.34.31933\include\xmemory

; 830  :         _Deallocate<_New_alignof<_Ty>>(_Ptr, sizeof(_Ty) * _Count);

  000af	83 e1 fc	 and	 ecx, -4			; fffffffcH

; 251  :         if (_Bytes >= _Big_allocation_threshold) { // boost the alignment of big allocations to help autovectorization

  000b2	81 f9 00 10 00
	00		 cmp	 ecx, 4096		; 00001000H
  000b8	72 12		 jb	 SHORT $LN76@CDynamicPo

; 150  :     const uintptr_t _Ptr_container   = _Ptr_user[-1];

  000ba	8b 50 fc	 mov	 edx, DWORD PTR [eax-4]
  000bd	83 c1 23	 add	 ecx, 35			; 00000023H

; 151  : 
; 152  :     // If the following asserts, it likely means that we are performing
; 153  :     // an aligned delete on memory coming from an unaligned allocation.
; 154  :     _STL_ASSERT(_Ptr_user[-2] == _Big_allocation_sentinel, "invalid argument");
; 155  : 
; 156  :     // Extra paranoia on aligned allocation/deallocation; ensure _Ptr_container is
; 157  :     // in range [_Min_back_shift, _Non_user_size]
; 158  : #ifdef _DEBUG
; 159  :     constexpr uintptr_t _Min_back_shift = 2 * sizeof(void*);
; 160  : #else // ^^^ _DEBUG ^^^ // vvv !_DEBUG vvv
; 161  :     constexpr uintptr_t _Min_back_shift = sizeof(void*);
; 162  : #endif // _DEBUG
; 163  :     const uintptr_t _Back_shift = reinterpret_cast<uintptr_t>(_Ptr) - _Ptr_container;

  000c0	2b c2		 sub	 eax, edx

; 164  :     _STL_VERIFY(_Back_shift >= _Min_back_shift && _Back_shift <= _Non_user_size, "invalid argument");

  000c2	83 c0 fc	 add	 eax, -4			; fffffffcH
  000c5	83 f8 1f	 cmp	 eax, 31			; 0000001fH
  000c8	77 33		 ja	 SHORT $LN73@CDynamicPo

; 165  :     _Ptr = reinterpret_cast<void*>(_Ptr_container);

  000ca	8b c2		 mov	 eax, edx
$LN76@CDynamicPo:

; 255  :         ::operator delete(_Ptr, _Bytes);

  000cc	51		 push	 ecx
  000cd	50		 push	 eax
  000ce	e8 00 00 00 00	 call	 ??3@YAXPAXI@Z		; operator delete
; File C:\Program Files\Microsoft Visual Studio\2022\Community\VC\Tools\MSVC\14.34.31933\include\vector

; 2112 :             _Myfirst = nullptr;

  000d3	c7 47 04 00 00
	00 00		 mov	 DWORD PTR [edi+4], 0
; File C:\Program Files\Microsoft Visual Studio\2022\Community\VC\Tools\MSVC\14.34.31933\include\xmemory

; 255  :         ::operator delete(_Ptr, _Bytes);

  000da	83 c4 08	 add	 esp, 8
; File C:\Program Files\Microsoft Visual Studio\2022\Community\VC\Tools\MSVC\14.34.31933\include\vector

; 2113 :             _Mylast  = nullptr;

  000dd	c7 47 08 00 00
	00 00		 mov	 DWORD PTR [edi+8], 0

; 2114 :             _Myend   = nullptr;

  000e4	c7 47 0c 00 00
	00 00		 mov	 DWORD PTR [edi+12], 0
$LN60@CDynamicPo:
; File C:\Users\flourine\Desktop\Xantios\client-src\Code\eterLib\Pool.h

; 146  : 	}

  000eb	8b 4d f4	 mov	 ecx, DWORD PTR __$EHRec$[ebp]
  000ee	64 89 0d 00 00
	00 00		 mov	 DWORD PTR fs:0, ecx
  000f5	59		 pop	 ecx
  000f6	5f		 pop	 edi
  000f7	5e		 pop	 esi
  000f8	5b		 pop	 ebx
  000f9	8b e5		 mov	 esp, ebp
  000fb	5d		 pop	 ebp
  000fc	c3		 ret	 0
$LN73@CDynamicPo:
; File C:\Program Files\Microsoft Visual Studio\2022\Community\VC\Tools\MSVC\14.34.31933\include\xmemory

; 164  :     _STL_VERIFY(_Back_shift >= _Min_back_shift && _Back_shift <= _Non_user_size, "invalid argument");

  000fd	e8 00 00 00 00	 call	 __invalid_parameter_noinfo_noreturn
$LN86@CDynamicPo:
  00102	cc		 int	 3
  00103	cc		 int	 3
  00104	cc		 int	 3
  00105	cc		 int	 3
  00106	cc		 int	 3
  00107	cc		 int	 3
_TEXT	ENDS
;	COMDAT text$x
text$x	SEGMENT
__ehhandler$??1?$CDynamicPoolEx@VCGravityDecorator@NEffectUpdateDecorator@@@@UAE@XZ:
  00000	90		 npad	 1
  00001	90		 npad	 1
  00002	8b 54 24 08	 mov	 edx, DWORD PTR [esp+8]
  00006	8d 42 0c	 lea	 eax, DWORD PTR [edx+12]
  00009	8b 4a f0	 mov	 ecx, DWORD PTR [edx-16]
  0000c	33 c8		 xor	 ecx, eax
  0000e	e8 00 00 00 00	 call	 @__security_check_cookie@4
  00013	b8 00 00 00 00	 mov	 eax, OFFSET __ehfuncinfo$??1?$CDynamicPoolEx@VCGravityDecorator@NEffectUpdateDecorator@@@@UAE@XZ
  00018	e9 00 00 00 00	 jmp	 ___CxxFrameHandler3
text$x	ENDS
??1?$CDynamicPoolEx@VCGravityDecorator@NEffectUpdateDecorator@@@@UAE@XZ ENDP ; CDynamicPoolEx<NEffectUpdateDecorator::CGravityDecorator>::~CDynamicPoolEx<NEffectUpdateDecorator::CGravityDecorator>
; Function compile flags: /Ogtp
;	COMDAT ??_G?$CDynamicPoolEx@VCRotationDecorator@NEffectUpdateDecorator@@@@UAEPAXI@Z
_TEXT	SEGMENT
___flags$ = 8						; size = 4
??_G?$CDynamicPoolEx@VCRotationDecorator@NEffectUpdateDecorator@@@@UAEPAXI@Z PROC ; CDynamicPoolEx<NEffectUpdateDecorator::CRotationDecorator>::`scalar deleting destructor', COMDAT
; _this$ = ecx
  00000	55		 push	 ebp
  00001	8b ec		 mov	 ebp, esp
  00003	56		 push	 esi
  00004	8b f1		 mov	 esi, ecx
  00006	e8 00 00 00 00	 call	 ??1?$CDynamicPoolEx@VCRotationDecorator@NEffectUpdateDecorator@@@@UAE@XZ ; CDynamicPoolEx<NEffectUpdateDecorator::CRotationDecorator>::~CDynamicPoolEx<NEffectUpdateDecorator::CRotationDecorator>
  0000b	f6 45 08 01	 test	 BYTE PTR ___flags$[ebp], 1
  0000f	74 0b		 je	 SHORT $LN4@scalar
  00011	6a 24		 push	 36			; 00000024H
  00013	56		 push	 esi
  00014	e8 00 00 00 00	 call	 ??3@YAXPAXI@Z		; operator delete
  00019	83 c4 08	 add	 esp, 8
$LN4@scalar:
  0001c	8b c6		 mov	 eax, esi
  0001e	5e		 pop	 esi
  0001f	5d		 pop	 ebp
  00020	c2 04 00	 ret	 4
??_G?$CDynamicPoolEx@VCRotationDecorator@NEffectUpdateDecorator@@@@UAEPAXI@Z ENDP ; CDynamicPoolEx<NEffectUpdateDecorator::CRotationDecorator>::`scalar deleting destructor'
_TEXT	ENDS
; Function compile flags: /Ogtp
; File C:\Users\flourine\Desktop\Xantios\client-src\Code\eterLib\Pool.h
;	COMDAT ?Delete@?$CDynamicPoolEx@VCRotationDecorator@NEffectUpdateDecorator@@@@KAXPAVCRotationDecorator@NEffectUpdateDecorator@@@Z
_TEXT	SEGMENT
_pkData$ = 8						; size = 4
?Delete@?$CDynamicPoolEx@VCRotationDecorator@NEffectUpdateDecorator@@@@KAXPAVCRotationDecorator@NEffectUpdateDecorator@@@Z PROC ; CDynamicPoolEx<NEffectUpdateDecorator::CRotationDecorator>::Delete, COMDAT

; 232  : 		::operator delete (pkData);

  00000	e9 00 00 00 00	 jmp	 ??3@YAXPAX@Z		; operator delete
?Delete@?$CDynamicPoolEx@VCRotationDecorator@NEffectUpdateDecorator@@@@KAXPAVCRotationDecorator@NEffectUpdateDecorator@@@Z ENDP ; CDynamicPoolEx<NEffectUpdateDecorator::CRotationDecorator>::Delete
_TEXT	ENDS
; Function compile flags: /Ogtp
; File C:\Users\flourine\Desktop\Xantios\client-src\Code\eterLib\Pool.h
; File C:\Program Files\Microsoft Visual Studio\2022\Community\VC\Tools\MSVC\14.34.31933\include\vector
; File C:\Program Files\Microsoft Visual Studio\2022\Community\VC\Tools\MSVC\14.34.31933\include\algorithm
; File C:\Users\flourine\Desktop\Xantios\client-src\Code\eterLib\Pool.h
; File C:\Program Files\Microsoft Visual Studio\2022\Community\VC\Tools\MSVC\14.34.31933\include\algorithm
; File C:\Users\flourine\Desktop\Xantios\client-src\Code\eterLib\Pool.h
; File C:\Program Files\Microsoft Visual Studio\2022\Community\VC\Tools\MSVC\14.34.31933\include\algorithm
; File C:\Program Files\Microsoft Visual Studio\2022\Community\VC\Tools\MSVC\14.34.31933\include\vector
; File C:\Program Files\Microsoft Visual Studio\2022\Community\VC\Tools\MSVC\14.34.31933\include\xmemory
; File C:\Program Files\Microsoft Visual Studio\2022\Community\VC\Tools\MSVC\14.34.31933\include\vector
; File C:\Program Files\Microsoft Visual Studio\2022\Community\VC\Tools\MSVC\14.34.31933\include\xmemory
; File C:\Program Files\Microsoft Visual Studio\2022\Community\VC\Tools\MSVC\14.34.31933\include\vector
; File C:\Program Files\Microsoft Visual Studio\2022\Community\VC\Tools\MSVC\14.34.31933\include\xmemory
; File C:\Program Files\Microsoft Visual Studio\2022\Community\VC\Tools\MSVC\14.34.31933\include\vector
; File C:\Program Files\Microsoft Visual Studio\2022\Community\VC\Tools\MSVC\14.34.31933\include\xmemory
; File C:\Program Files\Microsoft Visual Studio\2022\Community\VC\Tools\MSVC\14.34.31933\include\vector
; File C:\Users\flourine\Desktop\Xantios\client-src\Code\eterLib\Pool.h
; File C:\Program Files\Microsoft Visual Studio\2022\Community\VC\Tools\MSVC\14.34.31933\include\xmemory
; File C:\Users\flourine\Desktop\Xantios\client-src\Code\eterLib\Pool.h
;	COMDAT ??1?$CDynamicPoolEx@VCRotationDecorator@NEffectUpdateDecorator@@@@UAE@XZ
_TEXT	SEGMENT
__$EHRec$ = -12						; size = 12
??1?$CDynamicPoolEx@VCRotationDecorator@NEffectUpdateDecorator@@@@UAE@XZ PROC ; CDynamicPoolEx<NEffectUpdateDecorator::CRotationDecorator>::~CDynamicPoolEx<NEffectUpdateDecorator::CRotationDecorator>, COMDAT
; _this$ = ecx

; 136  : 	{

  00000	55		 push	 ebp
  00001	8b ec		 mov	 ebp, esp
  00003	6a ff		 push	 -1
  00005	68 00 00 00 00	 push	 __ehhandler$??1?$CDynamicPoolEx@VCRotationDecorator@NEffectUpdateDecorator@@@@UAE@XZ
  0000a	64 a1 00 00 00
	00		 mov	 eax, DWORD PTR fs:0
  00010	50		 push	 eax
  00011	53		 push	 ebx
  00012	56		 push	 esi
  00013	57		 push	 edi
  00014	a1 00 00 00 00	 mov	 eax, DWORD PTR ___security_cookie
  00019	33 c5		 xor	 eax, ebp
  0001b	50		 push	 eax
  0001c	8d 45 f4	 lea	 eax, DWORD PTR __$EHRec$[ebp]
  0001f	64 a3 00 00 00
	00		 mov	 DWORD PTR fs:0, eax
  00025	8b f9		 mov	 edi, ecx
  00027	c7 07 00 00 00
	00		 mov	 DWORD PTR [edi], OFFSET ??_7?$CDynamicPoolEx@VCRotationDecorator@NEffectUpdateDecorator@@@@6B@
; File C:\Program Files\Microsoft Visual Studio\2022\Community\VC\Tools\MSVC\14.34.31933\include\vector

; 41   :     _CONSTEXPR20 _Vector_const_iterator(_Tptr _Parg, const _Container_base* _Pvector) noexcept : _Ptr(_Parg) {

  0002d	8b 5f 08	 mov	 ebx, DWORD PTR [edi+8]
; File C:\Program Files\Microsoft Visual Studio\2022\Community\VC\Tools\MSVC\14.34.31933\include\algorithm

; 265  :     for (; _UFirst != _ULast; ++_UFirst) {

  00030	8b 77 04	 mov	 esi, DWORD PTR [edi+4]
  00033	3b f3		 cmp	 esi, ebx
  00035	74 11		 je	 SHORT $LN19@CDynamicPo
$LL20@CDynamicPo:
; File C:\Users\flourine\Desktop\Xantios\client-src\Code\eterLib\Pool.h

; 232  : 		::operator delete (pkData);

  00037	ff 36		 push	 DWORD PTR [esi]
  00039	e8 00 00 00 00	 call	 ??3@YAXPAX@Z		; operator delete
; File C:\Program Files\Microsoft Visual Studio\2022\Community\VC\Tools\MSVC\14.34.31933\include\algorithm

; 265  :     for (; _UFirst != _ULast; ++_UFirst) {

  0003e	83 c6 04	 add	 esi, 4
; File C:\Users\flourine\Desktop\Xantios\client-src\Code\eterLib\Pool.h

; 232  : 		::operator delete (pkData);

  00041	83 c4 04	 add	 esp, 4
; File C:\Program Files\Microsoft Visual Studio\2022\Community\VC\Tools\MSVC\14.34.31933\include\algorithm

; 265  :     for (; _UFirst != _ULast; ++_UFirst) {

  00044	3b f3		 cmp	 esi, ebx
  00046	75 ef		 jne	 SHORT $LL20@CDynamicPo
$LN19@CDynamicPo:
; File C:\Program Files\Microsoft Visual Studio\2022\Community\VC\Tools\MSVC\14.34.31933\include\vector

; 1829 :         if (_Myfirst == _Mylast) { // already empty, nothing to do

  00048	8b 47 04	 mov	 eax, DWORD PTR [edi+4]
  0004b	3b 47 08	 cmp	 eax, DWORD PTR [edi+8]
  0004e	74 03		 je	 SHORT $LN26@CDynamicPo

; 1830 :             // This is an optimization for debug mode: we can avoid taking the debug lock to invalidate iterators.
; 1831 :             // Note that when clearing an empty vector, this will preserve past-the-end iterators, which is allowed by
; 1832 :             // N4901 [tab:container.seq.req] "a.clear() [...] may invalidate the past-the-end iterator".
; 1833 :             return;
; 1834 :         }
; 1835 : 
; 1836 :         _My_data._Orphan_all();
; 1837 :         _Destroy_range(_Myfirst, _Mylast, _Getal());
; 1838 :         _ASAN_VECTOR_MODIFY(static_cast<difference_type>(_Myfirst - _Mylast)); // negative when destroying elements
; 1839 :         _Mylast = _Myfirst;

  00050	89 47 08	 mov	 DWORD PTR [edi+8], eax
$LN26@CDynamicPo:

; 1829 :         if (_Myfirst == _Mylast) { // already empty, nothing to do

  00053	8b 47 10	 mov	 eax, DWORD PTR [edi+16]
  00056	3b 47 14	 cmp	 eax, DWORD PTR [edi+20]
  00059	74 03		 je	 SHORT $LN29@CDynamicPo

; 1830 :             // This is an optimization for debug mode: we can avoid taking the debug lock to invalidate iterators.
; 1831 :             // Note that when clearing an empty vector, this will preserve past-the-end iterators, which is allowed by
; 1832 :             // N4901 [tab:container.seq.req] "a.clear() [...] may invalidate the past-the-end iterator".
; 1833 :             return;
; 1834 :         }
; 1835 : 
; 1836 :         _My_data._Orphan_all();
; 1837 :         _Destroy_range(_Myfirst, _Mylast, _Getal());
; 1838 :         _ASAN_VECTOR_MODIFY(static_cast<difference_type>(_Myfirst - _Mylast)); // negative when destroying elements
; 1839 :         _Mylast = _Myfirst;

  0005b	89 47 14	 mov	 DWORD PTR [edi+20], eax
$LN29@CDynamicPo:

; 2107 :         if (_Myfirst) { // destroy and deallocate old array

  0005e	85 c0		 test	 eax, eax
  00060	74 41		 je	 SHORT $LN35@CDynamicPo

; 2108 :             _Destroy_range(_Myfirst, _Mylast, _Al);
; 2109 :             _ASAN_VECTOR_REMOVE;
; 2110 :             _Al.deallocate(_Myfirst, static_cast<size_type>(_Myend - _Myfirst));

  00062	8b 4f 18	 mov	 ecx, DWORD PTR [edi+24]
  00065	2b c8		 sub	 ecx, eax
; File C:\Program Files\Microsoft Visual Studio\2022\Community\VC\Tools\MSVC\14.34.31933\include\xmemory

; 830  :         _Deallocate<_New_alignof<_Ty>>(_Ptr, sizeof(_Ty) * _Count);

  00067	83 e1 fc	 and	 ecx, -4			; fffffffcH

; 251  :         if (_Bytes >= _Big_allocation_threshold) { // boost the alignment of big allocations to help autovectorization

  0006a	81 f9 00 10 00
	00		 cmp	 ecx, 4096		; 00001000H
  00070	72 12		 jb	 SHORT $LN51@CDynamicPo

; 150  :     const uintptr_t _Ptr_container   = _Ptr_user[-1];

  00072	8b 50 fc	 mov	 edx, DWORD PTR [eax-4]
  00075	83 c1 23	 add	 ecx, 35			; 00000023H

; 151  : 
; 152  :     // If the following asserts, it likely means that we are performing
; 153  :     // an aligned delete on memory coming from an unaligned allocation.
; 154  :     _STL_ASSERT(_Ptr_user[-2] == _Big_allocation_sentinel, "invalid argument");
; 155  : 
; 156  :     // Extra paranoia on aligned allocation/deallocation; ensure _Ptr_container is
; 157  :     // in range [_Min_back_shift, _Non_user_size]
; 158  : #ifdef _DEBUG
; 159  :     constexpr uintptr_t _Min_back_shift = 2 * sizeof(void*);
; 160  : #else // ^^^ _DEBUG ^^^ // vvv !_DEBUG vvv
; 161  :     constexpr uintptr_t _Min_back_shift = sizeof(void*);
; 162  : #endif // _DEBUG
; 163  :     const uintptr_t _Back_shift = reinterpret_cast<uintptr_t>(_Ptr) - _Ptr_container;

  00078	2b c2		 sub	 eax, edx

; 164  :     _STL_VERIFY(_Back_shift >= _Min_back_shift && _Back_shift <= _Non_user_size, "invalid argument");

  0007a	83 c0 fc	 add	 eax, -4			; fffffffcH
  0007d	83 f8 1f	 cmp	 eax, 31			; 0000001fH
  00080	77 7b		 ja	 SHORT $LN73@CDynamicPo

; 165  :     _Ptr = reinterpret_cast<void*>(_Ptr_container);

  00082	8b c2		 mov	 eax, edx
$LN51@CDynamicPo:

; 255  :         ::operator delete(_Ptr, _Bytes);

  00084	51		 push	 ecx
  00085	50		 push	 eax
  00086	e8 00 00 00 00	 call	 ??3@YAXPAXI@Z		; operator delete
; File C:\Program Files\Microsoft Visual Studio\2022\Community\VC\Tools\MSVC\14.34.31933\include\vector

; 2112 :             _Myfirst = nullptr;

  0008b	c7 47 10 00 00
	00 00		 mov	 DWORD PTR [edi+16], 0
; File C:\Program Files\Microsoft Visual Studio\2022\Community\VC\Tools\MSVC\14.34.31933\include\xmemory

; 255  :         ::operator delete(_Ptr, _Bytes);

  00092	83 c4 08	 add	 esp, 8
; File C:\Program Files\Microsoft Visual Studio\2022\Community\VC\Tools\MSVC\14.34.31933\include\vector

; 2113 :             _Mylast  = nullptr;

  00095	c7 47 14 00 00
	00 00		 mov	 DWORD PTR [edi+20], 0

; 2114 :             _Myend   = nullptr;

  0009c	c7 47 18 00 00
	00 00		 mov	 DWORD PTR [edi+24], 0
$LN35@CDynamicPo:

; 2107 :         if (_Myfirst) { // destroy and deallocate old array

  000a3	8b 47 04	 mov	 eax, DWORD PTR [edi+4]
  000a6	85 c0		 test	 eax, eax
  000a8	74 41		 je	 SHORT $LN60@CDynamicPo

; 2108 :             _Destroy_range(_Myfirst, _Mylast, _Al);
; 2109 :             _ASAN_VECTOR_REMOVE;
; 2110 :             _Al.deallocate(_Myfirst, static_cast<size_type>(_Myend - _Myfirst));

  000aa	8b 4f 0c	 mov	 ecx, DWORD PTR [edi+12]
  000ad	2b c8		 sub	 ecx, eax
; File C:\Program Files\Microsoft Visual Studio\2022\Community\VC\Tools\MSVC\14.34.31933\include\xmemory

; 830  :         _Deallocate<_New_alignof<_Ty>>(_Ptr, sizeof(_Ty) * _Count);

  000af	83 e1 fc	 and	 ecx, -4			; fffffffcH

; 251  :         if (_Bytes >= _Big_allocation_threshold) { // boost the alignment of big allocations to help autovectorization

  000b2	81 f9 00 10 00
	00		 cmp	 ecx, 4096		; 00001000H
  000b8	72 12		 jb	 SHORT $LN76@CDynamicPo

; 150  :     const uintptr_t _Ptr_container   = _Ptr_user[-1];

  000ba	8b 50 fc	 mov	 edx, DWORD PTR [eax-4]
  000bd	83 c1 23	 add	 ecx, 35			; 00000023H

; 151  : 
; 152  :     // If the following asserts, it likely means that we are performing
; 153  :     // an aligned delete on memory coming from an unaligned allocation.
; 154  :     _STL_ASSERT(_Ptr_user[-2] == _Big_allocation_sentinel, "invalid argument");
; 155  : 
; 156  :     // Extra paranoia on aligned allocation/deallocation; ensure _Ptr_container is
; 157  :     // in range [_Min_back_shift, _Non_user_size]
; 158  : #ifdef _DEBUG
; 159  :     constexpr uintptr_t _Min_back_shift = 2 * sizeof(void*);
; 160  : #else // ^^^ _DEBUG ^^^ // vvv !_DEBUG vvv
; 161  :     constexpr uintptr_t _Min_back_shift = sizeof(void*);
; 162  : #endif // _DEBUG
; 163  :     const uintptr_t _Back_shift = reinterpret_cast<uintptr_t>(_Ptr) - _Ptr_container;

  000c0	2b c2		 sub	 eax, edx

; 164  :     _STL_VERIFY(_Back_shift >= _Min_back_shift && _Back_shift <= _Non_user_size, "invalid argument");

  000c2	83 c0 fc	 add	 eax, -4			; fffffffcH
  000c5	83 f8 1f	 cmp	 eax, 31			; 0000001fH
  000c8	77 33		 ja	 SHORT $LN73@CDynamicPo

; 165  :     _Ptr = reinterpret_cast<void*>(_Ptr_container);

  000ca	8b c2		 mov	 eax, edx
$LN76@CDynamicPo:

; 255  :         ::operator delete(_Ptr, _Bytes);

  000cc	51		 push	 ecx
  000cd	50		 push	 eax
  000ce	e8 00 00 00 00	 call	 ??3@YAXPAXI@Z		; operator delete
; File C:\Program Files\Microsoft Visual Studio\2022\Community\VC\Tools\MSVC\14.34.31933\include\vector

; 2112 :             _Myfirst = nullptr;

  000d3	c7 47 04 00 00
	00 00		 mov	 DWORD PTR [edi+4], 0
; File C:\Program Files\Microsoft Visual Studio\2022\Community\VC\Tools\MSVC\14.34.31933\include\xmemory

; 255  :         ::operator delete(_Ptr, _Bytes);

  000da	83 c4 08	 add	 esp, 8
; File C:\Program Files\Microsoft Visual Studio\2022\Community\VC\Tools\MSVC\14.34.31933\include\vector

; 2113 :             _Mylast  = nullptr;

  000dd	c7 47 08 00 00
	00 00		 mov	 DWORD PTR [edi+8], 0

; 2114 :             _Myend   = nullptr;

  000e4	c7 47 0c 00 00
	00 00		 mov	 DWORD PTR [edi+12], 0
$LN60@CDynamicPo:
; File C:\Users\flourine\Desktop\Xantios\client-src\Code\eterLib\Pool.h

; 146  : 	}

  000eb	8b 4d f4	 mov	 ecx, DWORD PTR __$EHRec$[ebp]
  000ee	64 89 0d 00 00
	00 00		 mov	 DWORD PTR fs:0, ecx
  000f5	59		 pop	 ecx
  000f6	5f		 pop	 edi
  000f7	5e		 pop	 esi
  000f8	5b		 pop	 ebx
  000f9	8b e5		 mov	 esp, ebp
  000fb	5d		 pop	 ebp
  000fc	c3		 ret	 0
$LN73@CDynamicPo:
; File C:\Program Files\Microsoft Visual Studio\2022\Community\VC\Tools\MSVC\14.34.31933\include\xmemory

; 164  :     _STL_VERIFY(_Back_shift >= _Min_back_shift && _Back_shift <= _Non_user_size, "invalid argument");

  000fd	e8 00 00 00 00	 call	 __invalid_parameter_noinfo_noreturn
$LN86@CDynamicPo:
  00102	cc		 int	 3
  00103	cc		 int	 3
  00104	cc		 int	 3
  00105	cc		 int	 3
  00106	cc		 int	 3
  00107	cc		 int	 3
_TEXT	ENDS
;	COMDAT text$x
text$x	SEGMENT
__ehhandler$??1?$CDynamicPoolEx@VCRotationDecorator@NEffectUpdateDecorator@@@@UAE@XZ:
  00000	90		 npad	 1
  00001	90		 npad	 1
  00002	8b 54 24 08	 mov	 edx, DWORD PTR [esp+8]
  00006	8d 42 0c	 lea	 eax, DWORD PTR [edx+12]
  00009	8b 4a f0	 mov	 ecx, DWORD PTR [edx-16]
  0000c	33 c8		 xor	 ecx, eax
  0000e	e8 00 00 00 00	 call	 @__security_check_cookie@4
  00013	b8 00 00 00 00	 mov	 eax, OFFSET __ehfuncinfo$??1?$CDynamicPoolEx@VCRotationDecorator@NEffectUpdateDecorator@@@@UAE@XZ
  00018	e9 00 00 00 00	 jmp	 ___CxxFrameHandler3
text$x	ENDS
??1?$CDynamicPoolEx@VCRotationDecorator@NEffectUpdateDecorator@@@@UAE@XZ ENDP ; CDynamicPoolEx<NEffectUpdateDecorator::CRotationDecorator>::~CDynamicPoolEx<NEffectUpdateDecorator::CRotationDecorator>
; Function compile flags: /Ogtp
; File C:\Program Files\Microsoft Visual Studio\2022\Community\VC\Tools\MSVC\14.34.31933\include\xtree
; File C:\Program Files\Microsoft Visual Studio\2022\Community\VC\Tools\MSVC\14.34.31933\include\utility
; File C:\Program Files\Microsoft Visual Studio\2022\Community\VC\Tools\MSVC\14.34.31933\include\xtree
; File C:\Program Files\Microsoft Visual Studio\2022\Community\VC\Tools\MSVC\14.34.31933\include\utility
; File C:\Program Files\Microsoft Visual Studio\2022\Community\VC\Tools\MSVC\14.34.31933\include\xtree
; File C:\Program Files\Microsoft Visual Studio\2022\Community\VC\Tools\MSVC\14.34.31933\include\utility
; File C:\Program Files\Microsoft Visual Studio\2022\Community\VC\Tools\MSVC\14.34.31933\include\xmemory
; File C:\Program Files\Microsoft Visual Studio\2022\Community\VC\Tools\MSVC\14.34.31933\include\xtree
; File C:\Program Files\Microsoft Visual Studio\2022\Community\VC\Tools\MSVC\14.34.31933\include\xmemory
; File C:\Program Files\Microsoft Visual Studio\2022\Community\VC\Tools\MSVC\14.34.31933\include\xtree
; File C:\Program Files\Microsoft Visual Studio\2022\Community\VC\Tools\MSVC\14.34.31933\include\xmemory
; File C:\Program Files\Microsoft Visual Studio\2022\Community\VC\Tools\MSVC\14.34.31933\include\xtree
;	COMDAT ??$_Erase_tree@V?$allocator@U?$_Tree_node@U?$pair@QBUSHitData@NRaceData@@V?$map@PAVCActorInstance@@MU?$less@PAVCActorInstance@@@std@@V?$allocator@U?$pair@QAVCActorInstance@@M@std@@@3@@std@@@std@@PAX@std@@@std@@@?$_Tree_val@U?$_Tree_simple_types@U?$pair@QBUSHitData@NRaceData@@V?$map@PAVCActorInstance@@MU?$less@PAVCActorInstance@@@std@@V?$allocator@U?$pair@QAVCActorInstance@@M@std@@@3@@std@@@std@@@std@@@std@@QAEXAAV?$allocator@U?$_Tree_node@U?$pair@QBUSHitData@NRaceData@@V?$map@PAVCActorInstance@@MU?$less@PAVCActorInstance@@@std@@V?$allocator@U?$pair@QAVCActorInstance@@M@std@@@3@@std@@@std@@PAX@std@@@1@PAU?$_Tree_node@U?$pair@QBUSHitData@NRaceData@@V?$map@PAVCActorInstance@@MU?$less@PAVCActorInstance@@@std@@V?$allocator@U?$pair@QAVCActorInstance@@M@std@@@3@@std@@@std@@PAX@1@@Z
_TEXT	SEGMENT
_this$1$ = -4						; size = 4
__Al$ = 8						; size = 4
__Old_val$1$ = 12					; size = 4
__Rootnode$ = 12					; size = 4
??$_Erase_tree@V?$allocator@U?$_Tree_node@U?$pair@QBUSHitData@NRaceData@@V?$map@PAVCActorInstance@@MU?$less@PAVCActorInstance@@@std@@V?$allocator@U?$pair@QAVCActorInstance@@M@std@@@3@@std@@@std@@PAX@std@@@std@@@?$_Tree_val@U?$_Tree_simple_types@U?$pair@QBUSHitData@NRaceData@@V?$map@PAVCActorInstance@@MU?$less@PAVCActorInstance@@@std@@V?$allocator@U?$pair@QAVCActorInstance@@M@std@@@3@@std@@@std@@@std@@@std@@QAEXAAV?$allocator@U?$_Tree_node@U?$pair@QBUSHitData@NRaceData@@V?$map@PAVCActorInstance@@MU?$less@PAVCActorInstance@@@std@@V?$allocator@U?$pair@QAVCActorInstance@@M@std@@@3@@std@@@std@@PAX@std@@@1@PAU?$_Tree_node@U?$pair@QBUSHitData@NRaceData@@V?$map@PAVCActorInstance@@MU?$less@PAVCActorInstance@@@std@@V?$allocator@U?$pair@QAVCActorInstance@@M@std@@@3@@std@@@std@@PAX@1@@Z PROC ; std::_Tree_val<std::_Tree_simple_types<std::pair<NRaceData::SHitData const * const,std::map<CActorInstance *,float,std::less<CActorInstance *>,std::allocator<std::pair<CActorInstance * const,float> > > > > >::_Erase_tree<std::allocator<std::_Tree_node<std::pair<NRaceData::SHitData const * const,std::map<CActorInstance *,float,std::less<CActorInstance *>,std::allocator<std::pair<CActorInstance * const,float> > > >,void *> > >, COMDAT
; _this$ = ecx

; 744  :     void _Erase_tree(_Alnode& _Al, _Nodeptr _Rootnode) noexcept {

  00000	55		 push	 ebp
  00001	8b ec		 mov	 ebp, esp
  00003	51		 push	 ecx
  00004	53		 push	 ebx

; 745  :         while (!_Rootnode->_Isnil) { // free subtrees, then node

  00005	8b 5d 0c	 mov	 ebx, DWORD PTR __Rootnode$[ebp]
  00008	8b c1		 mov	 eax, ecx
  0000a	89 45 fc	 mov	 DWORD PTR _this$1$[ebp], eax
  0000d	80 7b 0d 00	 cmp	 BYTE PTR [ebx+13], 0
  00011	75 66		 jne	 SHORT $LN3@Erase_tree
  00013	56		 push	 esi
  00014	57		 push	 edi
$LL2@Erase_tree:

; 746  :             _Erase_tree(_Al, _Rootnode->_Right);

  00015	ff 73 08	 push	 DWORD PTR [ebx+8]
  00018	8b c8		 mov	 ecx, eax
  0001a	ff 75 08	 push	 DWORD PTR __Al$[ebp]
  0001d	e8 00 00 00 00	 call	 ??$_Erase_tree@V?$allocator@U?$_Tree_node@U?$pair@QBUSHitData@NRaceData@@V?$map@PAVCActorInstance@@MU?$less@PAVCActorInstance@@@std@@V?$allocator@U?$pair@QAVCActorInstance@@M@std@@@3@@std@@@std@@PAX@std@@@std@@@?$_Tree_val@U?$_Tree_simple_types@U?$pair@QBUSHitData@NRaceData@@V?$map@PAVCActorInstance@@MU?$less@PAVCActorInstance@@@std@@V?$allocator@U?$pair@QAVCActorInstance@@M@std@@@3@@std@@@std@@@std@@@std@@QAEXAAV?$allocator@U?$_Tree_node@U?$pair@QBUSHitData@NRaceData@@V?$map@PAVCActorInstance@@MU?$less@PAVCActorInstance@@@std@@V?$allocator@U?$pair@QAVCActorInstance@@M@std@@@3@@std@@@std@@PAX@std@@@1@PAU?$_Tree_node@U?$pair@QBUSHitData@NRaceData@@V?$map@PAVCActorInstance@@MU?$less@PAVCActorInstance@@@std@@V?$allocator@U?$pair@QAVCActorInstance@@M@std@@@3@@std@@@std@@PAX@1@@Z ; std::_Tree_val<std::_Tree_simple_types<std::pair<NRaceData::SHitData const * const,std::map<CActorInstance *,float,std::less<CActorInstance *>,std::allocator<std::pair<CActorInstance * const,float> > > > > >::_Erase_tree<std::allocator<std::_Tree_node<std::pair<NRaceData::SHitData const * const,std::map<CActorInstance *,float,std::less<CActorInstance *>,std::allocator<std::pair<CActorInstance * const,float> > > >,void *> > >
; File C:\Program Files\Microsoft Visual Studio\2022\Community\VC\Tools\MSVC\14.34.31933\include\utility

; 653  :     _Ty _Old_val = static_cast<_Ty&&>(_Val);

  00022	8b c3		 mov	 eax, ebx

; 654  :     _Val         = static_cast<_Other&&>(_New_val);

  00024	8b 1b		 mov	 ebx, DWORD PTR [ebx]
; File C:\Program Files\Microsoft Visual Studio\2022\Community\VC\Tools\MSVC\14.34.31933\include\xtree

; 754  :         _Erase_tree(_Al, _Myhead->_Parent);

  00026	8b 70 14	 mov	 esi, DWORD PTR [eax+20]

; 382  :         allocator_traits<_Alloc>::destroy(_Al, _STD addressof(_Ptr->_Myval));

  00029	8d 78 14	 lea	 edi, DWORD PTR [eax+20]
; File C:\Program Files\Microsoft Visual Studio\2022\Community\VC\Tools\MSVC\14.34.31933\include\utility

; 653  :     _Ty _Old_val = static_cast<_Ty&&>(_Val);

  0002c	89 45 0c	 mov	 DWORD PTR __Old_val$1$[ebp], eax
; File C:\Program Files\Microsoft Visual Studio\2022\Community\VC\Tools\MSVC\14.34.31933\include\xtree

; 754  :         _Erase_tree(_Al, _Myhead->_Parent);

  0002f	8b 76 04	 mov	 esi, DWORD PTR [esi+4]

; 745  :         while (!_Rootnode->_Isnil) { // free subtrees, then node

  00032	80 7e 0d 00	 cmp	 BYTE PTR [esi+13], 0
  00036	75 20		 jne	 SHORT $LN26@Erase_tree
$LL25@Erase_tree:

; 746  :             _Erase_tree(_Al, _Rootnode->_Right);

  00038	ff 76 08	 push	 DWORD PTR [esi+8]
  0003b	8b cf		 mov	 ecx, edi
  0003d	57		 push	 edi
  0003e	e8 00 00 00 00	 call	 ??$_Erase_tree@V?$allocator@U?$_Tree_node@U?$pair@QAVCActorInstance@@M@std@@PAX@std@@@std@@@?$_Tree_val@U?$_Tree_simple_types@U?$pair@QAVCActorInstance@@M@std@@@std@@@std@@QAEXAAV?$allocator@U?$_Tree_node@U?$pair@QAVCActorInstance@@M@std@@PAX@std@@@1@PAU?$_Tree_node@U?$pair@QAVCActorInstance@@M@std@@PAX@1@@Z ; std::_Tree_val<std::_Tree_simple_types<std::pair<CActorInstance * const,float> > >::_Erase_tree<std::allocator<std::_Tree_node<std::pair<CActorInstance * const,float>,void *> > >
; File C:\Program Files\Microsoft Visual Studio\2022\Community\VC\Tools\MSVC\14.34.31933\include\utility

; 653  :     _Ty _Old_val = static_cast<_Ty&&>(_Val);

  00043	8b c6		 mov	 eax, esi

; 654  :     _Val         = static_cast<_Other&&>(_New_val);

  00045	8b 36		 mov	 esi, DWORD PTR [esi]
; File C:\Program Files\Microsoft Visual Studio\2022\Community\VC\Tools\MSVC\14.34.31933\include\xmemory

; 255  :         ::operator delete(_Ptr, _Bytes);

  00047	6a 18		 push	 24			; 00000018H
  00049	50		 push	 eax
  0004a	e8 00 00 00 00	 call	 ??3@YAXPAXI@Z		; operator delete
  0004f	83 c4 08	 add	 esp, 8
; File C:\Program Files\Microsoft Visual Studio\2022\Community\VC\Tools\MSVC\14.34.31933\include\xtree

; 745  :         while (!_Rootnode->_Isnil) { // free subtrees, then node

  00052	80 7e 0d 00	 cmp	 BYTE PTR [esi+13], 0
  00056	74 e0		 je	 SHORT $LL25@Erase_tree
$LN26@Erase_tree:
; File C:\Program Files\Microsoft Visual Studio\2022\Community\VC\Tools\MSVC\14.34.31933\include\xmemory

; 255  :         ::operator delete(_Ptr, _Bytes);

  00058	6a 18		 push	 24			; 00000018H
  0005a	ff 37		 push	 DWORD PTR [edi]
  0005c	e8 00 00 00 00	 call	 ??3@YAXPAXI@Z		; operator delete
  00061	6a 1c		 push	 28			; 0000001cH
  00063	ff 75 0c	 push	 DWORD PTR __Old_val$1$[ebp]
  00066	e8 00 00 00 00	 call	 ??3@YAXPAXI@Z		; operator delete
; File C:\Program Files\Microsoft Visual Studio\2022\Community\VC\Tools\MSVC\14.34.31933\include\xtree

; 745  :         while (!_Rootnode->_Isnil) { // free subtrees, then node

  0006b	8b 45 fc	 mov	 eax, DWORD PTR _this$1$[ebp]
; File C:\Program Files\Microsoft Visual Studio\2022\Community\VC\Tools\MSVC\14.34.31933\include\xmemory

; 255  :         ::operator delete(_Ptr, _Bytes);

  0006e	83 c4 10	 add	 esp, 16			; 00000010H
; File C:\Program Files\Microsoft Visual Studio\2022\Community\VC\Tools\MSVC\14.34.31933\include\xtree

; 745  :         while (!_Rootnode->_Isnil) { // free subtrees, then node

  00071	80 7b 0d 00	 cmp	 BYTE PTR [ebx+13], 0
  00075	74 9e		 je	 SHORT $LL2@Erase_tree
  00077	5f		 pop	 edi
  00078	5e		 pop	 esi
$LN3@Erase_tree:
  00079	5b		 pop	 ebx

; 747  :             _Alnode::value_type::_Freenode(_Al, _STD exchange(_Rootnode, _Rootnode->_Left));
; 748  :         }
; 749  :     }

  0007a	8b e5		 mov	 esp, ebp
  0007c	5d		 pop	 ebp
  0007d	c2 08 00	 ret	 8
??$_Erase_tree@V?$allocator@U?$_Tree_node@U?$pair@QBUSHitData@NRaceData@@V?$map@PAVCActorInstance@@MU?$less@PAVCActorInstance@@@std@@V?$allocator@U?$pair@QAVCActorInstance@@M@std@@@3@@std@@@std@@PAX@std@@@std@@@?$_Tree_val@U?$_Tree_simple_types@U?$pair@QBUSHitData@NRaceData@@V?$map@PAVCActorInstance@@MU?$less@PAVCActorInstance@@@std@@V?$allocator@U?$pair@QAVCActorInstance@@M@std@@@3@@std@@@std@@@std@@@std@@QAEXAAV?$allocator@U?$_Tree_node@U?$pair@QBUSHitData@NRaceData@@V?$map@PAVCActorInstance@@MU?$less@PAVCActorInstance@@@std@@V?$allocator@U?$pair@QAVCActorInstance@@M@std@@@3@@std@@@std@@PAX@std@@@1@PAU?$_Tree_node@U?$pair@QBUSHitData@NRaceData@@V?$map@PAVCActorInstance@@MU?$less@PAVCActorInstance@@@std@@V?$allocator@U?$pair@QAVCActorInstance@@M@std@@@3@@std@@@std@@PAX@1@@Z ENDP ; std::_Tree_val<std::_Tree_simple_types<std::pair<NRaceData::SHitData const * const,std::map<CActorInstance *,float,std::less<CActorInstance *>,std::allocator<std::pair<CActorInstance * const,float> > > > > >::_Erase_tree<std::allocator<std::_Tree_node<std::pair<NRaceData::SHitData const * const,std::map<CActorInstance *,float,std::less<CActorInstance *>,std::allocator<std::pair<CActorInstance * const,float> > > >,void *> > >
_TEXT	ENDS
; Function compile flags: /Ogtp
; File C:\Program Files\Microsoft Visual Studio\2022\Community\VC\Tools\MSVC\14.34.31933\include\vector
;	COMDAT ?_Xrange@?$vector@USMotion@CRaceData@@V?$allocator@USMotion@CRaceData@@@std@@@std@@CAXXZ
_TEXT	SEGMENT
?_Xrange@?$vector@USMotion@CRaceData@@V?$allocator@USMotion@CRaceData@@@std@@@std@@CAXXZ PROC ; std::vector<CRaceData::SMotion,std::allocator<CRaceData::SMotion> >::_Xrange, COMDAT

; 2205 :         _Xout_of_range("invalid vector subscript");

  00000	68 00 00 00 00	 push	 OFFSET ??_C@_0BJ@DHFDPMIM@invalid?5vector?5subscript@
  00005	e8 00 00 00 00	 call	 ?_Xout_of_range@std@@YAXPBD@Z ; std::_Xout_of_range
$LN3@Xrange:
  0000a	cc		 int	 3
?_Xrange@?$vector@USMotion@CRaceData@@V?$allocator@USMotion@CRaceData@@@std@@@std@@CAXXZ ENDP ; std::vector<CRaceData::SMotion,std::allocator<CRaceData::SMotion> >::_Xrange
_TEXT	ENDS
; Function compile flags: /Ogtp
; File C:\Program Files\Microsoft Visual Studio\2022\Community\VC\Tools\MSVC\14.34.31933\include\deque
; File C:\Program Files\Microsoft Visual Studio\2022\Community\VC\Tools\MSVC\14.34.31933\include\xmemory
; File C:\Program Files\Microsoft Visual Studio\2022\Community\VC\Tools\MSVC\14.34.31933\include\deque
; File C:\Program Files\Microsoft Visual Studio\2022\Community\VC\Tools\MSVC\14.34.31933\include\xmemory
; File C:\Program Files\Microsoft Visual Studio\2022\Community\VC\Tools\MSVC\14.34.31933\include\deque
; File C:\Program Files\Microsoft Visual Studio\2022\Community\VC\Tools\MSVC\14.34.31933\include\xmemory
; File C:\Program Files\Microsoft Visual Studio\2022\Community\VC\Tools\MSVC\14.34.31933\include\deque
;	COMDAT ?_Growmap@?$deque@USReservingMotionNode@CActorInstance@@V?$allocator@USReservingMotionNode@CActorInstance@@@std@@@std@@AAEXI@Z
_TEXT	SEGMENT
tv461 = -4						; size = 4
$T1 = 8							; size = 4
__Count$ = 8						; size = 4
?_Growmap@?$deque@USReservingMotionNode@CActorInstance@@V?$allocator@USReservingMotionNode@CActorInstance@@@std@@@std@@AAEXI@Z PROC ; std::deque<CActorInstance::SReservingMotionNode,std::allocator<CActorInstance::SReservingMotionNode> >::_Growmap, COMDAT
; _this$ = ecx

; 1545 :     void _Growmap(size_type _Count) { // grow map by at least _Count pointers, _Mapsize() a power of 2

  00000	55		 push	 ebp
  00001	8b ec		 mov	 ebp, esp
  00003	51		 push	 ecx
  00004	53		 push	 ebx

; 1546 :         static_assert(_Minimum_map_size > 1, "The _Xlen() test should always be performed.");
; 1547 : 
; 1548 :         _Alpty _Almap(_Getal());
; 1549 :         size_type _Newsize = _Mapsize() > 0 ? _Mapsize() : 1;

  00005	8b 5d 08	 mov	 ebx, DWORD PTR __Count$[ebp]
  00008	b8 01 00 00 00	 mov	 eax, 1
  0000d	56		 push	 esi
  0000e	57		 push	 edi
  0000f	8b f9		 mov	 edi, ecx
  00011	8b 57 08	 mov	 edx, DWORD PTR [edi+8]
  00014	85 d2		 test	 edx, edx
  00016	0f 45 c2	 cmovne	 eax, edx
  00019	0f 1f 80 00 00
	00 00		 npad	 7
$LL2@Growmap:

; 1550 :         while (_Newsize - _Mapsize() < _Count || _Newsize < _Minimum_map_size) {

  00020	8b f0		 mov	 esi, eax
  00022	2b f2		 sub	 esi, edx
  00024	3b f3		 cmp	 esi, ebx
  00026	72 05		 jb	 SHORT $LN4@Growmap
  00028	83 f8 08	 cmp	 eax, 8
  0002b	73 13		 jae	 SHORT $LN3@Growmap
$LN4@Growmap:

; 1551 :             // scale _Newsize to 2^N >= _Mapsize() + _Count
; 1552 :             if (max_size() / _Block_size - _Newsize < _Newsize) {

  0002d	b9 aa aa aa 0a	 mov	 ecx, 178956970		; 0aaaaaaaH
  00032	2b c8		 sub	 ecx, eax
  00034	3b c8		 cmp	 ecx, eax
  00036	0f 82 fc 00 00
	00		 jb	 $LN44@Growmap

; 1554 :             }
; 1555 : 
; 1556 :             _Newsize *= 2;

  0003c	03 c0		 add	 eax, eax

; 1557 :         }

  0003e	eb e0		 jmp	 SHORT $LL2@Growmap
$LN3@Growmap:

; 1558 :         _Count = _Newsize - _Mapsize();
; 1559 : 
; 1560 :         size_type _Myboff = _Myoff() / _Block_size;

  00040	8b 4f 0c	 mov	 ecx, DWORD PTR [edi+12]
  00043	89 4d 08	 mov	 DWORD PTR $T1[ebp], ecx
; File C:\Program Files\Microsoft Visual Studio\2022\Community\VC\Tools\MSVC\14.34.31933\include\xmemory

; 60   :         if (_Count > _Max_possible) {

  00046	3d ff ff ff 3f	 cmp	 eax, 1073741823		; 3fffffffH
  0004b	0f 87 ee 00 00
	00		 ja	 $LN50@Growmap

; 62   :         }
; 63   :     }
; 64   : 
; 65   :     return _Count * _Ty_size;

  00051	c1 e0 02	 shl	 eax, 2

; 228  :         if (_Bytes >= _Big_allocation_threshold) { // boost the alignment of big allocations to help autovectorization

  00054	3d 00 10 00 00	 cmp	 eax, 4096		; 00001000H
  00059	72 0d		 jb	 SHORT $LN19@Growmap

; 229  :             return _Allocate_manually_vector_aligned<_Traits>(_Bytes);

  0005b	50		 push	 eax
  0005c	e8 00 00 00 00	 call	 ??$_Allocate_manually_vector_aligned@U_Default_allocate_traits@std@@@std@@YAPAXI@Z ; std::_Allocate_manually_vector_aligned<std::_Default_allocate_traits>
  00061	83 c4 04	 add	 esp, 4
  00064	8b d8		 mov	 ebx, eax
  00066	eb 13		 jmp	 SHORT $LN18@Growmap
$LN19@Growmap:

; 230  :         }
; 231  :     }
; 232  : #endif // defined(_M_IX86) || defined(_M_X64)
; 233  : 
; 234  :     if (_Bytes != 0) {

  00068	85 c0		 test	 eax, eax
  0006a	74 0d		 je	 SHORT $LN20@Growmap

; 77   :         return ::operator new(_Bytes);

  0006c	50		 push	 eax
  0006d	e8 00 00 00 00	 call	 ??2@YAPAXI@Z		; operator new
  00072	83 c4 04	 add	 esp, 4

; 235  :         return _Traits::_Allocate(_Bytes);

  00075	8b d8		 mov	 ebx, eax
  00077	eb 02		 jmp	 SHORT $LN18@Growmap
$LN20@Growmap:

; 236  :     }
; 237  : 
; 238  :     return nullptr;

  00079	33 db		 xor	 ebx, ebx
$LN18@Growmap:
; File C:\Program Files\Microsoft Visual Studio\2022\Community\VC\Tools\MSVC\14.34.31933\include\deque

; 1564 :         _Myptr = _STD uninitialized_copy(_Map() + _Myboff, _Map() + _Mapsize(), _Myptr); // copy initial to end

  0007b	8b 57 04	 mov	 edx, DWORD PTR [edi+4]
  0007e	8b 47 08	 mov	 eax, DWORD PTR [edi+8]
  00081	8d 0c 82	 lea	 ecx, DWORD PTR [edx+eax*4]
  00084	8b 45 08	 mov	 eax, DWORD PTR $T1[ebp]
  00087	c1 e0 02	 shl	 eax, 2
  0008a	89 45 fc	 mov	 DWORD PTR tv461[ebp], eax
  0008d	03 c3		 add	 eax, ebx
  0008f	50		 push	 eax
  00090	8b 45 fc	 mov	 eax, DWORD PTR tv461[ebp]
  00093	51		 push	 ecx
  00094	03 c2		 add	 eax, edx
  00096	50		 push	 eax
  00097	e8 00 00 00 00	 call	 ??$uninitialized_copy@PAPAUSReservingMotionNode@CActorInstance@@PAPAU12@@std@@YAPAPAUSReservingMotionNode@CActorInstance@@QAPAU12@0PAPAU12@@Z ; std::uninitialized_copy<CActorInstance::SReservingMotionNode * *,CActorInstance::SReservingMotionNode * *>
  0009c	8b 4f 04	 mov	 ecx, DWORD PTR [edi+4]
  0009f	83 c4 0c	 add	 esp, 12			; 0000000cH

; 1565 :         if (_Myboff <= _Count) { // increment greater than offset of initial block

  000a2	50		 push	 eax
  000a3	39 75 08	 cmp	 DWORD PTR $T1[ebp], esi
  000a6	77 22		 ja	 SHORT $LN6@Growmap

; 1566 :             _Myptr = _STD uninitialized_copy(_Map(), _Map() + _Myboff, _Myptr); // copy rest of old

  000a8	8b 45 fc	 mov	 eax, DWORD PTR tv461[ebp]
  000ab	03 c1		 add	 eax, ecx
  000ad	50		 push	 eax
  000ae	51		 push	 ecx
  000af	e8 00 00 00 00	 call	 ??$uninitialized_copy@PAPAUSReservingMotionNode@CActorInstance@@PAPAU12@@std@@YAPAPAUSReservingMotionNode@CActorInstance@@QAPAU12@0PAPAU12@@Z ; std::uninitialized_copy<CActorInstance::SReservingMotionNode * *,CActorInstance::SReservingMotionNode * *>

; 1567 :             _Uninitialized_value_construct_n_unchecked1(_Myptr, _Count - _Myboff); // clear suffix of new

  000b4	8b ce		 mov	 ecx, esi
  000b6	2b 4d 08	 sub	 ecx, DWORD PTR $T1[ebp]
  000b9	51		 push	 ecx
  000ba	50		 push	 eax
  000bb	e8 00 00 00 00	 call	 ??$_Uninitialized_value_construct_n_unchecked1@PAPAUSReservingMotionNode@CActorInstance@@I@std@@YAPAPAUSReservingMotionNode@CActorInstance@@PAPAU12@I@Z ; std::_Uninitialized_value_construct_n_unchecked1<CActorInstance::SReservingMotionNode * *,unsigned int>

; 1568 :             _Uninitialized_value_construct_n_unchecked1(_Newmap, _Myboff); // clear prefix of new
; 1569 :         } else { // increment not greater than offset of initial block

  000c0	8b 45 08	 mov	 eax, DWORD PTR $T1[ebp]
  000c3	83 c4 14	 add	 esp, 20			; 00000014H
  000c6	8b cb		 mov	 ecx, ebx
  000c8	eb 24		 jmp	 SHORT $LN7@Growmap
$LN6@Growmap:

; 1570 :             _STD uninitialized_copy(_Map(), _Map() + _Count, _Myptr); // copy more old

  000ca	8d 04 b1	 lea	 eax, DWORD PTR [ecx+esi*4]
  000cd	50		 push	 eax
  000ce	51		 push	 ecx
  000cf	e8 00 00 00 00	 call	 ??$uninitialized_copy@PAPAUSReservingMotionNode@CActorInstance@@PAPAU12@@std@@YAPAPAUSReservingMotionNode@CActorInstance@@QAPAU12@0PAPAU12@@Z ; std::uninitialized_copy<CActorInstance::SReservingMotionNode * *,CActorInstance::SReservingMotionNode * *>

; 1571 :             _Myptr = _STD uninitialized_copy(_Map() + _Count, _Map() + _Myboff, _Newmap); // copy rest of old

  000d4	8b 4f 04	 mov	 ecx, DWORD PTR [edi+4]
  000d7	8b 45 fc	 mov	 eax, DWORD PTR tv461[ebp]
  000da	03 c1		 add	 eax, ecx
  000dc	53		 push	 ebx
  000dd	50		 push	 eax
  000de	8d 04 b1	 lea	 eax, DWORD PTR [ecx+esi*4]
  000e1	50		 push	 eax
  000e2	e8 00 00 00 00	 call	 ??$uninitialized_copy@PAPAUSReservingMotionNode@CActorInstance@@PAPAU12@@std@@YAPAPAUSReservingMotionNode@CActorInstance@@QAPAU12@0PAPAU12@@Z ; std::uninitialized_copy<CActorInstance::SReservingMotionNode * *,CActorInstance::SReservingMotionNode * *>

; 1572 :             _Uninitialized_value_construct_n_unchecked1(_Myptr, _Count); // clear rest to initial block

  000e7	8b c8		 mov	 ecx, eax
  000e9	83 c4 18	 add	 esp, 24			; 00000018H
  000ec	8b c6		 mov	 eax, esi
$LN7@Growmap:

; 1573 :         }
; 1574 : 
; 1575 :         if (_Map() != nullptr) {

  000ee	50		 push	 eax
  000ef	51		 push	 ecx
  000f0	e8 00 00 00 00	 call	 ??$_Uninitialized_value_construct_n_unchecked1@PAPAUSReservingMotionNode@CActorInstance@@I@std@@YAPAPAUSReservingMotionNode@CActorInstance@@PAPAU12@I@Z ; std::_Uninitialized_value_construct_n_unchecked1<CActorInstance::SReservingMotionNode * *,unsigned int>
  000f5	8b 47 04	 mov	 eax, DWORD PTR [edi+4]
  000f8	83 c4 08	 add	 esp, 8
  000fb	85 c0		 test	 eax, eax
  000fd	74 2a		 je	 SHORT $LN29@Growmap
; File C:\Program Files\Microsoft Visual Studio\2022\Community\VC\Tools\MSVC\14.34.31933\include\xmemory

; 830  :         _Deallocate<_New_alignof<_Ty>>(_Ptr, sizeof(_Ty) * _Count);

  000ff	8b 4f 08	 mov	 ecx, DWORD PTR [edi+8]
  00102	c1 e1 02	 shl	 ecx, 2

; 251  :         if (_Bytes >= _Big_allocation_threshold) { // boost the alignment of big allocations to help autovectorization

  00105	81 f9 00 10 00
	00		 cmp	 ecx, 4096		; 00001000H
  0010b	72 12		 jb	 SHORT $LN39@Growmap

; 150  :     const uintptr_t _Ptr_container   = _Ptr_user[-1];

  0010d	8b 50 fc	 mov	 edx, DWORD PTR [eax-4]
  00110	83 c1 23	 add	 ecx, 35			; 00000023H

; 151  : 
; 152  :     // If the following asserts, it likely means that we are performing
; 153  :     // an aligned delete on memory coming from an unaligned allocation.
; 154  :     _STL_ASSERT(_Ptr_user[-2] == _Big_allocation_sentinel, "invalid argument");
; 155  : 
; 156  :     // Extra paranoia on aligned allocation/deallocation; ensure _Ptr_container is
; 157  :     // in range [_Min_back_shift, _Non_user_size]
; 158  : #ifdef _DEBUG
; 159  :     constexpr uintptr_t _Min_back_shift = 2 * sizeof(void*);
; 160  : #else // ^^^ _DEBUG ^^^ // vvv !_DEBUG vvv
; 161  :     constexpr uintptr_t _Min_back_shift = sizeof(void*);
; 162  : #endif // _DEBUG
; 163  :     const uintptr_t _Back_shift = reinterpret_cast<uintptr_t>(_Ptr) - _Ptr_container;

  00113	2b c2		 sub	 eax, edx

; 164  :     _STL_VERIFY(_Back_shift >= _Min_back_shift && _Back_shift <= _Non_user_size, "invalid argument");

  00115	83 c0 fc	 add	 eax, -4			; fffffffcH
  00118	83 f8 1f	 cmp	 eax, 31			; 0000001fH
  0011b	77 27		 ja	 SHORT $LN36@Growmap

; 165  :     _Ptr = reinterpret_cast<void*>(_Ptr_container);

  0011d	8b c2		 mov	 eax, edx
$LN39@Growmap:

; 255  :         ::operator delete(_Ptr, _Bytes);

  0011f	51		 push	 ecx
  00120	50		 push	 eax
  00121	e8 00 00 00 00	 call	 ??3@YAXPAXI@Z		; operator delete
  00126	83 c4 08	 add	 esp, 8
$LN29@Growmap:
; File C:\Program Files\Microsoft Visual Studio\2022\Community\VC\Tools\MSVC\14.34.31933\include\deque

; 1581 :         _Mapsize() += _Count;

  00129	01 77 08	 add	 DWORD PTR [edi+8], esi
  0012c	89 5f 04	 mov	 DWORD PTR [edi+4], ebx
  0012f	5f		 pop	 edi
  00130	5e		 pop	 esi
  00131	5b		 pop	 ebx

; 1582 :     }

  00132	8b e5		 mov	 esp, ebp
  00134	5d		 pop	 ebp
  00135	c2 04 00	 ret	 4
$LN44@Growmap:

; 1553 :                 _Xlen(); // result too long

  00138	8b cf		 mov	 ecx, edi
  0013a	e8 00 00 00 00	 call	 ?_Xlen@?$deque@USReservingMotionNode@CActorInstance@@V?$allocator@USReservingMotionNode@CActorInstance@@@std@@@std@@ABEXXZ ; std::deque<CActorInstance::SReservingMotionNode,std::allocator<CActorInstance::SReservingMotionNode> >::_Xlen
$LN50@Growmap:
; File C:\Program Files\Microsoft Visual Studio\2022\Community\VC\Tools\MSVC\14.34.31933\include\xmemory

; 61   :             _Throw_bad_array_new_length(); // multiply overflow

  0013f	e8 00 00 00 00	 call	 ?_Throw_bad_array_new_length@std@@YAXXZ ; std::_Throw_bad_array_new_length
$LN36@Growmap:

; 164  :     _STL_VERIFY(_Back_shift >= _Min_back_shift && _Back_shift <= _Non_user_size, "invalid argument");

  00144	e8 00 00 00 00	 call	 __invalid_parameter_noinfo_noreturn
$LN48@Growmap:
  00149	cc		 int	 3
?_Growmap@?$deque@USReservingMotionNode@CActorInstance@@V?$allocator@USReservingMotionNode@CActorInstance@@@std@@@std@@AAEXI@Z ENDP ; std::deque<CActorInstance::SReservingMotionNode,std::allocator<CActorInstance::SReservingMotionNode> >::_Growmap
_TEXT	ENDS
; Function compile flags: /Ogtp
; File C:\Program Files\Microsoft Visual Studio\2022\Community\VC\Tools\MSVC\14.34.31933\include\deque
;	COMDAT ?_Xlen@?$deque@USReservingMotionNode@CActorInstance@@V?$allocator@USReservingMotionNode@CActorInstance@@@std@@@std@@ABEXXZ
_TEXT	SEGMENT
?_Xlen@?$deque@USReservingMotionNode@CActorInstance@@V?$allocator@USReservingMotionNode@CActorInstance@@@std@@@std@@ABEXXZ PROC ; std::deque<CActorInstance::SReservingMotionNode,std::allocator<CActorInstance::SReservingMotionNode> >::_Xlen, COMDAT
; _this$ = ecx

; 1538 :         _Xlength_error("deque<T> too long");

  00000	68 00 00 00 00	 push	 OFFSET ??_C@_0BC@KBDMBKEH@deque?$DMT?$DO?5too?5long@
  00005	e8 00 00 00 00	 call	 ?_Xlength_error@std@@YAXPBD@Z ; std::_Xlength_error
$LN3@Xlen:
  0000a	cc		 int	 3
?_Xlen@?$deque@USReservingMotionNode@CActorInstance@@V?$allocator@USReservingMotionNode@CActorInstance@@@std@@@std@@ABEXXZ ENDP ; std::deque<CActorInstance::SReservingMotionNode,std::allocator<CActorInstance::SReservingMotionNode> >::_Xlen
_TEXT	ENDS
; Function compile flags: /Ogtp
; File C:\Users\flourine\Desktop\Xantios\client-src\Code\GameLib\ActorInstanceMotion.cpp
;	COMDAT ?__GetLoopCount@CActorInstance@@IAEHXZ
_TEXT	SEGMENT
?__GetLoopCount@CActorInstance@@IAEHXZ PROC		; CActorInstance::__GetLoopCount, COMDAT
; _this$ = ecx

; 835  : 	if (!m_pkCurRaceMotionData)

  00000	8b 89 68 04 00
	00		 mov	 ecx, DWORD PTR [ecx+1128]
  00006	85 c9		 test	 ecx, ecx
  00008	75 11		 jne	 SHORT $LN2@GetLoopCou

; 836  : 	{
; 837  : 		TraceError("CActorInstance::__GetLoopCount() - m_pkCurRaceMotionData==NULL");

  0000a	68 00 00 00 00	 push	 OFFSET ??_C@_0DP@MJFILIBP@CActorInstance?3?3__GetLoopCount?$CI@
  0000f	e8 00 00 00 00	 call	 ?TraceError@@YAXPBDZZ	; TraceError
  00014	83 c4 04	 add	 esp, 4

; 838  : 		return -1;

  00017	83 c8 ff	 or	 eax, -1

; 842  : }

  0001a	c3		 ret	 0
$LN2@GetLoopCou:

; 839  : 	}
; 840  : 
; 841  : 	return m_pkCurRaceMotionData->GetLoopCount();

  0001b	e9 00 00 00 00	 jmp	 ?GetLoopCount@CRaceMotionData@@QBEHXZ ; CRaceMotionData::GetLoopCount
?__GetLoopCount@CActorInstance@@IAEHXZ ENDP		; CActorInstance::__GetLoopCount
_TEXT	ENDS
; Function compile flags: /Ogtp
; File C:\Users\flourine\Desktop\Xantios\client-src\Code\GameLib\ActorInstanceMotion.cpp
;	COMDAT ?__GetCurrentMotionKey@CActorInstance@@IAEKXZ
_TEXT	SEGMENT
?__GetCurrentMotionKey@CActorInstance@@IAEKXZ PROC	; CActorInstance::__GetCurrentMotionKey, COMDAT
; _this$ = ecx

; 457  : 	return m_kCurMotNode.dwMotionKey;

  00000	8b 81 58 03 00
	00		 mov	 eax, DWORD PTR [ecx+856]

; 458  : }

  00006	c3		 ret	 0
?__GetCurrentMotionKey@CActorInstance@@IAEKXZ ENDP	; CActorInstance::__GetCurrentMotionKey
_TEXT	ENDS
; Function compile flags: /Ogtp
; File C:\Users\flourine\Desktop\Xantios\client-src\Code\GameLib\ActorInstanceMotion.cpp
;	COMDAT ?__GetCurrentMotionIndex@CActorInstance@@IAEGXZ
_TEXT	SEGMENT
?__GetCurrentMotionIndex@CActorInstance@@IAEGXZ PROC	; CActorInstance::__GetCurrentMotionIndex, COMDAT
; _this$ = ecx

; 452  : 	return GET_MOTION_INDEX(m_kCurMotNode.dwMotionKey);

  00000	8b 81 58 03 00
	00		 mov	 eax, DWORD PTR [ecx+856]
  00006	c1 e8 08	 shr	 eax, 8

; 453  : }

  00009	c3		 ret	 0
?__GetCurrentMotionIndex@CActorInstance@@IAEGXZ ENDP	; CActorInstance::__GetCurrentMotionIndex
_TEXT	ENDS
; Function compile flags: /Ogtp
; File C:\Users\flourine\Desktop\Xantios\client-src\Code\GameLib\ActorInstanceMotion.cpp
;	COMDAT ?__IsComboAttacking@CActorInstance@@IAE_NXZ
_TEXT	SEGMENT
?__IsComboAttacking@CActorInstance@@IAE_NXZ PROC	; CActorInstance::__IsComboAttacking, COMDAT
; _this$ = ecx

; 878  : 	if (0 == m_dwcurComboIndex)

  00000	83 b9 3c 04 00
	00 00		 cmp	 DWORD PTR [ecx+1084], 0
  00007	0f 95 c0	 setne	 al

; 879  : 	{
; 880  : 		return false;
; 881  : 	}
; 882  : 
; 883  : 	return true;
; 884  : }

  0000a	c3		 ret	 0
?__IsComboAttacking@CActorInstance@@IAE_NXZ ENDP	; CActorInstance::__IsComboAttacking
_TEXT	ENDS
; Function compile flags: /Ogtp
; File C:\Users\flourine\Desktop\Xantios\client-src\Code\GameLib\ActorInstanceMotion.cpp
;	COMDAT ?__CanNextComboAttack@CActorInstance@@IAE_NXZ
_TEXT	SEGMENT
?__CanNextComboAttack@CActorInstance@@IAE_NXZ PROC	; CActorInstance::__CanNextComboAttack, COMDAT
; _this$ = ecx

; 862  : 	if (!m_pkCurRaceMotionData)

  00000	8b 89 68 04 00
	00		 mov	 ecx, DWORD PTR [ecx+1128]
  00006	85 c9		 test	 ecx, ecx
  00008	75 10		 jne	 SHORT $LN2@CanNextCom

; 863  : 	{
; 864  : 		TraceError("CActorInstance::__CanNextComboAttack() - m_pkCurRaceMotionData==NULL");

  0000a	68 00 00 00 00	 push	 OFFSET ??_C@_0EF@EBECGAL@CActorInstance?3?3__CanNextComboA@
  0000f	e8 00 00 00 00	 call	 ?TraceError@@YAXPBDZZ	; TraceError
  00014	83 c4 04	 add	 esp, 4

; 865  : 		return false;

  00017	32 c0		 xor	 al, al

; 869  : 	{
; 870  : 		return false;
; 871  : 	}
; 872  : 
; 873  : 	return true;
; 874  : }

  00019	c3		 ret	 0
$LN2@CanNextCom:

; 866  : 	}
; 867  : 
; 868  : 	if (!m_pkCurRaceMotionData->IsComboInputTimeData())

  0001a	e8 00 00 00 00	 call	 ?IsComboInputTimeData@CRaceMotionData@@QBEHXZ ; CRaceMotionData::IsComboInputTimeData
  0001f	85 c0		 test	 eax, eax
  00021	0f 95 c0	 setne	 al

; 869  : 	{
; 870  : 		return false;
; 871  : 	}
; 872  : 
; 873  : 	return true;
; 874  : }

  00024	c3		 ret	 0
?__CanNextComboAttack@CActorInstance@@IAE_NXZ ENDP	; CActorInstance::__CanNextComboAttack
_TEXT	ENDS
; Function compile flags: /Ogtp
; File C:\Users\flourine\Desktop\Xantios\client-src\Code\GameLib\ActorInstanceMotion.cpp
;	COMDAT ?__CanAttack@CActorInstance@@IAE_NXZ
_TEXT	SEGMENT
?__CanAttack@CActorInstance@@IAE_NXZ PROC		; CActorInstance::__CanAttack, COMDAT
; _this$ = ecx

; 846  : 	if (!m_pkCurRaceMotionData)

  00000	8b 89 68 04 00
	00		 mov	 ecx, DWORD PTR [ecx+1128]
  00006	85 c9		 test	 ecx, ecx
  00008	75 10		 jne	 SHORT $LN2@CanAttack

; 847  : 	{
; 848  : 		TraceError("CActorInstance::__CanAttack() - m_pkCurRaceMotionData==NULL");

  0000a	68 00 00 00 00	 push	 OFFSET ??_C@_0DM@CHLCPNIC@CActorInstance?3?3__CanAttack?$CI?$CJ?5?9@
  0000f	e8 00 00 00 00	 call	 ?TraceError@@YAXPBDZZ	; TraceError
  00014	83 c4 04	 add	 esp, 4

; 849  : 		return false;

  00017	32 c0		 xor	 al, al

; 853  : 	{
; 854  : 		return false;
; 855  : 	}
; 856  : 
; 857  : 	return true;
; 858  : }

  00019	c3		 ret	 0
$LN2@CanAttack:

; 850  : 	}
; 851  : 
; 852  : 	if (!m_pkCurRaceMotionData->isAttackingMotion())

  0001a	e8 00 00 00 00	 call	 ?isAttackingMotion@CRaceMotionData@@QBEHXZ ; CRaceMotionData::isAttackingMotion
  0001f	85 c0		 test	 eax, eax
  00021	0f 95 c0	 setne	 al

; 853  : 	{
; 854  : 		return false;
; 855  : 	}
; 856  : 
; 857  : 	return true;
; 858  : }

  00024	c3		 ret	 0
?__CanAttack@CActorInstance@@IAE_NXZ ENDP		; CActorInstance::__CanAttack
_TEXT	ENDS
; Function compile flags: /Ogtp
; File C:\Users\flourine\Desktop\Xantios\client-src\Code\GameLib\ActorInstanceMotion.cpp
;	COMDAT ?__IsStandUpMotion@CActorInstance@@IAE_NXZ
_TEXT	SEGMENT
?__IsStandUpMotion@CActorInstance@@IAE_NXZ PROC		; CActorInstance::__IsStandUpMotion, COMDAT
; _this$ = ecx

; 991  : 	return (__GetMotionType() == CRaceMotionData::TYPE_STANDUP);

  00000	e8 00 00 00 00	 call	 ?__GetMotionType@CActorInstance@@IAEIXZ ; CActorInstance::__GetMotionType
  00005	83 f8 09	 cmp	 eax, 9
  00008	0f 94 c0	 sete	 al

; 992  : }

  0000b	c3		 ret	 0
?__IsStandUpMotion@CActorInstance@@IAE_NXZ ENDP		; CActorInstance::__IsStandUpMotion
_TEXT	ENDS
; Function compile flags: /Ogtp
; File C:\Users\flourine\Desktop\Xantios\client-src\Code\GameLib\ActorInstanceMotion.cpp
;	COMDAT ?__IsDieMotion@CActorInstance@@IAE_NXZ
_TEXT	SEGMENT
?__IsDieMotion@CActorInstance@@IAE_NXZ PROC		; CActorInstance::__IsDieMotion, COMDAT
; _this$ = ecx

; 980  : {

  00000	56		 push	 esi
  00001	8b f1		 mov	 esi, ecx

; 981  : 	if (__IsKnockDownMotion())

  00003	e8 00 00 00 00	 call	 ?__IsKnockDownMotion@CActorInstance@@IAE_NXZ ; CActorInstance::__IsKnockDownMotion
  00008	84 c0		 test	 al, al
  0000a	74 04		 je	 SHORT $LN2@IsDieMotio

; 982  : 	{
; 983  : 		return true;

  0000c	b0 01		 mov	 al, 1
  0000e	5e		 pop	 esi

; 987  : }

  0000f	c3		 ret	 0
$LN2@IsDieMotio:

; 984  : 	}
; 985  : 
; 986  : 	return (__GetMotionType() == CRaceMotionData::TYPE_DIE);

  00010	8b ce		 mov	 ecx, esi
  00012	e8 00 00 00 00	 call	 ?__GetMotionType@CActorInstance@@IAEIXZ ; CActorInstance::__GetMotionType
  00017	83 f8 07	 cmp	 eax, 7
  0001a	5e		 pop	 esi
  0001b	0f 94 c0	 sete	 al

; 987  : }

  0001e	c3		 ret	 0
?__IsDieMotion@CActorInstance@@IAE_NXZ ENDP		; CActorInstance::__IsDieMotion
_TEXT	ENDS
; Function compile flags: /Ogtp
; File C:\Users\flourine\Desktop\Xantios\client-src\Code\GameLib\ActorInstanceMotion.cpp
;	COMDAT ?__IsKnockDownMotion@CActorInstance@@IAE_NXZ
_TEXT	SEGMENT
?__IsKnockDownMotion@CActorInstance@@IAE_NXZ PROC	; CActorInstance::__IsKnockDownMotion, COMDAT
; _this$ = ecx

; 976  : 	return (__GetMotionType() == CRaceMotionData::TYPE_KNOCKDOWN);

  00000	e8 00 00 00 00	 call	 ?__GetMotionType@CActorInstance@@IAEIXZ ; CActorInstance::__GetMotionType
  00005	83 f8 06	 cmp	 eax, 6
  00008	0f 94 c0	 sete	 al

; 977  : }

  0000b	c3		 ret	 0
?__IsKnockDownMotion@CActorInstance@@IAE_NXZ ENDP	; CActorInstance::__IsKnockDownMotion
_TEXT	ENDS
; Function compile flags: /Ogtp
; File C:\Users\flourine\Desktop\Xantios\client-src\Code\GameLib\ActorInstanceMotion.cpp
;	COMDAT ?__IsDamageMotion@CActorInstance@@IAE_NXZ
_TEXT	SEGMENT
?__IsDamageMotion@CActorInstance@@IAE_NXZ PROC		; CActorInstance::__IsDamageMotion, COMDAT
; _this$ = ecx

; 971  : 	return (__GetMotionType() == CRaceMotionData::TYPE_DAMAGE);

  00000	e8 00 00 00 00	 call	 ?__GetMotionType@CActorInstance@@IAEIXZ ; CActorInstance::__GetMotionType
  00005	83 f8 05	 cmp	 eax, 5
  00008	0f 94 c0	 sete	 al

; 972  : }

  0000b	c3		 ret	 0
?__IsDamageMotion@CActorInstance@@IAE_NXZ ENDP		; CActorInstance::__IsDamageMotion
_TEXT	ENDS
; Function compile flags: /Ogtp
; File C:\Users\flourine\Desktop\Xantios\client-src\Code\GameLib\ActorInstanceMotion.cpp
;	COMDAT ?__IsComboAttackMotion@CActorInstance@@IAE_NXZ
_TEXT	SEGMENT
?__IsComboAttackMotion@CActorInstance@@IAE_NXZ PROC	; CActorInstance::__IsComboAttackMotion, COMDAT
; _this$ = ecx

; 965  : 	return (__GetMotionType() == CRaceMotionData::TYPE_COMBO);

  00000	e8 00 00 00 00	 call	 ?__GetMotionType@CActorInstance@@IAEIXZ ; CActorInstance::__GetMotionType
  00005	83 f8 04	 cmp	 eax, 4
  00008	0f 94 c0	 sete	 al

; 966  : }

  0000b	c3		 ret	 0
?__IsComboAttackMotion@CActorInstance@@IAE_NXZ ENDP	; CActorInstance::__IsComboAttackMotion
_TEXT	ENDS
; Function compile flags: /Ogtp
; File C:\Users\flourine\Desktop\Xantios\client-src\Code\GameLib\ActorInstanceMotion.cpp
;	COMDAT ?__IsAttackMotion@CActorInstance@@IAE_NXZ
_TEXT	SEGMENT
?__IsAttackMotion@CActorInstance@@IAE_NXZ PROC		; CActorInstance::__IsAttackMotion, COMDAT
; _this$ = ecx

; 960  : 	return (__GetMotionType() == CRaceMotionData::TYPE_ATTACK);

  00000	e8 00 00 00 00	 call	 ?__GetMotionType@CActorInstance@@IAEIXZ ; CActorInstance::__GetMotionType
  00005	83 f8 03	 cmp	 eax, 3
  00008	0f 94 c0	 sete	 al

; 961  : }

  0000b	c3		 ret	 0
?__IsAttackMotion@CActorInstance@@IAE_NXZ ENDP		; CActorInstance::__IsAttackMotion
_TEXT	ENDS
; Function compile flags: /Ogtp
; File C:\Users\flourine\Desktop\Xantios\client-src\Code\GameLib\ActorInstanceMotion.cpp
;	COMDAT ?__IsMoveMotion@CActorInstance@@IAE_NXZ
_TEXT	SEGMENT
?__IsMoveMotion@CActorInstance@@IAE_NXZ PROC		; CActorInstance::__IsMoveMotion, COMDAT
; _this$ = ecx

; 955  : 	return (__GetMotionType() == CRaceMotionData::TYPE_MOVE);

  00000	e8 00 00 00 00	 call	 ?__GetMotionType@CActorInstance@@IAEIXZ ; CActorInstance::__GetMotionType
  00005	83 f8 02	 cmp	 eax, 2
  00008	0f 94 c0	 sete	 al

; 956  : }

  0000b	c3		 ret	 0
?__IsMoveMotion@CActorInstance@@IAE_NXZ ENDP		; CActorInstance::__IsMoveMotion
_TEXT	ENDS
; Function compile flags: /Ogtp
; File C:\Users\flourine\Desktop\Xantios\client-src\Code\GameLib\ActorInstanceMotion.cpp
;	COMDAT ?__IsWaitMotion@CActorInstance@@IAE_NXZ
_TEXT	SEGMENT
?__IsWaitMotion@CActorInstance@@IAE_NXZ PROC		; CActorInstance::__IsWaitMotion, COMDAT
; _this$ = ecx

; 950  : 	return (__GetMotionType() == CRaceMotionData::TYPE_WAIT);

  00000	e8 00 00 00 00	 call	 ?__GetMotionType@CActorInstance@@IAEIXZ ; CActorInstance::__GetMotionType
  00005	83 f8 01	 cmp	 eax, 1
  00008	0f 94 c0	 sete	 al

; 951  : }

  0000b	c3		 ret	 0
?__IsWaitMotion@CActorInstance@@IAE_NXZ ENDP		; CActorInstance::__IsWaitMotion
_TEXT	ENDS
; Function compile flags: /Ogtp
; File C:\Users\flourine\Desktop\Xantios\client-src\Code\GameLib\ActorInstanceMotion.cpp
;	COMDAT ?__HasMotionFlyEvent@CActorInstance@@IAE_NXZ
_TEXT	SEGMENT
_c_pData$1 = -4						; size = 4
?__HasMotionFlyEvent@CActorInstance@@IAE_NXZ PROC	; CActorInstance::__HasMotionFlyEvent, COMDAT
; _this$ = ecx

; 926  : {

  00000	55		 push	 ebp
  00001	8b ec		 mov	 ebp, esp
  00003	51		 push	 ecx
  00004	56		 push	 esi
  00005	57		 push	 edi
  00006	8b f9		 mov	 edi, ecx

; 927  : 	if (!m_pkCurRaceMotionData)

  00008	8b 8f 68 04 00
	00		 mov	 ecx, DWORD PTR [edi+1128]
  0000e	85 c9		 test	 ecx, ecx
  00010	74 43		 je	 SHORT $LN10@HasMotionF

; 928  : 	{
; 929  : 		return true;
; 930  : 	}
; 931  : 
; 932  : 	for (DWORD i = 0; i < m_pkCurRaceMotionData->GetMotionEventDataCount(); ++i)

  00012	33 f6		 xor	 esi, esi
  00014	e8 00 00 00 00	 call	 ?GetMotionEventDataCount@CRaceMotionData@@QBEKXZ ; CRaceMotionData::GetMotionEventDataCount
  00019	85 c0		 test	 eax, eax
  0001b	74 30		 je	 SHORT $LN3@HasMotionF
  0001d	0f 1f 00	 npad	 3
$LL4@HasMotionF:

; 933  : 	{
; 934  : 		const CRaceMotionData::TMotionEventData * c_pData;
; 935  : 		if (!m_pkCurRaceMotionData->GetMotionEventDataPointer(i, &c_pData))

  00020	8b 8f 68 04 00
	00		 mov	 ecx, DWORD PTR [edi+1128]
  00026	8d 45 fc	 lea	 eax, DWORD PTR _c_pData$1[ebp]
  00029	50		 push	 eax
  0002a	56		 push	 esi
  0002b	e8 00 00 00 00	 call	 ?GetMotionEventDataPointer@CRaceMotionData@@QBEHEPAPBUSMotionEventData@NMotionEvent@@@Z ; CRaceMotionData::GetMotionEventDataPointer
  00030	85 c0		 test	 eax, eax
  00032	74 09		 je	 SHORT $LN2@HasMotionF

; 936  : 		{
; 937  : 			continue;
; 938  : 		}
; 939  : 
; 940  : 		if (c_pData->iType == CRaceMotionData::MOTION_EVENT_TYPE_FLY)

  00034	8b 45 fc	 mov	 eax, DWORD PTR _c_pData$1[ebp]
  00037	83 78 04 06	 cmp	 DWORD PTR [eax+4], 6
  0003b	74 18		 je	 SHORT $LN10@HasMotionF
$LN2@HasMotionF:

; 928  : 	{
; 929  : 		return true;
; 930  : 	}
; 931  : 
; 932  : 	for (DWORD i = 0; i < m_pkCurRaceMotionData->GetMotionEventDataCount(); ++i)

  0003d	8b 8f 68 04 00
	00		 mov	 ecx, DWORD PTR [edi+1128]
  00043	46		 inc	 esi
  00044	e8 00 00 00 00	 call	 ?GetMotionEventDataCount@CRaceMotionData@@QBEKXZ ; CRaceMotionData::GetMotionEventDataCount
  00049	3b f0		 cmp	 esi, eax
  0004b	72 d3		 jb	 SHORT $LL4@HasMotionF
$LN3@HasMotionF:
  0004d	5f		 pop	 edi

; 943  : 		}
; 944  : 	}
; 945  : 	return false;

  0004e	32 c0		 xor	 al, al

; 946  : }

  00050	5e		 pop	 esi
  00051	8b e5		 mov	 esp, ebp
  00053	5d		 pop	 ebp
  00054	c3		 ret	 0
$LN10@HasMotionF:
  00055	5f		 pop	 edi

; 941  : 		{
; 942  : 			return true;

  00056	b0 01		 mov	 al, 1

; 946  : }

  00058	5e		 pop	 esi
  00059	8b e5		 mov	 esp, ebp
  0005b	5d		 pop	 ebp
  0005c	c3		 ret	 0
?__HasMotionFlyEvent@CActorInstance@@IAE_NXZ ENDP	; CActorInstance::__HasMotionFlyEvent
_TEXT	ENDS
; Function compile flags: /Ogtp
; File C:\Users\flourine\Desktop\Xantios\client-src\Code\GameLib\ActorInstanceMotion.cpp
;	COMDAT ?__IsNeedFlyTargetMotion@CActorInstance@@IAE_NXZ
_TEXT	SEGMENT
_c_pData$1 = -4						; size = 4
?__IsNeedFlyTargetMotion@CActorInstance@@IAE_NXZ PROC	; CActorInstance::__IsNeedFlyTargetMotion, COMDAT
; _this$ = ecx

; 887  : {

  00000	55		 push	 ebp
  00001	8b ec		 mov	 ebp, esp
  00003	51		 push	 ecx
  00004	56		 push	 esi
  00005	57		 push	 edi
  00006	8b f9		 mov	 edi, ecx

; 888  : 	if (!m_pkCurRaceMotionData)

  00008	8b 8f 68 04 00
	00		 mov	 ecx, DWORD PTR [edi+1128]
  0000e	85 c9		 test	 ecx, ecx
  00010	74 4f		 je	 SHORT $LN14@IsNeedFlyT

; 889  : 	{
; 890  : 		return true;
; 891  : 	}
; 892  : 
; 893  : 	for (DWORD i = 0; i < m_pkCurRaceMotionData->GetMotionEventDataCount(); ++i)

  00012	33 f6		 xor	 esi, esi
  00014	e8 00 00 00 00	 call	 ?GetMotionEventDataCount@CRaceMotionData@@QBEKXZ ; CRaceMotionData::GetMotionEventDataCount
  00019	85 c0		 test	 eax, eax
  0001b	74 3c		 je	 SHORT $LN3@IsNeedFlyT
  0001d	0f 1f 00	 npad	 3
$LL4@IsNeedFlyT:

; 894  : 	{
; 895  : 		const CRaceMotionData::TMotionEventData * c_pData;
; 896  : 		if (!m_pkCurRaceMotionData->GetMotionEventDataPointer(i, &c_pData))

  00020	8b 8f 68 04 00
	00		 mov	 ecx, DWORD PTR [edi+1128]
  00026	8d 45 fc	 lea	 eax, DWORD PTR _c_pData$1[ebp]
  00029	50		 push	 eax
  0002a	56		 push	 esi
  0002b	e8 00 00 00 00	 call	 ?GetMotionEventDataPointer@CRaceMotionData@@QBEHEPAPBUSMotionEventData@NMotionEvent@@@Z ; CRaceMotionData::GetMotionEventDataPointer
  00030	85 c0		 test	 eax, eax
  00032	74 15		 je	 SHORT $LN2@IsNeedFlyT

; 897  : 		{
; 898  : 			continue;
; 899  : 		}
; 900  : #ifdef ENABLE_WOLFMAN_CHARACTER
; 901  : 		if (c_pData->iType == CRaceMotionData::MOTION_EVENT_TYPE_UNK11)
; 902  : 		{
; 903  : 			return true;
; 904  : 		}
; 905  : #endif
; 906  : 		if (c_pData->iType == CRaceMotionData::MOTION_EVENT_TYPE_WARP)

  00034	8b 45 fc	 mov	 eax, DWORD PTR _c_pData$1[ebp]
  00037	8b 40 04	 mov	 eax, DWORD PTR [eax+4]
  0003a	83 f8 09	 cmp	 eax, 9
  0003d	74 22		 je	 SHORT $LN14@IsNeedFlyT

; 907  : 		{
; 908  : 			return true;
; 909  : 		}
; 910  : 
; 911  : 		if (c_pData->iType == CRaceMotionData::MOTION_EVENT_TYPE_FLY)

  0003f	83 f8 06	 cmp	 eax, 6
  00042	74 1d		 je	 SHORT $LN14@IsNeedFlyT

; 912  : 		{
; 913  : 			return true;
; 914  : 		}
; 915  : 
; 916  : 		if (c_pData->iType == CRaceMotionData::MOTION_EVENT_TYPE_EFFECT_TO_TARGET)

  00044	83 f8 0a	 cmp	 eax, 10			; 0000000aH
  00047	74 18		 je	 SHORT $LN14@IsNeedFlyT
$LN2@IsNeedFlyT:

; 889  : 	{
; 890  : 		return true;
; 891  : 	}
; 892  : 
; 893  : 	for (DWORD i = 0; i < m_pkCurRaceMotionData->GetMotionEventDataCount(); ++i)

  00049	8b 8f 68 04 00
	00		 mov	 ecx, DWORD PTR [edi+1128]
  0004f	46		 inc	 esi
  00050	e8 00 00 00 00	 call	 ?GetMotionEventDataCount@CRaceMotionData@@QBEKXZ ; CRaceMotionData::GetMotionEventDataCount
  00055	3b f0		 cmp	 esi, eax
  00057	72 c7		 jb	 SHORT $LL4@IsNeedFlyT
$LN3@IsNeedFlyT:
  00059	5f		 pop	 edi

; 919  : 		}
; 920  : 	}
; 921  : 
; 922  : 	return false;

  0005a	32 c0		 xor	 al, al

; 923  : }

  0005c	5e		 pop	 esi
  0005d	8b e5		 mov	 esp, ebp
  0005f	5d		 pop	 ebp
  00060	c3		 ret	 0
$LN14@IsNeedFlyT:
  00061	5f		 pop	 edi

; 917  : 		{
; 918  : 			return true;

  00062	b0 01		 mov	 al, 1

; 923  : }

  00064	5e		 pop	 esi
  00065	8b e5		 mov	 esp, ebp
  00067	5d		 pop	 ebp
  00068	c3		 ret	 0
?__IsNeedFlyTargetMotion@CActorInstance@@IAE_NXZ ENDP	; CActorInstance::__IsNeedFlyTargetMotion
_TEXT	ENDS
; Function compile flags: /Ogtp
; File C:\Users\flourine\Desktop\Xantios\client-src\Code\GameLib\ActorInstanceMotion.cpp
;	COMDAT ?__GetMotionType@CActorInstance@@IAEIXZ
_TEXT	SEGMENT
?__GetMotionType@CActorInstance@@IAEIXZ PROC		; CActorInstance::__GetMotionType, COMDAT
; _this$ = ecx

; 9    : 	if (!m_pkCurRaceMotionData)

  00000	8b 89 68 04 00
	00		 mov	 ecx, DWORD PTR [ecx+1128]
  00006	85 c9		 test	 ecx, ecx
  00008	75 03		 jne	 SHORT $LN2@GetMotionT

; 10   : 	{
; 11   : 		return CRaceMotionData::TYPE_NONE;

  0000a	33 c0		 xor	 eax, eax

; 15   : }

  0000c	c3		 ret	 0
$LN2@GetMotionT:

; 12   : 	}
; 13   : 
; 14   : 	return m_pkCurRaceMotionData->GetType();

  0000d	e9 00 00 00 00	 jmp	 ?GetType@CRaceMotionData@@QBEIXZ ; CRaceMotionData::GetType
?__GetMotionType@CActorInstance@@IAEIXZ ENDP		; CActorInstance::__GetMotionType
_TEXT	ENDS
; Function compile flags: /Ogtp
; File C:\Users\flourine\Desktop\Xantios\client-src\Code\GameLib\ActorInstanceMotion.cpp
;	COMDAT ?__BindMotionData@CActorInstance@@IAE_NK@Z
_TEXT	SEGMENT
_dwMotionKey$ = 8					; size = 4
?__BindMotionData@CActorInstance@@IAE_NK@Z PROC		; CActorInstance::__BindMotionData, COMDAT
; _this$ = ecx

; 821  : {

  00000	55		 push	 ebp
  00001	8b ec		 mov	 ebp, esp
  00003	56		 push	 esi
  00004	8b f1		 mov	 esi, ecx
  00006	57		 push	 edi

; 822  : 	if (!m_pkCurRaceData->GetMotionDataPointer(dwMotionKey, &m_pkCurRaceMotionData))

  00007	8b 8e 64 04 00
	00		 mov	 ecx, DWORD PTR [esi+1124]
  0000d	8d be 68 04 00
	00		 lea	 edi, DWORD PTR [esi+1128]
  00013	57		 push	 edi
  00014	ff 75 08	 push	 DWORD PTR _dwMotionKey$[ebp]
  00017	e8 00 00 00 00	 call	 ?GetMotionDataPointer@CRaceData@@QAEHKPAPAVCRaceMotionData@@@Z ; CRaceData::GetMotionDataPointer
  0001c	85 c0		 test	 eax, eax
  0001e	75 25		 jne	 SHORT $LN2@BindMotion

; 823  : 	{
; 824  : 		Tracen("Failed to bind motion.");

  00020	68 00 00 00 00	 push	 OFFSET ??_C@_0BH@MJFHAINF@Failed?5to?5bind?5motion?4@
  00025	e8 00 00 00 00	 call	 ?Tracen@@YAXPBD@Z	; Tracen
  0002a	83 c4 04	 add	 esp, 4

; 825  : 		m_pkCurRaceMotionData = NULL;

  0002d	c7 07 00 00 00
	00		 mov	 DWORD PTR [edi], 0

; 826  : 		m_dwcurComboIndex = 0;

  00033	c7 86 3c 04 00
	00 00 00 00 00	 mov	 DWORD PTR [esi+1084], 0

; 827  : 		return false;

  0003d	32 c0		 xor	 al, al
  0003f	5f		 pop	 edi

; 831  : }

  00040	5e		 pop	 esi
  00041	5d		 pop	 ebp
  00042	c2 04 00	 ret	 4
$LN2@BindMotion:
  00045	5f		 pop	 edi

; 828  : 	}
; 829  : 
; 830  : 	return true;

  00046	b0 01		 mov	 al, 1

; 831  : }

  00048	5e		 pop	 esi
  00049	5d		 pop	 ebp
  0004a	c2 04 00	 ret	 4
?__BindMotionData@CActorInstance@@IAE_NK@Z ENDP		; CActorInstance::__BindMotionData
_TEXT	ENDS
; Function compile flags: /Ogtp
; File C:\Users\flourine\Desktop\Xantios\client-src\Code\GameLib\ActorInstanceMotion.cpp
; File C:\Program Files\Microsoft Visual Studio\2022\Community\VC\Tools\MSVC\14.34.31933\include\deque
; File C:\Program Files\Microsoft Visual Studio\2022\Community\VC\Tools\MSVC\14.34.31933\include\xmemory
; File C:\Program Files\Microsoft Visual Studio\2022\Community\VC\Tools\MSVC\14.34.31933\include\deque
; File C:\Program Files\Microsoft Visual Studio\2022\Community\VC\Tools\MSVC\14.34.31933\include\xmemory
; File C:\Program Files\Microsoft Visual Studio\2022\Community\VC\Tools\MSVC\14.34.31933\include\deque
; File C:\Users\flourine\Desktop\Xantios\client-src\Code\GameLib\ActorInstanceMotion.cpp
; File C:\Program Files\Microsoft Visual Studio\2022\Community\VC\Tools\MSVC\14.34.31933\include\xmemory
; File C:\Users\flourine\Desktop\Xantios\client-src\Code\GameLib\ActorInstanceMotion.cpp
;	COMDAT ?__ClearMotion@CActorInstance@@IAEXXZ
_TEXT	SEGMENT
?__ClearMotion@CActorInstance@@IAEXXZ PROC		; CActorInstance::__ClearMotion, COMDAT
; _this$ = ecx

; 674  : {

  00000	56		 push	 esi
  00001	8b f1		 mov	 esi, ecx

; 675  : 	__HideWeaponTrace();

  00003	e8 00 00 00 00	 call	 ?__HideWeaponTrace@CActorInstance@@IAEXXZ ; CActorInstance::__HideWeaponTrace
; File C:\Program Files\Microsoft Visual Studio\2022\Community\VC\Tools\MSVC\14.34.31933\include\deque

; 1045 :         return _Mysize() == 0;

  00008	8b 86 50 03 00
	00		 mov	 eax, DWORD PTR [esi+848]
  0000e	85 c0		 test	 eax, eax

; 1588 :         while (!empty()) {

  00010	74 15		 je	 SHORT $LN67@ClearMotio
$LL6@ClearMotio:

; 1208 :         if (--_Mysize() == 0) {

  00012	83 c0 ff	 add	 eax, -1
  00015	89 86 50 03 00
	00		 mov	 DWORD PTR [esi+848], eax
  0001b	75 f5		 jne	 SHORT $LL6@ClearMotio

; 1209 :             _Myoff() = 0;

  0001d	c7 86 4c 03 00
	00 00 00 00 00	 mov	 DWORD PTR [esi+844], 0
$LN67@ClearMotio:

; 1592 :         if (_Map() != nullptr) {

  00027	8b 86 44 03 00
	00		 mov	 eax, DWORD PTR [esi+836]
  0002d	85 c0		 test	 eax, eax
  0002f	74 5b		 je	 SHORT $LN66@ClearMotio

; 1593 :             for (size_type _Block = _Mapsize(); _Block > 0;) { // free storage for a block and destroy pointer

  00031	57		 push	 edi
  00032	8b be 48 03 00
	00		 mov	 edi, DWORD PTR [esi+840]
  00038	85 ff		 test	 edi, edi
  0003a	74 22		 je	 SHORT $LN9@ClearMotio
  0003c	0f 1f 40 00	 npad	 4
$LL8@ClearMotio:

; 1594 :                 if (_Map()[--_Block]) { // free block

  00040	8b 4c b8 fc	 mov	 ecx, DWORD PTR [eax+edi*4-4]
  00044	4f		 dec	 edi
  00045	85 c9		 test	 ecx, ecx
  00047	74 11		 je	 SHORT $LN45@ClearMotio
; File C:\Program Files\Microsoft Visual Studio\2022\Community\VC\Tools\MSVC\14.34.31933\include\xmemory

; 255  :         ::operator delete(_Ptr, _Bytes);

  00049	6a 18		 push	 24			; 00000018H
  0004b	51		 push	 ecx
  0004c	e8 00 00 00 00	 call	 ??3@YAXPAXI@Z		; operator delete
  00051	8b 86 44 03 00
	00		 mov	 eax, DWORD PTR [esi+836]
  00057	83 c4 08	 add	 esp, 8
$LN45@ClearMotio:
; File C:\Program Files\Microsoft Visual Studio\2022\Community\VC\Tools\MSVC\14.34.31933\include\deque

; 1593 :             for (size_type _Block = _Mapsize(); _Block > 0;) { // free storage for a block and destroy pointer

  0005a	85 ff		 test	 edi, edi
  0005c	75 e2		 jne	 SHORT $LL8@ClearMotio
$LN9@ClearMotio:
; File C:\Program Files\Microsoft Visual Studio\2022\Community\VC\Tools\MSVC\14.34.31933\include\xmemory

; 830  :         _Deallocate<_New_alignof<_Ty>>(_Ptr, sizeof(_Ty) * _Count);

  0005e	8b 8e 48 03 00
	00		 mov	 ecx, DWORD PTR [esi+840]
  00064	c1 e1 02	 shl	 ecx, 2
  00067	5f		 pop	 edi

; 251  :         if (_Bytes >= _Big_allocation_threshold) { // boost the alignment of big allocations to help autovectorization

  00068	81 f9 00 10 00
	00		 cmp	 ecx, 4096		; 00001000H
  0006e	72 12		 jb	 SHORT $LN37@ClearMotio

; 150  :     const uintptr_t _Ptr_container   = _Ptr_user[-1];

  00070	8b 50 fc	 mov	 edx, DWORD PTR [eax-4]
  00073	83 c1 23	 add	 ecx, 35			; 00000023H

; 151  : 
; 152  :     // If the following asserts, it likely means that we are performing
; 153  :     // an aligned delete on memory coming from an unaligned allocation.
; 154  :     _STL_ASSERT(_Ptr_user[-2] == _Big_allocation_sentinel, "invalid argument");
; 155  : 
; 156  :     // Extra paranoia on aligned allocation/deallocation; ensure _Ptr_container is
; 157  :     // in range [_Min_back_shift, _Non_user_size]
; 158  : #ifdef _DEBUG
; 159  :     constexpr uintptr_t _Min_back_shift = 2 * sizeof(void*);
; 160  : #else // ^^^ _DEBUG ^^^ // vvv !_DEBUG vvv
; 161  :     constexpr uintptr_t _Min_back_shift = sizeof(void*);
; 162  : #endif // _DEBUG
; 163  :     const uintptr_t _Back_shift = reinterpret_cast<uintptr_t>(_Ptr) - _Ptr_container;

  00076	2b c2		 sub	 eax, edx

; 164  :     _STL_VERIFY(_Back_shift >= _Min_back_shift && _Back_shift <= _Non_user_size, "invalid argument");

  00078	83 c0 fc	 add	 eax, -4			; fffffffcH
  0007b	83 f8 1f	 cmp	 eax, 31			; 0000001fH
  0007e	77 54		 ja	 SHORT $LN34@ClearMotio

; 165  :     _Ptr = reinterpret_cast<void*>(_Ptr_container);

  00080	8b c2		 mov	 eax, edx
$LN37@ClearMotio:

; 255  :         ::operator delete(_Ptr, _Bytes);

  00082	51		 push	 ecx
  00083	50		 push	 eax
  00084	e8 00 00 00 00	 call	 ??3@YAXPAXI@Z		; operator delete
  00089	83 c4 08	 add	 esp, 8
$LN66@ClearMotio:
; File C:\Program Files\Microsoft Visual Studio\2022\Community\VC\Tools\MSVC\14.34.31933\include\deque

; 1603 :         _Mapsize() = 0;

  0008c	c7 86 48 03 00
	00 00 00 00 00	 mov	 DWORD PTR [esi+840], 0

; 1604 :         _Map()     = nullptr;

  00096	c7 86 44 03 00
	00 00 00 00 00	 mov	 DWORD PTR [esi+836], 0
; File C:\Users\flourine\Desktop\Xantios\client-src\Code\GameLib\ActorInstanceMotion.cpp

; 678  : 	m_kCurMotNode.dwcurFrame = 0;

  000a0	c7 86 5c 03 00
	00 00 00 00 00	 mov	 DWORD PTR [esi+860], 0

; 679  : 	m_kCurMotNode.dwFrameCount = 0;

  000aa	c7 86 60 03 00
	00 00 00 00 00	 mov	 DWORD PTR [esi+864], 0

; 680  : 	m_kCurMotNode.uSkill = 0;

  000b4	c7 86 74 03 00
	00 00 00 00 00	 mov	 DWORD PTR [esi+884], 0

; 681  : 	m_kCurMotNode.iLoopCount = 0;

  000be	c7 86 70 03 00
	00 00 00 00 00	 mov	 DWORD PTR [esi+880], 0

; 682  : 	m_kCurMotNode.iMotionType = MOTION_TYPE_NONE;

  000c8	c7 86 54 03 00
	00 00 00 00 00	 mov	 DWORD PTR [esi+852], 0
  000d2	5e		 pop	 esi

; 683  : }

  000d3	c3		 ret	 0
$LN34@ClearMotio:
; File C:\Program Files\Microsoft Visual Studio\2022\Community\VC\Tools\MSVC\14.34.31933\include\xmemory

; 164  :     _STL_VERIFY(_Back_shift >= _Min_back_shift && _Back_shift <= _Non_user_size, "invalid argument");

  000d4	e8 00 00 00 00	 call	 __invalid_parameter_noinfo_noreturn
$LN69@ClearMotio:
  000d9	cc		 int	 3
?__ClearMotion@CActorInstance@@IAEXXZ ENDP		; CActorInstance::__ClearMotion
_TEXT	ENDS
; Function compile flags: /Ogtp
; File C:\Users\flourine\Desktop\Xantios\client-src\Code\GameLib\ActorInstanceMotion.cpp
; File C:\Program Files\Microsoft Visual Studio\2022\Community\VC\Tools\MSVC\14.34.31933\include\xtree
; File C:\Users\flourine\Desktop\Xantios\client-src\Code\GameLib\ActorInstanceMotion.cpp
; File C:\Program Files\Microsoft Visual Studio\2022\Community\VC\Tools\MSVC\14.34.31933\include\xtree
; File C:\Users\flourine\Desktop\Xantios\client-src\Code\GameLib\ActorInstanceMotion.cpp
;	COMDAT ?__SetMotion@CActorInstance@@IAEKABUSSetMotionData@1@K@Z
_TEXT	SEGMENT
_dwMotKey$1$ = 8					; size = 4
_c_rkSetMotData$ = 8					; size = 4
tv558 = 12						; size = 4
tv556 = 12						; size = 4
tv520 = 12						; size = 4
tv498 = 12						; size = 4
_dwRandMotKey$ = 12					; size = 4
?__SetMotion@CActorInstance@@IAEKABUSSetMotionData@1@K@Z PROC ; CActorInstance::__SetMotion, COMDAT
; _this$ = ecx

; 687  : {

  00000	55		 push	 ebp
  00001	8b ec		 mov	 ebp, esp

; 688  : 	DWORD dwMotKey = dwRandMotKey;

  00003	8b 45 0c	 mov	 eax, DWORD PTR _dwRandMotKey$[ebp]
  00006	53		 push	 ebx
  00007	8b d9		 mov	 ebx, ecx
  00009	56		 push	 esi
  0000a	57		 push	 edi
  0000b	8b 7d 08	 mov	 edi, DWORD PTR _c_rkSetMotData$[ebp]
  0000e	89 45 08	 mov	 DWORD PTR _dwMotKey$1$[ebp], eax

; 689  : 
; 690  : 	if (dwMotKey == 0)

  00011	85 c0		 test	 eax, eax
  00013	75 0a		 jne	 SHORT $LN2@SetMotion

; 691  : 	{
; 692  : 		dwMotKey = GetRandomMotionKey(c_rkSetMotData.dwMotKey);

  00015	ff 37		 push	 DWORD PTR [edi]
  00017	e8 00 00 00 00	 call	 ?GetRandomMotionKey@CActorInstance@@IAEKK@Z ; CActorInstance::GetRandomMotionKey
  0001c	89 45 08	 mov	 DWORD PTR _dwMotKey$1$[ebp], eax
$LN2@SetMotion:

; 693  : 	}
; 694  : 
; 695  : 	UINT uNextMot = GET_MOTION_INDEX(c_rkSetMotData.dwMotKey);

  0001f	8b 0f		 mov	 ecx, DWORD PTR [edi]
  00021	c1 e9 08	 shr	 ecx, 8
  00024	0f b7 c9	 movzx	 ecx, cx
  00027	8b c1		 mov	 eax, ecx
  00029	8b f1		 mov	 esi, ecx

; 696  : 
; 697  : 	if (IsDead())

  0002b	8b cb		 mov	 ecx, ebx
  0002d	89 45 0c	 mov	 DWORD PTR tv520[ebp], eax
  00030	e8 00 00 00 00	 call	 ?IsDead@CActorInstance@@QAEHXZ ; CActorInstance::IsDead
  00035	85 c0		 test	 eax, eax
  00037	74 14		 je	 SHORT $LN4@SetMotion

; 698  : 	{
; 699  : 		if (uNextMot != CRaceMotionData::NAME_DAMAGE_FLYING && uNextMot != CRaceMotionData::NAME_DAMAGE_FLYING_BACK && uNextMot != CRaceMotionData::NAME_DEAD && uNextMot != CRaceMotionData::NAME_DEAD_BACK)

  00039	83 fe 06	 cmp	 esi, 6
  0003c	74 0f		 je	 SHORT $LN4@SetMotion
  0003e	83 fe 09	 cmp	 esi, 9
  00041	74 0a		 je	 SHORT $LN4@SetMotion
  00043	83 fe 0b	 cmp	 esi, 11			; 0000000bH
  00046	74 05		 je	 SHORT $LN4@SetMotion
  00048	83 fe 0c	 cmp	 esi, 12			; 0000000cH
  0004b	75 5b		 jne	 SHORT $LN30@SetMotion
$LN4@SetMotion:

; 700  : 		{
; 701  : 			return 0;
; 702  : 		}
; 703  : 	}
; 704  : 	if (IsUsingSkill())

  0004d	8b cb		 mov	 ecx, ebx
  0004f	e8 00 00 00 00	 call	 ?IsUsingSkill@CActorInstance@@QAEHXZ ; CActorInstance::IsUsingSkill
  00054	85 c0		 test	 eax, eax
  00056	74 07		 je	 SHORT $LN5@SetMotion

; 705  : 	{
; 706  : 		__OnStop();

  00058	8b cb		 mov	 ecx, ebx
  0005a	e8 00 00 00 00	 call	 ?__OnStop@CActorInstance@@QAEXXZ ; CActorInstance::__OnStop
$LN5@SetMotion:

; 707  : 	}
; 708  : 
; 709  : 	if (__IsStandUpMotion())

  0005f	8b cb		 mov	 ecx, ebx
  00061	e8 00 00 00 00	 call	 ?__IsStandUpMotion@CActorInstance@@IAE_NXZ ; CActorInstance::__IsStandUpMotion
  00066	84 c0		 test	 al, al
  00068	74 07		 je	 SHORT $LN6@SetMotion

; 710  : 	{
; 711  : 		__OnStop();

  0006a	8b cb		 mov	 ecx, ebx
  0006c	e8 00 00 00 00	 call	 ?__OnStop@CActorInstance@@QAEXXZ ; CActorInstance::__OnStop
$LN6@SetMotion:

; 712  : 	}
; 713  : 
; 714  : 
; 715  : 	if (__IsMoveMotion())

  00071	8b cb		 mov	 ecx, ebx
  00073	e8 00 00 00 00	 call	 ?__IsMoveMotion@CActorInstance@@IAE_NXZ ; CActorInstance::__IsMoveMotion
  00078	84 c0		 test	 al, al
  0007a	74 58		 je	 SHORT $LN7@SetMotion

; 716  : 	{
; 717  : 		if (uNextMot == CRaceMotionData::NAME_DAMAGE || uNextMot == CRaceMotionData::NAME_DAMAGE_BACK || uNextMot == CRaceMotionData::NAME_DAMAGE_FLYING || uNextMot == CRaceMotionData::NAME_DAMAGE_FLYING_BACK)

  0007c	83 fe 05	 cmp	 esi, 5
  0007f	74 0f		 je	 SHORT $LN10@SetMotion
  00081	83 fe 08	 cmp	 esi, 8
  00084	74 0a		 je	 SHORT $LN10@SetMotion
  00086	83 fe 06	 cmp	 esi, 6
  00089	74 05		 je	 SHORT $LN10@SetMotion
  0008b	83 fe 09	 cmp	 esi, 9
  0008e	75 21		 jne	 SHORT $LN11@SetMotion
$LN10@SetMotion:

; 718  : 		{
; 719  : 			if (!m_isMain)

  00090	83 bb 90 04 00
	00 00		 cmp	 DWORD PTR [ebx+1168], 0
  00097	75 18		 jne	 SHORT $LN11@SetMotion

; 720  : 			{
; 721  : 				Logn(0, "Only MainActor can receive damage when moving");

  00099	68 00 00 00 00	 push	 OFFSET ??_C@_0CO@FJGPJKBE@Only?5MainActor?5can?5receive?5dama@
  0009e	6a 00		 push	 0
  000a0	e8 00 00 00 00	 call	 ?Logn@@YAXIPBD@Z	; Logn
  000a5	83 c4 08	 add	 esp, 8
$LN30@SetMotion:

; 818  : }

  000a8	5f		 pop	 edi
  000a9	5e		 pop	 esi
  000aa	33 c0		 xor	 eax, eax
  000ac	5b		 pop	 ebx
  000ad	5d		 pop	 ebp
  000ae	c2 08 00	 ret	 8
$LN11@SetMotion:

; 722  : 				return false;
; 723  : 			}
; 724  : 		}
; 725  : 
; 726  : 		if (uNextMot != CRaceMotionData::NAME_RUN &&
; 727  : 				uNextMot != CRaceMotionData::NAME_WALK &&

  000b1	83 fe 03	 cmp	 esi, 3
  000b4	74 3c		 je	 SHORT $LN13@SetMotion
  000b6	83 fe 02	 cmp	 esi, 2
  000b9	74 37		 je	 SHORT $LN13@SetMotion
  000bb	0f b7 47 10	 movzx	 eax, WORD PTR [edi+16]
  000bf	8b cb		 mov	 ecx, ebx
  000c1	50		 push	 eax
  000c2	e8 00 00 00 00	 call	 ?__IsMovingSkill@CActorInstance@@IAEHG@Z ; CActorInstance::__IsMovingSkill
  000c7	85 c0		 test	 eax, eax
  000c9	75 27		 jne	 SHORT $LN13@SetMotion

; 728  : 				!__IsMovingSkill(c_rkSetMotData.uSkill))
; 729  : 		{
; 730  : 			__OnStop();

  000cb	8b cb		 mov	 ecx, ebx
  000cd	e8 00 00 00 00	 call	 ?__OnStop@CActorInstance@@QAEXXZ ; CActorInstance::__OnStop

; 731  : 		}
; 732  : 	}

  000d2	eb 1e		 jmp	 SHORT $LN13@SetMotion
$LN7@SetMotion:

; 733  : 	else
; 734  : 	{
; 735  : 		if (uNextMot == CRaceMotionData::NAME_RUN || __IsMovingSkill(c_rkSetMotData.uSkill))

  000d4	66 83 7d 0c 03	 cmp	 WORD PTR tv520[ebp], 3
  000d9	74 10		 je	 SHORT $LN14@SetMotion
  000db	0f b7 47 10	 movzx	 eax, WORD PTR [edi+16]
  000df	8b cb		 mov	 ecx, ebx
  000e1	50		 push	 eax
  000e2	e8 00 00 00 00	 call	 ?__IsMovingSkill@CActorInstance@@IAEHG@Z ; CActorInstance::__IsMovingSkill
  000e7	85 c0		 test	 eax, eax
  000e9	74 07		 je	 SHORT $LN13@SetMotion
$LN14@SetMotion:

; 736  : 		{
; 737  : 			__OnMove();

  000eb	8b cb		 mov	 ecx, ebx
  000ed	e8 00 00 00 00	 call	 ?__OnMove@CActorInstance@@QAEXXZ ; CActorInstance::__OnMove
$LN13@SetMotion:

; 738  : 		}
; 739  : 	}
; 740  : 
; 741  : 
; 742  : 	if (__IsHiding())

  000f2	8b cb		 mov	 ecx, ebx
  000f4	e8 00 00 00 00	 call	 ?__IsHiding@CActorInstance@@IAEHXZ ; CActorInstance::__IsHiding
  000f9	85 c0		 test	 eax, eax
  000fb	74 07		 je	 SHORT $LN15@SetMotion

; 743  : 	{
; 744  : 		__ShowEvent();

  000fd	8b cb		 mov	 ecx, ebx
  000ff	e8 00 00 00 00	 call	 ?__ShowEvent@CActorInstance@@IAEXXZ ; CActorInstance::__ShowEvent
$LN15@SetMotion:

; 745  : 	}
; 746  : 
; 747  : 
; 748  : 	if (-1 != m_iFishingEffectID)

  00104	8b 83 a8 04 00
	00		 mov	 eax, DWORD PTR [ebx+1192]
  0010a	83 f8 ff	 cmp	 eax, -1
  0010d	74 16		 je	 SHORT $LN16@SetMotion

; 749  : 	{
; 750  : 		CEffectManager& rkEftMgr = CEffectManager::Instance();
; 751  : 		rkEftMgr.DeactiveEffectInstance(m_iFishingEffectID);

  0010f	8b 0d 00 00 00
	00		 mov	 ecx, DWORD PTR ?ms_singleton@?$CSingleton@VCEffectManager@@@@0PAVCEffectManager@@A ; CSingleton<CEffectManager>::ms_singleton
  00115	50		 push	 eax
  00116	e8 00 00 00 00	 call	 ?DeactiveEffectInstance@CEffectManager@@QAEXK@Z ; CEffectManager::DeactiveEffectInstance

; 752  : 
; 753  : 		m_iFishingEffectID = -1;

  0011b	c7 83 a8 04 00
	00 ff ff ff ff	 mov	 DWORD PTR [ebx+1192], -1
$LN16@SetMotion:

; 754  : 	}
; 755  : 
; 756  : 	if (m_pkHorse)

  00125	8b b3 94 05 00
	00		 mov	 esi, DWORD PTR [ebx+1428]
  0012b	f3 0f 10 47 04	 movss	 xmm0, DWORD PTR [edi+4]
  00130	85 f6		 test	 esi, esi
  00132	0f 84 fe 00 00
	00		 je	 $LN17@SetMotion

; 757  : 	{
; 758  : 		WORD wMotionIndex = GET_MOTION_INDEX(dwMotKey);

  00138	8b 55 08	 mov	 edx, DWORD PTR _dwMotKey$1$[ebp]
  0013b	8b c2		 mov	 eax, edx

; 759  : 		WORD wMotionSubIndex = GET_MOTION_SUB_INDEX(dwMotKey);
; 760  : 		DWORD dwChildMotKey = MAKE_RANDOM_MOTION_KEY(m_pkHorse->m_wcurMotionMode, wMotionIndex, wMotionSubIndex);

  0013d	0f b6 b6 78 03
	00 00		 movzx	 esi, BYTE PTR [esi+888]
  00144	c1 e8 08	 shr	 eax, 8
  00147	0f b7 c8	 movzx	 ecx, ax
  0014a	c1 e6 10	 shl	 esi, 16			; 00000010H
  0014d	0b f1		 or	 esi, ecx
  0014f	0f b6 c2	 movzx	 eax, dl
  00152	c1 e6 08	 shl	 esi, 8

; 761  : 
; 762  : 		if (CRaceMotionData::NAME_DEAD == wMotionIndex)

  00155	51		 push	 ecx
  00156	0b f0		 or	 esi, eax
  00158	c7 45 0c 0b 00
	00 00		 mov	 DWORD PTR tv498[ebp], 11 ; 0000000bH
  0015f	8b 47 0c	 mov	 eax, DWORD PTR [edi+12]
  00162	f3 0f 11 04 24	 movss	 DWORD PTR [esp], xmm0
  00167	50		 push	 eax
  00168	66 39 4d 0c	 cmp	 WORD PTR tv498[ebp], cx
  0016c	75 0a		 jne	 SHORT $LN19@SetMotion

; 763  : 		{
; 764  : 			CGraphicThingInstance::ChangeMotion(dwMotKey, c_rkSetMotData.iLoopCount, c_rkSetMotData.fSpeedRatio);

  0016e	52		 push	 edx
  0016f	8b cb		 mov	 ecx, ebx
  00171	e8 00 00 00 00	 call	 ?ChangeMotion@CGraphicThingInstance@@QAE_NKHM@Z ; CGraphicThingInstance::ChangeMotion

; 765  : 		}

  00176	eb 13		 jmp	 SHORT $LN20@SetMotion
$LN19@SetMotion:

; 766  : 		else
; 767  : 		{
; 768  : 			CGraphicThingInstance::SetMotion(dwMotKey, c_rkSetMotData.fBlendTime, c_rkSetMotData.iLoopCount, c_rkSetMotData.fSpeedRatio);

  00178	f3 0f 10 47 08	 movss	 xmm0, DWORD PTR [edi+8]
  0017d	51		 push	 ecx
  0017e	f3 0f 11 04 24	 movss	 DWORD PTR [esp], xmm0
  00183	8b cb		 mov	 ecx, ebx
  00185	52		 push	 edx
  00186	e8 00 00 00 00	 call	 ?SetMotion@CGraphicThingInstance@@QAE_NKMHM@Z ; CGraphicThingInstance::SetMotion
$LN20@SetMotion:

; 769  : 		}
; 770  : 
; 771  : 		m_pkHorse->SetMotion(dwChildMotKey, c_rkSetMotData.fBlendTime, c_rkSetMotData.iLoopCount, c_rkSetMotData.fSpeedRatio);

  0018b	f3 0f 10 47 04	 movss	 xmm0, DWORD PTR [edi+4]
  00190	51		 push	 ecx
  00191	f3 0f 11 04 24	 movss	 DWORD PTR [esp], xmm0
  00196	ff 77 0c	 push	 DWORD PTR [edi+12]
  00199	f3 0f 10 47 08	 movss	 xmm0, DWORD PTR [edi+8]
  0019e	51		 push	 ecx
  0019f	8b 8b 94 05 00
	00		 mov	 ecx, DWORD PTR [ebx+1428]
  001a5	f3 0f 11 04 24	 movss	 DWORD PTR [esp], xmm0
  001aa	56		 push	 esi
  001ab	e8 00 00 00 00	 call	 ?SetMotion@CGraphicThingInstance@@QAE_NKMHM@Z ; CGraphicThingInstance::SetMotion

; 772  : 		m_pkHorse->__BindMotionData(dwChildMotKey);

  001b0	8b 8b 94 05 00
	00		 mov	 ecx, DWORD PTR [ebx+1428]
  001b6	56		 push	 esi
  001b7	e8 00 00 00 00	 call	 ?__BindMotionData@CActorInstance@@IAE_NK@Z ; CActorInstance::__BindMotionData

; 773  : 
; 774  : 		if (c_rkSetMotData.iLoopCount)

  001bc	83 7f 0c 00	 cmp	 DWORD PTR [edi+12], 0

; 775  : 		{
; 776  : 			m_pkHorse->m_kCurMotNode.iMotionType = MOTION_TYPE_ONCE;

  001c0	b9 01 00 00 00	 mov	 ecx, 1
  001c5	8b 83 94 05 00
	00		 mov	 eax, DWORD PTR [ebx+1428]
  001cb	75 05		 jne	 SHORT $LN22@SetMotion

; 777  : 		}
; 778  : 		else
; 779  : 		{
; 780  : 			m_pkHorse->m_kCurMotNode.iMotionType = MOTION_TYPE_LOOP;

  001cd	b9 02 00 00 00	 mov	 ecx, 2
$LN22@SetMotion:

; 781  : 		}
; 782  : 
; 783  : 		m_pkHorse->m_kCurMotNode.dwFrameCount	= m_pkHorse->GetMotionDuration(dwChildMotKey) / (1.0f / g_fGameFPS);

  001d2	89 88 54 03 00
	00		 mov	 DWORD PTR [eax+852], ecx
  001d8	8b 8b 94 05 00
	00		 mov	 ecx, DWORD PTR [ebx+1428]
  001de	56		 push	 esi
  001df	e8 00 00 00 00	 call	 ?GetMotionDuration@CActorInstance@@IAEMK@Z ; CActorInstance::GetMotionDuration
  001e4	f3 0f 10 05 00
	00 00 00	 movss	 xmm0, DWORD PTR __real@3f800000
  001ec	f3 0f 5e 05 00
	00 00 00	 divss	 xmm0, DWORD PTR ?g_fGameFPS@@3MA
  001f4	f3 0f 11 45 0c	 movss	 DWORD PTR tv558[ebp], xmm0
  001f9	d8 75 0c	 fdiv	 DWORD PTR tv558[ebp]
  001fc	d9 5d 0c	 fstp	 DWORD PTR tv556[ebp]
  001ff	f3 0f 10 45 0c	 movss	 xmm0, DWORD PTR tv556[ebp]
  00204	e8 00 00 00 00	 call	 __ftol3
  00209	8b 8b 94 05 00
	00		 mov	 ecx, DWORD PTR [ebx+1428]
  0020f	89 81 60 03 00
	00		 mov	 DWORD PTR [ecx+864], eax

; 784  : 		m_pkHorse->m_kCurMotNode.dwcurFrame		= 0;

  00215	8b 83 94 05 00
	00		 mov	 eax, DWORD PTR [ebx+1428]
  0021b	c7 80 5c 03 00
	00 00 00 00 00	 mov	 DWORD PTR [eax+860], 0

; 785  : 		m_pkHorse->m_kCurMotNode.dwMotionKey	= dwChildMotKey;

  00225	8b 83 94 05 00
	00		 mov	 eax, DWORD PTR [ebx+1428]
  0022b	89 b0 58 03 00
	00		 mov	 DWORD PTR [eax+856], esi

; 786  : 	}

  00231	8b 75 08	 mov	 esi, DWORD PTR _dwMotKey$1$[ebp]
  00234	eb 1f		 jmp	 SHORT $LN18@SetMotion
$LN17@SetMotion:

; 787  : 	else
; 788  : 	{
; 789  : 		CGraphicThingInstance::SetMotion(dwMotKey, c_rkSetMotData.fBlendTime, c_rkSetMotData.iLoopCount, c_rkSetMotData.fSpeedRatio);

  00236	8b 75 08	 mov	 esi, DWORD PTR _dwMotKey$1$[ebp]
  00239	51		 push	 ecx
  0023a	f3 0f 11 04 24	 movss	 DWORD PTR [esp], xmm0
  0023f	ff 77 0c	 push	 DWORD PTR [edi+12]
  00242	f3 0f 10 47 08	 movss	 xmm0, DWORD PTR [edi+8]
  00247	51		 push	 ecx
  00248	f3 0f 11 04 24	 movss	 DWORD PTR [esp], xmm0
  0024d	8b cb		 mov	 ecx, ebx
  0024f	56		 push	 esi
  00250	e8 00 00 00 00	 call	 ?SetMotion@CGraphicThingInstance@@QAE_NKMHM@Z ; CGraphicThingInstance::SetMotion
$LN18@SetMotion:

; 790  : 	}
; 791  : 
; 792  : 	__HideWeaponTrace();

  00255	8b cb		 mov	 ecx, ebx
  00257	e8 00 00 00 00	 call	 ?__HideWeaponTrace@CActorInstance@@IAEXXZ ; CActorInstance::__HideWeaponTrace

; 793  : 
; 794  : 	if (__BindMotionData(dwMotKey))

  0025c	56		 push	 esi
  0025d	8b cb		 mov	 ecx, ebx
  0025f	e8 00 00 00 00	 call	 ?__BindMotionData@CActorInstance@@IAE_NK@Z ; CActorInstance::__BindMotionData
  00264	84 c0		 test	 al, al
  00266	74 6a		 je	 SHORT $LN26@SetMotion

; 795  : 	{
; 796  : 		int iLoopCount = __GetLoopCount();

  00268	8b cb		 mov	 ecx, ebx
  0026a	e8 00 00 00 00	 call	 ?__GetLoopCount@CActorInstance@@IAEHXZ ; CActorInstance::__GetLoopCount

; 797  : 		SetMotionLoopCount(iLoopCount);

  0026f	50		 push	 eax
  00270	8b cb		 mov	 ecx, ebx
  00272	e8 00 00 00 00	 call	 ?SetMotionLoopCount@CActorInstance@@QAEXH@Z ; CActorInstance::SetMotionLoopCount

; 798  : 
; 799  : 		if (__CanAttack())

  00277	8b cb		 mov	 ecx, ebx
  00279	e8 00 00 00 00	 call	 ?__CanAttack@CActorInstance@@IAE_NXZ ; CActorInstance::__CanAttack
  0027e	84 c0		 test	 al, al
  00280	74 30		 je	 SHORT $LN29@SetMotion

; 800  : 		{
; 801  : 			__ShowWeaponTrace();

  00282	8b cb		 mov	 ecx, ebx
  00284	e8 00 00 00 00	 call	 ?__ShowWeaponTrace@CActorInstance@@IAEXXZ ; CActorInstance::__ShowWeaponTrace
; File C:\Program Files\Microsoft Visual Studio\2022\Community\VC\Tools\MSVC\14.34.31933\include\xtree

; 1356 :         auto _Head = _Scary->_Myhead;

  00289	8b b3 8c 05 00
	00		 mov	 esi, DWORD PTR [ebx+1420]
; File C:\Users\flourine\Desktop\Xantios\client-src\Code\GameLib\ActorInstanceMotion.cpp

; 803  : 			m_HitDataMap.clear();

  0028f	8d bb 8c 05 00
	00		 lea	 edi, DWORD PTR [ebx+1420]
; File C:\Program Files\Microsoft Visual Studio\2022\Community\VC\Tools\MSVC\14.34.31933\include\xtree

; 1357 :         _Scary->_Erase_tree(_Getal(), _Head->_Parent);

  00295	8b cf		 mov	 ecx, edi
  00297	ff 76 04	 push	 DWORD PTR [esi+4]
  0029a	57		 push	 edi
  0029b	e8 00 00 00 00	 call	 ??$_Erase_tree@V?$allocator@U?$_Tree_node@U?$pair@QBUSHitData@NRaceData@@V?$map@PAVCActorInstance@@MU?$less@PAVCActorInstance@@@std@@V?$allocator@U?$pair@QAVCActorInstance@@M@std@@@3@@std@@@std@@PAX@std@@@std@@@?$_Tree_val@U?$_Tree_simple_types@U?$pair@QBUSHitData@NRaceData@@V?$map@PAVCActorInstance@@MU?$less@PAVCActorInstance@@@std@@V?$allocator@U?$pair@QAVCActorInstance@@M@std@@@3@@std@@@std@@@std@@@std@@QAEXAAV?$allocator@U?$_Tree_node@U?$pair@QBUSHitData@NRaceData@@V?$map@PAVCActorInstance@@MU?$less@PAVCActorInstance@@@std@@V?$allocator@U?$pair@QAVCActorInstance@@M@std@@@3@@std@@@std@@PAX@std@@@1@PAU?$_Tree_node@U?$pair@QBUSHitData@NRaceData@@V?$map@PAVCActorInstance@@MU?$less@PAVCActorInstance@@@std@@V?$allocator@U?$pair@QAVCActorInstance@@M@std@@@3@@std@@@std@@PAX@1@@Z ; std::_Tree_val<std::_Tree_simple_types<std::pair<NRaceData::SHitData const * const,std::map<CActorInstance *,float,std::less<CActorInstance *>,std::allocator<std::pair<CActorInstance * const,float> > > > > >::_Erase_tree<std::allocator<std::_Tree_node<std::pair<NRaceData::SHitData const * const,std::map<CActorInstance *,float,std::less<CActorInstance *>,std::allocator<std::pair<CActorInstance * const,float> > > >,void *> > >

; 1358 :         _Head->_Parent  = _Head;

  002a0	89 76 04	 mov	 DWORD PTR [esi+4], esi

; 1359 :         _Head->_Left    = _Head;

  002a3	89 36		 mov	 DWORD PTR [esi], esi

; 1360 :         _Head->_Right   = _Head;

  002a5	89 76 08	 mov	 DWORD PTR [esi+8], esi
  002a8	8b 75 08	 mov	 esi, DWORD PTR _dwMotKey$1$[ebp]

; 1361 :         _Scary->_Mysize = 0;

  002ab	c7 47 04 00 00
	00 00		 mov	 DWORD PTR [edi+4], 0
$LN29@SetMotion:
; File C:\Users\flourine\Desktop\Xantios\client-src\Code\GameLib\ActorInstanceMotion.cpp

; 807  : 		if (__IsComboAttacking())

  002b2	8b cb		 mov	 ecx, ebx
  002b4	e8 00 00 00 00	 call	 ?__IsComboAttacking@CActorInstance@@IAE_NXZ ; CActorInstance::__IsComboAttacking
  002b9	84 c0		 test	 al, al
  002bb	74 15		 je	 SHORT $LN26@SetMotion

; 808  : 		{
; 809  : 			if (!__CanNextComboAttack())

  002bd	8b cb		 mov	 ecx, ebx
  002bf	e8 00 00 00 00	 call	 ?__CanNextComboAttack@CActorInstance@@IAE_NXZ ; CActorInstance::__CanNextComboAttack
  002c4	84 c0		 test	 al, al
  002c6	75 0a		 jne	 SHORT $LN26@SetMotion

; 810  : 			{
; 811  : 				m_dwcurComboIndex = 0;

  002c8	c7 83 3c 04 00
	00 00 00 00 00	 mov	 DWORD PTR [ebx+1084], 0
$LN26@SetMotion:
  002d2	5f		 pop	 edi

; 812  : 
; 813  : 			}
; 814  : 		}
; 815  : 	}
; 816  : 
; 817  : 	return dwMotKey;

  002d3	8b c6		 mov	 eax, esi

; 818  : }

  002d5	5e		 pop	 esi
  002d6	5b		 pop	 ebx
  002d7	5d		 pop	 ebp
  002d8	c2 08 00	 ret	 8
?__SetMotion@CActorInstance@@IAEKABUSSetMotionData@1@K@Z ENDP ; CActorInstance::__SetMotion
_TEXT	ENDS
; Function compile flags: /Ogtp
; File C:\Users\flourine\Desktop\Xantios\client-src\Code\GameLib\ActorInstanceMotion.cpp
; File C:\Program Files\Microsoft Visual Studio\2022\Community\VC\Tools\MSVC\14.34.31933\include\deque
; File C:\Users\flourine\Desktop\Xantios\client-src\Code\GameLib\ActorInstanceMotion.cpp
; File C:\Program Files\Microsoft Visual Studio\2022\Community\VC\Tools\MSVC\14.34.31933\include\deque
; File C:\Users\flourine\Desktop\Xantios\client-src\Code\GameLib\ActorInstanceMotion.cpp
; File C:\Program Files\Microsoft Visual Studio\2022\Community\VC\Tools\MSVC\14.34.31933\include\deque
; File C:\Program Files\Microsoft Visual Studio\2022\Community\VC\Tools\MSVC\14.34.31933\include\xmemory
; File C:\Program Files\Microsoft Visual Studio\2022\Community\VC\Tools\MSVC\14.34.31933\include\deque
; File C:\Program Files\Microsoft Visual Studio\2022\Community\VC\Tools\MSVC\14.34.31933\include\xmemory
; File C:\Program Files\Microsoft Visual Studio\2022\Community\VC\Tools\MSVC\14.34.31933\include\deque
; File C:\Program Files\Microsoft Visual Studio\2022\Community\VC\Tools\MSVC\14.34.31933\include\xmemory
; File C:\Users\flourine\Desktop\Xantios\client-src\Code\GameLib\ActorInstanceMotion.cpp
; File C:\Program Files\Microsoft Visual Studio\2022\Community\VC\Tools\MSVC\14.34.31933\include\xmemory
; File C:\Program Files\Microsoft Visual Studio\2022\Community\VC\Tools\MSVC\14.34.31933\include\deque
; File C:\Users\flourine\Desktop\Xantios\client-src\Code\GameLib\ActorInstanceMotion.cpp
;	COMDAT ?PushMotion@CActorInstance@@IAEXW4EMotionPushType@1@KMM@Z
_TEXT	SEGMENT
_MotionNode$ = -28					; size = 24
__$ArrayPad$ = -4					; size = 4
_iMotionType$ = 8					; size = 4
_dwMotionKey$ = 12					; size = 4
_fBlendTime$ = 16					; size = 4
_fSpeedRatio$ = 20					; size = 4
?PushMotion@CActorInstance@@IAEXW4EMotionPushType@1@KMM@Z PROC ; CActorInstance::PushMotion, COMDAT
; _this$ = ecx

; 285  : {

  00000	55		 push	 ebp
  00001	8b ec		 mov	 ebp, esp
  00003	83 ec 1c	 sub	 esp, 28			; 0000001cH
  00006	a1 00 00 00 00	 mov	 eax, DWORD PTR ___security_cookie
  0000b	33 c5		 xor	 eax, ebp
  0000d	89 45 fc	 mov	 DWORD PTR __$ArrayPad$[ebp], eax
  00010	56		 push	 esi

; 286  : 	if (!CheckMotionThingIndex(dwMotionKey))

  00011	8b 75 0c	 mov	 esi, DWORD PTR _dwMotionKey$[ebp]
  00014	57		 push	 edi
  00015	56		 push	 esi
  00016	8b f9		 mov	 edi, ecx
  00018	e8 00 00 00 00	 call	 ?CheckMotionThingIndex@CGraphicThingInstance@@QAE_NK@Z ; CGraphicThingInstance::CheckMotionThingIndex
  0001d	84 c0		 test	 al, al
  0001f	75 26		 jne	 SHORT $LN2@PushMotion

; 287  : 	{
; 288  : 		Tracef(" Error - Not found want to using motion : %d\n", GET_MOTION_INDEX(dwMotionKey));

  00021	c1 ee 08	 shr	 esi, 8
  00024	0f b7 c6	 movzx	 eax, si
  00027	50		 push	 eax
  00028	68 00 00 00 00	 push	 OFFSET ??_C@_0CO@FPMNJLLG@?5Error?5?9?5Not?5found?5want?5to?5usin@
  0002d	e8 00 00 00 00	 call	 ?Tracef@@YAXPBDZZ	; Tracef
  00032	83 c4 08	 add	 esp, 8
  00035	5f		 pop	 edi

; 302  : }

  00036	5e		 pop	 esi
  00037	8b 4d fc	 mov	 ecx, DWORD PTR __$ArrayPad$[ebp]
  0003a	33 cd		 xor	 ecx, ebp
  0003c	e8 00 00 00 00	 call	 @__security_check_cookie@4
  00041	8b e5		 mov	 esp, ebp
  00043	5d		 pop	 ebp
  00044	c2 10 00	 ret	 16			; 00000010H
$LN2@PushMotion:

; 289  : 		return;
; 290  : 	}
; 291  : 
; 292  : 	TReservingMotionNode MotionNode;
; 293  : 
; 294  : 	MotionNode.iMotionType = iMotionType;
; 295  : 	MotionNode.dwMotionKey = dwMotionKey;
; 296  : 	MotionNode.fStartTime = GetLastMotionTime(fBlendTime);

  00047	f3 0f 10 45 10	 movss	 xmm0, DWORD PTR _fBlendTime$[ebp]
  0004c	8b 45 08	 mov	 eax, DWORD PTR _iMotionType$[ebp]
  0004f	51		 push	 ecx
  00050	8b cf		 mov	 ecx, edi
  00052	89 45 e4	 mov	 DWORD PTR _MotionNode$[ebp], eax
  00055	89 75 f8	 mov	 DWORD PTR _MotionNode$[ebp+20], esi
  00058	f3 0f 11 04 24	 movss	 DWORD PTR [esp], xmm0
  0005d	e8 00 00 00 00	 call	 ?GetLastMotionTime@CActorInstance@@IAEMM@Z ; CActorInstance::GetLastMotionTime

; 297  : 	MotionNode.fBlendTime = fBlendTime;

  00062	f3 0f 10 45 10	 movss	 xmm0, DWORD PTR _fBlendTime$[ebp]

; 299  : 	MotionNode.fDuration = GetMotionDuration(dwMotionKey);

  00067	8b cf		 mov	 ecx, edi
  00069	f3 0f 11 45 ec	 movss	 DWORD PTR _MotionNode$[ebp+8], xmm0
  0006e	f3 0f 10 45 14	 movss	 xmm0, DWORD PTR _fSpeedRatio$[ebp]
  00073	d9 5d e8	 fstp	 DWORD PTR _MotionNode$[ebp+4]
  00076	56		 push	 esi
  00077	f3 0f 11 45 f4	 movss	 DWORD PTR _MotionNode$[ebp+16], xmm0
  0007c	e8 00 00 00 00	 call	 ?GetMotionDuration@CActorInstance@@IAEMK@Z ; CActorInstance::GetMotionDuration
; File C:\Program Files\Microsoft Visual Studio\2022\Community\VC\Tools\MSVC\14.34.31933\include\deque

; 1149 :         if ((_Myoff() + _Mysize()) % _Block_size == 0 && _Mapsize() <= (_Mysize() + _Block_size) / _Block_size) {

  00081	8b 87 50 03 00
	00		 mov	 eax, DWORD PTR [edi+848]
; File C:\Users\flourine\Desktop\Xantios\client-src\Code\GameLib\ActorInstanceMotion.cpp

; 301  : 	m_MotionDeque.push_back(MotionNode);

  00087	8d b7 40 03 00
	00		 lea	 esi, DWORD PTR [edi+832]
; File C:\Program Files\Microsoft Visual Studio\2022\Community\VC\Tools\MSVC\14.34.31933\include\deque

; 1149 :         if ((_Myoff() + _Mysize()) % _Block_size == 0 && _Mapsize() <= (_Mysize() + _Block_size) / _Block_size) {

  0008d	40		 inc	 eax
; File C:\Users\flourine\Desktop\Xantios\client-src\Code\GameLib\ActorInstanceMotion.cpp

; 299  : 	MotionNode.fDuration = GetMotionDuration(dwMotionKey);

  0008e	d9 5d f0	 fstp	 DWORD PTR _MotionNode$[ebp+12]
; File C:\Program Files\Microsoft Visual Studio\2022\Community\VC\Tools\MSVC\14.34.31933\include\deque

; 1149 :         if ((_Myoff() + _Mysize()) % _Block_size == 0 && _Mapsize() <= (_Mysize() + _Block_size) / _Block_size) {

  00091	39 46 08	 cmp	 DWORD PTR [esi+8], eax
  00094	77 09		 ja	 SHORT $LN7@PushMotion

; 1150 :             _Growmap(1);

  00096	6a 01		 push	 1
  00098	8b ce		 mov	 ecx, esi
  0009a	e8 00 00 00 00	 call	 ?_Growmap@?$deque@USReservingMotionNode@CActorInstance@@V?$allocator@USReservingMotionNode@CActorInstance@@@std@@@std@@AAEXI@Z ; std::deque<CActorInstance::SReservingMotionNode,std::allocator<CActorInstance::SReservingMotionNode> >::_Growmap
$LN7@PushMotion:

; 1151 :         }
; 1152 :         _Myoff() &= _Mapsize() * _Block_size - 1;

  0009f	8b 46 08	 mov	 eax, DWORD PTR [esi+8]
  000a2	48		 dec	 eax
  000a3	21 46 0c	 and	 DWORD PTR [esi+12], eax

; 1153 :         size_type _Newoff = _Myoff() + _Mysize();

  000a6	8b 7e 10	 mov	 edi, DWORD PTR [esi+16]
  000a9	03 7e 0c	 add	 edi, DWORD PTR [esi+12]

; 564  :         return (_Off / _Block_size) & (_Mapsize - 1);

  000ac	23 f8		 and	 edi, eax

; 1155 :         if (_Map()[_Block] == nullptr) {

  000ae	8b 46 04	 mov	 eax, DWORD PTR [esi+4]
  000b1	83 3c b8 00	 cmp	 DWORD PTR [eax+edi*4], 0
  000b5	75 10		 jne	 SHORT $LN8@PushMotion
; File C:\Program Files\Microsoft Visual Studio\2022\Community\VC\Tools\MSVC\14.34.31933\include\xmemory

; 77   :         return ::operator new(_Bytes);

  000b7	6a 18		 push	 24			; 00000018H
  000b9	e8 00 00 00 00	 call	 ??2@YAPAXI@Z		; operator new
; File C:\Program Files\Microsoft Visual Studio\2022\Community\VC\Tools\MSVC\14.34.31933\include\deque

; 1156 :             _Map()[_Block] = _Getal().allocate(_Block_size);

  000be	8b 4e 04	 mov	 ecx, DWORD PTR [esi+4]
; File C:\Program Files\Microsoft Visual Studio\2022\Community\VC\Tools\MSVC\14.34.31933\include\xmemory

; 77   :         return ::operator new(_Bytes);

  000c1	83 c4 04	 add	 esp, 4
; File C:\Program Files\Microsoft Visual Studio\2022\Community\VC\Tools\MSVC\14.34.31933\include\deque

; 1156 :             _Map()[_Block] = _Getal().allocate(_Block_size);

  000c4	89 04 b9	 mov	 DWORD PTR [ecx+edi*4], eax
$LN8@PushMotion:

; 1157 :         }
; 1158 : 
; 1159 :         _Alty_traits::construct(

  000c7	8b 46 04	 mov	 eax, DWORD PTR [esi+4]
; File C:\Program Files\Microsoft Visual Studio\2022\Community\VC\Tools\MSVC\14.34.31933\include\xmemory

; 680  :             ::new (_Voidify_iter(_Ptr)) _Objty(_STD forward<_Types>(_Args)...);

  000ca	0f 10 45 e4	 movups	 xmm0, XMMWORD PTR _MotionNode$[ebp]
; File C:\Users\flourine\Desktop\Xantios\client-src\Code\GameLib\ActorInstanceMotion.cpp

; 302  : }

  000ce	8b 4d fc	 mov	 ecx, DWORD PTR __$ArrayPad$[ebp]
  000d1	33 cd		 xor	 ecx, ebp
; File C:\Program Files\Microsoft Visual Studio\2022\Community\VC\Tools\MSVC\14.34.31933\include\xmemory

; 680  :             ::new (_Voidify_iter(_Ptr)) _Objty(_STD forward<_Types>(_Args)...);

  000d3	8b 04 b8	 mov	 eax, DWORD PTR [eax+edi*4]
  000d6	5f		 pop	 edi
  000d7	0f 11 00	 movups	 XMMWORD PTR [eax], xmm0
  000da	f3 0f 7e 45 f4	 movq	 xmm0, QWORD PTR _MotionNode$[ebp+16]
  000df	66 0f d6 40 10	 movq	 QWORD PTR [eax+16], xmm0
; File C:\Program Files\Microsoft Visual Studio\2022\Community\VC\Tools\MSVC\14.34.31933\include\deque

; 1162 :         ++_Mysize();

  000e4	ff 46 10	 inc	 DWORD PTR [esi+16]
; File C:\Users\flourine\Desktop\Xantios\client-src\Code\GameLib\ActorInstanceMotion.cpp

; 302  : }

  000e7	5e		 pop	 esi
  000e8	e8 00 00 00 00	 call	 @__security_check_cookie@4
  000ed	8b e5		 mov	 esp, ebp
  000ef	5d		 pop	 ebp
  000f0	c2 10 00	 ret	 16			; 00000010H
?PushMotion@CActorInstance@@IAEXW4EMotionPushType@1@KMM@Z ENDP ; CActorInstance::PushMotion
_TEXT	ENDS
; Function compile flags: /Ogtp
; File C:\Users\flourine\Desktop\Xantios\client-src\Code\GameLib\ActorInstanceMotion.cpp
;	COMDAT ?InterceptMotion@CActorInstance@@IAE_NW4EMotionPushType@1@GMIM@Z
_TEXT	SEGMENT
_kSetMotData$ = -24					; size = 20
_dwMotionKey$ = -4					; size = 4
_fDuration$ = 8						; size = 4
_iMotionType$ = 8					; size = 4
_wMotion$ = 12						; size = 2
tv162 = 16						; size = 4
_fBlendTime$ = 16					; size = 4
_uSkill$ = 20						; size = 4
_fSpeedRatio$ = 24					; size = 4
?InterceptMotion@CActorInstance@@IAE_NW4EMotionPushType@1@GMIM@Z PROC ; CActorInstance::InterceptMotion, COMDAT
; _this$ = ecx

; 356  : {

  00000	55		 push	 ebp
  00001	8b ec		 mov	 ebp, esp
  00003	83 ec 18	 sub	 esp, 24			; 00000018H
  00006	56		 push	 esi
  00007	8b f1		 mov	 esi, ecx

; 357  : 	if (!m_pkCurRaceData)

  00009	8b 8e 64 04 00
	00		 mov	 ecx, DWORD PTR [esi+1124]
  0000f	85 c9		 test	 ecx, ecx
  00011	75 2e		 jne	 SHORT $LN2@InterceptM

; 358  : 	{
; 359  : 		Tracef("CActorInstance::InterceptMotion(iMotionType=%d, wMotion=%d, fBlendTime=%f) - m_pkCurRaceData=NULL", iMotionType, wMotion, fBlendTime);

  00013	f3 0f 10 45 10	 movss	 xmm0, DWORD PTR _fBlendTime$[ebp]
  00018	83 ec 08	 sub	 esp, 8
  0001b	0f b7 45 0c	 movzx	 eax, WORD PTR _wMotion$[ebp]
  0001f	0f 5a c0	 cvtps2pd xmm0, xmm0
  00022	f2 0f 11 04 24	 movsd	 QWORD PTR [esp], xmm0
  00027	50		 push	 eax
  00028	ff 75 08	 push	 DWORD PTR _iMotionType$[ebp]
  0002b	68 00 00 00 00	 push	 OFFSET ??_C@_0GC@LNLDMJJ@CActorInstance?3?3InterceptMotion@
  00030	e8 00 00 00 00	 call	 ?Tracef@@YAXPBDZZ	; Tracef
  00035	83 c4 14	 add	 esp, 20			; 00000014H

; 360  : 		return false;

  00038	32 c0		 xor	 al, al
  0003a	5e		 pop	 esi

; 420  : }

  0003b	8b e5		 mov	 esp, ebp
  0003d	5d		 pop	 ebp
  0003e	c2 14 00	 ret	 20			; 00000014H
$LN2@InterceptM:
  00041	57		 push	 edi

; 361  : 	}
; 362  : 
; 363  : 	MOTION_KEY dwMotionKey;
; 364  : 	if (!m_pkCurRaceData->GetMotionKey(m_wcurMotionMode, wMotion, &dwMotionKey))

  00042	8b 7d 0c	 mov	 edi, DWORD PTR _wMotion$[ebp]
  00045	8d 45 fc	 lea	 eax, DWORD PTR _dwMotionKey$[ebp]
  00048	50		 push	 eax
  00049	0f b7 86 78 03
	00 00		 movzx	 eax, WORD PTR [esi+888]
  00050	57		 push	 edi
  00051	50		 push	 eax
  00052	e8 00 00 00 00	 call	 ?GetMotionKey@CRaceData@@QAEHGGPAK@Z ; CRaceData::GetMotionKey
  00057	85 c0		 test	 eax, eax
  00059	75 38		 jne	 SHORT $LN3@InterceptM

; 365  : 	{
; 366  : 		Tracenf("CActorInstance::InterceptMotion(iLoopType=%d, wMotionMode=%d, wMotion=%d, fBlendTime=%f) - GetMotionKey(m_wcurMotionMode=%d, wMotion=%d, &MotionKey) ERROR",

  0005b	0f b7 8e 78 03
	00 00		 movzx	 ecx, WORD PTR [esi+888]
  00062	f3 0f 10 45 10	 movss	 xmm0, DWORD PTR _fBlendTime$[ebp]
  00067	0f b7 c7	 movzx	 eax, di
  0006a	50		 push	 eax
  0006b	51		 push	 ecx
  0006c	0f 5a c0	 cvtps2pd xmm0, xmm0
  0006f	83 ec 08	 sub	 esp, 8
  00072	f2 0f 11 04 24	 movsd	 QWORD PTR [esp], xmm0
  00077	50		 push	 eax
  00078	51		 push	 ecx
  00079	ff 75 08	 push	 DWORD PTR _iMotionType$[ebp]
  0007c	68 00 00 00 00	 push	 OFFSET ??_C@_0JL@GEIDCHAJ@CActorInstance?3?3InterceptMotion@
  00081	e8 00 00 00 00	 call	 ?Tracenf@@YAXPBDZZ	; Tracenf
  00086	83 c4 20	 add	 esp, 32			; 00000020H

; 367  : 				iMotionType, m_wcurMotionMode, wMotion, fBlendTime, m_wcurMotionMode, wMotion);
; 368  : 		return false;

  00089	32 c0		 xor	 al, al
  0008b	5f		 pop	 edi
  0008c	5e		 pop	 esi

; 420  : }

  0008d	8b e5		 mov	 esp, ebp
  0008f	5d		 pop	 ebp
  00090	c2 14 00	 ret	 20			; 00000014H
$LN3@InterceptM:
  00093	53		 push	 ebx

; 369  : 	}
; 370  : 
; 371  : 	__ClearMotion();

  00094	8b ce		 mov	 ecx, esi
  00096	e8 00 00 00 00	 call	 ?__ClearMotion@CActorInstance@@IAEXXZ ; CActorInstance::__ClearMotion

; 372  : 
; 373  : 	int iLoopCount;
; 374  : 	if (MOTION_TYPE_ONCE == iMotionType)
; 375  : 	{
; 376  : 		iLoopCount = 1;
; 377  : 	}
; 378  : 	else
; 379  : 	{
; 380  : 		iLoopCount = 0;
; 381  : 	}
; 382  : 
; 383  : 	SSetMotionData kSetMotData;
; 384  : 	kSetMotData.dwMotKey = dwMotionKey;

  0009b	8b 45 fc	 mov	 eax, DWORD PTR _dwMotionKey$[ebp]

; 385  : 	kSetMotData.fBlendTime = fBlendTime;
; 386  : 	kSetMotData.iLoopCount = iLoopCount;
; 387  : 	kSetMotData.fSpeedRatio = fSpeedRatio;
; 388  : 	kSetMotData.uSkill = uSkill;
; 389  : 
; 390  : 	DWORD dwRealMotionKey = __SetMotion(kSetMotData);

  0009e	8b ce		 mov	 ecx, esi
  000a0	8b 5d 08	 mov	 ebx, DWORD PTR _iMotionType$[ebp]
  000a3	f3 0f 10 45 10	 movss	 xmm0, DWORD PTR _fBlendTime$[ebp]
  000a8	89 45 e8	 mov	 DWORD PTR _kSetMotData$[ebp], eax
  000ab	33 c0		 xor	 eax, eax
  000ad	83 fb 01	 cmp	 ebx, 1
  000b0	f3 0f 11 45 f0	 movss	 DWORD PTR _kSetMotData$[ebp+8], xmm0
  000b5	f3 0f 10 45 18	 movss	 xmm0, DWORD PTR _fSpeedRatio$[ebp]
  000ba	0f 94 c0	 sete	 al
  000bd	f3 0f 11 45 ec	 movss	 DWORD PTR _kSetMotData$[ebp+4], xmm0
  000c2	89 45 f4	 mov	 DWORD PTR _kSetMotData$[ebp+12], eax
  000c5	8b 45 14	 mov	 eax, DWORD PTR _uSkill$[ebp]
  000c8	89 45 f8	 mov	 DWORD PTR _kSetMotData$[ebp+16], eax
  000cb	8d 45 e8	 lea	 eax, DWORD PTR _kSetMotData$[ebp]
  000ce	6a 00		 push	 0
  000d0	50		 push	 eax
  000d1	e8 00 00 00 00	 call	 ?__SetMotion@CActorInstance@@IAEKABUSSetMotionData@1@K@Z ; CActorInstance::__SetMotion
  000d6	8b f8		 mov	 edi, eax

; 391  : 
; 392  : 	if (0 == dwRealMotionKey)

  000d8	85 ff		 test	 edi, edi
  000da	75 0b		 jne	 SHORT $LN6@InterceptM

; 393  : 	{
; 394  : 		return false;

  000dc	5b		 pop	 ebx
  000dd	5f		 pop	 edi
  000de	32 c0		 xor	 al, al
  000e0	5e		 pop	 esi

; 420  : }

  000e1	8b e5		 mov	 esp, ebp
  000e3	5d		 pop	 ebp
  000e4	c2 14 00	 ret	 20			; 00000014H
$LN6@InterceptM:

; 395  : 	}
; 396  : 
; 397  : 	if (m_pFlyEventHandler)

  000e7	83 be f8 02 00
	00 00		 cmp	 DWORD PTR [esi+760], 0
  000ee	74 16		 je	 SHORT $LN8@InterceptM

; 398  : 	{
; 399  : 		if (__IsNeedFlyTargetMotion())

  000f0	8b ce		 mov	 ecx, esi
  000f2	e8 00 00 00 00	 call	 ?__IsNeedFlyTargetMotion@CActorInstance@@IAE_NXZ ; CActorInstance::__IsNeedFlyTargetMotion
  000f7	84 c0		 test	 al, al
  000f9	74 0b		 je	 SHORT $LN8@InterceptM

; 400  : 		{
; 401  : 			m_pFlyEventHandler->OnSetFlyTarget();

  000fb	8b 8e f8 02 00
	00		 mov	 ecx, DWORD PTR [esi+760]
  00101	8b 01		 mov	 eax, DWORD PTR [ecx]
  00103	ff 50 04	 call	 DWORD PTR [eax+4]
$LN8@InterceptM:

; 402  : 		}
; 403  : 	}
; 404  : 
; 405  : 	assert(NULL != m_pkCurRaceMotionData);
; 406  : 
; 407  : 	// float fDuration=GetMotionDuration(dwMotionKey)/fSpeedRatio;
; 408  : 	float fDuration = GetMotionDuration(dwRealMotionKey) / fSpeedRatio;

  00106	57		 push	 edi
  00107	8b ce		 mov	 ecx, esi
  00109	e8 00 00 00 00	 call	 ?GetMotionDuration@CActorInstance@@IAEMK@Z ; CActorInstance::GetMotionDuration
  0010e	d8 75 18	 fdiv	 DWORD PTR _fSpeedRatio$[ebp]

; 409  : 
; 410  : 	m_kCurMotNode.iMotionType = iMotionType;
; 411  : 	m_kCurMotNode.fStartTime = GetLocalTime();

  00111	8b ce		 mov	 ecx, esi
  00113	89 9e 54 03 00
	00		 mov	 DWORD PTR [esi+852], ebx
  00119	d9 5d 08	 fstp	 DWORD PTR _fDuration$[ebp]
  0011c	e8 00 00 00 00	 call	 ?GetLocalTime@CGraphicThingInstance@@QAEMXZ ; CGraphicThingInstance::GetLocalTime

; 412  : 	m_kCurMotNode.fEndTime = m_kCurMotNode.fStartTime + fDuration;

  00121	f3 0f 10 45 08	 movss	 xmm0, DWORD PTR _fDuration$[ebp]
  00126	d9 5d 10	 fstp	 DWORD PTR tv162[ebp]
  00129	f3 0f 10 4d 10	 movss	 xmm1, DWORD PTR tv162[ebp]
  0012e	f3 0f 11 8e 64
	03 00 00	 movss	 DWORD PTR [esi+868], xmm1
  00136	f3 0f 58 c8	 addss	 xmm1, xmm0

; 413  : 	m_kCurMotNode.dwMotionKey = dwRealMotionKey;

  0013a	89 be 58 03 00
	00		 mov	 DWORD PTR [esi+856], edi

; 414  : 	m_kCurMotNode.dwcurFrame = 0;

  00140	c7 86 5c 03 00
	00 00 00 00 00	 mov	 DWORD PTR [esi+860], 0
  0014a	f3 0f 11 8e 68
	03 00 00	 movss	 DWORD PTR [esi+872], xmm1

; 415  : 	m_kCurMotNode.dwFrameCount = fDuration / (1.0f / g_fGameFPS);

  00152	f3 0f 10 0d 00
	00 00 00	 movss	 xmm1, DWORD PTR __real@3f800000
  0015a	f3 0f 5e 0d 00
	00 00 00	 divss	 xmm1, DWORD PTR ?g_fGameFPS@@3MA
  00162	f3 0f 5e c1	 divss	 xmm0, xmm1
  00166	e8 00 00 00 00	 call	 __ftol3

; 416  : 	m_kCurMotNode.uSkill = uSkill;
; 417  : 	m_kCurMotNode.fSpeedRatio = fSpeedRatio;

  0016b	f3 0f 10 45 18	 movss	 xmm0, DWORD PTR _fSpeedRatio$[ebp]
  00170	89 86 60 03 00
	00		 mov	 DWORD PTR [esi+864], eax
  00176	8b 45 14	 mov	 eax, DWORD PTR _uSkill$[ebp]
  00179	5b		 pop	 ebx
  0017a	89 86 74 03 00
	00		 mov	 DWORD PTR [esi+884], eax

; 418  : 
; 419  : 	return true;

  00180	b0 01		 mov	 al, 1
  00182	5f		 pop	 edi
  00183	f3 0f 11 86 6c
	03 00 00	 movss	 DWORD PTR [esi+876], xmm0
  0018b	5e		 pop	 esi

; 420  : }

  0018c	8b e5		 mov	 esp, ebp
  0018e	5d		 pop	 ebp
  0018f	c2 14 00	 ret	 20			; 00000014H
?InterceptMotion@CActorInstance@@IAE_NW4EMotionPushType@1@GMIM@Z ENDP ; CActorInstance::InterceptMotion
_TEXT	ENDS
; Function compile flags: /Ogtp
; File C:\Users\flourine\Desktop\Xantios\client-src\Code\GameLib\ActorInstanceMotion.cpp
;	COMDAT ?GetMotionDuration@CActorInstance@@IAEMK@Z
_TEXT	SEGMENT
_pMotion$ = -4						; size = 4
_dwMotionKey$ = 8					; size = 4
?GetMotionDuration@CActorInstance@@IAEMK@Z PROC		; CActorInstance::GetMotionDuration, COMDAT
; _this$ = ecx

; 615  : {

  00000	55		 push	 ebp
  00001	8b ec		 mov	 ebp, esp
  00003	51		 push	 ecx
  00004	56		 push	 esi

; 616  : 	CGraphicThing * pMotion;
; 617  : 
; 618  : 	if (!GetMotionThingPointer(dwMotionKey, &pMotion))

  00005	8b 75 08	 mov	 esi, DWORD PTR _dwMotionKey$[ebp]
  00008	8d 45 fc	 lea	 eax, DWORD PTR _pMotion$[ebp]
  0000b	50		 push	 eax
  0000c	56		 push	 esi
  0000d	e8 00 00 00 00	 call	 ?GetMotionThingPointer@CGraphicThingInstance@@QAE_NKPAPAVCGraphicThing@@@Z ; CGraphicThingInstance::GetMotionThingPointer
  00012	84 c0		 test	 al, al
  00014	75 23		 jne	 SHORT $LN2@GetMotionD

; 619  : 	{
; 620  : 		Tracenf("CActorInstance::GetMotionDuration - Cannot get motion: %d / %d",

  00016	8b c6		 mov	 eax, esi
  00018	c1 ee 18	 shr	 esi, 24			; 00000018H
  0001b	c1 e8 08	 shr	 eax, 8
  0001e	0f b7 c0	 movzx	 eax, ax
  00021	50		 push	 eax
  00022	56		 push	 esi
  00023	68 00 00 00 00	 push	 OFFSET ??_C@_0DP@CBIMEEGJ@CActorInstance?3?3GetMotionDurati@
  00028	e8 00 00 00 00	 call	 ?Tracenf@@YAXPBDZZ	; Tracenf
  0002d	83 c4 0c	 add	 esp, 12			; 0000000cH
$LN5@GetMotionD:

; 636  : }

  00030	d9 ee		 fldz
  00032	5e		 pop	 esi
  00033	8b e5		 mov	 esp, ebp
  00035	5d		 pop	 ebp
  00036	c2 04 00	 ret	 4
$LN2@GetMotionD:

; 621  : 				GET_MOTION_MODE(dwMotionKey), GET_MOTION_INDEX(dwMotionKey));
; 622  : 		return 0.0f;
; 623  : 	}
; 624  : 
; 625  : 	if (0 == pMotion->GetMotionCount())

  00039	8b 4d fc	 mov	 ecx, DWORD PTR _pMotion$[ebp]
  0003c	e8 00 00 00 00	 call	 ?GetMotionCount@CGraphicThing@@QBEHXZ ; CGraphicThing::GetMotionCount
  00041	85 c0		 test	 eax, eax
  00043	74 eb		 je	 SHORT $LN5@GetMotionD

; 626  : 	{
; 627  : #ifdef _DEBUG
; 628  : 		Tracenf("CActorInstance::GetMotionDuration - Invalid Motion Key : %d, %d, %d",
; 629  : 				GET_MOTION_MODE(dwMotionKey), GET_MOTION_INDEX(dwMotionKey), GET_MOTION_SUB_INDEX(dwMotionKey));
; 630  : #endif
; 631  : 		return 0.0f;
; 632  : 	}
; 633  : 
; 634  : 	CGrannyMotion * pGrannyMotion = pMotion->GetMotionPointer(0);

  00045	8b 4d fc	 mov	 ecx, DWORD PTR _pMotion$[ebp]
  00048	6a 00		 push	 0
  0004a	e8 00 00 00 00	 call	 ?GetMotionPointer@CGraphicThing@@QAEPAVCGrannyMotion@@H@Z ; CGraphicThing::GetMotionPointer

; 635  : 	return pGrannyMotion->GetDuration();

  0004f	8b c8		 mov	 ecx, eax
  00051	e8 00 00 00 00	 call	 ?GetDuration@CGrannyMotion@@QBEMXZ ; CGrannyMotion::GetDuration
  00056	5e		 pop	 esi

; 636  : }

  00057	8b e5		 mov	 esp, ebp
  00059	5d		 pop	 ebp
  0005a	c2 04 00	 ret	 4
?GetMotionDuration@CActorInstance@@IAEMK@Z ENDP		; CActorInstance::GetMotionDuration
_TEXT	ENDS
; Function compile flags: /Ogtp
; File C:\Users\flourine\Desktop\Xantios\client-src\Code\GameLib\ActorInstanceMotion.cpp
; File C:\Program Files\Microsoft Visual Studio\2022\Community\VC\Tools\MSVC\14.34.31933\include\deque
; File C:\Users\flourine\Desktop\Xantios\client-src\Code\GameLib\ActorInstanceMotion.cpp
; File C:\Program Files\Microsoft Visual Studio\2022\Community\VC\Tools\MSVC\14.34.31933\include\deque
; File C:\Users\flourine\Desktop\Xantios\client-src\Code\GameLib\ActorInstanceMotion.cpp
;	COMDAT ?GetLastMotionTime@CActorInstance@@IAEMM@Z
_TEXT	SEGMENT
_fBlendTime$ = 8					; size = 4
?GetLastMotionTime@CActorInstance@@IAEMM@Z PROC		; CActorInstance::GetLastMotionTime, COMDAT
; _this$ = ecx

; 598  : {

  00000	55		 push	 ebp
  00001	8b ec		 mov	 ebp, esp
  00003	8b d1		 mov	 edx, ecx
  00005	83 ec 08	 sub	 esp, 8
; File C:\Program Files\Microsoft Visual Studio\2022\Community\VC\Tools\MSVC\14.34.31933\include\deque

; 1045 :         return _Mysize() == 0;

  00008	8b 8a 50 03 00
	00		 mov	 ecx, DWORD PTR [edx+848]
  0000e	85 c9		 test	 ecx, ecx
; File C:\Users\flourine\Desktop\Xantios\client-src\Code\GameLib\ActorInstanceMotion.cpp

; 599  : 	if (m_MotionDeque.empty())

  00010	75 25		 jne	 SHORT $LN2@GetLastMot

; 600  : 	{
; 601  : 		if (MOTION_TYPE_ONCE == m_kCurMotNode.iMotionType)

  00012	83 ba 54 03 00
	00 01		 cmp	 DWORD PTR [edx+852], 1
  00019	75 0f		 jne	 SHORT $LN3@GetLastMot

; 602  : 		{
; 603  : 			return (m_kCurMotNode.fEndTime - fBlendTime);

  0001b	d9 82 68 03 00
	00		 fld	 DWORD PTR [edx+872]

; 612  : }

  00021	d8 65 08	 fsub	 DWORD PTR _fBlendTime$[ebp]
  00024	8b e5		 mov	 esp, ebp
  00026	5d		 pop	 ebp
  00027	c2 04 00	 ret	 4
$LN3@GetLastMot:

; 604  : 		}
; 605  : 
; 606  : 		return GetLocalTime();

  0002a	8b ca		 mov	 ecx, edx
  0002c	e8 00 00 00 00	 call	 ?GetLocalTime@CGraphicThingInstance@@QAEMXZ ; CGraphicThingInstance::GetLocalTime

; 612  : }

  00031	8b e5		 mov	 esp, ebp
  00033	5d		 pop	 ebp
  00034	c2 04 00	 ret	 4
$LN2@GetLastMot:
; File C:\Program Files\Microsoft Visual Studio\2022\Community\VC\Tools\MSVC\14.34.31933\include\deque

; 43   :         : _Mycont(static_cast<const _Mydeque*>(_Pdeque)), _Myoff(_Off) {}

  00037	8b 82 4c 03 00
	00		 mov	 eax, DWORD PTR [edx+844]

; 564  :         return (_Off / _Block_size) & (_Mapsize - 1);

  0003d	48		 dec	 eax
  0003e	03 c8		 add	 ecx, eax
  00040	8b 82 48 03 00
	00		 mov	 eax, DWORD PTR [edx+840]
  00046	48		 dec	 eax
  00047	23 c8		 and	 ecx, eax

; 1081 :         return *(_Unchecked_begin() + static_cast<difference_type>(_Pos));

  00049	8b 82 44 03 00
	00		 mov	 eax, DWORD PTR [edx+836]
  0004f	8b 04 88	 mov	 eax, DWORD PTR [eax+ecx*4]
; File C:\Users\flourine\Desktop\Xantios\client-src\Code\GameLib\ActorInstanceMotion.cpp

; 611  : 	return rMotionNode.fStartTime + rMotionNode.fDuration - fBlendTime;

  00052	d9 40 0c	 fld	 DWORD PTR [eax+12]
  00055	d8 40 04	 fadd	 DWORD PTR [eax+4]

; 612  : }

  00058	d8 65 08	 fsub	 DWORD PTR _fBlendTime$[ebp]
  0005b	8b e5		 mov	 esp, ebp
  0005d	5d		 pop	 ebp
  0005e	c2 04 00	 ret	 4
?GetLastMotionTime@CActorInstance@@IAEMM@Z ENDP		; CActorInstance::GetLastMotionTime
_TEXT	ENDS
; Function compile flags: /Ogtp
; File C:\Users\flourine\Desktop\Xantios\client-src\Code\GameLib\ActorInstanceMotion.cpp
; File C:\Program Files\Microsoft Visual Studio\2022\Community\VC\Tools\MSVC\14.34.31933\include\vector
; File C:\Users\flourine\Desktop\Xantios\client-src\Code\GameLib\ActorInstanceMotion.cpp
; File C:\Program Files\Microsoft Visual Studio\2022\Community\VC\Tools\MSVC\14.34.31933\include\vector
; File C:\Users\flourine\Desktop\Xantios\client-src\Code\GameLib\ActorInstanceMotion.cpp
; File C:\Program Files\Microsoft Visual Studio\2022\Community\VC\Tools\MSVC\14.34.31933\include\vector
; File C:\Users\flourine\Desktop\Xantios\client-src\Code\GameLib\ActorInstanceMotion.cpp
; File C:\Program Files\Microsoft Visual Studio\2022\Community\VC\Tools\MSVC\14.34.31933\include\vector
; File C:\Users\flourine\Desktop\Xantios\client-src\Code\GameLib\ActorInstanceMotion.cpp
; File C:\Program Files\Microsoft Visual Studio\2022\Community\VC\Tools\MSVC\14.34.31933\include\vector
; File C:\Users\flourine\Desktop\Xantios\client-src\Code\GameLib\ActorInstanceMotion.cpp
;	COMDAT ?GetRandomMotionKey@CActorInstance@@IAEKK@Z
_TEXT	SEGMENT
_wIndex$1$ = -12					; size = 4
tv359 = -8						; size = 4
_c_pMotionVector$ = -4					; size = 4
_dwMotionKey$ = 8					; size = 4
?GetRandomMotionKey@CActorInstance@@IAEKK@Z PROC	; CActorInstance::GetRandomMotionKey, COMDAT
; _this$ = ecx

; 639  : {

  00000	55		 push	 ebp
  00001	8b ec		 mov	 ebp, esp
  00003	83 ec 0c	 sub	 esp, 12			; 0000000cH

; 640  : 	WORD wMode = GET_MOTION_MODE(dwMotionKey);

  00006	8b 45 08	 mov	 eax, DWORD PTR _dwMotionKey$[ebp]
  00009	8b d0		 mov	 edx, eax

; 641  : 	WORD wIndex = GET_MOTION_INDEX(dwMotionKey);
; 642  : 
; 643  : 	const CRaceData::TMotionVector * c_pMotionVector;
; 644  : 	if (m_pkCurRaceData->GetMotionVectorPointer(wMode, wIndex, &c_pMotionVector))

  0000b	8b 89 64 04 00
	00		 mov	 ecx, DWORD PTR [ecx+1124]
  00011	53		 push	 ebx
  00012	56		 push	 esi
  00013	57		 push	 edi
  00014	c1 e8 08	 shr	 eax, 8
  00017	8d 75 fc	 lea	 esi, DWORD PTR _c_pMotionVector$[ebp]
  0001a	0f b7 c0	 movzx	 eax, ax
  0001d	56		 push	 esi
  0001e	c1 ea 18	 shr	 edx, 24			; 00000018H
  00021	50		 push	 eax
  00022	52		 push	 edx
  00023	89 55 f8	 mov	 DWORD PTR tv359[ebp], edx
  00026	89 45 f4	 mov	 DWORD PTR _wIndex$1$[ebp], eax
  00029	e8 00 00 00 00	 call	 ?GetMotionVectorPointer@CRaceData@@QAEHGGPAPBV?$vector@USMotion@CRaceData@@V?$allocator@USMotion@CRaceData@@@std@@@std@@@Z ; CRaceData::GetMotionVectorPointer
  0002e	85 c0		 test	 eax, eax
  00030	74 5e		 je	 SHORT $LN3@GetRandomM
; File C:\Program Files\Microsoft Visual Studio\2022\Community\VC\Tools\MSVC\14.34.31933\include\vector

; 1932 :         return static_cast<size_type>(_My_data._Mylast - _My_data._Myfirst);

  00032	8b 45 fc	 mov	 eax, DWORD PTR _c_pMotionVector$[ebp]
  00035	8b 48 04	 mov	 ecx, DWORD PTR [eax+4]
  00038	2b 08		 sub	 ecx, DWORD PTR [eax]
  0003a	b8 ab aa aa 2a	 mov	 eax, 715827883		; 2aaaaaabH
  0003f	f7 e9		 imul	 ecx
  00041	d1 fa		 sar	 edx, 1
  00043	8b c2		 mov	 eax, edx
  00045	c1 e8 1f	 shr	 eax, 31			; 0000001fH
  00048	03 c2		 add	 eax, edx
; File C:\Users\flourine\Desktop\Xantios\client-src\Code\GameLib\ActorInstanceMotion.cpp

; 645  : 		if (c_pMotionVector->size() > 1)

  0004a	83 f8 01	 cmp	 eax, 1
  0004d	76 41		 jbe	 SHORT $LN3@GetRandomM

; 646  : 		{
; 647  : 			int iPercentage = random() % 100;

  0004f	e8 00 00 00 00	 call	 ?random@@YAKXZ		; random
  00054	33 d2		 xor	 edx, edx
  00056	b9 64 00 00 00	 mov	 ecx, 100		; 00000064H
  0005b	f7 f1		 div	 ecx
; File C:\Program Files\Microsoft Visual Studio\2022\Community\VC\Tools\MSVC\14.34.31933\include\vector

; 1932 :         return static_cast<size_type>(_My_data._Mylast - _My_data._Myfirst);

  0005d	8b 45 fc	 mov	 eax, DWORD PTR _c_pMotionVector$[ebp]
; File C:\Users\flourine\Desktop\Xantios\client-src\Code\GameLib\ActorInstanceMotion.cpp

; 648  : 			for (DWORD i = 0; i < c_pMotionVector->size(); ++i)

  00060	33 c9		 xor	 ecx, ecx
  00062	8b da		 mov	 ebx, edx
; File C:\Program Files\Microsoft Visual Studio\2022\Community\VC\Tools\MSVC\14.34.31933\include\vector

; 1932 :         return static_cast<size_type>(_My_data._Mylast - _My_data._Myfirst);

  00064	8b 70 04	 mov	 esi, DWORD PTR [eax+4]
  00067	8b 38		 mov	 edi, DWORD PTR [eax]
  00069	2b f7		 sub	 esi, edi
  0006b	b8 ab aa aa 2a	 mov	 eax, 715827883		; 2aaaaaabH
  00070	f7 ee		 imul	 esi
  00072	d1 fa		 sar	 edx, 1
  00074	8b f2		 mov	 esi, edx
  00076	c1 ee 1f	 shr	 esi, 31			; 0000001fH
  00079	03 f2		 add	 esi, edx
; File C:\Users\flourine\Desktop\Xantios\client-src\Code\GameLib\ActorInstanceMotion.cpp

; 648  : 			for (DWORD i = 0; i < c_pMotionVector->size(); ++i)

  0007b	74 13		 je	 SHORT $LN3@GetRandomM
; File C:\Program Files\Microsoft Visual Studio\2022\Community\VC\Tools\MSVC\14.34.31933\include\vector

; 1976 :         if (static_cast<size_type>(_My_data._Mylast - _My_data._Myfirst) <= _Pos) {

  0007d	3b f1		 cmp	 esi, ecx
  0007f	76 3d		 jbe	 SHORT $LN18@GetRandomM
$LN25@GetRandomM:
; File C:\Users\flourine\Desktop\Xantios\client-src\Code\GameLib\ActorInstanceMotion.cpp

; 651  : 				iPercentage -= c_rMotion.byPercentage;

  00081	0f b6 07	 movzx	 eax, BYTE PTR [edi]
  00084	2b d8		 sub	 ebx, eax

; 652  : 
; 653  : 				if (iPercentage < 0)

  00086	78 14		 js	 SHORT $LN19@GetRandomM

; 648  : 			for (DWORD i = 0; i < c_pMotionVector->size(); ++i)

  00088	41		 inc	 ecx
  00089	83 c7 0c	 add	 edi, 12			; 0000000cH
  0008c	3b f1		 cmp	 esi, ecx
  0008e	77 f1		 ja	 SHORT $LN25@GetRandomM
$LN3@GetRandomM:

; 656  : 
; 657  : 					// Temporary
; 658  : 					// m_kCurMotNode.fEndTime = m_kCurMotNode.fStartTime + GetMotionDuration(dwMotionKey);
; 659  : 					// Temporary
; 660  : 
; 661  : 					return dwMotionKey;
; 662  : 				}
; 663  : 			}
; 664  : 		}
; 665  : 
; 666  : 	return dwMotionKey;

  00090	8b 45 08	 mov	 eax, DWORD PTR _dwMotionKey$[ebp]
  00093	5f		 pop	 edi

; 667  : }

  00094	5e		 pop	 esi
  00095	5b		 pop	 ebx
  00096	8b e5		 mov	 esp, ebp
  00098	5d		 pop	 ebp
  00099	c2 04 00	 ret	 4
$LN19@GetRandomM:

; 654  : 				{
; 655  : 					dwMotionKey = MAKE_RANDOM_MOTION_KEY(wMode, wIndex, i);

  0009c	8b 45 f8	 mov	 eax, DWORD PTR tv359[ebp]
  0009f	0f b7 d0	 movzx	 edx, ax
  000a2	8b 45 f4	 mov	 eax, DWORD PTR _wIndex$1$[ebp]
  000a5	c1 e2 10	 shl	 edx, 16			; 00000010H
  000a8	0f b7 c0	 movzx	 eax, ax
  000ab	0b d0		 or	 edx, eax
  000ad	0f b6 c1	 movzx	 eax, cl
  000b0	5f		 pop	 edi
  000b1	c1 e2 08	 shl	 edx, 8

; 667  : }

  000b4	5e		 pop	 esi
  000b5	0b c2		 or	 eax, edx
  000b7	5b		 pop	 ebx
  000b8	8b e5		 mov	 esp, ebp
  000ba	5d		 pop	 ebp
  000bb	c2 04 00	 ret	 4
$LN18@GetRandomM:
; File C:\Program Files\Microsoft Visual Studio\2022\Community\VC\Tools\MSVC\14.34.31933\include\vector

; 1977 :             _Xrange();

  000be	e8 00 00 00 00	 call	 ?_Xrange@?$vector@USMotion@CRaceData@@V?$allocator@USMotion@CRaceData@@@std@@@std@@CAXXZ ; std::vector<CRaceData::SMotion,std::allocator<CRaceData::SMotion> >::_Xrange
$LN23@GetRandomM:
  000c3	cc		 int	 3
?GetRandomMotionKey@CActorInstance@@IAEKK@Z ENDP	; CActorInstance::GetRandomMotionKey
_TEXT	ENDS
; Function compile flags: /Ogtp
; File C:\Users\flourine\Desktop\Xantios\client-src\Code\GameLib\ActorInstanceMotion.cpp
; File C:\Program Files\Microsoft Visual Studio\2022\Community\VC\Tools\MSVC\14.34.31933\include\deque
; File C:\Users\flourine\Desktop\Xantios\client-src\Code\GameLib\ActorInstanceMotion.cpp
; File C:\Program Files\Microsoft Visual Studio\2022\Community\VC\Tools\MSVC\14.34.31933\include\deque
; File C:\Users\flourine\Desktop\Xantios\client-src\Code\GameLib\ActorInstanceMotion.cpp
; File C:\Program Files\Microsoft Visual Studio\2022\Community\VC\Tools\MSVC\14.34.31933\include\deque
; File C:\Users\flourine\Desktop\Xantios\client-src\Code\GameLib\ActorInstanceMotion.cpp
; File C:\Program Files\Microsoft Visual Studio\2022\Community\VC\Tools\MSVC\14.34.31933\include\deque
; File C:\Users\flourine\Desktop\Xantios\client-src\Code\GameLib\ActorInstanceMotion.cpp
; File C:\Program Files\Microsoft Visual Studio\2022\Community\VC\Tools\MSVC\14.34.31933\include\deque
; File C:\Program Files\Microsoft Visual Studio\2022\Community\VC\Tools\MSVC\14.34.31933\include\xmemory
; File C:\Program Files\Microsoft Visual Studio\2022\Community\VC\Tools\MSVC\14.34.31933\include\deque
; File C:\Program Files\Microsoft Visual Studio\2022\Community\VC\Tools\MSVC\14.34.31933\include\xmemory
; File C:\Program Files\Microsoft Visual Studio\2022\Community\VC\Tools\MSVC\14.34.31933\include\deque
; File C:\Users\flourine\Desktop\Xantios\client-src\Code\GameLib\ActorInstanceMotion.cpp
; File C:\Program Files\Microsoft Visual Studio\2022\Community\VC\Tools\MSVC\14.34.31933\include\deque
; File C:\Users\flourine\Desktop\Xantios\client-src\Code\GameLib\ActorInstanceMotion.cpp
;	COMDAT ?CurrentMotionProcess@CActorInstance@@IAEXXZ
_TEXT	SEGMENT
tv667 = -12						; size = 4
tv662 = -12						; size = 4
tv642 = -12						; size = 4
tv581 = -12						; size = 4
tv647 = -8						; size = 4
tv563 = -8						; size = 4
_fCurrentTime$ = -4					; size = 4
?CurrentMotionProcess@CActorInstance@@IAEXXZ PROC	; CActorInstance::CurrentMotionProcess, COMDAT
; _this$ = ecx

; 164  : {

  00000	55		 push	 ebp
  00001	8b ec		 mov	 ebp, esp
  00003	83 ec 0c	 sub	 esp, 12			; 0000000cH
  00006	56		 push	 esi
  00007	8b f1		 mov	 esi, ecx

; 165  : 	if (MOTION_TYPE_LOOP == m_kCurMotNode.iMotionType)

  00009	83 be 54 03 00
	00 02		 cmp	 DWORD PTR [esi+852], 2
  00010	75 18		 jne	 SHORT $LN5@CurrentMot

; 166  : 		if (m_kCurMotNode.dwcurFrame >= m_kCurMotNode.dwFrameCount)

  00012	8b 86 5c 03 00
	00		 mov	 eax, DWORD PTR [esi+860]
  00018	3b 86 60 03 00
	00		 cmp	 eax, DWORD PTR [esi+864]
  0001e	72 0a		 jb	 SHORT $LN5@CurrentMot

; 167  : 		{
; 168  : 			m_kCurMotNode.dwcurFrame = 0;

  00020	c7 86 5c 03 00
	00 00 00 00 00	 mov	 DWORD PTR [esi+860], 0
$LN5@CurrentMot:

; 169  : 		}
; 170  : 
; 171  : 	if (IsDead())

  0002a	e8 00 00 00 00	 call	 ?IsDead@CActorInstance@@QAEHXZ ; CActorInstance::IsDead
  0002f	85 c0		 test	 eax, eax
  00031	0f 85 97 02 00
	00		 jne	 $LN29@CurrentMot
; File C:\Program Files\Microsoft Visual Studio\2022\Community\VC\Tools\MSVC\14.34.31933\include\deque

; 1045 :         return _Mysize() == 0;

  00037	39 86 50 03 00
	00		 cmp	 DWORD PTR [esi+848], eax
; File C:\Users\flourine\Desktop\Xantios\client-src\Code\GameLib\ActorInstanceMotion.cpp

; 176  : 	if (!m_MotionDeque.empty())

  0003d	0f 85 8b 02 00
	00		 jne	 $LN29@CurrentMot

; 177  : 	{
; 178  : 		return;
; 179  : 	}
; 180  : 
; 181  : 	float fCurrentTime = GetLocalTime();

  00043	53		 push	 ebx
  00044	57		 push	 edi
  00045	8b ce		 mov	 ecx, esi
  00047	e8 00 00 00 00	 call	 ?GetLocalTime@CGraphicThingInstance@@QAEMXZ ; CGraphicThingInstance::GetLocalTime

; 182  : 
; 183  : 	DWORD dwMotionIndex = GET_MOTION_INDEX(m_kCurMotNode.dwMotionKey);

  0004c	8b 86 58 03 00
	00		 mov	 eax, DWORD PTR [esi+856]

; 184  : 
; 185  : 	bool isLooping = false;
; 186  : 
; 187  : 	if (m_pkCurRaceMotionData && m_pkCurRaceMotionData->IsLoopMotion())

  00052	8b 8e 68 04 00
	00		 mov	 ecx, DWORD PTR [esi+1128]
  00058	c1 e8 08	 shr	 eax, 8
  0005b	0f b7 d8	 movzx	 ebx, ax
  0005e	d9 5d fc	 fstp	 DWORD PTR _fCurrentTime$[ebp]
  00061	85 c9		 test	 ecx, ecx
  00063	0f 84 aa 01 00
	00		 je	 $LN59@CurrentMot
  00069	e8 00 00 00 00	 call	 ?IsLoopMotion@CRaceMotionData@@QBEHXZ ; CRaceMotionData::IsLoopMotion
  0006e	85 c0		 test	 eax, eax
  00070	0f 84 9d 01 00
	00		 je	 $LN59@CurrentMot

; 188  : 	{
; 189  : 		if (m_kCurMotNode.iLoopCount > 1 || m_kCurMotNode.iLoopCount == -1)

  00076	8b 86 70 03 00
	00		 mov	 eax, DWORD PTR [esi+880]
  0007c	83 f8 01	 cmp	 eax, 1
  0007f	0f 8f 06 01 00
	00		 jg	 $LN11@CurrentMot
  00085	83 f8 ff	 cmp	 eax, -1
  00088	0f 84 fd 00 00
	00		 je	 $LN11@CurrentMot
; File C:\Program Files\Microsoft Visual Studio\2022\Community\VC\Tools\MSVC\14.34.31933\include\deque

; 1045 :         return _Mysize() == 0;

  0008e	83 be 3c 03 00
	00 00		 cmp	 DWORD PTR [esi+828], 0
; File C:\Users\flourine\Desktop\Xantios\client-src\Code\GameLib\ActorInstanceMotion.cpp

; 203  : 		else if (!m_kQue_kFlyTarget.empty())

  00095	0f 84 78 01 00
	00		 je	 $LN59@CurrentMot

; 204  : 		{
; 205  : 			if (!m_kBackupFlyTarget.IsObject())

  0009b	8d 8e 14 03 00
	00		 lea	 ecx, DWORD PTR [esi+788]
  000a1	e8 00 00 00 00	 call	 ?IsObject@CFlyTarget@@QAE_NXZ ; CFlyTarget::IsObject
  000a6	84 c0		 test	 al, al
  000a8	75 12		 jne	 SHORT $LN15@CurrentMot

; 206  : 			{
; 207  : 				m_kBackupFlyTarget = m_kFlyTarget;

  000aa	8d 86 fc 02 00
	00		 lea	 eax, DWORD PTR [esi+764]
  000b0	50		 push	 eax
  000b1	8d 8e 14 03 00
	00		 lea	 ecx, DWORD PTR [esi+788]
  000b7	e8 00 00 00 00	 call	 ??4CFlyTarget@@QAEAAV0@ABV0@@Z ; CFlyTarget::operator=
$LN15@CurrentMot:

; 208  : 			}
; 209  : 
; 210  : 			if (fCurrentTime - m_kCurMotNode.fStartTime > m_pkCurRaceMotionData->GetLoopEndTime())

  000bc	f3 0f 10 45 fc	 movss	 xmm0, DWORD PTR _fCurrentTime$[ebp]
  000c1	f3 0f 5c 86 64
	03 00 00	 subss	 xmm0, DWORD PTR [esi+868]
  000c9	8b 8e 68 04 00
	00		 mov	 ecx, DWORD PTR [esi+1128]
  000cf	f3 0f 11 45 f8	 movss	 DWORD PTR tv563[ebp], xmm0
  000d4	e8 00 00 00 00	 call	 ?GetLoopEndTime@CRaceMotionData@@QBEMXZ ; CRaceMotionData::GetLoopEndTime
  000d9	f3 0f 10 45 f8	 movss	 xmm0, DWORD PTR tv563[ebp]
  000de	d9 5d f4	 fstp	 DWORD PTR tv667[ebp]
  000e1	0f 2f 45 f4	 comiss	 xmm0, DWORD PTR tv667[ebp]
  000e5	0f 86 28 01 00
	00		 jbe	 $LN59@CurrentMot

; 211  : 			{
; 212  : 				m_kCurMotNode.dwcurFrame = DWORD(m_pkCurRaceMotionData->GetLoopStartTime() * g_fGameFPS);

  000eb	8b 8e 68 04 00
	00		 mov	 ecx, DWORD PTR [esi+1128]
  000f1	e8 00 00 00 00	 call	 ?GetLoopStartTime@CRaceMotionData@@QBEMXZ ; CRaceMotionData::GetLoopStartTime
  000f6	d8 0d 00 00 00
	00		 fmul	 DWORD PTR ?g_fGameFPS@@3MA ; g_fGameFPS
  000fc	d9 5d f4	 fstp	 DWORD PTR tv662[ebp]
  000ff	f3 0f 10 45 f4	 movss	 xmm0, DWORD PTR tv662[ebp]
  00104	e8 00 00 00 00	 call	 __ftol3

; 213  : 				__SetLocalTime(m_kCurMotNode.fStartTime + m_pkCurRaceMotionData->GetLoopStartTime());

  00109	8b 8e 68 04 00
	00		 mov	 ecx, DWORD PTR [esi+1128]
  0010f	89 86 5c 03 00
	00		 mov	 DWORD PTR [esi+860], eax
  00115	e8 00 00 00 00	 call	 ?GetLoopStartTime@CRaceMotionData@@QBEMXZ ; CRaceMotionData::GetLoopStartTime
  0011a	d8 86 64 03 00
	00		 fadd	 DWORD PTR [esi+868]
  00120	51		 push	 ecx
  00121	8b ce		 mov	 ecx, esi
  00123	d9 1c 24	 fstp	 DWORD PTR [esp]
  00126	e8 00 00 00 00	 call	 ?__SetLocalTime@CGraphicThingInstance@@QAEXM@Z ; CGraphicThingInstance::__SetLocalTime
; File C:\Program Files\Microsoft Visual Studio\2022\Community\VC\Tools\MSVC\14.34.31933\include\deque

; 564  :         return (_Off / _Block_size) & (_Mapsize - 1);

  0012b	8b 8e 34 03 00
	00		 mov	 ecx, DWORD PTR [esi+820]
; File C:\Users\flourine\Desktop\Xantios\client-src\Code\GameLib\ActorInstanceMotion.cpp

; 215  : 				SetFlyTarget(m_kQue_kFlyTarget.front());

  00131	8b 86 30 03 00
	00		 mov	 eax, DWORD PTR [esi+816]
; File C:\Program Files\Microsoft Visual Studio\2022\Community\VC\Tools\MSVC\14.34.31933\include\deque

; 564  :         return (_Off / _Block_size) & (_Mapsize - 1);

  00137	49		 dec	 ecx
  00138	23 8e 38 03 00
	00		 and	 ecx, DWORD PTR [esi+824]
; File C:\Users\flourine\Desktop\Xantios\client-src\Code\GameLib\ActorInstanceMotion.cpp

; 215  : 				SetFlyTarget(m_kQue_kFlyTarget.front());

  0013e	ff 34 88	 push	 DWORD PTR [eax+ecx*4]
  00141	8b ce		 mov	 ecx, esi
  00143	e8 00 00 00 00	 call	 ?SetFlyTarget@CActorInstance@@QAEXABVCFlyTarget@@@Z ; CActorInstance::SetFlyTarget
; File C:\Program Files\Microsoft Visual Studio\2022\Community\VC\Tools\MSVC\14.34.31933\include\deque

; 564  :         return (_Off / _Block_size) & (_Mapsize - 1);

  00148	8b 8e 34 03 00
	00		 mov	 ecx, DWORD PTR [esi+820]

; 1137 :         _Alty_traits::destroy(_Getal(), _Unfancy(_Map()[_Block] + _Myoff() % _Block_size));

  0014e	8b 86 30 03 00
	00		 mov	 eax, DWORD PTR [esi+816]

; 564  :         return (_Off / _Block_size) & (_Mapsize - 1);

  00154	49		 dec	 ecx
  00155	23 8e 38 03 00
	00		 and	 ecx, DWORD PTR [esi+824]
; File C:\Program Files\Microsoft Visual Studio\2022\Community\VC\Tools\MSVC\14.34.31933\include\xmemory

; 689  :         _Ptr->~_Uty();

  0015b	6a 00		 push	 0
; File C:\Program Files\Microsoft Visual Studio\2022\Community\VC\Tools\MSVC\14.34.31933\include\deque

; 1137 :         _Alty_traits::destroy(_Getal(), _Unfancy(_Map()[_Block] + _Myoff() % _Block_size));

  0015d	8b 0c 88	 mov	 ecx, DWORD PTR [eax+ecx*4]
; File C:\Program Files\Microsoft Visual Studio\2022\Community\VC\Tools\MSVC\14.34.31933\include\xmemory

; 689  :         _Ptr->~_Uty();

  00160	8b 01		 mov	 eax, DWORD PTR [ecx]
  00162	ff 10		 call	 DWORD PTR [eax]
; File C:\Program Files\Microsoft Visual Studio\2022\Community\VC\Tools\MSVC\14.34.31933\include\deque

; 1138 :         if (--_Mysize() == 0) {

  00164	83 86 3c 03 00
	00 ff		 add	 DWORD PTR [esi+828], -1
  0016b	75 11		 jne	 SHORT $LN50@CurrentMot
  0016d	5f		 pop	 edi
  0016e	5b		 pop	 ebx

; 1139 :             _Myoff() = 0;

  0016f	c7 86 38 03 00
	00 00 00 00 00	 mov	 DWORD PTR [esi+824], 0
  00179	5e		 pop	 esi
; File C:\Users\flourine\Desktop\Xantios\client-src\Code\GameLib\ActorInstanceMotion.cpp

; 261  : }

  0017a	8b e5		 mov	 esp, ebp
  0017c	5d		 pop	 ebp
  0017d	c3		 ret	 0
$LN50@CurrentMot:
; File C:\Program Files\Microsoft Visual Studio\2022\Community\VC\Tools\MSVC\14.34.31933\include\deque

; 1141 :             ++_Myoff();

  0017e	ff 86 38 03 00
	00		 inc	 DWORD PTR [esi+824]
  00184	5f		 pop	 edi
  00185	5b		 pop	 ebx
  00186	5e		 pop	 esi
; File C:\Users\flourine\Desktop\Xantios\client-src\Code\GameLib\ActorInstanceMotion.cpp

; 261  : }

  00187	8b e5		 mov	 esp, ebp
  00189	5d		 pop	 ebp
  0018a	c3		 ret	 0
$LN11@CurrentMot:

; 190  : 		{
; 191  : 			if (fCurrentTime - m_kCurMotNode.fStartTime > m_pkCurRaceMotionData->GetLoopEndTime())

  0018b	f3 0f 10 45 fc	 movss	 xmm0, DWORD PTR _fCurrentTime$[ebp]
  00190	f3 0f 5c 86 64
	03 00 00	 subss	 xmm0, DWORD PTR [esi+868]
  00198	8b 8e 68 04 00
	00		 mov	 ecx, DWORD PTR [esi+1128]
  0019e	f3 0f 11 45 f4	 movss	 DWORD PTR tv581[ebp], xmm0
  001a3	e8 00 00 00 00	 call	 ?GetLoopEndTime@CRaceMotionData@@QBEMXZ ; CRaceMotionData::GetLoopEndTime
  001a8	f3 0f 10 45 f4	 movss	 xmm0, DWORD PTR tv581[ebp]
  001ad	d9 5d f8	 fstp	 DWORD PTR tv647[ebp]
  001b0	0f 2f 45 f8	 comiss	 xmm0, DWORD PTR tv647[ebp]
  001b4	76 5d		 jbe	 SHORT $LN59@CurrentMot

; 192  : 			{
; 193  : 				m_kCurMotNode.dwcurFrame = DWORD(m_pkCurRaceMotionData->GetLoopStartTime() * g_fGameFPS);

  001b6	8b 8e 68 04 00
	00		 mov	 ecx, DWORD PTR [esi+1128]
  001bc	e8 00 00 00 00	 call	 ?GetLoopStartTime@CRaceMotionData@@QBEMXZ ; CRaceMotionData::GetLoopStartTime
  001c1	d8 0d 00 00 00
	00		 fmul	 DWORD PTR ?g_fGameFPS@@3MA ; g_fGameFPS
  001c7	d9 5d f4	 fstp	 DWORD PTR tv642[ebp]
  001ca	f3 0f 10 45 f4	 movss	 xmm0, DWORD PTR tv642[ebp]
  001cf	e8 00 00 00 00	 call	 __ftol3

; 194  : 				__SetLocalTime(m_kCurMotNode.fStartTime + m_pkCurRaceMotionData->GetLoopStartTime());

  001d4	8b 8e 68 04 00
	00		 mov	 ecx, DWORD PTR [esi+1128]
  001da	89 86 5c 03 00
	00		 mov	 DWORD PTR [esi+860], eax
  001e0	e8 00 00 00 00	 call	 ?GetLoopStartTime@CRaceMotionData@@QBEMXZ ; CRaceMotionData::GetLoopStartTime
  001e5	d8 86 64 03 00
	00		 fadd	 DWORD PTR [esi+868]
  001eb	51		 push	 ecx
  001ec	8b ce		 mov	 ecx, esi
  001ee	d9 1c 24	 fstp	 DWORD PTR [esp]
  001f1	e8 00 00 00 00	 call	 ?__SetLocalTime@CGraphicThingInstance@@QAEXM@Z ; CGraphicThingInstance::__SetLocalTime

; 195  : 				if (-1 != m_kCurMotNode.iLoopCount)

  001f6	8b 86 70 03 00
	00		 mov	 eax, DWORD PTR [esi+880]
  001fc	83 f8 ff	 cmp	 eax, -1
  001ff	0f 84 c7 00 00
	00		 je	 $LN62@CurrentMot

; 196  : 				{
; 197  : 					--m_kCurMotNode.iLoopCount;

  00205	5f		 pop	 edi
  00206	48		 dec	 eax
  00207	5b		 pop	 ebx
  00208	89 86 70 03 00
	00		 mov	 DWORD PTR [esi+880], eax
  0020e	5e		 pop	 esi

; 261  : }

  0020f	8b e5		 mov	 esp, ebp
  00211	5d		 pop	 ebp
  00212	c3		 ret	 0
$LN59@CurrentMot:

; 216  : 				m_kQue_kFlyTarget.pop_front();
; 217  : 
; 218  : 				isLooping = true;
; 219  : 			}
; 220  : 		}
; 221  : 	}
; 222  : 
; 223  : 	if (!isLooping)
; 224  : 	{
; 225  : 		if (fCurrentTime > m_kCurMotNode.fEndTime)

  00213	f3 0f 10 45 fc	 movss	 xmm0, DWORD PTR _fCurrentTime$[ebp]
  00218	0f 2f 86 68 03
	00 00		 comiss	 xmm0, DWORD PTR [esi+872]
  0021f	0f 86 a7 00 00
	00		 jbe	 $LN62@CurrentMot

; 226  : 		{
; 227  : 			if (m_kBackupFlyTarget.IsValidTarget())

  00225	8d be 14 03 00
	00		 lea	 edi, DWORD PTR [esi+788]
  0022b	8b cf		 mov	 ecx, edi
  0022d	e8 00 00 00 00	 call	 ?IsValidTarget@CFlyTarget@@QAE_NXZ ; CFlyTarget::IsValidTarget
  00232	84 c0		 test	 al, al
  00234	74 13		 je	 SHORT $LN19@CurrentMot

; 228  : 			{
; 229  : 				m_kFlyTarget = m_kBackupFlyTarget;

  00236	57		 push	 edi
  00237	8d 8e fc 02 00
	00		 lea	 ecx, DWORD PTR [esi+764]
  0023d	e8 00 00 00 00	 call	 ??4CFlyTarget@@QAEAAV0@ABV0@@Z ; CFlyTarget::operator=

; 230  : 				m_kBackupFlyTarget.Clear();

  00242	8b cf		 mov	 ecx, edi
  00244	e8 00 00 00 00	 call	 ?Clear@CFlyTarget@@QAEXXZ ; CFlyTarget::Clear
$LN19@CurrentMot:

; 231  : 			}
; 232  : 
; 233  : 			////////////////////////////////////////////
; 234  : 
; 235  : 			if (MOTION_TYPE_ONCE == m_kCurMotNode.iMotionType)

  00249	8b 86 54 03 00
	00		 mov	 eax, DWORD PTR [esi+852]
  0024f	83 f8 01	 cmp	 eax, 1
  00252	75 54		 jne	 SHORT $LN20@CurrentMot

; 236  : 			{
; 237  : 				switch (dwMotionIndex)

  00254	8d 43 fa	 lea	 eax, DWORD PTR [ebx-6]
  00257	83 f8 12	 cmp	 eax, 18			; 00000012H
  0025a	77 34		 ja	 SHORT $LN27@CurrentMot
  0025c	0f b6 80 00 00
	00 00		 movzx	 eax, BYTE PTR $LN60@CurrentMot[eax]
  00263	ff 24 85 00 00
	00 00		 jmp	 DWORD PTR $LN61@CurrentMot[eax*4]
$LN22@CurrentMot:

; 238  : 				{
; 239  : 				case CRaceMotionData::NAME_DAMAGE_FLYING:
; 240  : 				case CRaceMotionData::NAME_DAMAGE_FLYING_BACK:
; 241  : 				case CRaceMotionData::NAME_DEAD:
; 242  : 				case CRaceMotionData::NAME_INTRO_SELECTED:
; 243  : 				case CRaceMotionData::NAME_INTRO_NOT_SELECTED:
; 244  : 					m_kCurMotNode.fEndTime += 3.0f;

  0026a	f3 0f 10 86 68
	03 00 00	 movss	 xmm0, DWORD PTR [esi+872]

; 245  : 					SetEndStopMotion();

  00272	8b ce		 mov	 ecx, esi
  00274	f3 0f 58 05 00
	00 00 00	 addss	 xmm0, DWORD PTR __real@40400000
  0027c	f3 0f 11 86 68
	03 00 00	 movss	 DWORD PTR [esi+872], xmm0
  00284	e8 00 00 00 00	 call	 ?SetEndStopMotion@CGraphicThingInstance@@QAEXXZ ; CGraphicThingInstance::SetEndStopMotion
  00289	5f		 pop	 edi
  0028a	5b		 pop	 ebx
  0028b	5e		 pop	 esi

; 261  : }

  0028c	8b e5		 mov	 esp, ebp
  0028e	5d		 pop	 ebp
  0028f	c3		 ret	 0
$LN27@CurrentMot:

; 246  : 					break;
; 247  : 				default:
; 248  : 					InterceptLoopMotion(CRaceMotionData::NAME_WAIT);

  00290	51		 push	 ecx
  00291	c7 04 24 cd cc
	cc 3d		 mov	 DWORD PTR [esp], 1036831949 ; 3dcccccdH
  00298	8b ce		 mov	 ecx, esi
  0029a	6a 01		 push	 1
  0029c	e8 00 00 00 00	 call	 ?InterceptLoopMotion@CActorInstance@@QAE_NKM@Z ; CActorInstance::InterceptLoopMotion
  002a1	5f		 pop	 edi
  002a2	5b		 pop	 ebx
  002a3	5e		 pop	 esi

; 261  : }

  002a4	8b e5		 mov	 esp, ebp
  002a6	5d		 pop	 ebp
  002a7	c3		 ret	 0
$LN20@CurrentMot:

; 249  : 					break;
; 250  : 				}
; 251  : 			}
; 252  : 			else if (MOTION_TYPE_LOOP == m_kCurMotNode.iMotionType)

  002a8	83 f8 02	 cmp	 eax, 2
  002ab	75 1f		 jne	 SHORT $LN62@CurrentMot

; 253  : 			{
; 254  : 				if (CRaceMotionData::NAME_WAIT == dwMotionIndex)

  002ad	83 fb 01	 cmp	 ebx, 1
  002b0	75 1a		 jne	 SHORT $LN62@CurrentMot

; 255  : 				{
; 256  : 					PushLoopMotion(CRaceMotionData::NAME_WAIT, 0.5f);

  002b2	83 ec 08	 sub	 esp, 8
  002b5	8b ce		 mov	 ecx, esi
  002b7	c7 44 24 04 00
	00 80 3f	 mov	 DWORD PTR [esp+4], 1065353216 ; 3f800000H
  002bf	c7 04 24 00 00
	00 3f		 mov	 DWORD PTR [esp], 1056964608 ; 3f000000H
  002c6	53		 push	 ebx
  002c7	e8 00 00 00 00	 call	 ?PushLoopMotion@CActorInstance@@QAE_NKMM@Z ; CActorInstance::PushLoopMotion
$LN62@CurrentMot:
  002cc	5f		 pop	 edi
  002cd	5b		 pop	 ebx
$LN29@CurrentMot:
  002ce	5e		 pop	 esi

; 261  : }

  002cf	8b e5		 mov	 esp, ebp
  002d1	5d		 pop	 ebp
  002d2	c3		 ret	 0
  002d3	90		 npad	 1
$LN61@CurrentMot:
  002d4	00 00 00 00	 DD	 $LN22@CurrentMot
  002d8	00 00 00 00	 DD	 $LN27@CurrentMot
$LN60@CurrentMot:
  002dc	00		 DB	 0
  002dd	01		 DB	 1
  002de	01		 DB	 1
  002df	00		 DB	 0
  002e0	01		 DB	 1
  002e1	00		 DB	 0
  002e2	01		 DB	 1
  002e3	01		 DB	 1
  002e4	01		 DB	 1
  002e5	01		 DB	 1
  002e6	01		 DB	 1
  002e7	01		 DB	 1
  002e8	01		 DB	 1
  002e9	01		 DB	 1
  002ea	01		 DB	 1
  002eb	01		 DB	 1
  002ec	01		 DB	 1
  002ed	00		 DB	 0
  002ee	00		 DB	 0
?CurrentMotionProcess@CActorInstance@@IAEXXZ ENDP	; CActorInstance::CurrentMotionProcess
_TEXT	ENDS
; Function compile flags: /Ogtp
; File C:\Users\flourine\Desktop\Xantios\client-src\Code\GameLib\ActorInstanceMotion.cpp
; File C:\Program Files\Microsoft Visual Studio\2022\Community\VC\Tools\MSVC\14.34.31933\include\deque
; File C:\Users\flourine\Desktop\Xantios\client-src\Code\GameLib\ActorInstanceMotion.cpp
; File C:\Program Files\Microsoft Visual Studio\2022\Community\VC\Tools\MSVC\14.34.31933\include\deque
; File C:\Users\flourine\Desktop\Xantios\client-src\Code\GameLib\ActorInstanceMotion.cpp
; File C:\Program Files\Microsoft Visual Studio\2022\Community\VC\Tools\MSVC\14.34.31933\include\deque
; File C:\Program Files\Microsoft Visual Studio\2022\Community\VC\Tools\MSVC\14.34.31933\include\xmemory
; File C:\Program Files\Microsoft Visual Studio\2022\Community\VC\Tools\MSVC\14.34.31933\include\deque
; File C:\Users\flourine\Desktop\Xantios\client-src\Code\GameLib\ActorInstanceMotion.cpp
; File C:\Program Files\Microsoft Visual Studio\2022\Community\VC\Tools\MSVC\14.34.31933\include\xmemory
; File C:\Program Files\Microsoft Visual Studio\2022\Community\VC\Tools\MSVC\14.34.31933\include\deque
; File C:\Users\flourine\Desktop\Xantios\client-src\Code\GameLib\ActorInstanceMotion.cpp
; File C:\Program Files\Microsoft Visual Studio\2022\Community\VC\Tools\MSVC\14.34.31933\include\deque
; File C:\Users\flourine\Desktop\Xantios\client-src\Code\GameLib\ActorInstanceMotion.cpp
; File C:\Program Files\Microsoft Visual Studio\2022\Community\VC\Tools\MSVC\14.34.31933\include\deque
; File C:\Users\flourine\Desktop\Xantios\client-src\Code\GameLib\ActorInstanceMotion.cpp
; File C:\Program Files\Microsoft Visual Studio\2022\Community\VC\Tools\MSVC\14.34.31933\include\deque
; File C:\Users\flourine\Desktop\Xantios\client-src\Code\GameLib\ActorInstanceMotion.cpp
; File C:\Users\flourine\Desktop\Xantios\client-src\Code\GameLib\ActorInstance.h
; File C:\Users\flourine\Desktop\Xantios\client-src\Code\GameLib\ActorInstanceMotion.cpp
; File C:\Users\flourine\Desktop\Xantios\client-src\Code\GameLib\ActorInstance.h
; File C:\Users\flourine\Desktop\Xantios\client-src\Code\GameLib\ActorInstanceMotion.cpp
;	COMDAT ?ReservingMotionProcess@CActorInstance@@IAEXXZ
_TEXT	SEGMENT
_kSetMotData$ = -52					; size = 20
_kPrevMotionNode$2$ = -48				; size = 16
_kPrevMotionNode$1$ = -32				; size = 16
_fBlendTime$1$ = -16					; size = 4
_fDurationTime$ = -16					; size = 4
_kPrevMotionNode$3$ = -12				; size = 4
_iMotionType$1$ = -8					; size = 4
_fCurrentTime$ = -8					; size = 4
_fSpeedRatio$ = -4					; size = 4
?ReservingMotionProcess@CActorInstance@@IAEXXZ PROC	; CActorInstance::ReservingMotionProcess, COMDAT
; _this$ = ecx

; 56   : {

  00000	55		 push	 ebp
  00001	8b ec		 mov	 ebp, esp
  00003	83 ec 34	 sub	 esp, 52			; 00000034H
  00006	56		 push	 esi
  00007	8b f1		 mov	 esi, ecx
; File C:\Program Files\Microsoft Visual Studio\2022\Community\VC\Tools\MSVC\14.34.31933\include\deque

; 1045 :         return _Mysize() == 0;

  00009	83 be 50 03 00
	00 00		 cmp	 DWORD PTR [esi+848], 0
; File C:\Users\flourine\Desktop\Xantios\client-src\Code\GameLib\ActorInstanceMotion.cpp

; 57   : 	if (m_MotionDeque.empty())

  00010	0f 84 0b 02 00
	00		 je	 $LN1@ReservingM
; File C:\Program Files\Microsoft Visual Studio\2022\Community\VC\Tools\MSVC\14.34.31933\include\deque

; 564  :         return (_Off / _Block_size) & (_Mapsize - 1);

  00016	8b 8e 48 03 00
	00		 mov	 ecx, DWORD PTR [esi+840]

; 1089 :         return *_Unchecked_begin();

  0001c	8b 86 44 03 00
	00		 mov	 eax, DWORD PTR [esi+836]

; 564  :         return (_Off / _Block_size) & (_Mapsize - 1);

  00022	49		 dec	 ecx
  00023	23 8e 4c 03 00
	00		 and	 ecx, DWORD PTR [esi+844]
  00029	57		 push	 edi

; 1089 :         return *_Unchecked_begin();

  0002a	8b 3c 88	 mov	 edi, DWORD PTR [eax+ecx*4]
; File C:\Users\flourine\Desktop\Xantios\client-src\Code\GameLib\ActorInstanceMotion.cpp

; 64   : 	float fCurrentTime = GetLocalTime();

  0002d	8b ce		 mov	 ecx, esi
  0002f	e8 00 00 00 00	 call	 ?GetLocalTime@CGraphicThingInstance@@QAEMXZ ; CGraphicThingInstance::GetLocalTime

; 65   : 	if (rReservingMotionNode.fStartTime > fCurrentTime)

  00034	f3 0f 10 47 04	 movss	 xmm0, DWORD PTR [edi+4]
  00039	d9 5d f8	 fstp	 DWORD PTR _fCurrentTime$[ebp]
  0003c	0f 2f 45 f8	 comiss	 xmm0, DWORD PTR _fCurrentTime$[ebp]
  00040	0f 87 da 01 00
	00		 ja	 $LN105@ReservingM

; 66   : 	{
; 67   : 		return;
; 68   : 	}
; 69   : 
; 70   : 	DWORD dwNextMotionIndex = GET_MOTION_INDEX(rReservingMotionNode.dwMotionKey);

  00046	8b 47 14	 mov	 eax, DWORD PTR [edi+20]
  00049	c1 e8 08	 shr	 eax, 8
  0004c	0f b7 c0	 movzx	 eax, ax

; 71   : 	switch (dwNextMotionIndex)

  0004f	83 f8 07	 cmp	 eax, 7
  00052	74 05		 je	 SHORT $LN11@ReservingM
  00054	83 f8 0a	 cmp	 eax, 10			; 0000000aH
  00057	75 62		 jne	 SHORT $LN103@ReservingM
$LN11@ReservingM:

; 72   : 	{
; 73   : 	case CRaceMotionData::NAME_STAND_UP:
; 74   : 	case CRaceMotionData::NAME_STAND_UP_BACK:
; 75   : 		if (IsFaint())

  00059	8b ce		 mov	 ecx, esi
  0005b	e8 00 00 00 00	 call	 ?IsFaint@CActorInstance@@QAEHXZ ; CActorInstance::IsFaint
  00060	85 c0		 test	 eax, eax
  00062	74 57		 je	 SHORT $LN103@ReservingM

; 76   : 		{
; 77   : 
; 78   : 			SetEndStopMotion();

  00064	8b ce		 mov	 ecx, esi
  00066	e8 00 00 00 00	 call	 ?SetEndStopMotion@CGraphicThingInstance@@QAEXXZ ; CGraphicThingInstance::SetEndStopMotion
; File C:\Program Files\Microsoft Visual Studio\2022\Community\VC\Tools\MSVC\14.34.31933\include\deque

; 255  :     _Deque_const_iterator(_Size_type _Off, const _Container_base12* _Pdeque) noexcept : _Myoff(_Off) {

  0006b	8b 96 4c 03 00
	00		 mov	 edx, DWORD PTR [esi+844]
; File C:\Program Files\Microsoft Visual Studio\2022\Community\VC\Tools\MSVC\14.34.31933\include\xmemory

; 1146 :             _Myproxy = _Parent->_Myproxy;

  00071	8b be 40 03 00
	00		 mov	 edi, DWORD PTR [esi+832]
  00077	f3 0f 10 0d 00
	00 00 00	 movss	 xmm1, DWORD PTR __real@3f800000
  0007f	90		 npad	 1
$LL101@ReservingM:
; File C:\Program Files\Microsoft Visual Studio\2022\Community\VC\Tools\MSVC\14.34.31933\include\deque

; 939  :         return iterator(_Myoff() + _Mysize(), _STD addressof(_Get_data()));

  00080	8b 86 4c 03 00
	00		 mov	 eax, DWORD PTR [esi+844]
  00086	03 86 50 03 00
	00		 add	 eax, DWORD PTR [esi+848]

; 358  :         return this->_Myoff == _Right._Myoff;

  0008c	3b d0		 cmp	 edx, eax
; File C:\Users\flourine\Desktop\Xantios\client-src\Code\GameLib\ActorInstanceMotion.cpp

; 81   : 			for (; itor != m_MotionDeque.end(); ++itor)

  0008e	0f 84 8c 01 00
	00		 je	 $LN105@ReservingM
; File C:\Program Files\Microsoft Visual Studio\2022\Community\VC\Tools\MSVC\14.34.31933\include\xmemory

; 1154 :         return _Myproxy ? _Myproxy->_Mycont : nullptr;

  00094	85 ff		 test	 edi, edi
  00096	74 04		 je	 SHORT $LN66@ReservingM
  00098	8b 07		 mov	 eax, DWORD PTR [edi]
  0009a	eb 02		 jmp	 SHORT $LN67@ReservingM
$LN66@ReservingM:
  0009c	33 c0		 xor	 eax, eax
$LN67@ReservingM:
; File C:\Program Files\Microsoft Visual Studio\2022\Community\VC\Tools\MSVC\14.34.31933\include\deque

; 564  :         return (_Off / _Block_size) & (_Mapsize - 1);

  0009e	8b 48 08	 mov	 ecx, DWORD PTR [eax+8]

; 453  :         return const_cast<reference>(_Mybase::operator*());

  000a1	8b 40 04	 mov	 eax, DWORD PTR [eax+4]

; 564  :         return (_Off / _Block_size) & (_Mapsize - 1);

  000a4	49		 dec	 ecx
  000a5	23 ca		 and	 ecx, edx

; 283  :         ++_Myoff;

  000a7	42		 inc	 edx

; 453  :         return const_cast<reference>(_Mybase::operator*());

  000a8	8b 04 88	 mov	 eax, DWORD PTR [eax+ecx*4]
; File C:\Users\flourine\Desktop\Xantios\client-src\Code\GameLib\ActorInstanceMotion.cpp

; 84   : 				rNode.fStartTime += 1.0f;

  000ab	f3 0f 10 40 04	 movss	 xmm0, DWORD PTR [eax+4]
  000b0	f3 0f 58 c1	 addss	 xmm0, xmm1
  000b4	f3 0f 11 40 04	 movss	 DWORD PTR [eax+4], xmm0
; File C:\Program Files\Microsoft Visual Studio\2022\Community\VC\Tools\MSVC\14.34.31933\include\deque

; 283  :         ++_Myoff;

  000b9	eb c5		 jmp	 SHORT $LL101@ReservingM
$LN103@ReservingM:
; File C:\Users\flourine\Desktop\Xantios\client-src\Code\GameLib\ActorInstanceMotion.cpp

; 91   : 	SCurrentMotionNode kPrevMotionNode = m_kCurMotNode;

  000bb	0f 10 86 54 03
	00 00		 movups	 xmm0, XMMWORD PTR [esi+852]
  000c2	8b 86 74 03 00
	00		 mov	 eax, DWORD PTR [esi+884]

; 95   : 	float fBlendTime = rReservingMotionNode.fBlendTime;

  000c8	f3 0f 10 4f 08	 movss	 xmm1, DWORD PTR [edi+8]
  000cd	0f 11 45 e0	 movups	 XMMWORD PTR _kPrevMotionNode$1$[ebp], xmm0
  000d1	53		 push	 ebx
  000d2	0f 10 86 64 03
	00 00		 movups	 xmm0, XMMWORD PTR [esi+868]

; 96   : 
; 97   : 	DWORD dwMotionKey = rReservingMotionNode.dwMotionKey;

  000d9	8b 5f 14	 mov	 ebx, DWORD PTR [edi+20]
  000dc	89 45 f4	 mov	 DWORD PTR _kPrevMotionNode$3$[ebp], eax
  000df	8b 07		 mov	 eax, DWORD PTR [edi]
  000e1	0f 11 45 d0	 movups	 XMMWORD PTR _kPrevMotionNode$2$[ebp], xmm0
  000e5	89 45 f8	 mov	 DWORD PTR _iMotionType$1$[ebp], eax
  000e8	f3 0f 10 47 10	 movss	 xmm0, DWORD PTR [edi+16]
; File C:\Program Files\Microsoft Visual Studio\2022\Community\VC\Tools\MSVC\14.34.31933\include\deque

; 1138 :         if (--_Mysize() == 0) {

  000ed	83 86 50 03 00
	00 ff		 add	 DWORD PTR [esi+848], -1
; File C:\Users\flourine\Desktop\Xantios\client-src\Code\GameLib\ActorInstanceMotion.cpp

; 94   : 	float fSpeedRatio = rReservingMotionNode.fSpeedRatio;

  000f4	f3 0f 11 45 fc	 movss	 DWORD PTR _fSpeedRatio$[ebp], xmm0

; 95   : 	float fBlendTime = rReservingMotionNode.fBlendTime;

  000f9	f3 0f 11 4d f0	 movss	 DWORD PTR _fBlendTime$1$[ebp], xmm1
; File C:\Program Files\Microsoft Visual Studio\2022\Community\VC\Tools\MSVC\14.34.31933\include\deque

; 1138 :         if (--_Mysize() == 0) {

  000fe	75 0c		 jne	 SHORT $LN71@ReservingM

; 1139 :             _Myoff() = 0;

  00100	c7 86 4c 03 00
	00 00 00 00 00	 mov	 DWORD PTR [esi+844], 0

; 1140 :         } else {

  0010a	eb 06		 jmp	 SHORT $LN72@ReservingM
$LN71@ReservingM:

; 1141 :             ++_Myoff();

  0010c	ff 86 4c 03 00
	00		 inc	 DWORD PTR [esi+844]
$LN72@ReservingM:
; File C:\Users\flourine\Desktop\Xantios\client-src\Code\GameLib\ActorInstanceMotion.cpp

; 101  : 	DWORD dwCurrentMotionIndex = GET_MOTION_INDEX(dwMotionKey);

  00112	8b c3		 mov	 eax, ebx
  00114	c1 e8 08	 shr	 eax, 8
  00117	0f b7 c0	 movzx	 eax, ax

; 102  : 	switch (dwCurrentMotionIndex)

  0011a	83 f8 07	 cmp	 eax, 7
  0011d	74 05		 je	 SHORT $LN14@ReservingM
  0011f	83 f8 0a	 cmp	 eax, 10			; 0000000aH
  00122	75 49		 jne	 SHORT $LN16@ReservingM
$LN14@ReservingM:

; 103  : 	{
; 104  : 	case CRaceMotionData::NAME_STAND_UP:
; 105  : 	case CRaceMotionData::NAME_STAND_UP_BACK:
; 106  : 		if (IsDead())

  00124	8b ce		 mov	 ecx, esi
  00126	e8 00 00 00 00	 call	 ?IsDead@CActorInstance@@QAEHXZ ; CActorInstance::IsDead
  0012b	85 c0		 test	 eax, eax
  0012d	74 34		 je	 SHORT $LN104@ReservingM

; 107  : 		{
; 108  : 			m_kCurMotNode = kPrevMotionNode;

  0012f	0f 10 45 e0	 movups	 xmm0, XMMWORD PTR _kPrevMotionNode$1$[ebp]
  00133	8b 45 f4	 mov	 eax, DWORD PTR _kPrevMotionNode$3$[ebp]

; 109  : 			__ClearMotion();

  00136	8b ce		 mov	 ecx, esi
  00138	0f 11 86 54 03
	00 00		 movups	 XMMWORD PTR [esi+852], xmm0
  0013f	0f 10 45 d0	 movups	 xmm0, XMMWORD PTR _kPrevMotionNode$2$[ebp]
  00143	0f 11 86 64 03
	00 00		 movups	 XMMWORD PTR [esi+868], xmm0
  0014a	89 86 74 03 00
	00		 mov	 DWORD PTR [esi+884], eax
  00150	e8 00 00 00 00	 call	 ?__ClearMotion@CActorInstance@@IAEXXZ ; CActorInstance::__ClearMotion

; 110  : 
; 111  : 			SetEndStopMotion();

  00155	8b ce		 mov	 ecx, esi
  00157	e8 00 00 00 00	 call	 ?SetEndStopMotion@CGraphicThingInstance@@QAEXXZ ; CGraphicThingInstance::SetEndStopMotion
  0015c	5b		 pop	 ebx
  0015d	5f		 pop	 edi
  0015e	5e		 pop	 esi

; 161  : }

  0015f	8b e5		 mov	 esp, ebp
  00161	5d		 pop	 ebp
  00162	c3		 ret	 0
$LN104@ReservingM:

; 103  : 	{
; 104  : 	case CRaceMotionData::NAME_STAND_UP:
; 105  : 	case CRaceMotionData::NAME_STAND_UP_BACK:
; 106  : 		if (IsDead())

  00163	f3 0f 10 45 fc	 movss	 xmm0, DWORD PTR _fSpeedRatio$[ebp]
  00168	f3 0f 10 4d f0	 movss	 xmm1, DWORD PTR _fBlendTime$1$[ebp]
$LN16@ReservingM:
; File C:\Users\flourine\Desktop\Xantios\client-src\Code\GameLib\ActorInstance.h

; 660  : 			uSkill = 0;

  0016d	33 c0		 xor	 eax, eax
  0016f	c7 45 dc 00 00
	00 00		 mov	 DWORD PTR _kSetMotData$[ebp+16], 0
  00176	83 7d f8 01	 cmp	 DWORD PTR _iMotionType$1$[ebp], 1
; File C:\Users\flourine\Desktop\Xantios\client-src\Code\GameLib\ActorInstanceMotion.cpp

; 135  : 	DWORD dwRealMotionKey = __SetMotion(kSetMotData);

  0017a	8b ce		 mov	 ecx, esi
  0017c	6a 00		 push	 0
; File C:\Users\flourine\Desktop\Xantios\client-src\Code\GameLib\ActorInstance.h

; 660  : 			uSkill = 0;

  0017e	0f 94 c0	 sete	 al
; File C:\Users\flourine\Desktop\Xantios\client-src\Code\GameLib\ActorInstanceMotion.cpp

; 130  : 	kSetMotData.dwMotKey = dwMotionKey;

  00181	89 5d cc	 mov	 DWORD PTR _kSetMotData$[ebp], ebx

; 131  : 	kSetMotData.fBlendTime = fBlendTime;
; 132  : 	kSetMotData.fSpeedRatio = fSpeedRatio;
; 133  : 	kSetMotData.iLoopCount = iLoopCount;

  00184	89 45 d8	 mov	 DWORD PTR _kSetMotData$[ebp+12], eax

; 135  : 	DWORD dwRealMotionKey = __SetMotion(kSetMotData);

  00187	8d 45 cc	 lea	 eax, DWORD PTR _kSetMotData$[ebp]
  0018a	50		 push	 eax
  0018b	f3 0f 11 4d d4	 movss	 DWORD PTR _kSetMotData$[ebp+8], xmm1
  00190	f3 0f 11 45 d0	 movss	 DWORD PTR _kSetMotData$[ebp+4], xmm0
  00195	e8 00 00 00 00	 call	 ?__SetMotion@CActorInstance@@IAEKABUSSetMotionData@1@K@Z ; CActorInstance::__SetMotion
  0019a	8b d8		 mov	 ebx, eax

; 136  : 
; 137  : 	if (0 == dwRealMotionKey)

  0019c	85 db		 test	 ebx, ebx
  0019e	0f 84 7b 00 00
	00		 je	 $LN106@ReservingM

; 138  : 	{
; 139  : 		return;
; 140  : 	}
; 141  : 
; 142  : 	//float fDurationTime=rReservingMotionNode.fDuration;
; 143  : 	float fDurationTime = GetMotionDuration(dwRealMotionKey) / fSpeedRatio;

  001a4	53		 push	 ebx
  001a5	8b ce		 mov	 ecx, esi
  001a7	e8 00 00 00 00	 call	 ?GetMotionDuration@CActorInstance@@IAEMK@Z ; CActorInstance::GetMotionDuration
  001ac	d8 75 fc	 fdiv	 DWORD PTR _fSpeedRatio$[ebp]

; 144  : 	float fStartTime = rReservingMotionNode.fStartTime;
; 145  : 	float fEndTime = fStartTime + fDurationTime;
; 146  : 
; 147  : 	if (dwRealMotionKey == 16777473)
; 148  : 	{
; 149  : 		int bp = 0;
; 150  : 		bp++;
; 151  : 	}
; 152  : 
; 153  : 	m_kCurMotNode.uSkill = 0;
; 154  : 	m_kCurMotNode.iMotionType = iMotionType;

  001af	8b 45 f8	 mov	 eax, DWORD PTR _iMotionType$1$[ebp]
  001b2	f3 0f 10 4f 04	 movss	 xmm1, DWORD PTR [edi+4]

; 155  : 	m_kCurMotNode.fSpeedRatio = fSpeedRatio;

  001b7	f3 0f 10 45 fc	 movss	 xmm0, DWORD PTR _fSpeedRatio$[ebp]
  001bc	f3 0f 11 86 6c
	03 00 00	 movss	 DWORD PTR [esi+876], xmm0
  001c4	d9 5d f0	 fstp	 DWORD PTR _fDurationTime$[ebp]
  001c7	f3 0f 10 45 f0	 movss	 xmm0, DWORD PTR _fDurationTime$[ebp]

; 156  : 	m_kCurMotNode.fStartTime = fStartTime;

  001cc	f3 0f 11 8e 64
	03 00 00	 movss	 DWORD PTR [esi+868], xmm1
  001d4	f3 0f 58 c8	 addss	 xmm1, xmm0
  001d8	89 86 54 03 00
	00		 mov	 DWORD PTR [esi+852], eax
  001de	c7 86 74 03 00
	00 00 00 00 00	 mov	 DWORD PTR [esi+884], 0

; 157  : 	m_kCurMotNode.fEndTime = fEndTime;
; 158  : 	m_kCurMotNode.dwMotionKey = dwRealMotionKey;

  001e8	89 9e 58 03 00
	00		 mov	 DWORD PTR [esi+856], ebx

; 159  : 	m_kCurMotNode.dwcurFrame = 0;

  001ee	c7 86 5c 03 00
	00 00 00 00 00	 mov	 DWORD PTR [esi+860], 0
  001f8	f3 0f 11 8e 68
	03 00 00	 movss	 DWORD PTR [esi+872], xmm1

; 160  : 	m_kCurMotNode.dwFrameCount = fDurationTime / (1.0f / g_fGameFPS);

  00200	f3 0f 10 0d 00
	00 00 00	 movss	 xmm1, DWORD PTR __real@3f800000
  00208	f3 0f 5e 0d 00
	00 00 00	 divss	 xmm1, DWORD PTR ?g_fGameFPS@@3MA
  00210	f3 0f 5e c1	 divss	 xmm0, xmm1
  00214	e8 00 00 00 00	 call	 __ftol3
  00219	89 86 60 03 00
	00		 mov	 DWORD PTR [esi+864], eax
$LN106@ReservingM:
  0021f	5b		 pop	 ebx
$LN105@ReservingM:
  00220	5f		 pop	 edi
$LN1@ReservingM:
  00221	5e		 pop	 esi

; 161  : }

  00222	8b e5		 mov	 esp, ebp
  00224	5d		 pop	 ebp
  00225	c3		 ret	 0
?ReservingMotionProcess@CActorInstance@@IAEXXZ ENDP	; CActorInstance::ReservingMotionProcess
_TEXT	ENDS
; Function compile flags: /Ogtp
; File C:\Users\flourine\Desktop\Xantios\client-src\Code\GameLib\ActorInstanceMotion.cpp
;	COMDAT ?__MotionEventProcess@CActorInstance@@QAEXH@Z
_TEXT	SEGMENT
tv190 = -4						; size = 4
_isPC$ = 8						; size = 4
?__MotionEventProcess@CActorInstance@@QAEXH@Z PROC	; CActorInstance::__MotionEventProcess, COMDAT
; _this$ = ecx

; 18   : {

  00000	55		 push	 ebp
  00001	8b ec		 mov	 ebp, esp
  00003	51		 push	 ecx
  00004	56		 push	 esi
  00005	8b f1		 mov	 esi, ecx

; 19   : 	if (isAttacking())

  00007	e8 00 00 00 00	 call	 ?isAttacking@CActorInstance@@QAEHXZ ; CActorInstance::isAttacking
  0000c	8b ce		 mov	 ecx, esi
  0000e	85 c0		 test	 eax, eax
  00010	74 54		 je	 SHORT $LN5@MotionEven

; 20   : 	{
; 21   : 		DWORD dwNextFrame = DWORD(GetAttackingElapsedTime() * g_fGameFPS);

  00012	57		 push	 edi
  00013	e8 00 00 00 00	 call	 ?GetAttackingElapsedTime@CActorInstance@@QAEMXZ ; CActorInstance::GetAttackingElapsedTime
  00018	d8 0d 00 00 00
	00		 fmul	 DWORD PTR ?g_fGameFPS@@3MA ; g_fGameFPS
  0001e	d9 5d fc	 fstp	 DWORD PTR tv190[ebp]
  00021	f3 0f 10 45 fc	 movss	 xmm0, DWORD PTR tv190[ebp]
  00026	e8 00 00 00 00	 call	 __ftol3
  0002b	8b f8		 mov	 edi, eax

; 22   : 		for (; m_kCurMotNode.dwcurFrame < dwNextFrame; ++m_kCurMotNode.dwcurFrame)

  0002d	39 be 5c 03 00
	00		 cmp	 DWORD PTR [esi+860], edi
  00033	73 29		 jae	 SHORT $LN12@MotionEven

; 25   : 			SoundEventProcess(!isPC);

  00035	53		 push	 ebx
  00036	33 db		 xor	 ebx, ebx
  00038	39 5d 08	 cmp	 DWORD PTR _isPC$[ebp], ebx
  0003b	0f 94 c3	 sete	 bl
  0003e	66 90		 npad	 2
$LL4@MotionEven:

; 23   : 		{
; 24   : 			MotionEventProcess();

  00040	8b ce		 mov	 ecx, esi
  00042	e8 00 00 00 00	 call	 ?MotionEventProcess@CActorInstance@@QAEXXZ ; CActorInstance::MotionEventProcess

; 25   : 			SoundEventProcess(!isPC);

  00047	53		 push	 ebx
  00048	8b ce		 mov	 ecx, esi
  0004a	e8 00 00 00 00	 call	 ?SoundEventProcess@CActorInstance@@QAEXH@Z ; CActorInstance::SoundEventProcess
  0004f	ff 86 5c 03 00
	00		 inc	 DWORD PTR [esi+860]
  00055	39 be 5c 03 00
	00		 cmp	 DWORD PTR [esi+860], edi
  0005b	72 e3		 jb	 SHORT $LL4@MotionEven

; 26   : 		}
; 27   : 	}

  0005d	5b		 pop	 ebx
$LN12@MotionEven:
  0005e	5f		 pop	 edi
  0005f	5e		 pop	 esi

; 34   : 	}
; 35   : }

  00060	8b e5		 mov	 esp, ebp
  00062	5d		 pop	 ebp
  00063	c2 04 00	 ret	 4
$LN5@MotionEven:

; 28   : 	else
; 29   : 	{
; 30   : 		MotionEventProcess();

  00066	e8 00 00 00 00	 call	 ?MotionEventProcess@CActorInstance@@QAEXXZ ; CActorInstance::MotionEventProcess

; 31   : 		SoundEventProcess(!isPC);

  0006b	33 c0		 xor	 eax, eax
  0006d	8b ce		 mov	 ecx, esi
  0006f	39 45 08	 cmp	 DWORD PTR _isPC$[ebp], eax
  00072	0f 94 c0	 sete	 al
  00075	50		 push	 eax
  00076	e8 00 00 00 00	 call	 ?SoundEventProcess@CActorInstance@@QAEXH@Z ; CActorInstance::SoundEventProcess

; 32   : 
; 33   : 		++m_kCurMotNode.dwcurFrame;

  0007b	ff 86 5c 03 00
	00		 inc	 DWORD PTR [esi+860]
  00081	5e		 pop	 esi

; 34   : 	}
; 35   : }

  00082	8b e5		 mov	 esp, ebp
  00084	5d		 pop	 ebp
  00085	c2 04 00	 ret	 4
?__MotionEventProcess@CActorInstance@@QAEXH@Z ENDP	; CActorInstance::__MotionEventProcess
_TEXT	ENDS
; Function compile flags: /Ogtp
; File C:\Users\flourine\Desktop\Xantios\client-src\Code\GameLib\ActorInstanceMotion.cpp
;	COMDAT ?MotionProcess@CActorInstance@@QAEXH@Z
_TEXT	SEGMENT
_isPC$ = 8						; size = 4
?MotionProcess@CActorInstance@@QAEXH@Z PROC		; CActorInstance::MotionProcess, COMDAT
; _this$ = ecx

; 38   : {

  00000	55		 push	 ebp
  00001	8b ec		 mov	 ebp, esp
  00003	56		 push	 esi

; 39   : 	__MotionEventProcess(isPC);

  00004	ff 75 08	 push	 DWORD PTR _isPC$[ebp]
  00007	8b f1		 mov	 esi, ecx
  00009	e8 00 00 00 00	 call	 ?__MotionEventProcess@CActorInstance@@QAEXH@Z ; CActorInstance::__MotionEventProcess

; 40   : 	CurrentMotionProcess();

  0000e	8b ce		 mov	 ecx, esi
  00010	e8 00 00 00 00	 call	 ?CurrentMotionProcess@CActorInstance@@IAEXXZ ; CActorInstance::CurrentMotionProcess

; 41   : 	ReservingMotionProcess();

  00015	8b ce		 mov	 ecx, esi
  00017	e8 00 00 00 00	 call	 ?ReservingMotionProcess@CActorInstance@@IAEXXZ ; CActorInstance::ReservingMotionProcess
  0001c	5e		 pop	 esi

; 42   : }

  0001d	5d		 pop	 ebp
  0001e	c2 04 00	 ret	 4
?MotionProcess@CActorInstance@@QAEXH@Z ENDP		; CActorInstance::MotionProcess
_TEXT	ENDS
; Function compile flags: /Ogtp
; File C:\Users\flourine\Desktop\Xantios\client-src\Code\GameLib\ActorInstanceMotion.cpp
;	COMDAT ?HORSE_MotionProcess@CActorInstance@@QAEXH@Z
_TEXT	SEGMENT
_isPC$ = 8						; size = 4
?HORSE_MotionProcess@CActorInstance@@QAEXH@Z PROC	; CActorInstance::HORSE_MotionProcess, COMDAT
; _this$ = ecx

; 45   : {

  00000	55		 push	 ebp
  00001	8b ec		 mov	 ebp, esp
  00003	56		 push	 esi

; 46   : 	__MotionEventProcess(isPC);

  00004	ff 75 08	 push	 DWORD PTR _isPC$[ebp]
  00007	8b f1		 mov	 esi, ecx
  00009	e8 00 00 00 00	 call	 ?__MotionEventProcess@CActorInstance@@QAEXH@Z ; CActorInstance::__MotionEventProcess

; 47   : 
; 48   : 	if (MOTION_TYPE_LOOP == m_kCurMotNode.iMotionType)

  0000e	83 be 54 03 00
	00 02		 cmp	 DWORD PTR [esi+852], 2
  00015	75 18		 jne	 SHORT $LN3@HORSE_Moti

; 49   : 		if (m_kCurMotNode.dwcurFrame >= m_kCurMotNode.dwFrameCount)

  00017	8b 86 5c 03 00
	00		 mov	 eax, DWORD PTR [esi+860]
  0001d	3b 86 60 03 00
	00		 cmp	 eax, DWORD PTR [esi+864]
  00023	72 0a		 jb	 SHORT $LN3@HORSE_Moti

; 50   : 		{
; 51   : 			m_kCurMotNode.dwcurFrame = 0;

  00025	c7 86 5c 03 00
	00 00 00 00 00	 mov	 DWORD PTR [esi+860], 0
$LN3@HORSE_Moti:
  0002f	5e		 pop	 esi

; 52   : 		}
; 53   : }

  00030	5d		 pop	 ebp
  00031	c2 04 00	 ret	 4
?HORSE_MotionProcess@CActorInstance@@QAEXH@Z ENDP	; CActorInstance::HORSE_MotionProcess
_TEXT	ENDS
; Function compile flags: /Ogtp
; File C:\Users\flourine\Desktop\Xantios\client-src\Code\GameLib\ActorInstanceMotion.cpp
;	COMDAT ?IsFishing@CActorInstance@@QAEHXZ
_TEXT	SEGMENT
?IsFishing@CActorInstance@@QAEHXZ PROC			; CActorInstance::IsFishing, COMDAT
; _this$ = ecx

; 484  : {

  00000	56		 push	 esi
  00001	8b f1		 mov	 esi, ecx

; 485  : 	if (!m_pkCurRaceMotionData)

  00003	83 be 68 04 00
	00 00		 cmp	 DWORD PTR [esi+1128], 0
  0000a	75 04		 jne	 SHORT $LN2@IsFishing

; 486  : 	{
; 487  : 		return FALSE;

  0000c	33 c0		 xor	 eax, eax
  0000e	5e		 pop	 esi

; 494  : 	}
; 495  : 
; 496  : 	return FALSE;
; 497  : }

  0000f	c3		 ret	 0
$LN2@IsFishing:

; 488  : 	}
; 489  : 
; 490  : 	if (__GetCurrentMotionIndex() == CRaceMotionData::NAME_FISHING_WAIT ||

  00010	e8 00 00 00 00	 call	 ?__GetCurrentMotionIndex@CActorInstance@@IAEGXZ ; CActorInstance::__GetCurrentMotionIndex
  00015	66 83 f8 1b	 cmp	 ax, 27			; 0000001bH
  00019	74 14		 je	 SHORT $LN4@IsFishing
  0001b	8b ce		 mov	 ecx, esi
  0001d	e8 00 00 00 00	 call	 ?__GetCurrentMotionIndex@CActorInstance@@IAEGXZ ; CActorInstance::__GetCurrentMotionIndex
  00022	33 c9		 xor	 ecx, ecx
  00024	66 83 f8 1d	 cmp	 ax, 29			; 0000001dH
  00028	5e		 pop	 esi
  00029	0f 94 c1	 sete	 cl
  0002c	8b c1		 mov	 eax, ecx

; 494  : 	}
; 495  : 
; 496  : 	return FALSE;
; 497  : }

  0002e	c3		 ret	 0
$LN4@IsFishing:

; 491  : 			__GetCurrentMotionIndex() == CRaceMotionData::NAME_FISHING_REACT)
; 492  : 	{
; 493  : 		return TRUE;

  0002f	b8 01 00 00 00	 mov	 eax, 1
  00034	5e		 pop	 esi

; 494  : 	}
; 495  : 
; 496  : 	return FALSE;
; 497  : }

  00035	c3		 ret	 0
?IsFishing@CActorInstance@@QAEHXZ ENDP			; CActorInstance::IsFishing
_TEXT	ENDS
; Function compile flags: /Ogtp
; File C:\Users\flourine\Desktop\Xantios\client-src\Code\GameLib\ActorInstanceMotion.cpp
;	COMDAT ?PreAttack@CActorInstance@@QAEXXZ
_TEXT	SEGMENT
?PreAttack@CActorInstance@@QAEXXZ PROC			; CActorInstance::PreAttack, COMDAT
; _this$ = ecx

; 671  : }

  00000	c2 00 00	 ret	 0
?PreAttack@CActorInstance@@QAEXXZ ENDP			; CActorInstance::PreAttack
_TEXT	ENDS
; Function compile flags: /Ogtp
; File C:\Users\flourine\Desktop\Xantios\client-src\Code\GameLib\ActorInstanceMotion.cpp
;	COMDAT ?CanCancelSkill@CActorInstance@@QAEHXZ
_TEXT	SEGMENT
?CanCancelSkill@CActorInstance@@QAEHXZ PROC		; CActorInstance::CanCancelSkill, COMDAT
; _this$ = ecx

; 501  : 	assert(IsUsingSkill());
; 502  : 	return m_pkCurRaceMotionData->IsCancelEnableSkill();

  00000	8b 89 68 04 00
	00		 mov	 ecx, DWORD PTR [ecx+1128]
  00006	e9 00 00 00 00	 jmp	 ?IsCancelEnableSkill@CRaceMotionData@@QBEHXZ ; CRaceMotionData::IsCancelEnableSkill
?CanCancelSkill@CActorInstance@@QAEHXZ ENDP		; CActorInstance::CanCancelSkill
_TEXT	ENDS
; Function compile flags: /Ogtp
; File C:\Users\flourine\Desktop\Xantios\client-src\Code\GameLib\ActorInstanceMotion.cpp
;	COMDAT ?IsUsingSkill@CActorInstance@@QAEHXZ
_TEXT	SEGMENT
?IsUsingSkill@CActorInstance@@QAEHXZ PROC		; CActorInstance::IsUsingSkill, COMDAT
; _this$ = ecx

; 462  : 	DWORD dwCurMotionIndex = __GetCurrentMotionIndex();

  00000	e8 00 00 00 00	 call	 ?__GetCurrentMotionIndex@CActorInstance@@IAEGXZ ; CActorInstance::__GetCurrentMotionIndex
  00005	0f b7 c8	 movzx	 ecx, ax

; 463  : 
; 464  : 	if (dwCurMotionIndex >= CRaceMotionData::NAME_SKILL && dwCurMotionIndex < CRaceMotionData::NAME_SKILL_END)

  00008	8d 41 ce	 lea	 eax, DWORD PTR [ecx-50]
  0000b	3d fe 00 00 00	 cmp	 eax, 254		; 000000feH
  00010	76 19		 jbe	 SHORT $LN5@IsUsingSki

; 465  : 	{
; 466  : 		return TRUE;
; 467  : 	}
; 468  : 
; 469  : 	switch (dwCurMotionIndex)

  00012	8d 41 df	 lea	 eax, DWORD PTR [ecx-33]
  00015	83 f8 05	 cmp	 eax, 5
  00018	77 0e		 ja	 SHORT $LN2@IsUsingSki
  0001a	0f b6 80 00 00
	00 00		 movzx	 eax, BYTE PTR $LN13@IsUsingSki[eax]
  00021	ff 24 85 00 00
	00 00		 jmp	 DWORD PTR $LN14@IsUsingSki[eax*4]
$LN2@IsUsingSki:

; 478  : 	}
; 479  : 
; 480  : 	return FALSE;

  00028	33 c0		 xor	 eax, eax

; 481  : }

  0002a	c3		 ret	 0
$LN5@IsUsingSki:

; 470  : 	{
; 471  : 	case CRaceMotionData::NAME_SPECIAL_1:
; 472  : 	case CRaceMotionData::NAME_SPECIAL_2:
; 473  : 	case CRaceMotionData::NAME_SPECIAL_3:
; 474  : 	case CRaceMotionData::NAME_SPECIAL_4:
; 475  : 	case CRaceMotionData::NAME_SPECIAL_5:
; 476  : 	case CRaceMotionData::NAME_SPECIAL_6:
; 477  : 		return TRUE;

  0002b	b8 01 00 00 00	 mov	 eax, 1

; 481  : }

  00030	c3		 ret	 0
  00031	0f 1f 00	 npad	 3
$LN14@IsUsingSki:
  00034	00 00 00 00	 DD	 $LN5@IsUsingSki
$LN13@IsUsingSki:
  00038	00		 DB	 0
  00039	00		 DB	 0
  0003a	00		 DB	 0
  0003b	00		 DB	 0
  0003c	00		 DB	 0
  0003d	00		 DB	 0
?IsUsingSkill@CActorInstance@@QAEHXZ ENDP		; CActorInstance::IsUsingSkill
_TEXT	ENDS
; Function compile flags: /Ogtp
; File C:\Users\flourine\Desktop\Xantios\client-src\Code\GameLib\ActorInstanceMotion.cpp
;	COMDAT ?isLock@CActorInstance@@QAEHXZ
_TEXT	SEGMENT
?isLock@CActorInstance@@QAEHXZ PROC			; CActorInstance::isLock, COMDAT
; _this$ = ecx

; 506  : {

  00000	56		 push	 esi
  00001	8b f1		 mov	 esi, ecx

; 507  : 	DWORD dwCurMotionIndex = __GetCurrentMotionIndex();

  00003	e8 00 00 00 00	 call	 ?__GetCurrentMotionIndex@CActorInstance@@IAEGXZ ; CActorInstance::__GetCurrentMotionIndex
  00008	0f b7 c0	 movzx	 eax, ax

; 508  : 
; 509  : 	// Locked during attack
; 510  : 	switch (dwCurMotionIndex)

  0000b	3d 32 01 00 00	 cmp	 eax, 306		; 00000132H
  00010	77 18		 ja	 SHORT $LN62@isLock
  00012	74 48		 je	 SHORT $LN60@isLock
  00014	83 e8 0d	 sub	 eax, 13			; 0000000dH
  00017	83 f8 19	 cmp	 eax, 25			; 00000019H
  0001a	77 26		 ja	 SHORT $LN2@isLock
  0001c	0f b6 80 00 00
	00 00		 movzx	 eax, BYTE PTR $LN64@isLock[eax]
  00023	ff 24 85 00 00
	00 00		 jmp	 DWORD PTR $LN65@isLock[eax*4]
$LN62@isLock:
  0002a	2d 33 01 00 00	 sub	 eax, 307		; 00000133H
  0002f	83 f8 2c	 cmp	 eax, 44			; 0000002cH
  00032	77 0e		 ja	 SHORT $LN2@isLock
  00034	0f b6 80 00 00
	00 00		 movzx	 eax, BYTE PTR $LN66@isLock[eax]
  0003b	ff 24 85 00 00
	00 00		 jmp	 DWORD PTR $LN67@isLock[eax*4]
$LN2@isLock:

; 511  : 	{
; 512  : 	case CRaceMotionData::NAME_NORMAL_ATTACK:
; 513  : 	case CRaceMotionData::NAME_COMBO_ATTACK_1:
; 514  : 	case CRaceMotionData::NAME_COMBO_ATTACK_2:
; 515  : 	case CRaceMotionData::NAME_COMBO_ATTACK_3:
; 516  : 	case CRaceMotionData::NAME_COMBO_ATTACK_4:
; 517  : 	case CRaceMotionData::NAME_COMBO_ATTACK_5:
; 518  : 	case CRaceMotionData::NAME_COMBO_ATTACK_6:
; 519  : 	case CRaceMotionData::NAME_COMBO_ATTACK_7:
; 520  : 	case CRaceMotionData::NAME_COMBO_ATTACK_8:
; 521  : 	case CRaceMotionData::NAME_SPECIAL_1:
; 522  : 	case CRaceMotionData::NAME_SPECIAL_2:
; 523  : 	case CRaceMotionData::NAME_SPECIAL_3:
; 524  : 	case CRaceMotionData::NAME_SPECIAL_4:
; 525  : 	case CRaceMotionData::NAME_SPECIAL_5:
; 526  : 	case CRaceMotionData::NAME_SPECIAL_6:
; 527  : 	case CRaceMotionData::NAME_FISHING_THROW:
; 528  : 	case CRaceMotionData::NAME_FISHING_WAIT:
; 529  : 	case CRaceMotionData::NAME_FISHING_STOP:
; 530  : 	case CRaceMotionData::NAME_FISHING_REACT:
; 531  : 	case CRaceMotionData::NAME_FISHING_CATCH:
; 532  : 	case CRaceMotionData::NAME_FISHING_FAIL:
; 533  : 	case CRaceMotionData::NAME_CLAP:
; 534  : 	case CRaceMotionData::NAME_DANCE_1:
; 535  : 	case CRaceMotionData::NAME_DANCE_2:
; 536  : 	case CRaceMotionData::NAME_DANCE_3:
; 537  : 	case CRaceMotionData::NAME_DANCE_4:
; 538  : 	case CRaceMotionData::NAME_DANCE_5:
; 539  : 	case CRaceMotionData::NAME_DANCE_6:
; 540  : 	case CRaceMotionData::NAME_CONGRATULATION:
; 541  : 	case CRaceMotionData::NAME_FORGIVE:
; 542  : 	case CRaceMotionData::NAME_ANGRY:
; 543  : 	case CRaceMotionData::NAME_ATTRACTIVE:
; 544  : 	case CRaceMotionData::NAME_SAD:
; 545  : 	case CRaceMotionData::NAME_SHY:
; 546  : 	case CRaceMotionData::NAME_CHEERUP:
; 547  : 	case CRaceMotionData::NAME_BANTER:
; 548  : 	case CRaceMotionData::NAME_JOY:
; 549  : 	case CRaceMotionData::NAME_CHEERS_1:
; 550  : 	case CRaceMotionData::NAME_CHEERS_2:
; 551  : 	case CRaceMotionData::NAME_KISS_WITH_WARRIOR:
; 552  : 	case CRaceMotionData::NAME_KISS_WITH_ASSASSIN:
; 553  : 	case CRaceMotionData::NAME_KISS_WITH_SURA:
; 554  : 	case CRaceMotionData::NAME_KISS_WITH_SHAMAN:
; 555  : #ifdef ENABLE_WOLFMAN_CHARACTER
; 556  : 	case CRaceMotionData::NAME_KISS_WITH_WOLFMAN:
; 557  : #endif
; 558  : 	case CRaceMotionData::NAME_FRENCH_KISS_WITH_WARRIOR:
; 559  : 	case CRaceMotionData::NAME_FRENCH_KISS_WITH_ASSASSIN:
; 560  : 	case CRaceMotionData::NAME_FRENCH_KISS_WITH_SURA:
; 561  : 	case CRaceMotionData::NAME_FRENCH_KISS_WITH_SHAMAN:
; 562  : #ifdef ENABLE_WOLFMAN_CHARACTER
; 563  : 	case CRaceMotionData::NAME_FRENCH_KISS_WITH_WOLFMAN:
; 564  : #endif
; 565  : 	case CRaceMotionData::NAME_SLAP_HIT_WITH_WARRIOR:
; 566  : 	case CRaceMotionData::NAME_SLAP_HIT_WITH_ASSASSIN:
; 567  : 	case CRaceMotionData::NAME_SLAP_HIT_WITH_SURA:
; 568  : 	case CRaceMotionData::NAME_SLAP_HIT_WITH_SHAMAN:
; 569  : #ifdef ENABLE_WOLFMAN_CHARACTER
; 570  : 	case CRaceMotionData::NAME_SLAP_HIT_WITH_WOLFMAN:
; 571  : #endif
; 572  : 	case CRaceMotionData::NAME_SLAP_HURT_WITH_WARRIOR:
; 573  : 	case CRaceMotionData::NAME_SLAP_HURT_WITH_ASSASSIN:
; 574  : 	case CRaceMotionData::NAME_SLAP_HURT_WITH_SURA:
; 575  : 	case CRaceMotionData::NAME_SLAP_HURT_WITH_SHAMAN:
; 576  : #ifdef ENABLE_WOLFMAN_CHARACTER
; 577  : 	case CRaceMotionData::NAME_SLAP_HURT_WITH_WOLFMAN:
; 578  : #endif
; 579  : 		return TRUE;
; 580  : 		break;
; 581  : 	}
; 582  : 
; 583  : 	// Locked during using skill
; 584  : 	if (IsUsingSkill())

  00042	8b ce		 mov	 ecx, esi
  00044	e8 00 00 00 00	 call	 ?IsUsingSkill@CActorInstance@@QAEHXZ ; CActorInstance::IsUsingSkill
  00049	85 c0		 test	 eax, eax
  0004b	74 16		 je	 SHORT $LN59@isLock

; 585  : 	{
; 586  : 		if (m_pkCurRaceMotionData->IsCancelEnableSkill())

  0004d	8b 8e 68 04 00
	00		 mov	 ecx, DWORD PTR [esi+1128]
  00053	e8 00 00 00 00	 call	 ?IsCancelEnableSkill@CRaceMotionData@@QBEHXZ ; CRaceMotionData::IsCancelEnableSkill
  00058	85 c0		 test	 eax, eax
  0005a	75 07		 jne	 SHORT $LN59@isLock
$LN60@isLock:

; 587  : 		{
; 588  : 			return FALSE;
; 589  : 		}
; 590  : 
; 591  : 		return TRUE;

  0005c	b8 01 00 00 00	 mov	 eax, 1
  00061	5e		 pop	 esi

; 595  : }

  00062	c3		 ret	 0
$LN59@isLock:

; 592  : 	}
; 593  : 
; 594  : 	return FALSE;

  00063	33 c0		 xor	 eax, eax
  00065	5e		 pop	 esi

; 595  : }

  00066	c3		 ret	 0
  00067	90		 npad	 1
$LN65@isLock:
  00068	00 00 00 00	 DD	 $LN60@isLock
  0006c	00 00 00 00	 DD	 $LN2@isLock
$LN64@isLock:
  00070	00		 DB	 0
  00071	00		 DB	 0
  00072	00		 DB	 0
  00073	00		 DB	 0
  00074	00		 DB	 0
  00075	00		 DB	 0
  00076	00		 DB	 0
  00077	00		 DB	 0
  00078	00		 DB	 0
  00079	01		 DB	 1
  0007a	01		 DB	 1
  0007b	01		 DB	 1
  0007c	01		 DB	 1
  0007d	00		 DB	 0
  0007e	00		 DB	 0
  0007f	00		 DB	 0
  00080	00		 DB	 0
  00081	00		 DB	 0
  00082	00		 DB	 0
  00083	01		 DB	 1
  00084	00		 DB	 0
  00085	00		 DB	 0
  00086	00		 DB	 0
  00087	00		 DB	 0
  00088	00		 DB	 0
  00089	00		 DB	 0
  0008a	66 90		 npad	 2
$LN67@isLock:
  0008c	00 00 00 00	 DD	 $LN60@isLock
  00090	00 00 00 00	 DD	 $LN2@isLock
$LN66@isLock:
  00094	00		 DB	 0
  00095	00		 DB	 0
  00096	00		 DB	 0
  00097	00		 DB	 0
  00098	00		 DB	 0
  00099	00		 DB	 0
  0009a	00		 DB	 0
  0009b	00		 DB	 0
  0009c	00		 DB	 0
  0009d	00		 DB	 0
  0009e	00		 DB	 0
  0009f	00		 DB	 0
  000a0	00		 DB	 0
  000a1	00		 DB	 0
  000a2	00		 DB	 0
  000a3	00		 DB	 0
  000a4	00		 DB	 0
  000a5	00		 DB	 0
  000a6	01		 DB	 1
  000a7	00		 DB	 0
  000a8	00		 DB	 0
  000a9	00		 DB	 0
  000aa	00		 DB	 0
  000ab	00		 DB	 0
  000ac	00		 DB	 0
  000ad	01		 DB	 1
  000ae	01		 DB	 1
  000af	01		 DB	 1
  000b0	01		 DB	 1
  000b1	01		 DB	 1
  000b2	01		 DB	 1
  000b3	01		 DB	 1
  000b4	01		 DB	 1
  000b5	01		 DB	 1
  000b6	01		 DB	 1
  000b7	01		 DB	 1
  000b8	00		 DB	 0
  000b9	00		 DB	 0
  000ba	00		 DB	 0
  000bb	00		 DB	 0
  000bc	00		 DB	 0
  000bd	00		 DB	 0
  000be	00		 DB	 0
  000bf	00		 DB	 0
  000c0	00		 DB	 0
?isLock@CActorInstance@@QAEHXZ ENDP			; CActorInstance::isLock
_TEXT	ENDS
; Function compile flags: /Ogtp
; File C:\Users\flourine\Desktop\Xantios\client-src\Code\GameLib\ActorInstanceMotion.cpp
;	COMDAT ?SetMotionLoopCount@CActorInstance@@QAEXH@Z
_TEXT	SEGMENT
_iCount$ = 8						; size = 4
?SetMotionLoopCount@CActorInstance@@QAEXH@Z PROC	; CActorInstance::SetMotionLoopCount, COMDAT
; _this$ = ecx

; 279  : {

  00000	55		 push	 ebp
  00001	8b ec		 mov	 ebp, esp

; 280  : 	assert(iCount >= -1 && iCount < 100);
; 281  : 	m_kCurMotNode.iLoopCount = iCount;

  00003	8b 45 08	 mov	 eax, DWORD PTR _iCount$[ebp]
  00006	89 81 70 03 00
	00		 mov	 DWORD PTR [ecx+880], eax

; 282  : }

  0000c	5d		 pop	 ebp
  0000d	c2 04 00	 ret	 4
?SetMotionLoopCount@CActorInstance@@QAEXH@Z ENDP	; CActorInstance::SetMotionLoopCount
_TEXT	ENDS
; Function compile flags: /Ogtp
; File C:\Users\flourine\Desktop\Xantios\client-src\Code\GameLib\ActorInstanceMotion.cpp
;	COMDAT ?PushLoopMotion@CActorInstance@@QAE_NKMM@Z
_TEXT	SEGMENT
_MotionKey$ = -4					; size = 4
_dwMotion$ = 8						; size = 4
_fBlendTime$ = 12					; size = 4
_fSpeedRatio$ = 16					; size = 4
?PushLoopMotion@CActorInstance@@QAE_NKMM@Z PROC		; CActorInstance::PushLoopMotion, COMDAT
; _this$ = ecx

; 437  : {

  00000	55		 push	 ebp
  00001	8b ec		 mov	 ebp, esp
  00003	51		 push	 ecx
  00004	56		 push	 esi
  00005	8b f1		 mov	 esi, ecx

; 438  : 	assert(m_pkCurRaceData);
; 439  : 
; 440  : 	MOTION_KEY MotionKey;
; 441  : 	if (!m_pkCurRaceData->GetMotionKey(m_wcurMotionMode, dwMotion, &MotionKey))

  00007	8d 45 fc	 lea	 eax, DWORD PTR _MotionKey$[ebp]
  0000a	50		 push	 eax
  0000b	ff 75 08	 push	 DWORD PTR _dwMotion$[ebp]
  0000e	0f b7 86 78 03
	00 00		 movzx	 eax, WORD PTR [esi+888]
  00015	8b 8e 64 04 00
	00		 mov	 ecx, DWORD PTR [esi+1124]
  0001b	50		 push	 eax
  0001c	e8 00 00 00 00	 call	 ?GetMotionKey@CRaceData@@QAEHGGPAK@Z ; CRaceData::GetMotionKey
  00021	85 c0		 test	 eax, eax
  00023	75 09		 jne	 SHORT $LN2@PushLoopMo

; 442  : 	{
; 443  : 		return false;

  00025	32 c0		 xor	 al, al
  00027	5e		 pop	 esi

; 448  : }

  00028	8b e5		 mov	 esp, ebp
  0002a	5d		 pop	 ebp
  0002b	c2 0c 00	 ret	 12			; 0000000cH
$LN2@PushLoopMo:

; 444  : 	}
; 445  : 
; 446  : 	PushMotion(MOTION_TYPE_LOOP, MotionKey, fBlendTime, fSpeedRatio);

  0002e	f3 0f 10 45 10	 movss	 xmm0, DWORD PTR _fSpeedRatio$[ebp]
  00033	83 ec 08	 sub	 esp, 8
  00036	8b ce		 mov	 ecx, esi
  00038	f3 0f 11 44 24
	04		 movss	 DWORD PTR [esp+4], xmm0
  0003e	f3 0f 10 45 0c	 movss	 xmm0, DWORD PTR _fBlendTime$[ebp]
  00043	f3 0f 11 04 24	 movss	 DWORD PTR [esp], xmm0
  00048	ff 75 fc	 push	 DWORD PTR _MotionKey$[ebp]
  0004b	6a 02		 push	 2
  0004d	e8 00 00 00 00	 call	 ?PushMotion@CActorInstance@@IAEXW4EMotionPushType@1@KMM@Z ; CActorInstance::PushMotion

; 447  : 	return true;

  00052	b0 01		 mov	 al, 1
  00054	5e		 pop	 esi

; 448  : }

  00055	8b e5		 mov	 esp, ebp
  00057	5d		 pop	 ebp
  00058	c2 0c 00	 ret	 12			; 0000000cH
?PushLoopMotion@CActorInstance@@QAE_NKMM@Z ENDP		; CActorInstance::PushLoopMotion
_TEXT	ENDS
; Function compile flags: /Ogtp
; File C:\Users\flourine\Desktop\Xantios\client-src\Code\GameLib\ActorInstanceMotion.cpp
;	COMDAT ?PushOnceMotion@CActorInstance@@QAE_NKMM@Z
_TEXT	SEGMENT
_MotionKey$ = -4					; size = 4
_dwMotion$ = 8						; size = 4
_fBlendTime$ = 12					; size = 4
_fSpeedRatio$ = 16					; size = 4
?PushOnceMotion@CActorInstance@@QAE_NKMM@Z PROC		; CActorInstance::PushOnceMotion, COMDAT
; _this$ = ecx

; 423  : {

  00000	55		 push	 ebp
  00001	8b ec		 mov	 ebp, esp
  00003	51		 push	 ecx
  00004	56		 push	 esi
  00005	8b f1		 mov	 esi, ecx

; 424  : 	assert(m_pkCurRaceData);
; 425  : 
; 426  : 	MOTION_KEY MotionKey;
; 427  : 	if (!m_pkCurRaceData->GetMotionKey(m_wcurMotionMode, dwMotion, &MotionKey))

  00007	8d 45 fc	 lea	 eax, DWORD PTR _MotionKey$[ebp]
  0000a	50		 push	 eax
  0000b	ff 75 08	 push	 DWORD PTR _dwMotion$[ebp]
  0000e	0f b7 86 78 03
	00 00		 movzx	 eax, WORD PTR [esi+888]
  00015	8b 8e 64 04 00
	00		 mov	 ecx, DWORD PTR [esi+1124]
  0001b	50		 push	 eax
  0001c	e8 00 00 00 00	 call	 ?GetMotionKey@CRaceData@@QAEHGGPAK@Z ; CRaceData::GetMotionKey
  00021	85 c0		 test	 eax, eax
  00023	75 09		 jne	 SHORT $LN2@PushOnceMo

; 428  : 	{
; 429  : 		return false;

  00025	32 c0		 xor	 al, al
  00027	5e		 pop	 esi

; 434  : }

  00028	8b e5		 mov	 esp, ebp
  0002a	5d		 pop	 ebp
  0002b	c2 0c 00	 ret	 12			; 0000000cH
$LN2@PushOnceMo:

; 430  : 	}
; 431  : 
; 432  : 	PushMotion(MOTION_TYPE_ONCE, MotionKey, fBlendTime, fSpeedRatio);

  0002e	f3 0f 10 45 10	 movss	 xmm0, DWORD PTR _fSpeedRatio$[ebp]
  00033	83 ec 08	 sub	 esp, 8
  00036	8b ce		 mov	 ecx, esi
  00038	f3 0f 11 44 24
	04		 movss	 DWORD PTR [esp+4], xmm0
  0003e	f3 0f 10 45 0c	 movss	 xmm0, DWORD PTR _fBlendTime$[ebp]
  00043	f3 0f 11 04 24	 movss	 DWORD PTR [esp], xmm0
  00048	ff 75 fc	 push	 DWORD PTR _MotionKey$[ebp]
  0004b	6a 01		 push	 1
  0004d	e8 00 00 00 00	 call	 ?PushMotion@CActorInstance@@IAEXW4EMotionPushType@1@KMM@Z ; CActorInstance::PushMotion

; 433  : 	return true;

  00052	b0 01		 mov	 al, 1
  00054	5e		 pop	 esi

; 434  : }

  00055	8b e5		 mov	 esp, ebp
  00057	5d		 pop	 ebp
  00058	c2 0c 00	 ret	 12			; 0000000cH
?PushOnceMotion@CActorInstance@@QAE_NKMM@Z ENDP		; CActorInstance::PushOnceMotion
_TEXT	ENDS
; Function compile flags: /Ogtp
; File C:\Users\flourine\Desktop\Xantios\client-src\Code\GameLib\ActorInstanceMotion.cpp
;	COMDAT ?InterceptLoopMotion@CActorInstance@@QAE_NKM@Z
_TEXT	SEGMENT
_dwMotion$ = 8						; size = 4
_fBlendTime$ = 12					; size = 4
?InterceptLoopMotion@CActorInstance@@QAE_NKM@Z PROC	; CActorInstance::InterceptLoopMotion, COMDAT
; _this$ = ecx

; 310  : {

  00000	55		 push	 ebp
  00001	8b ec		 mov	 ebp, esp

; 311  : 	return InterceptMotion(MOTION_TYPE_LOOP, dwMotion, fBlendTime);

  00003	f3 0f 10 45 0c	 movss	 xmm0, DWORD PTR _fBlendTime$[ebp]
  00008	51		 push	 ecx
  00009	c7 04 24 00 00
	80 3f		 mov	 DWORD PTR [esp], 1065353216 ; 3f800000H
  00010	6a 00		 push	 0
  00012	51		 push	 ecx
  00013	f3 0f 11 04 24	 movss	 DWORD PTR [esp], xmm0
  00018	ff 75 08	 push	 DWORD PTR _dwMotion$[ebp]
  0001b	6a 02		 push	 2
  0001d	e8 00 00 00 00	 call	 ?InterceptMotion@CActorInstance@@IAE_NW4EMotionPushType@1@GMIM@Z ; CActorInstance::InterceptMotion

; 312  : }

  00022	5d		 pop	 ebp
  00023	c2 08 00	 ret	 8
?InterceptLoopMotion@CActorInstance@@QAE_NKM@Z ENDP	; CActorInstance::InterceptLoopMotion
_TEXT	ENDS
; Function compile flags: /Ogtp
; File C:\Users\flourine\Desktop\Xantios\client-src\Code\GameLib\ActorInstanceMotion.cpp
;	COMDAT ?InterceptOnceMotion@CActorInstance@@QAE_NKMIM@Z
_TEXT	SEGMENT
_dwMotion$ = 8						; size = 4
_fBlendTime$ = 12					; size = 4
_uSkill$ = 16						; size = 4
_fSpeedRatio$ = 20					; size = 4
?InterceptOnceMotion@CActorInstance@@QAE_NKMIM@Z PROC	; CActorInstance::InterceptOnceMotion, COMDAT
; _this$ = ecx

; 305  : {

  00000	55		 push	 ebp
  00001	8b ec		 mov	 ebp, esp

; 306  : 	return InterceptMotion(MOTION_TYPE_ONCE, dwMotion, fBlendTime, uSkill, fSpeedRatio);

  00003	f3 0f 10 45 14	 movss	 xmm0, DWORD PTR _fSpeedRatio$[ebp]
  00008	51		 push	 ecx
  00009	f3 0f 11 04 24	 movss	 DWORD PTR [esp], xmm0
  0000e	ff 75 10	 push	 DWORD PTR _uSkill$[ebp]
  00011	f3 0f 10 45 0c	 movss	 xmm0, DWORD PTR _fBlendTime$[ebp]
  00016	51		 push	 ecx
  00017	f3 0f 11 04 24	 movss	 DWORD PTR [esp], xmm0
  0001c	ff 75 08	 push	 DWORD PTR _dwMotion$[ebp]
  0001f	6a 01		 push	 1
  00021	e8 00 00 00 00	 call	 ?InterceptMotion@CActorInstance@@IAE_NW4EMotionPushType@1@GMIM@Z ; CActorInstance::InterceptMotion

; 307  : }

  00026	5d		 pop	 ebp
  00027	c2 10 00	 ret	 16			; 00000010H
?InterceptOnceMotion@CActorInstance@@QAE_NKMIM@Z ENDP	; CActorInstance::InterceptOnceMotion
_TEXT	ENDS
; Function compile flags: /Ogtp
; File C:\Users\flourine\Desktop\Xantios\client-src\Code\GameLib\ActorInstanceMotion.cpp
; File C:\Users\flourine\Desktop\Xantios\client-src\Code\GameLib\ActorInstance.h
; File C:\Users\flourine\Desktop\Xantios\client-src\Code\GameLib\ActorInstanceMotion.cpp
;	COMDAT ?SetLoopMotion@CActorInstance@@QAEXKMM@Z
_TEXT	SEGMENT
_kSetMotData$ = -24					; size = 20
_dwMotionKey$ = -4					; size = 4
_dwMotion$ = 8						; size = 4
_fBlendTime$ = 12					; size = 4
tv218 = 16						; size = 4
tv216 = 16						; size = 4
_fSpeedRatio$ = 16					; size = 4
?SetLoopMotion@CActorInstance@@QAEXKMM@Z PROC		; CActorInstance::SetLoopMotion, COMDAT
; _this$ = ecx

; 315  : {

  00000	55		 push	 ebp
  00001	8b ec		 mov	 ebp, esp
  00003	83 ec 18	 sub	 esp, 24			; 00000018H
  00006	56		 push	 esi
  00007	8b f1		 mov	 esi, ecx

; 316  : 	if (!m_pkCurRaceData)

  00009	8b 8e 64 04 00
	00		 mov	 ecx, DWORD PTR [esi+1124]
  0000f	85 c9		 test	 ecx, ecx
  00011	75 35		 jne	 SHORT $LN2@SetLoopMot

; 317  : 	{
; 318  : 		Tracenf("CActorInstance::SetLoopMotion(dwMotion=%d, fBlendTime=%f, fSpeedRatio=%f)",

  00013	f3 0f 10 45 10	 movss	 xmm0, DWORD PTR _fSpeedRatio$[ebp]
  00018	83 ec 10	 sub	 esp, 16			; 00000010H
  0001b	0f 5a c0	 cvtps2pd xmm0, xmm0
  0001e	f2 0f 11 44 24
	08		 movsd	 QWORD PTR [esp+8], xmm0
  00024	f3 0f 10 45 0c	 movss	 xmm0, DWORD PTR _fBlendTime$[ebp]
  00029	0f 5a c0	 cvtps2pd xmm0, xmm0
  0002c	f2 0f 11 04 24	 movsd	 QWORD PTR [esp], xmm0
  00031	ff 75 08	 push	 DWORD PTR _dwMotion$[ebp]
  00034	68 00 00 00 00	 push	 OFFSET ??_C@_0EK@IFOPNGGO@CActorInstance?3?3SetLoopMotion?$CId@
  00039	e8 00 00 00 00	 call	 ?Tracenf@@YAXPBDZZ	; Tracenf
  0003e	83 c4 18	 add	 esp, 24			; 00000018H
  00041	5e		 pop	 esi

; 353  : }

  00042	8b e5		 mov	 esp, ebp
  00044	5d		 pop	 ebp
  00045	c2 0c 00	 ret	 12			; 0000000cH
$LN2@SetLoopMot:
  00048	57		 push	 edi

; 319  : 				dwMotion, fBlendTime, fSpeedRatio);
; 320  : 		return;
; 321  : 	}
; 322  : 
; 323  : 	MOTION_KEY dwMotionKey;
; 324  : 	if (!m_pkCurRaceData->GetMotionKey(m_wcurMotionMode, dwMotion, &dwMotionKey))

  00049	8b 7d 08	 mov	 edi, DWORD PTR _dwMotion$[ebp]
  0004c	8d 45 fc	 lea	 eax, DWORD PTR _dwMotionKey$[ebp]
  0004f	50		 push	 eax
  00050	0f b7 86 78 03
	00 00		 movzx	 eax, WORD PTR [esi+888]
  00057	57		 push	 edi
  00058	50		 push	 eax
  00059	e8 00 00 00 00	 call	 ?GetMotionKey@CRaceData@@QAEHGGPAK@Z ; CRaceData::GetMotionKey
  0005e	85 c0		 test	 eax, eax
  00060	75 3d		 jne	 SHORT $LN3@SetLoopMot

; 325  : 	{
; 326  : 		Tracenf("CActorInstance::SetLoopMotion(dwMotion=%d, fBlendTime=%f, fSpeedRatio=%f) - GetMotionKey(m_wcurMotionMode=%d, dwMotion=%d, &MotionKey) ERROR",

  00062	f3 0f 10 45 10	 movss	 xmm0, DWORD PTR _fSpeedRatio$[ebp]
  00067	0f b7 86 78 03
	00 00		 movzx	 eax, WORD PTR [esi+888]
  0006e	57		 push	 edi
  0006f	0f 5a c0	 cvtps2pd xmm0, xmm0
  00072	50		 push	 eax
  00073	83 ec 10	 sub	 esp, 16			; 00000010H
  00076	f2 0f 11 44 24
	08		 movsd	 QWORD PTR [esp+8], xmm0
  0007c	f3 0f 10 45 0c	 movss	 xmm0, DWORD PTR _fBlendTime$[ebp]
  00081	0f 5a c0	 cvtps2pd xmm0, xmm0
  00084	f2 0f 11 04 24	 movsd	 QWORD PTR [esp], xmm0
  00089	57		 push	 edi
  0008a	68 00 00 00 00	 push	 OFFSET ??_C@_0IN@JKOADFII@CActorInstance?3?3SetLoopMotion?$CId@
  0008f	e8 00 00 00 00	 call	 ?Tracenf@@YAXPBDZZ	; Tracenf
  00094	83 c4 20	 add	 esp, 32			; 00000020H
  00097	5f		 pop	 edi
  00098	5e		 pop	 esi

; 353  : }

  00099	8b e5		 mov	 esp, ebp
  0009b	5d		 pop	 ebp
  0009c	c2 0c 00	 ret	 12			; 0000000cH
$LN3@SetLoopMot:

; 327  : 				dwMotion, fBlendTime, fSpeedRatio, m_wcurMotionMode, dwMotion);
; 328  : 		return;
; 329  : 	}
; 330  : 
; 331  : 	__ClearMotion();

  0009f	8b ce		 mov	 ecx, esi
  000a1	e8 00 00 00 00	 call	 ?__ClearMotion@CActorInstance@@IAEXXZ ; CActorInstance::__ClearMotion

; 332  : 
; 333  : 	SSetMotionData kSetMotData;
; 334  : 	kSetMotData.dwMotKey = dwMotionKey;

  000a6	8b 45 fc	 mov	 eax, DWORD PTR _dwMotionKey$[ebp]

; 337  : 
; 338  : 	DWORD dwRealMotionKey = __SetMotion(kSetMotData);

  000a9	8b ce		 mov	 ecx, esi
  000ab	f3 0f 10 45 0c	 movss	 xmm0, DWORD PTR _fBlendTime$[ebp]
  000b0	89 45 e8	 mov	 DWORD PTR _kSetMotData$[ebp], eax
  000b3	8d 45 e8	 lea	 eax, DWORD PTR _kSetMotData$[ebp]
  000b6	f3 0f 11 45 f0	 movss	 DWORD PTR _kSetMotData$[ebp+8], xmm0
  000bb	f3 0f 10 45 10	 movss	 xmm0, DWORD PTR _fSpeedRatio$[ebp]
  000c0	6a 00		 push	 0
  000c2	50		 push	 eax
; File C:\Users\flourine\Desktop\Xantios\client-src\Code\GameLib\ActorInstance.h

; 656  : 			iLoopCount = 0;

  000c3	c7 45 f4 00 00
	00 00		 mov	 DWORD PTR _kSetMotData$[ebp+12], 0

; 657  : 			dwMotKey = 0;
; 658  : 			fSpeedRatio = 1.0f;
; 659  : 			fBlendTime = 0.0f;
; 660  : 			uSkill = 0;

  000ca	c7 45 f8 00 00
	00 00		 mov	 DWORD PTR _kSetMotData$[ebp+16], 0
; File C:\Users\flourine\Desktop\Xantios\client-src\Code\GameLib\ActorInstanceMotion.cpp

; 336  : 	kSetMotData.fSpeedRatio = fSpeedRatio;

  000d1	f3 0f 11 45 ec	 movss	 DWORD PTR _kSetMotData$[ebp+4], xmm0

; 337  : 
; 338  : 	DWORD dwRealMotionKey = __SetMotion(kSetMotData);

  000d6	e8 00 00 00 00	 call	 ?__SetMotion@CActorInstance@@IAEKABUSSetMotionData@1@K@Z ; CActorInstance::__SetMotion
  000db	8b f8		 mov	 edi, eax

; 339  : 
; 340  : 	if (0 == dwRealMotionKey)

  000dd	85 ff		 test	 edi, edi
  000df	74 7b		 je	 SHORT $LN8@SetLoopMot

; 341  : 	{
; 342  : 		return;
; 343  : 	}
; 344  : 
; 345  : 	m_kCurMotNode.iMotionType = MOTION_TYPE_LOOP;
; 346  : 	m_kCurMotNode.fStartTime = GetLocalTime();

  000e1	8b ce		 mov	 ecx, esi
  000e3	c7 86 54 03 00
	00 02 00 00 00	 mov	 DWORD PTR [esi+852], 2
  000ed	e8 00 00 00 00	 call	 ?GetLocalTime@CGraphicThingInstance@@QAEMXZ ; CGraphicThingInstance::GetLocalTime

; 347  : 	m_kCurMotNode.dwMotionKey = dwRealMotionKey;
; 348  : 	m_kCurMotNode.fEndTime = 0.0f;
; 349  : 	m_kCurMotNode.fSpeedRatio = fSpeedRatio;

  000f2	f3 0f 10 45 10	 movss	 xmm0, DWORD PTR _fSpeedRatio$[ebp]

; 350  : 	m_kCurMotNode.dwcurFrame = 0;
; 351  : 	m_kCurMotNode.dwFrameCount = GetMotionDuration(dwRealMotionKey) / (1.0f / g_fGameFPS);

  000f7	8b ce		 mov	 ecx, esi
  000f9	d9 9e 64 03 00
	00		 fstp	 DWORD PTR [esi+868]
  000ff	57		 push	 edi
  00100	89 be 58 03 00
	00		 mov	 DWORD PTR [esi+856], edi
  00106	c7 86 68 03 00
	00 00 00 00 00	 mov	 DWORD PTR [esi+872], 0
  00110	f3 0f 11 86 6c
	03 00 00	 movss	 DWORD PTR [esi+876], xmm0
  00118	c7 86 5c 03 00
	00 00 00 00 00	 mov	 DWORD PTR [esi+860], 0
  00122	e8 00 00 00 00	 call	 ?GetMotionDuration@CActorInstance@@IAEMK@Z ; CActorInstance::GetMotionDuration
  00127	f3 0f 10 05 00
	00 00 00	 movss	 xmm0, DWORD PTR __real@3f800000
  0012f	f3 0f 5e 05 00
	00 00 00	 divss	 xmm0, DWORD PTR ?g_fGameFPS@@3MA
  00137	f3 0f 11 45 10	 movss	 DWORD PTR tv218[ebp], xmm0
  0013c	d8 75 10	 fdiv	 DWORD PTR tv218[ebp]
  0013f	d9 5d 10	 fstp	 DWORD PTR tv216[ebp]
  00142	f3 0f 10 45 10	 movss	 xmm0, DWORD PTR tv216[ebp]
  00147	e8 00 00 00 00	 call	 __ftol3
  0014c	89 86 60 03 00
	00		 mov	 DWORD PTR [esi+864], eax

; 352  : 	m_kCurMotNode.uSkill = 0;

  00152	c7 86 74 03 00
	00 00 00 00 00	 mov	 DWORD PTR [esi+884], 0
$LN8@SetLoopMot:
  0015c	5f		 pop	 edi
  0015d	5e		 pop	 esi

; 353  : }

  0015e	8b e5		 mov	 esp, ebp
  00160	5d		 pop	 ebp
  00161	c2 0c 00	 ret	 12			; 0000000cH
?SetLoopMotion@CActorInstance@@QAEXKMM@Z ENDP		; CActorInstance::SetLoopMotion
_TEXT	ENDS
; Function compile flags: /Ogtp
; File C:\Users\flourine\Desktop\Xantios\client-src\Code\GameLib\ActorInstanceMotion.cpp
;	COMDAT ?GetMotionMode@CActorInstance@@QAEHXZ
_TEXT	SEGMENT
?GetMotionMode@CActorInstance@@QAEHXZ PROC		; CActorInstance::GetMotionMode, COMDAT
; _this$ = ecx

; 275  : 	return m_wcurMotionMode;

  00000	0f b7 81 78 03
	00 00		 movzx	 eax, WORD PTR [ecx+888]

; 276  : }

  00007	c3		 ret	 0
?GetMotionMode@CActorInstance@@QAEHXZ ENDP		; CActorInstance::GetMotionMode
_TEXT	ENDS
; Function compile flags: /Ogtp
; File C:\Users\flourine\Desktop\Xantios\client-src\Code\GameLib\ActorInstanceMotion.cpp
;	COMDAT ?SetMotionMode@CActorInstance@@QAEXH@Z
_TEXT	SEGMENT
_iMotionMode$ = 8					; size = 4
?SetMotionMode@CActorInstance@@QAEXH@Z PROC		; CActorInstance::SetMotionMode, COMDAT
; _this$ = ecx

; 264  : {

  00000	55		 push	 ebp
  00001	8b ec		 mov	 ebp, esp
  00003	56		 push	 esi
  00004	8b f1		 mov	 esi, ecx

; 265  : 	if (IsPoly())

  00006	e8 00 00 00 00	 call	 ?IsPoly@CActorInstance@@QAE_NXZ ; CActorInstance::IsPoly
  0000b	8b 55 08	 mov	 edx, DWORD PTR _iMotionMode$[ebp]
  0000e	84 c0		 test	 al, al
  00010	b9 01 00 00 00	 mov	 ecx, 1
  00015	0f 45 d1	 cmovne	 edx, ecx

; 266  : 	{
; 267  : 		iMotionMode = CRaceMotionData::MODE_GENERAL;
; 268  : 	}
; 269  : 
; 270  : 	m_wcurMotionMode = iMotionMode;

  00018	66 89 96 78 03
	00 00		 mov	 WORD PTR [esi+888], dx
  0001f	5e		 pop	 esi

; 271  : }

  00020	5d		 pop	 ebp
  00021	c2 04 00	 ret	 4
?SetMotionMode@CActorInstance@@QAEXH@Z ENDP		; CActorInstance::SetMotionMode
_TEXT	ENDS
; Function compile flags: /Ogtp
; File C:\Program Files\Microsoft Visual Studio\2022\Community\VC\Tools\MSVC\14.34.31933\include\xmemory
;	COMDAT ??$_Allocate_manually_vector_aligned@U_Default_allocate_traits@std@@@std@@YAPAXI@Z
_TEXT	SEGMENT
__Bytes$ = 8						; size = 4
??$_Allocate_manually_vector_aligned@U_Default_allocate_traits@std@@@std@@YAPAXI@Z PROC ; std::_Allocate_manually_vector_aligned<std::_Default_allocate_traits>, COMDAT

; 127  : __declspec(allocator) void* _Allocate_manually_vector_aligned(const size_t _Bytes) {

  00000	55		 push	 ebp
  00001	8b ec		 mov	 ebp, esp

; 128  :     // allocate _Bytes manually aligned to at least _Big_allocation_alignment
; 129  :     const size_t _Block_size = _Non_user_size + _Bytes;

  00003	8b 45 08	 mov	 eax, DWORD PTR __Bytes$[ebp]
  00006	8d 48 23	 lea	 ecx, DWORD PTR [eax+35]

; 130  :     if (_Block_size <= _Bytes) {

  00009	3b c8		 cmp	 ecx, eax
  0000b	0f 86 00 00 00
	00		 jbe	 ?_Throw_bad_array_new_length@std@@YAXXZ ; std::_Throw_bad_array_new_length

; 77   :         return ::operator new(_Bytes);

  00011	51		 push	 ecx
  00012	e8 00 00 00 00	 call	 ??2@YAPAXI@Z		; operator new

; 131  :         _Throw_bad_array_new_length(); // add overflow
; 132  :     }
; 133  : 
; 134  :     const uintptr_t _Ptr_container = reinterpret_cast<uintptr_t>(_Traits::_Allocate(_Block_size));

  00017	8b c8		 mov	 ecx, eax

; 77   :         return ::operator new(_Bytes);

  00019	83 c4 04	 add	 esp, 4

; 135  :     _STL_VERIFY(_Ptr_container != 0, "invalid argument"); // validate even in release since we're doing p[-1]

  0001c	85 c9		 test	 ecx, ecx
  0001e	74 0b		 je	 SHORT $LN7@Allocate_m

; 136  :     void* const _Ptr = reinterpret_cast<void*>((_Ptr_container + _Non_user_size) & ~(_Big_allocation_alignment - 1));

  00020	8d 41 23	 lea	 eax, DWORD PTR [ecx+35]
  00023	83 e0 e0	 and	 eax, -32		; ffffffe0H

; 137  :     static_cast<uintptr_t*>(_Ptr)[-1] = _Ptr_container;

  00026	89 48 fc	 mov	 DWORD PTR [eax-4], ecx

; 138  : 
; 139  : #ifdef _DEBUG
; 140  :     static_cast<uintptr_t*>(_Ptr)[-2] = _Big_allocation_sentinel;
; 141  : #endif // _DEBUG
; 142  :     return _Ptr;
; 143  : }

  00029	5d		 pop	 ebp
  0002a	c3		 ret	 0
$LN7@Allocate_m:

; 135  :     _STL_VERIFY(_Ptr_container != 0, "invalid argument"); // validate even in release since we're doing p[-1]

  0002b	e9 00 00 00 00	 jmp	 __invalid_parameter_noinfo_noreturn
??$_Allocate_manually_vector_aligned@U_Default_allocate_traits@std@@@std@@YAPAXI@Z ENDP ; std::_Allocate_manually_vector_aligned<std::_Default_allocate_traits>
_TEXT	ENDS
; Function compile flags: /Ogtp
; File C:\Program Files\Microsoft Visual Studio\2022\Community\VC\Tools\MSVC\14.34.31933\include\exception
;	COMDAT ?_Throw_bad_array_new_length@std@@YAXXZ
_TEXT	SEGMENT
$T1 = -12						; size = 12
?_Throw_bad_array_new_length@std@@YAXXZ PROC		; std::_Throw_bad_array_new_length, COMDAT

; 323  : [[noreturn]] inline void _Throw_bad_array_new_length() {

  00000	55		 push	 ebp
  00001	8b ec		 mov	 ebp, esp
  00003	83 ec 0c	 sub	 esp, 12			; 0000000cH

; 324  :     _THROW(bad_array_new_length{});

  00006	8d 4d f4	 lea	 ecx, DWORD PTR $T1[ebp]
  00009	e8 00 00 00 00	 call	 ??0bad_array_new_length@std@@QAE@XZ ; std::bad_array_new_length::bad_array_new_length
  0000e	68 00 00 00 00	 push	 OFFSET __TI3?AVbad_array_new_length@std@@
  00013	8d 45 f4	 lea	 eax, DWORD PTR $T1[ebp]
  00016	50		 push	 eax
  00017	e8 00 00 00 00	 call	 __CxxThrowException@8
$LN3@Throw_bad_:
  0001c	cc		 int	 3
?_Throw_bad_array_new_length@std@@YAXXZ ENDP		; std::_Throw_bad_array_new_length
_TEXT	ENDS
; Function compile flags: /Ogtp
; File C:\Program Files\Microsoft Visual Studio\2022\Community\VC\Tools\MSVC\14.34.31933\include\vcruntime_exception.h
;	COMDAT ??_Gbad_array_new_length@std@@UAEPAXI@Z
_TEXT	SEGMENT
___flags$ = 8						; size = 4
??_Gbad_array_new_length@std@@UAEPAXI@Z PROC		; std::bad_array_new_length::`scalar deleting destructor', COMDAT
; _this$ = ecx
  00000	55		 push	 ebp
  00001	8b ec		 mov	 ebp, esp

; 89   :     {

  00003	56		 push	 esi
  00004	8b f1		 mov	 esi, ecx

; 90   :         __std_exception_destroy(&_Data);

  00006	8d 46 04	 lea	 eax, DWORD PTR [esi+4]
  00009	c7 06 00 00 00
	00		 mov	 DWORD PTR [esi], OFFSET ??_7exception@std@@6B@
  0000f	50		 push	 eax
  00010	e8 00 00 00 00	 call	 ___std_exception_destroy
  00015	83 c4 04	 add	 esp, 4
  00018	f6 45 08 01	 test	 BYTE PTR ___flags$[ebp], 1
  0001c	74 0b		 je	 SHORT $LN12@scalar
  0001e	6a 0c		 push	 12			; 0000000cH
  00020	56		 push	 esi
  00021	e8 00 00 00 00	 call	 ??3@YAXPAXI@Z		; operator delete
  00026	83 c4 08	 add	 esp, 8
$LN12@scalar:
  00029	8b c6		 mov	 eax, esi
  0002b	5e		 pop	 esi
  0002c	5d		 pop	 ebp
  0002d	c2 04 00	 ret	 4
??_Gbad_array_new_length@std@@UAEPAXI@Z ENDP		; std::bad_array_new_length::`scalar deleting destructor'
_TEXT	ENDS
; Function compile flags: /Ogtp
; File C:\Program Files\Microsoft Visual Studio\2022\Community\VC\Tools\MSVC\14.34.31933\include\vcruntime_exception.h
;	COMDAT ??0bad_array_new_length@std@@QAE@ABV01@@Z
_TEXT	SEGMENT
___that$ = 8						; size = 4
??0bad_array_new_length@std@@QAE@ABV01@@Z PROC		; std::bad_array_new_length::bad_array_new_length, COMDAT
; _this$ = ecx
  00000	55		 push	 ebp
  00001	8b ec		 mov	 ebp, esp

; 72   :     {

  00003	56		 push	 esi
  00004	8b f1		 mov	 esi, ecx
  00006	0f 57 c0	 xorps	 xmm0, xmm0

; 71   :         : _Data()

  00009	8d 46 04	 lea	 eax, DWORD PTR [esi+4]

; 73   :         __std_exception_copy(&_Other._Data, &_Data);

  0000c	50		 push	 eax
  0000d	c7 06 00 00 00
	00		 mov	 DWORD PTR [esi], OFFSET ??_7exception@std@@6B@
  00013	66 0f d6 00	 movq	 QWORD PTR [eax], xmm0
  00017	8b 45 08	 mov	 eax, DWORD PTR ___that$[ebp]
  0001a	83 c0 04	 add	 eax, 4
  0001d	50		 push	 eax
  0001e	e8 00 00 00 00	 call	 ___std_exception_copy
  00023	83 c4 08	 add	 esp, 8
  00026	c7 06 00 00 00
	00		 mov	 DWORD PTR [esi], OFFSET ??_7bad_array_new_length@std@@6B@
  0002c	8b c6		 mov	 eax, esi
  0002e	5e		 pop	 esi
  0002f	5d		 pop	 ebp
  00030	c2 04 00	 ret	 4
??0bad_array_new_length@std@@QAE@ABV01@@Z ENDP		; std::bad_array_new_length::bad_array_new_length
_TEXT	ENDS
; Function compile flags: /Ogtp
; File C:\Program Files\Microsoft Visual Studio\2022\Community\VC\Tools\MSVC\14.34.31933\include\vcruntime_exception.h
;	COMDAT ??1bad_array_new_length@std@@UAE@XZ
_TEXT	SEGMENT
??1bad_array_new_length@std@@UAE@XZ PROC		; std::bad_array_new_length::~bad_array_new_length, COMDAT
; _this$ = ecx

; 90   :         __std_exception_destroy(&_Data);

  00000	8d 41 04	 lea	 eax, DWORD PTR [ecx+4]
  00003	c7 01 00 00 00
	00		 mov	 DWORD PTR [ecx], OFFSET ??_7exception@std@@6B@
  00009	50		 push	 eax
  0000a	e8 00 00 00 00	 call	 ___std_exception_destroy
  0000f	59		 pop	 ecx
  00010	c3		 ret	 0
??1bad_array_new_length@std@@UAE@XZ ENDP		; std::bad_array_new_length::~bad_array_new_length
_TEXT	ENDS
; Function compile flags: /Ogtp
; File C:\Program Files\Microsoft Visual Studio\2022\Community\VC\Tools\MSVC\14.34.31933\include\vcruntime_exception.h
;	COMDAT ??0bad_array_new_length@std@@QAE@XZ
_TEXT	SEGMENT
??0bad_array_new_length@std@@QAE@XZ PROC		; std::bad_array_new_length::bad_array_new_length, COMDAT
; _this$ = ecx

; 141  :     {

  00000	0f 57 c0	 xorps	 xmm0, xmm0

; 142  :     }

  00003	8b c1		 mov	 eax, ecx

; 65   :         : _Data()

  00005	66 0f d6 41 04	 movq	 QWORD PTR [ecx+4], xmm0

; 66   :     {
; 67   :         _Data._What = _Message;

  0000a	c7 41 04 00 00
	00 00		 mov	 DWORD PTR [ecx+4], OFFSET ??_C@_0BF@KINCDENJ@bad?5array?5new?5length@

; 141  :     {

  00011	c7 01 00 00 00
	00		 mov	 DWORD PTR [ecx], OFFSET ??_7bad_array_new_length@std@@6B@

; 142  :     }

  00017	c3		 ret	 0
??0bad_array_new_length@std@@QAE@XZ ENDP		; std::bad_array_new_length::bad_array_new_length
_TEXT	ENDS
; Function compile flags: /Ogtp
; File C:\Program Files\Microsoft Visual Studio\2022\Community\VC\Tools\MSVC\14.34.31933\include\vcruntime_exception.h
;	COMDAT ??_Gbad_alloc@std@@UAEPAXI@Z
_TEXT	SEGMENT
___flags$ = 8						; size = 4
??_Gbad_alloc@std@@UAEPAXI@Z PROC			; std::bad_alloc::`scalar deleting destructor', COMDAT
; _this$ = ecx
  00000	55		 push	 ebp
  00001	8b ec		 mov	 ebp, esp

; 89   :     {

  00003	56		 push	 esi
  00004	8b f1		 mov	 esi, ecx

; 90   :         __std_exception_destroy(&_Data);

  00006	8d 46 04	 lea	 eax, DWORD PTR [esi+4]
  00009	c7 06 00 00 00
	00		 mov	 DWORD PTR [esi], OFFSET ??_7exception@std@@6B@
  0000f	50		 push	 eax
  00010	e8 00 00 00 00	 call	 ___std_exception_destroy
  00015	83 c4 04	 add	 esp, 4
  00018	f6 45 08 01	 test	 BYTE PTR ___flags$[ebp], 1
  0001c	74 0b		 je	 SHORT $LN9@scalar
  0001e	6a 0c		 push	 12			; 0000000cH
  00020	56		 push	 esi
  00021	e8 00 00 00 00	 call	 ??3@YAXPAXI@Z		; operator delete
  00026	83 c4 08	 add	 esp, 8
$LN9@scalar:
  00029	8b c6		 mov	 eax, esi
  0002b	5e		 pop	 esi
  0002c	5d		 pop	 ebp
  0002d	c2 04 00	 ret	 4
??_Gbad_alloc@std@@UAEPAXI@Z ENDP			; std::bad_alloc::`scalar deleting destructor'
_TEXT	ENDS
; Function compile flags: /Ogtp
; File C:\Program Files\Microsoft Visual Studio\2022\Community\VC\Tools\MSVC\14.34.31933\include\vcruntime_exception.h
;	COMDAT ??0bad_alloc@std@@QAE@ABV01@@Z
_TEXT	SEGMENT
___that$ = 8						; size = 4
??0bad_alloc@std@@QAE@ABV01@@Z PROC			; std::bad_alloc::bad_alloc, COMDAT
; _this$ = ecx
  00000	55		 push	 ebp
  00001	8b ec		 mov	 ebp, esp

; 72   :     {

  00003	56		 push	 esi
  00004	8b f1		 mov	 esi, ecx
  00006	0f 57 c0	 xorps	 xmm0, xmm0

; 71   :         : _Data()

  00009	8d 46 04	 lea	 eax, DWORD PTR [esi+4]

; 73   :         __std_exception_copy(&_Other._Data, &_Data);

  0000c	50		 push	 eax
  0000d	c7 06 00 00 00
	00		 mov	 DWORD PTR [esi], OFFSET ??_7exception@std@@6B@
  00013	66 0f d6 00	 movq	 QWORD PTR [eax], xmm0
  00017	8b 45 08	 mov	 eax, DWORD PTR ___that$[ebp]
  0001a	83 c0 04	 add	 eax, 4
  0001d	50		 push	 eax
  0001e	e8 00 00 00 00	 call	 ___std_exception_copy
  00023	83 c4 08	 add	 esp, 8
  00026	c7 06 00 00 00
	00		 mov	 DWORD PTR [esi], OFFSET ??_7bad_alloc@std@@6B@
  0002c	8b c6		 mov	 eax, esi
  0002e	5e		 pop	 esi
  0002f	5d		 pop	 ebp
  00030	c2 04 00	 ret	 4
??0bad_alloc@std@@QAE@ABV01@@Z ENDP			; std::bad_alloc::bad_alloc
_TEXT	ENDS
; Function compile flags: /Ogtp
; File C:\Program Files\Microsoft Visual Studio\2022\Community\VC\Tools\MSVC\14.34.31933\include\vcruntime_exception.h
;	COMDAT ??_Gexception@std@@UAEPAXI@Z
_TEXT	SEGMENT
___flags$ = 8						; size = 4
??_Gexception@std@@UAEPAXI@Z PROC			; std::exception::`scalar deleting destructor', COMDAT
; _this$ = ecx
  00000	55		 push	 ebp
  00001	8b ec		 mov	 ebp, esp

; 89   :     {

  00003	56		 push	 esi
  00004	8b f1		 mov	 esi, ecx

; 90   :         __std_exception_destroy(&_Data);

  00006	8d 46 04	 lea	 eax, DWORD PTR [esi+4]
  00009	c7 06 00 00 00
	00		 mov	 DWORD PTR [esi], OFFSET ??_7exception@std@@6B@
  0000f	50		 push	 eax
  00010	e8 00 00 00 00	 call	 ___std_exception_destroy
  00015	83 c4 04	 add	 esp, 4
  00018	f6 45 08 01	 test	 BYTE PTR ___flags$[ebp], 1
  0001c	74 0b		 je	 SHORT $LN6@scalar
  0001e	6a 0c		 push	 12			; 0000000cH
  00020	56		 push	 esi
  00021	e8 00 00 00 00	 call	 ??3@YAXPAXI@Z		; operator delete
  00026	83 c4 08	 add	 esp, 8
$LN6@scalar:
  00029	8b c6		 mov	 eax, esi
  0002b	5e		 pop	 esi
  0002c	5d		 pop	 ebp
  0002d	c2 04 00	 ret	 4
??_Gexception@std@@UAEPAXI@Z ENDP			; std::exception::`scalar deleting destructor'
_TEXT	ENDS
; Function compile flags: /Ogtp
; File C:\Program Files\Microsoft Visual Studio\2022\Community\VC\Tools\MSVC\14.34.31933\include\vcruntime_exception.h
;	COMDAT ?what@exception@std@@UBEPBDXZ
_TEXT	SEGMENT
?what@exception@std@@UBEPBDXZ PROC			; std::exception::what, COMDAT
; _this$ = ecx

; 95   :         return _Data._What ? _Data._What : "Unknown exception";

  00000	8b 49 04	 mov	 ecx, DWORD PTR [ecx+4]
  00003	b8 00 00 00 00	 mov	 eax, OFFSET ??_C@_0BC@EOODALEL@Unknown?5exception@
  00008	85 c9		 test	 ecx, ecx
  0000a	0f 45 c1	 cmovne	 eax, ecx

; 96   :     }

  0000d	c3		 ret	 0
?what@exception@std@@UBEPBDXZ ENDP			; std::exception::what
_TEXT	ENDS
; Function compile flags: /Ogtp
; File C:\Program Files\Microsoft Visual Studio\2022\Community\VC\Tools\MSVC\14.34.31933\include\vcruntime_exception.h
;	COMDAT ??1exception@std@@UAE@XZ
_TEXT	SEGMENT
??1exception@std@@UAE@XZ PROC				; std::exception::~exception, COMDAT
; _this$ = ecx

; 90   :         __std_exception_destroy(&_Data);

  00000	8d 41 04	 lea	 eax, DWORD PTR [ecx+4]
  00003	c7 01 00 00 00
	00		 mov	 DWORD PTR [ecx], OFFSET ??_7exception@std@@6B@
  00009	50		 push	 eax
  0000a	e8 00 00 00 00	 call	 ___std_exception_destroy
  0000f	59		 pop	 ecx

; 91   :     }

  00010	c3		 ret	 0
??1exception@std@@UAE@XZ ENDP				; std::exception::~exception
_TEXT	ENDS
; Function compile flags: /Ogtp
; File C:\Program Files\Microsoft Visual Studio\2022\Community\VC\Tools\MSVC\14.34.31933\include\vcruntime_exception.h
;	COMDAT ??0exception@std@@QAE@ABV01@@Z
_TEXT	SEGMENT
__Other$ = 8						; size = 4
??0exception@std@@QAE@ABV01@@Z PROC			; std::exception::exception, COMDAT
; _this$ = ecx

; 72   :     {

  00000	55		 push	 ebp
  00001	8b ec		 mov	 ebp, esp
  00003	56		 push	 esi
  00004	8b f1		 mov	 esi, ecx
  00006	0f 57 c0	 xorps	 xmm0, xmm0
  00009	8d 46 04	 lea	 eax, DWORD PTR [esi+4]

; 73   :         __std_exception_copy(&_Other._Data, &_Data);

  0000c	50		 push	 eax
  0000d	c7 06 00 00 00
	00		 mov	 DWORD PTR [esi], OFFSET ??_7exception@std@@6B@
  00013	66 0f d6 00	 movq	 QWORD PTR [eax], xmm0
  00017	8b 45 08	 mov	 eax, DWORD PTR __Other$[ebp]
  0001a	83 c0 04	 add	 eax, 4
  0001d	50		 push	 eax
  0001e	e8 00 00 00 00	 call	 ___std_exception_copy
  00023	83 c4 08	 add	 esp, 8

; 74   :     }

  00026	8b c6		 mov	 eax, esi
  00028	5e		 pop	 esi
  00029	5d		 pop	 ebp
  0002a	c2 04 00	 ret	 4
??0exception@std@@QAE@ABV01@@Z ENDP			; std::exception::exception
_TEXT	ENDS
; Function compile flags: /Ogtp
; File C:\Users\flourine\Desktop\Xantios\client-src\Code\GameLib\ActorInstanceMotion.cpp
;	COMDAT ?__empty_global_delete@@YAXPAXIW4align_val_t@std@@@Z
_TEXT	SEGMENT
___formal$ = 8						; size = 4
___formal$ = 12						; size = 4
___formal$ = 16						; size = 4
?__empty_global_delete@@YAXPAXIW4align_val_t@std@@@Z PROC ; __empty_global_delete, COMDAT

  00000	c2 00 00	 ret	 0
?__empty_global_delete@@YAXPAXIW4align_val_t@std@@@Z ENDP ; __empty_global_delete
_TEXT	ENDS
; Function compile flags: /Ogtp
; File C:\Users\flourine\Desktop\Xantios\client-src\Code\GameLib\ActorInstanceMotion.cpp
;	COMDAT ?__empty_global_delete@@YAXPAXW4align_val_t@std@@@Z
_TEXT	SEGMENT
___formal$ = 8						; size = 4
___formal$ = 12						; size = 4
?__empty_global_delete@@YAXPAXW4align_val_t@std@@@Z PROC ; __empty_global_delete, COMDAT

  00000	c2 00 00	 ret	 0
?__empty_global_delete@@YAXPAXW4align_val_t@std@@@Z ENDP ; __empty_global_delete
_TEXT	ENDS
; Function compile flags: /Ogtp
; File C:\Users\flourine\Desktop\Xantios\client-src\Code\GameLib\ActorInstanceMotion.cpp
;	COMDAT ?__empty_global_delete@@YAXPAXI@Z
_TEXT	SEGMENT
___formal$ = 8						; size = 4
___formal$ = 12						; size = 4
?__empty_global_delete@@YAXPAXI@Z PROC			; __empty_global_delete, COMDAT

  00000	c2 00 00	 ret	 0
?__empty_global_delete@@YAXPAXI@Z ENDP			; __empty_global_delete
_TEXT	ENDS
; Function compile flags: /Ogtp
; File C:\Users\flourine\Desktop\Xantios\client-src\Code\GameLib\ActorInstanceMotion.cpp
;	COMDAT ?__empty_global_delete@@YAXPAX@Z
_TEXT	SEGMENT
___formal$ = 8						; size = 4
?__empty_global_delete@@YAXPAX@Z PROC			; __empty_global_delete, COMDAT

  00000	c2 00 00	 ret	 0
?__empty_global_delete@@YAXPAX@Z ENDP			; __empty_global_delete
_TEXT	ENDS
; Function compile flags: /Ogtp
;	COMDAT ??_H@YGXPAXIIP6EPAX0@Z@Z
_TEXT	SEGMENT
___t$ = 8						; size = 4
___s$ = 12						; size = 4
___n$ = 16						; size = 4
___f$ = 20						; size = 4
??_H@YGXPAXIIP6EPAX0@Z@Z PROC				; `vector constructor iterator', COMDAT
  00000	55		 push	 ebp
  00001	8b ec		 mov	 ebp, esp
  00003	56		 push	 esi
  00004	8b 75 10	 mov	 esi, DWORD PTR ___n$[ebp]
  00007	85 f6		 test	 esi, esi
  00009	74 16		 je	 SHORT $LN6@vector
  0000b	53		 push	 ebx
  0000c	8b 5d 14	 mov	 ebx, DWORD PTR ___f$[ebp]
  0000f	57		 push	 edi
  00010	8b 7d 08	 mov	 edi, DWORD PTR ___t$[ebp]
$LL2@vector:
  00013	8b cf		 mov	 ecx, edi
  00015	ff d3		 call	 ebx
  00017	03 7d 0c	 add	 edi, DWORD PTR ___s$[ebp]
  0001a	83 ee 01	 sub	 esi, 1
  0001d	75 f4		 jne	 SHORT $LL2@vector
  0001f	5f		 pop	 edi
  00020	5b		 pop	 ebx
$LN6@vector:
  00021	5e		 pop	 esi
  00022	5d		 pop	 ebp
  00023	c2 10 00	 ret	 16			; 00000010H
??_H@YGXPAXIIP6EPAX0@Z@Z ENDP				; `vector constructor iterator'
_TEXT	ENDS
END
