; Listing generated by Microsoft (R) Optimizing Compiler Version 19.34.31942.0 

	TITLE	C:\Users\flourine\Desktop\Xantios\client-src\Code\EterLib\Distribute\CWikiRenderTargetManager.obj
	.686P
	.XMM
	include listing.inc
	.model	flat

INCLUDELIB LIBCMT
INCLUDELIB OLDNAMES

PUBLIC	??0exception@std@@QAE@ABV01@@Z			; std::exception::exception
PUBLIC	??1exception@std@@UAE@XZ			; std::exception::~exception
PUBLIC	?what@exception@std@@UBEPBDXZ			; std::exception::what
PUBLIC	??_Gexception@std@@UAEPAXI@Z			; std::exception::`scalar deleting destructor'
PUBLIC	??0bad_alloc@std@@QAE@ABV01@@Z			; std::bad_alloc::bad_alloc
PUBLIC	??_Gbad_alloc@std@@UAEPAXI@Z			; std::bad_alloc::`scalar deleting destructor'
PUBLIC	??0bad_array_new_length@std@@QAE@XZ		; std::bad_array_new_length::bad_array_new_length
PUBLIC	??1bad_array_new_length@std@@UAE@XZ		; std::bad_array_new_length::~bad_array_new_length
PUBLIC	??0bad_array_new_length@std@@QAE@ABV01@@Z	; std::bad_array_new_length::bad_array_new_length
PUBLIC	??_Gbad_array_new_length@std@@UAEPAXI@Z		; std::bad_array_new_length::`scalar deleting destructor'
PUBLIC	?_Throw_bad_array_new_length@std@@YAXXZ		; std::_Throw_bad_array_new_length
PUBLIC	??$_Allocate_manually_vector_aligned@U_Default_allocate_traits@std@@@std@@YAPAXI@Z ; std::_Allocate_manually_vector_aligned<std::_Default_allocate_traits>
PUBLIC	??1_Ref_count_base@std@@UAE@XZ			; std::_Ref_count_base::~_Ref_count_base
PUBLIC	?_Get_deleter@_Ref_count_base@std@@UBEPAXABVtype_info@@@Z ; std::_Ref_count_base::_Get_deleter
PUBLIC	??1?$CSingleton@VCWikiRenderTargetManager@@@@UAE@XZ ; CSingleton<CWikiRenderTargetManager>::~CSingleton<CWikiRenderTargetManager>
PUBLIC	??_G?$CSingleton@VCWikiRenderTargetManager@@@@UAEPAXI@Z ; CSingleton<CWikiRenderTargetManager>::`scalar deleting destructor'
PUBLIC	??0CWikiRenderTargetManager@@QAE@XZ		; CWikiRenderTargetManager::CWikiRenderTargetManager
PUBLIC	??1CWikiRenderTargetManager@@UAE@XZ		; CWikiRenderTargetManager::~CWikiRenderTargetManager
PUBLIC	?GetRenderTarget@CWikiRenderTargetManager@@QAE?AV?$shared_ptr@VCWikiRenderTarget@@@std@@H@Z ; CWikiRenderTargetManager::GetRenderTarget
PUBLIC	?CreateRenderTarget@CWikiRenderTargetManager@@QAE_NHHH@Z ; CWikiRenderTargetManager::CreateRenderTarget
PUBLIC	?DeleteRenderTarget@CWikiRenderTargetManager@@QAEXH@Z ; CWikiRenderTargetManager::DeleteRenderTarget
PUBLIC	?CreateRenderTargetTextures@CWikiRenderTargetManager@@QAEXXZ ; CWikiRenderTargetManager::CreateRenderTargetTextures
PUBLIC	?ReleaseRenderTargetTextures@CWikiRenderTargetManager@@QAEXXZ ; CWikiRenderTargetManager::ReleaseRenderTargetTextures
PUBLIC	?DeformModels@CWikiRenderTargetManager@@QAEXXZ	; CWikiRenderTargetManager::DeformModels
PUBLIC	?UpdateModels@CWikiRenderTargetManager@@QAEXXZ	; CWikiRenderTargetManager::UpdateModels
PUBLIC	?RenderModels@CWikiRenderTargetManager@@QAEXXZ	; CWikiRenderTargetManager::RenderModels
PUBLIC	??1?$list@U?$pair@$$CBHV?$shared_ptr@VCWikiRenderTarget@@@std@@@std@@V?$allocator@U?$pair@$$CBHV?$shared_ptr@VCWikiRenderTarget@@@std@@@std@@@2@@std@@QAE@XZ ; std::list<std::pair<int const ,std::shared_ptr<CWikiRenderTarget> >,std::allocator<std::pair<int const ,std::shared_ptr<CWikiRenderTarget> > > >::~list<std::pair<int const ,std::shared_ptr<CWikiRenderTarget> >,std::allocator<std::pair<int const ,std::shared_ptr<CWikiRenderTarget> > > >
PUBLIC	?_Unchecked_erase@?$_Hash@V?$_Umap_traits@HV?$shared_ptr@VCWikiRenderTarget@@@std@@V?$_Uhash_compare@HU?$hash@H@std@@U?$equal_to@H@2@@2@V?$allocator@U?$pair@$$CBHV?$shared_ptr@VCWikiRenderTarget@@@std@@@std@@@2@$0A@@std@@@std@@AAEPAU?$_List_node@U?$pair@$$CBHV?$shared_ptr@VCWikiRenderTarget@@@std@@@std@@PAX@2@PAU32@QAU32@@Z ; std::_Hash<std::_Umap_traits<int,std::shared_ptr<CWikiRenderTarget>,std::_Uhash_compare<int,std::hash<int>,std::equal_to<int> >,std::allocator<std::pair<int const ,std::shared_ptr<CWikiRenderTarget> > >,0> >::_Unchecked_erase
PUBLIC	?clear@?$_Hash@V?$_Umap_traits@HV?$shared_ptr@VCWikiRenderTarget@@@std@@V?$_Uhash_compare@HU?$hash@H@std@@U?$equal_to@H@2@@2@V?$allocator@U?$pair@$$CBHV?$shared_ptr@VCWikiRenderTarget@@@std@@@std@@@2@$0A@@std@@@std@@QAEXXZ ; std::_Hash<std::_Umap_traits<int,std::shared_ptr<CWikiRenderTarget>,std::_Uhash_compare<int,std::hash<int>,std::equal_to<int> >,std::allocator<std::pair<int const ,std::shared_ptr<CWikiRenderTarget> > >,0> >::clear
PUBLIC	?_Forced_rehash@?$_Hash@V?$_Umap_traits@HV?$shared_ptr@VCWikiRenderTarget@@@std@@V?$_Uhash_compare@HU?$hash@H@std@@U?$equal_to@H@2@@2@V?$allocator@U?$pair@$$CBHV?$shared_ptr@VCWikiRenderTarget@@@std@@@std@@@2@$0A@@std@@@std@@IAEXI@Z ; std::_Hash<std::_Umap_traits<int,std::shared_ptr<CWikiRenderTarget>,std::_Uhash_compare<int,std::hash<int>,std::equal_to<int> >,std::allocator<std::pair<int const ,std::shared_ptr<CWikiRenderTarget> > >,0> >::_Forced_rehash
PUBLIC	?_Assign_grow@?$_Hash_vec@V?$allocator@V?$_List_unchecked_iterator@V?$_List_val@U?$_List_simple_types@U?$pair@$$CBHV?$shared_ptr@VCWikiRenderTarget@@@std@@@std@@@std@@@std@@@std@@@std@@@std@@QAEXIV?$_List_unchecked_iterator@V?$_List_val@U?$_List_simple_types@U?$pair@$$CBHV?$shared_ptr@VCWikiRenderTarget@@@std@@@std@@@std@@@std@@@2@@Z ; std::_Hash_vec<std::allocator<std::_List_unchecked_iterator<std::_List_val<std::_List_simple_types<std::pair<int const ,std::shared_ptr<CWikiRenderTarget> > > > > > >::_Assign_grow
PUBLIC	??1?$_Hash_vec@V?$allocator@V?$_List_unchecked_iterator@V?$_List_val@U?$_List_simple_types@U?$pair@$$CBHV?$shared_ptr@VCWikiRenderTarget@@@std@@@std@@@std@@@std@@@std@@@std@@@std@@QAE@XZ ; std::_Hash_vec<std::allocator<std::_List_unchecked_iterator<std::_List_val<std::_List_simple_types<std::pair<int const ,std::shared_ptr<CWikiRenderTarget> > > > > > >::~_Hash_vec<std::allocator<std::_List_unchecked_iterator<std::_List_val<std::_List_simple_types<std::pair<int const ,std::shared_ptr<CWikiRenderTarget> > > > > > >
PUBLIC	??1?$_Hash@V?$_Umap_traits@HV?$shared_ptr@VCWikiRenderTarget@@@std@@V?$_Uhash_compare@HU?$hash@H@std@@U?$equal_to@H@2@@2@V?$allocator@U?$pair@$$CBHV?$shared_ptr@VCWikiRenderTarget@@@std@@@std@@@2@$0A@@std@@@std@@QAE@XZ ; std::_Hash<std::_Umap_traits<int,std::shared_ptr<CWikiRenderTarget>,std::_Uhash_compare<int,std::hash<int>,std::equal_to<int> >,std::allocator<std::pair<int const ,std::shared_ptr<CWikiRenderTarget> > >,0> >::~_Hash<std::_Umap_traits<int,std::shared_ptr<CWikiRenderTarget>,std::_Uhash_compare<int,std::hash<int>,std::equal_to<int> >,std::allocator<std::pair<int const ,std::shared_ptr<CWikiRenderTarget> > >,0> >
PUBLIC	??_GCWikiRenderTargetManager@@UAEPAXI@Z		; CWikiRenderTargetManager::`scalar deleting destructor'
PUBLIC	??1?$shared_ptr@VCWikiRenderTarget@@@std@@QAE@XZ ; std::shared_ptr<CWikiRenderTarget>::~shared_ptr<CWikiRenderTarget>
PUBLIC	??$emplace@ABHV?$shared_ptr@VCWikiRenderTarget@@@std@@@?$_Hash@V?$_Umap_traits@HV?$shared_ptr@VCWikiRenderTarget@@@std@@V?$_Uhash_compare@HU?$hash@H@std@@U?$equal_to@H@2@@2@V?$allocator@U?$pair@$$CBHV?$shared_ptr@VCWikiRenderTarget@@@std@@@std@@@2@$0A@@std@@@std@@QAE?AU?$pair@V?$_List_iterator@V?$_List_val@U?$_List_simple_types@U?$pair@$$CBHV?$shared_ptr@VCWikiRenderTarget@@@std@@@std@@@std@@@std@@@std@@_N@1@ABH$$QAV?$shared_ptr@VCWikiRenderTarget@@@1@@Z ; std::_Hash<std::_Umap_traits<int,std::shared_ptr<CWikiRenderTarget>,std::_Uhash_compare<int,std::hash<int>,std::equal_to<int> >,std::allocator<std::pair<int const ,std::shared_ptr<CWikiRenderTarget> > >,0> >::emplace<int const &,std::shared_ptr<CWikiRenderTarget> >
PUBLIC	??$fill@PAV?$_List_unchecked_iterator@V?$_List_val@U?$_List_simple_types@U?$pair@$$CBHV?$shared_ptr@VCWikiRenderTarget@@@std@@@std@@@std@@@std@@@std@@V12@@std@@YAXQAV?$_List_unchecked_iterator@V?$_List_val@U?$_List_simple_types@U?$pair@$$CBHV?$shared_ptr@VCWikiRenderTarget@@@std@@@std@@@std@@@std@@@0@0ABV10@@Z ; std::fill<std::_List_unchecked_iterator<std::_List_val<std::_List_simple_types<std::pair<int const ,std::shared_ptr<CWikiRenderTarget> > > > > *,std::_List_unchecked_iterator<std::_List_val<std::_List_simple_types<std::pair<int const ,std::shared_ptr<CWikiRenderTarget> > > > > >
PUBLIC	??$_Free_non_head@V?$allocator@U?$_List_node@U?$pair@$$CBHV?$shared_ptr@VCWikiRenderTarget@@@std@@@std@@PAX@std@@@std@@@?$_List_node@U?$pair@$$CBHV?$shared_ptr@VCWikiRenderTarget@@@std@@@std@@PAX@std@@SAXAAV?$allocator@U?$_List_node@U?$pair@$$CBHV?$shared_ptr@VCWikiRenderTarget@@@std@@@std@@PAX@std@@@1@PAU01@@Z ; std::_List_node<std::pair<int const ,std::shared_ptr<CWikiRenderTarget> >,void *>::_Free_non_head<std::allocator<std::_List_node<std::pair<int const ,std::shared_ptr<CWikiRenderTarget> >,void *> > >
PUBLIC	??$_Hash_representation@H@std@@YAIABH@Z		; std::_Hash_representation<int>
PUBLIC	??$uninitialized_fill@PAV?$_List_unchecked_iterator@V?$_List_val@U?$_List_simple_types@U?$pair@$$CBHV?$shared_ptr@VCWikiRenderTarget@@@std@@@std@@@std@@@std@@@std@@V12@@std@@YAXQAV?$_List_unchecked_iterator@V?$_List_val@U?$_List_simple_types@U?$pair@$$CBHV?$shared_ptr@VCWikiRenderTarget@@@std@@@std@@@std@@@std@@@0@0ABV10@@Z ; std::uninitialized_fill<std::_List_unchecked_iterator<std::_List_val<std::_List_simple_types<std::pair<int const ,std::shared_ptr<CWikiRenderTarget> > > > > *,std::_List_unchecked_iterator<std::_List_val<std::_List_simple_types<std::pair<int const ,std::shared_ptr<CWikiRenderTarget> > > > > >
PUBLIC	??1?$_Ref_count_obj2@VCWikiRenderTarget@@@std@@UAE@XZ ; std::_Ref_count_obj2<CWikiRenderTarget>::~_Ref_count_obj2<CWikiRenderTarget>
PUBLIC	?_Destroy@?$_Ref_count_obj2@VCWikiRenderTarget@@@std@@EAEXXZ ; std::_Ref_count_obj2<CWikiRenderTarget>::_Destroy
PUBLIC	?_Delete_this@?$_Ref_count_obj2@VCWikiRenderTarget@@@std@@EAEXXZ ; std::_Ref_count_obj2<CWikiRenderTarget>::_Delete_this
PUBLIC	??_G?$_Ref_count_obj2@VCWikiRenderTarget@@@std@@UAEPAXI@Z ; std::_Ref_count_obj2<CWikiRenderTarget>::`scalar deleting destructor'
PUBLIC	??1?$_Alloc_construct_ptr@V?$allocator@U?$_List_node@U?$pair@$$CBHV?$shared_ptr@VCWikiRenderTarget@@@std@@@std@@PAX@std@@@std@@@std@@QAE@XZ ; std::_Alloc_construct_ptr<std::allocator<std::_List_node<std::pair<int const ,std::shared_ptr<CWikiRenderTarget> >,void *> > >::~_Alloc_construct_ptr<std::allocator<std::_List_node<std::pair<int const ,std::shared_ptr<CWikiRenderTarget> >,void *> > >
PUBLIC	??1?$_List_node_emplace_op2@V?$allocator@U?$_List_node@U?$pair@$$CBHV?$shared_ptr@VCWikiRenderTarget@@@std@@@std@@PAX@std@@@std@@@std@@QAE@XZ ; std::_List_node_emplace_op2<std::allocator<std::_List_node<std::pair<int const ,std::shared_ptr<CWikiRenderTarget> >,void *> > >::~_List_node_emplace_op2<std::allocator<std::_List_node<std::pair<int const ,std::shared_ptr<CWikiRenderTarget> >,void *> > >
PUBLIC	??$_Find_last@H@?$_Hash@V?$_Umap_traits@HV?$shared_ptr@VCWikiRenderTarget@@@std@@V?$_Uhash_compare@HU?$hash@H@std@@U?$equal_to@H@2@@2@V?$allocator@U?$pair@$$CBHV?$shared_ptr@VCWikiRenderTarget@@@std@@@std@@@2@$0A@@std@@@std@@IBE?AU?$_Hash_find_last_result@PAU?$_List_node@U?$pair@$$CBHV?$shared_ptr@VCWikiRenderTarget@@@std@@@std@@PAX@std@@@1@ABHI@Z ; std::_Hash<std::_Umap_traits<int,std::shared_ptr<CWikiRenderTarget>,std::_Uhash_compare<int,std::hash<int>,std::equal_to<int> >,std::allocator<std::pair<int const ,std::shared_ptr<CWikiRenderTarget> > >,0> >::_Find_last<int>
PUBLIC	??$_Fnv1a_append_value@H@std@@YAIIABH@Z		; std::_Fnv1a_append_value<int>
PUBLIC	??_7exception@std@@6B@				; std::exception::`vftable'
PUBLIC	??_C@_0BC@EOODALEL@Unknown?5exception@		; `string'
PUBLIC	??_7bad_alloc@std@@6B@				; std::bad_alloc::`vftable'
PUBLIC	??_7bad_array_new_length@std@@6B@		; std::bad_array_new_length::`vftable'
PUBLIC	??_C@_0BF@KINCDENJ@bad?5array?5new?5length@	; `string'
PUBLIC	__TI3?AVbad_array_new_length@std@@
PUBLIC	__CTA3?AVbad_array_new_length@std@@
PUBLIC	??_R0?AVbad_array_new_length@std@@@8		; std::bad_array_new_length `RTTI Type Descriptor'
PUBLIC	__CT??_R0?AVbad_array_new_length@std@@@8??0bad_array_new_length@std@@QAE@ABV01@@Z12
PUBLIC	??_R0?AVbad_alloc@std@@@8			; std::bad_alloc `RTTI Type Descriptor'
PUBLIC	__CT??_R0?AVbad_alloc@std@@@8??0bad_alloc@std@@QAE@ABV01@@Z12
PUBLIC	??_R0?AVexception@std@@@8			; std::exception `RTTI Type Descriptor'
PUBLIC	__CT??_R0?AVexception@std@@@8??0exception@std@@QAE@ABV01@@Z12
PUBLIC	??_R4exception@std@@6B@				; std::exception::`RTTI Complete Object Locator'
PUBLIC	??_R3exception@std@@8				; std::exception::`RTTI Class Hierarchy Descriptor'
PUBLIC	??_R2exception@std@@8				; std::exception::`RTTI Base Class Array'
PUBLIC	??_R1A@?0A@EA@exception@std@@8			; std::exception::`RTTI Base Class Descriptor at (0,-1,0,64)'
PUBLIC	??_R4bad_alloc@std@@6B@				; std::bad_alloc::`RTTI Complete Object Locator'
PUBLIC	??_R3bad_alloc@std@@8				; std::bad_alloc::`RTTI Class Hierarchy Descriptor'
PUBLIC	??_R2bad_alloc@std@@8				; std::bad_alloc::`RTTI Base Class Array'
PUBLIC	??_R1A@?0A@EA@bad_alloc@std@@8			; std::bad_alloc::`RTTI Base Class Descriptor at (0,-1,0,64)'
PUBLIC	??_R4bad_array_new_length@std@@6B@		; std::bad_array_new_length::`RTTI Complete Object Locator'
PUBLIC	??_R3bad_array_new_length@std@@8		; std::bad_array_new_length::`RTTI Class Hierarchy Descriptor'
PUBLIC	??_R2bad_array_new_length@std@@8		; std::bad_array_new_length::`RTTI Base Class Array'
PUBLIC	??_R1A@?0A@EA@bad_array_new_length@std@@8	; std::bad_array_new_length::`RTTI Base Class Descriptor at (0,-1,0,64)'
PUBLIC	?ms_singleton@?$CSingleton@VCWikiRenderTargetManager@@@@0PAVCWikiRenderTargetManager@@A ; CSingleton<CWikiRenderTargetManager>::ms_singleton
PUBLIC	??_7?$CSingleton@VCWikiRenderTargetManager@@@@6B@ ; CSingleton<CWikiRenderTargetManager>::`vftable'
PUBLIC	??_7CWikiRenderTargetManager@@6B@		; CWikiRenderTargetManager::`vftable'
PUBLIC	??_7?$_Ref_count_obj2@VCWikiRenderTarget@@@std@@6B@ ; std::_Ref_count_obj2<CWikiRenderTarget>::`vftable'
PUBLIC	??_C@_0BL@GOIGLPKN@unordered_map?1set?5too?5long@ ; `string'
PUBLIC	??_C@_0BK@OGNNAFAB@invalid?5hash?5bucket?5count@ ; `string'
PUBLIC	??_R0?AV_Ref_count_base@std@@@8			; std::_Ref_count_base `RTTI Type Descriptor'
PUBLIC	??_R3_Ref_count_base@std@@8			; std::_Ref_count_base::`RTTI Class Hierarchy Descriptor'
PUBLIC	??_R2_Ref_count_base@std@@8			; std::_Ref_count_base::`RTTI Base Class Array'
PUBLIC	??_R1A@?0A@EA@_Ref_count_base@std@@8		; std::_Ref_count_base::`RTTI Base Class Descriptor at (0,-1,0,64)'
PUBLIC	??_R4CWikiRenderTargetManager@@6B@		; CWikiRenderTargetManager::`RTTI Complete Object Locator'
PUBLIC	??_R0?AVCWikiRenderTargetManager@@@8		; CWikiRenderTargetManager `RTTI Type Descriptor'
PUBLIC	??_R3CWikiRenderTargetManager@@8		; CWikiRenderTargetManager::`RTTI Class Hierarchy Descriptor'
PUBLIC	??_R2CWikiRenderTargetManager@@8		; CWikiRenderTargetManager::`RTTI Base Class Array'
PUBLIC	??_R1A@?0A@EA@CWikiRenderTargetManager@@8	; CWikiRenderTargetManager::`RTTI Base Class Descriptor at (0,-1,0,64)'
PUBLIC	??_R1A@?0A@EA@?$CSingleton@VCWikiRenderTargetManager@@@@8 ; CSingleton<CWikiRenderTargetManager>::`RTTI Base Class Descriptor at (0,-1,0,64)'
PUBLIC	??_R0?AV?$CSingleton@VCWikiRenderTargetManager@@@@@8 ; CSingleton<CWikiRenderTargetManager> `RTTI Type Descriptor'
PUBLIC	??_R3?$CSingleton@VCWikiRenderTargetManager@@@@8 ; CSingleton<CWikiRenderTargetManager>::`RTTI Class Hierarchy Descriptor'
PUBLIC	??_R2?$CSingleton@VCWikiRenderTargetManager@@@@8 ; CSingleton<CWikiRenderTargetManager>::`RTTI Base Class Array'
PUBLIC	??_R4?$CSingleton@VCWikiRenderTargetManager@@@@6B@ ; CSingleton<CWikiRenderTargetManager>::`RTTI Complete Object Locator'
PUBLIC	??_R4?$_Ref_count_obj2@VCWikiRenderTarget@@@std@@6B@ ; std::_Ref_count_obj2<CWikiRenderTarget>::`RTTI Complete Object Locator'
PUBLIC	??_R0?AV?$_Ref_count_obj2@VCWikiRenderTarget@@@std@@@8 ; std::_Ref_count_obj2<CWikiRenderTarget> `RTTI Type Descriptor'
PUBLIC	??_R3?$_Ref_count_obj2@VCWikiRenderTarget@@@std@@8 ; std::_Ref_count_obj2<CWikiRenderTarget>::`RTTI Class Hierarchy Descriptor'
PUBLIC	??_R2?$_Ref_count_obj2@VCWikiRenderTarget@@@std@@8 ; std::_Ref_count_obj2<CWikiRenderTarget>::`RTTI Base Class Array'
PUBLIC	??_R1A@?0A@EA@?$_Ref_count_obj2@VCWikiRenderTarget@@@std@@8 ; std::_Ref_count_obj2<CWikiRenderTarget>::`RTTI Base Class Descriptor at (0,-1,0,64)'
PUBLIC	__xmm@41f00000000000000000000000000000
EXTRN	??2@YAPAXI@Z:PROC				; operator new
EXTRN	??3@YAXPAXI@Z:PROC				; operator delete
EXTRN	__invalid_parameter_noinfo_noreturn:PROC
EXTRN	___std_exception_copy:PROC
EXTRN	___std_exception_destroy:PROC
EXTRN	??_Eexception@std@@UAEPAXI@Z:PROC		; std::exception::`vector deleting destructor'
EXTRN	??_Ebad_alloc@std@@UAEPAXI@Z:PROC		; std::bad_alloc::`vector deleting destructor'
EXTRN	??_Ebad_array_new_length@std@@UAEPAXI@Z:PROC	; std::bad_array_new_length::`vector deleting destructor'
EXTRN	?_Xlength_error@std@@YAXPBD@Z:PROC		; std::_Xlength_error
EXTRN	??0CWikiRenderTarget@@QAE@KK@Z:PROC		; CWikiRenderTarget::CWikiRenderTarget
EXTRN	?CreateTextures@CWikiRenderTarget@@QBEXXZ:PROC	; CWikiRenderTarget::CreateTextures
EXTRN	?ReleaseTextures@CWikiRenderTarget@@QBEXXZ:PROC	; CWikiRenderTarget::ReleaseTextures
EXTRN	?UpdateModel@CWikiRenderTarget@@QAEXXZ:PROC	; CWikiRenderTarget::UpdateModel
EXTRN	?DeformModel@CWikiRenderTarget@@QBEXXZ:PROC	; CWikiRenderTarget::DeformModel
EXTRN	?RenderModel@CWikiRenderTarget@@QBEXXZ:PROC	; CWikiRenderTarget::RenderModel
EXTRN	??_E?$CSingleton@VCWikiRenderTargetManager@@@@UAEPAXI@Z:PROC ; CSingleton<CWikiRenderTargetManager>::`vector deleting destructor'
EXTRN	??_ECWikiRenderTargetManager@@UAEPAXI@Z:PROC	; CWikiRenderTargetManager::`vector deleting destructor'
EXTRN	??_E?$_Ref_count_obj2@VCWikiRenderTarget@@@std@@UAEPAXI@Z:PROC ; std::_Ref_count_obj2<CWikiRenderTarget>::`vector deleting destructor'
EXTRN	@__security_check_cookie@4:PROC
EXTRN	__CxxThrowException@8:PROC
EXTRN	___CxxFrameHandler3:PROC
EXTRN	__ftol3:PROC
EXTRN	_ceil:PROC
EXTRN	??_7type_info@@6B@:QWORD			; type_info::`vftable'
EXTRN	___security_cookie:DWORD
EXTRN	__fltused:DWORD
;	COMDAT ?ms_singleton@?$CSingleton@VCWikiRenderTargetManager@@@@0PAVCWikiRenderTargetManager@@A
_BSS	SEGMENT
?ms_singleton@?$CSingleton@VCWikiRenderTargetManager@@@@0PAVCWikiRenderTargetManager@@A DD 01H DUP (?) ; CSingleton<CWikiRenderTargetManager>::ms_singleton
_BSS	ENDS
;	COMDAT __xmm@41f00000000000000000000000000000
CONST	SEGMENT
__xmm@41f00000000000000000000000000000 DB 00H, 00H, 00H, 00H, 00H, 00H, 00H
	DB	00H, 00H, 00H, 00H, 00H, 00H, 00H, 0f0H, 'A'
CONST	ENDS
;	COMDAT ??_R1A@?0A@EA@?$_Ref_count_obj2@VCWikiRenderTarget@@@std@@8
rdata$r	SEGMENT
??_R1A@?0A@EA@?$_Ref_count_obj2@VCWikiRenderTarget@@@std@@8 DD FLAT:??_R0?AV?$_Ref_count_obj2@VCWikiRenderTarget@@@std@@@8 ; std::_Ref_count_obj2<CWikiRenderTarget>::`RTTI Base Class Descriptor at (0,-1,0,64)'
	DD	01H
	DD	00H
	DD	0ffffffffH
	DD	00H
	DD	040H
	DD	FLAT:??_R3?$_Ref_count_obj2@VCWikiRenderTarget@@@std@@8
rdata$r	ENDS
;	COMDAT ??_R2?$_Ref_count_obj2@VCWikiRenderTarget@@@std@@8
rdata$r	SEGMENT
??_R2?$_Ref_count_obj2@VCWikiRenderTarget@@@std@@8 DD FLAT:??_R1A@?0A@EA@?$_Ref_count_obj2@VCWikiRenderTarget@@@std@@8 ; std::_Ref_count_obj2<CWikiRenderTarget>::`RTTI Base Class Array'
	DD	FLAT:??_R1A@?0A@EA@_Ref_count_base@std@@8
rdata$r	ENDS
;	COMDAT ??_R3?$_Ref_count_obj2@VCWikiRenderTarget@@@std@@8
rdata$r	SEGMENT
??_R3?$_Ref_count_obj2@VCWikiRenderTarget@@@std@@8 DD 00H ; std::_Ref_count_obj2<CWikiRenderTarget>::`RTTI Class Hierarchy Descriptor'
	DD	00H
	DD	02H
	DD	FLAT:??_R2?$_Ref_count_obj2@VCWikiRenderTarget@@@std@@8
rdata$r	ENDS
;	COMDAT ??_R0?AV?$_Ref_count_obj2@VCWikiRenderTarget@@@std@@@8
data$rs	SEGMENT
??_R0?AV?$_Ref_count_obj2@VCWikiRenderTarget@@@std@@@8 DD FLAT:??_7type_info@@6B@ ; std::_Ref_count_obj2<CWikiRenderTarget> `RTTI Type Descriptor'
	DD	00H
	DB	'.?AV?$_Ref_count_obj2@VCWikiRenderTarget@@@std@@', 00H
data$rs	ENDS
;	COMDAT ??_R4?$_Ref_count_obj2@VCWikiRenderTarget@@@std@@6B@
rdata$r	SEGMENT
??_R4?$_Ref_count_obj2@VCWikiRenderTarget@@@std@@6B@ DD 00H ; std::_Ref_count_obj2<CWikiRenderTarget>::`RTTI Complete Object Locator'
	DD	00H
	DD	00H
	DD	FLAT:??_R0?AV?$_Ref_count_obj2@VCWikiRenderTarget@@@std@@@8
	DD	FLAT:??_R3?$_Ref_count_obj2@VCWikiRenderTarget@@@std@@8
rdata$r	ENDS
;	COMDAT ??_R4?$CSingleton@VCWikiRenderTargetManager@@@@6B@
rdata$r	SEGMENT
??_R4?$CSingleton@VCWikiRenderTargetManager@@@@6B@ DD 00H ; CSingleton<CWikiRenderTargetManager>::`RTTI Complete Object Locator'
	DD	00H
	DD	00H
	DD	FLAT:??_R0?AV?$CSingleton@VCWikiRenderTargetManager@@@@@8
	DD	FLAT:??_R3?$CSingleton@VCWikiRenderTargetManager@@@@8
rdata$r	ENDS
;	COMDAT ??_R2?$CSingleton@VCWikiRenderTargetManager@@@@8
rdata$r	SEGMENT
??_R2?$CSingleton@VCWikiRenderTargetManager@@@@8 DD FLAT:??_R1A@?0A@EA@?$CSingleton@VCWikiRenderTargetManager@@@@8 ; CSingleton<CWikiRenderTargetManager>::`RTTI Base Class Array'
rdata$r	ENDS
;	COMDAT ??_R3?$CSingleton@VCWikiRenderTargetManager@@@@8
rdata$r	SEGMENT
??_R3?$CSingleton@VCWikiRenderTargetManager@@@@8 DD 00H	; CSingleton<CWikiRenderTargetManager>::`RTTI Class Hierarchy Descriptor'
	DD	00H
	DD	01H
	DD	FLAT:??_R2?$CSingleton@VCWikiRenderTargetManager@@@@8
rdata$r	ENDS
;	COMDAT ??_R0?AV?$CSingleton@VCWikiRenderTargetManager@@@@@8
data$rs	SEGMENT
??_R0?AV?$CSingleton@VCWikiRenderTargetManager@@@@@8 DD FLAT:??_7type_info@@6B@ ; CSingleton<CWikiRenderTargetManager> `RTTI Type Descriptor'
	DD	00H
	DB	'.?AV?$CSingleton@VCWikiRenderTargetManager@@@@', 00H
data$rs	ENDS
;	COMDAT ??_R1A@?0A@EA@?$CSingleton@VCWikiRenderTargetManager@@@@8
rdata$r	SEGMENT
??_R1A@?0A@EA@?$CSingleton@VCWikiRenderTargetManager@@@@8 DD FLAT:??_R0?AV?$CSingleton@VCWikiRenderTargetManager@@@@@8 ; CSingleton<CWikiRenderTargetManager>::`RTTI Base Class Descriptor at (0,-1,0,64)'
	DD	00H
	DD	00H
	DD	0ffffffffH
	DD	00H
	DD	040H
	DD	FLAT:??_R3?$CSingleton@VCWikiRenderTargetManager@@@@8
rdata$r	ENDS
;	COMDAT ??_R1A@?0A@EA@CWikiRenderTargetManager@@8
rdata$r	SEGMENT
??_R1A@?0A@EA@CWikiRenderTargetManager@@8 DD FLAT:??_R0?AVCWikiRenderTargetManager@@@8 ; CWikiRenderTargetManager::`RTTI Base Class Descriptor at (0,-1,0,64)'
	DD	01H
	DD	00H
	DD	0ffffffffH
	DD	00H
	DD	040H
	DD	FLAT:??_R3CWikiRenderTargetManager@@8
rdata$r	ENDS
;	COMDAT ??_R2CWikiRenderTargetManager@@8
rdata$r	SEGMENT
??_R2CWikiRenderTargetManager@@8 DD FLAT:??_R1A@?0A@EA@CWikiRenderTargetManager@@8 ; CWikiRenderTargetManager::`RTTI Base Class Array'
	DD	FLAT:??_R1A@?0A@EA@?$CSingleton@VCWikiRenderTargetManager@@@@8
rdata$r	ENDS
;	COMDAT ??_R3CWikiRenderTargetManager@@8
rdata$r	SEGMENT
??_R3CWikiRenderTargetManager@@8 DD 00H			; CWikiRenderTargetManager::`RTTI Class Hierarchy Descriptor'
	DD	00H
	DD	02H
	DD	FLAT:??_R2CWikiRenderTargetManager@@8
rdata$r	ENDS
;	COMDAT ??_R0?AVCWikiRenderTargetManager@@@8
data$rs	SEGMENT
??_R0?AVCWikiRenderTargetManager@@@8 DD FLAT:??_7type_info@@6B@ ; CWikiRenderTargetManager `RTTI Type Descriptor'
	DD	00H
	DB	'.?AVCWikiRenderTargetManager@@', 00H
data$rs	ENDS
;	COMDAT ??_R4CWikiRenderTargetManager@@6B@
rdata$r	SEGMENT
??_R4CWikiRenderTargetManager@@6B@ DD 00H		; CWikiRenderTargetManager::`RTTI Complete Object Locator'
	DD	00H
	DD	00H
	DD	FLAT:??_R0?AVCWikiRenderTargetManager@@@8
	DD	FLAT:??_R3CWikiRenderTargetManager@@8
rdata$r	ENDS
;	COMDAT ??_R1A@?0A@EA@_Ref_count_base@std@@8
rdata$r	SEGMENT
??_R1A@?0A@EA@_Ref_count_base@std@@8 DD FLAT:??_R0?AV_Ref_count_base@std@@@8 ; std::_Ref_count_base::`RTTI Base Class Descriptor at (0,-1,0,64)'
	DD	00H
	DD	00H
	DD	0ffffffffH
	DD	00H
	DD	040H
	DD	FLAT:??_R3_Ref_count_base@std@@8
rdata$r	ENDS
;	COMDAT ??_R2_Ref_count_base@std@@8
rdata$r	SEGMENT
??_R2_Ref_count_base@std@@8 DD FLAT:??_R1A@?0A@EA@_Ref_count_base@std@@8 ; std::_Ref_count_base::`RTTI Base Class Array'
rdata$r	ENDS
;	COMDAT ??_R3_Ref_count_base@std@@8
rdata$r	SEGMENT
??_R3_Ref_count_base@std@@8 DD 00H			; std::_Ref_count_base::`RTTI Class Hierarchy Descriptor'
	DD	00H
	DD	01H
	DD	FLAT:??_R2_Ref_count_base@std@@8
rdata$r	ENDS
;	COMDAT ??_R0?AV_Ref_count_base@std@@@8
data$rs	SEGMENT
??_R0?AV_Ref_count_base@std@@@8 DD FLAT:??_7type_info@@6B@ ; std::_Ref_count_base `RTTI Type Descriptor'
	DD	00H
	DB	'.?AV_Ref_count_base@std@@', 00H
data$rs	ENDS
;	COMDAT ??_C@_0BK@OGNNAFAB@invalid?5hash?5bucket?5count@
CONST	SEGMENT
??_C@_0BK@OGNNAFAB@invalid?5hash?5bucket?5count@ DB 'invalid hash bucket '
	DB	'count', 00H					; `string'
CONST	ENDS
;	COMDAT ??_C@_0BL@GOIGLPKN@unordered_map?1set?5too?5long@
CONST	SEGMENT
??_C@_0BL@GOIGLPKN@unordered_map?1set?5too?5long@ DB 'unordered_map/set t'
	DB	'oo long', 00H				; `string'
CONST	ENDS
;	COMDAT ??_7?$_Ref_count_obj2@VCWikiRenderTarget@@@std@@6B@
CONST	SEGMENT
??_7?$_Ref_count_obj2@VCWikiRenderTarget@@@std@@6B@ DD FLAT:??_R4?$_Ref_count_obj2@VCWikiRenderTarget@@@std@@6B@ ; std::_Ref_count_obj2<CWikiRenderTarget>::`vftable'
	DD	FLAT:?_Destroy@?$_Ref_count_obj2@VCWikiRenderTarget@@@std@@EAEXXZ
	DD	FLAT:?_Delete_this@?$_Ref_count_obj2@VCWikiRenderTarget@@@std@@EAEXXZ
	DD	FLAT:??_E?$_Ref_count_obj2@VCWikiRenderTarget@@@std@@UAEPAXI@Z
	DD	FLAT:?_Get_deleter@_Ref_count_base@std@@UBEPAXABVtype_info@@@Z
CONST	ENDS
;	COMDAT ??_7CWikiRenderTargetManager@@6B@
CONST	SEGMENT
??_7CWikiRenderTargetManager@@6B@ DD FLAT:??_R4CWikiRenderTargetManager@@6B@ ; CWikiRenderTargetManager::`vftable'
	DD	FLAT:??_ECWikiRenderTargetManager@@UAEPAXI@Z
CONST	ENDS
;	COMDAT ??_7?$CSingleton@VCWikiRenderTargetManager@@@@6B@
CONST	SEGMENT
??_7?$CSingleton@VCWikiRenderTargetManager@@@@6B@ DD FLAT:??_R4?$CSingleton@VCWikiRenderTargetManager@@@@6B@ ; CSingleton<CWikiRenderTargetManager>::`vftable'
	DD	FLAT:??_E?$CSingleton@VCWikiRenderTargetManager@@@@UAEPAXI@Z
CONST	ENDS
;	COMDAT ??_R1A@?0A@EA@bad_array_new_length@std@@8
rdata$r	SEGMENT
??_R1A@?0A@EA@bad_array_new_length@std@@8 DD FLAT:??_R0?AVbad_array_new_length@std@@@8 ; std::bad_array_new_length::`RTTI Base Class Descriptor at (0,-1,0,64)'
	DD	02H
	DD	00H
	DD	0ffffffffH
	DD	00H
	DD	040H
	DD	FLAT:??_R3bad_array_new_length@std@@8
rdata$r	ENDS
;	COMDAT ??_R2bad_array_new_length@std@@8
rdata$r	SEGMENT
??_R2bad_array_new_length@std@@8 DD FLAT:??_R1A@?0A@EA@bad_array_new_length@std@@8 ; std::bad_array_new_length::`RTTI Base Class Array'
	DD	FLAT:??_R1A@?0A@EA@bad_alloc@std@@8
	DD	FLAT:??_R1A@?0A@EA@exception@std@@8
rdata$r	ENDS
;	COMDAT ??_R3bad_array_new_length@std@@8
rdata$r	SEGMENT
??_R3bad_array_new_length@std@@8 DD 00H			; std::bad_array_new_length::`RTTI Class Hierarchy Descriptor'
	DD	00H
	DD	03H
	DD	FLAT:??_R2bad_array_new_length@std@@8
rdata$r	ENDS
;	COMDAT ??_R4bad_array_new_length@std@@6B@
rdata$r	SEGMENT
??_R4bad_array_new_length@std@@6B@ DD 00H		; std::bad_array_new_length::`RTTI Complete Object Locator'
	DD	00H
	DD	00H
	DD	FLAT:??_R0?AVbad_array_new_length@std@@@8
	DD	FLAT:??_R3bad_array_new_length@std@@8
rdata$r	ENDS
;	COMDAT ??_R1A@?0A@EA@bad_alloc@std@@8
rdata$r	SEGMENT
??_R1A@?0A@EA@bad_alloc@std@@8 DD FLAT:??_R0?AVbad_alloc@std@@@8 ; std::bad_alloc::`RTTI Base Class Descriptor at (0,-1,0,64)'
	DD	01H
	DD	00H
	DD	0ffffffffH
	DD	00H
	DD	040H
	DD	FLAT:??_R3bad_alloc@std@@8
rdata$r	ENDS
;	COMDAT ??_R2bad_alloc@std@@8
rdata$r	SEGMENT
??_R2bad_alloc@std@@8 DD FLAT:??_R1A@?0A@EA@bad_alloc@std@@8 ; std::bad_alloc::`RTTI Base Class Array'
	DD	FLAT:??_R1A@?0A@EA@exception@std@@8
rdata$r	ENDS
;	COMDAT ??_R3bad_alloc@std@@8
rdata$r	SEGMENT
??_R3bad_alloc@std@@8 DD 00H				; std::bad_alloc::`RTTI Class Hierarchy Descriptor'
	DD	00H
	DD	02H
	DD	FLAT:??_R2bad_alloc@std@@8
rdata$r	ENDS
;	COMDAT ??_R4bad_alloc@std@@6B@
rdata$r	SEGMENT
??_R4bad_alloc@std@@6B@ DD 00H				; std::bad_alloc::`RTTI Complete Object Locator'
	DD	00H
	DD	00H
	DD	FLAT:??_R0?AVbad_alloc@std@@@8
	DD	FLAT:??_R3bad_alloc@std@@8
rdata$r	ENDS
;	COMDAT ??_R1A@?0A@EA@exception@std@@8
rdata$r	SEGMENT
??_R1A@?0A@EA@exception@std@@8 DD FLAT:??_R0?AVexception@std@@@8 ; std::exception::`RTTI Base Class Descriptor at (0,-1,0,64)'
	DD	00H
	DD	00H
	DD	0ffffffffH
	DD	00H
	DD	040H
	DD	FLAT:??_R3exception@std@@8
rdata$r	ENDS
;	COMDAT ??_R2exception@std@@8
rdata$r	SEGMENT
??_R2exception@std@@8 DD FLAT:??_R1A@?0A@EA@exception@std@@8 ; std::exception::`RTTI Base Class Array'
rdata$r	ENDS
;	COMDAT ??_R3exception@std@@8
rdata$r	SEGMENT
??_R3exception@std@@8 DD 00H				; std::exception::`RTTI Class Hierarchy Descriptor'
	DD	00H
	DD	01H
	DD	FLAT:??_R2exception@std@@8
rdata$r	ENDS
;	COMDAT ??_R4exception@std@@6B@
rdata$r	SEGMENT
??_R4exception@std@@6B@ DD 00H				; std::exception::`RTTI Complete Object Locator'
	DD	00H
	DD	00H
	DD	FLAT:??_R0?AVexception@std@@@8
	DD	FLAT:??_R3exception@std@@8
rdata$r	ENDS
;	COMDAT __CT??_R0?AVexception@std@@@8??0exception@std@@QAE@ABV01@@Z12
xdata$x	SEGMENT
__CT??_R0?AVexception@std@@@8??0exception@std@@QAE@ABV01@@Z12 DD 00H
	DD	FLAT:??_R0?AVexception@std@@@8
	DD	00H
	DD	0ffffffffH
	ORG $+4
	DD	0cH
	DD	FLAT:??0exception@std@@QAE@ABV01@@Z
xdata$x	ENDS
;	COMDAT ??_R0?AVexception@std@@@8
data$r	SEGMENT
??_R0?AVexception@std@@@8 DD FLAT:??_7type_info@@6B@	; std::exception `RTTI Type Descriptor'
	DD	00H
	DB	'.?AVexception@std@@', 00H
data$r	ENDS
;	COMDAT __CT??_R0?AVbad_alloc@std@@@8??0bad_alloc@std@@QAE@ABV01@@Z12
xdata$x	SEGMENT
__CT??_R0?AVbad_alloc@std@@@8??0bad_alloc@std@@QAE@ABV01@@Z12 DD 010H
	DD	FLAT:??_R0?AVbad_alloc@std@@@8
	DD	00H
	DD	0ffffffffH
	ORG $+4
	DD	0cH
	DD	FLAT:??0bad_alloc@std@@QAE@ABV01@@Z
xdata$x	ENDS
;	COMDAT ??_R0?AVbad_alloc@std@@@8
data$r	SEGMENT
??_R0?AVbad_alloc@std@@@8 DD FLAT:??_7type_info@@6B@	; std::bad_alloc `RTTI Type Descriptor'
	DD	00H
	DB	'.?AVbad_alloc@std@@', 00H
data$r	ENDS
;	COMDAT __CT??_R0?AVbad_array_new_length@std@@@8??0bad_array_new_length@std@@QAE@ABV01@@Z12
xdata$x	SEGMENT
__CT??_R0?AVbad_array_new_length@std@@@8??0bad_array_new_length@std@@QAE@ABV01@@Z12 DD 00H
	DD	FLAT:??_R0?AVbad_array_new_length@std@@@8
	DD	00H
	DD	0ffffffffH
	ORG $+4
	DD	0cH
	DD	FLAT:??0bad_array_new_length@std@@QAE@ABV01@@Z
xdata$x	ENDS
;	COMDAT ??_R0?AVbad_array_new_length@std@@@8
data$r	SEGMENT
??_R0?AVbad_array_new_length@std@@@8 DD FLAT:??_7type_info@@6B@ ; std::bad_array_new_length `RTTI Type Descriptor'
	DD	00H
	DB	'.?AVbad_array_new_length@std@@', 00H
data$r	ENDS
;	COMDAT __CTA3?AVbad_array_new_length@std@@
xdata$x	SEGMENT
__CTA3?AVbad_array_new_length@std@@ DD 03H
	DD	FLAT:__CT??_R0?AVbad_array_new_length@std@@@8??0bad_array_new_length@std@@QAE@ABV01@@Z12
	DD	FLAT:__CT??_R0?AVbad_alloc@std@@@8??0bad_alloc@std@@QAE@ABV01@@Z12
	DD	FLAT:__CT??_R0?AVexception@std@@@8??0exception@std@@QAE@ABV01@@Z12
xdata$x	ENDS
;	COMDAT __TI3?AVbad_array_new_length@std@@
xdata$x	SEGMENT
__TI3?AVbad_array_new_length@std@@ DD 00H
	DD	FLAT:??1bad_array_new_length@std@@UAE@XZ
	DD	00H
	DD	FLAT:__CTA3?AVbad_array_new_length@std@@
xdata$x	ENDS
;	COMDAT ??_C@_0BF@KINCDENJ@bad?5array?5new?5length@
CONST	SEGMENT
??_C@_0BF@KINCDENJ@bad?5array?5new?5length@ DB 'bad array new length', 00H ; `string'
CONST	ENDS
;	COMDAT ??_7bad_array_new_length@std@@6B@
CONST	SEGMENT
??_7bad_array_new_length@std@@6B@ DD FLAT:??_R4bad_array_new_length@std@@6B@ ; std::bad_array_new_length::`vftable'
	DD	FLAT:??_Ebad_array_new_length@std@@UAEPAXI@Z
	DD	FLAT:?what@exception@std@@UBEPBDXZ
CONST	ENDS
;	COMDAT ??_7bad_alloc@std@@6B@
CONST	SEGMENT
??_7bad_alloc@std@@6B@ DD FLAT:??_R4bad_alloc@std@@6B@	; std::bad_alloc::`vftable'
	DD	FLAT:??_Ebad_alloc@std@@UAEPAXI@Z
	DD	FLAT:?what@exception@std@@UBEPBDXZ
CONST	ENDS
;	COMDAT ??_C@_0BC@EOODALEL@Unknown?5exception@
CONST	SEGMENT
??_C@_0BC@EOODALEL@Unknown?5exception@ DB 'Unknown exception', 00H ; `string'
CONST	ENDS
;	COMDAT ??_7exception@std@@6B@
CONST	SEGMENT
??_7exception@std@@6B@ DD FLAT:??_R4exception@std@@6B@	; std::exception::`vftable'
	DD	FLAT:??_Eexception@std@@UAEPAXI@Z
	DD	FLAT:?what@exception@std@@UBEPBDXZ
CONST	ENDS
;	COMDAT xdata$x
xdata$x	SEGMENT
__unwindtable$??$?0ABHV?$shared_ptr@VCWikiRenderTarget@@@std@@@?$_List_node_emplace_op2@V?$allocator@U?$_List_node@U?$pair@$$CBHV?$shared_ptr@VCWikiRenderTarget@@@std@@@std@@PAX@std@@@std@@@std@@QAE@AAV?$allocator@U?$_List_node@U?$pair@$$CBHV?$shared_ptr@VCWikiRenderTarget@@@std@@@std@@PAX@std@@@1@ABH$$QAV?$shared_ptr@VCWikiRenderTarget@@@1@@Z DD 0ffffffffH
	DD	FLAT:__unwindfunclet$??$?0ABHV?$shared_ptr@VCWikiRenderTarget@@@std@@@?$_List_node_emplace_op2@V?$allocator@U?$_List_node@U?$pair@$$CBHV?$shared_ptr@VCWikiRenderTarget@@@std@@@std@@PAX@std@@@std@@@std@@QAE@AAV?$allocator@U?$_List_node@U?$pair@$$CBHV?$shared_ptr@VCWikiRenderTarget@@@std@@@std@@PAX@std@@@1@ABH$$QAV?$shared_ptr@VCWikiRenderTarget@@@1@@Z$0
__ehfuncinfo$??$?0ABHV?$shared_ptr@VCWikiRenderTarget@@@std@@@?$_List_node_emplace_op2@V?$allocator@U?$_List_node@U?$pair@$$CBHV?$shared_ptr@VCWikiRenderTarget@@@std@@@std@@PAX@std@@@std@@@std@@QAE@AAV?$allocator@U?$_List_node@U?$pair@$$CBHV?$shared_ptr@VCWikiRenderTarget@@@std@@@std@@PAX@std@@@1@ABH$$QAV?$shared_ptr@VCWikiRenderTarget@@@1@@Z DD 019930522H
	DD	01H
	DD	FLAT:__unwindtable$??$?0ABHV?$shared_ptr@VCWikiRenderTarget@@@std@@@?$_List_node_emplace_op2@V?$allocator@U?$_List_node@U?$pair@$$CBHV?$shared_ptr@VCWikiRenderTarget@@@std@@@std@@PAX@std@@@std@@@std@@QAE@AAV?$allocator@U?$_List_node@U?$pair@$$CBHV?$shared_ptr@VCWikiRenderTarget@@@std@@@std@@PAX@std@@@1@ABH$$QAV?$shared_ptr@VCWikiRenderTarget@@@1@@Z
	DD	2 DUP(00H)
	DD	2 DUP(00H)
	DD	00H
	DD	01H
xdata$x	ENDS
;	COMDAT xdata$x
xdata$x	SEGMENT
__unwindtable$??$emplace@ABHV?$shared_ptr@VCWikiRenderTarget@@@std@@@?$_Hash@V?$_Umap_traits@HV?$shared_ptr@VCWikiRenderTarget@@@std@@V?$_Uhash_compare@HU?$hash@H@std@@U?$equal_to@H@2@@2@V?$allocator@U?$pair@$$CBHV?$shared_ptr@VCWikiRenderTarget@@@std@@@std@@@2@$0A@@std@@@std@@QAE?AU?$pair@V?$_List_iterator@V?$_List_val@U?$_List_simple_types@U?$pair@$$CBHV?$shared_ptr@VCWikiRenderTarget@@@std@@@std@@@std@@@std@@@std@@_N@1@ABH$$QAV?$shared_ptr@VCWikiRenderTarget@@@1@@Z DD 0ffffffffH
	DD	FLAT:__unwindfunclet$??$emplace@ABHV?$shared_ptr@VCWikiRenderTarget@@@std@@@?$_Hash@V?$_Umap_traits@HV?$shared_ptr@VCWikiRenderTarget@@@std@@V?$_Uhash_compare@HU?$hash@H@std@@U?$equal_to@H@2@@2@V?$allocator@U?$pair@$$CBHV?$shared_ptr@VCWikiRenderTarget@@@std@@@std@@@2@$0A@@std@@@std@@QAE?AU?$pair@V?$_List_iterator@V?$_List_val@U?$_List_simple_types@U?$pair@$$CBHV?$shared_ptr@VCWikiRenderTarget@@@std@@@std@@@std@@@std@@@std@@_N@1@ABH$$QAV?$shared_ptr@VCWikiRenderTarget@@@1@@Z$1
	DD	0ffffffffH
	DD	FLAT:__unwindfunclet$??$emplace@ABHV?$shared_ptr@VCWikiRenderTarget@@@std@@@?$_Hash@V?$_Umap_traits@HV?$shared_ptr@VCWikiRenderTarget@@@std@@V?$_Uhash_compare@HU?$hash@H@std@@U?$equal_to@H@2@@2@V?$allocator@U?$pair@$$CBHV?$shared_ptr@VCWikiRenderTarget@@@std@@@std@@@2@$0A@@std@@@std@@QAE?AU?$pair@V?$_List_iterator@V?$_List_val@U?$_List_simple_types@U?$pair@$$CBHV?$shared_ptr@VCWikiRenderTarget@@@std@@@std@@@std@@@std@@@std@@_N@1@ABH$$QAV?$shared_ptr@VCWikiRenderTarget@@@1@@Z$0
__ehfuncinfo$??$emplace@ABHV?$shared_ptr@VCWikiRenderTarget@@@std@@@?$_Hash@V?$_Umap_traits@HV?$shared_ptr@VCWikiRenderTarget@@@std@@V?$_Uhash_compare@HU?$hash@H@std@@U?$equal_to@H@2@@2@V?$allocator@U?$pair@$$CBHV?$shared_ptr@VCWikiRenderTarget@@@std@@@std@@@2@$0A@@std@@@std@@QAE?AU?$pair@V?$_List_iterator@V?$_List_val@U?$_List_simple_types@U?$pair@$$CBHV?$shared_ptr@VCWikiRenderTarget@@@std@@@std@@@std@@@std@@@std@@_N@1@ABH$$QAV?$shared_ptr@VCWikiRenderTarget@@@1@@Z DD 019930522H
	DD	02H
	DD	FLAT:__unwindtable$??$emplace@ABHV?$shared_ptr@VCWikiRenderTarget@@@std@@@?$_Hash@V?$_Umap_traits@HV?$shared_ptr@VCWikiRenderTarget@@@std@@V?$_Uhash_compare@HU?$hash@H@std@@U?$equal_to@H@2@@2@V?$allocator@U?$pair@$$CBHV?$shared_ptr@VCWikiRenderTarget@@@std@@@std@@@2@$0A@@std@@@std@@QAE?AU?$pair@V?$_List_iterator@V?$_List_val@U?$_List_simple_types@U?$pair@$$CBHV?$shared_ptr@VCWikiRenderTarget@@@std@@@std@@@std@@@std@@@std@@_N@1@ABH$$QAV?$shared_ptr@VCWikiRenderTarget@@@1@@Z
	DD	2 DUP(00H)
	DD	2 DUP(00H)
	DD	00H
	DD	01H
xdata$x	ENDS
;	COMDAT xdata$x
xdata$x	SEGMENT
__unwindtable$??$make_shared@VCWikiRenderTarget@@ABHABH@std@@YA?AV?$shared_ptr@VCWikiRenderTarget@@@0@ABH0@Z DD 0ffffffffH
	DD	FLAT:__unwindfunclet$??$make_shared@VCWikiRenderTarget@@ABHABH@std@@YA?AV?$shared_ptr@VCWikiRenderTarget@@@0@ABH0@Z$0
__ehfuncinfo$??$make_shared@VCWikiRenderTarget@@ABHABH@std@@YA?AV?$shared_ptr@VCWikiRenderTarget@@@0@ABH0@Z DD 019930522H
	DD	01H
	DD	FLAT:__unwindtable$??$make_shared@VCWikiRenderTarget@@ABHABH@std@@YA?AV?$shared_ptr@VCWikiRenderTarget@@@0@ABH0@Z
	DD	2 DUP(00H)
	DD	2 DUP(00H)
	DD	00H
	DD	01H
xdata$x	ENDS
;	COMDAT xdata$x
xdata$x	SEGMENT
__unwindtable$??0?$unordered_map@HV?$shared_ptr@VCWikiRenderTarget@@@std@@U?$hash@H@2@U?$equal_to@H@2@V?$allocator@U?$pair@$$CBHV?$shared_ptr@VCWikiRenderTarget@@@std@@@std@@@2@@std@@QAE@XZ DD 0ffffffffH
	DD	FLAT:__unwindfunclet$??0?$unordered_map@HV?$shared_ptr@VCWikiRenderTarget@@@std@@U?$hash@H@2@U?$equal_to@H@2@V?$allocator@U?$pair@$$CBHV?$shared_ptr@VCWikiRenderTarget@@@std@@@std@@@2@@std@@QAE@XZ$1
	DD	00H
	DD	FLAT:__unwindfunclet$??0?$unordered_map@HV?$shared_ptr@VCWikiRenderTarget@@@std@@U?$hash@H@2@U?$equal_to@H@2@V?$allocator@U?$pair@$$CBHV?$shared_ptr@VCWikiRenderTarget@@@std@@@std@@@2@@std@@QAE@XZ$2
__ehfuncinfo$??0?$unordered_map@HV?$shared_ptr@VCWikiRenderTarget@@@std@@U?$hash@H@2@U?$equal_to@H@2@V?$allocator@U?$pair@$$CBHV?$shared_ptr@VCWikiRenderTarget@@@std@@@std@@@2@@std@@QAE@XZ DD 019930522H
	DD	02H
	DD	FLAT:__unwindtable$??0?$unordered_map@HV?$shared_ptr@VCWikiRenderTarget@@@std@@U?$hash@H@2@U?$equal_to@H@2@V?$allocator@U?$pair@$$CBHV?$shared_ptr@VCWikiRenderTarget@@@std@@@std@@@2@@std@@QAE@XZ
	DD	2 DUP(00H)
	DD	2 DUP(00H)
	DD	00H
	DD	01H
xdata$x	ENDS
;	COMDAT xdata$x
xdata$x	SEGMENT
__unwindtable$??0?$_Hash@V?$_Umap_traits@HV?$shared_ptr@VCWikiRenderTarget@@@std@@V?$_Uhash_compare@HU?$hash@H@std@@U?$equal_to@H@2@@2@V?$allocator@U?$pair@$$CBHV?$shared_ptr@VCWikiRenderTarget@@@std@@@std@@@2@$0A@@std@@@std@@IAE@ABV?$_Uhash_compare@HU?$hash@H@std@@U?$equal_to@H@2@@1@ABV?$allocator@U?$pair@$$CBHV?$shared_ptr@VCWikiRenderTarget@@@std@@@std@@@1@@Z DD 0ffffffffH
	DD	FLAT:__unwindfunclet$??0?$_Hash@V?$_Umap_traits@HV?$shared_ptr@VCWikiRenderTarget@@@std@@V?$_Uhash_compare@HU?$hash@H@std@@U?$equal_to@H@2@@2@V?$allocator@U?$pair@$$CBHV?$shared_ptr@VCWikiRenderTarget@@@std@@@std@@@2@$0A@@std@@@std@@IAE@ABV?$_Uhash_compare@HU?$hash@H@std@@U?$equal_to@H@2@@1@ABV?$allocator@U?$pair@$$CBHV?$shared_ptr@VCWikiRenderTarget@@@std@@@std@@@1@@Z$0
	DD	00H
	DD	FLAT:__unwindfunclet$??0?$_Hash@V?$_Umap_traits@HV?$shared_ptr@VCWikiRenderTarget@@@std@@V?$_Uhash_compare@HU?$hash@H@std@@U?$equal_to@H@2@@2@V?$allocator@U?$pair@$$CBHV?$shared_ptr@VCWikiRenderTarget@@@std@@@std@@@2@$0A@@std@@@std@@IAE@ABV?$_Uhash_compare@HU?$hash@H@std@@U?$equal_to@H@2@@1@ABV?$allocator@U?$pair@$$CBHV?$shared_ptr@VCWikiRenderTarget@@@std@@@std@@@1@@Z$1
__ehfuncinfo$??0?$_Hash@V?$_Umap_traits@HV?$shared_ptr@VCWikiRenderTarget@@@std@@V?$_Uhash_compare@HU?$hash@H@std@@U?$equal_to@H@2@@2@V?$allocator@U?$pair@$$CBHV?$shared_ptr@VCWikiRenderTarget@@@std@@@std@@@2@$0A@@std@@@std@@IAE@ABV?$_Uhash_compare@HU?$hash@H@std@@U?$equal_to@H@2@@1@ABV?$allocator@U?$pair@$$CBHV?$shared_ptr@VCWikiRenderTarget@@@std@@@std@@@1@@Z DD 019930522H
	DD	02H
	DD	FLAT:__unwindtable$??0?$_Hash@V?$_Umap_traits@HV?$shared_ptr@VCWikiRenderTarget@@@std@@V?$_Uhash_compare@HU?$hash@H@std@@U?$equal_to@H@2@@2@V?$allocator@U?$pair@$$CBHV?$shared_ptr@VCWikiRenderTarget@@@std@@@std@@@2@$0A@@std@@@std@@IAE@ABV?$_Uhash_compare@HU?$hash@H@std@@U?$equal_to@H@2@@1@ABV?$allocator@U?$pair@$$CBHV?$shared_ptr@VCWikiRenderTarget@@@std@@@std@@@1@@Z
	DD	2 DUP(00H)
	DD	2 DUP(00H)
	DD	00H
	DD	01H
xdata$x	ENDS
;	COMDAT xdata$x
xdata$x	SEGMENT
__unwindtable$?CreateRenderTarget@CWikiRenderTargetManager@@QAE_NHHH@Z DD 0ffffffffH
	DD	FLAT:__unwindfunclet$?CreateRenderTarget@CWikiRenderTargetManager@@QAE_NHHH@Z$2
	DD	0ffffffffH
	DD	FLAT:__unwindfunclet$?CreateRenderTarget@CWikiRenderTargetManager@@QAE_NHHH@Z$1
__ehfuncinfo$?CreateRenderTarget@CWikiRenderTargetManager@@QAE_NHHH@Z DD 019930522H
	DD	02H
	DD	FLAT:__unwindtable$?CreateRenderTarget@CWikiRenderTargetManager@@QAE_NHHH@Z
	DD	2 DUP(00H)
	DD	2 DUP(00H)
	DD	00H
	DD	01H
xdata$x	ENDS
;	COMDAT xdata$x
xdata$x	SEGMENT
__unwindtable$??0CWikiRenderTargetManager@@QAE@XZ DD 0ffffffffH
	DD	FLAT:__unwindfunclet$??0CWikiRenderTargetManager@@QAE@XZ$0
	DD	00H
	DD	FLAT:__unwindfunclet$??0CWikiRenderTargetManager@@QAE@XZ$3
	DD	01H
	DD	FLAT:__unwindfunclet$??0CWikiRenderTargetManager@@QAE@XZ$4
__ehfuncinfo$??0CWikiRenderTargetManager@@QAE@XZ DD 019930522H
	DD	03H
	DD	FLAT:__unwindtable$??0CWikiRenderTargetManager@@QAE@XZ
	DD	2 DUP(00H)
	DD	2 DUP(00H)
	DD	00H
	DD	01H
xdata$x	ENDS
; Function compile flags: /Ogtp
; File C:\Program Files\Microsoft Visual Studio\2022\Community\VC\Tools\MSVC\14.34.31933\include\type_traits
;	COMDAT ??$_Fnv1a_append_value@H@std@@YAIIABH@Z
_TEXT	SEGMENT
__Val$ = 8						; size = 4
__Keyval$ = 12						; size = 4
??$_Fnv1a_append_value@H@std@@YAIIABH@Z PROC		; std::_Fnv1a_append_value<int>, COMDAT

; 2136 :     const size_t _Val, const _Kty& _Keyval) noexcept { // accumulate _Keyval into partial FNV-1a hash _Val

  00000	55		 push	 ebp
  00001	8b ec		 mov	 ebp, esp

; 2118 :         _Val ^= static_cast<size_t>(_First[_Idx]);

  00003	8b 55 0c	 mov	 edx, DWORD PTR __Keyval$[ebp]
  00006	0f b6 02	 movzx	 eax, BYTE PTR [edx]
  00009	33 45 08	 xor	 eax, DWORD PTR __Val$[ebp]

; 2119 :         _Val *= _FNV_prime;

  0000c	69 c8 93 01 00
	01		 imul	 ecx, eax, 16777619
  00012	0f b6 42 01	 movzx	 eax, BYTE PTR [edx+1]
  00016	33 c8		 xor	 ecx, eax
  00018	0f b6 42 02	 movzx	 eax, BYTE PTR [edx+2]
  0001c	69 c9 93 01 00
	01		 imul	 ecx, ecx, 16777619
  00022	33 c8		 xor	 ecx, eax
  00024	0f b6 42 03	 movzx	 eax, BYTE PTR [edx+3]
  00028	69 c9 93 01 00
	01		 imul	 ecx, ecx, 16777619
  0002e	33 c8		 xor	 ecx, eax
  00030	69 c1 93 01 00
	01		 imul	 eax, ecx, 16777619

; 2137 :     static_assert(is_trivial_v<_Kty>, "Only trivial types can be directly hashed.");
; 2138 :     return _Fnv1a_append_bytes(_Val, &reinterpret_cast<const unsigned char&>(_Keyval), sizeof(_Kty));
; 2139 : }

  00036	5d		 pop	 ebp
  00037	c3		 ret	 0
??$_Fnv1a_append_value@H@std@@YAIIABH@Z ENDP		; std::_Fnv1a_append_value<int>
_TEXT	ENDS
; Function compile flags: /Ogtp
; File C:\Program Files\Microsoft Visual Studio\2022\Community\VC\Tools\MSVC\14.34.31933\include\xhash
; File C:\Program Files\Microsoft Visual Studio\2022\Community\VC\Tools\MSVC\14.34.31933\include\xstddef
; File C:\Program Files\Microsoft Visual Studio\2022\Community\VC\Tools\MSVC\14.34.31933\include\xhash
; File C:\Program Files\Microsoft Visual Studio\2022\Community\VC\Tools\MSVC\14.34.31933\include\xstddef
; File C:\Program Files\Microsoft Visual Studio\2022\Community\VC\Tools\MSVC\14.34.31933\include\xhash
; File C:\Program Files\Microsoft Visual Studio\2022\Community\VC\Tools\MSVC\14.34.31933\include\xstddef
; File C:\Program Files\Microsoft Visual Studio\2022\Community\VC\Tools\MSVC\14.34.31933\include\xhash
;	COMDAT ??$_Find_last@H@?$_Hash@V?$_Umap_traits@HV?$shared_ptr@VCWikiRenderTarget@@@std@@V?$_Uhash_compare@HU?$hash@H@std@@U?$equal_to@H@2@@2@V?$allocator@U?$pair@$$CBHV?$shared_ptr@VCWikiRenderTarget@@@std@@@std@@@2@$0A@@std@@@std@@IBE?AU?$_Hash_find_last_result@PAU?$_List_node@U?$pair@$$CBHV?$shared_ptr@VCWikiRenderTarget@@@std@@@std@@PAX@std@@@1@ABHI@Z
_TEXT	SEGMENT
___$ReturnUdt$ = 8					; size = 4
__Keyval$ = 12						; size = 4
__Hashval$ = 16						; size = 4
??$_Find_last@H@?$_Hash@V?$_Umap_traits@HV?$shared_ptr@VCWikiRenderTarget@@@std@@V?$_Uhash_compare@HU?$hash@H@std@@U?$equal_to@H@2@@2@V?$allocator@U?$pair@$$CBHV?$shared_ptr@VCWikiRenderTarget@@@std@@@std@@@2@$0A@@std@@@std@@IBE?AU?$_Hash_find_last_result@PAU?$_List_node@U?$pair@$$CBHV?$shared_ptr@VCWikiRenderTarget@@@std@@@std@@PAX@std@@@1@ABHI@Z PROC ; std::_Hash<std::_Umap_traits<int,std::shared_ptr<CWikiRenderTarget>,std::_Uhash_compare<int,std::hash<int>,std::equal_to<int> >,std::allocator<std::pair<int const ,std::shared_ptr<CWikiRenderTarget> > >,0> >::_Find_last<int>, COMDAT
; _this$ = ecx

; 1564 :     _NODISCARD _Hash_find_last_result<_Nodeptr> _Find_last(const _Keyty& _Keyval, const size_t _Hashval) const {

  00000	55		 push	 ebp
  00001	8b ec		 mov	 ebp, esp

; 1565 :         // find the insertion point for _Keyval and whether an element identical to _Keyval is already in the container
; 1566 :         const size_type _Bucket = _Hashval & _Mask;

  00003	8b 51 18	 mov	 edx, DWORD PTR [ecx+24]

; 1567 :         _Nodeptr _Where         = _Vec._Mypair._Myval2._Myfirst[(_Bucket << 1) + 1]._Ptr;

  00006	8b 41 0c	 mov	 eax, DWORD PTR [ecx+12]
  00009	23 55 10	 and	 edx, DWORD PTR __Hashval$[ebp]

; 1568 :         const _Nodeptr _End     = _List._Mypair._Myval2._Myhead;

  0000c	8b 49 04	 mov	 ecx, DWORD PTR [ecx+4]
  0000f	8d 14 d0	 lea	 edx, DWORD PTR [eax+edx*8]
  00012	8b 42 04	 mov	 eax, DWORD PTR [edx+4]

; 1569 :         if (_Where == _End) {

  00015	3b c1		 cmp	 eax, ecx
  00017	75 10		 jne	 SHORT $LN5@Find_last

; 1570 :             return {_End, _Nodeptr{}};

  00019	8b 45 08	 mov	 eax, DWORD PTR ___$ReturnUdt$[ebp]
  0001c	89 08		 mov	 DWORD PTR [eax], ecx
  0001e	c7 40 04 00 00
	00 00		 mov	 DWORD PTR [eax+4], 0

; 1591 :         }
; 1592 :     }

  00025	5d		 pop	 ebp
  00026	c2 0c 00	 ret	 12			; 0000000cH
$LN5@Find_last:
; File C:\Program Files\Microsoft Visual Studio\2022\Community\VC\Tools\MSVC\14.34.31933\include\xstddef

; 107  :         return _Left == _Right;

  00029	8b 4d 0c	 mov	 ecx, DWORD PTR __Keyval$[ebp]
; File C:\Program Files\Microsoft Visual Studio\2022\Community\VC\Tools\MSVC\14.34.31933\include\xhash

; 1573 :         const _Nodeptr _Bucket_lo = _Vec._Mypair._Myval2._Myfirst[_Bucket << 1]._Ptr;

  0002c	8b 12		 mov	 edx, DWORD PTR [edx]
; File C:\Program Files\Microsoft Visual Studio\2022\Community\VC\Tools\MSVC\14.34.31933\include\xstddef

; 107  :         return _Left == _Right;

  0002e	8b 09		 mov	 ecx, DWORD PTR [ecx]
  00030	3b 48 08	 cmp	 ecx, DWORD PTR [eax+8]
; File C:\Program Files\Microsoft Visual Studio\2022\Community\VC\Tools\MSVC\14.34.31933\include\xhash

; 1576 :             if (!_Traitsobj(_Keyval, _Traits::_Kfn(_Where->_Myval))) {

  00033	74 0c		 je	 SHORT $LN15@Find_last
$LL2@Find_last:

; 1584 :             }
; 1585 : 
; 1586 :             if (_Where == _Bucket_lo) {

  00035	3b c2		 cmp	 eax, edx
  00037	74 18		 je	 SHORT $LN16@Find_last

; 1588 :             }
; 1589 : 
; 1590 :             _Where = _Where->_Prev;

  00039	8b 40 04	 mov	 eax, DWORD PTR [eax+4]
; File C:\Program Files\Microsoft Visual Studio\2022\Community\VC\Tools\MSVC\14.34.31933\include\xstddef

; 107  :         return _Left == _Right;

  0003c	3b 48 08	 cmp	 ecx, DWORD PTR [eax+8]
; File C:\Program Files\Microsoft Visual Studio\2022\Community\VC\Tools\MSVC\14.34.31933\include\xhash

; 1576 :             if (!_Traitsobj(_Keyval, _Traits::_Kfn(_Where->_Myval))) {

  0003f	75 f4		 jne	 SHORT $LL2@Find_last
$LN15@Find_last:

; 1577 :                 if constexpr (!_Traits::_Standard) {
; 1578 :                     if (_Traitsobj(_Traits::_Kfn(_Where->_Myval), _Keyval)) {
; 1579 :                         return {_Where->_Next, _Nodeptr{}};
; 1580 :                     }
; 1581 :                 }
; 1582 : 
; 1583 :                 return {_Where->_Next, _Where};

  00041	8b 55 08	 mov	 edx, DWORD PTR ___$ReturnUdt$[ebp]
  00044	8b 08		 mov	 ecx, DWORD PTR [eax]
  00046	89 42 04	 mov	 DWORD PTR [edx+4], eax
  00049	8b c2		 mov	 eax, edx
  0004b	89 0a		 mov	 DWORD PTR [edx], ecx

; 1591 :         }
; 1592 :     }

  0004d	5d		 pop	 ebp
  0004e	c2 0c 00	 ret	 12			; 0000000cH
$LN16@Find_last:

; 1587 :                 return {_Where, _Nodeptr{}};

  00051	8b 4d 08	 mov	 ecx, DWORD PTR ___$ReturnUdt$[ebp]
  00054	89 01		 mov	 DWORD PTR [ecx], eax
  00056	8b c1		 mov	 eax, ecx
  00058	c7 41 04 00 00
	00 00		 mov	 DWORD PTR [ecx+4], 0

; 1591 :         }
; 1592 :     }

  0005f	5d		 pop	 ebp
  00060	c2 0c 00	 ret	 12			; 0000000cH
??$_Find_last@H@?$_Hash@V?$_Umap_traits@HV?$shared_ptr@VCWikiRenderTarget@@@std@@V?$_Uhash_compare@HU?$hash@H@std@@U?$equal_to@H@2@@2@V?$allocator@U?$pair@$$CBHV?$shared_ptr@VCWikiRenderTarget@@@std@@@std@@@2@$0A@@std@@@std@@IBE?AU?$_Hash_find_last_result@PAU?$_List_node@U?$pair@$$CBHV?$shared_ptr@VCWikiRenderTarget@@@std@@@std@@PAX@std@@@1@ABHI@Z ENDP ; std::_Hash<std::_Umap_traits<int,std::shared_ptr<CWikiRenderTarget>,std::_Uhash_compare<int,std::hash<int>,std::equal_to<int> >,std::allocator<std::pair<int const ,std::shared_ptr<CWikiRenderTarget> > >,0> >::_Find_last<int>
_TEXT	ENDS
; Function compile flags: /Ogtp
; File C:\Program Files\Microsoft Visual Studio\2022\Community\VC\Tools\MSVC\14.34.31933\include\list
; File C:\Program Files\Microsoft Visual Studio\2022\Community\VC\Tools\MSVC\14.34.31933\include\memory
; File C:\Program Files\Microsoft Visual Studio\2022\Community\VC\Tools\MSVC\14.34.31933\include\xmemory
; File C:\Program Files\Microsoft Visual Studio\2022\Community\VC\Tools\MSVC\14.34.31933\include\list
;	COMDAT ??1?$_List_node_emplace_op2@V?$allocator@U?$_List_node@U?$pair@$$CBHV?$shared_ptr@VCWikiRenderTarget@@@std@@@std@@PAX@std@@@std@@@std@@QAE@XZ
_TEXT	SEGMENT
??1?$_List_node_emplace_op2@V?$allocator@U?$_List_node@U?$pair@$$CBHV?$shared_ptr@VCWikiRenderTarget@@@std@@@std@@PAX@std@@@std@@@std@@QAE@XZ PROC ; std::_List_node_emplace_op2<std::allocator<std::_List_node<std::pair<int const ,std::shared_ptr<CWikiRenderTarget> >,void *> > >::~_List_node_emplace_op2<std::allocator<std::_List_node<std::pair<int const ,std::shared_ptr<CWikiRenderTarget> >,void *> > >, COMDAT
; _this$ = ecx

; 589  :     ~_List_node_emplace_op2() {

  00000	53		 push	 ebx
  00001	8b d9		 mov	 ebx, ecx
  00003	56		 push	 esi

; 590  :         if (this->_Ptr != pointer{}) {

  00004	8b 73 04	 mov	 esi, DWORD PTR [ebx+4]
  00007	85 f6		 test	 esi, esi
  00009	74 2a		 je	 SHORT $LN43@List_node_
; File C:\Program Files\Microsoft Visual Studio\2022\Community\VC\Tools\MSVC\14.34.31933\include\memory

; 1334 :         if (_Rep) {

  0000b	8b 76 10	 mov	 esi, DWORD PTR [esi+16]
  0000e	85 f6		 test	 esi, esi
  00010	74 23		 je	 SHORT $LN43@List_node_

; 1109 :         if (_MT_DECR(_Uses) == 0) {

  00012	57		 push	 edi
  00013	83 cf ff	 or	 edi, -1
  00016	8b c7		 mov	 eax, edi
  00018	f0 0f c1 46 04	 lock	  xadd	 DWORD PTR [esi+4], eax
  0001d	75 15		 jne	 SHORT $LN45@List_node_

; 1110 :             _Destroy();

  0001f	8b 06		 mov	 eax, DWORD PTR [esi]
  00021	8b ce		 mov	 ecx, esi
  00023	ff 10		 call	 DWORD PTR [eax]

; 1116 :         if (_MT_DECR(_Weaks) == 0) {

  00025	f0 0f c1 7e 08	 lock	  xadd	 DWORD PTR [esi+8], edi
  0002a	4f		 dec	 edi
  0002b	75 07		 jne	 SHORT $LN45@List_node_

; 1117 :             _Delete_this();

  0002d	8b 06		 mov	 eax, DWORD PTR [esi]
  0002f	8b ce		 mov	 ecx, esi
  00031	ff 50 04	 call	 DWORD PTR [eax+4]
$LN45@List_node_:
  00034	5f		 pop	 edi
$LN43@List_node_:
; File C:\Program Files\Microsoft Visual Studio\2022\Community\VC\Tools\MSVC\14.34.31933\include\xmemory

; 1017 :         if (_Ptr) {

  00035	8b 43 04	 mov	 eax, DWORD PTR [ebx+4]
  00038	5e		 pop	 esi
  00039	5b		 pop	 ebx
  0003a	85 c0		 test	 eax, eax
  0003c	74 0b		 je	 SHORT $LN11@List_node_

; 255  :         ::operator delete(_Ptr, _Bytes);

  0003e	6a 14		 push	 20			; 00000014H
  00040	50		 push	 eax
  00041	e8 00 00 00 00	 call	 ??3@YAXPAXI@Z		; operator delete
  00046	83 c4 08	 add	 esp, 8
$LN11@List_node_:
; File C:\Program Files\Microsoft Visual Studio\2022\Community\VC\Tools\MSVC\14.34.31933\include\list

; 593  :     }

  00049	c3		 ret	 0
??1?$_List_node_emplace_op2@V?$allocator@U?$_List_node@U?$pair@$$CBHV?$shared_ptr@VCWikiRenderTarget@@@std@@@std@@PAX@std@@@std@@@std@@QAE@XZ ENDP ; std::_List_node_emplace_op2<std::allocator<std::_List_node<std::pair<int const ,std::shared_ptr<CWikiRenderTarget> >,void *> > >::~_List_node_emplace_op2<std::allocator<std::_List_node<std::pair<int const ,std::shared_ptr<CWikiRenderTarget> >,void *> > >
_TEXT	ENDS
; Function compile flags: /Ogtp
; File C:\Program Files\Microsoft Visual Studio\2022\Community\VC\Tools\MSVC\14.34.31933\include\xmemory
;	COMDAT ??1?$_Alloc_construct_ptr@V?$allocator@U?$_List_node@U?$pair@$$CBHV?$shared_ptr@VCWikiRenderTarget@@@std@@@std@@PAX@std@@@std@@@std@@QAE@XZ
_TEXT	SEGMENT
??1?$_Alloc_construct_ptr@V?$allocator@U?$_List_node@U?$pair@$$CBHV?$shared_ptr@VCWikiRenderTarget@@@std@@@std@@PAX@std@@@std@@@std@@QAE@XZ PROC ; std::_Alloc_construct_ptr<std::allocator<std::_List_node<std::pair<int const ,std::shared_ptr<CWikiRenderTarget> >,void *> > >::~_Alloc_construct_ptr<std::allocator<std::_List_node<std::pair<int const ,std::shared_ptr<CWikiRenderTarget> >,void *> > >, COMDAT
; _this$ = ecx

; 1017 :         if (_Ptr) {

  00000	8b 41 04	 mov	 eax, DWORD PTR [ecx+4]
  00003	85 c0		 test	 eax, eax
  00005	74 0b		 je	 SHORT $LN8@Alloc_cons

; 255  :         ::operator delete(_Ptr, _Bytes);

  00007	6a 14		 push	 20			; 00000014H
  00009	50		 push	 eax
  0000a	e8 00 00 00 00	 call	 ??3@YAXPAXI@Z		; operator delete
  0000f	83 c4 08	 add	 esp, 8
$LN8@Alloc_cons:

; 1018 :             _Al.deallocate(_Ptr, 1);
; 1019 :         }
; 1020 :     }

  00012	c3		 ret	 0
??1?$_Alloc_construct_ptr@V?$allocator@U?$_List_node@U?$pair@$$CBHV?$shared_ptr@VCWikiRenderTarget@@@std@@@std@@PAX@std@@@std@@@std@@QAE@XZ ENDP ; std::_Alloc_construct_ptr<std::allocator<std::_List_node<std::pair<int const ,std::shared_ptr<CWikiRenderTarget> >,void *> > >::~_Alloc_construct_ptr<std::allocator<std::_List_node<std::pair<int const ,std::shared_ptr<CWikiRenderTarget> >,void *> > >
_TEXT	ENDS
; Function compile flags: /Ogtp
;	COMDAT ??_G?$_Ref_count_obj2@VCWikiRenderTarget@@@std@@UAEPAXI@Z
_TEXT	SEGMENT
___flags$ = 8						; size = 4
??_G?$_Ref_count_obj2@VCWikiRenderTarget@@@std@@UAEPAXI@Z PROC ; std::_Ref_count_obj2<CWikiRenderTarget>::`scalar deleting destructor', COMDAT
; _this$ = ecx
  00000	55		 push	 ebp
  00001	8b ec		 mov	 ebp, esp
  00003	f6 45 08 01	 test	 BYTE PTR ___flags$[ebp], 1
  00007	56		 push	 esi
  00008	8b f1		 mov	 esi, ecx
  0000a	c7 06 00 00 00
	00		 mov	 DWORD PTR [esi], OFFSET ??_7?$_Ref_count_obj2@VCWikiRenderTarget@@@std@@6B@
  00010	74 0b		 je	 SHORT $LN4@scalar
  00012	6a 44		 push	 68			; 00000044H
  00014	56		 push	 esi
  00015	e8 00 00 00 00	 call	 ??3@YAXPAXI@Z		; operator delete
  0001a	83 c4 08	 add	 esp, 8
$LN4@scalar:
  0001d	8b c6		 mov	 eax, esi
  0001f	5e		 pop	 esi
  00020	5d		 pop	 ebp
  00021	c2 04 00	 ret	 4
??_G?$_Ref_count_obj2@VCWikiRenderTarget@@@std@@UAEPAXI@Z ENDP ; std::_Ref_count_obj2<CWikiRenderTarget>::`scalar deleting destructor'
_TEXT	ENDS
; Function compile flags: /Ogtp
; File C:\Program Files\Microsoft Visual Studio\2022\Community\VC\Tools\MSVC\14.34.31933\include\memory
;	COMDAT ?_Delete_this@?$_Ref_count_obj2@VCWikiRenderTarget@@@std@@EAEXXZ
_TEXT	SEGMENT
?_Delete_this@?$_Ref_count_obj2@VCWikiRenderTarget@@@std@@EAEXXZ PROC ; std::_Ref_count_obj2<CWikiRenderTarget>::_Delete_this, COMDAT
; _this$ = ecx

; 2053 :         delete this;

  00000	85 c9		 test	 ecx, ecx
  00002	74 07		 je	 SHORT $LN3@Delete_thi
  00004	8b 01		 mov	 eax, DWORD PTR [ecx]
  00006	6a 01		 push	 1
  00008	ff 50 08	 call	 DWORD PTR [eax+8]
$LN3@Delete_thi:

; 2054 :     }

  0000b	c3		 ret	 0
?_Delete_this@?$_Ref_count_obj2@VCWikiRenderTarget@@@std@@EAEXXZ ENDP ; std::_Ref_count_obj2<CWikiRenderTarget>::_Delete_this
_TEXT	ENDS
; Function compile flags: /Ogtp
; File C:\Program Files\Microsoft Visual Studio\2022\Community\VC\Tools\MSVC\14.34.31933\include\memory
; File C:\Program Files\Microsoft Visual Studio\2022\Community\VC\Tools\MSVC\14.34.31933\include\xmemory
; File C:\Program Files\Microsoft Visual Studio\2022\Community\VC\Tools\MSVC\14.34.31933\include\memory
; File C:\Program Files\Microsoft Visual Studio\2022\Community\VC\Tools\MSVC\14.34.31933\include\xmemory
; File C:\Program Files\Microsoft Visual Studio\2022\Community\VC\Tools\MSVC\14.34.31933\include\memory
;	COMDAT ?_Destroy@?$_Ref_count_obj2@VCWikiRenderTarget@@@std@@EAEXXZ
_TEXT	SEGMENT
?_Destroy@?$_Ref_count_obj2@VCWikiRenderTarget@@@std@@EAEXXZ PROC ; std::_Ref_count_obj2<CWikiRenderTarget>::_Destroy, COMDAT
; _this$ = ecx
; File C:\Program Files\Microsoft Visual Studio\2022\Community\VC\Tools\MSVC\14.34.31933\include\xmemory

; 298  :         _Obj.~_Ty();

  00000	8b 41 0c	 mov	 eax, DWORD PTR [ecx+12]
; File C:\Program Files\Microsoft Visual Studio\2022\Community\VC\Tools\MSVC\14.34.31933\include\memory

; 2049 :         _Destroy_in_place(_Storage._Value);

  00003	83 c1 0c	 add	 ecx, 12			; 0000000cH
; File C:\Program Files\Microsoft Visual Studio\2022\Community\VC\Tools\MSVC\14.34.31933\include\xmemory

; 298  :         _Obj.~_Ty();

  00006	6a 00		 push	 0
  00008	ff 10		 call	 DWORD PTR [eax]
; File C:\Program Files\Microsoft Visual Studio\2022\Community\VC\Tools\MSVC\14.34.31933\include\memory

; 2050 :     }

  0000a	c3		 ret	 0
?_Destroy@?$_Ref_count_obj2@VCWikiRenderTarget@@@std@@EAEXXZ ENDP ; std::_Ref_count_obj2<CWikiRenderTarget>::_Destroy
_TEXT	ENDS
; Function compile flags: /Ogtp
; File C:\Program Files\Microsoft Visual Studio\2022\Community\VC\Tools\MSVC\14.34.31933\include\memory
;	COMDAT ??1?$_Ref_count_obj2@VCWikiRenderTarget@@@std@@UAE@XZ
_TEXT	SEGMENT
??1?$_Ref_count_obj2@VCWikiRenderTarget@@@std@@UAE@XZ PROC ; std::_Ref_count_obj2<CWikiRenderTarget>::~_Ref_count_obj2<CWikiRenderTarget>, COMDAT
; _this$ = ecx

; 2035 :     ~_Ref_count_obj2() noexcept override { // TRANSITION, should be non-virtual

  00000	c7 01 00 00 00
	00		 mov	 DWORD PTR [ecx], OFFSET ??_7?$_Ref_count_obj2@VCWikiRenderTarget@@@std@@6B@

; 2036 :         // nothing to do, _Storage._Value was already destroyed in _Destroy
; 2037 : 
; 2038 :         // N4849 [class.dtor]/7:
; 2039 :         // "A defaulted destructor for a class X is defined as deleted if:
; 2040 :         // X is a union-like class that has a variant member with a non-trivial destructor"
; 2041 :     }

  00006	c3		 ret	 0
??1?$_Ref_count_obj2@VCWikiRenderTarget@@@std@@UAE@XZ ENDP ; std::_Ref_count_obj2<CWikiRenderTarget>::~_Ref_count_obj2<CWikiRenderTarget>
_TEXT	ENDS
; Function compile flags: /Ogtp
; File C:\Program Files\Microsoft Visual Studio\2022\Community\VC\Tools\MSVC\14.34.31933\include\xmemory
;	COMDAT ??$uninitialized_fill@PAV?$_List_unchecked_iterator@V?$_List_val@U?$_List_simple_types@U?$pair@$$CBHV?$shared_ptr@VCWikiRenderTarget@@@std@@@std@@@std@@@std@@@std@@V12@@std@@YAXQAV?$_List_unchecked_iterator@V?$_List_val@U?$_List_simple_types@U?$pair@$$CBHV?$shared_ptr@VCWikiRenderTarget@@@std@@@std@@@std@@@std@@@0@0ABV10@@Z
_TEXT	SEGMENT
__First$ = 8						; size = 4
__Last$ = 12						; size = 4
__Val$ = 16						; size = 4
??$uninitialized_fill@PAV?$_List_unchecked_iterator@V?$_List_val@U?$_List_simple_types@U?$pair@$$CBHV?$shared_ptr@VCWikiRenderTarget@@@std@@@std@@@std@@@std@@@std@@V12@@std@@YAXQAV?$_List_unchecked_iterator@V?$_List_val@U?$_List_simple_types@U?$pair@$$CBHV?$shared_ptr@VCWikiRenderTarget@@@std@@@std@@@std@@@std@@@0@0ABV10@@Z PROC ; std::uninitialized_fill<std::_List_unchecked_iterator<std::_List_val<std::_List_simple_types<std::pair<int const ,std::shared_ptr<CWikiRenderTarget> > > > > *,std::_List_unchecked_iterator<std::_List_val<std::_List_simple_types<std::pair<int const ,std::shared_ptr<CWikiRenderTarget> > > > > >, COMDAT

; 1847 : void uninitialized_fill(const _NoThrowFwdIt _First, const _NoThrowFwdIt _Last, const _Tval& _Val) {

  00000	55		 push	 ebp
  00001	8b ec		 mov	 ebp, esp

; 1463 :     constexpr explicit _Uninitialized_backout(_NoThrowFwdIt _Dest) : _First(_Dest), _Last(_Dest) {}

  00003	8b 45 08	 mov	 eax, DWORD PTR __First$[ebp]
  00006	8b 55 0c	 mov	 edx, DWORD PTR __Last$[ebp]
  00009	3b c2		 cmp	 eax, edx

; 1848 :     // copy _Val throughout raw [_First, _Last)
; 1849 :     _Adl_verify_range(_First, _Last);
; 1850 :     auto _UFirst      = _Get_unwrapped(_First);
; 1851 :     const auto _ULast = _Get_unwrapped(_Last);
; 1852 :     if constexpr (_Fill_memset_is_safe<_Unwrapped_t<const _NoThrowFwdIt&>, _Tval>) {
; 1853 :         _Fill_memset(_UFirst, _Val, static_cast<size_t>(_ULast - _UFirst));
; 1854 :     } else {
; 1855 :         if constexpr (_Fill_zero_memset_is_safe<_Unwrapped_t<const _NoThrowFwdIt&>, _Tval>) {
; 1856 :             if (_Is_all_bits_zero(_Val)) {
; 1857 :                 _Fill_zero_memset(_UFirst, static_cast<size_t>(_ULast - _UFirst));
; 1858 :                 return;
; 1859 :             }
; 1860 :         }
; 1861 : 
; 1862 :         _Uninitialized_backout<_Unwrapped_t<const _NoThrowFwdIt&>> _Backout{_UFirst};
; 1863 :         while (_Backout._Last != _ULast) {

  0000b	74 10		 je	 SHORT $LN3@uninitiali
  0000d	56		 push	 esi
  0000e	8b 75 10	 mov	 esi, DWORD PTR __Val$[ebp]
$LL2@uninitiali:

; 1477 :         _Construct_in_place(*_Last, _STD forward<_Types>(_Vals)...);

  00011	8b 0e		 mov	 ecx, DWORD PTR [esi]
  00013	89 08		 mov	 DWORD PTR [eax], ecx

; 1478 :         ++_Last;

  00015	83 c0 04	 add	 eax, 4

; 1848 :     // copy _Val throughout raw [_First, _Last)
; 1849 :     _Adl_verify_range(_First, _Last);
; 1850 :     auto _UFirst      = _Get_unwrapped(_First);
; 1851 :     const auto _ULast = _Get_unwrapped(_Last);
; 1852 :     if constexpr (_Fill_memset_is_safe<_Unwrapped_t<const _NoThrowFwdIt&>, _Tval>) {
; 1853 :         _Fill_memset(_UFirst, _Val, static_cast<size_t>(_ULast - _UFirst));
; 1854 :     } else {
; 1855 :         if constexpr (_Fill_zero_memset_is_safe<_Unwrapped_t<const _NoThrowFwdIt&>, _Tval>) {
; 1856 :             if (_Is_all_bits_zero(_Val)) {
; 1857 :                 _Fill_zero_memset(_UFirst, static_cast<size_t>(_ULast - _UFirst));
; 1858 :                 return;
; 1859 :             }
; 1860 :         }
; 1861 : 
; 1862 :         _Uninitialized_backout<_Unwrapped_t<const _NoThrowFwdIt&>> _Backout{_UFirst};
; 1863 :         while (_Backout._Last != _ULast) {

  00018	3b c2		 cmp	 eax, edx
  0001a	75 f5		 jne	 SHORT $LL2@uninitiali
  0001c	5e		 pop	 esi
$LN3@uninitiali:

; 1864 :             _Backout._Emplace_back(_Val);
; 1865 :         }
; 1866 : 
; 1867 :         _Backout._Release();
; 1868 :     }
; 1869 : }

  0001d	5d		 pop	 ebp
  0001e	c3		 ret	 0
??$uninitialized_fill@PAV?$_List_unchecked_iterator@V?$_List_val@U?$_List_simple_types@U?$pair@$$CBHV?$shared_ptr@VCWikiRenderTarget@@@std@@@std@@@std@@@std@@@std@@V12@@std@@YAXQAV?$_List_unchecked_iterator@V?$_List_val@U?$_List_simple_types@U?$pair@$$CBHV?$shared_ptr@VCWikiRenderTarget@@@std@@@std@@@std@@@std@@@0@0ABV10@@Z ENDP ; std::uninitialized_fill<std::_List_unchecked_iterator<std::_List_val<std::_List_simple_types<std::pair<int const ,std::shared_ptr<CWikiRenderTarget> > > > > *,std::_List_unchecked_iterator<std::_List_val<std::_List_simple_types<std::pair<int const ,std::shared_ptr<CWikiRenderTarget> > > > > >
_TEXT	ENDS
; Function compile flags: /Ogtp
; File C:\Program Files\Microsoft Visual Studio\2022\Community\VC\Tools\MSVC\14.34.31933\include\type_traits
;	COMDAT ??$_Hash_representation@H@std@@YAIABH@Z
_TEXT	SEGMENT
__Keyval$ = 8						; size = 4
??$_Hash_representation@H@std@@YAIABH@Z PROC		; std::_Hash_representation<int>, COMDAT

; 2142 : _NODISCARD size_t _Hash_representation(const _Kty& _Keyval) noexcept { // bitwise hashes the representation of a key

  00000	55		 push	 ebp
  00001	8b ec		 mov	 ebp, esp

; 2143 :     return _Fnv1a_append_value(_FNV_offset_basis, _Keyval);

  00003	ff 75 08	 push	 DWORD PTR __Keyval$[ebp]
  00006	68 c5 9d 1c 81	 push	 -2128831035		; 811c9dc5H
  0000b	e8 00 00 00 00	 call	 ??$_Fnv1a_append_value@H@std@@YAIIABH@Z ; std::_Fnv1a_append_value<int>
  00010	83 c4 08	 add	 esp, 8

; 2144 : }

  00013	5d		 pop	 ebp
  00014	c3		 ret	 0
??$_Hash_representation@H@std@@YAIABH@Z ENDP		; std::_Hash_representation<int>
_TEXT	ENDS
; Function compile flags: /Ogtp
; File C:\Program Files\Microsoft Visual Studio\2022\Community\VC\Tools\MSVC\14.34.31933\include\list
; File C:\Program Files\Microsoft Visual Studio\2022\Community\VC\Tools\MSVC\14.34.31933\include\memory
; File C:\Program Files\Microsoft Visual Studio\2022\Community\VC\Tools\MSVC\14.34.31933\include\list
; File C:\Program Files\Microsoft Visual Studio\2022\Community\VC\Tools\MSVC\14.34.31933\include\memory
; File C:\Program Files\Microsoft Visual Studio\2022\Community\VC\Tools\MSVC\14.34.31933\include\xmemory
; File C:\Program Files\Microsoft Visual Studio\2022\Community\VC\Tools\MSVC\14.34.31933\include\list
;	COMDAT ??$_Free_non_head@V?$allocator@U?$_List_node@U?$pair@$$CBHV?$shared_ptr@VCWikiRenderTarget@@@std@@@std@@PAX@std@@@std@@@?$_List_node@U?$pair@$$CBHV?$shared_ptr@VCWikiRenderTarget@@@std@@@std@@PAX@std@@SAXAAV?$allocator@U?$_List_node@U?$pair@$$CBHV?$shared_ptr@VCWikiRenderTarget@@@std@@@std@@PAX@std@@@1@PAU01@@Z
_TEXT	SEGMENT
__Al$ = 8						; size = 4
__Head$ = 12						; size = 4
??$_Free_non_head@V?$allocator@U?$_List_node@U?$pair@$$CBHV?$shared_ptr@VCWikiRenderTarget@@@std@@@std@@PAX@std@@@std@@@?$_List_node@U?$pair@$$CBHV?$shared_ptr@VCWikiRenderTarget@@@std@@@std@@PAX@std@@SAXAAV?$allocator@U?$_List_node@U?$pair@$$CBHV?$shared_ptr@VCWikiRenderTarget@@@std@@@std@@PAX@std@@@1@PAU01@@Z PROC ; std::_List_node<std::pair<int const ,std::shared_ptr<CWikiRenderTarget> >,void *>::_Free_non_head<std::allocator<std::_List_node<std::pair<int const ,std::shared_ptr<CWikiRenderTarget> >,void *> > >, COMDAT

; 324  :         _Alnode& _Al, _Nodeptr _Head) noexcept { // free a list starting at _First and terminated at nullptr

  00000	55		 push	 ebp
  00001	8b ec		 mov	 ebp, esp

; 325  :         _Head->_Prev->_Next = nullptr;

  00003	8b 4d 0c	 mov	 ecx, DWORD PTR __Head$[ebp]
  00006	57		 push	 edi
  00007	8b 41 04	 mov	 eax, DWORD PTR [ecx+4]
  0000a	c7 00 00 00 00
	00		 mov	 DWORD PTR [eax], 0

; 326  : 
; 327  :         auto _Pnode = _Head->_Next;

  00010	8b 39		 mov	 edi, DWORD PTR [ecx]

; 328  :         for (_Nodeptr _Pnext; _Pnode; _Pnode = _Pnext) {

  00012	85 ff		 test	 edi, edi
  00014	74 3f		 je	 SHORT $LN3@Free_non_h
  00016	53		 push	 ebx
  00017	56		 push	 esi
$LL4@Free_non_h:
; File C:\Program Files\Microsoft Visual Studio\2022\Community\VC\Tools\MSVC\14.34.31933\include\memory

; 1334 :         if (_Rep) {

  00018	8b 77 10	 mov	 esi, DWORD PTR [edi+16]
; File C:\Program Files\Microsoft Visual Studio\2022\Community\VC\Tools\MSVC\14.34.31933\include\list

; 329  :             _Pnext = _Pnode->_Next;

  0001b	8b 1f		 mov	 ebx, DWORD PTR [edi]
; File C:\Program Files\Microsoft Visual Studio\2022\Community\VC\Tools\MSVC\14.34.31933\include\memory

; 1334 :         if (_Rep) {

  0001d	85 f6		 test	 esi, esi
  0001f	74 21		 je	 SHORT $LN25@Free_non_h

; 1109 :         if (_MT_DECR(_Uses) == 0) {

  00021	83 c8 ff	 or	 eax, -1
  00024	f0 0f c1 46 04	 lock	  xadd	 DWORD PTR [esi+4], eax
  00029	75 17		 jne	 SHORT $LN25@Free_non_h

; 1110 :             _Destroy();

  0002b	8b 06		 mov	 eax, DWORD PTR [esi]
  0002d	8b ce		 mov	 ecx, esi
  0002f	ff 10		 call	 DWORD PTR [eax]

; 1116 :         if (_MT_DECR(_Weaks) == 0) {

  00031	83 c8 ff	 or	 eax, -1
  00034	f0 0f c1 46 08	 lock	  xadd	 DWORD PTR [esi+8], eax
  00039	75 07		 jne	 SHORT $LN25@Free_non_h

; 1117 :             _Delete_this();

  0003b	8b 06		 mov	 eax, DWORD PTR [esi]
  0003d	8b ce		 mov	 ecx, esi
  0003f	ff 50 04	 call	 DWORD PTR [eax+4]
$LN25@Free_non_h:
; File C:\Program Files\Microsoft Visual Studio\2022\Community\VC\Tools\MSVC\14.34.31933\include\xmemory

; 255  :         ::operator delete(_Ptr, _Bytes);

  00042	6a 14		 push	 20			; 00000014H
  00044	57		 push	 edi
  00045	e8 00 00 00 00	 call	 ??3@YAXPAXI@Z		; operator delete
  0004a	83 c4 08	 add	 esp, 8
; File C:\Program Files\Microsoft Visual Studio\2022\Community\VC\Tools\MSVC\14.34.31933\include\list

; 328  :         for (_Nodeptr _Pnext; _Pnode; _Pnode = _Pnext) {

  0004d	8b fb		 mov	 edi, ebx
  0004f	85 db		 test	 ebx, ebx
  00051	75 c5		 jne	 SHORT $LL4@Free_non_h
  00053	5e		 pop	 esi
  00054	5b		 pop	 ebx
$LN3@Free_non_h:
  00055	5f		 pop	 edi

; 330  :             _Freenode(_Al, _Pnode);
; 331  :         }
; 332  :     }

  00056	5d		 pop	 ebp
  00057	c3		 ret	 0
??$_Free_non_head@V?$allocator@U?$_List_node@U?$pair@$$CBHV?$shared_ptr@VCWikiRenderTarget@@@std@@@std@@PAX@std@@@std@@@?$_List_node@U?$pair@$$CBHV?$shared_ptr@VCWikiRenderTarget@@@std@@@std@@PAX@std@@SAXAAV?$allocator@U?$_List_node@U?$pair@$$CBHV?$shared_ptr@VCWikiRenderTarget@@@std@@@std@@PAX@std@@@1@PAU01@@Z ENDP ; std::_List_node<std::pair<int const ,std::shared_ptr<CWikiRenderTarget> >,void *>::_Free_non_head<std::allocator<std::_List_node<std::pair<int const ,std::shared_ptr<CWikiRenderTarget> >,void *> > >
_TEXT	ENDS
; Function compile flags: /Ogtp
; File C:\Program Files\Microsoft Visual Studio\2022\Community\VC\Tools\MSVC\14.34.31933\include\xutility
;	COMDAT ??$fill@PAV?$_List_unchecked_iterator@V?$_List_val@U?$_List_simple_types@U?$pair@$$CBHV?$shared_ptr@VCWikiRenderTarget@@@std@@@std@@@std@@@std@@@std@@V12@@std@@YAXQAV?$_List_unchecked_iterator@V?$_List_val@U?$_List_simple_types@U?$pair@$$CBHV?$shared_ptr@VCWikiRenderTarget@@@std@@@std@@@std@@@std@@@0@0ABV10@@Z
_TEXT	SEGMENT
__First$ = 8						; size = 4
__Last$ = 12						; size = 4
__Val$ = 16						; size = 4
??$fill@PAV?$_List_unchecked_iterator@V?$_List_val@U?$_List_simple_types@U?$pair@$$CBHV?$shared_ptr@VCWikiRenderTarget@@@std@@@std@@@std@@@std@@@std@@V12@@std@@YAXQAV?$_List_unchecked_iterator@V?$_List_val@U?$_List_simple_types@U?$pair@$$CBHV?$shared_ptr@VCWikiRenderTarget@@@std@@@std@@@std@@@std@@@0@0ABV10@@Z PROC ; std::fill<std::_List_unchecked_iterator<std::_List_val<std::_List_simple_types<std::pair<int const ,std::shared_ptr<CWikiRenderTarget> > > > > *,std::_List_unchecked_iterator<std::_List_val<std::_List_simple_types<std::pair<int const ,std::shared_ptr<CWikiRenderTarget> > > > > >, COMDAT

; 4346 : _CONSTEXPR20 void fill(const _FwdIt _First, const _FwdIt _Last, const _Ty& _Val) {

  00000	55		 push	 ebp
  00001	8b ec		 mov	 ebp, esp

; 4347 :     // copy _Val through [_First, _Last)
; 4348 :     _Adl_verify_range(_First, _Last);
; 4349 :     if constexpr (_Is_vb_iterator<_FwdIt, true>) {
; 4350 :         _Fill_vbool(_First, _Last, _Val);
; 4351 :     } else {
; 4352 :         auto _UFirst      = _Get_unwrapped(_First);

  00003	8b 4d 0c	 mov	 ecx, DWORD PTR __Last$[ebp]
  00006	33 c0		 xor	 eax, eax
  00008	8b 55 08	 mov	 edx, DWORD PTR __First$[ebp]
  0000b	53		 push	 ebx

; 4353 :         const auto _ULast = _Get_unwrapped(_Last);
; 4354 : #if _HAS_CXX20
; 4355 :         if (!_STD is_constant_evaluated())
; 4356 : #endif // _HAS_CXX20
; 4357 :         {
; 4358 :             if constexpr (_Fill_memset_is_safe<decltype(_UFirst), _Ty>) {
; 4359 :                 _Fill_memset(_UFirst, _Val, static_cast<size_t>(_ULast - _UFirst));
; 4360 :                 return;
; 4361 :             } else if constexpr (_Fill_zero_memset_is_safe<decltype(_UFirst), _Ty>) {
; 4362 :                 if (_Is_all_bits_zero(_Val)) {
; 4363 :                     _Fill_zero_memset(_UFirst, static_cast<size_t>(_ULast - _UFirst));
; 4364 :                     return;
; 4365 :                 }
; 4366 :             }
; 4367 :         }
; 4368 : 
; 4369 :         for (; _UFirst != _ULast; ++_UFirst) {

  0000c	8b 5d 10	 mov	 ebx, DWORD PTR __Val$[ebp]
  0000f	56		 push	 esi
  00010	8b f1		 mov	 esi, ecx
  00012	2b f2		 sub	 esi, edx
  00014	83 c6 03	 add	 esi, 3
  00017	c1 ee 02	 shr	 esi, 2
  0001a	3b d1		 cmp	 edx, ecx
  0001c	0f 47 f0	 cmova	 esi, eax
  0001f	85 f6		 test	 esi, esi
  00021	74 2b		 je	 SHORT $LN9@fill
  00023	83 fe 04	 cmp	 esi, 4
  00026	72 26		 jb	 SHORT $LN9@fill

; 4370 :             *_UFirst = _Val;

  00028	8b 03		 mov	 eax, DWORD PTR [ebx]
  0002a	57		 push	 edi
  0002b	8d 7a fc	 lea	 edi, DWORD PTR [edx-4]
  0002e	8d 3c b7	 lea	 edi, DWORD PTR [edi+esi*4]
  00031	3b d3		 cmp	 edx, ebx
  00033	77 04		 ja	 SHORT $LN10@fill

; 4347 :     // copy _Val through [_First, _Last)
; 4348 :     _Adl_verify_range(_First, _Last);
; 4349 :     if constexpr (_Is_vb_iterator<_FwdIt, true>) {
; 4350 :         _Fill_vbool(_First, _Last, _Val);
; 4351 :     } else {
; 4352 :         auto _UFirst      = _Get_unwrapped(_First);

  00035	3b fb		 cmp	 edi, ebx
  00037	73 14		 jae	 SHORT $LN15@fill
$LN10@fill:
  00039	83 e6 fc	 and	 esi, -4			; fffffffcH
  0003c	8b fa		 mov	 edi, edx
  0003e	c1 e6 02	 shl	 esi, 2
  00041	8b ce		 mov	 ecx, esi
  00043	c1 e9 02	 shr	 ecx, 2
  00046	03 d6		 add	 edx, esi
  00048	f3 ab		 rep stosd
  0004a	8b 4d 0c	 mov	 ecx, DWORD PTR __Last$[ebp]
$LN15@fill:
  0004d	5f		 pop	 edi
$LN9@fill:

; 4353 :         const auto _ULast = _Get_unwrapped(_Last);
; 4354 : #if _HAS_CXX20
; 4355 :         if (!_STD is_constant_evaluated())
; 4356 : #endif // _HAS_CXX20
; 4357 :         {
; 4358 :             if constexpr (_Fill_memset_is_safe<decltype(_UFirst), _Ty>) {
; 4359 :                 _Fill_memset(_UFirst, _Val, static_cast<size_t>(_ULast - _UFirst));
; 4360 :                 return;
; 4361 :             } else if constexpr (_Fill_zero_memset_is_safe<decltype(_UFirst), _Ty>) {
; 4362 :                 if (_Is_all_bits_zero(_Val)) {
; 4363 :                     _Fill_zero_memset(_UFirst, static_cast<size_t>(_ULast - _UFirst));
; 4364 :                     return;
; 4365 :                 }
; 4366 :             }
; 4367 :         }
; 4368 : 
; 4369 :         for (; _UFirst != _ULast; ++_UFirst) {

  0004e	3b d1		 cmp	 edx, ecx
  00050	74 0b		 je	 SHORT $LN3@fill
$LL8@fill:

; 4370 :             *_UFirst = _Val;

  00052	8b 03		 mov	 eax, DWORD PTR [ebx]
  00054	89 02		 mov	 DWORD PTR [edx], eax
  00056	83 c2 04	 add	 edx, 4
  00059	3b d1		 cmp	 edx, ecx
  0005b	75 f5		 jne	 SHORT $LL8@fill
$LN3@fill:
  0005d	5e		 pop	 esi

; 4371 :         }
; 4372 :     }
; 4373 : }

  0005e	5b		 pop	 ebx
  0005f	5d		 pop	 ebp
  00060	c3		 ret	 0
??$fill@PAV?$_List_unchecked_iterator@V?$_List_val@U?$_List_simple_types@U?$pair@$$CBHV?$shared_ptr@VCWikiRenderTarget@@@std@@@std@@@std@@@std@@@std@@V12@@std@@YAXQAV?$_List_unchecked_iterator@V?$_List_val@U?$_List_simple_types@U?$pair@$$CBHV?$shared_ptr@VCWikiRenderTarget@@@std@@@std@@@std@@@std@@@0@0ABV10@@Z ENDP ; std::fill<std::_List_unchecked_iterator<std::_List_val<std::_List_simple_types<std::pair<int const ,std::shared_ptr<CWikiRenderTarget> > > > > *,std::_List_unchecked_iterator<std::_List_val<std::_List_simple_types<std::pair<int const ,std::shared_ptr<CWikiRenderTarget> > > > > >
_TEXT	ENDS
; Function compile flags: /Ogtp
; File C:\Program Files\Microsoft Visual Studio\2022\Community\VC\Tools\MSVC\14.34.31933\include\xhash
; File C:\Program Files\Microsoft Visual Studio\2022\Community\VC\Tools\MSVC\14.34.31933\include\type_traits
; File C:\Program Files\Microsoft Visual Studio\2022\Community\VC\Tools\MSVC\14.34.31933\include\xhash
; File C:\Program Files\Microsoft Visual Studio\2022\Community\VC\Tools\MSVC\14.34.31933\include\utility
; File C:\Program Files\Microsoft Visual Studio\2022\Community\VC\Tools\MSVC\14.34.31933\include\xhash
; File C:\Program Files\Microsoft Visual Studio\2022\Community\VC\Tools\MSVC\14.34.31933\include\xmemory
; File C:\Program Files\Microsoft Visual Studio\2022\Community\VC\Tools\MSVC\14.34.31933\include\list
; File C:\Program Files\Microsoft Visual Studio\2022\Community\VC\Tools\MSVC\14.34.31933\include\xmemory
; File C:\Program Files\Microsoft Visual Studio\2022\Community\VC\Tools\MSVC\14.34.31933\include\utility
; File C:\Program Files\Microsoft Visual Studio\2022\Community\VC\Tools\MSVC\14.34.31933\include\xmemory
; File C:\Program Files\Microsoft Visual Studio\2022\Community\VC\Tools\MSVC\14.34.31933\include\utility
; File C:\Program Files\Microsoft Visual Studio\2022\Community\VC\Tools\MSVC\14.34.31933\include\memory
; File C:\Program Files\Microsoft Visual Studio\2022\Community\VC\Tools\MSVC\14.34.31933\include\xhash
; File C:\Program Files (x86)\Windows Kits\10\Include\10.0.22621.0\ucrt\corecrt_math.h
; File C:\Program Files\Microsoft Visual Studio\2022\Community\VC\Tools\MSVC\14.34.31933\include\xhash
; File C:\Program Files\Microsoft Visual Studio\2022\Community\VC\Tools\MSVC\14.34.31933\include\utility
; File C:\Program Files\Microsoft Visual Studio\2022\Community\VC\Tools\MSVC\14.34.31933\include\xhash
; File C:\Program Files\Microsoft Visual Studio\2022\Community\VC\Tools\MSVC\14.34.31933\include\utility
; File C:\Program Files\Microsoft Visual Studio\2022\Community\VC\Tools\MSVC\14.34.31933\include\xhash
;	COMDAT ??$emplace@ABHV?$shared_ptr@VCWikiRenderTarget@@@std@@@?$_Hash@V?$_Umap_traits@HV?$shared_ptr@VCWikiRenderTarget@@@std@@V?$_Uhash_compare@HU?$hash@H@std@@U?$equal_to@H@2@@2@V?$allocator@U?$pair@$$CBHV?$shared_ptr@VCWikiRenderTarget@@@std@@@std@@@2@$0A@@std@@@std@@QAE?AU?$pair@V?$_List_iterator@V?$_List_val@U?$_List_simple_types@U?$pair@$$CBHV?$shared_ptr@VCWikiRenderTarget@@@std@@@std@@@std@@@std@@@std@@_N@1@ABH$$QAV?$shared_ptr@VCWikiRenderTarget@@@1@@Z
_TEXT	SEGMENT
tv912 = -28						; size = 8
tv906 = -28						; size = 8
$T2 = -28						; size = 8
__Target$3 = -28					; size = 8
__Newnode$4 = -20					; size = 8
__$EHRec$ = -12						; size = 12
___$ReturnUdt$ = 8					; size = 4
__Hashval$1$ = 12					; size = 4
_<_Vals_0>$ = 12					; size = 4
_<_Vals_1>$ = 16					; size = 4
??$emplace@ABHV?$shared_ptr@VCWikiRenderTarget@@@std@@@?$_Hash@V?$_Umap_traits@HV?$shared_ptr@VCWikiRenderTarget@@@std@@V?$_Uhash_compare@HU?$hash@H@std@@U?$equal_to@H@2@@2@V?$allocator@U?$pair@$$CBHV?$shared_ptr@VCWikiRenderTarget@@@std@@@std@@@2@$0A@@std@@@std@@QAE?AU?$pair@V?$_List_iterator@V?$_List_val@U?$_List_simple_types@U?$pair@$$CBHV?$shared_ptr@VCWikiRenderTarget@@@std@@@std@@@std@@@std@@@std@@_N@1@ABH$$QAV?$shared_ptr@VCWikiRenderTarget@@@1@@Z PROC ; std::_Hash<std::_Umap_traits<int,std::shared_ptr<CWikiRenderTarget>,std::_Uhash_compare<int,std::hash<int>,std::equal_to<int> >,std::allocator<std::pair<int const ,std::shared_ptr<CWikiRenderTarget> > >,0> >::emplace<int const &,std::shared_ptr<CWikiRenderTarget> >, COMDAT
; _this$ = ecx

; 588  :     conditional_t<_Multi, iterator, pair<iterator, bool>> emplace(_Valtys&&... _Vals) {

  00000	55		 push	 ebp
  00001	8b ec		 mov	 ebp, esp
  00003	6a ff		 push	 -1
  00005	68 00 00 00 00	 push	 __ehhandler$??$emplace@ABHV?$shared_ptr@VCWikiRenderTarget@@@std@@@?$_Hash@V?$_Umap_traits@HV?$shared_ptr@VCWikiRenderTarget@@@std@@V?$_Uhash_compare@HU?$hash@H@std@@U?$equal_to@H@2@@2@V?$allocator@U?$pair@$$CBHV?$shared_ptr@VCWikiRenderTarget@@@std@@@std@@@2@$0A@@std@@@std@@QAE?AU?$pair@V?$_List_iterator@V?$_List_val@U?$_List_simple_types@U?$pair@$$CBHV?$shared_ptr@VCWikiRenderTarget@@@std@@@std@@@std@@@std@@@std@@_N@1@ABH$$QAV?$shared_ptr@VCWikiRenderTarget@@@1@@Z
  0000a	64 a1 00 00 00
	00		 mov	 eax, DWORD PTR fs:0
  00010	50		 push	 eax
  00011	83 ec 10	 sub	 esp, 16			; 00000010H
  00014	53		 push	 ebx
  00015	56		 push	 esi
  00016	57		 push	 edi
  00017	a1 00 00 00 00	 mov	 eax, DWORD PTR ___security_cookie
  0001c	33 c5		 xor	 eax, ebp
  0001e	50		 push	 eax
  0001f	8d 45 f4	 lea	 eax, DWORD PTR __$EHRec$[ebp]
  00022	64 a3 00 00 00
	00		 mov	 DWORD PTR fs:0, eax
  00028	8b f9		 mov	 edi, ecx
; File C:\Program Files\Microsoft Visual Studio\2022\Community\VC\Tools\MSVC\14.34.31933\include\type_traits

; 2183 :         return _Hash_representation(_Keyval);

  0002a	8b 5d 0c	 mov	 ebx, DWORD PTR _<_Vals_0>$[ebp]
  0002d	53		 push	 ebx
  0002e	e8 00 00 00 00	 call	 ??$_Hash_representation@H@std@@YAIABH@Z ; std::_Hash_representation<int>
  00033	83 c4 04	 add	 esp, 4
; File C:\Program Files\Microsoft Visual Studio\2022\Community\VC\Tools\MSVC\14.34.31933\include\xhash

; 147  :         return static_cast<size_t>(_Mypair._Get_first()(_Keyval));

  00036	89 45 0c	 mov	 DWORD PTR __Hashval$1$[ebp], eax

; 589  :         // try to insert value_type(_Vals...)
; 590  :         using _In_place_key_extractor = typename _Traits::template _In_place_key_extractor<_Remove_cvref_t<_Valtys>...>;
; 591  :         if constexpr (_Multi) {
; 592  :             _Check_max_size();
; 593  :             _List_node_emplace_op2<_Alnode> _Newnode(_List._Getal(), _STD forward<_Valtys>(_Vals)...);
; 594  :             const auto& _Keyval = _Traits::_Kfn(_Newnode._Ptr->_Myval);
; 595  :             const auto _Hashval = _Traitsobj(_Keyval);
; 596  :             if (_Check_rehash_required_1()) {
; 597  :                 _Rehash_for_1();
; 598  :             }
; 599  : 
; 600  :             const auto _Target = _Find_last(_Keyval, _Hashval);
; 601  :             return _List._Make_iter(_Insert_new_node_before(_Hashval, _Target._Insert_before, _Newnode._Release()));
; 602  :         } else if constexpr (_In_place_key_extractor::_Extractable) {
; 603  :             const auto& _Keyval = _In_place_key_extractor::_Extract(_Vals...);
; 604  :             const auto _Hashval = _Traitsobj(_Keyval);
; 605  :             auto _Target        = _Find_last(_Keyval, _Hashval);

  00039	8b cf		 mov	 ecx, edi
  0003b	50		 push	 eax
  0003c	53		 push	 ebx
  0003d	8d 45 e4	 lea	 eax, DWORD PTR __Target$3[ebp]
  00040	50		 push	 eax
  00041	e8 00 00 00 00	 call	 ??$_Find_last@H@?$_Hash@V?$_Umap_traits@HV?$shared_ptr@VCWikiRenderTarget@@@std@@V?$_Uhash_compare@HU?$hash@H@std@@U?$equal_to@H@2@@2@V?$allocator@U?$pair@$$CBHV?$shared_ptr@VCWikiRenderTarget@@@std@@@std@@@2@$0A@@std@@@std@@IBE?AU?$_Hash_find_last_result@PAU?$_List_node@U?$pair@$$CBHV?$shared_ptr@VCWikiRenderTarget@@@std@@@std@@PAX@std@@@1@ABHI@Z ; std::_Hash<std::_Umap_traits<int,std::shared_ptr<CWikiRenderTarget>,std::_Uhash_compare<int,std::hash<int>,std::equal_to<int> >,std::allocator<std::pair<int const ,std::shared_ptr<CWikiRenderTarget> > >,0> >::_Find_last<int>

; 606  :             if (_Target._Duplicate) {

  00046	8b 4d e8	 mov	 ecx, DWORD PTR __Target$3[ebp+4]
  00049	85 c9		 test	 ecx, ecx
  0004b	74 1d		 je	 SHORT $LN2@emplace
; File C:\Program Files\Microsoft Visual Studio\2022\Community\VC\Tools\MSVC\14.34.31933\include\utility

; 172  :         : first(_STD forward<_Other1>(_Val1)), second(_STD forward<_Other2>(_Val2)) {

  0004d	8b 45 08	 mov	 eax, DWORD PTR ___$ReturnUdt$[ebp]
  00050	89 08		 mov	 DWORD PTR [eax], ecx
  00052	c6 40 04 00	 mov	 BYTE PTR [eax+4], 0
; File C:\Program Files\Microsoft Visual Studio\2022\Community\VC\Tools\MSVC\14.34.31933\include\xhash

; 638  :     }

  00056	8b 4d f4	 mov	 ecx, DWORD PTR __$EHRec$[ebp]
  00059	64 89 0d 00 00
	00 00		 mov	 DWORD PTR fs:0, ecx
  00060	59		 pop	 ecx
  00061	5f		 pop	 edi
  00062	5e		 pop	 esi
  00063	5b		 pop	 ebx
  00064	8b e5		 mov	 esp, ebp
  00066	5d		 pop	 ebp
  00067	c2 0c 00	 ret	 12			; 0000000cH
$LN2@emplace:

; 1646 :         if (_Oldsize == _List.max_size()) {

  0006a	81 7f 08 cc cc
	cc 0c		 cmp	 DWORD PTR [edi+8], 214748364 ; 0cccccccH
  00071	0f 84 6a 01 00
	00		 je	 $LN148@emplace

; 607  :                 return {_List._Make_iter(_Target._Duplicate), false};
; 608  :             }
; 609  : 
; 610  :             _Check_max_size();
; 611  :             // invalidates _Keyval:
; 612  :             _List_node_emplace_op2<_Alnode> _Newnode(_List._Getal(), _STD forward<_Valtys>(_Vals)...);

  00077	8d 47 04	 lea	 eax, DWORD PTR [edi+4]
; File C:\Program Files\Microsoft Visual Studio\2022\Community\VC\Tools\MSVC\14.34.31933\include\xmemory

; 1005 :     _CONSTEXPR20 explicit _Alloc_construct_ptr(_Alloc& _Al_) : _Al(_Al_), _Ptr(nullptr) {}

  0007a	89 45 ec	 mov	 DWORD PTR __Newnode$4[ebp], eax

; 77   :         return ::operator new(_Bytes);

  0007d	6a 14		 push	 20			; 00000014H
; File C:\Program Files\Microsoft Visual Studio\2022\Community\VC\Tools\MSVC\14.34.31933\include\list

; 584  :     explicit _List_node_emplace_op2(_Alnode& _Al_, _Valtys&&... _Vals) : _Alloc_construct_ptr<_Alnode>(_Al_) {

  0007f	c7 45 fc 00 00
	00 00		 mov	 DWORD PTR __$EHRec$[ebp+8], 0
; File C:\Program Files\Microsoft Visual Studio\2022\Community\VC\Tools\MSVC\14.34.31933\include\xmemory

; 1012 :         _Ptr = nullptr; // if allocate throws, prevents double-free

  00086	c7 45 f0 00 00
	00 00		 mov	 DWORD PTR __Newnode$4[ebp+4], 0

; 77   :         return ::operator new(_Bytes);

  0008d	e8 00 00 00 00	 call	 ??2@YAPAXI@Z		; operator new
; File C:\Program Files\Microsoft Visual Studio\2022\Community\VC\Tools\MSVC\14.34.31933\include\utility

; 172  :         : first(_STD forward<_Other1>(_Val1)), second(_STD forward<_Other2>(_Val2)) {

  00092	8b 0b		 mov	 ecx, DWORD PTR [ebx]
; File C:\Program Files\Microsoft Visual Studio\2022\Community\VC\Tools\MSVC\14.34.31933\include\xmemory

; 235  :         return _Traits::_Allocate(_Bytes);

  00094	8b f0		 mov	 esi, eax

; 77   :         return ::operator new(_Bytes);

  00096	83 c4 04	 add	 esp, 4

; 1013 :         _Ptr = _Al.allocate(1);

  00099	89 75 f0	 mov	 DWORD PTR __Newnode$4[ebp+4], esi
; File C:\Program Files\Microsoft Visual Studio\2022\Community\VC\Tools\MSVC\14.34.31933\include\utility

; 172  :         : first(_STD forward<_Other1>(_Val1)), second(_STD forward<_Other2>(_Val2)) {

  0009c	89 4e 08	 mov	 DWORD PTR [esi+8], ecx
; File C:\Program Files\Microsoft Visual Studio\2022\Community\VC\Tools\MSVC\14.34.31933\include\memory

; 1277 :         _Ptr = _Right._Ptr;

  0009f	8b 4d 10	 mov	 ecx, DWORD PTR _<_Vals_1>$[ebp]

; 1402 :     element_type* _Ptr{nullptr};

  000a2	c7 46 0c 00 00
	00 00		 mov	 DWORD PTR [esi+12], 0

; 1403 :     _Ref_count_base* _Rep{nullptr};

  000a9	c7 46 10 00 00
	00 00		 mov	 DWORD PTR [esi+16], 0

; 1277 :         _Ptr = _Right._Ptr;

  000b0	8b 01		 mov	 eax, DWORD PTR [ecx]
  000b2	89 46 0c	 mov	 DWORD PTR [esi+12], eax

; 1278 :         _Rep = _Right._Rep;

  000b5	8b 41 04	 mov	 eax, DWORD PTR [ecx+4]
  000b8	89 46 10	 mov	 DWORD PTR [esi+16], eax

; 1279 : 
; 1280 :         _Right._Ptr = nullptr;

  000bb	c7 01 00 00 00
	00		 mov	 DWORD PTR [ecx], 0

; 1281 :         _Right._Rep = nullptr;

  000c1	c7 41 04 00 00
	00 00		 mov	 DWORD PTR [ecx+4], 0
; File C:\Program Files\Microsoft Visual Studio\2022\Community\VC\Tools\MSVC\14.34.31933\include\xhash

; 1653 :         const auto _Newsize      = _Oldsize + 1;

  000c8	8b 47 08	 mov	 eax, DWORD PTR [edi+8]

; 1654 :         return max_load_factor() < static_cast<float>(_Newsize) / static_cast<float>(bucket_count());

  000cb	8b 5f 1c	 mov	 ebx, DWORD PTR [edi+28]
  000ce	40		 inc	 eax
  000cf	f3 0f 10 1f	 movss	 xmm3, DWORD PTR [edi]

; 607  :                 return {_List._Make_iter(_Target._Duplicate), false};
; 608  :             }
; 609  : 
; 610  :             _Check_max_size();
; 611  :             // invalidates _Keyval:
; 612  :             _List_node_emplace_op2<_Alnode> _Newnode(_List._Getal(), _STD forward<_Valtys>(_Vals)...);

  000d3	c7 45 fc 01 00
	00 00		 mov	 DWORD PTR __$EHRec$[ebp+8], 1
  000da	66 0f 6e c0	 movd	 xmm0, eax

; 1654 :         return max_load_factor() < static_cast<float>(_Newsize) / static_cast<float>(bucket_count());

  000de	f3 0f e6 c0	 cvtdq2pd xmm0, xmm0
  000e2	c1 e8 1f	 shr	 eax, 31			; 0000001fH
  000e5	f2 0f 58 04 c5
	00 00 00 00	 addsd	 xmm0, QWORD PTR __xmm@41f00000000000000000000000000000[eax*8]
  000ee	8b c3		 mov	 eax, ebx
  000f0	c1 e8 1f	 shr	 eax, 31			; 0000001fH
  000f3	66 0f 5a d0	 cvtpd2ps xmm2, xmm0
  000f7	66 0f 6e c3	 movd	 xmm0, ebx
  000fb	f3 0f e6 c0	 cvtdq2pd xmm0, xmm0
  000ff	0f 28 ca	 movaps	 xmm1, xmm2
  00102	f2 0f 58 04 c5
	00 00 00 00	 addsd	 xmm0, QWORD PTR __xmm@41f00000000000000000000000000000[eax*8]
  0010b	66 0f 5a c0	 cvtpd2ps xmm0, xmm0
  0010f	f3 0f 5e c8	 divss	 xmm1, xmm0
  00113	0f 2f cb	 comiss	 xmm1, xmm3

; 613  :             if (_Check_rehash_required_1()) {

  00116	76 6b		 jbe	 SHORT $LN143@emplace

; 1683 :         return static_cast<size_type>(_CSTD ceilf(static_cast<float>(_For_size) / max_load_factor()));

  00118	f3 0f 5e d3	 divss	 xmm2, xmm3
; File C:\Program Files (x86)\Windows Kits\10\Include\10.0.22621.0\ucrt\corecrt_math.h

; 648  :             return (float)ceil(_X);

  0011c	83 ec 08	 sub	 esp, 8
  0011f	0f 5a c2	 cvtps2pd xmm0, xmm2
  00122	f2 0f 11 45 e4	 movsd	 QWORD PTR tv912[ebp], xmm0
  00127	dd 45 e4	 fld	 QWORD PTR tv912[ebp]
  0012a	dd 1c 24	 fstp	 QWORD PTR [esp]
  0012d	e8 00 00 00 00	 call	 _ceil
  00132	dd 5d e4	 fstp	 QWORD PTR tv906[ebp]
  00135	f2 0f 10 45 e4	 movsd	 xmm0, QWORD PTR tv906[ebp]
  0013a	83 c4 08	 add	 esp, 8
  0013d	66 0f 5a c0	 cvtpd2ps xmm0, xmm0
; File C:\Program Files\Microsoft Visual Studio\2022\Community\VC\Tools\MSVC\14.34.31933\include\xhash

; 1683 :         return static_cast<size_type>(_CSTD ceilf(static_cast<float>(_For_size) / max_load_factor()));

  00141	e8 00 00 00 00	 call	 __ftol3
; File C:\Program Files\Microsoft Visual Studio\2022\Community\VC\Tools\MSVC\14.34.31933\include\utility

; 43   :     return _Left < _Right ? _Right : _Left;

  00146	b9 08 00 00 00	 mov	 ecx, 8
  0014b	3b c1		 cmp	 eax, ecx
  0014d	0f 47 c8	 cmova	 ecx, eax
; File C:\Program Files\Microsoft Visual Studio\2022\Community\VC\Tools\MSVC\14.34.31933\include\xhash

; 1689 :         if (_Old_buckets >= _Req_buckets) {

  00150	3b d9		 cmp	 ebx, ecx
  00152	73 11		 jae	 SHORT $LN130@emplace

; 1690 :             // we already have enough buckets so there's no need to change the count
; 1691 :             return _Old_buckets;
; 1692 :         }
; 1693 : 
; 1694 :         if (_Old_buckets < 512 && _Old_buckets * 8 >= _Req_buckets) {

  00154	81 fb 00 02 00
	00		 cmp	 ebx, 512		; 00000200H
  0015a	73 07		 jae	 SHORT $LN132@emplace
  0015c	c1 e3 03	 shl	 ebx, 3
  0015f	3b d9		 cmp	 ebx, ecx
  00161	73 02		 jae	 SHORT $LN130@emplace
$LN132@emplace:

; 1695 :             // if we are changing the bucket count and have less than 512 buckets, use 8x more buckets
; 1696 :             return _Old_buckets * 8;
; 1697 :         }
; 1698 : 
; 1699 :         // power of 2 invariant means this will result in at least 2*_Old_buckets after round up in _Forced_rehash
; 1700 :         return _Req_buckets;

  00163	8b d9		 mov	 ebx, ecx
$LN130@emplace:

; 1660 :         _Forced_rehash(_Desired_grow_bucket_count(_Newsize));

  00165	53		 push	 ebx
  00166	8b cf		 mov	 ecx, edi
  00168	e8 00 00 00 00	 call	 ?_Forced_rehash@?$_Hash@V?$_Umap_traits@HV?$shared_ptr@VCWikiRenderTarget@@@std@@V?$_Uhash_compare@HU?$hash@H@std@@U?$equal_to@H@2@@2@V?$allocator@U?$pair@$$CBHV?$shared_ptr@VCWikiRenderTarget@@@std@@@std@@@2@$0A@@std@@@std@@IAEXI@Z ; std::_Hash<std::_Umap_traits<int,std::shared_ptr<CWikiRenderTarget>,std::_Uhash_compare<int,std::hash<int>,std::equal_to<int> >,std::allocator<std::pair<int const ,std::shared_ptr<CWikiRenderTarget> > >,0> >::_Forced_rehash

; 614  :                 _Rehash_for_1();
; 615  :                 _Target = _Find_last(_Traits::_Kfn(_Newnode._Ptr->_Myval), _Hashval);

  0016d	ff 75 0c	 push	 DWORD PTR __Hashval$1$[ebp]
  00170	8d 46 08	 lea	 eax, DWORD PTR [esi+8]
  00173	8b cf		 mov	 ecx, edi
  00175	50		 push	 eax
  00176	8d 45 e4	 lea	 eax, DWORD PTR $T2[ebp]
  00179	50		 push	 eax
  0017a	e8 00 00 00 00	 call	 ??$_Find_last@H@?$_Hash@V?$_Umap_traits@HV?$shared_ptr@VCWikiRenderTarget@@@std@@V?$_Uhash_compare@HU?$hash@H@std@@U?$equal_to@H@2@@2@V?$allocator@U?$pair@$$CBHV?$shared_ptr@VCWikiRenderTarget@@@std@@@std@@@2@$0A@@std@@@std@@IBE?AU?$_Hash_find_last_result@PAU?$_List_node@U?$pair@$$CBHV?$shared_ptr@VCWikiRenderTarget@@@std@@@std@@PAX@std@@@1@ABHI@Z ; std::_Hash<std::_Umap_traits<int,std::shared_ptr<CWikiRenderTarget>,std::_Uhash_compare<int,std::hash<int>,std::equal_to<int> >,std::allocator<std::pair<int const ,std::shared_ptr<CWikiRenderTarget> > >,0> >::_Find_last<int>
  0017f	8b 10		 mov	 edx, DWORD PTR [eax]
  00181	eb 03		 jmp	 SHORT $LN3@emplace
$LN143@emplace:

; 613  :             if (_Check_rehash_required_1()) {

  00183	8b 55 e4	 mov	 edx, DWORD PTR __Target$3[ebp]
$LN3@emplace:

; 1614 :         const _Nodeptr _Insert_after = _Insert_before->_Prev;

  00186	8b 5a 04	 mov	 ebx, DWORD PTR [edx+4]

; 1615 :         ++_List._Mypair._Myval2._Mysize;

  00189	ff 47 08	 inc	 DWORD PTR [edi+8]

; 1616 :         _Construct_in_place(_Newnode->_Next, _Insert_before);

  0018c	89 16		 mov	 DWORD PTR [esi], edx

; 1617 :         _Construct_in_place(_Newnode->_Prev, _Insert_after);

  0018e	89 5e 04	 mov	 DWORD PTR [esi+4], ebx

; 1618 :         _Insert_after->_Next  = _Newnode;

  00191	89 33		 mov	 DWORD PTR [ebx], esi

; 1619 :         _Insert_before->_Prev = _Newnode;

  00193	89 72 04	 mov	 DWORD PTR [edx+4], esi

; 1620 : 
; 1621 :         const auto _Head                = _List._Mypair._Myval2._Myhead;
; 1622 :         const auto _Bucket_array        = _Vec._Mypair._Myval2._Myfirst;
; 1623 :         const size_type _Bucket         = _Hashval & _Mask;

  00196	8b 47 18	 mov	 eax, DWORD PTR [edi+24]
  00199	23 45 0c	 and	 eax, DWORD PTR __Hashval$1$[ebp]
  0019c	8b 4f 0c	 mov	 ecx, DWORD PTR [edi+12]

; 1624 :         _Unchecked_iterator& _Bucket_lo = _Bucket_array[_Bucket << 1];
; 1625 :         _Unchecked_iterator& _Bucket_hi = _Bucket_array[(_Bucket << 1) + 1];
; 1626 :         if (_Bucket_lo._Ptr == _Head) {

  0019f	8b 75 ec	 mov	 esi, DWORD PTR __Newnode$4[ebp]
  001a2	8b 3c c1	 mov	 edi, DWORD PTR [ecx+eax*8]
  001a5	3b 3e		 cmp	 edi, DWORD PTR [esi]
  001a7	8b 75 f0	 mov	 esi, DWORD PTR __Newnode$4[ebp+4]
  001aa	75 05		 jne	 SHORT $LN67@emplace

; 1627 :             // bucket is empty, set both
; 1628 :             _Bucket_lo._Ptr = _Newnode;

  001ac	89 34 c1	 mov	 DWORD PTR [ecx+eax*8], esi

; 1629 :             _Bucket_hi._Ptr = _Newnode;

  001af	eb 0f		 jmp	 SHORT $LN146@emplace
$LN67@emplace:

; 1630 :         } else if (_Bucket_lo._Ptr == _Insert_before) {

  001b1	3b fa		 cmp	 edi, edx
  001b3	75 05		 jne	 SHORT $LN69@emplace

; 1631 :             // new node is the lowest element in the bucket
; 1632 :             _Bucket_lo._Ptr = _Newnode;

  001b5	89 34 c1	 mov	 DWORD PTR [ecx+eax*8], esi
  001b8	eb 0a		 jmp	 SHORT $LN71@emplace
$LN69@emplace:

; 1633 :         } else if (_Bucket_hi._Ptr == _Insert_after) {

  001ba	39 5c c1 04	 cmp	 DWORD PTR [ecx+eax*8+4], ebx
  001be	75 04		 jne	 SHORT $LN71@emplace
$LN146@emplace:
; File C:\Program Files\Microsoft Visual Studio\2022\Community\VC\Tools\MSVC\14.34.31933\include\utility

; 172  :         : first(_STD forward<_Other1>(_Val1)), second(_STD forward<_Other2>(_Val2)) {

  001c0	89 74 c1 04	 mov	 DWORD PTR [ecx+eax*8+4], esi
$LN71@emplace:
  001c4	8b 45 08	 mov	 eax, DWORD PTR ___$ReturnUdt$[ebp]
  001c7	89 30		 mov	 DWORD PTR [eax], esi
  001c9	c6 40 04 01	 mov	 BYTE PTR [eax+4], 1
; File C:\Program Files\Microsoft Visual Studio\2022\Community\VC\Tools\MSVC\14.34.31933\include\xhash

; 638  :     }

  001cd	8b 4d f4	 mov	 ecx, DWORD PTR __$EHRec$[ebp]
  001d0	64 89 0d 00 00
	00 00		 mov	 DWORD PTR fs:0, ecx
  001d7	59		 pop	 ecx
  001d8	5f		 pop	 edi
  001d9	5e		 pop	 esi
  001da	5b		 pop	 ebx
  001db	8b e5		 mov	 esp, ebp
  001dd	5d		 pop	 ebp
  001de	c2 0c 00	 ret	 12			; 0000000cH
$LN148@emplace:

; 1647 :             _Xlength_error("unordered_map/set too long");

  001e1	68 00 00 00 00	 push	 OFFSET ??_C@_0BL@GOIGLPKN@unordered_map?1set?5too?5long@
  001e6	e8 00 00 00 00	 call	 ?_Xlength_error@std@@YAXPBD@Z ; std::_Xlength_error
$LN145@emplace:
  001eb	cc		 int	 3
_TEXT	ENDS
;	COMDAT text$x
text$x	SEGMENT
__unwindfunclet$??$emplace@ABHV?$shared_ptr@VCWikiRenderTarget@@@std@@@?$_Hash@V?$_Umap_traits@HV?$shared_ptr@VCWikiRenderTarget@@@std@@V?$_Uhash_compare@HU?$hash@H@std@@U?$equal_to@H@2@@2@V?$allocator@U?$pair@$$CBHV?$shared_ptr@VCWikiRenderTarget@@@std@@@std@@@2@$0A@@std@@@std@@QAE?AU?$pair@V?$_List_iterator@V?$_List_val@U?$_List_simple_types@U?$pair@$$CBHV?$shared_ptr@VCWikiRenderTarget@@@std@@@std@@@std@@@std@@@std@@_N@1@ABH$$QAV?$shared_ptr@VCWikiRenderTarget@@@1@@Z$1:
  00000	8d 4d ec	 lea	 ecx, DWORD PTR __Newnode$4[ebp]
  00003	e9 00 00 00 00	 jmp	 ??1?$_Alloc_construct_ptr@V?$allocator@U?$_List_node@U?$pair@$$CBHV?$shared_ptr@VCWikiRenderTarget@@@std@@@std@@PAX@std@@@std@@@std@@QAE@XZ ; std::_Alloc_construct_ptr<std::allocator<std::_List_node<std::pair<int const ,std::shared_ptr<CWikiRenderTarget> >,void *> > >::~_Alloc_construct_ptr<std::allocator<std::_List_node<std::pair<int const ,std::shared_ptr<CWikiRenderTarget> >,void *> > >
__unwindfunclet$??$emplace@ABHV?$shared_ptr@VCWikiRenderTarget@@@std@@@?$_Hash@V?$_Umap_traits@HV?$shared_ptr@VCWikiRenderTarget@@@std@@V?$_Uhash_compare@HU?$hash@H@std@@U?$equal_to@H@2@@2@V?$allocator@U?$pair@$$CBHV?$shared_ptr@VCWikiRenderTarget@@@std@@@std@@@2@$0A@@std@@@std@@QAE?AU?$pair@V?$_List_iterator@V?$_List_val@U?$_List_simple_types@U?$pair@$$CBHV?$shared_ptr@VCWikiRenderTarget@@@std@@@std@@@std@@@std@@@std@@_N@1@ABH$$QAV?$shared_ptr@VCWikiRenderTarget@@@1@@Z$0:
  00008	8d 4d ec	 lea	 ecx, DWORD PTR __Newnode$4[ebp]
  0000b	e9 00 00 00 00	 jmp	 ??1?$_List_node_emplace_op2@V?$allocator@U?$_List_node@U?$pair@$$CBHV?$shared_ptr@VCWikiRenderTarget@@@std@@@std@@PAX@std@@@std@@@std@@QAE@XZ ; std::_List_node_emplace_op2<std::allocator<std::_List_node<std::pair<int const ,std::shared_ptr<CWikiRenderTarget> >,void *> > >::~_List_node_emplace_op2<std::allocator<std::_List_node<std::pair<int const ,std::shared_ptr<CWikiRenderTarget> >,void *> > >
  00010	cc		 int	 3
  00011	cc		 int	 3
  00012	cc		 int	 3
  00013	cc		 int	 3
  00014	cc		 int	 3
__ehhandler$??$emplace@ABHV?$shared_ptr@VCWikiRenderTarget@@@std@@@?$_Hash@V?$_Umap_traits@HV?$shared_ptr@VCWikiRenderTarget@@@std@@V?$_Uhash_compare@HU?$hash@H@std@@U?$equal_to@H@2@@2@V?$allocator@U?$pair@$$CBHV?$shared_ptr@VCWikiRenderTarget@@@std@@@std@@@2@$0A@@std@@@std@@QAE?AU?$pair@V?$_List_iterator@V?$_List_val@U?$_List_simple_types@U?$pair@$$CBHV?$shared_ptr@VCWikiRenderTarget@@@std@@@std@@@std@@@std@@@std@@_N@1@ABH$$QAV?$shared_ptr@VCWikiRenderTarget@@@1@@Z:
  00015	90		 npad	 1
  00016	90		 npad	 1
  00017	8b 54 24 08	 mov	 edx, DWORD PTR [esp+8]
  0001b	8d 42 0c	 lea	 eax, DWORD PTR [edx+12]
  0001e	8b 4a e0	 mov	 ecx, DWORD PTR [edx-32]
  00021	33 c8		 xor	 ecx, eax
  00023	e8 00 00 00 00	 call	 @__security_check_cookie@4
  00028	b8 00 00 00 00	 mov	 eax, OFFSET __ehfuncinfo$??$emplace@ABHV?$shared_ptr@VCWikiRenderTarget@@@std@@@?$_Hash@V?$_Umap_traits@HV?$shared_ptr@VCWikiRenderTarget@@@std@@V?$_Uhash_compare@HU?$hash@H@std@@U?$equal_to@H@2@@2@V?$allocator@U?$pair@$$CBHV?$shared_ptr@VCWikiRenderTarget@@@std@@@std@@@2@$0A@@std@@@std@@QAE?AU?$pair@V?$_List_iterator@V?$_List_val@U?$_List_simple_types@U?$pair@$$CBHV?$shared_ptr@VCWikiRenderTarget@@@std@@@std@@@std@@@std@@@std@@_N@1@ABH$$QAV?$shared_ptr@VCWikiRenderTarget@@@1@@Z
  0002d	e9 00 00 00 00	 jmp	 ___CxxFrameHandler3
text$x	ENDS
??$emplace@ABHV?$shared_ptr@VCWikiRenderTarget@@@std@@@?$_Hash@V?$_Umap_traits@HV?$shared_ptr@VCWikiRenderTarget@@@std@@V?$_Uhash_compare@HU?$hash@H@std@@U?$equal_to@H@2@@2@V?$allocator@U?$pair@$$CBHV?$shared_ptr@VCWikiRenderTarget@@@std@@@std@@@2@$0A@@std@@@std@@QAE?AU?$pair@V?$_List_iterator@V?$_List_val@U?$_List_simple_types@U?$pair@$$CBHV?$shared_ptr@VCWikiRenderTarget@@@std@@@std@@@std@@@std@@@std@@_N@1@ABH$$QAV?$shared_ptr@VCWikiRenderTarget@@@1@@Z ENDP ; std::_Hash<std::_Umap_traits<int,std::shared_ptr<CWikiRenderTarget>,std::_Uhash_compare<int,std::hash<int>,std::equal_to<int> >,std::allocator<std::pair<int const ,std::shared_ptr<CWikiRenderTarget> > >,0> >::emplace<int const &,std::shared_ptr<CWikiRenderTarget> >
; Function compile flags: /Ogtp
; File C:\Program Files\Microsoft Visual Studio\2022\Community\VC\Tools\MSVC\14.34.31933\include\memory
;	COMDAT ??1?$shared_ptr@VCWikiRenderTarget@@@std@@QAE@XZ
_TEXT	SEGMENT
??1?$shared_ptr@VCWikiRenderTarget@@@std@@QAE@XZ PROC	; std::shared_ptr<CWikiRenderTarget>::~shared_ptr<CWikiRenderTarget>, COMDAT
; _this$ = ecx

; 1618 :     ~shared_ptr() noexcept { // release resource

  00000	56		 push	 esi

; 1334 :         if (_Rep) {

  00001	8b 71 04	 mov	 esi, DWORD PTR [ecx+4]
  00004	85 f6		 test	 esi, esi
  00006	74 25		 je	 SHORT $LN10@shared_ptr

; 1109 :         if (_MT_DECR(_Uses) == 0) {

  00008	57		 push	 edi
  00009	83 cf ff	 or	 edi, -1
  0000c	8b c7		 mov	 eax, edi
  0000e	f0 0f c1 46 04	 lock	  xadd	 DWORD PTR [esi+4], eax
  00013	75 17		 jne	 SHORT $LN12@shared_ptr

; 1110 :             _Destroy();

  00015	8b 06		 mov	 eax, DWORD PTR [esi]
  00017	8b ce		 mov	 ecx, esi
  00019	ff 10		 call	 DWORD PTR [eax]

; 1116 :         if (_MT_DECR(_Weaks) == 0) {

  0001b	f0 0f c1 7e 08	 lock	  xadd	 DWORD PTR [esi+8], edi
  00020	4f		 dec	 edi
  00021	75 09		 jne	 SHORT $LN12@shared_ptr

; 1117 :             _Delete_this();

  00023	8b 06		 mov	 eax, DWORD PTR [esi]
  00025	8b ce		 mov	 ecx, esi
  00027	5f		 pop	 edi
  00028	5e		 pop	 esi
  00029	ff 60 04	 jmp	 DWORD PTR [eax+4]
$LN12@shared_ptr:
  0002c	5f		 pop	 edi
$LN10@shared_ptr:
  0002d	5e		 pop	 esi

; 1619 :         this->_Decref();
; 1620 :     }

  0002e	c3		 ret	 0
??1?$shared_ptr@VCWikiRenderTarget@@@std@@QAE@XZ ENDP	; std::shared_ptr<CWikiRenderTarget>::~shared_ptr<CWikiRenderTarget>
_TEXT	ENDS
; Function compile flags: /Ogtp
;	COMDAT ??_GCWikiRenderTargetManager@@UAEPAXI@Z
_TEXT	SEGMENT
___flags$ = 8						; size = 4
??_GCWikiRenderTargetManager@@UAEPAXI@Z PROC		; CWikiRenderTargetManager::`scalar deleting destructor', COMDAT
; _this$ = ecx
  00000	55		 push	 ebp
  00001	8b ec		 mov	 ebp, esp
  00003	56		 push	 esi
  00004	8b f1		 mov	 esi, ecx
  00006	e8 00 00 00 00	 call	 ??1CWikiRenderTargetManager@@UAE@XZ ; CWikiRenderTargetManager::~CWikiRenderTargetManager
  0000b	f6 45 08 01	 test	 BYTE PTR ___flags$[ebp], 1
  0000f	74 0b		 je	 SHORT $LN4@scalar
  00011	6a 24		 push	 36			; 00000024H
  00013	56		 push	 esi
  00014	e8 00 00 00 00	 call	 ??3@YAXPAXI@Z		; operator delete
  00019	83 c4 08	 add	 esp, 8
$LN4@scalar:
  0001c	8b c6		 mov	 eax, esi
  0001e	5e		 pop	 esi
  0001f	5d		 pop	 ebp
  00020	c2 04 00	 ret	 4
??_GCWikiRenderTargetManager@@UAEPAXI@Z ENDP		; CWikiRenderTargetManager::`scalar deleting destructor'
_TEXT	ENDS
; Function compile flags: /Ogtp
; File C:\Program Files\Microsoft Visual Studio\2022\Community\VC\Tools\MSVC\14.34.31933\include\xhash
; File C:\Program Files\Microsoft Visual Studio\2022\Community\VC\Tools\MSVC\14.34.31933\include\xmemory
; File C:\Program Files\Microsoft Visual Studio\2022\Community\VC\Tools\MSVC\14.34.31933\include\xhash
; File C:\Program Files\Microsoft Visual Studio\2022\Community\VC\Tools\MSVC\14.34.31933\include\list
; File C:\Program Files\Microsoft Visual Studio\2022\Community\VC\Tools\MSVC\14.34.31933\include\xmemory
;	COMDAT ??1?$_Hash@V?$_Umap_traits@HV?$shared_ptr@VCWikiRenderTarget@@@std@@V?$_Uhash_compare@HU?$hash@H@std@@U?$equal_to@H@2@@2@V?$allocator@U?$pair@$$CBHV?$shared_ptr@VCWikiRenderTarget@@@std@@@std@@@2@$0A@@std@@@std@@QAE@XZ
_TEXT	SEGMENT
??1?$_Hash@V?$_Umap_traits@HV?$shared_ptr@VCWikiRenderTarget@@@std@@V?$_Uhash_compare@HU?$hash@H@std@@U?$equal_to@H@2@@2@V?$allocator@U?$pair@$$CBHV?$shared_ptr@VCWikiRenderTarget@@@std@@@std@@@2@$0A@@std@@@std@@QAE@XZ PROC ; std::_Hash<std::_Umap_traits<int,std::shared_ptr<CWikiRenderTarget>,std::_Uhash_compare<int,std::hash<int>,std::equal_to<int> >,std::allocator<std::pair<int const ,std::shared_ptr<CWikiRenderTarget> > >,0> >::~_Hash<std::_Umap_traits<int,std::shared_ptr<CWikiRenderTarget>,std::_Uhash_compare<int,std::hash<int>,std::equal_to<int> >,std::allocator<std::pair<int const ,std::shared_ptr<CWikiRenderTarget> > >,0> >, COMDAT
; _this$ = ecx
; File C:\Program Files\Microsoft Visual Studio\2022\Community\VC\Tools\MSVC\14.34.31933\include\xhash

; 311  :         if (_Mypair._Myval2._Myfirst != nullptr) {

  00000	56		 push	 esi
  00001	8b f1		 mov	 esi, ecx
  00003	8b 46 0c	 mov	 eax, DWORD PTR [esi+12]
  00006	85 c0		 test	 eax, eax
  00008	74 41		 je	 SHORT $LN6@Hash

; 283  :         return static_cast<size_type>(_Mypair._Myval2._Myend - _Mypair._Myval2._Myfirst);

  0000a	8b 4e 14	 mov	 ecx, DWORD PTR [esi+20]
  0000d	2b c8		 sub	 ecx, eax
; File C:\Program Files\Microsoft Visual Studio\2022\Community\VC\Tools\MSVC\14.34.31933\include\xmemory

; 830  :         _Deallocate<_New_alignof<_Ty>>(_Ptr, sizeof(_Ty) * _Count);

  0000f	83 e1 fc	 and	 ecx, -4			; fffffffcH

; 251  :         if (_Bytes >= _Big_allocation_threshold) { // boost the alignment of big allocations to help autovectorization

  00012	81 f9 00 10 00
	00		 cmp	 ecx, 4096		; 00001000H
  00018	72 12		 jb	 SHORT $LN24@Hash

; 150  :     const uintptr_t _Ptr_container   = _Ptr_user[-1];

  0001a	8b 50 fc	 mov	 edx, DWORD PTR [eax-4]
  0001d	83 c1 23	 add	 ecx, 35			; 00000023H

; 151  : 
; 152  :     // If the following asserts, it likely means that we are performing
; 153  :     // an aligned delete on memory coming from an unaligned allocation.
; 154  :     _STL_ASSERT(_Ptr_user[-2] == _Big_allocation_sentinel, "invalid argument");
; 155  : 
; 156  :     // Extra paranoia on aligned allocation/deallocation; ensure _Ptr_container is
; 157  :     // in range [_Min_back_shift, _Non_user_size]
; 158  : #ifdef _DEBUG
; 159  :     constexpr uintptr_t _Min_back_shift = 2 * sizeof(void*);
; 160  : #else // ^^^ _DEBUG ^^^ // vvv !_DEBUG vvv
; 161  :     constexpr uintptr_t _Min_back_shift = sizeof(void*);
; 162  : #endif // _DEBUG
; 163  :     const uintptr_t _Back_shift = reinterpret_cast<uintptr_t>(_Ptr) - _Ptr_container;

  00020	2b c2		 sub	 eax, edx

; 164  :     _STL_VERIFY(_Back_shift >= _Min_back_shift && _Back_shift <= _Non_user_size, "invalid argument");

  00022	83 c0 fc	 add	 eax, -4			; fffffffcH
  00025	83 f8 1f	 cmp	 eax, 31			; 0000001fH
  00028	77 3b		 ja	 SHORT $LN21@Hash

; 165  :     _Ptr = reinterpret_cast<void*>(_Ptr_container);

  0002a	8b c2		 mov	 eax, edx
$LN24@Hash:

; 255  :         ::operator delete(_Ptr, _Bytes);

  0002c	51		 push	 ecx
  0002d	50		 push	 eax
  0002e	e8 00 00 00 00	 call	 ??3@YAXPAXI@Z		; operator delete
  00033	83 c4 08	 add	 esp, 8
; File C:\Program Files\Microsoft Visual Studio\2022\Community\VC\Tools\MSVC\14.34.31933\include\xhash

; 314  :             _Mypair._Myval2._Myfirst = nullptr;

  00036	c7 46 0c 00 00
	00 00		 mov	 DWORD PTR [esi+12], 0

; 315  :             _Mypair._Myval2._Mylast  = nullptr;

  0003d	c7 46 10 00 00
	00 00		 mov	 DWORD PTR [esi+16], 0

; 316  :             _Mypair._Myval2._Myend   = nullptr;

  00044	c7 46 14 00 00
	00 00		 mov	 DWORD PTR [esi+20], 0
$LN6@Hash:
; File C:\Program Files\Microsoft Visual Studio\2022\Community\VC\Tools\MSVC\14.34.31933\include\list

; 1498 :         _Node::_Free_non_head(_Al, _My_data._Myhead);

  0004b	ff 76 04	 push	 DWORD PTR [esi+4]
  0004e	83 c6 04	 add	 esi, 4
  00051	56		 push	 esi
  00052	e8 00 00 00 00	 call	 ??$_Free_non_head@V?$allocator@U?$_List_node@U?$pair@$$CBHV?$shared_ptr@VCWikiRenderTarget@@@std@@@std@@PAX@std@@@std@@@?$_List_node@U?$pair@$$CBHV?$shared_ptr@VCWikiRenderTarget@@@std@@@std@@PAX@std@@SAXAAV?$allocator@U?$_List_node@U?$pair@$$CBHV?$shared_ptr@VCWikiRenderTarget@@@std@@@std@@PAX@std@@@1@PAU01@@Z ; std::_List_node<std::pair<int const ,std::shared_ptr<CWikiRenderTarget> >,void *>::_Free_non_head<std::allocator<std::_List_node<std::pair<int const ,std::shared_ptr<CWikiRenderTarget> >,void *> > >
; File C:\Program Files\Microsoft Visual Studio\2022\Community\VC\Tools\MSVC\14.34.31933\include\xmemory

; 255  :         ::operator delete(_Ptr, _Bytes);

  00057	6a 14		 push	 20			; 00000014H
  00059	ff 36		 push	 DWORD PTR [esi]
  0005b	e8 00 00 00 00	 call	 ??3@YAXPAXI@Z		; operator delete
  00060	83 c4 10	 add	 esp, 16			; 00000010H
  00063	5e		 pop	 esi
  00064	c3		 ret	 0
$LN21@Hash:

; 164  :     _STL_VERIFY(_Back_shift >= _Min_back_shift && _Back_shift <= _Non_user_size, "invalid argument");

  00065	e8 00 00 00 00	 call	 __invalid_parameter_noinfo_noreturn
$LN56@Hash:
  0006a	cc		 int	 3
??1?$_Hash@V?$_Umap_traits@HV?$shared_ptr@VCWikiRenderTarget@@@std@@V?$_Uhash_compare@HU?$hash@H@std@@U?$equal_to@H@2@@2@V?$allocator@U?$pair@$$CBHV?$shared_ptr@VCWikiRenderTarget@@@std@@@std@@@2@$0A@@std@@@std@@QAE@XZ ENDP ; std::_Hash<std::_Umap_traits<int,std::shared_ptr<CWikiRenderTarget>,std::_Uhash_compare<int,std::hash<int>,std::equal_to<int> >,std::allocator<std::pair<int const ,std::shared_ptr<CWikiRenderTarget> > >,0> >::~_Hash<std::_Umap_traits<int,std::shared_ptr<CWikiRenderTarget>,std::_Uhash_compare<int,std::hash<int>,std::equal_to<int> >,std::allocator<std::pair<int const ,std::shared_ptr<CWikiRenderTarget> > >,0> >
_TEXT	ENDS
; Function compile flags: /Ogtp
; File C:\Program Files\Microsoft Visual Studio\2022\Community\VC\Tools\MSVC\14.34.31933\include\xhash
; File C:\Program Files\Microsoft Visual Studio\2022\Community\VC\Tools\MSVC\14.34.31933\include\xmemory
; File C:\Program Files\Microsoft Visual Studio\2022\Community\VC\Tools\MSVC\14.34.31933\include\xhash
; File C:\Program Files\Microsoft Visual Studio\2022\Community\VC\Tools\MSVC\14.34.31933\include\xmemory
; File C:\Program Files\Microsoft Visual Studio\2022\Community\VC\Tools\MSVC\14.34.31933\include\xhash
;	COMDAT ??1?$_Hash_vec@V?$allocator@V?$_List_unchecked_iterator@V?$_List_val@U?$_List_simple_types@U?$pair@$$CBHV?$shared_ptr@VCWikiRenderTarget@@@std@@@std@@@std@@@std@@@std@@@std@@@std@@QAE@XZ
_TEXT	SEGMENT
??1?$_Hash_vec@V?$allocator@V?$_List_unchecked_iterator@V?$_List_val@U?$_List_simple_types@U?$pair@$$CBHV?$shared_ptr@VCWikiRenderTarget@@@std@@@std@@@std@@@std@@@std@@@std@@@std@@QAE@XZ PROC ; std::_Hash_vec<std::allocator<std::_List_unchecked_iterator<std::_List_val<std::_List_simple_types<std::pair<int const ,std::shared_ptr<CWikiRenderTarget> > > > > > >::~_Hash_vec<std::allocator<std::_List_unchecked_iterator<std::_List_val<std::_List_simple_types<std::pair<int const ,std::shared_ptr<CWikiRenderTarget> > > > > > >, COMDAT
; _this$ = ecx

; 320  :     ~_Hash_vec() {

  00000	56		 push	 esi
  00001	8b f1		 mov	 esi, ecx

; 311  :         if (_Mypair._Myval2._Myfirst != nullptr) {

  00003	8b 06		 mov	 eax, DWORD PTR [esi]
  00005	85 c0		 test	 eax, eax
  00007	74 40		 je	 SHORT $LN4@Hash_vec

; 283  :         return static_cast<size_type>(_Mypair._Myval2._Myend - _Mypair._Myval2._Myfirst);

  00009	8b 56 08	 mov	 edx, DWORD PTR [esi+8]
  0000c	2b d0		 sub	 edx, eax
; File C:\Program Files\Microsoft Visual Studio\2022\Community\VC\Tools\MSVC\14.34.31933\include\xmemory

; 830  :         _Deallocate<_New_alignof<_Ty>>(_Ptr, sizeof(_Ty) * _Count);

  0000e	83 e2 fc	 and	 edx, -4			; fffffffcH

; 251  :         if (_Bytes >= _Big_allocation_threshold) { // boost the alignment of big allocations to help autovectorization

  00011	81 fa 00 10 00
	00		 cmp	 edx, 4096		; 00001000H
  00017	72 12		 jb	 SHORT $LN22@Hash_vec

; 150  :     const uintptr_t _Ptr_container   = _Ptr_user[-1];

  00019	8b 48 fc	 mov	 ecx, DWORD PTR [eax-4]
  0001c	83 c2 23	 add	 edx, 35			; 00000023H

; 151  : 
; 152  :     // If the following asserts, it likely means that we are performing
; 153  :     // an aligned delete on memory coming from an unaligned allocation.
; 154  :     _STL_ASSERT(_Ptr_user[-2] == _Big_allocation_sentinel, "invalid argument");
; 155  : 
; 156  :     // Extra paranoia on aligned allocation/deallocation; ensure _Ptr_container is
; 157  :     // in range [_Min_back_shift, _Non_user_size]
; 158  : #ifdef _DEBUG
; 159  :     constexpr uintptr_t _Min_back_shift = 2 * sizeof(void*);
; 160  : #else // ^^^ _DEBUG ^^^ // vvv !_DEBUG vvv
; 161  :     constexpr uintptr_t _Min_back_shift = sizeof(void*);
; 162  : #endif // _DEBUG
; 163  :     const uintptr_t _Back_shift = reinterpret_cast<uintptr_t>(_Ptr) - _Ptr_container;

  0001f	2b c1		 sub	 eax, ecx

; 164  :     _STL_VERIFY(_Back_shift >= _Min_back_shift && _Back_shift <= _Non_user_size, "invalid argument");

  00021	83 c0 fc	 add	 eax, -4			; fffffffcH
  00024	83 f8 1f	 cmp	 eax, 31			; 0000001fH
  00027	77 22		 ja	 SHORT $LN19@Hash_vec

; 165  :     _Ptr = reinterpret_cast<void*>(_Ptr_container);

  00029	8b c1		 mov	 eax, ecx
$LN22@Hash_vec:

; 255  :         ::operator delete(_Ptr, _Bytes);

  0002b	52		 push	 edx
  0002c	50		 push	 eax
  0002d	e8 00 00 00 00	 call	 ??3@YAXPAXI@Z		; operator delete
  00032	83 c4 08	 add	 esp, 8
; File C:\Program Files\Microsoft Visual Studio\2022\Community\VC\Tools\MSVC\14.34.31933\include\xhash

; 314  :             _Mypair._Myval2._Myfirst = nullptr;

  00035	c7 06 00 00 00
	00		 mov	 DWORD PTR [esi], 0

; 315  :             _Mypair._Myval2._Mylast  = nullptr;

  0003b	c7 46 04 00 00
	00 00		 mov	 DWORD PTR [esi+4], 0

; 316  :             _Mypair._Myval2._Myend   = nullptr;

  00042	c7 46 08 00 00
	00 00		 mov	 DWORD PTR [esi+8], 0
$LN4@Hash_vec:
  00049	5e		 pop	 esi

; 326  :     }

  0004a	c3		 ret	 0
$LN19@Hash_vec:
; File C:\Program Files\Microsoft Visual Studio\2022\Community\VC\Tools\MSVC\14.34.31933\include\xmemory

; 164  :     _STL_VERIFY(_Back_shift >= _Min_back_shift && _Back_shift <= _Non_user_size, "invalid argument");

  0004b	e8 00 00 00 00	 call	 __invalid_parameter_noinfo_noreturn
$LN27@Hash_vec:
  00050	cc		 int	 3
??1?$_Hash_vec@V?$allocator@V?$_List_unchecked_iterator@V?$_List_val@U?$_List_simple_types@U?$pair@$$CBHV?$shared_ptr@VCWikiRenderTarget@@@std@@@std@@@std@@@std@@@std@@@std@@@std@@QAE@XZ ENDP ; std::_Hash_vec<std::allocator<std::_List_unchecked_iterator<std::_List_val<std::_List_simple_types<std::pair<int const ,std::shared_ptr<CWikiRenderTarget> > > > > > >::~_Hash_vec<std::allocator<std::_List_unchecked_iterator<std::_List_val<std::_List_simple_types<std::pair<int const ,std::shared_ptr<CWikiRenderTarget> > > > > > >
_TEXT	ENDS
; Function compile flags: /Ogtp
; File C:\Program Files\Microsoft Visual Studio\2022\Community\VC\Tools\MSVC\14.34.31933\include\xhash
; File C:\Program Files\Microsoft Visual Studio\2022\Community\VC\Tools\MSVC\14.34.31933\include\xmemory
; File C:\Program Files\Microsoft Visual Studio\2022\Community\VC\Tools\MSVC\14.34.31933\include\xhash
; File C:\Program Files\Microsoft Visual Studio\2022\Community\VC\Tools\MSVC\14.34.31933\include\xmemory
; File C:\Program Files\Microsoft Visual Studio\2022\Community\VC\Tools\MSVC\14.34.31933\include\xhash
; File C:\Program Files\Microsoft Visual Studio\2022\Community\VC\Tools\MSVC\14.34.31933\include\xmemory
; File C:\Program Files\Microsoft Visual Studio\2022\Community\VC\Tools\MSVC\14.34.31933\include\xhash
;	COMDAT ?_Assign_grow@?$_Hash_vec@V?$allocator@V?$_List_unchecked_iterator@V?$_List_val@U?$_List_simple_types@U?$pair@$$CBHV?$shared_ptr@VCWikiRenderTarget@@@std@@@std@@@std@@@std@@@std@@@std@@@std@@QAEXIV?$_List_unchecked_iterator@V?$_List_val@U?$_List_simple_types@U?$pair@$$CBHV?$shared_ptr@VCWikiRenderTarget@@@std@@@std@@@std@@@std@@@2@@Z
_TEXT	SEGMENT
__Cells$ = 8						; size = 4
__Val$ = 12						; size = 4
?_Assign_grow@?$_Hash_vec@V?$allocator@V?$_List_unchecked_iterator@V?$_List_val@U?$_List_simple_types@U?$pair@$$CBHV?$shared_ptr@VCWikiRenderTarget@@@std@@@std@@@std@@@std@@@std@@@std@@@std@@QAEXIV?$_List_unchecked_iterator@V?$_List_val@U?$_List_simple_types@U?$pair@$$CBHV?$shared_ptr@VCWikiRenderTarget@@@std@@@std@@@std@@@std@@@2@@Z PROC ; std::_Hash_vec<std::allocator<std::_List_unchecked_iterator<std::_List_val<std::_List_simple_types<std::pair<int const ,std::shared_ptr<CWikiRenderTarget> > > > > > >::_Assign_grow, COMDAT
; _this$ = ecx

; 286  :     void _Assign_grow(const size_type _Cells, const value_type _Val) {

  00000	55		 push	 ebp
  00001	8b ec		 mov	 ebp, esp
  00003	56		 push	 esi

; 287  :         // set the elements stored here to _Cells copies of _Val, leaving the value unchanged if an exception is thrown
; 288  :         const auto _Oldsize = size();
; 289  :         _STL_INTERNAL_CHECK(_Oldsize <= _Cells);
; 290  :         auto& _Alvec = _Mypair._Get_first();
; 291  :         if (_Oldsize < _Cells) {

  00004	8b 75 08	 mov	 esi, DWORD PTR __Cells$[ebp]
  00007	57		 push	 edi
  00008	8b f9		 mov	 edi, ecx

; 272  :         return static_cast<size_type>(_Mypair._Myval2._Mylast - _Mypair._Myval2._Myfirst);

  0000a	8b 4f 04	 mov	 ecx, DWORD PTR [edi+4]
  0000d	8b c1		 mov	 eax, ecx
  0000f	8b 17		 mov	 edx, DWORD PTR [edi]
  00011	2b c2		 sub	 eax, edx
  00013	c1 f8 02	 sar	 eax, 2

; 287  :         // set the elements stored here to _Cells copies of _Val, leaving the value unchanged if an exception is thrown
; 288  :         const auto _Oldsize = size();
; 289  :         _STL_INTERNAL_CHECK(_Oldsize <= _Cells);
; 290  :         auto& _Alvec = _Mypair._Get_first();
; 291  :         if (_Oldsize < _Cells) {

  00016	3b c6		 cmp	 eax, esi
  00018	0f 83 8d 00 00
	00		 jae	 $LN2@Assign_gro
; File C:\Program Files\Microsoft Visual Studio\2022\Community\VC\Tools\MSVC\14.34.31933\include\xmemory

; 60   :         if (_Count > _Max_possible) {

  0001e	81 fe ff ff ff
	3f		 cmp	 esi, 1073741823		; 3fffffffH
  00024	0f 87 95 00 00
	00		 ja	 $LN42@Assign_gro

; 62   :         }
; 63   :     }
; 64   : 
; 65   :     return _Count * _Ty_size;

  0002a	c1 e6 02	 shl	 esi, 2
  0002d	53		 push	 ebx

; 228  :         if (_Bytes >= _Big_allocation_threshold) { // boost the alignment of big allocations to help autovectorization

  0002e	81 fe 00 10 00
	00		 cmp	 esi, 4096		; 00001000H
  00034	72 0d		 jb	 SHORT $LN15@Assign_gro

; 229  :             return _Allocate_manually_vector_aligned<_Traits>(_Bytes);

  00036	56		 push	 esi
  00037	e8 00 00 00 00	 call	 ??$_Allocate_manually_vector_aligned@U_Default_allocate_traits@std@@@std@@YAPAXI@Z ; std::_Allocate_manually_vector_aligned<std::_Default_allocate_traits>
  0003c	83 c4 04	 add	 esp, 4
  0003f	8b d8		 mov	 ebx, eax
  00041	eb 13		 jmp	 SHORT $LN14@Assign_gro
$LN15@Assign_gro:

; 230  :         }
; 231  :     }
; 232  : #endif // defined(_M_IX86) || defined(_M_X64)
; 233  : 
; 234  :     if (_Bytes != 0) {

  00043	85 f6		 test	 esi, esi
  00045	74 0d		 je	 SHORT $LN16@Assign_gro

; 77   :         return ::operator new(_Bytes);

  00047	56		 push	 esi
  00048	e8 00 00 00 00	 call	 ??2@YAPAXI@Z		; operator new
  0004d	83 c4 04	 add	 esp, 4

; 235  :         return _Traits::_Allocate(_Bytes);

  00050	8b d8		 mov	 ebx, eax
  00052	eb 02		 jmp	 SHORT $LN14@Assign_gro
$LN16@Assign_gro:

; 236  :     }
; 237  : 
; 238  :     return nullptr;

  00054	33 db		 xor	 ebx, ebx
$LN14@Assign_gro:
; File C:\Program Files\Microsoft Visual Studio\2022\Community\VC\Tools\MSVC\14.34.31933\include\xhash

; 283  :         return static_cast<size_type>(_Mypair._Myval2._Myend - _Mypair._Myval2._Myfirst);

  00056	8b 4f 08	 mov	 ecx, DWORD PTR [edi+8]
  00059	8b 07		 mov	 eax, DWORD PTR [edi]
  0005b	2b c8		 sub	 ecx, eax
  0005d	c1 f9 02	 sar	 ecx, 2

; 292  :             const auto _Newvec = _Alvec.allocate(_Cells); // throws
; 293  :             // nothrow hereafter
; 294  :             const auto _Oldcapacity = capacity();
; 295  :             if (_Oldcapacity != 0) {

  00060	85 c9		 test	 ecx, ecx
  00062	74 27		 je	 SHORT $LN27@Assign_gro
; File C:\Program Files\Microsoft Visual Studio\2022\Community\VC\Tools\MSVC\14.34.31933\include\xmemory

; 830  :         _Deallocate<_New_alignof<_Ty>>(_Ptr, sizeof(_Ty) * _Count);

  00064	c1 e1 02	 shl	 ecx, 2

; 251  :         if (_Bytes >= _Big_allocation_threshold) { // boost the alignment of big allocations to help autovectorization

  00067	81 f9 00 10 00
	00		 cmp	 ecx, 4096		; 00001000H
  0006d	72 12		 jb	 SHORT $LN37@Assign_gro

; 150  :     const uintptr_t _Ptr_container   = _Ptr_user[-1];

  0006f	8b 50 fc	 mov	 edx, DWORD PTR [eax-4]
  00072	83 c1 23	 add	 ecx, 35			; 00000023H

; 151  : 
; 152  :     // If the following asserts, it likely means that we are performing
; 153  :     // an aligned delete on memory coming from an unaligned allocation.
; 154  :     _STL_ASSERT(_Ptr_user[-2] == _Big_allocation_sentinel, "invalid argument");
; 155  : 
; 156  :     // Extra paranoia on aligned allocation/deallocation; ensure _Ptr_container is
; 157  :     // in range [_Min_back_shift, _Non_user_size]
; 158  : #ifdef _DEBUG
; 159  :     constexpr uintptr_t _Min_back_shift = 2 * sizeof(void*);
; 160  : #else // ^^^ _DEBUG ^^^ // vvv !_DEBUG vvv
; 161  :     constexpr uintptr_t _Min_back_shift = sizeof(void*);
; 162  : #endif // _DEBUG
; 163  :     const uintptr_t _Back_shift = reinterpret_cast<uintptr_t>(_Ptr) - _Ptr_container;

  00075	2b c2		 sub	 eax, edx

; 164  :     _STL_VERIFY(_Back_shift >= _Min_back_shift && _Back_shift <= _Non_user_size, "invalid argument");

  00077	83 c0 fc	 add	 eax, -4			; fffffffcH
  0007a	83 f8 1f	 cmp	 eax, 31			; 0000001fH
  0007d	77 45		 ja	 SHORT $LN34@Assign_gro

; 165  :     _Ptr = reinterpret_cast<void*>(_Ptr_container);

  0007f	8b c2		 mov	 eax, edx
$LN37@Assign_gro:

; 255  :         ::operator delete(_Ptr, _Bytes);

  00081	51		 push	 ecx
  00082	50		 push	 eax
  00083	e8 00 00 00 00	 call	 ??3@YAXPAXI@Z		; operator delete
  00088	83 c4 08	 add	 esp, 8
$LN27@Assign_gro:
; File C:\Program Files\Microsoft Visual Studio\2022\Community\VC\Tools\MSVC\14.34.31933\include\xhash

; 301  :             const auto _Newend       = _Newvec + _Cells;

  0008b	8d 04 1e	 lea	 eax, DWORD PTR [esi+ebx]
  0008e	89 1f		 mov	 DWORD PTR [edi], ebx

; 302  :             _Mypair._Myval2._Mylast  = _Newend;
; 303  :             _Mypair._Myval2._Myend   = _Newend;
; 304  :             _STD uninitialized_fill(_Newvec, _Newend, _Val);

  00090	8d 4d 0c	 lea	 ecx, DWORD PTR __Val$[ebp]
  00093	89 47 04	 mov	 DWORD PTR [edi+4], eax
  00096	51		 push	 ecx
  00097	50		 push	 eax
  00098	53		 push	 ebx
  00099	89 47 08	 mov	 DWORD PTR [edi+8], eax
  0009c	e8 00 00 00 00	 call	 ??$uninitialized_fill@PAV?$_List_unchecked_iterator@V?$_List_val@U?$_List_simple_types@U?$pair@$$CBHV?$shared_ptr@VCWikiRenderTarget@@@std@@@std@@@std@@@std@@@std@@V12@@std@@YAXQAV?$_List_unchecked_iterator@V?$_List_val@U?$_List_simple_types@U?$pair@$$CBHV?$shared_ptr@VCWikiRenderTarget@@@std@@@std@@@std@@@std@@@0@0ABV10@@Z ; std::uninitialized_fill<std::_List_unchecked_iterator<std::_List_val<std::_List_simple_types<std::pair<int const ,std::shared_ptr<CWikiRenderTarget> > > > > *,std::_List_unchecked_iterator<std::_List_val<std::_List_simple_types<std::pair<int const ,std::shared_ptr<CWikiRenderTarget> > > > > >
  000a1	83 c4 0c	 add	 esp, 12			; 0000000cH
  000a4	5b		 pop	 ebx
  000a5	5f		 pop	 edi

; 308  :     }

  000a6	5e		 pop	 esi
  000a7	5d		 pop	 ebp
  000a8	c2 08 00	 ret	 8
$LN2@Assign_gro:

; 305  :         } else {
; 306  :             _STD fill(_Mypair._Myval2._Myfirst, _Mypair._Myval2._Mylast, _Val);

  000ab	8d 45 0c	 lea	 eax, DWORD PTR __Val$[ebp]
  000ae	50		 push	 eax
  000af	51		 push	 ecx
  000b0	52		 push	 edx
  000b1	e8 00 00 00 00	 call	 ??$fill@PAV?$_List_unchecked_iterator@V?$_List_val@U?$_List_simple_types@U?$pair@$$CBHV?$shared_ptr@VCWikiRenderTarget@@@std@@@std@@@std@@@std@@@std@@V12@@std@@YAXQAV?$_List_unchecked_iterator@V?$_List_val@U?$_List_simple_types@U?$pair@$$CBHV?$shared_ptr@VCWikiRenderTarget@@@std@@@std@@@std@@@std@@@0@0ABV10@@Z ; std::fill<std::_List_unchecked_iterator<std::_List_val<std::_List_simple_types<std::pair<int const ,std::shared_ptr<CWikiRenderTarget> > > > > *,std::_List_unchecked_iterator<std::_List_val<std::_List_simple_types<std::pair<int const ,std::shared_ptr<CWikiRenderTarget> > > > > >
  000b6	83 c4 0c	 add	 esp, 12			; 0000000cH
  000b9	5f		 pop	 edi

; 308  :     }

  000ba	5e		 pop	 esi
  000bb	5d		 pop	 ebp
  000bc	c2 08 00	 ret	 8
$LN42@Assign_gro:
; File C:\Program Files\Microsoft Visual Studio\2022\Community\VC\Tools\MSVC\14.34.31933\include\xmemory

; 61   :             _Throw_bad_array_new_length(); // multiply overflow

  000bf	e8 00 00 00 00	 call	 ?_Throw_bad_array_new_length@std@@YAXXZ ; std::_Throw_bad_array_new_length
$LN34@Assign_gro:

; 164  :     _STL_VERIFY(_Back_shift >= _Min_back_shift && _Back_shift <= _Non_user_size, "invalid argument");

  000c4	e8 00 00 00 00	 call	 __invalid_parameter_noinfo_noreturn
$LN40@Assign_gro:
  000c9	cc		 int	 3
?_Assign_grow@?$_Hash_vec@V?$allocator@V?$_List_unchecked_iterator@V?$_List_val@U?$_List_simple_types@U?$pair@$$CBHV?$shared_ptr@VCWikiRenderTarget@@@std@@@std@@@std@@@std@@@std@@@std@@@std@@QAEXIV?$_List_unchecked_iterator@V?$_List_val@U?$_List_simple_types@U?$pair@$$CBHV?$shared_ptr@VCWikiRenderTarget@@@std@@@std@@@std@@@std@@@2@@Z ENDP ; std::_Hash_vec<std::allocator<std::_List_unchecked_iterator<std::_List_val<std::_List_simple_types<std::pair<int const ,std::shared_ptr<CWikiRenderTarget> > > > > > >::_Assign_grow
_TEXT	ENDS
; Function compile flags: /Ogtp
; File C:\Program Files\Microsoft Visual Studio\2022\Community\VC\Tools\MSVC\14.34.31933\include\xhash
; File C:\Program Files\Microsoft Visual Studio\2022\Community\VC\Tools\MSVC\14.34.31933\include\xbit_ops.h
; File C:\Program Files\Microsoft Visual Studio\2022\Community\VC\Tools\MSVC\14.34.31933\include\xhash
; File C:\Program Files\Microsoft Visual Studio\2022\Community\VC\Tools\MSVC\14.34.31933\include\xbit_ops.h
; File C:\Program Files\Microsoft Visual Studio\2022\Community\VC\Tools\MSVC\14.34.31933\include\xhash
; File C:\Program Files\Microsoft Visual Studio\2022\Community\VC\Tools\MSVC\14.34.31933\include\xbit_ops.h
; File C:\Program Files\Microsoft Visual Studio\2022\Community\VC\Tools\MSVC\14.34.31933\include\list
; File C:\Program Files\Microsoft Visual Studio\2022\Community\VC\Tools\MSVC\14.34.31933\include\xhash
; File C:\Program Files\Microsoft Visual Studio\2022\Community\VC\Tools\MSVC\14.34.31933\include\list
; File C:\Program Files\Microsoft Visual Studio\2022\Community\VC\Tools\MSVC\14.34.31933\include\xbit_ops.h
; File C:\Program Files\Microsoft Visual Studio\2022\Community\VC\Tools\MSVC\14.34.31933\include\xhash
; File C:\Program Files\Microsoft Visual Studio\2022\Community\VC\Tools\MSVC\14.34.31933\include\list
; File C:\Program Files\Microsoft Visual Studio\2022\Community\VC\Tools\MSVC\14.34.31933\include\xhash
; File C:\Program Files\Microsoft Visual Studio\2022\Community\VC\Tools\MSVC\14.34.31933\include\list
; File C:\Program Files\Microsoft Visual Studio\2022\Community\VC\Tools\MSVC\14.34.31933\include\xhash
; File C:\Program Files\Microsoft Visual Studio\2022\Community\VC\Tools\MSVC\14.34.31933\include\list
; File C:\Program Files\Microsoft Visual Studio\2022\Community\VC\Tools\MSVC\14.34.31933\include\type_traits
; File C:\Program Files\Microsoft Visual Studio\2022\Community\VC\Tools\MSVC\14.34.31933\include\xhash
; File C:\Program Files\Microsoft Visual Studio\2022\Community\VC\Tools\MSVC\14.34.31933\include\type_traits
; File C:\Program Files\Microsoft Visual Studio\2022\Community\VC\Tools\MSVC\14.34.31933\include\xhash
; File C:\Program Files\Microsoft Visual Studio\2022\Community\VC\Tools\MSVC\14.34.31933\include\list
; File C:\Program Files\Microsoft Visual Studio\2022\Community\VC\Tools\MSVC\14.34.31933\include\xhash
; File C:\Program Files\Microsoft Visual Studio\2022\Community\VC\Tools\MSVC\14.34.31933\include\list
; File C:\Program Files\Microsoft Visual Studio\2022\Community\VC\Tools\MSVC\14.34.31933\include\xhash
; File C:\Program Files\Microsoft Visual Studio\2022\Community\VC\Tools\MSVC\14.34.31933\include\list
; File C:\Program Files\Microsoft Visual Studio\2022\Community\VC\Tools\MSVC\14.34.31933\include\xhash
; File C:\Program Files\Microsoft Visual Studio\2022\Community\VC\Tools\MSVC\14.34.31933\include\xstddef
; File C:\Program Files\Microsoft Visual Studio\2022\Community\VC\Tools\MSVC\14.34.31933\include\xhash
; File C:\Program Files\Microsoft Visual Studio\2022\Community\VC\Tools\MSVC\14.34.31933\include\list
; File C:\Program Files\Microsoft Visual Studio\2022\Community\VC\Tools\MSVC\14.34.31933\include\xhash
; File C:\Program Files\Microsoft Visual Studio\2022\Community\VC\Tools\MSVC\14.34.31933\include\list
; File C:\Program Files\Microsoft Visual Studio\2022\Community\VC\Tools\MSVC\14.34.31933\include\xhash
; File C:\Program Files\Microsoft Visual Studio\2022\Community\VC\Tools\MSVC\14.34.31933\include\list
; File C:\Program Files\Microsoft Visual Studio\2022\Community\VC\Tools\MSVC\14.34.31933\include\xhash
; File C:\Program Files\Microsoft Visual Studio\2022\Community\VC\Tools\MSVC\14.34.31933\include\list
; File C:\Program Files\Microsoft Visual Studio\2022\Community\VC\Tools\MSVC\14.34.31933\include\xstddef
; File C:\Program Files\Microsoft Visual Studio\2022\Community\VC\Tools\MSVC\14.34.31933\include\xhash
; File C:\Program Files\Microsoft Visual Studio\2022\Community\VC\Tools\MSVC\14.34.31933\include\list
; File C:\Program Files\Microsoft Visual Studio\2022\Community\VC\Tools\MSVC\14.34.31933\include\xhash
; File C:\Program Files\Microsoft Visual Studio\2022\Community\VC\Tools\MSVC\14.34.31933\include\list
; File C:\Program Files\Microsoft Visual Studio\2022\Community\VC\Tools\MSVC\14.34.31933\include\xhash
; File C:\Program Files\Microsoft Visual Studio\2022\Community\VC\Tools\MSVC\14.34.31933\include\list
; File C:\Program Files\Microsoft Visual Studio\2022\Community\VC\Tools\MSVC\14.34.31933\include\xhash
; File C:\Program Files\Microsoft Visual Studio\2022\Community\VC\Tools\MSVC\14.34.31933\include\list
; File C:\Program Files\Microsoft Visual Studio\2022\Community\VC\Tools\MSVC\14.34.31933\include\xhash
; File C:\Program Files\Microsoft Visual Studio\2022\Community\VC\Tools\MSVC\14.34.31933\include\list
; File C:\Program Files\Microsoft Visual Studio\2022\Community\VC\Tools\MSVC\14.34.31933\include\xhash
; File C:\Program Files\Microsoft Visual Studio\2022\Community\VC\Tools\MSVC\14.34.31933\include\list
; File C:\Program Files\Microsoft Visual Studio\2022\Community\VC\Tools\MSVC\14.34.31933\include\xhash
;	COMDAT ?_Forced_rehash@?$_Hash@V?$_Umap_traits@HV?$shared_ptr@VCWikiRenderTarget@@@std@@V?$_Uhash_compare@HU?$hash@H@std@@U?$equal_to@H@2@@2@V?$allocator@U?$pair@$$CBHV?$shared_ptr@VCWikiRenderTarget@@@std@@@std@@@2@$0A@@std@@@std@@IAEXI@Z
_TEXT	SEGMENT
__First_prev$1$ = -12					; size = 4
tv804 = -12						; size = 4
tv802 = -12						; size = 4
_this$1$ = -8						; size = 4
__Bucket_lo$1$ = -4					; size = 4
__End$1$ = 8						; size = 4
__Buckets$ = 8						; size = 4
?_Forced_rehash@?$_Hash@V?$_Umap_traits@HV?$shared_ptr@VCWikiRenderTarget@@@std@@V?$_Uhash_compare@HU?$hash@H@std@@U?$equal_to@H@2@@2@V?$allocator@U?$pair@$$CBHV?$shared_ptr@VCWikiRenderTarget@@@std@@@std@@@2@$0A@@std@@@std@@IAEXI@Z PROC ; std::_Hash<std::_Umap_traits<int,std::shared_ptr<CWikiRenderTarget>,std::_Uhash_compare<int,std::hash<int>,std::equal_to<int> >,std::allocator<std::pair<int const ,std::shared_ptr<CWikiRenderTarget> > >,0> >::_Forced_rehash, COMDAT
; _this$ = ecx

; 1707 :     void _Forced_rehash(size_type _Buckets) {

  00000	55		 push	 ebp
  00001	8b ec		 mov	 ebp, esp
  00003	83 ec 0c	 sub	 esp, 12			; 0000000cH

; 1716 :         if (_Buckets > _Max_storage_buckets) {

  00006	8b 55 08	 mov	 edx, DWORD PTR __Buckets$[ebp]
; File C:\Program Files\Microsoft Visual Studio\2022\Community\VC\Tools\MSVC\14.34.31933\include\xbit_ops.h

; 43   :     _BitScanReverse(&_Result, _Value);

  00009	b8 ff ff ff 1f	 mov	 eax, 536870911		; 1fffffffH
; File C:\Program Files\Microsoft Visual Studio\2022\Community\VC\Tools\MSVC\14.34.31933\include\xhash

; 1707 :     void _Forced_rehash(size_type _Buckets) {

  0000e	53		 push	 ebx
  0000f	8b d9		 mov	 ebx, ecx
; File C:\Program Files\Microsoft Visual Studio\2022\Community\VC\Tools\MSVC\14.34.31933\include\xbit_ops.h

; 43   :     _BitScanReverse(&_Result, _Value);

  00011	0f bd c8	 bsr	 ecx, eax
; File C:\Program Files\Microsoft Visual Studio\2022\Community\VC\Tools\MSVC\14.34.31933\include\xhash

; 1707 :     void _Forced_rehash(size_type _Buckets) {

  00014	56		 push	 esi

; 1708 :         // Force rehash of elements in _List, distrusting existing bucket assignments in _Vec.
; 1709 :         // Assumes _Buckets is greater than _Min_buckets, and that changing to that many buckets doesn't violate
; 1710 :         // load_factor() <= max_load_factor().
; 1711 : 
; 1712 :         // Don't violate power of 2, fits in half the bucket vector invariant:
; 1713 :         // (we assume because vector must use single allocations; as a result, its max_size fits in a size_t)
; 1714 :         const unsigned long _Max_storage_buckets_log2 = _Floor_of_log_2(static_cast<size_t>(_Vec.max_size() >> 1));
; 1715 :         const auto _Max_storage_buckets               = static_cast<size_type>(1) << _Max_storage_buckets_log2;

  00015	be 01 00 00 00	 mov	 esi, 1
  0001a	89 5d f8	 mov	 DWORD PTR _this$1$[ebp], ebx
  0001d	8b c6		 mov	 eax, esi
  0001f	d3 e0		 shl	 eax, cl
  00021	57		 push	 edi

; 1716 :         if (_Buckets > _Max_storage_buckets) {

  00022	3b d0		 cmp	 edx, eax
  00024	0f 87 0c 01 00
	00		 ja	 $LN108@Forced_reh
; File C:\Program Files\Microsoft Visual Studio\2022\Community\VC\Tools\MSVC\14.34.31933\include\xbit_ops.h

; 52   :     return 1 + _Floor_of_log_2(_Value - 1);

  0002a	8d 42 ff	 lea	 eax, DWORD PTR [edx-1]

; 25   :     _Value |= size_t{1}; // avoid undefined answer from _BitScanReverse for 0

  0002d	0b c6		 or	 eax, esi

; 43   :     _BitScanReverse(&_Result, _Value);

  0002f	0f bd c8	 bsr	 ecx, eax
; File C:\Program Files\Microsoft Visual Studio\2022\Community\VC\Tools\MSVC\14.34.31933\include\list

; 38   :     _List_unchecked_const_iterator(_Nodeptr _Pnode, const _Mylist* _Plist) noexcept : _Ptr(_Pnode) {

  00032	8b 43 04	 mov	 eax, DWORD PTR [ebx+4]
; File C:\Program Files\Microsoft Visual Studio\2022\Community\VC\Tools\MSVC\14.34.31933\include\xhash

; 1727 :         _Vec._Assign_grow(_Buckets << 1, _End);

  00035	50		 push	 eax
; File C:\Program Files\Microsoft Visual Studio\2022\Community\VC\Tools\MSVC\14.34.31933\include\list

; 38   :     _List_unchecked_const_iterator(_Nodeptr _Pnode, const _Mylist* _Plist) noexcept : _Ptr(_Pnode) {

  00036	89 45 08	 mov	 DWORD PTR __End$1$[ebp], eax
; File C:\Program Files\Microsoft Visual Studio\2022\Community\VC\Tools\MSVC\14.34.31933\include\xbit_ops.h

; 52   :     return 1 + _Floor_of_log_2(_Value - 1);

  00039	8d 49 01	 lea	 ecx, DWORD PTR [ecx+1]
; File C:\Program Files\Microsoft Visual Studio\2022\Community\VC\Tools\MSVC\14.34.31933\include\xhash

; 1724 :         _Buckets                       = static_cast<size_type>(1) << _Ceiling_of_log_2(static_cast<size_t>(_Buckets));

  0003c	d3 e6		 shl	 esi, cl

; 1727 :         _Vec._Assign_grow(_Buckets << 1, _End);

  0003e	8d 4b 0c	 lea	 ecx, DWORD PTR [ebx+12]
  00041	8d 04 36	 lea	 eax, DWORD PTR [esi+esi]
  00044	50		 push	 eax
  00045	e8 00 00 00 00	 call	 ?_Assign_grow@?$_Hash_vec@V?$allocator@V?$_List_unchecked_iterator@V?$_List_val@U?$_List_simple_types@U?$pair@$$CBHV?$shared_ptr@VCWikiRenderTarget@@@std@@@std@@@std@@@std@@@std@@@std@@@std@@QAEXIV?$_List_unchecked_iterator@V?$_List_val@U?$_List_simple_types@U?$pair@$$CBHV?$shared_ptr@VCWikiRenderTarget@@@std@@@std@@@std@@@std@@@2@@Z ; std::_Hash_vec<std::allocator<std::_List_unchecked_iterator<std::_List_val<std::_List_simple_types<std::pair<int const ,std::shared_ptr<CWikiRenderTarget> > > > > > >::_Assign_grow

; 1728 :         _Mask   = _Buckets - 1;

  0004a	8d 46 ff	 lea	 eax, DWORD PTR [esi-1]

; 1729 :         _Maxidx = _Buckets;

  0004d	89 73 1c	 mov	 DWORD PTR [ebx+28], esi
  00050	89 43 18	 mov	 DWORD PTR [ebx+24], eax
; File C:\Program Files\Microsoft Visual Studio\2022\Community\VC\Tools\MSVC\14.34.31933\include\list

; 1103 :         return _Unchecked_iterator(_Mypair._Myval2._Myhead->_Next, nullptr);

  00053	8b 73 04	 mov	 esi, DWORD PTR [ebx+4]

; 38   :     _List_unchecked_const_iterator(_Nodeptr _Pnode, const _Mylist* _Plist) noexcept : _Ptr(_Pnode) {

  00056	8b 36		 mov	 esi, DWORD PTR [esi]
; File C:\Program Files\Microsoft Visual Studio\2022\Community\VC\Tools\MSVC\14.34.31933\include\xhash

; 1736 :         for (_Unchecked_iterator _Next_inserted = _Inserted; _Inserted != _End; _Inserted = _Next_inserted) {

  00058	8b fe		 mov	 edi, esi
; File C:\Program Files\Microsoft Visual Studio\2022\Community\VC\Tools\MSVC\14.34.31933\include\list

; 73   :         return _Ptr == _Right._Ptr;

  0005a	3b 75 08	 cmp	 esi, DWORD PTR __End$1$[ebp]
; File C:\Program Files\Microsoft Visual Studio\2022\Community\VC\Tools\MSVC\14.34.31933\include\xhash

; 1736 :         for (_Unchecked_iterator _Next_inserted = _Inserted; _Inserted != _End; _Inserted = _Next_inserted) {

  0005d	0f 84 a6 00 00
	00		 je	 $LN3@Forced_reh
$LL4@Forced_reh:
; File C:\Program Files\Microsoft Visual Studio\2022\Community\VC\Tools\MSVC\14.34.31933\include\list

; 51   :         _Ptr = _Ptr->_Next;

  00063	8b 3f		 mov	 edi, DWORD PTR [edi]

; 43   :         return _Ptr->_Myval;

  00065	8d 5e 08	 lea	 ebx, DWORD PTR [esi+8]
; File C:\Program Files\Microsoft Visual Studio\2022\Community\VC\Tools\MSVC\14.34.31933\include\type_traits

; 2183 :         return _Hash_representation(_Keyval);

  00068	53		 push	 ebx
  00069	e8 00 00 00 00	 call	 ??$_Hash_representation@H@std@@YAIABH@Z ; std::_Hash_representation<int>
; File C:\Program Files\Microsoft Visual Studio\2022\Community\VC\Tools\MSVC\14.34.31933\include\xhash

; 854  :         return _Traitsobj(_Keyval) & _Mask;

  0006e	8b 4d f8	 mov	 ecx, DWORD PTR _this$1$[ebp]
; File C:\Program Files\Microsoft Visual Studio\2022\Community\VC\Tools\MSVC\14.34.31933\include\type_traits

; 2183 :         return _Hash_representation(_Keyval);

  00071	83 c4 04	 add	 esp, 4
; File C:\Program Files\Microsoft Visual Studio\2022\Community\VC\Tools\MSVC\14.34.31933\include\xhash

; 854  :         return _Traitsobj(_Keyval) & _Mask;

  00074	23 41 18	 and	 eax, DWORD PTR [ecx+24]

; 1744 :             _Unchecked_iterator& _Bucket_lo = _Vec._Mypair._Myval2._Myfirst[_Bucket << 1];

  00077	8b 49 0c	 mov	 ecx, DWORD PTR [ecx+12]
; File C:\Program Files\Microsoft Visual Studio\2022\Community\VC\Tools\MSVC\14.34.31933\include\list

; 73   :         return _Ptr == _Right._Ptr;

  0007a	8b 14 c1	 mov	 edx, DWORD PTR [ecx+eax*8]
; File C:\Program Files\Microsoft Visual Studio\2022\Community\VC\Tools\MSVC\14.34.31933\include\xhash

; 1744 :             _Unchecked_iterator& _Bucket_lo = _Vec._Mypair._Myval2._Myfirst[_Bucket << 1];

  0007d	8d 0c c1	 lea	 ecx, DWORD PTR [ecx+eax*8]
; File C:\Program Files\Microsoft Visual Studio\2022\Community\VC\Tools\MSVC\14.34.31933\include\list

; 73   :         return _Ptr == _Right._Ptr;

  00080	8b 45 08	 mov	 eax, DWORD PTR __End$1$[ebp]
; File C:\Program Files\Microsoft Visual Studio\2022\Community\VC\Tools\MSVC\14.34.31933\include\xhash

; 1744 :             _Unchecked_iterator& _Bucket_lo = _Vec._Mypair._Myval2._Myfirst[_Bucket << 1];

  00083	89 4d fc	 mov	 DWORD PTR __Bucket_lo$1$[ebp], ecx
; File C:\Program Files\Microsoft Visual Studio\2022\Community\VC\Tools\MSVC\14.34.31933\include\list

; 73   :         return _Ptr == _Right._Ptr;

  00086	3b d0		 cmp	 edx, eax
; File C:\Program Files\Microsoft Visual Studio\2022\Community\VC\Tools\MSVC\14.34.31933\include\xhash

; 1747 :             if (_Bucket_lo == _End) {

  00088	75 07		 jne	 SHORT $LN9@Forced_reh

; 1748 :                 // The bucket was empty, set it to the inserted element.
; 1749 :                 _Bucket_lo = _Inserted;

  0008a	89 31		 mov	 DWORD PTR [ecx], esi

; 1750 :                 _Bucket_hi = _Inserted;

  0008c	89 71 04	 mov	 DWORD PTR [ecx+4], esi

; 1751 :                 continue;

  0008f	eb 6e		 jmp	 SHORT $LN2@Forced_reh
$LN9@Forced_reh:

; 1752 :             }
; 1753 : 
; 1754 :             // Search the bucket for the insertion location and move element if necessary.
; 1755 :             _Unchecked_const_iterator _Insert_before = _Bucket_hi;

  00091	8b 49 04	 mov	 ecx, DWORD PTR [ecx+4]
; File C:\Program Files\Microsoft Visual Studio\2022\Community\VC\Tools\MSVC\14.34.31933\include\xstddef

; 107  :         return _Left == _Right;

  00094	8b 1b		 mov	 ebx, DWORD PTR [ebx]
  00096	3b 59 08	 cmp	 ebx, DWORD PTR [ecx+8]
; File C:\Program Files\Microsoft Visual Studio\2022\Community\VC\Tools\MSVC\14.34.31933\include\xhash

; 1756 :             if (!_Traitsobj(_Inserted_key, _Traits::_Kfn(*_Insert_before))) {

  00099	75 2f		 jne	 SHORT $LN10@Forced_reh
; File C:\Program Files\Microsoft Visual Studio\2022\Community\VC\Tools\MSVC\14.34.31933\include\list

; 51   :         _Ptr = _Ptr->_Next;

  0009b	8b 09		 mov	 ecx, DWORD PTR [ecx]
  0009d	89 4d f4	 mov	 DWORD PTR tv802[ebp], ecx
  000a0	3b ce		 cmp	 ecx, esi
; File C:\Program Files\Microsoft Visual Studio\2022\Community\VC\Tools\MSVC\14.34.31933\include\xhash

; 1760 :                 if (_Insert_before != _Inserted) { // avoid splice on element already in position

  000a2	74 1e		 je	 SHORT $LN105@Forced_reh
; File C:\Program Files\Microsoft Visual Studio\2022\Community\VC\Tools\MSVC\14.34.31933\include\list

; 475  :         const auto _First_prev  = _First->_Prev;

  000a4	8b 5e 04	 mov	 ebx, DWORD PTR [esi+4]

; 483  :         _Before->_Prev = _Last_prev;

  000a7	8b 45 f4	 mov	 eax, DWORD PTR tv802[ebp]
  000aa	89 3b		 mov	 DWORD PTR [ebx], edi
  000ac	8b 57 04	 mov	 edx, DWORD PTR [edi+4]
  000af	89 0a		 mov	 DWORD PTR [edx], ecx
  000b1	8b 49 04	 mov	 ecx, DWORD PTR [ecx+4]
  000b4	89 31		 mov	 DWORD PTR [ecx], esi
  000b6	89 50 04	 mov	 DWORD PTR [eax+4], edx
  000b9	8b 45 08	 mov	 eax, DWORD PTR __End$1$[ebp]

; 484  :         _Last->_Prev   = _First_prev;

  000bc	89 5f 04	 mov	 DWORD PTR [edi+4], ebx

; 485  :         _First->_Prev  = _Before_prev;

  000bf	89 4e 04	 mov	 DWORD PTR [esi+4], ecx
$LN105@Forced_reh:
; File C:\Program Files\Microsoft Visual Studio\2022\Community\VC\Tools\MSVC\14.34.31933\include\xhash

; 1764 :                 _Bucket_hi = _Inserted;

  000c2	8b 4d fc	 mov	 ecx, DWORD PTR __Bucket_lo$1$[ebp]
  000c5	89 71 04	 mov	 DWORD PTR [ecx+4], esi

; 1765 :                 continue;

  000c8	eb 35		 jmp	 SHORT $LN2@Forced_reh
$LN10@Forced_reh:
; File C:\Program Files\Microsoft Visual Studio\2022\Community\VC\Tools\MSVC\14.34.31933\include\list

; 73   :         return _Ptr == _Right._Ptr;

  000ca	3b d1		 cmp	 edx, ecx
; File C:\Program Files\Microsoft Visual Studio\2022\Community\VC\Tools\MSVC\14.34.31933\include\xhash

; 1771 :                 if (_Bucket_lo == _Insert_before) {

  000cc	74 0e		 je	 SHORT $LN98@Forced_reh
  000ce	66 90		 npad	 2
$LL5@Forced_reh:
; File C:\Program Files\Microsoft Visual Studio\2022\Community\VC\Tools\MSVC\14.34.31933\include\list

; 62   :         _Ptr = _Ptr->_Prev;

  000d0	8b 49 04	 mov	 ecx, DWORD PTR [ecx+4]
; File C:\Program Files\Microsoft Visual Studio\2022\Community\VC\Tools\MSVC\14.34.31933\include\xstddef

; 107  :         return _Left == _Right;

  000d3	3b 59 08	 cmp	 ebx, DWORD PTR [ecx+8]
; File C:\Program Files\Microsoft Visual Studio\2022\Community\VC\Tools\MSVC\14.34.31933\include\xhash

; 1781 :                 if (!_Traitsobj(_Inserted_key, _Traits::_Kfn(*--_Insert_before))) {

  000d6	74 3a		 je	 SHORT $LN99@Forced_reh
; File C:\Program Files\Microsoft Visual Studio\2022\Community\VC\Tools\MSVC\14.34.31933\include\list

; 73   :         return _Ptr == _Right._Ptr;

  000d8	3b d1		 cmp	 edx, ecx
; File C:\Program Files\Microsoft Visual Studio\2022\Community\VC\Tools\MSVC\14.34.31933\include\xhash

; 1771 :                 if (_Bucket_lo == _Insert_before) {

  000da	75 f4		 jne	 SHORT $LL5@Forced_reh
$LN98@Forced_reh:
; File C:\Program Files\Microsoft Visual Studio\2022\Community\VC\Tools\MSVC\14.34.31933\include\list

; 475  :         const auto _First_prev  = _First->_Prev;

  000dc	8b 56 04	 mov	 edx, DWORD PTR [esi+4]
  000df	89 55 f4	 mov	 DWORD PTR __First_prev$1$[ebp], edx

; 476  :         _First_prev->_Next      = _Last;

  000e2	89 3a		 mov	 DWORD PTR [edx], edi

; 477  :         const auto _Last_prev   = _Last->_Prev;

  000e4	8b 5f 04	 mov	 ebx, DWORD PTR [edi+4]

; 478  :         _Last_prev->_Next       = _Before;

  000e7	89 0b		 mov	 DWORD PTR [ebx], ecx

; 479  :         const auto _Before_prev = _Before->_Prev;

  000e9	8b 51 04	 mov	 edx, DWORD PTR [ecx+4]

; 480  :         _Before_prev->_Next     = _First;

  000ec	89 32		 mov	 DWORD PTR [edx], esi

; 483  :         _Before->_Prev = _Last_prev;

  000ee	89 59 04	 mov	 DWORD PTR [ecx+4], ebx

; 484  :         _Last->_Prev   = _First_prev;

  000f1	8b 4d f4	 mov	 ecx, DWORD PTR __First_prev$1$[ebp]
  000f4	89 4f 04	 mov	 DWORD PTR [edi+4], ecx
; File C:\Program Files\Microsoft Visual Studio\2022\Community\VC\Tools\MSVC\14.34.31933\include\xhash

; 1777 :                     _Bucket_lo = _Inserted;

  000f7	8b 4d fc	 mov	 ecx, DWORD PTR __Bucket_lo$1$[ebp]
; File C:\Program Files\Microsoft Visual Studio\2022\Community\VC\Tools\MSVC\14.34.31933\include\list

; 485  :         _First->_Prev  = _Before_prev;

  000fa	89 56 04	 mov	 DWORD PTR [esi+4], edx
; File C:\Program Files\Microsoft Visual Studio\2022\Community\VC\Tools\MSVC\14.34.31933\include\xhash

; 1777 :                     _Bucket_lo = _Inserted;

  000fd	89 31		 mov	 DWORD PTR [ecx], esi
$LN2@Forced_reh:

; 1736 :         for (_Unchecked_iterator _Next_inserted = _Inserted; _Inserted != _End; _Inserted = _Next_inserted) {

  000ff	8b f7		 mov	 esi, edi
; File C:\Program Files\Microsoft Visual Studio\2022\Community\VC\Tools\MSVC\14.34.31933\include\list

; 73   :         return _Ptr == _Right._Ptr;

  00101	3b f8		 cmp	 edi, eax
; File C:\Program Files\Microsoft Visual Studio\2022\Community\VC\Tools\MSVC\14.34.31933\include\xhash

; 1736 :         for (_Unchecked_iterator _Next_inserted = _Inserted; _Inserted != _End; _Inserted = _Next_inserted) {

  00103	0f 85 5a ff ff
	ff		 jne	 $LL4@Forced_reh
$LN3@Forced_reh:
  00109	5f		 pop	 edi

; 1787 :                     break;
; 1788 :                 }
; 1789 :             }
; 1790 :         }
; 1791 : 
; 1792 :         _Guard._Target = nullptr;
; 1793 : 
; 1794 : #ifdef _ENABLE_STL_INTERNAL_CHECK
; 1795 :         _Stl_internal_check_container_invariants();
; 1796 : #endif // _ENABLE_STL_INTERNAL_CHECK
; 1797 :     }

  0010a	5e		 pop	 esi
  0010b	5b		 pop	 ebx
  0010c	8b e5		 mov	 esp, ebp
  0010e	5d		 pop	 ebp
  0010f	c2 04 00	 ret	 4
$LN99@Forced_reh:
; File C:\Program Files\Microsoft Visual Studio\2022\Community\VC\Tools\MSVC\14.34.31933\include\list

; 475  :         const auto _First_prev  = _First->_Prev;

  00112	8b 5e 04	 mov	 ebx, DWORD PTR [esi+4]
; File C:\Program Files\Microsoft Visual Studio\2022\Community\VC\Tools\MSVC\14.34.31933\include\xhash

; 1786 :                     _Mylist::_Scary_val::_Unchecked_splice(_Insert_before._Ptr, _Inserted._Ptr, _Next_inserted._Ptr);

  00115	8b 09		 mov	 ecx, DWORD PTR [ecx]
  00117	89 4d f4	 mov	 DWORD PTR tv804[ebp], ecx
; File C:\Program Files\Microsoft Visual Studio\2022\Community\VC\Tools\MSVC\14.34.31933\include\list

; 483  :         _Before->_Prev = _Last_prev;

  0011a	8b c1		 mov	 eax, ecx
  0011c	89 3b		 mov	 DWORD PTR [ebx], edi
  0011e	8b 57 04	 mov	 edx, DWORD PTR [edi+4]
  00121	89 0a		 mov	 DWORD PTR [edx], ecx
  00123	8b 49 04	 mov	 ecx, DWORD PTR [ecx+4]
  00126	89 31		 mov	 DWORD PTR [ecx], esi
  00128	89 50 04	 mov	 DWORD PTR [eax+4], edx

; 485  :         _First->_Prev  = _Before_prev;

  0012b	8b 45 08	 mov	 eax, DWORD PTR __End$1$[ebp]
  0012e	89 5f 04	 mov	 DWORD PTR [edi+4], ebx
  00131	89 4e 04	 mov	 DWORD PTR [esi+4], ecx
  00134	eb c9		 jmp	 SHORT $LN2@Forced_reh
$LN108@Forced_reh:
; File C:\Program Files\Microsoft Visual Studio\2022\Community\VC\Tools\MSVC\14.34.31933\include\xhash

; 1717 :             _Xlength_error("invalid hash bucket count");

  00136	68 00 00 00 00	 push	 OFFSET ??_C@_0BK@OGNNAFAB@invalid?5hash?5bucket?5count@
  0013b	e8 00 00 00 00	 call	 ?_Xlength_error@std@@YAXPBD@Z ; std::_Xlength_error
$LN106@Forced_reh:
  00140	cc		 int	 3
?_Forced_rehash@?$_Hash@V?$_Umap_traits@HV?$shared_ptr@VCWikiRenderTarget@@@std@@V?$_Uhash_compare@HU?$hash@H@std@@U?$equal_to@H@2@@2@V?$allocator@U?$pair@$$CBHV?$shared_ptr@VCWikiRenderTarget@@@std@@@std@@@2@$0A@@std@@@std@@IAEXI@Z ENDP ; std::_Hash<std::_Umap_traits<int,std::shared_ptr<CWikiRenderTarget>,std::_Uhash_compare<int,std::hash<int>,std::equal_to<int> >,std::allocator<std::pair<int const ,std::shared_ptr<CWikiRenderTarget> > >,0> >::_Forced_rehash
_TEXT	ENDS
; Function compile flags: /Ogtp
; File C:\Program Files\Microsoft Visual Studio\2022\Community\VC\Tools\MSVC\14.34.31933\include\xhash
; File C:\Program Files\Microsoft Visual Studio\2022\Community\VC\Tools\MSVC\14.34.31933\include\list
; File C:\Program Files\Microsoft Visual Studio\2022\Community\VC\Tools\MSVC\14.34.31933\include\xhash
;	COMDAT ?clear@?$_Hash@V?$_Umap_traits@HV?$shared_ptr@VCWikiRenderTarget@@@std@@V?$_Uhash_compare@HU?$hash@H@std@@U?$equal_to@H@2@@2@V?$allocator@U?$pair@$$CBHV?$shared_ptr@VCWikiRenderTarget@@@std@@@std@@@2@$0A@@std@@@std@@QAEXXZ
_TEXT	SEGMENT
$T1 = -4						; size = 4
?clear@?$_Hash@V?$_Umap_traits@HV?$shared_ptr@VCWikiRenderTarget@@@std@@V?$_Uhash_compare@HU?$hash@H@std@@U?$equal_to@H@2@@2@V?$allocator@U?$pair@$$CBHV?$shared_ptr@VCWikiRenderTarget@@@std@@@std@@@2@$0A@@std@@@std@@QAEXXZ PROC ; std::_Hash<std::_Umap_traits<int,std::shared_ptr<CWikiRenderTarget>,std::_Uhash_compare<int,std::hash<int>,std::equal_to<int> >,std::allocator<std::pair<int const ,std::shared_ptr<CWikiRenderTarget> > >,0> >::clear, COMDAT
; _this$ = ecx

; 1149 :     void clear() noexcept {

  00000	55		 push	 ebp
  00001	8b ec		 mov	 ebp, esp
  00003	51		 push	 ecx
  00004	56		 push	 esi
  00005	8b f1		 mov	 esi, ecx

; 1150 :         // TRANSITION, ABI:
; 1151 :         // LWG-2550 requires implementations to make clear() O(size()), independent of bucket_count().
; 1152 :         // Unfortunately our current data structure / ABI does not allow achieving this in the general case because:
; 1153 :         //   (1) Finding the bucket that goes with an element requires running the hash function
; 1154 :         //   (2) The hash function operator() may throw exceptions, and
; 1155 :         //   (3) clear() is a noexcept function.
; 1156 :         // We do comply with LWG-2550 if the hash function is noexcept, or if the container was empty.
; 1157 :         const auto _Oldsize = _List._Mypair._Myval2._Mysize;

  00007	8b 4e 08	 mov	 ecx, DWORD PTR [esi+8]

; 1158 :         if (_Oldsize == 0) {

  0000a	85 c9		 test	 ecx, ecx
  0000c	74 50		 je	 SHORT $LN1@clear

; 1159 :             return;
; 1160 :         }
; 1161 : 
; 1162 :         if constexpr (_Nothrow_hash<_Traits, key_type>) {
; 1163 :             // In testing, hash<size_t>{}(size_t{}) takes about 14 times as much time as assigning a pointer, or
; 1164 :             // ~7-8 times as much as clearing a bucket. Therefore, if we would need to assign over more than 8 times
; 1165 :             // as many buckets as elements, remove element-by-element.
; 1166 :             if (bucket_count() / 8 > _Oldsize) {

  0000e	8b 46 1c	 mov	 eax, DWORD PTR [esi+28]
  00011	c1 e8 03	 shr	 eax, 3
  00014	57		 push	 edi
  00015	8d 7e 04	 lea	 edi, DWORD PTR [esi+4]
  00018	3b c1		 cmp	 eax, ecx
  0001a	76 12		 jbe	 SHORT $LN3@clear

; 1167 :                 const auto _Head = _List._Mypair._Myval2._Myhead;

  0001c	8b 07		 mov	 eax, DWORD PTR [edi]

; 1168 :                 _Unchecked_erase(_Head->_Next, _Head);

  0001e	8b ce		 mov	 ecx, esi
  00020	50		 push	 eax
  00021	ff 30		 push	 DWORD PTR [eax]
  00023	e8 00 00 00 00	 call	 ?_Unchecked_erase@?$_Hash@V?$_Umap_traits@HV?$shared_ptr@VCWikiRenderTarget@@@std@@V?$_Uhash_compare@HU?$hash@H@std@@U?$equal_to@H@2@@2@V?$allocator@U?$pair@$$CBHV?$shared_ptr@VCWikiRenderTarget@@@std@@@std@@@2@$0A@@std@@@std@@AAEPAU?$_List_node@U?$pair@$$CBHV?$shared_ptr@VCWikiRenderTarget@@@std@@@std@@PAX@2@PAU32@QAU32@@Z ; std::_Hash<std::_Umap_traits<int,std::shared_ptr<CWikiRenderTarget>,std::_Uhash_compare<int,std::hash<int>,std::equal_to<int> >,std::allocator<std::pair<int const ,std::shared_ptr<CWikiRenderTarget> > >,0> >::_Unchecked_erase
  00028	5f		 pop	 edi
  00029	5e		 pop	 esi

; 1176 :     }

  0002a	8b e5		 mov	 esp, ebp
  0002c	5d		 pop	 ebp
  0002d	c3		 ret	 0
$LN3@clear:
; File C:\Program Files\Microsoft Visual Studio\2022\Community\VC\Tools\MSVC\14.34.31933\include\list

; 1487 :         _Node::_Free_non_head(_Getal(), _My_data._Myhead);

  0002e	ff 37		 push	 DWORD PTR [edi]
  00030	57		 push	 edi
  00031	e8 00 00 00 00	 call	 ??$_Free_non_head@V?$allocator@U?$_List_node@U?$pair@$$CBHV?$shared_ptr@VCWikiRenderTarget@@@std@@@std@@PAX@std@@@std@@@?$_List_node@U?$pair@$$CBHV?$shared_ptr@VCWikiRenderTarget@@@std@@@std@@PAX@std@@SAXAAV?$allocator@U?$_List_node@U?$pair@$$CBHV?$shared_ptr@VCWikiRenderTarget@@@std@@@std@@PAX@std@@@1@PAU01@@Z ; std::_List_node<std::pair<int const ,std::shared_ptr<CWikiRenderTarget> >,void *>::_Free_non_head<std::allocator<std::_List_node<std::pair<int const ,std::shared_ptr<CWikiRenderTarget> >,void *> > >

; 1488 :         _My_data._Myhead->_Next = _My_data._Myhead;

  00036	8b 07		 mov	 eax, DWORD PTR [edi]
  00038	89 00		 mov	 DWORD PTR [eax], eax

; 1489 :         _My_data._Myhead->_Prev = _My_data._Myhead;

  0003a	8b 07		 mov	 eax, DWORD PTR [edi]
  0003c	89 40 04	 mov	 DWORD PTR [eax+4], eax

; 1490 :         _My_data._Mysize        = 0;

  0003f	c7 47 04 00 00
	00 00		 mov	 DWORD PTR [edi+4], 0

; 38   :     _List_unchecked_const_iterator(_Nodeptr _Pnode, const _Mylist* _Plist) noexcept : _Ptr(_Pnode) {

  00046	8b 07		 mov	 eax, DWORD PTR [edi]
  00048	89 45 fc	 mov	 DWORD PTR $T1[ebp], eax
; File C:\Program Files\Microsoft Visual Studio\2022\Community\VC\Tools\MSVC\14.34.31933\include\xhash

; 1175 :         _STD fill(_Vec._Mypair._Myval2._Myfirst, _Vec._Mypair._Myval2._Mylast, _Unchecked_end());

  0004b	8d 45 fc	 lea	 eax, DWORD PTR $T1[ebp]
  0004e	50		 push	 eax
  0004f	ff 76 10	 push	 DWORD PTR [esi+16]
  00052	ff 76 0c	 push	 DWORD PTR [esi+12]
  00055	e8 00 00 00 00	 call	 ??$fill@PAV?$_List_unchecked_iterator@V?$_List_val@U?$_List_simple_types@U?$pair@$$CBHV?$shared_ptr@VCWikiRenderTarget@@@std@@@std@@@std@@@std@@@std@@V12@@std@@YAXQAV?$_List_unchecked_iterator@V?$_List_val@U?$_List_simple_types@U?$pair@$$CBHV?$shared_ptr@VCWikiRenderTarget@@@std@@@std@@@std@@@std@@@0@0ABV10@@Z ; std::fill<std::_List_unchecked_iterator<std::_List_val<std::_List_simple_types<std::pair<int const ,std::shared_ptr<CWikiRenderTarget> > > > > *,std::_List_unchecked_iterator<std::_List_val<std::_List_simple_types<std::pair<int const ,std::shared_ptr<CWikiRenderTarget> > > > > >
  0005a	83 c4 14	 add	 esp, 20			; 00000014H
  0005d	5f		 pop	 edi
$LN1@clear:
  0005e	5e		 pop	 esi

; 1176 :     }

  0005f	8b e5		 mov	 esp, ebp
  00061	5d		 pop	 ebp
  00062	c3		 ret	 0
?clear@?$_Hash@V?$_Umap_traits@HV?$shared_ptr@VCWikiRenderTarget@@@std@@V?$_Uhash_compare@HU?$hash@H@std@@U?$equal_to@H@2@@2@V?$allocator@U?$pair@$$CBHV?$shared_ptr@VCWikiRenderTarget@@@std@@@std@@@2@$0A@@std@@@std@@QAEXXZ ENDP ; std::_Hash<std::_Umap_traits<int,std::shared_ptr<CWikiRenderTarget>,std::_Uhash_compare<int,std::hash<int>,std::equal_to<int> >,std::allocator<std::pair<int const ,std::shared_ptr<CWikiRenderTarget> > >,0> >::clear
_TEXT	ENDS
; Function compile flags: /Ogtp
; File C:\Program Files\Microsoft Visual Studio\2022\Community\VC\Tools\MSVC\14.34.31933\include\xhash
; File C:\Program Files\Microsoft Visual Studio\2022\Community\VC\Tools\MSVC\14.34.31933\include\type_traits
; File C:\Program Files\Microsoft Visual Studio\2022\Community\VC\Tools\MSVC\14.34.31933\include\xhash
; File C:\Program Files\Microsoft Visual Studio\2022\Community\VC\Tools\MSVC\14.34.31933\include\type_traits
; File C:\Program Files\Microsoft Visual Studio\2022\Community\VC\Tools\MSVC\14.34.31933\include\xhash
; File C:\Program Files\Microsoft Visual Studio\2022\Community\VC\Tools\MSVC\14.34.31933\include\type_traits
; File C:\Program Files\Microsoft Visual Studio\2022\Community\VC\Tools\MSVC\14.34.31933\include\xhash
; File C:\Program Files\Microsoft Visual Studio\2022\Community\VC\Tools\MSVC\14.34.31933\include\memory
; File C:\Program Files\Microsoft Visual Studio\2022\Community\VC\Tools\MSVC\14.34.31933\include\xmemory
; File C:\Program Files\Microsoft Visual Studio\2022\Community\VC\Tools\MSVC\14.34.31933\include\xhash
; File C:\Program Files\Microsoft Visual Studio\2022\Community\VC\Tools\MSVC\14.34.31933\include\xmemory
; File C:\Program Files\Microsoft Visual Studio\2022\Community\VC\Tools\MSVC\14.34.31933\include\xhash
; File C:\Program Files\Microsoft Visual Studio\2022\Community\VC\Tools\MSVC\14.34.31933\include\type_traits
; File C:\Program Files\Microsoft Visual Studio\2022\Community\VC\Tools\MSVC\14.34.31933\include\xhash
; File C:\Program Files\Microsoft Visual Studio\2022\Community\VC\Tools\MSVC\14.34.31933\include\type_traits
; File C:\Program Files\Microsoft Visual Studio\2022\Community\VC\Tools\MSVC\14.34.31933\include\xhash
; File C:\Program Files\Microsoft Visual Studio\2022\Community\VC\Tools\MSVC\14.34.31933\include\memory
; File C:\Program Files\Microsoft Visual Studio\2022\Community\VC\Tools\MSVC\14.34.31933\include\xmemory
; File C:\Program Files\Microsoft Visual Studio\2022\Community\VC\Tools\MSVC\14.34.31933\include\xhash
; File C:\Program Files\Microsoft Visual Studio\2022\Community\VC\Tools\MSVC\14.34.31933\include\xmemory
; File C:\Program Files\Microsoft Visual Studio\2022\Community\VC\Tools\MSVC\14.34.31933\include\xhash
;	COMDAT ?_Unchecked_erase@?$_Hash@V?$_Umap_traits@HV?$shared_ptr@VCWikiRenderTarget@@@std@@V?$_Uhash_compare@HU?$hash@H@std@@U?$equal_to@H@2@@2@V?$allocator@U?$pair@$$CBHV?$shared_ptr@VCWikiRenderTarget@@@std@@@std@@@2@$0A@@std@@@std@@AAEPAU?$_List_node@U?$pair@$$CBHV?$shared_ptr@VCWikiRenderTarget@@@std@@@std@@PAX@2@PAU32@QAU32@@Z
_TEXT	SEGMENT
_this$1$ = -40						; size = 4
tv648 = -36						; size = 4
tv644 = -36						; size = 4
tv649 = -32						; size = 4
tv645 = -32						; size = 4
__Oldnext$1$ = -28					; size = 4
_this$1$ = -24						; size = 4
__End$1$ = -20						; size = 4
__Bucket_bounds$1$ = -16				; size = 4
tv647 = -12						; size = 4
__Bucket_lo$1$ = -8					; size = 4
__Eraser$$sroa$183$1$ = -4				; size = 4
__Bucket_lo$1$ = 8					; size = 4
__First$ = 8						; size = 4
__Last$ = 12						; size = 4
?_Unchecked_erase@?$_Hash@V?$_Umap_traits@HV?$shared_ptr@VCWikiRenderTarget@@@std@@V?$_Uhash_compare@HU?$hash@H@std@@U?$equal_to@H@2@@2@V?$allocator@U?$pair@$$CBHV?$shared_ptr@VCWikiRenderTarget@@@std@@@std@@@2@$0A@@std@@@std@@AAEPAU?$_List_node@U?$pair@$$CBHV?$shared_ptr@VCWikiRenderTarget@@@std@@@std@@PAX@2@PAU32@QAU32@@Z PROC ; std::_Hash<std::_Umap_traits<int,std::shared_ptr<CWikiRenderTarget>,std::_Uhash_compare<int,std::hash<int>,std::equal_to<int> >,std::allocator<std::pair<int const ,std::shared_ptr<CWikiRenderTarget> > >,0> >::_Unchecked_erase, COMDAT
; _this$ = ecx

; 1025 :     _Nodeptr _Unchecked_erase(_Nodeptr _First, const _Nodeptr _Last) noexcept(_Nothrow_hash<_Traits, key_type>) {

  00000	55		 push	 ebp
  00001	8b ec		 mov	 ebp, esp
  00003	83 ec 28	 sub	 esp, 40			; 00000028H

; 1026 :         if (_First == _Last) {

  00006	8b 45 08	 mov	 eax, DWORD PTR __First$[ebp]
  00009	53		 push	 ebx
  0000a	57		 push	 edi
  0000b	8b 7d 0c	 mov	 edi, DWORD PTR __Last$[ebp]
  0000e	8b d9		 mov	 ebx, ecx
  00010	89 5d d8	 mov	 DWORD PTR _this$1$[ebp], ebx
  00013	3b c7		 cmp	 eax, edi
  00015	75 0a		 jne	 SHORT $LN10@Unchecked_

; 1027 :             return _Last;

  00017	8b c7		 mov	 eax, edi
  00019	5f		 pop	 edi

; 1095 :     }

  0001a	5b		 pop	 ebx
  0001b	8b e5		 mov	 esp, ebp
  0001d	5d		 pop	 ebp
  0001e	c2 08 00	 ret	 8
$LN10@Unchecked_:

; 1028 :         }
; 1029 : 
; 1030 :         const auto _End           = _List._Mypair._Myval2._Myhead;

  00021	8b 4b 04	 mov	 ecx, DWORD PTR [ebx+4]
  00024	89 4d ec	 mov	 DWORD PTR __End$1$[ebp], ecx

; 1031 :         const auto _Bucket_bounds = _Vec._Mypair._Myval2._Myfirst;

  00027	8b 4b 0c	 mov	 ecx, DWORD PTR [ebx+12]
  0002a	56		 push	 esi
  0002b	89 4d f0	 mov	 DWORD PTR __Bucket_bounds$1$[ebp], ecx

; 1005 :             : _List(_List_), _Predecessor(_First_->_Prev), _Next(_First_) {}

  0002e	8b f0		 mov	 esi, eax
  00030	8b 48 04	 mov	 ecx, DWORD PTR [eax+4]

; 1032 :         _Range_eraser _Eraser{_List, _First};
; 1033 :         {
; 1034 :             // process the first bucket, which is special because here _First might not be the beginning of the bucket
; 1035 :             const auto _Predecessor = _First->_Prev;
; 1036 :             const size_type _Bucket = bucket(_Traits::_Kfn(_Eraser._Next->_Myval)); // throws

  00033	83 c0 08	 add	 eax, 8
; File C:\Program Files\Microsoft Visual Studio\2022\Community\VC\Tools\MSVC\14.34.31933\include\type_traits

; 2183 :         return _Hash_representation(_Keyval);

  00036	50		 push	 eax
; File C:\Program Files\Microsoft Visual Studio\2022\Community\VC\Tools\MSVC\14.34.31933\include\xhash

; 1005 :             : _List(_List_), _Predecessor(_First_->_Prev), _Next(_First_) {}

  00037	89 4d fc	 mov	 DWORD PTR __Eraser$$sroa$183$1$[ebp], ecx
; File C:\Program Files\Microsoft Visual Studio\2022\Community\VC\Tools\MSVC\14.34.31933\include\type_traits

; 2183 :         return _Hash_representation(_Keyval);

  0003a	e8 00 00 00 00	 call	 ??$_Hash_representation@H@std@@YAIABH@Z ; std::_Hash_representation<int>
; File C:\Program Files\Microsoft Visual Studio\2022\Community\VC\Tools\MSVC\14.34.31933\include\xhash

; 1038 :             _Nodeptr& _Bucket_lo   = _Bucket_bounds[_Bucket << 1]._Ptr;

  0003f	8b 4d f0	 mov	 ecx, DWORD PTR __Bucket_bounds$1$[ebp]
; File C:\Program Files\Microsoft Visual Studio\2022\Community\VC\Tools\MSVC\14.34.31933\include\type_traits

; 2183 :         return _Hash_representation(_Keyval);

  00042	83 c4 04	 add	 esp, 4
; File C:\Program Files\Microsoft Visual Studio\2022\Community\VC\Tools\MSVC\14.34.31933\include\xhash

; 854  :         return _Traitsobj(_Keyval) & _Mask;

  00045	23 43 18	 and	 eax, DWORD PTR [ebx+24]

; 1038 :             _Nodeptr& _Bucket_lo   = _Bucket_bounds[_Bucket << 1]._Ptr;

  00048	8d 04 c1	 lea	 eax, DWORD PTR [ecx+eax*8]

; 1039 :             _Nodeptr& _Bucket_hi   = _Bucket_bounds[(_Bucket << 1) + 1]._Ptr;
; 1040 :             const bool _Update_lo  = _Bucket_lo == _Eraser._Next;

  0004b	8b 08		 mov	 ecx, DWORD PTR [eax]
  0004d	89 45 f8	 mov	 DWORD PTR __Bucket_lo$1$[ebp], eax

; 1041 :             const _Nodeptr _Old_hi = _Bucket_hi;

  00050	8b 40 04	 mov	 eax, DWORD PTR [eax+4]
  00053	89 4d f4	 mov	 DWORD PTR tv647[ebp], ecx
  00056	89 45 e0	 mov	 DWORD PTR tv645[ebp], eax
  00059	0f 1f 80 00 00
	00 00		 npad	 7
$LL2@Unchecked_:

; 1008 :             const auto _Oldnext = _Next;

  00060	8b ce		 mov	 ecx, esi

; 1042 :             for (;;) { // remove elements until we hit the end of the bucket
; 1043 :                 const bool _At_bucket_back = _Eraser._Next == _Old_hi;

  00062	89 75 dc	 mov	 DWORD PTR tv648[ebp], esi

; 1009 :             _Next               = _Oldnext->_Next;

  00065	8b 36		 mov	 esi, DWORD PTR [esi]
  00067	89 4d e4	 mov	 DWORD PTR __Oldnext$1$[ebp], ecx
; File C:\Program Files\Microsoft Visual Studio\2022\Community\VC\Tools\MSVC\14.34.31933\include\memory

; 1334 :         if (_Rep) {

  0006a	8b 49 10	 mov	 ecx, DWORD PTR [ecx+16]
  0006d	89 4d e8	 mov	 DWORD PTR _this$1$[ebp], ecx
  00070	85 c9		 test	 ecx, ecx
  00072	74 20		 je	 SHORT $LN98@Unchecked_

; 1109 :         if (_MT_DECR(_Uses) == 0) {

  00074	83 c8 ff	 or	 eax, -1
  00077	f0 0f c1 41 04	 lock	  xadd	 DWORD PTR [ecx+4], eax
  0007c	75 16		 jne	 SHORT $LN98@Unchecked_

; 1110 :             _Destroy();

  0007e	8b 01		 mov	 eax, DWORD PTR [ecx]
  00080	ff 10		 call	 DWORD PTR [eax]

; 1116 :         if (_MT_DECR(_Weaks) == 0) {

  00082	8b 4d e8	 mov	 ecx, DWORD PTR _this$1$[ebp]
  00085	83 c8 ff	 or	 eax, -1
  00088	f0 0f c1 41 08	 lock	  xadd	 DWORD PTR [ecx+8], eax
  0008d	75 05		 jne	 SHORT $LN98@Unchecked_

; 1117 :             _Delete_this();

  0008f	8b 01		 mov	 eax, DWORD PTR [ecx]
  00091	ff 50 04	 call	 DWORD PTR [eax+4]
$LN98@Unchecked_:
; File C:\Program Files\Microsoft Visual Studio\2022\Community\VC\Tools\MSVC\14.34.31933\include\xmemory

; 255  :         ::operator delete(_Ptr, _Bytes);

  00094	6a 14		 push	 20			; 00000014H
  00096	ff 75 e4	 push	 DWORD PTR __Oldnext$1$[ebp]
  00099	e8 00 00 00 00	 call	 ??3@YAXPAXI@Z		; operator delete
; File C:\Program Files\Microsoft Visual Studio\2022\Community\VC\Tools\MSVC\14.34.31933\include\xhash

; 1011 :             --_List._Mypair._Myval2._Mysize;

  0009e	ff 4b 08	 dec	 DWORD PTR [ebx+8]
; File C:\Program Files\Microsoft Visual Studio\2022\Community\VC\Tools\MSVC\14.34.31933\include\xmemory

; 255  :         ::operator delete(_Ptr, _Bytes);

  000a1	83 c4 08	 add	 esp, 8
; File C:\Program Files\Microsoft Visual Studio\2022\Community\VC\Tools\MSVC\14.34.31933\include\xhash

; 1045 :                 if (_At_bucket_back) {

  000a4	8b 45 e0	 mov	 eax, DWORD PTR tv645[ebp]
  000a7	39 45 dc	 cmp	 DWORD PTR tv648[ebp], eax
  000aa	74 24		 je	 SHORT $LN139@Unchecked_

; 1046 :                     break;
; 1047 :                 }
; 1048 : 
; 1049 :                 if (_Eraser._Next == _Last) {

  000ac	3b f7		 cmp	 esi, edi
  000ae	75 b0		 jne	 SHORT $LL2@Unchecked_

; 1050 :                     if (_Update_lo) {

  000b0	8b 45 f4	 mov	 eax, DWORD PTR tv647[ebp]
  000b3	3b 45 08	 cmp	 eax, DWORD PTR __First$[ebp]
  000b6	75 05		 jne	 SHORT $LN149@Unchecked_

; 1051 :                         // erased the bucket's prefix
; 1052 :                         _Bucket_lo = _Eraser._Next;

  000b8	8b 4d f8	 mov	 ecx, DWORD PTR __Bucket_lo$1$[ebp]
  000bb	89 31		 mov	 DWORD PTR [ecx], esi
$LN149@Unchecked_:

; 1015 :             _Predecessor->_Next = _Next;

  000bd	8b 45 fc	 mov	 eax, DWORD PTR __Eraser$$sroa$183$1$[ebp]
  000c0	89 30		 mov	 DWORD PTR [eax], esi

; 1016 :             _Next->_Prev        = _Predecessor;

  000c2	89 46 04	 mov	 DWORD PTR [esi+4], eax

; 1092 :         }
; 1093 : 
; 1094 :         return _Last;

  000c5	8b c7		 mov	 eax, edi
  000c7	5e		 pop	 esi
  000c8	5f		 pop	 edi

; 1095 :     }

  000c9	5b		 pop	 ebx
  000ca	8b e5		 mov	 esp, ebp
  000cc	5d		 pop	 ebp
  000cd	c2 08 00	 ret	 8
$LN139@Unchecked_:

; 1053 :                     }
; 1054 : 
; 1055 :                     return _Last;
; 1056 :                 }
; 1057 :             }
; 1058 : 
; 1059 :             if (_Update_lo) {

  000d0	8b 45 f4	 mov	 eax, DWORD PTR tv647[ebp]
  000d3	8b 4d f8	 mov	 ecx, DWORD PTR __Bucket_lo$1$[ebp]
  000d6	3b 45 08	 cmp	 eax, DWORD PTR __First$[ebp]
  000d9	75 07		 jne	 SHORT $LN14@Unchecked_

; 1060 :                 // emptied the bucket
; 1061 :                 _Bucket_lo = _End;

  000db	8b 45 ec	 mov	 eax, DWORD PTR __End$1$[ebp]
  000de	89 01		 mov	 DWORD PTR [ecx], eax

; 1062 :                 _Bucket_hi = _End;
; 1063 :             } else {

  000e0	eb 03		 jmp	 SHORT $LN136@Unchecked_
$LN14@Unchecked_:

; 1064 :                 _Bucket_hi = _Predecessor;

  000e2	8b 45 fc	 mov	 eax, DWORD PTR __Eraser$$sroa$183$1$[ebp]
$LN136@Unchecked_:

; 1065 :             }
; 1066 :         }
; 1067 : 
; 1068 :         // hereafter we are always erasing buckets' prefixes
; 1069 :         while (_Eraser._Next != _Last) {

  000e5	89 41 04	 mov	 DWORD PTR [ecx+4], eax
  000e8	3b f7		 cmp	 esi, edi
  000ea	74 d1		 je	 SHORT $LN149@Unchecked_
  000ec	0f 1f 40 00	 npad	 4
$LL5@Unchecked_:

; 1070 :             const size_type _Bucket = bucket(_Traits::_Kfn(_Eraser._Next->_Myval)); // throws

  000f0	8d 46 08	 lea	 eax, DWORD PTR [esi+8]
; File C:\Program Files\Microsoft Visual Studio\2022\Community\VC\Tools\MSVC\14.34.31933\include\type_traits

; 2183 :         return _Hash_representation(_Keyval);

  000f3	50		 push	 eax
  000f4	e8 00 00 00 00	 call	 ??$_Hash_representation@H@std@@YAIABH@Z ; std::_Hash_representation<int>
; File C:\Program Files\Microsoft Visual Studio\2022\Community\VC\Tools\MSVC\14.34.31933\include\xhash

; 1072 :             _Nodeptr& _Bucket_lo   = _Bucket_bounds[_Bucket << 1]._Ptr;

  000f9	8b 4d f0	 mov	 ecx, DWORD PTR __Bucket_bounds$1$[ebp]
; File C:\Program Files\Microsoft Visual Studio\2022\Community\VC\Tools\MSVC\14.34.31933\include\type_traits

; 2183 :         return _Hash_representation(_Keyval);

  000fc	83 c4 04	 add	 esp, 4
; File C:\Program Files\Microsoft Visual Studio\2022\Community\VC\Tools\MSVC\14.34.31933\include\xhash

; 854  :         return _Traitsobj(_Keyval) & _Mask;

  000ff	23 43 18	 and	 eax, DWORD PTR [ebx+24]

; 1072 :             _Nodeptr& _Bucket_lo   = _Bucket_bounds[_Bucket << 1]._Ptr;

  00102	8d 04 c1	 lea	 eax, DWORD PTR [ecx+eax*8]
  00105	89 45 08	 mov	 DWORD PTR __Bucket_lo$1$[ebp], eax

; 1073 :             _Nodeptr& _Bucket_hi   = _Bucket_bounds[(_Bucket << 1) + 1]._Ptr;
; 1074 :             const _Nodeptr _Old_hi = _Bucket_hi;

  00108	8b 40 04	 mov	 eax, DWORD PTR [eax+4]
  0010b	89 45 dc	 mov	 DWORD PTR tv644[ebp], eax
  0010e	66 90		 npad	 2
$LL7@Unchecked_:

; 1008 :             const auto _Oldnext = _Next;

  00110	8b de		 mov	 ebx, esi

; 1075 :             for (;;) { // remove elements until we hit the end of the bucket
; 1076 :                 const bool _At_bucket_back = _Eraser._Next == _Old_hi;

  00112	89 75 e0	 mov	 DWORD PTR tv649[ebp], esi

; 1009 :             _Next               = _Oldnext->_Next;

  00115	8b 36		 mov	 esi, DWORD PTR [esi]
; File C:\Program Files\Microsoft Visual Studio\2022\Community\VC\Tools\MSVC\14.34.31933\include\memory

; 1334 :         if (_Rep) {

  00117	8b 7b 10	 mov	 edi, DWORD PTR [ebx+16]
  0011a	85 ff		 test	 edi, edi
  0011c	74 21		 je	 SHORT $LN40@Unchecked_

; 1109 :         if (_MT_DECR(_Uses) == 0) {

  0011e	83 c8 ff	 or	 eax, -1
  00121	f0 0f c1 47 04	 lock	  xadd	 DWORD PTR [edi+4], eax
  00126	75 17		 jne	 SHORT $LN40@Unchecked_

; 1110 :             _Destroy();

  00128	8b 07		 mov	 eax, DWORD PTR [edi]
  0012a	8b cf		 mov	 ecx, edi
  0012c	ff 10		 call	 DWORD PTR [eax]

; 1116 :         if (_MT_DECR(_Weaks) == 0) {

  0012e	83 c8 ff	 or	 eax, -1
  00131	f0 0f c1 47 08	 lock	  xadd	 DWORD PTR [edi+8], eax
  00136	75 07		 jne	 SHORT $LN40@Unchecked_

; 1117 :             _Delete_this();

  00138	8b 07		 mov	 eax, DWORD PTR [edi]
  0013a	8b cf		 mov	 ecx, edi
  0013c	ff 50 04	 call	 DWORD PTR [eax+4]
$LN40@Unchecked_:
; File C:\Program Files\Microsoft Visual Studio\2022\Community\VC\Tools\MSVC\14.34.31933\include\xmemory

; 255  :         ::operator delete(_Ptr, _Bytes);

  0013f	6a 14		 push	 20			; 00000014H
  00141	53		 push	 ebx
  00142	e8 00 00 00 00	 call	 ??3@YAXPAXI@Z		; operator delete
; File C:\Program Files\Microsoft Visual Studio\2022\Community\VC\Tools\MSVC\14.34.31933\include\xhash

; 1011 :             --_List._Mypair._Myval2._Mysize;

  00147	8b 5d d8	 mov	 ebx, DWORD PTR _this$1$[ebp]
; File C:\Program Files\Microsoft Visual Studio\2022\Community\VC\Tools\MSVC\14.34.31933\include\xmemory

; 255  :         ::operator delete(_Ptr, _Bytes);

  0014a	83 c4 08	 add	 esp, 8
; File C:\Program Files\Microsoft Visual Studio\2022\Community\VC\Tools\MSVC\14.34.31933\include\xhash

; 1078 :                 if (_At_bucket_back) {

  0014d	8b 45 dc	 mov	 eax, DWORD PTR tv644[ebp]

; 1011 :             --_List._Mypair._Myval2._Mysize;

  00150	ff 4b 08	 dec	 DWORD PTR [ebx+8]

; 1078 :                 if (_At_bucket_back) {

  00153	39 45 e0	 cmp	 DWORD PTR tv649[ebp], eax
  00156	74 1d		 je	 SHORT $LN141@Unchecked_

; 1079 :                     break;
; 1080 :                 }
; 1081 : 
; 1082 :                 if (_Eraser._Next == _Last) {

  00158	8b 45 0c	 mov	 eax, DWORD PTR __Last$[ebp]
  0015b	3b f0		 cmp	 esi, eax
  0015d	75 b1		 jne	 SHORT $LL7@Unchecked_

; 1083 :                     // erased the bucket's prefix
; 1084 :                     _Bucket_lo = _Eraser._Next;

  0015f	8b 4d 08	 mov	 ecx, DWORD PTR __Bucket_lo$1$[ebp]
  00162	89 31		 mov	 DWORD PTR [ecx], esi

; 1015 :             _Predecessor->_Next = _Next;

  00164	8b 4d fc	 mov	 ecx, DWORD PTR __Eraser$$sroa$183$1$[ebp]
  00167	89 31		 mov	 DWORD PTR [ecx], esi

; 1016 :             _Next->_Prev        = _Predecessor;

  00169	89 4e 04	 mov	 DWORD PTR [esi+4], ecx
  0016c	5e		 pop	 esi
  0016d	5f		 pop	 edi

; 1095 :     }

  0016e	5b		 pop	 ebx
  0016f	8b e5		 mov	 esp, ebp
  00171	5d		 pop	 ebp
  00172	c2 08 00	 ret	 8
$LN141@Unchecked_:

; 1085 :                     return _Last;
; 1086 :                 }
; 1087 :             }
; 1088 : 
; 1089 :             // emptied the bucket
; 1090 :             _Bucket_lo = _End;

  00175	8b 4d 08	 mov	 ecx, DWORD PTR __Bucket_lo$1$[ebp]
  00178	8b 45 ec	 mov	 eax, DWORD PTR __End$1$[ebp]
  0017b	8b 7d 0c	 mov	 edi, DWORD PTR __Last$[ebp]
  0017e	89 01		 mov	 DWORD PTR [ecx], eax

; 1091 :             _Bucket_hi = _End;

  00180	89 41 04	 mov	 DWORD PTR [ecx+4], eax
  00183	3b f7		 cmp	 esi, edi
  00185	0f 85 65 ff ff
	ff		 jne	 $LL5@Unchecked_

; 1015 :             _Predecessor->_Next = _Next;

  0018b	8b 45 fc	 mov	 eax, DWORD PTR __Eraser$$sroa$183$1$[ebp]
  0018e	89 30		 mov	 DWORD PTR [eax], esi

; 1016 :             _Next->_Prev        = _Predecessor;

  00190	89 46 04	 mov	 DWORD PTR [esi+4], eax

; 1092 :         }
; 1093 : 
; 1094 :         return _Last;

  00193	8b c7		 mov	 eax, edi
  00195	5e		 pop	 esi
  00196	5f		 pop	 edi

; 1095 :     }

  00197	5b		 pop	 ebx
  00198	8b e5		 mov	 esp, ebp
  0019a	5d		 pop	 ebp
  0019b	c2 08 00	 ret	 8
?_Unchecked_erase@?$_Hash@V?$_Umap_traits@HV?$shared_ptr@VCWikiRenderTarget@@@std@@V?$_Uhash_compare@HU?$hash@H@std@@U?$equal_to@H@2@@2@V?$allocator@U?$pair@$$CBHV?$shared_ptr@VCWikiRenderTarget@@@std@@@std@@@2@$0A@@std@@@std@@AAEPAU?$_List_node@U?$pair@$$CBHV?$shared_ptr@VCWikiRenderTarget@@@std@@@std@@PAX@2@PAU32@QAU32@@Z ENDP ; std::_Hash<std::_Umap_traits<int,std::shared_ptr<CWikiRenderTarget>,std::_Uhash_compare<int,std::hash<int>,std::equal_to<int> >,std::allocator<std::pair<int const ,std::shared_ptr<CWikiRenderTarget> > >,0> >::_Unchecked_erase
_TEXT	ENDS
; Function compile flags: /Ogtp
; File C:\Program Files\Microsoft Visual Studio\2022\Community\VC\Tools\MSVC\14.34.31933\include\list
; File C:\Program Files\Microsoft Visual Studio\2022\Community\VC\Tools\MSVC\14.34.31933\include\xmemory
; File C:\Program Files\Microsoft Visual Studio\2022\Community\VC\Tools\MSVC\14.34.31933\include\list
;	COMDAT ??1?$list@U?$pair@$$CBHV?$shared_ptr@VCWikiRenderTarget@@@std@@@std@@V?$allocator@U?$pair@$$CBHV?$shared_ptr@VCWikiRenderTarget@@@std@@@std@@@2@@std@@QAE@XZ
_TEXT	SEGMENT
??1?$list@U?$pair@$$CBHV?$shared_ptr@VCWikiRenderTarget@@@std@@@std@@V?$allocator@U?$pair@$$CBHV?$shared_ptr@VCWikiRenderTarget@@@std@@@std@@@2@@std@@QAE@XZ PROC ; std::list<std::pair<int const ,std::shared_ptr<CWikiRenderTarget> >,std::allocator<std::pair<int const ,std::shared_ptr<CWikiRenderTarget> > > >::~list<std::pair<int const ,std::shared_ptr<CWikiRenderTarget> >,std::allocator<std::pair<int const ,std::shared_ptr<CWikiRenderTarget> > > >, COMDAT
; _this$ = ecx

; 1042 :     ~list() noexcept {

  00000	56		 push	 esi
  00001	8b f1		 mov	 esi, ecx

; 1498 :         _Node::_Free_non_head(_Al, _My_data._Myhead);

  00003	ff 36		 push	 DWORD PTR [esi]
  00005	56		 push	 esi
  00006	e8 00 00 00 00	 call	 ??$_Free_non_head@V?$allocator@U?$_List_node@U?$pair@$$CBHV?$shared_ptr@VCWikiRenderTarget@@@std@@@std@@PAX@std@@@std@@@?$_List_node@U?$pair@$$CBHV?$shared_ptr@VCWikiRenderTarget@@@std@@@std@@PAX@std@@SAXAAV?$allocator@U?$_List_node@U?$pair@$$CBHV?$shared_ptr@VCWikiRenderTarget@@@std@@@std@@PAX@std@@@1@PAU01@@Z ; std::_List_node<std::pair<int const ,std::shared_ptr<CWikiRenderTarget> >,void *>::_Free_non_head<std::allocator<std::_List_node<std::pair<int const ,std::shared_ptr<CWikiRenderTarget> >,void *> > >
; File C:\Program Files\Microsoft Visual Studio\2022\Community\VC\Tools\MSVC\14.34.31933\include\xmemory

; 255  :         ::operator delete(_Ptr, _Bytes);

  0000b	6a 14		 push	 20			; 00000014H
  0000d	ff 36		 push	 DWORD PTR [esi]
  0000f	e8 00 00 00 00	 call	 ??3@YAXPAXI@Z		; operator delete
  00014	83 c4 10	 add	 esp, 16			; 00000010H
  00017	5e		 pop	 esi
; File C:\Program Files\Microsoft Visual Studio\2022\Community\VC\Tools\MSVC\14.34.31933\include\list

; 1048 :     }

  00018	c3		 ret	 0
??1?$list@U?$pair@$$CBHV?$shared_ptr@VCWikiRenderTarget@@@std@@@std@@V?$allocator@U?$pair@$$CBHV?$shared_ptr@VCWikiRenderTarget@@@std@@@std@@@2@@std@@QAE@XZ ENDP ; std::list<std::pair<int const ,std::shared_ptr<CWikiRenderTarget> >,std::allocator<std::pair<int const ,std::shared_ptr<CWikiRenderTarget> > > >::~list<std::pair<int const ,std::shared_ptr<CWikiRenderTarget> >,std::allocator<std::pair<int const ,std::shared_ptr<CWikiRenderTarget> > > >
_TEXT	ENDS
; Function compile flags: /Ogtp
; File C:\Users\flourine\Desktop\Xantios\client-src\Code\EterLib\CWikiRenderTargetManager.cpp
; File C:\Program Files\Microsoft Visual Studio\2022\Community\VC\Tools\MSVC\14.34.31933\include\list
; File C:\Users\flourine\Desktop\Xantios\client-src\Code\EterLib\CWikiRenderTargetManager.cpp
; File C:\Program Files\Microsoft Visual Studio\2022\Community\VC\Tools\MSVC\14.34.31933\include\list
; File C:\Users\flourine\Desktop\Xantios\client-src\Code\EterLib\CWikiRenderTargetManager.cpp
;	COMDAT ?RenderModels@CWikiRenderTargetManager@@QAEXXZ
_TEXT	SEGMENT
?RenderModels@CWikiRenderTargetManager@@QAEXXZ PROC	; CWikiRenderTargetManager::RenderModels, COMDAT
; _this$ = ecx

; 83   : {

  00000	56		 push	 esi
  00001	57		 push	 edi
; File C:\Program Files\Microsoft Visual Studio\2022\Community\VC\Tools\MSVC\14.34.31933\include\list

; 1103 :         return _Unchecked_iterator(_Mypair._Myval2._Myhead->_Next, nullptr);

  00002	8b 79 08	 mov	 edi, DWORD PTR [ecx+8]

; 38   :     _List_unchecked_const_iterator(_Nodeptr _Pnode, const _Mylist* _Plist) noexcept : _Ptr(_Pnode) {

  00005	8b 37		 mov	 esi, DWORD PTR [edi]

; 73   :         return _Ptr == _Right._Ptr;

  00007	3b f7		 cmp	 esi, edi
; File C:\Users\flourine\Desktop\Xantios\client-src\Code\EterLib\CWikiRenderTargetManager.cpp

; 84   : 	for (const auto& elem : m_renderTargets)

  00009	74 13		 je	 SHORT $LN3@RenderMode
  0000b	0f 1f 44 00 00	 npad	 5
$LL13@RenderMode:

; 85   : 	{
; 86   : 		elem.second->RenderModel();

  00010	8b 4e 0c	 mov	 ecx, DWORD PTR [esi+12]
  00013	e8 00 00 00 00	 call	 ?RenderModel@CWikiRenderTarget@@QBEXXZ ; CWikiRenderTarget::RenderModel
; File C:\Program Files\Microsoft Visual Studio\2022\Community\VC\Tools\MSVC\14.34.31933\include\list

; 51   :         _Ptr = _Ptr->_Next;

  00018	8b 36		 mov	 esi, DWORD PTR [esi]

; 73   :         return _Ptr == _Right._Ptr;

  0001a	3b f7		 cmp	 esi, edi
; File C:\Users\flourine\Desktop\Xantios\client-src\Code\EterLib\CWikiRenderTargetManager.cpp

; 84   : 	for (const auto& elem : m_renderTargets)

  0001c	75 f2		 jne	 SHORT $LL13@RenderMode
$LN3@RenderMode:
  0001e	5f		 pop	 edi

; 87   : 	}
; 88   : }

  0001f	5e		 pop	 esi
  00020	c3		 ret	 0
?RenderModels@CWikiRenderTargetManager@@QAEXXZ ENDP	; CWikiRenderTargetManager::RenderModels
_TEXT	ENDS
; Function compile flags: /Ogtp
; File C:\Users\flourine\Desktop\Xantios\client-src\Code\EterLib\CWikiRenderTargetManager.cpp
; File C:\Program Files\Microsoft Visual Studio\2022\Community\VC\Tools\MSVC\14.34.31933\include\list
; File C:\Users\flourine\Desktop\Xantios\client-src\Code\EterLib\CWikiRenderTargetManager.cpp
; File C:\Program Files\Microsoft Visual Studio\2022\Community\VC\Tools\MSVC\14.34.31933\include\list
; File C:\Users\flourine\Desktop\Xantios\client-src\Code\EterLib\CWikiRenderTargetManager.cpp
;	COMDAT ?UpdateModels@CWikiRenderTargetManager@@QAEXXZ
_TEXT	SEGMENT
?UpdateModels@CWikiRenderTargetManager@@QAEXXZ PROC	; CWikiRenderTargetManager::UpdateModels, COMDAT
; _this$ = ecx

; 75   : {

  00000	56		 push	 esi
  00001	57		 push	 edi
; File C:\Program Files\Microsoft Visual Studio\2022\Community\VC\Tools\MSVC\14.34.31933\include\list

; 1103 :         return _Unchecked_iterator(_Mypair._Myval2._Myhead->_Next, nullptr);

  00002	8b 79 08	 mov	 edi, DWORD PTR [ecx+8]

; 38   :     _List_unchecked_const_iterator(_Nodeptr _Pnode, const _Mylist* _Plist) noexcept : _Ptr(_Pnode) {

  00005	8b 37		 mov	 esi, DWORD PTR [edi]

; 73   :         return _Ptr == _Right._Ptr;

  00007	3b f7		 cmp	 esi, edi
; File C:\Users\flourine\Desktop\Xantios\client-src\Code\EterLib\CWikiRenderTargetManager.cpp

; 76   : 	for (auto& elem : m_renderTargets)

  00009	74 13		 je	 SHORT $LN3@UpdateMode
  0000b	0f 1f 44 00 00	 npad	 5
$LL13@UpdateMode:

; 77   : 	{
; 78   : 		elem.second->UpdateModel();

  00010	8b 4e 0c	 mov	 ecx, DWORD PTR [esi+12]
  00013	e8 00 00 00 00	 call	 ?UpdateModel@CWikiRenderTarget@@QAEXXZ ; CWikiRenderTarget::UpdateModel
; File C:\Program Files\Microsoft Visual Studio\2022\Community\VC\Tools\MSVC\14.34.31933\include\list

; 51   :         _Ptr = _Ptr->_Next;

  00018	8b 36		 mov	 esi, DWORD PTR [esi]

; 73   :         return _Ptr == _Right._Ptr;

  0001a	3b f7		 cmp	 esi, edi
; File C:\Users\flourine\Desktop\Xantios\client-src\Code\EterLib\CWikiRenderTargetManager.cpp

; 76   : 	for (auto& elem : m_renderTargets)

  0001c	75 f2		 jne	 SHORT $LL13@UpdateMode
$LN3@UpdateMode:
  0001e	5f		 pop	 edi

; 79   : 	}
; 80   : }

  0001f	5e		 pop	 esi
  00020	c3		 ret	 0
?UpdateModels@CWikiRenderTargetManager@@QAEXXZ ENDP	; CWikiRenderTargetManager::UpdateModels
_TEXT	ENDS
; Function compile flags: /Ogtp
; File C:\Users\flourine\Desktop\Xantios\client-src\Code\EterLib\CWikiRenderTargetManager.cpp
; File C:\Program Files\Microsoft Visual Studio\2022\Community\VC\Tools\MSVC\14.34.31933\include\list
; File C:\Users\flourine\Desktop\Xantios\client-src\Code\EterLib\CWikiRenderTargetManager.cpp
; File C:\Program Files\Microsoft Visual Studio\2022\Community\VC\Tools\MSVC\14.34.31933\include\list
; File C:\Users\flourine\Desktop\Xantios\client-src\Code\EterLib\CWikiRenderTargetManager.cpp
;	COMDAT ?DeformModels@CWikiRenderTargetManager@@QAEXXZ
_TEXT	SEGMENT
?DeformModels@CWikiRenderTargetManager@@QAEXXZ PROC	; CWikiRenderTargetManager::DeformModels, COMDAT
; _this$ = ecx

; 67   : {

  00000	56		 push	 esi
  00001	57		 push	 edi
; File C:\Program Files\Microsoft Visual Studio\2022\Community\VC\Tools\MSVC\14.34.31933\include\list

; 1103 :         return _Unchecked_iterator(_Mypair._Myval2._Myhead->_Next, nullptr);

  00002	8b 79 08	 mov	 edi, DWORD PTR [ecx+8]

; 38   :     _List_unchecked_const_iterator(_Nodeptr _Pnode, const _Mylist* _Plist) noexcept : _Ptr(_Pnode) {

  00005	8b 37		 mov	 esi, DWORD PTR [edi]

; 73   :         return _Ptr == _Right._Ptr;

  00007	3b f7		 cmp	 esi, edi
; File C:\Users\flourine\Desktop\Xantios\client-src\Code\EterLib\CWikiRenderTargetManager.cpp

; 68   : 	for (const auto& elem : m_renderTargets)

  00009	74 13		 je	 SHORT $LN3@DeformMode
  0000b	0f 1f 44 00 00	 npad	 5
$LL13@DeformMode:

; 69   : 	{
; 70   : 		elem.second->DeformModel();

  00010	8b 4e 0c	 mov	 ecx, DWORD PTR [esi+12]
  00013	e8 00 00 00 00	 call	 ?DeformModel@CWikiRenderTarget@@QBEXXZ ; CWikiRenderTarget::DeformModel
; File C:\Program Files\Microsoft Visual Studio\2022\Community\VC\Tools\MSVC\14.34.31933\include\list

; 51   :         _Ptr = _Ptr->_Next;

  00018	8b 36		 mov	 esi, DWORD PTR [esi]

; 73   :         return _Ptr == _Right._Ptr;

  0001a	3b f7		 cmp	 esi, edi
; File C:\Users\flourine\Desktop\Xantios\client-src\Code\EterLib\CWikiRenderTargetManager.cpp

; 68   : 	for (const auto& elem : m_renderTargets)

  0001c	75 f2		 jne	 SHORT $LL13@DeformMode
$LN3@DeformMode:
  0001e	5f		 pop	 edi

; 71   : 	}
; 72   : }

  0001f	5e		 pop	 esi
  00020	c3		 ret	 0
?DeformModels@CWikiRenderTargetManager@@QAEXXZ ENDP	; CWikiRenderTargetManager::DeformModels
_TEXT	ENDS
; Function compile flags: /Ogtp
; File C:\Users\flourine\Desktop\Xantios\client-src\Code\EterLib\CWikiRenderTargetManager.cpp
; File C:\Program Files\Microsoft Visual Studio\2022\Community\VC\Tools\MSVC\14.34.31933\include\list
; File C:\Users\flourine\Desktop\Xantios\client-src\Code\EterLib\CWikiRenderTargetManager.cpp
; File C:\Program Files\Microsoft Visual Studio\2022\Community\VC\Tools\MSVC\14.34.31933\include\list
; File C:\Users\flourine\Desktop\Xantios\client-src\Code\EterLib\CWikiRenderTargetManager.cpp
;	COMDAT ?ReleaseRenderTargetTextures@CWikiRenderTargetManager@@QAEXXZ
_TEXT	SEGMENT
?ReleaseRenderTargetTextures@CWikiRenderTargetManager@@QAEXXZ PROC ; CWikiRenderTargetManager::ReleaseRenderTargetTextures, COMDAT
; _this$ = ecx

; 59   : {

  00000	56		 push	 esi
  00001	57		 push	 edi
; File C:\Program Files\Microsoft Visual Studio\2022\Community\VC\Tools\MSVC\14.34.31933\include\list

; 1103 :         return _Unchecked_iterator(_Mypair._Myval2._Myhead->_Next, nullptr);

  00002	8b 79 08	 mov	 edi, DWORD PTR [ecx+8]

; 38   :     _List_unchecked_const_iterator(_Nodeptr _Pnode, const _Mylist* _Plist) noexcept : _Ptr(_Pnode) {

  00005	8b 37		 mov	 esi, DWORD PTR [edi]

; 73   :         return _Ptr == _Right._Ptr;

  00007	3b f7		 cmp	 esi, edi
; File C:\Users\flourine\Desktop\Xantios\client-src\Code\EterLib\CWikiRenderTargetManager.cpp

; 60   : 	for (const auto& elem : m_renderTargets)

  00009	74 13		 je	 SHORT $LN3@ReleaseRen
  0000b	0f 1f 44 00 00	 npad	 5
$LL13@ReleaseRen:

; 61   : 	{
; 62   : 		elem.second->ReleaseTextures();

  00010	8b 4e 0c	 mov	 ecx, DWORD PTR [esi+12]
  00013	e8 00 00 00 00	 call	 ?ReleaseTextures@CWikiRenderTarget@@QBEXXZ ; CWikiRenderTarget::ReleaseTextures
; File C:\Program Files\Microsoft Visual Studio\2022\Community\VC\Tools\MSVC\14.34.31933\include\list

; 51   :         _Ptr = _Ptr->_Next;

  00018	8b 36		 mov	 esi, DWORD PTR [esi]

; 73   :         return _Ptr == _Right._Ptr;

  0001a	3b f7		 cmp	 esi, edi
; File C:\Users\flourine\Desktop\Xantios\client-src\Code\EterLib\CWikiRenderTargetManager.cpp

; 60   : 	for (const auto& elem : m_renderTargets)

  0001c	75 f2		 jne	 SHORT $LL13@ReleaseRen
$LN3@ReleaseRen:
  0001e	5f		 pop	 edi

; 63   : 	}
; 64   : }

  0001f	5e		 pop	 esi
  00020	c3		 ret	 0
?ReleaseRenderTargetTextures@CWikiRenderTargetManager@@QAEXXZ ENDP ; CWikiRenderTargetManager::ReleaseRenderTargetTextures
_TEXT	ENDS
; Function compile flags: /Ogtp
; File C:\Users\flourine\Desktop\Xantios\client-src\Code\EterLib\CWikiRenderTargetManager.cpp
; File C:\Program Files\Microsoft Visual Studio\2022\Community\VC\Tools\MSVC\14.34.31933\include\list
; File C:\Users\flourine\Desktop\Xantios\client-src\Code\EterLib\CWikiRenderTargetManager.cpp
; File C:\Program Files\Microsoft Visual Studio\2022\Community\VC\Tools\MSVC\14.34.31933\include\list
; File C:\Users\flourine\Desktop\Xantios\client-src\Code\EterLib\CWikiRenderTargetManager.cpp
;	COMDAT ?CreateRenderTargetTextures@CWikiRenderTargetManager@@QAEXXZ
_TEXT	SEGMENT
?CreateRenderTargetTextures@CWikiRenderTargetManager@@QAEXXZ PROC ; CWikiRenderTargetManager::CreateRenderTargetTextures, COMDAT
; _this$ = ecx

; 51   : {

  00000	56		 push	 esi
  00001	57		 push	 edi
; File C:\Program Files\Microsoft Visual Studio\2022\Community\VC\Tools\MSVC\14.34.31933\include\list

; 1103 :         return _Unchecked_iterator(_Mypair._Myval2._Myhead->_Next, nullptr);

  00002	8b 79 08	 mov	 edi, DWORD PTR [ecx+8]

; 38   :     _List_unchecked_const_iterator(_Nodeptr _Pnode, const _Mylist* _Plist) noexcept : _Ptr(_Pnode) {

  00005	8b 37		 mov	 esi, DWORD PTR [edi]

; 73   :         return _Ptr == _Right._Ptr;

  00007	3b f7		 cmp	 esi, edi
; File C:\Users\flourine\Desktop\Xantios\client-src\Code\EterLib\CWikiRenderTargetManager.cpp

; 52   : 	for (const auto& elem : m_renderTargets)

  00009	74 13		 je	 SHORT $LN3@CreateRend
  0000b	0f 1f 44 00 00	 npad	 5
$LL13@CreateRend:

; 53   : 	{
; 54   : 		elem.second->CreateTextures();

  00010	8b 4e 0c	 mov	 ecx, DWORD PTR [esi+12]
  00013	e8 00 00 00 00	 call	 ?CreateTextures@CWikiRenderTarget@@QBEXXZ ; CWikiRenderTarget::CreateTextures
; File C:\Program Files\Microsoft Visual Studio\2022\Community\VC\Tools\MSVC\14.34.31933\include\list

; 51   :         _Ptr = _Ptr->_Next;

  00018	8b 36		 mov	 esi, DWORD PTR [esi]

; 73   :         return _Ptr == _Right._Ptr;

  0001a	3b f7		 cmp	 esi, edi
; File C:\Users\flourine\Desktop\Xantios\client-src\Code\EterLib\CWikiRenderTargetManager.cpp

; 52   : 	for (const auto& elem : m_renderTargets)

  0001c	75 f2		 jne	 SHORT $LL13@CreateRend
$LN3@CreateRend:
  0001e	5f		 pop	 edi

; 55   : 	}
; 56   : }

  0001f	5e		 pop	 esi
  00020	c3		 ret	 0
?CreateRenderTargetTextures@CWikiRenderTargetManager@@QAEXXZ ENDP ; CWikiRenderTargetManager::CreateRenderTargetTextures
_TEXT	ENDS
; Function compile flags: /Ogtp
; File C:\Users\flourine\Desktop\Xantios\client-src\Code\EterLib\CWikiRenderTargetManager.cpp
; File C:\Program Files\Microsoft Visual Studio\2022\Community\VC\Tools\MSVC\14.34.31933\include\memory
; File C:\Users\flourine\Desktop\Xantios\client-src\Code\EterLib\CWikiRenderTargetManager.cpp
; File C:\Program Files\Microsoft Visual Studio\2022\Community\VC\Tools\MSVC\14.34.31933\include\type_traits
; File C:\Program Files\Microsoft Visual Studio\2022\Community\VC\Tools\MSVC\14.34.31933\include\xhash
; File C:\Program Files\Microsoft Visual Studio\2022\Community\VC\Tools\MSVC\14.34.31933\include\list
; File C:\Users\flourine\Desktop\Xantios\client-src\Code\EterLib\CWikiRenderTargetManager.cpp
; File C:\Program Files\Microsoft Visual Studio\2022\Community\VC\Tools\MSVC\14.34.31933\include\xhash
; File C:\Program Files\Microsoft Visual Studio\2022\Community\VC\Tools\MSVC\14.34.31933\include\type_traits
; File C:\Program Files\Microsoft Visual Studio\2022\Community\VC\Tools\MSVC\14.34.31933\include\xhash
; File C:\Program Files\Microsoft Visual Studio\2022\Community\VC\Tools\MSVC\14.34.31933\include\type_traits
; File C:\Program Files\Microsoft Visual Studio\2022\Community\VC\Tools\MSVC\14.34.31933\include\xhash
; File C:\Program Files\Microsoft Visual Studio\2022\Community\VC\Tools\MSVC\14.34.31933\include\list
; File C:\Program Files\Microsoft Visual Studio\2022\Community\VC\Tools\MSVC\14.34.31933\include\memory
; File C:\Program Files\Microsoft Visual Studio\2022\Community\VC\Tools\MSVC\14.34.31933\include\xmemory
; File C:\Users\flourine\Desktop\Xantios\client-src\Code\EterLib\CWikiRenderTargetManager.cpp
;	COMDAT ?DeleteRenderTarget@CWikiRenderTargetManager@@QAEXH@Z
_TEXT	SEGMENT
$T1 = -16						; size = 8
$T2 = -16						; size = 8
_this$1$ = -8						; size = 4
tv746 = -4						; size = 4
_module_id$ = 8						; size = 4
?DeleteRenderTarget@CWikiRenderTargetManager@@QAEXH@Z PROC ; CWikiRenderTargetManager::DeleteRenderTarget, COMDAT
; _this$ = ecx

; 37   : {

  00000	55		 push	 ebp
  00001	8b ec		 mov	 ebp, esp
  00003	83 ec 10	 sub	 esp, 16			; 00000010H
  00006	53		 push	 ebx
  00007	56		 push	 esi
  00008	57		 push	 edi

; 38   : 	if (!GetRenderTarget(module_id))

  00009	ff 75 08	 push	 DWORD PTR _module_id$[ebp]
  0000c	8d 45 f0	 lea	 eax, DWORD PTR $T2[ebp]
  0000f	8b f9		 mov	 edi, ecx
  00011	50		 push	 eax
  00012	89 7d f8	 mov	 DWORD PTR _this$1$[ebp], edi
  00015	e8 00 00 00 00	 call	 ?GetRenderTarget@CWikiRenderTargetManager@@QAE?AV?$shared_ptr@VCWikiRenderTarget@@@std@@H@Z ; CWikiRenderTargetManager::GetRenderTarget
; File C:\Program Files\Microsoft Visual Studio\2022\Community\VC\Tools\MSVC\14.34.31933\include\memory

; 1334 :         if (_Rep) {

  0001a	8b 75 f4	 mov	 esi, DWORD PTR $T2[ebp+4]

; 1718 :         return get() != nullptr;

  0001d	8b 18		 mov	 ebx, DWORD PTR [eax]
  0001f	89 5d fc	 mov	 DWORD PTR tv746[ebp], ebx

; 1334 :         if (_Rep) {

  00022	83 cb ff	 or	 ebx, -1
  00025	85 f6		 test	 esi, esi
  00027	74 1f		 je	 SHORT $LN17@DeleteRend

; 1109 :         if (_MT_DECR(_Uses) == 0) {

  00029	8b c3		 mov	 eax, ebx
  0002b	f0 0f c1 46 04	 lock	  xadd	 DWORD PTR [esi+4], eax
  00030	75 16		 jne	 SHORT $LN17@DeleteRend

; 1110 :             _Destroy();

  00032	8b 06		 mov	 eax, DWORD PTR [esi]
  00034	8b ce		 mov	 ecx, esi
  00036	ff 10		 call	 DWORD PTR [eax]

; 1116 :         if (_MT_DECR(_Weaks) == 0) {

  00038	8b c3		 mov	 eax, ebx
  0003a	f0 0f c1 46 08	 lock	  xadd	 DWORD PTR [esi+8], eax
  0003f	75 07		 jne	 SHORT $LN17@DeleteRend

; 1117 :             _Delete_this();

  00041	8b 06		 mov	 eax, DWORD PTR [esi]
  00043	8b ce		 mov	 ecx, esi
  00045	ff 50 04	 call	 DWORD PTR [eax+4]
$LN17@DeleteRend:
; File C:\Users\flourine\Desktop\Xantios\client-src\Code\EterLib\CWikiRenderTargetManager.cpp

; 38   : 	if (!GetRenderTarget(module_id))

  00048	83 7d fc 00	 cmp	 DWORD PTR tv746[ebp], 0
  0004c	0f 84 a8 00 00
	00		 je	 $LN125@DeleteRend
; File C:\Program Files\Microsoft Visual Studio\2022\Community\VC\Tools\MSVC\14.34.31933\include\type_traits

; 2183 :         return _Hash_representation(_Keyval);

  00052	8d 45 08	 lea	 eax, DWORD PTR _module_id$[ebp]
  00055	50		 push	 eax
  00056	e8 00 00 00 00	 call	 ??$_Hash_representation@H@std@@YAIABH@Z ; std::_Hash_representation<int>
  0005b	83 c4 04	 add	 esp, 4
; File C:\Program Files\Microsoft Visual Studio\2022\Community\VC\Tools\MSVC\14.34.31933\include\xhash

; 1215 :             auto _Target = _Find_last(_Keyval, _Hashval)._Duplicate;

  0005e	8d 4f 04	 lea	 ecx, DWORD PTR [edi+4]
  00061	50		 push	 eax
  00062	8d 45 08	 lea	 eax, DWORD PTR _module_id$[ebp]
  00065	50		 push	 eax
  00066	8d 45 f0	 lea	 eax, DWORD PTR $T1[ebp]
  00069	50		 push	 eax
  0006a	e8 00 00 00 00	 call	 ??$_Find_last@H@?$_Hash@V?$_Umap_traits@HV?$shared_ptr@VCWikiRenderTarget@@@std@@V?$_Uhash_compare@HU?$hash@H@std@@U?$equal_to@H@2@@2@V?$allocator@U?$pair@$$CBHV?$shared_ptr@VCWikiRenderTarget@@@std@@@std@@@2@$0A@@std@@@std@@IBE?AU?$_Hash_find_last_result@PAU?$_List_node@U?$pair@$$CBHV?$shared_ptr@VCWikiRenderTarget@@@std@@@std@@PAX@std@@@1@ABHI@Z ; std::_Hash<std::_Umap_traits<int,std::shared_ptr<CWikiRenderTarget>,std::_Uhash_compare<int,std::hash<int>,std::equal_to<int> >,std::allocator<std::pair<int const ,std::shared_ptr<CWikiRenderTarget> > >,0> >::_Find_last<int>
  0006f	8b 70 04	 mov	 esi, DWORD PTR [eax+4]

; 1216 :             if (_Target) {

  00072	85 f6		 test	 esi, esi
  00074	75 03		 jne	 SHORT $LN27@DeleteRend

; 1217 :                 return _Target;
; 1218 :             }
; 1219 : 
; 1220 :             return _List._Mypair._Myval2._Myhead;

  00076	8b 77 08	 mov	 esi, DWORD PTR [edi+8]
$LN27@DeleteRend:
; File C:\Program Files\Microsoft Visual Studio\2022\Community\VC\Tools\MSVC\14.34.31933\include\list

; 38   :     _List_unchecked_const_iterator(_Nodeptr _Pnode, const _Mylist* _Plist) noexcept : _Ptr(_Pnode) {

  00079	8b 7f 08	 mov	 edi, DWORD PTR [edi+8]

; 198  :         return this->_Ptr == _Right._Ptr;

  0007c	3b f7		 cmp	 esi, edi
; File C:\Users\flourine\Desktop\Xantios\client-src\Code\EterLib\CWikiRenderTargetManager.cpp

; 44   : 	if (it != m_renderTargets.end())

  0007e	74 7a		 je	 SHORT $LN125@DeleteRend
; File C:\Program Files\Microsoft Visual Studio\2022\Community\VC\Tools\MSVC\14.34.31933\include\xhash

; 976  :         size_type _Bucket = bucket(_Traits::_Kfn(_Plist->_Myval));

  00080	8d 46 08	 lea	 eax, DWORD PTR [esi+8]
; File C:\Program Files\Microsoft Visual Studio\2022\Community\VC\Tools\MSVC\14.34.31933\include\type_traits

; 2183 :         return _Hash_representation(_Keyval);

  00083	50		 push	 eax
  00084	e8 00 00 00 00	 call	 ??$_Hash_representation@H@std@@YAIABH@Z ; std::_Hash_representation<int>
; File C:\Program Files\Microsoft Visual Studio\2022\Community\VC\Tools\MSVC\14.34.31933\include\xhash

; 854  :         return _Traitsobj(_Keyval) & _Mask;

  00089	8b 55 f8	 mov	 edx, DWORD PTR _this$1$[ebp]
; File C:\Program Files\Microsoft Visual Studio\2022\Community\VC\Tools\MSVC\14.34.31933\include\type_traits

; 2183 :         return _Hash_representation(_Keyval);

  0008c	83 c4 04	 add	 esp, 4
; File C:\Program Files\Microsoft Visual Studio\2022\Community\VC\Tools\MSVC\14.34.31933\include\xhash

; 854  :         return _Traitsobj(_Keyval) & _Mask;

  0008f	23 42 1c	 and	 eax, DWORD PTR [edx+28]

; 1665 :         _Nodeptr& _Bucket_lo = _Vec._Mypair._Myval2._Myfirst[_Bucket << 1]._Ptr;

  00092	8b 4a 10	 mov	 ecx, DWORD PTR [edx+16]
  00095	8d 0c c1	 lea	 ecx, DWORD PTR [ecx+eax*8]

; 1666 :         _Nodeptr& _Bucket_hi = _Vec._Mypair._Myval2._Myfirst[(_Bucket << 1) + 1]._Ptr;
; 1667 :         if (_Bucket_hi == _Plist) {

  00098	8b 01		 mov	 eax, DWORD PTR [ecx]
  0009a	39 71 04	 cmp	 DWORD PTR [ecx+4], esi
  0009d	75 13		 jne	 SHORT $LN65@DeleteRend

; 1668 :             if (_Bucket_lo == _Plist) { // make bucket empty

  0009f	3b c6		 cmp	 eax, esi
  000a1	75 07		 jne	 SHORT $LN67@DeleteRend

; 1669 :                 const auto _End = _List._Mypair._Myval2._Myhead;
; 1670 : 
; 1671 :                 _Bucket_lo = _End;

  000a3	89 39		 mov	 DWORD PTR [ecx], edi

; 1675 :             }
; 1676 :         } else if (_Bucket_lo == _Plist) {

  000a5	89 79 04	 mov	 DWORD PTR [ecx+4], edi
  000a8	eb 10		 jmp	 SHORT $LN69@DeleteRend
$LN67@DeleteRend:

; 1672 :                 _Bucket_hi = _End;
; 1673 :             } else {
; 1674 :                 _Bucket_hi = _Plist->_Prev; // move end back one element

  000aa	8b 7e 04	 mov	 edi, DWORD PTR [esi+4]

; 1675 :             }
; 1676 :         } else if (_Bucket_lo == _Plist) {

  000ad	89 79 04	 mov	 DWORD PTR [ecx+4], edi
  000b0	eb 08		 jmp	 SHORT $LN69@DeleteRend
$LN65@DeleteRend:
  000b2	3b c6		 cmp	 eax, esi
  000b4	75 04		 jne	 SHORT $LN69@DeleteRend

; 1677 :             _Bucket_lo = _Plist->_Next; // move beginning up one element

  000b6	8b 06		 mov	 eax, DWORD PTR [esi]
  000b8	89 01		 mov	 DWORD PTR [ecx], eax
$LN69@DeleteRend:
; File C:\Program Files\Microsoft Visual Studio\2022\Community\VC\Tools\MSVC\14.34.31933\include\list

; 1418 :         const auto _Result = _Pnode->_Next;

  000ba	8b 0e		 mov	 ecx, DWORD PTR [esi]

; 1419 :         _Mypair._Myval2._Orphan_ptr2(_Pnode);
; 1420 :         --_Mypair._Myval2._Mysize;

  000bc	ff 4a 0c	 dec	 DWORD PTR [edx+12]

; 1421 :         _Pnode->_Prev->_Next = _Result;

  000bf	8b 46 04	 mov	 eax, DWORD PTR [esi+4]
  000c2	89 08		 mov	 DWORD PTR [eax], ecx

; 1422 :         _Result->_Prev       = _Pnode->_Prev;

  000c4	8b 46 04	 mov	 eax, DWORD PTR [esi+4]
  000c7	89 41 04	 mov	 DWORD PTR [ecx+4], eax
; File C:\Program Files\Microsoft Visual Studio\2022\Community\VC\Tools\MSVC\14.34.31933\include\memory

; 1334 :         if (_Rep) {

  000ca	8b 7e 10	 mov	 edi, DWORD PTR [esi+16]
  000cd	85 ff		 test	 edi, edi
  000cf	74 1e		 je	 SHORT $LN92@DeleteRend

; 1109 :         if (_MT_DECR(_Uses) == 0) {

  000d1	8b c3		 mov	 eax, ebx
  000d3	f0 0f c1 47 04	 lock	  xadd	 DWORD PTR [edi+4], eax
  000d8	75 15		 jne	 SHORT $LN92@DeleteRend

; 1110 :             _Destroy();

  000da	8b 07		 mov	 eax, DWORD PTR [edi]
  000dc	8b cf		 mov	 ecx, edi
  000de	ff 10		 call	 DWORD PTR [eax]

; 1116 :         if (_MT_DECR(_Weaks) == 0) {

  000e0	f0 0f c1 5f 08	 lock	  xadd	 DWORD PTR [edi+8], ebx
  000e5	4b		 dec	 ebx
  000e6	75 07		 jne	 SHORT $LN92@DeleteRend

; 1117 :             _Delete_this();

  000e8	8b 07		 mov	 eax, DWORD PTR [edi]
  000ea	8b cf		 mov	 ecx, edi
  000ec	ff 50 04	 call	 DWORD PTR [eax+4]
$LN92@DeleteRend:
; File C:\Program Files\Microsoft Visual Studio\2022\Community\VC\Tools\MSVC\14.34.31933\include\xmemory

; 255  :         ::operator delete(_Ptr, _Bytes);

  000ef	6a 14		 push	 20			; 00000014H
  000f1	56		 push	 esi
  000f2	e8 00 00 00 00	 call	 ??3@YAXPAXI@Z		; operator delete
  000f7	83 c4 08	 add	 esp, 8
$LN125@DeleteRend:
  000fa	5f		 pop	 edi
; File C:\Users\flourine\Desktop\Xantios\client-src\Code\EterLib\CWikiRenderTargetManager.cpp

; 48   : }

  000fb	5e		 pop	 esi
  000fc	5b		 pop	 ebx
  000fd	8b e5		 mov	 esp, ebp
  000ff	5d		 pop	 ebp
  00100	c2 04 00	 ret	 4
?DeleteRenderTarget@CWikiRenderTargetManager@@QAEXH@Z ENDP ; CWikiRenderTargetManager::DeleteRenderTarget
_TEXT	ENDS
; Function compile flags: /Ogtp
; File C:\Users\flourine\Desktop\Xantios\client-src\Code\EterLib\CWikiRenderTargetManager.cpp
; File C:\Program Files\Microsoft Visual Studio\2022\Community\VC\Tools\MSVC\14.34.31933\include\memory
; File C:\Users\flourine\Desktop\Xantios\client-src\Code\EterLib\CWikiRenderTargetManager.cpp
; File C:\Program Files\Microsoft Visual Studio\2022\Community\VC\Tools\MSVC\14.34.31933\include\memory
; File C:\Users\flourine\Desktop\Xantios\client-src\Code\EterLib\CWikiRenderTargetManager.cpp
; File C:\Program Files\Microsoft Visual Studio\2022\Community\VC\Tools\MSVC\14.34.31933\include\memory
; File C:\Program Files\Microsoft Visual Studio\2022\Community\VC\Tools\MSVC\14.34.31933\include\xutility
; File C:\Program Files\Microsoft Visual Studio\2022\Community\VC\Tools\MSVC\14.34.31933\include\memory
; File C:\Program Files\Microsoft Visual Studio\2022\Community\VC\Tools\MSVC\14.34.31933\include\xutility
; File C:\Program Files\Microsoft Visual Studio\2022\Community\VC\Tools\MSVC\14.34.31933\include\memory
; File C:\Program Files\Microsoft Visual Studio\2022\Community\VC\Tools\MSVC\14.34.31933\include\xutility
; File C:\Program Files\Microsoft Visual Studio\2022\Community\VC\Tools\MSVC\14.34.31933\include\memory
; File C:\Users\flourine\Desktop\Xantios\client-src\Code\EterLib\CWikiRenderTargetManager.cpp
; File C:\Program Files\Microsoft Visual Studio\2022\Community\VC\Tools\MSVC\14.34.31933\include\memory
; File C:\Users\flourine\Desktop\Xantios\client-src\Code\EterLib\CWikiRenderTargetManager.cpp
;	COMDAT ?CreateRenderTarget@CWikiRenderTargetManager@@QAE_NHHH@Z
_TEXT	SEGMENT
$T2 = -28						; size = 8
$T3 = -28						; size = 8
$T4 = -24						; size = 4
$T5 = -24						; size = 4
$T6 = -20						; size = 8
_this$1$ = -16						; size = 4
__$EHRec$ = -12						; size = 12
_module_id$ = 8						; size = 4
_width$ = 12						; size = 4
_height$ = 16						; size = 4
?CreateRenderTarget@CWikiRenderTargetManager@@QAE_NHHH@Z PROC ; CWikiRenderTargetManager::CreateRenderTarget, COMDAT
; _this$ = ecx

; 26   : {

  00000	55		 push	 ebp
  00001	8b ec		 mov	 ebp, esp
  00003	6a ff		 push	 -1
  00005	68 00 00 00 00	 push	 __ehhandler$?CreateRenderTarget@CWikiRenderTargetManager@@QAE_NHHH@Z
  0000a	64 a1 00 00 00
	00		 mov	 eax, DWORD PTR fs:0
  00010	50		 push	 eax
  00011	83 ec 10	 sub	 esp, 16			; 00000010H
  00014	53		 push	 ebx
  00015	56		 push	 esi
  00016	57		 push	 edi
  00017	a1 00 00 00 00	 mov	 eax, DWORD PTR ___security_cookie
  0001c	33 c5		 xor	 eax, ebp
  0001e	50		 push	 eax
  0001f	8d 45 f4	 lea	 eax, DWORD PTR __$EHRec$[ebp]
  00022	64 a3 00 00 00
	00		 mov	 DWORD PTR fs:0, eax
  00028	8b f1		 mov	 esi, ecx
  0002a	89 75 f0	 mov	 DWORD PTR _this$1$[ebp], esi
  0002d	33 d2		 xor	 edx, edx
  0002f	89 55 e8	 mov	 DWORD PTR $T5[ebp], edx

; 27   : 	if (module_id < 1 || GetRenderTarget(module_id))

  00032	8b 45 08	 mov	 eax, DWORD PTR _module_id$[ebp]
  00035	83 f8 01	 cmp	 eax, 1
  00038	7c 18		 jl	 SHORT $LN4@CreateRend
  0003a	50		 push	 eax
  0003b	8d 45 e4	 lea	 eax, DWORD PTR $T3[ebp]
  0003e	50		 push	 eax
  0003f	e8 00 00 00 00	 call	 ?GetRenderTarget@CWikiRenderTargetManager@@QAE?AV?$shared_ptr@VCWikiRenderTarget@@@std@@H@Z ; CWikiRenderTargetManager::GetRenderTarget
  00044	ba 01 00 00 00	 mov	 edx, 1
  00049	83 38 00	 cmp	 DWORD PTR [eax], 0
  0004c	75 04		 jne	 SHORT $LN4@CreateRend
  0004e	32 db		 xor	 bl, bl
  00050	eb 02		 jmp	 SHORT $LN5@CreateRend
$LN4@CreateRend:
  00052	b3 01		 mov	 bl, 1
$LN5@CreateRend:
  00054	83 cf ff	 or	 edi, -1
  00057	f6 c2 01	 test	 dl, 1
  0005a	74 29		 je	 SHORT $LN21@CreateRend
; File C:\Program Files\Microsoft Visual Studio\2022\Community\VC\Tools\MSVC\14.34.31933\include\memory

; 1334 :         if (_Rep) {

  0005c	8b 75 e8	 mov	 esi, DWORD PTR $T3[ebp+4]
  0005f	85 f6		 test	 esi, esi
  00061	74 1f		 je	 SHORT $LN55@CreateRend

; 1109 :         if (_MT_DECR(_Uses) == 0) {

  00063	8b c7		 mov	 eax, edi
  00065	f0 0f c1 46 04	 lock	  xadd	 DWORD PTR [esi+4], eax
  0006a	75 16		 jne	 SHORT $LN55@CreateRend

; 1110 :             _Destroy();

  0006c	8b 06		 mov	 eax, DWORD PTR [esi]
  0006e	8b ce		 mov	 ecx, esi
  00070	ff 10		 call	 DWORD PTR [eax]

; 1116 :         if (_MT_DECR(_Weaks) == 0) {

  00072	8b c7		 mov	 eax, edi
  00074	f0 0f c1 46 08	 lock	  xadd	 DWORD PTR [esi+8], eax
  00079	75 07		 jne	 SHORT $LN55@CreateRend

; 1117 :             _Delete_this();

  0007b	8b 06		 mov	 eax, DWORD PTR [esi]
  0007d	8b ce		 mov	 ecx, esi
  0007f	ff 50 04	 call	 DWORD PTR [eax+4]
$LN55@CreateRend:
; File C:\Users\flourine\Desktop\Xantios\client-src\Code\EterLib\CWikiRenderTargetManager.cpp

; 27   : 	if (module_id < 1 || GetRenderTarget(module_id))

  00082	8b 75 f0	 mov	 esi, DWORD PTR _this$1$[ebp]
$LN21@CreateRend:
  00085	84 db		 test	 bl, bl
  00087	74 16		 je	 SHORT $LN2@CreateRend

; 28   : 	{
; 29   : 		return false;

  00089	32 c0		 xor	 al, al

; 34   : }

  0008b	8b 4d f4	 mov	 ecx, DWORD PTR __$EHRec$[ebp]
  0008e	64 89 0d 00 00
	00 00		 mov	 DWORD PTR fs:0, ecx
  00095	59		 pop	 ecx
  00096	5f		 pop	 edi
  00097	5e		 pop	 esi
  00098	5b		 pop	 ebx
  00099	8b e5		 mov	 esp, ebp
  0009b	5d		 pop	 ebp
  0009c	c2 0c 00	 ret	 12			; 0000000cH
$LN2@CreateRend:
; File C:\Program Files\Microsoft Visual Studio\2022\Community\VC\Tools\MSVC\14.34.31933\include\memory

; 2704 :     const auto _Rx = new _Ref_count_obj2<_Ty>(_STD forward<_Types>(_Args)...);

  0009f	6a 44		 push	 68			; 00000044H
; File C:\Users\flourine\Desktop\Xantios\client-src\Code\EterLib\CWikiRenderTargetManager.cpp

; 32   : 	m_renderTargets.emplace(module_id, std::make_shared<CWikiRenderTarget>(width, height));

  000a1	8d 5e 04	 lea	 ebx, DWORD PTR [esi+4]
; File C:\Program Files\Microsoft Visual Studio\2022\Community\VC\Tools\MSVC\14.34.31933\include\memory

; 2704 :     const auto _Rx = new _Ref_count_obj2<_Ty>(_STD forward<_Types>(_Args)...);

  000a4	e8 00 00 00 00	 call	 ??2@YAPAXI@Z		; operator new
  000a9	8b f0		 mov	 esi, eax
  000ab	83 c4 04	 add	 esp, 4
  000ae	89 75 e8	 mov	 DWORD PTR $T4[ebp], esi
  000b1	c7 45 fc 00 00
	00 00		 mov	 DWORD PTR __$EHRec$[ebp+8], 0
  000b8	85 f6		 test	 esi, esi
  000ba	74 32		 je	 SHORT $LN25@CreateRend
; File C:\Program Files\Microsoft Visual Studio\2022\Community\VC\Tools\MSVC\14.34.31933\include\xutility

; 231  :         ::new (_Voidify_iter(_STD addressof(_Obj))) _Ty(_STD forward<_Types>(_Args)...);

  000bc	ff 75 10	 push	 DWORD PTR _height$[ebp]
  000bf	0f 57 c0	 xorps	 xmm0, xmm0
; File C:\Program Files\Microsoft Visual Studio\2022\Community\VC\Tools\MSVC\14.34.31933\include\memory

; 2031 :             _Construct_in_place(_Storage._Value, _STD forward<_Types>(_Args)...);

  000c2	8d 4e 0c	 lea	 ecx, DWORD PTR [esi+12]
; File C:\Program Files\Microsoft Visual Studio\2022\Community\VC\Tools\MSVC\14.34.31933\include\xutility

; 231  :         ::new (_Voidify_iter(_STD addressof(_Obj))) _Ty(_STD forward<_Types>(_Args)...);

  000c5	ff 75 0c	 push	 DWORD PTR _width$[ebp]
; File C:\Program Files\Microsoft Visual Studio\2022\Community\VC\Tools\MSVC\14.34.31933\include\memory

; 2023 :     explicit _Ref_count_obj2(_Types&&... _Args) : _Ref_count_base() {

  000c8	66 0f d6 06	 movq	 QWORD PTR [esi], xmm0
  000cc	c7 46 08 00 00
	00 00		 mov	 DWORD PTR [esi+8], 0

; 1069 :     _Atomic_counter_t _Uses  = 1;

  000d3	c7 46 04 01 00
	00 00		 mov	 DWORD PTR [esi+4], 1

; 1070 :     _Atomic_counter_t _Weaks = 1;

  000da	c7 46 08 01 00
	00 00		 mov	 DWORD PTR [esi+8], 1

; 2023 :     explicit _Ref_count_obj2(_Types&&... _Args) : _Ref_count_base() {

  000e1	c7 06 00 00 00
	00		 mov	 DWORD PTR [esi], OFFSET ??_7?$_Ref_count_obj2@VCWikiRenderTarget@@@std@@6B@
; File C:\Program Files\Microsoft Visual Studio\2022\Community\VC\Tools\MSVC\14.34.31933\include\xutility

; 231  :         ::new (_Voidify_iter(_STD addressof(_Obj))) _Ty(_STD forward<_Types>(_Args)...);

  000e7	e8 00 00 00 00	 call	 ??0CWikiRenderTarget@@QAE@KK@Z ; CWikiRenderTarget::CWikiRenderTarget
; File C:\Program Files\Microsoft Visual Studio\2022\Community\VC\Tools\MSVC\14.34.31933\include\memory

; 2704 :     const auto _Rx = new _Ref_count_obj2<_Ty>(_STD forward<_Types>(_Args)...);

  000ec	eb 02		 jmp	 SHORT $LN26@CreateRend
$LN25@CreateRend:
  000ee	33 f6		 xor	 esi, esi
$LN26@CreateRend:

; 2705 :     shared_ptr<_Ty> _Ret;
; 2706 :     _Ret._Set_ptr_rep_and_enable_shared(_STD addressof(_Rx->_Storage._Value), _Rx);

  000f0	8d 46 0c	 lea	 eax, DWORD PTR [esi+12]

; 1788 :         this->_Rep = _Rx;

  000f3	89 75 e8	 mov	 DWORD PTR $T2[ebp+4], esi
  000f6	89 45 e4	 mov	 DWORD PTR $T2[ebp], eax
; File C:\Users\flourine\Desktop\Xantios\client-src\Code\EterLib\CWikiRenderTargetManager.cpp

; 32   : 	m_renderTargets.emplace(module_id, std::make_shared<CWikiRenderTarget>(width, height));

  000f9	8d 45 e4	 lea	 eax, DWORD PTR $T2[ebp]
  000fc	c7 45 fc 01 00
	00 00		 mov	 DWORD PTR __$EHRec$[ebp+8], 1
  00103	50		 push	 eax
  00104	8d 45 08	 lea	 eax, DWORD PTR _module_id$[ebp]
  00107	8b cb		 mov	 ecx, ebx
  00109	50		 push	 eax
  0010a	8d 45 ec	 lea	 eax, DWORD PTR $T6[ebp]
  0010d	50		 push	 eax
  0010e	e8 00 00 00 00	 call	 ??$emplace@ABHV?$shared_ptr@VCWikiRenderTarget@@@std@@@?$_Hash@V?$_Umap_traits@HV?$shared_ptr@VCWikiRenderTarget@@@std@@V?$_Uhash_compare@HU?$hash@H@std@@U?$equal_to@H@2@@2@V?$allocator@U?$pair@$$CBHV?$shared_ptr@VCWikiRenderTarget@@@std@@@std@@@2@$0A@@std@@@std@@QAE?AU?$pair@V?$_List_iterator@V?$_List_val@U?$_List_simple_types@U?$pair@$$CBHV?$shared_ptr@VCWikiRenderTarget@@@std@@@std@@@std@@@std@@@std@@_N@1@ABH$$QAV?$shared_ptr@VCWikiRenderTarget@@@1@@Z ; std::_Hash<std::_Umap_traits<int,std::shared_ptr<CWikiRenderTarget>,std::_Uhash_compare<int,std::hash<int>,std::equal_to<int> >,std::allocator<std::pair<int const ,std::shared_ptr<CWikiRenderTarget> > >,0> >::emplace<int const &,std::shared_ptr<CWikiRenderTarget> >
; File C:\Program Files\Microsoft Visual Studio\2022\Community\VC\Tools\MSVC\14.34.31933\include\memory

; 1334 :         if (_Rep) {

  00113	8b 75 e8	 mov	 esi, DWORD PTR $T2[ebp+4]
  00116	85 f6		 test	 esi, esi
  00118	74 1e		 je	 SHORT $LN51@CreateRend

; 1109 :         if (_MT_DECR(_Uses) == 0) {

  0011a	8b c7		 mov	 eax, edi
  0011c	f0 0f c1 46 04	 lock	  xadd	 DWORD PTR [esi+4], eax
  00121	75 15		 jne	 SHORT $LN51@CreateRend

; 1110 :             _Destroy();

  00123	8b 06		 mov	 eax, DWORD PTR [esi]
  00125	8b ce		 mov	 ecx, esi
  00127	ff 10		 call	 DWORD PTR [eax]

; 1116 :         if (_MT_DECR(_Weaks) == 0) {

  00129	f0 0f c1 7e 08	 lock	  xadd	 DWORD PTR [esi+8], edi
  0012e	4f		 dec	 edi
  0012f	75 07		 jne	 SHORT $LN51@CreateRend

; 1117 :             _Delete_this();

  00131	8b 06		 mov	 eax, DWORD PTR [esi]
  00133	8b ce		 mov	 ecx, esi
  00135	ff 50 04	 call	 DWORD PTR [eax+4]
$LN51@CreateRend:
; File C:\Users\flourine\Desktop\Xantios\client-src\Code\EterLib\CWikiRenderTargetManager.cpp

; 33   : 	return true;

  00138	b0 01		 mov	 al, 1

; 34   : }

  0013a	8b 4d f4	 mov	 ecx, DWORD PTR __$EHRec$[ebp]
  0013d	64 89 0d 00 00
	00 00		 mov	 DWORD PTR fs:0, ecx
  00144	59		 pop	 ecx
  00145	5f		 pop	 edi
  00146	5e		 pop	 esi
  00147	5b		 pop	 ebx
  00148	8b e5		 mov	 esp, ebp
  0014a	5d		 pop	 ebp
  0014b	c2 0c 00	 ret	 12			; 0000000cH
_TEXT	ENDS
;	COMDAT text$x
text$x	SEGMENT
__unwindfunclet$?CreateRenderTarget@CWikiRenderTargetManager@@QAE_NHHH@Z$2:
  00000	6a 44		 push	 68			; 00000044H
  00002	8b 45 e8	 mov	 eax, DWORD PTR $T4[ebp]
  00005	50		 push	 eax
  00006	e8 00 00 00 00	 call	 ??3@YAXPAXI@Z		; operator delete
  0000b	83 c4 08	 add	 esp, 8
  0000e	c3		 ret	 0
__unwindfunclet$?CreateRenderTarget@CWikiRenderTargetManager@@QAE_NHHH@Z$1:
  0000f	8d 4d e4	 lea	 ecx, DWORD PTR $T2[ebp]
  00012	e9 00 00 00 00	 jmp	 ??1?$shared_ptr@VCWikiRenderTarget@@@std@@QAE@XZ ; std::shared_ptr<CWikiRenderTarget>::~shared_ptr<CWikiRenderTarget>
  00017	cc		 int	 3
  00018	cc		 int	 3
  00019	cc		 int	 3
  0001a	cc		 int	 3
  0001b	cc		 int	 3
__ehhandler$?CreateRenderTarget@CWikiRenderTargetManager@@QAE_NHHH@Z:
  0001c	90		 npad	 1
  0001d	90		 npad	 1
  0001e	8b 54 24 08	 mov	 edx, DWORD PTR [esp+8]
  00022	8d 42 0c	 lea	 eax, DWORD PTR [edx+12]
  00025	8b 4a e0	 mov	 ecx, DWORD PTR [edx-32]
  00028	33 c8		 xor	 ecx, eax
  0002a	e8 00 00 00 00	 call	 @__security_check_cookie@4
  0002f	b8 00 00 00 00	 mov	 eax, OFFSET __ehfuncinfo$?CreateRenderTarget@CWikiRenderTargetManager@@QAE_NHHH@Z
  00034	e9 00 00 00 00	 jmp	 ___CxxFrameHandler3
text$x	ENDS
?CreateRenderTarget@CWikiRenderTargetManager@@QAE_NHHH@Z ENDP ; CWikiRenderTargetManager::CreateRenderTarget
; Function compile flags: /Ogtp
; File C:\Users\flourine\Desktop\Xantios\client-src\Code\EterLib\CWikiRenderTargetManager.cpp
; File C:\Program Files\Microsoft Visual Studio\2022\Community\VC\Tools\MSVC\14.34.31933\include\type_traits
; File C:\Users\flourine\Desktop\Xantios\client-src\Code\EterLib\CWikiRenderTargetManager.cpp
; File C:\Program Files\Microsoft Visual Studio\2022\Community\VC\Tools\MSVC\14.34.31933\include\type_traits
; File C:\Users\flourine\Desktop\Xantios\client-src\Code\EterLib\CWikiRenderTargetManager.cpp
; File C:\Program Files\Microsoft Visual Studio\2022\Community\VC\Tools\MSVC\14.34.31933\include\type_traits
; File C:\Program Files\Microsoft Visual Studio\2022\Community\VC\Tools\MSVC\14.34.31933\include\xhash
; File C:\Program Files\Microsoft Visual Studio\2022\Community\VC\Tools\MSVC\14.34.31933\include\list
; File C:\Users\flourine\Desktop\Xantios\client-src\Code\EterLib\CWikiRenderTargetManager.cpp
; File C:\Program Files\Microsoft Visual Studio\2022\Community\VC\Tools\MSVC\14.34.31933\include\memory
; File C:\Users\flourine\Desktop\Xantios\client-src\Code\EterLib\CWikiRenderTargetManager.cpp
; File C:\Program Files\Microsoft Visual Studio\2022\Community\VC\Tools\MSVC\14.34.31933\include\memory
; File C:\Users\flourine\Desktop\Xantios\client-src\Code\EterLib\CWikiRenderTargetManager.cpp
; File C:\Program Files\Microsoft Visual Studio\2022\Community\VC\Tools\MSVC\14.34.31933\include\memory
; File C:\Users\flourine\Desktop\Xantios\client-src\Code\EterLib\CWikiRenderTargetManager.cpp
;	COMDAT ?GetRenderTarget@CWikiRenderTargetManager@@QAE?AV?$shared_ptr@VCWikiRenderTarget@@@std@@H@Z
_TEXT	SEGMENT
$T1 = -12						; size = 8
___$ReturnUdt$ = 8					; size = 4
_module_id$ = 12					; size = 4
?GetRenderTarget@CWikiRenderTargetManager@@QAE?AV?$shared_ptr@VCWikiRenderTarget@@@std@@H@Z PROC ; CWikiRenderTargetManager::GetRenderTarget, COMDAT
; _this$ = ecx

; 15   : {

  00000	55		 push	 ebp
  00001	8b ec		 mov	 ebp, esp
  00003	83 ec 0c	 sub	 esp, 12			; 0000000cH
; File C:\Program Files\Microsoft Visual Studio\2022\Community\VC\Tools\MSVC\14.34.31933\include\type_traits

; 2183 :         return _Hash_representation(_Keyval);

  00006	8d 45 0c	 lea	 eax, DWORD PTR _module_id$[ebp]
; File C:\Users\flourine\Desktop\Xantios\client-src\Code\EterLib\CWikiRenderTargetManager.cpp

; 15   : {

  00009	56		 push	 esi
  0000a	57		 push	 edi
; File C:\Program Files\Microsoft Visual Studio\2022\Community\VC\Tools\MSVC\14.34.31933\include\type_traits

; 2183 :         return _Hash_representation(_Keyval);

  0000b	50		 push	 eax
; File C:\Users\flourine\Desktop\Xantios\client-src\Code\EterLib\CWikiRenderTargetManager.cpp

; 15   : {

  0000c	8b f1		 mov	 esi, ecx
; File C:\Program Files\Microsoft Visual Studio\2022\Community\VC\Tools\MSVC\14.34.31933\include\type_traits

; 2183 :         return _Hash_representation(_Keyval);

  0000e	e8 00 00 00 00	 call	 ??$_Hash_representation@H@std@@YAIABH@Z ; std::_Hash_representation<int>
  00013	83 c4 04	 add	 esp, 4
; File C:\Program Files\Microsoft Visual Studio\2022\Community\VC\Tools\MSVC\14.34.31933\include\xhash

; 1215 :             auto _Target = _Find_last(_Keyval, _Hashval)._Duplicate;

  00016	8d 4e 04	 lea	 ecx, DWORD PTR [esi+4]
  00019	50		 push	 eax
  0001a	8d 45 0c	 lea	 eax, DWORD PTR _module_id$[ebp]
  0001d	50		 push	 eax
  0001e	8d 45 f4	 lea	 eax, DWORD PTR $T1[ebp]
  00021	50		 push	 eax
  00022	e8 00 00 00 00	 call	 ??$_Find_last@H@?$_Hash@V?$_Umap_traits@HV?$shared_ptr@VCWikiRenderTarget@@@std@@V?$_Uhash_compare@HU?$hash@H@std@@U?$equal_to@H@2@@2@V?$allocator@U?$pair@$$CBHV?$shared_ptr@VCWikiRenderTarget@@@std@@@std@@@2@$0A@@std@@@std@@IBE?AU?$_Hash_find_last_result@PAU?$_List_node@U?$pair@$$CBHV?$shared_ptr@VCWikiRenderTarget@@@std@@@std@@PAX@std@@@1@ABHI@Z ; std::_Hash<std::_Umap_traits<int,std::shared_ptr<CWikiRenderTarget>,std::_Uhash_compare<int,std::hash<int>,std::equal_to<int> >,std::allocator<std::pair<int const ,std::shared_ptr<CWikiRenderTarget> > >,0> >::_Find_last<int>
  00027	8b 40 04	 mov	 eax, DWORD PTR [eax+4]

; 1216 :             if (_Target) {

  0002a	85 c0		 test	 eax, eax
  0002c	75 03		 jne	 SHORT $LN14@GetRenderT

; 1217 :                 return _Target;
; 1218 :             }
; 1219 : 
; 1220 :             return _List._Mypair._Myval2._Myhead;

  0002e	8b 46 08	 mov	 eax, DWORD PTR [esi+8]
$LN14@GetRenderT:
; File C:\Program Files\Microsoft Visual Studio\2022\Community\VC\Tools\MSVC\14.34.31933\include\list

; 38   :     _List_unchecked_const_iterator(_Nodeptr _Pnode, const _Mylist* _Plist) noexcept : _Ptr(_Pnode) {

  00031	3b 46 08	 cmp	 eax, DWORD PTR [esi+8]
  00034	5f		 pop	 edi
  00035	5e		 pop	 esi
; File C:\Users\flourine\Desktop\Xantios\client-src\Code\EterLib\CWikiRenderTargetManager.cpp

; 17   : 	if (it != m_renderTargets.end())

  00036	74 2e		 je	 SHORT $LN2@GetRenderT
; File C:\Program Files\Microsoft Visual Studio\2022\Community\VC\Tools\MSVC\14.34.31933\include\memory

; 1402 :     element_type* _Ptr{nullptr};

  00038	8b 55 08	 mov	 edx, DWORD PTR ___$ReturnUdt$[ebp]

; 1328 :         if (_Rep) {

  0003b	8b 48 10	 mov	 ecx, DWORD PTR [eax+16]

; 1402 :     element_type* _Ptr{nullptr};

  0003e	c7 02 00 00 00
	00		 mov	 DWORD PTR [edx], 0

; 1403 :     _Ref_count_base* _Rep{nullptr};

  00044	c7 42 04 00 00
	00 00		 mov	 DWORD PTR [edx+4], 0

; 1328 :         if (_Rep) {

  0004b	85 c9		 test	 ecx, ecx
  0004d	74 04		 je	 SHORT $LN55@GetRenderT

; 1101 :         _MT_INCR(_Uses);

  0004f	f0 ff 41 04	 lock	  inc	 DWORD PTR [ecx+4]
$LN55@GetRenderT:

; 1289 :         _Ptr = _Other._Ptr;

  00053	8b 48 0c	 mov	 ecx, DWORD PTR [eax+12]
  00056	89 0a		 mov	 DWORD PTR [edx], ecx

; 1290 :         _Rep = _Other._Rep;

  00058	8b 48 10	 mov	 ecx, DWORD PTR [eax+16]
; File C:\Users\flourine\Desktop\Xantios\client-src\Code\EterLib\CWikiRenderTargetManager.cpp

; 19   : 		return it->second;

  0005b	8b c2		 mov	 eax, edx
; File C:\Program Files\Microsoft Visual Studio\2022\Community\VC\Tools\MSVC\14.34.31933\include\memory

; 1290 :         _Rep = _Other._Rep;

  0005d	89 4a 04	 mov	 DWORD PTR [edx+4], ecx
; File C:\Users\flourine\Desktop\Xantios\client-src\Code\EterLib\CWikiRenderTargetManager.cpp

; 23   : }

  00060	8b e5		 mov	 esp, ebp
  00062	5d		 pop	 ebp
  00063	c2 08 00	 ret	 8
$LN2@GetRenderT:
; File C:\Program Files\Microsoft Visual Studio\2022\Community\VC\Tools\MSVC\14.34.31933\include\memory

; 1402 :     element_type* _Ptr{nullptr};

  00066	8b 45 08	 mov	 eax, DWORD PTR ___$ReturnUdt$[ebp]
  00069	c7 00 00 00 00
	00		 mov	 DWORD PTR [eax], 0

; 1403 :     _Ref_count_base* _Rep{nullptr};

  0006f	c7 40 04 00 00
	00 00		 mov	 DWORD PTR [eax+4], 0
; File C:\Users\flourine\Desktop\Xantios\client-src\Code\EterLib\CWikiRenderTargetManager.cpp

; 23   : }

  00076	8b e5		 mov	 esp, ebp
  00078	5d		 pop	 ebp
  00079	c2 08 00	 ret	 8
?GetRenderTarget@CWikiRenderTargetManager@@QAE?AV?$shared_ptr@VCWikiRenderTarget@@@std@@H@Z ENDP ; CWikiRenderTargetManager::GetRenderTarget
_TEXT	ENDS
; Function compile flags: /Ogtp
; File C:\Users\flourine\Desktop\Xantios\client-src\Code\EterLib\CWikiRenderTargetManager.cpp
; File C:\Users\flourine\Desktop\Xantios\client-src\Code\EterLib\CWikiRenderTargetManager.h
; File C:\Users\flourine\Desktop\Xantios\client-src\Code\EterLib\CWikiRenderTargetManager.cpp
; File C:\Users\flourine\Desktop\Xantios\client-src\Code\EterLib\CWikiRenderTargetManager.h
; File C:\Users\flourine\Desktop\Xantios\client-src\Code\EterBase\Singleton.h
; File C:\Users\flourine\Desktop\Xantios\client-src\Code\EterLib\CWikiRenderTargetManager.cpp
;	COMDAT ??1CWikiRenderTargetManager@@UAE@XZ
_TEXT	SEGMENT
??1CWikiRenderTargetManager@@UAE@XZ PROC		; CWikiRenderTargetManager::~CWikiRenderTargetManager, COMDAT
; _this$ = ecx

; 7    : CWikiRenderTargetManager::~CWikiRenderTargetManager() { InitializeData(); }

  00000	56		 push	 esi
  00001	57		 push	 edi
  00002	8b f9		 mov	 edi, ecx
; File C:\Users\flourine\Desktop\Xantios\client-src\Code\EterLib\CWikiRenderTargetManager.h

; 16   : 	void InitializeData() { m_renderTargets.clear(); }

  00004	8d 4f 04	 lea	 ecx, DWORD PTR [edi+4]
; File C:\Users\flourine\Desktop\Xantios\client-src\Code\EterLib\CWikiRenderTargetManager.cpp

; 7    : CWikiRenderTargetManager::~CWikiRenderTargetManager() { InitializeData(); }

  00007	c7 07 00 00 00
	00		 mov	 DWORD PTR [edi], OFFSET ??_7CWikiRenderTargetManager@@6B@
; File C:\Users\flourine\Desktop\Xantios\client-src\Code\EterLib\CWikiRenderTargetManager.h

; 16   : 	void InitializeData() { m_renderTargets.clear(); }

  0000d	e8 00 00 00 00	 call	 ?clear@?$_Hash@V?$_Umap_traits@HV?$shared_ptr@VCWikiRenderTarget@@@std@@V?$_Uhash_compare@HU?$hash@H@std@@U?$equal_to@H@2@@2@V?$allocator@U?$pair@$$CBHV?$shared_ptr@VCWikiRenderTarget@@@std@@@std@@@2@$0A@@std@@@std@@QAEXXZ ; std::_Hash<std::_Umap_traits<int,std::shared_ptr<CWikiRenderTarget>,std::_Uhash_compare<int,std::hash<int>,std::equal_to<int> >,std::allocator<std::pair<int const ,std::shared_ptr<CWikiRenderTarget> > >,0> >::clear
  00012	8d 4f 04	 lea	 ecx, DWORD PTR [edi+4]
  00015	e8 00 00 00 00	 call	 ??1?$_Hash@V?$_Umap_traits@HV?$shared_ptr@VCWikiRenderTarget@@@std@@V?$_Uhash_compare@HU?$hash@H@std@@U?$equal_to@H@2@@2@V?$allocator@U?$pair@$$CBHV?$shared_ptr@VCWikiRenderTarget@@@std@@@std@@@2@$0A@@std@@@std@@QAE@XZ
; File C:\Users\flourine\Desktop\Xantios\client-src\Code\EterBase\Singleton.h

; 19   : 	{

  0001a	c7 07 00 00 00
	00		 mov	 DWORD PTR [edi], OFFSET ??_7?$CSingleton@VCWikiRenderTargetManager@@@@6B@

; 20   : 		assert(ms_singleton);
; 21   : 		ms_singleton = 0;

  00020	5f		 pop	 edi
  00021	c7 05 00 00 00
	00 00 00 00 00	 mov	 DWORD PTR ?ms_singleton@?$CSingleton@VCWikiRenderTargetManager@@@@0PAVCWikiRenderTargetManager@@A, 0 ; CSingleton<CWikiRenderTargetManager>::ms_singleton
  0002b	5e		 pop	 esi
; File C:\Users\flourine\Desktop\Xantios\client-src\Code\EterLib\CWikiRenderTargetManager.cpp

; 7    : CWikiRenderTargetManager::~CWikiRenderTargetManager() { InitializeData(); }

  0002c	c3		 ret	 0
??1CWikiRenderTargetManager@@UAE@XZ ENDP		; CWikiRenderTargetManager::~CWikiRenderTargetManager
_TEXT	ENDS
; Function compile flags: /Ogtp
; File C:\Users\flourine\Desktop\Xantios\client-src\Code\EterLib\CWikiRenderTargetManager.cpp
; File C:\Users\flourine\Desktop\Xantios\client-src\Code\EterBase\Singleton.h
; File C:\Users\flourine\Desktop\Xantios\client-src\Code\EterLib\CWikiRenderTargetManager.cpp
; File C:\Program Files\Microsoft Visual Studio\2022\Community\VC\Tools\MSVC\14.34.31933\include\unordered_map
; File C:\Program Files\Microsoft Visual Studio\2022\Community\VC\Tools\MSVC\14.34.31933\include\xmemory
; File C:\Users\flourine\Desktop\Xantios\client-src\Code\EterLib\CWikiRenderTargetManager.cpp
; File C:\Program Files\Microsoft Visual Studio\2022\Community\VC\Tools\MSVC\14.34.31933\include\list
; File C:\Program Files\Microsoft Visual Studio\2022\Community\VC\Tools\MSVC\14.34.31933\include\xmemory
; File C:\Program Files\Microsoft Visual Studio\2022\Community\VC\Tools\MSVC\14.34.31933\include\list
; File C:\Program Files\Microsoft Visual Studio\2022\Community\VC\Tools\MSVC\14.34.31933\include\vector
; File C:\Program Files\Microsoft Visual Studio\2022\Community\VC\Tools\MSVC\14.34.31933\include\xhash
; File C:\Program Files\Microsoft Visual Studio\2022\Community\VC\Tools\MSVC\14.34.31933\include\xmemory
; File C:\Program Files\Microsoft Visual Studio\2022\Community\VC\Tools\MSVC\14.34.31933\include\xhash
; File C:\Program Files\Microsoft Visual Studio\2022\Community\VC\Tools\MSVC\14.34.31933\include\xmemory
; File C:\Program Files\Microsoft Visual Studio\2022\Community\VC\Tools\MSVC\14.34.31933\include\xhash
; File C:\Program Files\Microsoft Visual Studio\2022\Community\VC\Tools\MSVC\14.34.31933\include\xmemory
; File C:\Program Files\Microsoft Visual Studio\2022\Community\VC\Tools\MSVC\14.34.31933\include\xhash
; File C:\Program Files\Microsoft Visual Studio\2022\Community\VC\Tools\MSVC\14.34.31933\include\xmemory
; File C:\Program Files\Microsoft Visual Studio\2022\Community\VC\Tools\MSVC\14.34.31933\include\xhash
; File C:\Program Files\Microsoft Visual Studio\2022\Community\VC\Tools\MSVC\14.34.31933\include\xutility
; File C:\Program Files\Microsoft Visual Studio\2022\Community\VC\Tools\MSVC\14.34.31933\include\xhash
; File C:\Users\flourine\Desktop\Xantios\client-src\Code\EterLib\CWikiRenderTargetManager.cpp
; File C:\Program Files\Microsoft Visual Studio\2022\Community\VC\Tools\MSVC\14.34.31933\include\list
; File C:\Program Files\Microsoft Visual Studio\2022\Community\VC\Tools\MSVC\14.34.31933\include\xutility
; File C:\Program Files\Microsoft Visual Studio\2022\Community\VC\Tools\MSVC\14.34.31933\include\xhash
; File C:\Program Files\Microsoft Visual Studio\2022\Community\VC\Tools\MSVC\14.34.31933\include\list
; File C:\Program Files\Microsoft Visual Studio\2022\Community\VC\Tools\MSVC\14.34.31933\include\xhash
; File C:\Program Files\Microsoft Visual Studio\2022\Community\VC\Tools\MSVC\14.34.31933\include\xutility
; File C:\Program Files\Microsoft Visual Studio\2022\Community\VC\Tools\MSVC\14.34.31933\include\xhash
; File C:\Users\flourine\Desktop\Xantios\client-src\Code\EterLib\CWikiRenderTargetManager.cpp
; File C:\Program Files\Microsoft Visual Studio\2022\Community\VC\Tools\MSVC\14.34.31933\include\xmemory
; File C:\Users\flourine\Desktop\Xantios\client-src\Code\EterLib\CWikiRenderTargetManager.cpp
;	COMDAT ??0CWikiRenderTargetManager@@QAE@XZ
_TEXT	SEGMENT
_this$ = -24						; size = 4
__Val$ = -20						; size = 4
_this$ = -16						; size = 4
__$EHRec$ = -12						; size = 12
??0CWikiRenderTargetManager@@QAE@XZ PROC		; CWikiRenderTargetManager::CWikiRenderTargetManager, COMDAT
; _this$ = ecx

; 8    : CWikiRenderTargetManager::CWikiRenderTargetManager() { InitializeData(); }

  00000	55		 push	 ebp
  00001	8b ec		 mov	 ebp, esp
  00003	6a ff		 push	 -1
  00005	68 00 00 00 00	 push	 __ehhandler$??0CWikiRenderTargetManager@@QAE@XZ
  0000a	64 a1 00 00 00
	00		 mov	 eax, DWORD PTR fs:0
  00010	50		 push	 eax
  00011	83 ec 0c	 sub	 esp, 12			; 0000000cH
  00014	53		 push	 ebx
  00015	56		 push	 esi
  00016	57		 push	 edi
  00017	a1 00 00 00 00	 mov	 eax, DWORD PTR ___security_cookie
  0001c	33 c5		 xor	 eax, ebp
  0001e	50		 push	 eax
  0001f	8d 45 f4	 lea	 eax, DWORD PTR __$EHRec$[ebp]
  00022	64 a3 00 00 00
	00		 mov	 DWORD PTR fs:0, eax
  00028	8b d9		 mov	 ebx, ecx
  0002a	89 5d f0	 mov	 DWORD PTR _this$[ebp], ebx
; File C:\Users\flourine\Desktop\Xantios\client-src\Code\EterBase\Singleton.h

; 15   : 		ms_singleton = (T*) ((int) this + offset);

  0002d	89 1d 00 00 00
	00		 mov	 DWORD PTR ?ms_singleton@?$CSingleton@VCWikiRenderTargetManager@@@@0PAVCWikiRenderTargetManager@@A, ebx ; CSingleton<CWikiRenderTargetManager>::ms_singleton
; File C:\Users\flourine\Desktop\Xantios\client-src\Code\EterLib\CWikiRenderTargetManager.cpp

; 8    : CWikiRenderTargetManager::CWikiRenderTargetManager() { InitializeData(); }

  00033	8d 73 04	 lea	 esi, DWORD PTR [ebx+4]
  00036	c7 03 00 00 00
	00		 mov	 DWORD PTR [ebx], OFFSET ??_7CWikiRenderTargetManager@@6B@
  0003c	89 75 e8	 mov	 DWORD PTR _this$[ebp], esi
; File C:\Program Files\Microsoft Visual Studio\2022\Community\VC\Tools\MSVC\14.34.31933\include\unordered_map

; 50   :     explicit _Umap_traits(const _Tr& _Traits) noexcept(is_nothrow_copy_constructible_v<_Tr>) : _Tr(_Traits) {}

  0003f	c7 06 00 00 00
	00		 mov	 DWORD PTR [esi], 0
; File C:\Program Files\Microsoft Visual Studio\2022\Community\VC\Tools\MSVC\14.34.31933\include\xmemory

; 77   :         return ::operator new(_Bytes);

  00045	6a 14		 push	 20			; 00000014H
; File C:\Users\flourine\Desktop\Xantios\client-src\Code\EterLib\CWikiRenderTargetManager.cpp

; 8    : CWikiRenderTargetManager::CWikiRenderTargetManager() { InitializeData(); }

  00047	c7 45 fc 00 00
	00 00		 mov	 DWORD PTR __$EHRec$[ebp+8], 0
; File C:\Program Files\Microsoft Visual Studio\2022\Community\VC\Tools\MSVC\14.34.31933\include\list

; 354  :     _List_val() noexcept : _Myhead(), _Mysize(0) {} // initialize data

  0004e	c7 46 04 00 00
	00 00		 mov	 DWORD PTR [esi+4], 0
  00055	c7 46 08 00 00
	00 00		 mov	 DWORD PTR [esi+8], 0
; File C:\Program Files\Microsoft Visual Studio\2022\Community\VC\Tools\MSVC\14.34.31933\include\xmemory

; 77   :         return ::operator new(_Bytes);

  0005c	e8 00 00 00 00	 call	 ??2@YAPAXI@Z		; operator new
  00061	83 c4 04	 add	 esp, 4
; File C:\Program Files\Microsoft Visual Studio\2022\Community\VC\Tools\MSVC\14.34.31933\include\list

; 1834 :         _Construct_in_place(_Newhead->_Next, _Newhead);

  00064	89 00		 mov	 DWORD PTR [eax], eax

; 1835 :         _Construct_in_place(_Newhead->_Prev, _Newhead);

  00066	89 40 04	 mov	 DWORD PTR [eax+4], eax

; 1836 :         _Mypair._Myval2._Myhead = _Newhead;

  00069	89 46 04	 mov	 DWORD PTR [esi+4], eax
; File C:\Program Files\Microsoft Visual Studio\2022\Community\VC\Tools\MSVC\14.34.31933\include\vector

; 390  :     _CONSTEXPR20 _Vector_val() noexcept : _Myfirst(), _Mylast(), _Myend() {}

  0006c	c7 46 0c 00 00
	00 00		 mov	 DWORD PTR [esi+12], 0
  00073	c7 46 10 00 00
	00 00		 mov	 DWORD PTR [esi+16], 0
  0007a	c7 46 14 00 00
	00 00		 mov	 DWORD PTR [esi+20], 0
; File C:\Program Files\Microsoft Visual Studio\2022\Community\VC\Tools\MSVC\14.34.31933\include\xhash

; 375  :         : _Traitsobj(_Parg), _List(_Al), _Vec(_Al), _Mask(_Min_buckets - 1), _Maxidx(_Min_buckets) {

  00081	c7 46 18 07 00
	00 00		 mov	 DWORD PTR [esi+24], 7
  00088	c7 46 1c 08 00
	00 00		 mov	 DWORD PTR [esi+28], 8

; 376  :         // construct empty hash table
; 377  :         _Max_bucket_size() = _Bucket_size;

  0008f	c7 06 00 00 80
	3f		 mov	 DWORD PTR [esi], 1065353216 ; 3f800000H

; 272  :         return static_cast<size_type>(_Mypair._Myval2._Mylast - _Mypair._Myval2._Myfirst);

  00095	8b 56 10	 mov	 edx, DWORD PTR [esi+16]
  00098	8b ca		 mov	 ecx, edx
  0009a	c1 f9 02	 sar	 ecx, 2

; 375  :         : _Traitsobj(_Parg), _List(_Al), _Vec(_Al), _Mask(_Min_buckets - 1), _Maxidx(_Min_buckets) {

  0009d	c6 45 fc 02	 mov	 BYTE PTR __$EHRec$[ebp+8], 2

; 378  :         _Vec._Assign_grow(_Min_buckets * 2, _List._Unchecked_end());

  000a1	89 45 ec	 mov	 DWORD PTR __Val$[ebp], eax

; 291  :         if (_Oldsize < _Cells) {

  000a4	83 f9 10	 cmp	 ecx, 16			; 00000010H
  000a7	73 65		 jae	 SHORT $LN58@CWikiRende
; File C:\Program Files\Microsoft Visual Studio\2022\Community\VC\Tools\MSVC\14.34.31933\include\xmemory

; 77   :         return ::operator new(_Bytes);

  000a9	6a 40		 push	 64			; 00000040H
  000ab	e8 00 00 00 00	 call	 ??2@YAPAXI@Z		; operator new
; File C:\Program Files\Microsoft Visual Studio\2022\Community\VC\Tools\MSVC\14.34.31933\include\xhash

; 283  :         return static_cast<size_type>(_Mypair._Myval2._Myend - _Mypair._Myval2._Myfirst);

  000b0	8b 56 14	 mov	 edx, DWORD PTR [esi+20]
; File C:\Program Files\Microsoft Visual Studio\2022\Community\VC\Tools\MSVC\14.34.31933\include\xmemory

; 77   :         return ::operator new(_Bytes);

  000b3	83 c4 04	 add	 esp, 4
; File C:\Program Files\Microsoft Visual Studio\2022\Community\VC\Tools\MSVC\14.34.31933\include\xhash

; 283  :         return static_cast<size_type>(_Mypair._Myval2._Myend - _Mypair._Myval2._Myfirst);

  000b6	8b 4e 0c	 mov	 ecx, DWORD PTR [esi+12]
; File C:\Program Files\Microsoft Visual Studio\2022\Community\VC\Tools\MSVC\14.34.31933\include\xmemory

; 235  :         return _Traits::_Allocate(_Bytes);

  000b9	8b f8		 mov	 edi, eax
; File C:\Program Files\Microsoft Visual Studio\2022\Community\VC\Tools\MSVC\14.34.31933\include\xhash

; 283  :         return static_cast<size_type>(_Mypair._Myval2._Myend - _Mypair._Myval2._Myfirst);

  000bb	2b d1		 sub	 edx, ecx
  000bd	c1 fa 02	 sar	 edx, 2

; 295  :             if (_Oldcapacity != 0) {

  000c0	85 d2		 test	 edx, edx
  000c2	74 2e		 je	 SHORT $LN88@CWikiRende
; File C:\Program Files\Microsoft Visual Studio\2022\Community\VC\Tools\MSVC\14.34.31933\include\xmemory

; 830  :         _Deallocate<_New_alignof<_Ty>>(_Ptr, sizeof(_Ty) * _Count);

  000c4	c1 e2 02	 shl	 edx, 2

; 251  :         if (_Bytes >= _Big_allocation_threshold) { // boost the alignment of big allocations to help autovectorization

  000c7	81 fa 00 10 00
	00		 cmp	 edx, 4096		; 00001000H
  000cd	72 19		 jb	 SHORT $LN98@CWikiRende

; 150  :     const uintptr_t _Ptr_container   = _Ptr_user[-1];

  000cf	8b 59 fc	 mov	 ebx, DWORD PTR [ecx-4]
  000d2	83 c2 23	 add	 edx, 35			; 00000023H

; 151  : 
; 152  :     // If the following asserts, it likely means that we are performing
; 153  :     // an aligned delete on memory coming from an unaligned allocation.
; 154  :     _STL_ASSERT(_Ptr_user[-2] == _Big_allocation_sentinel, "invalid argument");
; 155  : 
; 156  :     // Extra paranoia on aligned allocation/deallocation; ensure _Ptr_container is
; 157  :     // in range [_Min_back_shift, _Non_user_size]
; 158  : #ifdef _DEBUG
; 159  :     constexpr uintptr_t _Min_back_shift = 2 * sizeof(void*);
; 160  : #else // ^^^ _DEBUG ^^^ // vvv !_DEBUG vvv
; 161  :     constexpr uintptr_t _Min_back_shift = sizeof(void*);
; 162  : #endif // _DEBUG
; 163  :     const uintptr_t _Back_shift = reinterpret_cast<uintptr_t>(_Ptr) - _Ptr_container;

  000d5	2b cb		 sub	 ecx, ebx

; 164  :     _STL_VERIFY(_Back_shift >= _Min_back_shift && _Back_shift <= _Non_user_size, "invalid argument");

  000d7	8d 41 fc	 lea	 eax, DWORD PTR [ecx-4]
  000da	83 f8 1f	 cmp	 eax, 31			; 0000001fH
  000dd	0f 87 bb 00 00
	00		 ja	 $LN95@CWikiRende

; 165  :     _Ptr = reinterpret_cast<void*>(_Ptr_container);

  000e3	8b cb		 mov	 ecx, ebx
  000e5	8b 5d f0	 mov	 ebx, DWORD PTR _this$[ebp]
$LN98@CWikiRende:

; 255  :         ::operator delete(_Ptr, _Bytes);

  000e8	52		 push	 edx
  000e9	51		 push	 ecx
  000ea	e8 00 00 00 00	 call	 ??3@YAXPAXI@Z		; operator delete
  000ef	83 c4 08	 add	 esp, 8
$LN88@CWikiRende:
; File C:\Program Files\Microsoft Visual Studio\2022\Community\VC\Tools\MSVC\14.34.31933\include\xhash

; 301  :             const auto _Newend       = _Newvec + _Cells;

  000f2	8d 47 40	 lea	 eax, DWORD PTR [edi+64]
  000f5	89 7e 0c	 mov	 DWORD PTR [esi+12], edi

; 302  :             _Mypair._Myval2._Mylast  = _Newend;
; 303  :             _Mypair._Myval2._Myend   = _Newend;
; 304  :             _STD uninitialized_fill(_Newvec, _Newend, _Val);

  000f8	8d 4d ec	 lea	 ecx, DWORD PTR __Val$[ebp]
  000fb	89 46 10	 mov	 DWORD PTR [esi+16], eax
  000fe	51		 push	 ecx
  000ff	50		 push	 eax
  00100	57		 push	 edi
  00101	89 46 14	 mov	 DWORD PTR [esi+20], eax
  00104	e8 00 00 00 00	 call	 ??$uninitialized_fill@PAV?$_List_unchecked_iterator@V?$_List_val@U?$_List_simple_types@U?$pair@$$CBHV?$shared_ptr@VCWikiRenderTarget@@@std@@@std@@@std@@@std@@@std@@V12@@std@@YAXQAV?$_List_unchecked_iterator@V?$_List_val@U?$_List_simple_types@U?$pair@$$CBHV?$shared_ptr@VCWikiRenderTarget@@@std@@@std@@@std@@@std@@@0@0ABV10@@Z ; std::uninitialized_fill<std::_List_unchecked_iterator<std::_List_val<std::_List_simple_types<std::pair<int const ,std::shared_ptr<CWikiRenderTarget> > > > > *,std::_List_unchecked_iterator<std::_List_val<std::_List_simple_types<std::pair<int const ,std::shared_ptr<CWikiRenderTarget> > > > > >
  00109	83 c4 0c	 add	 esp, 12			; 0000000cH

; 305  :         } else {

  0010c	eb 0e		 jmp	 SHORT $LN81@CWikiRende
$LN58@CWikiRende:

; 306  :             _STD fill(_Mypair._Myval2._Myfirst, _Mypair._Myval2._Mylast, _Val);

  0010e	8d 4a 03	 lea	 ecx, DWORD PTR [edx+3]
  00111	c1 e9 02	 shr	 ecx, 2
; File C:\Program Files\Microsoft Visual Studio\2022\Community\VC\Tools\MSVC\14.34.31933\include\xutility

; 4369 :         for (; _UFirst != _ULast; ++_UFirst) {

  00114	85 c9		 test	 ecx, ecx
  00116	74 04		 je	 SHORT $LN81@CWikiRende
; File C:\Program Files\Microsoft Visual Studio\2022\Community\VC\Tools\MSVC\14.34.31933\include\xhash

; 306  :             _STD fill(_Mypair._Myval2._Myfirst, _Mypair._Myval2._Mylast, _Val);

  00118	33 ff		 xor	 edi, edi
  0011a	f3 ab		 rep stosd
$LN81@CWikiRende:

; 1157 :         const auto _Oldsize = _List._Mypair._Myval2._Mysize;

  0011c	8b 4e 08	 mov	 ecx, DWORD PTR [esi+8]

; 1158 :         if (_Oldsize == 0) {

  0011f	85 c9		 test	 ecx, ecx
  00121	74 67		 je	 SHORT $LN121@CWikiRende

; 1159 :             return;
; 1160 :         }
; 1161 : 
; 1162 :         if constexpr (_Nothrow_hash<_Traits, key_type>) {
; 1163 :             // In testing, hash<size_t>{}(size_t{}) takes about 14 times as much time as assigning a pointer, or
; 1164 :             // ~7-8 times as much as clearing a bucket. Therefore, if we would need to assign over more than 8 times
; 1165 :             // as many buckets as elements, remove element-by-element.
; 1166 :             if (bucket_count() / 8 > _Oldsize) {

  00123	8b 46 1c	 mov	 eax, DWORD PTR [esi+28]
  00126	8d 7e 04	 lea	 edi, DWORD PTR [esi+4]
  00129	c1 e8 03	 shr	 eax, 3
  0012c	3b c1		 cmp	 eax, ecx
  0012e	76 20		 jbe	 SHORT $LN107@CWikiRende

; 1167 :                 const auto _Head = _List._Mypair._Myval2._Myhead;

  00130	8b 07		 mov	 eax, DWORD PTR [edi]

; 1168 :                 _Unchecked_erase(_Head->_Next, _Head);

  00132	8b ce		 mov	 ecx, esi
  00134	50		 push	 eax
  00135	ff 30		 push	 DWORD PTR [eax]
  00137	e8 00 00 00 00	 call	 ?_Unchecked_erase@?$_Hash@V?$_Umap_traits@HV?$shared_ptr@VCWikiRenderTarget@@@std@@V?$_Uhash_compare@HU?$hash@H@std@@U?$equal_to@H@2@@2@V?$allocator@U?$pair@$$CBHV?$shared_ptr@VCWikiRenderTarget@@@std@@@std@@@2@$0A@@std@@@std@@AAEPAU?$_List_node@U?$pair@$$CBHV?$shared_ptr@VCWikiRenderTarget@@@std@@@std@@PAX@2@PAU32@QAU32@@Z ; std::_Hash<std::_Umap_traits<int,std::shared_ptr<CWikiRenderTarget>,std::_Uhash_compare<int,std::hash<int>,std::equal_to<int> >,std::allocator<std::pair<int const ,std::shared_ptr<CWikiRenderTarget> > >,0> >::_Unchecked_erase
; File C:\Users\flourine\Desktop\Xantios\client-src\Code\EterLib\CWikiRenderTargetManager.cpp

; 8    : CWikiRenderTargetManager::CWikiRenderTargetManager() { InitializeData(); }

  0013c	8b c3		 mov	 eax, ebx
  0013e	8b 4d f4	 mov	 ecx, DWORD PTR __$EHRec$[ebp]
  00141	64 89 0d 00 00
	00 00		 mov	 DWORD PTR fs:0, ecx
  00148	59		 pop	 ecx
  00149	5f		 pop	 edi
  0014a	5e		 pop	 esi
  0014b	5b		 pop	 ebx
  0014c	8b e5		 mov	 esp, ebp
  0014e	5d		 pop	 ebp
  0014f	c3		 ret	 0
$LN107@CWikiRende:
; File C:\Program Files\Microsoft Visual Studio\2022\Community\VC\Tools\MSVC\14.34.31933\include\list

; 1487 :         _Node::_Free_non_head(_Getal(), _My_data._Myhead);

  00150	ff 37		 push	 DWORD PTR [edi]
  00152	57		 push	 edi
  00153	e8 00 00 00 00	 call	 ??$_Free_non_head@V?$allocator@U?$_List_node@U?$pair@$$CBHV?$shared_ptr@VCWikiRenderTarget@@@std@@@std@@PAX@std@@@std@@@?$_List_node@U?$pair@$$CBHV?$shared_ptr@VCWikiRenderTarget@@@std@@@std@@PAX@std@@SAXAAV?$allocator@U?$_List_node@U?$pair@$$CBHV?$shared_ptr@VCWikiRenderTarget@@@std@@@std@@PAX@std@@@1@PAU01@@Z ; std::_List_node<std::pair<int const ,std::shared_ptr<CWikiRenderTarget> >,void *>::_Free_non_head<std::allocator<std::_List_node<std::pair<int const ,std::shared_ptr<CWikiRenderTarget> >,void *> > >

; 1488 :         _My_data._Myhead->_Next = _My_data._Myhead;

  00158	8b 07		 mov	 eax, DWORD PTR [edi]
  0015a	83 c4 08	 add	 esp, 8
  0015d	89 00		 mov	 DWORD PTR [eax], eax

; 1489 :         _My_data._Myhead->_Prev = _My_data._Myhead;

  0015f	8b 07		 mov	 eax, DWORD PTR [edi]
  00161	89 40 04	 mov	 DWORD PTR [eax+4], eax

; 1490 :         _My_data._Mysize        = 0;

  00164	c7 47 04 00 00
	00 00		 mov	 DWORD PTR [edi+4], 0
; File C:\Program Files\Microsoft Visual Studio\2022\Community\VC\Tools\MSVC\14.34.31933\include\xutility

; 4353 :         const auto _ULast = _Get_unwrapped(_Last);

  0016b	8b 56 10	 mov	 edx, DWORD PTR [esi+16]
; File C:\Program Files\Microsoft Visual Studio\2022\Community\VC\Tools\MSVC\14.34.31933\include\xhash

; 1174 :         _List.clear();

  0016e	8b ca		 mov	 ecx, edx
; File C:\Program Files\Microsoft Visual Studio\2022\Community\VC\Tools\MSVC\14.34.31933\include\list

; 38   :     _List_unchecked_const_iterator(_Nodeptr _Pnode, const _Mylist* _Plist) noexcept : _Ptr(_Pnode) {

  00170	8b 07		 mov	 eax, DWORD PTR [edi]
; File C:\Program Files\Microsoft Visual Studio\2022\Community\VC\Tools\MSVC\14.34.31933\include\xhash

; 1175 :         _STD fill(_Vec._Mypair._Myval2._Myfirst, _Vec._Mypair._Myval2._Mylast, _Unchecked_end());

  00172	8b 7e 0c	 mov	 edi, DWORD PTR [esi+12]
  00175	2b cf		 sub	 ecx, edi
  00177	83 c1 03	 add	 ecx, 3
  0017a	33 f6		 xor	 esi, esi
  0017c	c1 e9 02	 shr	 ecx, 2
  0017f	3b fa		 cmp	 edi, edx
  00181	0f 47 ce	 cmova	 ecx, esi
; File C:\Program Files\Microsoft Visual Studio\2022\Community\VC\Tools\MSVC\14.34.31933\include\xutility

; 4369 :         for (; _UFirst != _ULast; ++_UFirst) {

  00184	85 c9		 test	 ecx, ecx
  00186	74 02		 je	 SHORT $LN121@CWikiRende
; File C:\Program Files\Microsoft Visual Studio\2022\Community\VC\Tools\MSVC\14.34.31933\include\xhash

; 1174 :         _List.clear();

  00188	f3 ab		 rep stosd
$LN121@CWikiRende:
; File C:\Users\flourine\Desktop\Xantios\client-src\Code\EterLib\CWikiRenderTargetManager.cpp

; 8    : CWikiRenderTargetManager::CWikiRenderTargetManager() { InitializeData(); }

  0018a	8b c3		 mov	 eax, ebx
  0018c	8b 4d f4	 mov	 ecx, DWORD PTR __$EHRec$[ebp]
  0018f	64 89 0d 00 00
	00 00		 mov	 DWORD PTR fs:0, ecx
  00196	59		 pop	 ecx
  00197	5f		 pop	 edi
  00198	5e		 pop	 esi
  00199	5b		 pop	 ebx
  0019a	8b e5		 mov	 esp, ebp
  0019c	5d		 pop	 ebp
  0019d	c3		 ret	 0
$LN95@CWikiRende:
; File C:\Program Files\Microsoft Visual Studio\2022\Community\VC\Tools\MSVC\14.34.31933\include\xmemory

; 164  :     _STL_VERIFY(_Back_shift >= _Min_back_shift && _Back_shift <= _Non_user_size, "invalid argument");

  0019e	e8 00 00 00 00	 call	 __invalid_parameter_noinfo_noreturn
$LN137@CWikiRende:
  001a3	cc		 int	 3
_TEXT	ENDS
;	COMDAT text$x
text$x	SEGMENT
__unwindfunclet$??0CWikiRenderTargetManager@@QAE@XZ$0:
  00000	8b 4d f0	 mov	 ecx, DWORD PTR _this$[ebp]
  00003	e9 00 00 00 00	 jmp	 ??1?$CSingleton@VCWikiRenderTargetManager@@@@UAE@XZ ; CSingleton<CWikiRenderTargetManager>::~CSingleton<CWikiRenderTargetManager>
__unwindfunclet$??0CWikiRenderTargetManager@@QAE@XZ$3:
  00008	8b 4d e8	 mov	 ecx, DWORD PTR _this$[ebp]
  0000b	83 c1 04	 add	 ecx, 4
  0000e	e9 00 00 00 00	 jmp	 ??1?$list@U?$pair@$$CBHV?$shared_ptr@VCWikiRenderTarget@@@std@@@std@@V?$allocator@U?$pair@$$CBHV?$shared_ptr@VCWikiRenderTarget@@@std@@@std@@@2@@std@@QAE@XZ ; std::list<std::pair<int const ,std::shared_ptr<CWikiRenderTarget> >,std::allocator<std::pair<int const ,std::shared_ptr<CWikiRenderTarget> > > >::~list<std::pair<int const ,std::shared_ptr<CWikiRenderTarget> >,std::allocator<std::pair<int const ,std::shared_ptr<CWikiRenderTarget> > > >
__unwindfunclet$??0CWikiRenderTargetManager@@QAE@XZ$4:
  00013	8b 4d e8	 mov	 ecx, DWORD PTR _this$[ebp]
  00016	83 c1 0c	 add	 ecx, 12			; 0000000cH
  00019	e9 00 00 00 00	 jmp	 ??1?$_Hash_vec@V?$allocator@V?$_List_unchecked_iterator@V?$_List_val@U?$_List_simple_types@U?$pair@$$CBHV?$shared_ptr@VCWikiRenderTarget@@@std@@@std@@@std@@@std@@@std@@@std@@@std@@QAE@XZ ; std::_Hash_vec<std::allocator<std::_List_unchecked_iterator<std::_List_val<std::_List_simple_types<std::pair<int const ,std::shared_ptr<CWikiRenderTarget> > > > > > >::~_Hash_vec<std::allocator<std::_List_unchecked_iterator<std::_List_val<std::_List_simple_types<std::pair<int const ,std::shared_ptr<CWikiRenderTarget> > > > > > >
  0001e	cc		 int	 3
  0001f	cc		 int	 3
  00020	cc		 int	 3
  00021	cc		 int	 3
  00022	cc		 int	 3
__ehhandler$??0CWikiRenderTargetManager@@QAE@XZ:
  00023	90		 npad	 1
  00024	90		 npad	 1
  00025	8b 54 24 08	 mov	 edx, DWORD PTR [esp+8]
  00029	8d 42 0c	 lea	 eax, DWORD PTR [edx+12]
  0002c	8b 4a e4	 mov	 ecx, DWORD PTR [edx-28]
  0002f	33 c8		 xor	 ecx, eax
  00031	e8 00 00 00 00	 call	 @__security_check_cookie@4
  00036	b8 00 00 00 00	 mov	 eax, OFFSET __ehfuncinfo$??0CWikiRenderTargetManager@@QAE@XZ
  0003b	e9 00 00 00 00	 jmp	 ___CxxFrameHandler3
text$x	ENDS
??0CWikiRenderTargetManager@@QAE@XZ ENDP		; CWikiRenderTargetManager::CWikiRenderTargetManager
; Function compile flags: /Ogtp
; File C:\Users\flourine\Desktop\Xantios\client-src\Code\EterBase\Singleton.h
;	COMDAT ??_G?$CSingleton@VCWikiRenderTargetManager@@@@UAEPAXI@Z
_TEXT	SEGMENT
___flags$ = 8						; size = 4
??_G?$CSingleton@VCWikiRenderTargetManager@@@@UAEPAXI@Z PROC ; CSingleton<CWikiRenderTargetManager>::`scalar deleting destructor', COMDAT
; _this$ = ecx
  00000	55		 push	 ebp
  00001	8b ec		 mov	 ebp, esp
  00003	f6 45 08 01	 test	 BYTE PTR ___flags$[ebp], 1

; 19   : 	{

  00007	56		 push	 esi
  00008	8b f1		 mov	 esi, ecx
  0000a	c7 06 00 00 00
	00		 mov	 DWORD PTR [esi], OFFSET ??_7?$CSingleton@VCWikiRenderTargetManager@@@@6B@

; 20   : 		assert(ms_singleton);
; 21   : 		ms_singleton = 0;

  00010	c7 05 00 00 00
	00 00 00 00 00	 mov	 DWORD PTR ?ms_singleton@?$CSingleton@VCWikiRenderTargetManager@@@@0PAVCWikiRenderTargetManager@@A, 0 ; CSingleton<CWikiRenderTargetManager>::ms_singleton
  0001a	74 0b		 je	 SHORT $LN6@scalar
  0001c	6a 04		 push	 4
  0001e	56		 push	 esi
  0001f	e8 00 00 00 00	 call	 ??3@YAXPAXI@Z		; operator delete
  00024	83 c4 08	 add	 esp, 8
$LN6@scalar:
  00027	8b c6		 mov	 eax, esi
  00029	5e		 pop	 esi
  0002a	5d		 pop	 ebp
  0002b	c2 04 00	 ret	 4
??_G?$CSingleton@VCWikiRenderTargetManager@@@@UAEPAXI@Z ENDP ; CSingleton<CWikiRenderTargetManager>::`scalar deleting destructor'
_TEXT	ENDS
; Function compile flags: /Ogtp
; File C:\Users\flourine\Desktop\Xantios\client-src\Code\EterBase\Singleton.h
;	COMDAT ??1?$CSingleton@VCWikiRenderTargetManager@@@@UAE@XZ
_TEXT	SEGMENT
??1?$CSingleton@VCWikiRenderTargetManager@@@@UAE@XZ PROC ; CSingleton<CWikiRenderTargetManager>::~CSingleton<CWikiRenderTargetManager>, COMDAT
; _this$ = ecx

; 19   : 	{

  00000	c7 01 00 00 00
	00		 mov	 DWORD PTR [ecx], OFFSET ??_7?$CSingleton@VCWikiRenderTargetManager@@@@6B@

; 20   : 		assert(ms_singleton);
; 21   : 		ms_singleton = 0;

  00006	c7 05 00 00 00
	00 00 00 00 00	 mov	 DWORD PTR ?ms_singleton@?$CSingleton@VCWikiRenderTargetManager@@@@0PAVCWikiRenderTargetManager@@A, 0 ; CSingleton<CWikiRenderTargetManager>::ms_singleton

; 22   : 	}

  00010	c3		 ret	 0
??1?$CSingleton@VCWikiRenderTargetManager@@@@UAE@XZ ENDP ; CSingleton<CWikiRenderTargetManager>::~CSingleton<CWikiRenderTargetManager>
_TEXT	ENDS
; Function compile flags: /Ogtp
; File C:\Program Files\Microsoft Visual Studio\2022\Community\VC\Tools\MSVC\14.34.31933\include\memory
;	COMDAT ?_Get_deleter@_Ref_count_base@std@@UBEPAXABVtype_info@@@Z
_TEXT	SEGMENT
___formal$ = 8						; size = 4
?_Get_deleter@_Ref_count_base@std@@UBEPAXABVtype_info@@@Z PROC ; std::_Ref_count_base::_Get_deleter, COMDAT
; _this$ = ecx

; 1126 :         return nullptr;

  00000	33 c0		 xor	 eax, eax

; 1127 :     }

  00002	c2 04 00	 ret	 4
?_Get_deleter@_Ref_count_base@std@@UBEPAXABVtype_info@@@Z ENDP ; std::_Ref_count_base::_Get_deleter
_TEXT	ENDS
; Function compile flags: /Ogtp
; File C:\Program Files\Microsoft Visual Studio\2022\Community\VC\Tools\MSVC\14.34.31933\include\memory
;	COMDAT ??1_Ref_count_base@std@@UAE@XZ
_TEXT	SEGMENT
??1_Ref_count_base@std@@UAE@XZ PROC			; std::_Ref_count_base::~_Ref_count_base, COMDAT
; _this$ = ecx

; 1079 :     virtual ~_Ref_count_base() noexcept {} // TRANSITION, should be non-virtual

  00000	c2 00 00	 ret	 0
??1_Ref_count_base@std@@UAE@XZ ENDP			; std::_Ref_count_base::~_Ref_count_base
_TEXT	ENDS
; Function compile flags: /Ogtp
; File C:\Program Files\Microsoft Visual Studio\2022\Community\VC\Tools\MSVC\14.34.31933\include\xmemory
;	COMDAT ??$_Allocate_manually_vector_aligned@U_Default_allocate_traits@std@@@std@@YAPAXI@Z
_TEXT	SEGMENT
__Bytes$ = 8						; size = 4
??$_Allocate_manually_vector_aligned@U_Default_allocate_traits@std@@@std@@YAPAXI@Z PROC ; std::_Allocate_manually_vector_aligned<std::_Default_allocate_traits>, COMDAT

; 127  : __declspec(allocator) void* _Allocate_manually_vector_aligned(const size_t _Bytes) {

  00000	55		 push	 ebp
  00001	8b ec		 mov	 ebp, esp

; 128  :     // allocate _Bytes manually aligned to at least _Big_allocation_alignment
; 129  :     const size_t _Block_size = _Non_user_size + _Bytes;

  00003	8b 45 08	 mov	 eax, DWORD PTR __Bytes$[ebp]
  00006	8d 48 23	 lea	 ecx, DWORD PTR [eax+35]

; 130  :     if (_Block_size <= _Bytes) {

  00009	3b c8		 cmp	 ecx, eax
  0000b	0f 86 00 00 00
	00		 jbe	 ?_Throw_bad_array_new_length@std@@YAXXZ ; std::_Throw_bad_array_new_length

; 77   :         return ::operator new(_Bytes);

  00011	51		 push	 ecx
  00012	e8 00 00 00 00	 call	 ??2@YAPAXI@Z		; operator new

; 131  :         _Throw_bad_array_new_length(); // add overflow
; 132  :     }
; 133  : 
; 134  :     const uintptr_t _Ptr_container = reinterpret_cast<uintptr_t>(_Traits::_Allocate(_Block_size));

  00017	8b c8		 mov	 ecx, eax

; 77   :         return ::operator new(_Bytes);

  00019	83 c4 04	 add	 esp, 4

; 135  :     _STL_VERIFY(_Ptr_container != 0, "invalid argument"); // validate even in release since we're doing p[-1]

  0001c	85 c9		 test	 ecx, ecx
  0001e	74 0b		 je	 SHORT $LN7@Allocate_m

; 136  :     void* const _Ptr = reinterpret_cast<void*>((_Ptr_container + _Non_user_size) & ~(_Big_allocation_alignment - 1));

  00020	8d 41 23	 lea	 eax, DWORD PTR [ecx+35]
  00023	83 e0 e0	 and	 eax, -32		; ffffffe0H

; 137  :     static_cast<uintptr_t*>(_Ptr)[-1] = _Ptr_container;

  00026	89 48 fc	 mov	 DWORD PTR [eax-4], ecx

; 138  : 
; 139  : #ifdef _DEBUG
; 140  :     static_cast<uintptr_t*>(_Ptr)[-2] = _Big_allocation_sentinel;
; 141  : #endif // _DEBUG
; 142  :     return _Ptr;
; 143  : }

  00029	5d		 pop	 ebp
  0002a	c3		 ret	 0
$LN7@Allocate_m:

; 135  :     _STL_VERIFY(_Ptr_container != 0, "invalid argument"); // validate even in release since we're doing p[-1]

  0002b	e9 00 00 00 00	 jmp	 __invalid_parameter_noinfo_noreturn
??$_Allocate_manually_vector_aligned@U_Default_allocate_traits@std@@@std@@YAPAXI@Z ENDP ; std::_Allocate_manually_vector_aligned<std::_Default_allocate_traits>
_TEXT	ENDS
; Function compile flags: /Ogtp
; File C:\Program Files\Microsoft Visual Studio\2022\Community\VC\Tools\MSVC\14.34.31933\include\exception
;	COMDAT ?_Throw_bad_array_new_length@std@@YAXXZ
_TEXT	SEGMENT
$T1 = -12						; size = 12
?_Throw_bad_array_new_length@std@@YAXXZ PROC		; std::_Throw_bad_array_new_length, COMDAT

; 323  : [[noreturn]] inline void _Throw_bad_array_new_length() {

  00000	55		 push	 ebp
  00001	8b ec		 mov	 ebp, esp
  00003	83 ec 0c	 sub	 esp, 12			; 0000000cH

; 324  :     _THROW(bad_array_new_length{});

  00006	8d 4d f4	 lea	 ecx, DWORD PTR $T1[ebp]
