; Listing generated by Microsoft (R) Optimizing Compiler Version 19.34.31942.0 

	TITLE	C:\Users\flourine\Desktop\Xantios\client-src\Code\EterLib\Distribute\GrpDevice.obj
	.686P
	.XMM
	include listing.inc
	.model	flat

INCLUDELIB LIBCMT
INCLUDELIB OLDNAMES

PUBLIC	?GRAPHICS_CAPS_CAN_NOT_DRAW_LINE@@3_NA		; GRAPHICS_CAPS_CAN_NOT_DRAW_LINE
PUBLIC	?GRAPHICS_CAPS_CAN_NOT_DRAW_SHADOW@@3_NA	; GRAPHICS_CAPS_CAN_NOT_DRAW_SHADOW
PUBLIC	?GRAPHICS_CAPS_HALF_SIZE_IMAGE@@3_NA		; GRAPHICS_CAPS_HALF_SIZE_IMAGE
PUBLIC	?GRAPHICS_CAPS_CAN_NOT_TEXTURE_ADDRESS_BORDER@@3_NA ; GRAPHICS_CAPS_CAN_NOT_TEXTURE_ADDRESS_BORDER
PUBLIC	?GRAPHICS_CAPS_SOFTWARE_TILING@@3_NA		; GRAPHICS_CAPS_SOFTWARE_TILING
PUBLIC	?g_kD3DPP@@3U_D3DPRESENT_PARAMETERS_@@A		; g_kD3DPP
PUBLIC	?g_isBrowserMode@@3_NA				; g_isBrowserMode
PUBLIC	?g_rcBrowser@@3UtagRECT@@A			; g_rcBrowser
_BSS	SEGMENT
?GRAPHICS_CAPS_CAN_NOT_DRAW_LINE@@3_NA DB 01H DUP (?)	; GRAPHICS_CAPS_CAN_NOT_DRAW_LINE
	ALIGN	4

?GRAPHICS_CAPS_CAN_NOT_DRAW_SHADOW@@3_NA DB 01H DUP (?)	; GRAPHICS_CAPS_CAN_NOT_DRAW_SHADOW
	ALIGN	4

?GRAPHICS_CAPS_HALF_SIZE_IMAGE@@3_NA DB 01H DUP (?)	; GRAPHICS_CAPS_HALF_SIZE_IMAGE
	ALIGN	4

?GRAPHICS_CAPS_CAN_NOT_TEXTURE_ADDRESS_BORDER@@3_NA DB 01H DUP (?) ; GRAPHICS_CAPS_CAN_NOT_TEXTURE_ADDRESS_BORDER
	ALIGN	4

?GRAPHICS_CAPS_SOFTWARE_TILING@@3_NA DB 01H DUP (?)	; GRAPHICS_CAPS_SOFTWARE_TILING
	ALIGN	4

?g_kD3DPP@@3U_D3DPRESENT_PARAMETERS_@@A DB 038H DUP (?)	; g_kD3DPP
?g_isBrowserMode@@3_NA DB 01H DUP (?)			; g_isBrowserMode
	ALIGN	4

?g_rcBrowser@@3UtagRECT@@A DB 010H DUP (?)		; g_rcBrowser
_BSS	ENDS
PUBLIC	??_H@YGXPAXIIP6EPAX0@Z@Z			; `vector constructor iterator'
PUBLIC	___local_stdio_scanf_options
PUBLIC	_sscanf
PUBLIC	??0exception@std@@QAE@ABV01@@Z			; std::exception::exception
PUBLIC	??1exception@std@@UAE@XZ			; std::exception::~exception
PUBLIC	?what@exception@std@@UBEPBDXZ			; std::exception::what
PUBLIC	??_Gexception@std@@UAEPAXI@Z			; std::exception::`scalar deleting destructor'
PUBLIC	??0bad_alloc@std@@QAE@ABV01@@Z			; std::bad_alloc::bad_alloc
PUBLIC	??_Gbad_alloc@std@@UAEPAXI@Z			; std::bad_alloc::`scalar deleting destructor'
PUBLIC	??0bad_array_new_length@std@@QAE@XZ		; std::bad_array_new_length::bad_array_new_length
PUBLIC	??1bad_array_new_length@std@@UAE@XZ		; std::bad_array_new_length::~bad_array_new_length
PUBLIC	??0bad_array_new_length@std@@QAE@ABV01@@Z	; std::bad_array_new_length::bad_array_new_length
PUBLIC	??_Gbad_array_new_length@std@@UAEPAXI@Z		; std::bad_array_new_length::`scalar deleting destructor'
PUBLIC	?_Throw_bad_array_new_length@std@@YAXXZ		; std::_Throw_bad_array_new_length
PUBLIC	?_Xlen_string@std@@YAXXZ			; std::_Xlen_string
PUBLIC	??1?$basic_string@DU?$char_traits@D@std@@V?$allocator@D@2@@std@@QAE@XZ ; std::basic_string<char,std::char_traits<char>,std::allocator<char> >::~basic_string<char,std::char_traits<char>,std::allocator<char> >
PUBLIC	?_Throw_tree_length_error@std@@YAXXZ		; std::_Throw_tree_length_error
PUBLIC	??$_Allocate_manually_vector_aligned@U_Default_allocate_traits@std@@@std@@YAPAXI@Z ; std::_Allocate_manually_vector_aligned<std::_Default_allocate_traits>
PUBLIC	??0CGraphicDevice@@QAE@XZ			; CGraphicDevice::CGraphicDevice
PUBLIC	??1CGraphicDevice@@UAE@XZ			; CGraphicDevice::~CGraphicDevice
PUBLIC	?InitBackBufferCount@CGraphicDevice@@QAEXI@Z	; CGraphicDevice::InitBackBufferCount
PUBLIC	?Destroy@CGraphicDevice@@QAEXXZ			; CGraphicDevice::Destroy
PUBLIC	?Create@CGraphicDevice@@QAEHPAUHWND__@@HH_NHH@Z	; CGraphicDevice::Create
PUBLIC	?GetDeviceState@CGraphicDevice@@QAE?AW4EDeviceState@1@XZ ; CGraphicDevice::GetDeviceState
PUBLIC	?Reset@CGraphicDevice@@QAE_NXZ			; CGraphicDevice::Reset
PUBLIC	?EnableWebBrowserMode@CGraphicDevice@@QAEXABUtagRECT@@@Z ; CGraphicDevice::EnableWebBrowserMode
PUBLIC	?DisableWebBrowserMode@CGraphicDevice@@QAEXXZ	; CGraphicDevice::DisableWebBrowserMode
PUBLIC	?MoveWebBrowserRect@CGraphicDevice@@QAEXABUtagRECT@@@Z ; CGraphicDevice::MoveWebBrowserRect
PUBLIC	?ResizeBackBuffer@CGraphicDevice@@QAE_NII@Z	; CGraphicDevice::ResizeBackBuffer
PUBLIC	?RegisterWarningString@CGraphicDevice@@QAEXIPBD@Z ; CGraphicDevice::RegisterWarningString
PUBLIC	?GetDirectx9@CGraphicDevice@@QAEPAUIDirect3D9@@XZ ; CGraphicDevice::GetDirectx9
PUBLIC	?GetDevice@CGraphicDevice@@QAEPAUIDirect3DDevice9@@XZ ; CGraphicDevice::GetDevice
PUBLIC	?__Initialize@CGraphicDevice@@IAEXXZ		; CGraphicDevice::__Initialize
PUBLIC	?__IsInDriverBlackList@CGraphicDevice@@IAE_NAAVD3D_CAdapterInfo@@@Z ; CGraphicDevice::__IsInDriverBlackList
PUBLIC	?__WarningMessage@CGraphicDevice@@IAEXPAUHWND__@@I@Z ; CGraphicDevice::__WarningMessage
PUBLIC	?__InitializeDefaultIndexBufferList@CGraphicDevice@@IAEXXZ ; CGraphicDevice::__InitializeDefaultIndexBufferList
PUBLIC	?__DestroyDefaultIndexBufferList@CGraphicDevice@@IAEXXZ ; CGraphicDevice::__DestroyDefaultIndexBufferList
PUBLIC	?__CreateDefaultIndexBufferList@CGraphicDevice@@IAE_NXZ ; CGraphicDevice::__CreateDefaultIndexBufferList
PUBLIC	?__CreateDefaultIndexBuffer@CGraphicDevice@@IAE_NIIPBG@Z ; CGraphicDevice::__CreateDefaultIndexBuffer
PUBLIC	?__InitializePDTVertexBufferList@CGraphicDevice@@IAEXXZ ; CGraphicDevice::__InitializePDTVertexBufferList
PUBLIC	?__DestroyPDTVertexBufferList@CGraphicDevice@@IAEXXZ ; CGraphicDevice::__DestroyPDTVertexBufferList
PUBLIC	?__CreatePDTVertexBufferList@CGraphicDevice@@IAE_NXZ ; CGraphicDevice::__CreatePDTVertexBufferList
PUBLIC	?CreatePNTStreamVertexShader@CGraphicDevice@@IAEKXZ ; CGraphicDevice::CreatePNTStreamVertexShader
PUBLIC	?CreatePNT2StreamVertexShader@CGraphicDevice@@IAEKXZ ; CGraphicDevice::CreatePNT2StreamVertexShader
PUBLIC	?_Insert_node@?$_Tree_val@U?$_Tree_simple_types@U?$pair@$$CBIV?$basic_string@DU?$char_traits@D@std@@V?$allocator@D@2@@std@@@std@@@std@@@std@@QAEPAU?$_Tree_node@U?$pair@$$CBIV?$basic_string@DU?$char_traits@D@std@@V?$allocator@D@2@@std@@@std@@PAX@2@U?$_Tree_id@PAU?$_Tree_node@U?$pair@$$CBIV?$basic_string@DU?$char_traits@D@std@@V?$allocator@D@2@@std@@@std@@PAX@std@@@2@QAU32@@Z ; std::_Tree_val<std::_Tree_simple_types<std::pair<unsigned int const ,std::basic_string<char,std::char_traits<char>,std::allocator<char> > > > >::_Insert_node
PUBLIC	??A?$map@IV?$basic_string@DU?$char_traits@D@std@@V?$allocator@D@2@@std@@U?$less@I@2@V?$allocator@U?$pair@$$CBIV?$basic_string@DU?$char_traits@D@std@@V?$allocator@D@2@@std@@@std@@@2@@std@@QAEAAV?$basic_string@DU?$char_traits@D@std@@V?$allocator@D@2@@1@ABI@Z ; std::map<unsigned int,std::basic_string<char,std::char_traits<char>,std::allocator<char> >,std::less<unsigned int>,std::allocator<std::pair<unsigned int const ,std::basic_string<char,std::char_traits<char>,std::allocator<char> > > > >::operator[]
PUBLIC	??_GCGraphicDevice@@UAEPAXI@Z			; CGraphicDevice::`scalar deleting destructor'
PUBLIC	?EL3D_ConfirmDevice@@YAHAAU_D3DCAPS9@@IW4_D3DFORMAT@@@Z ; EL3D_ConfirmDevice
PUBLIC	?GetMaxTextureWidth@@YAKXZ			; GetMaxTextureWidth
PUBLIC	?GetMaxTextureHeight@@YAKXZ			; GetMaxTextureHeight
PUBLIC	??$_Find_lower_bound@I@?$_Tree@V?$_Tmap_traits@IV?$basic_string@DU?$char_traits@D@std@@V?$allocator@D@2@@std@@U?$less@I@2@V?$allocator@U?$pair@$$CBIV?$basic_string@DU?$char_traits@D@std@@V?$allocator@D@2@@std@@@std@@@2@$0A@@std@@@std@@IBE?AU?$_Tree_find_result@PAU?$_Tree_node@U?$pair@$$CBIV?$basic_string@DU?$char_traits@D@std@@V?$allocator@D@2@@std@@@std@@PAX@std@@@1@ABI@Z ; std::_Tree<std::_Tmap_traits<unsigned int,std::basic_string<char,std::char_traits<char>,std::allocator<char> >,std::less<unsigned int>,std::allocator<std::pair<unsigned int const ,std::basic_string<char,std::char_traits<char>,std::allocator<char> > > >,0> >::_Find_lower_bound<unsigned int>
PUBLIC	??1?$_Alloc_construct_ptr@V?$allocator@U?$_Tree_node@U?$pair@$$CBIV?$basic_string@DU?$char_traits@D@std@@V?$allocator@D@2@@std@@@std@@PAX@std@@@std@@@std@@QAE@XZ ; std::_Alloc_construct_ptr<std::allocator<std::_Tree_node<std::pair<unsigned int const ,std::basic_string<char,std::char_traits<char>,std::allocator<char> > >,void *> > >::~_Alloc_construct_ptr<std::allocator<std::_Tree_node<std::pair<unsigned int const ,std::basic_string<char,std::char_traits<char>,std::allocator<char> > >,void *> > >
PUBLIC	??$_Erase_tree@V?$allocator@U?$_Tree_node@U?$pair@$$CBIV?$basic_string@DU?$char_traits@D@std@@V?$allocator@D@2@@std@@@std@@PAX@std@@@std@@@?$_Tree_val@U?$_Tree_simple_types@U?$pair@$$CBIV?$basic_string@DU?$char_traits@D@std@@V?$allocator@D@2@@std@@@std@@@std@@@std@@QAEXAAV?$allocator@U?$_Tree_node@U?$pair@$$CBIV?$basic_string@DU?$char_traits@D@std@@V?$allocator@D@2@@std@@@std@@PAX@std@@@1@PAU?$_Tree_node@U?$pair@$$CBIV?$basic_string@DU?$char_traits@D@std@@V?$allocator@D@2@@std@@@std@@PAX@1@@Z ; std::_Tree_val<std::_Tree_simple_types<std::pair<unsigned int const ,std::basic_string<char,std::char_traits<char>,std::allocator<char> > > > >::_Erase_tree<std::allocator<std::_Tree_node<std::pair<unsigned int const ,std::basic_string<char,std::char_traits<char>,std::allocator<char> > >,void *> > >
PUBLIC	?_OptionsStorage@?1??__local_stdio_scanf_options@@9@4_KA ; `__local_stdio_scanf_options'::`2'::_OptionsStorage
PUBLIC	??_7exception@std@@6B@				; std::exception::`vftable'
PUBLIC	??_C@_0BC@EOODALEL@Unknown?5exception@		; `string'
PUBLIC	??_7bad_alloc@std@@6B@				; std::bad_alloc::`vftable'
PUBLIC	??_7bad_array_new_length@std@@6B@		; std::bad_array_new_length::`vftable'
PUBLIC	??_C@_0BF@KINCDENJ@bad?5array?5new?5length@	; `string'
PUBLIC	__TI3?AVbad_array_new_length@std@@
PUBLIC	__CTA3?AVbad_array_new_length@std@@
PUBLIC	??_R0?AVbad_array_new_length@std@@@8		; std::bad_array_new_length `RTTI Type Descriptor'
PUBLIC	__CT??_R0?AVbad_array_new_length@std@@@8??0bad_array_new_length@std@@QAE@ABV01@@Z12
PUBLIC	??_R0?AVbad_alloc@std@@@8			; std::bad_alloc `RTTI Type Descriptor'
PUBLIC	__CT??_R0?AVbad_alloc@std@@@8??0bad_alloc@std@@QAE@ABV01@@Z12
PUBLIC	??_R0?AVexception@std@@@8			; std::exception `RTTI Type Descriptor'
PUBLIC	__CT??_R0?AVexception@std@@@8??0exception@std@@QAE@ABV01@@Z12
PUBLIC	??_C@_0BA@JFNIOLAK@string?5too?5long@		; `string'
PUBLIC	??_C@_0BB@GCADKGJO@map?1set?5too?5long@		; `string'
PUBLIC	??_R4exception@std@@6B@				; std::exception::`RTTI Complete Object Locator'
PUBLIC	??_R3exception@std@@8				; std::exception::`RTTI Class Hierarchy Descriptor'
PUBLIC	??_R2exception@std@@8				; std::exception::`RTTI Base Class Array'
PUBLIC	??_R1A@?0A@EA@exception@std@@8			; std::exception::`RTTI Base Class Descriptor at (0,-1,0,64)'
PUBLIC	??_R4bad_alloc@std@@6B@				; std::bad_alloc::`RTTI Complete Object Locator'
PUBLIC	??_R3bad_alloc@std@@8				; std::bad_alloc::`RTTI Class Hierarchy Descriptor'
PUBLIC	??_R2bad_alloc@std@@8				; std::bad_alloc::`RTTI Base Class Array'
PUBLIC	??_R1A@?0A@EA@bad_alloc@std@@8			; std::bad_alloc::`RTTI Base Class Descriptor at (0,-1,0,64)'
PUBLIC	??_R4bad_array_new_length@std@@6B@		; std::bad_array_new_length::`RTTI Complete Object Locator'
PUBLIC	??_R3bad_array_new_length@std@@8		; std::bad_array_new_length::`RTTI Class Hierarchy Descriptor'
PUBLIC	??_R2bad_array_new_length@std@@8		; std::bad_array_new_length::`RTTI Base Class Array'
PUBLIC	??_R1A@?0A@EA@bad_array_new_length@std@@8	; std::bad_array_new_length::`RTTI Base Class Descriptor at (0,-1,0,64)'
PUBLIC	?ms_singleton@?$CSingleton@VCStateManager@@@@0PAVCStateManager@@A ; CSingleton<CStateManager>::ms_singleton
PUBLIC	??_7CGraphicDevice@@6B@				; CGraphicDevice::`vftable'
PUBLIC	??_C@_07KGMMFLDN@Warning@			; `string'
PUBLIC	??_C@_0BH@HJNPBJOM@Failed?5to?5reset?5device@	; `string'
PUBLIC	??_C@_01KDCPPGHE@r@				; `string'
PUBLIC	??_C@_0L@NIHOAGKC@grpblk?4txt@			; `string'
PUBLIC	??_C@_08NLGDGEBC@?$CFs?5?$CFx?5?$CFx@		; `string'
PUBLIC	??_C@_0BE@JAEGAKLI@adapter?5?$CFd?5is?5EMPTY@	; `string'
PUBLIC	??_C@_0BM@LIHILKDJ@device?5?$CFd?0?5mode?5?$CFd?5is?5EMPTY@ ; `string'
PUBLIC	??_C@_04MAKEOOIM@3dfx@				; `string'
PUBLIC	??_C@_0JB@NCJOPOMN@IDirect3DDevice?4CreateDevice?5?9?5@ ; `string'
PUBLIC	??_C@_0GO@ICOCNPJJ@IDirect3DDevice?4CreateDevice?5?9?5@ ; `string'
PUBLIC	??_C@_0ID@GFNIEGEI@IDirect3DDevice?4CreateDevice?5?9?5@ ; `string'
PUBLIC	??_C@_0CI@IPGGGCFB@IDirect3DDevice?4CreateDevice?5?9?5@ ; `string'
PUBLIC	??_C@_0CJ@PKDINAHJ@IDirect3DDevice?4GetDeviceCaps?5?9@ ; `string'
PUBLIC	??_C@_03OJNODIHH@SIS@				; `string'
PUBLIC	??_R4CGraphicDevice@@6B@			; CGraphicDevice::`RTTI Complete Object Locator'
PUBLIC	??_R0?AVCGraphicDevice@@@8			; CGraphicDevice `RTTI Type Descriptor'
PUBLIC	??_R3CGraphicDevice@@8				; CGraphicDevice::`RTTI Class Hierarchy Descriptor'
PUBLIC	??_R2CGraphicDevice@@8				; CGraphicDevice::`RTTI Base Class Array'
PUBLIC	??_R1A@?0A@EA@CGraphicDevice@@8			; CGraphicDevice::`RTTI Base Class Descriptor at (0,-1,0,64)'
PUBLIC	??_R1A@?0A@EA@CGraphicBase@@8			; CGraphicBase::`RTTI Base Class Descriptor at (0,-1,0,64)'
PUBLIC	??_R0?AVCGraphicBase@@@8			; CGraphicBase `RTTI Type Descriptor'
PUBLIC	??_R3CGraphicBase@@8				; CGraphicBase::`RTTI Class Hierarchy Descriptor'
PUBLIC	??_R2CGraphicBase@@8				; CGraphicBase::`RTTI Base Class Array'
PUBLIC	__real@3f000000
EXTRN	??2@YAPAXI@Z:PROC				; operator new
EXTRN	??3@YAXPAXI@Z:PROC				; operator delete
EXTRN	__invalid_parameter_noinfo_noreturn:PROC
EXTRN	_fclose:PROC
EXTRN	_fgets:PROC
EXTRN	_fopen:PROC
EXTRN	___stdio_common_vsscanf:PROC
EXTRN	__strnicmp:PROC
EXTRN	_strncpy:PROC
EXTRN	___std_exception_copy:PROC
EXTRN	___std_exception_destroy:PROC
EXTRN	??_Eexception@std@@UAEPAXI@Z:PROC		; std::exception::`vector deleting destructor'
EXTRN	??_Ebad_alloc@std@@UAEPAXI@Z:PROC		; std::bad_alloc::`vector deleting destructor'
EXTRN	??_Ebad_array_new_length@std@@UAEPAXI@Z:PROC	; std::bad_array_new_length::`vector deleting destructor'
EXTRN	?_Xlength_error@std@@YAXPBD@Z:PROC		; std::_Xlength_error
EXTRN	__imp__SetWindowPos@28:PROC
EXTRN	__imp__GetDC@4:PROC
EXTRN	__imp__ReleaseDC@8:PROC
EXTRN	__imp__MessageBoxA@16:PROC
EXTRN	_Direct3DCreate9@4:PROC
EXTRN	_D3DXCreateMatrixStack@8:PROC
EXTRN	_D3DXCreateCylinder@32:PROC
EXTRN	_D3DXCreateSphere@24:PROC
EXTRN	?Tracen@@YAXPBD@Z:PROC				; Tracen
EXTRN	?Tracenf@@YAXPBDZZ:PROC				; Tracenf
EXTRN	?TraceError@@YAXPBDZZ:PROC			; TraceError
EXTRN	?GetString@D3D_SModeInfo@@QAEXPAV?$basic_string@DU?$char_traits@D@std@@V?$allocator@D@2@@std@@@Z:PROC ; D3D_SModeInfo::GetString
EXTRN	?GetDesktopD3DDisplayModer@D3D_CAdapterInfo@@QAEAAU_D3DDISPLAYMODE@@XZ:PROC ; D3D_CAdapterInfo::GetDesktopD3DDisplayModer
EXTRN	?GetD3DModeInfop@D3D_CAdapterInfo@@QAEPAUD3D_SModeInfo@@II@Z:PROC ; D3D_CAdapterInfo::GetD3DModeInfop
EXTRN	?Find@D3D_CDisplayModeAutoDetector@@QAEHIIIHPAI00@Z:PROC ; D3D_CDisplayModeAutoDetector::Find
EXTRN	?Build@D3D_CDisplayModeAutoDetector@@QAEHAAUIDirect3D9@@P6AHAAU_D3DCAPS9@@IW4_D3DFORMAT@@@Z@Z:PROC ; D3D_CDisplayModeAutoDetector::Build
EXTRN	?GetD3DAdapterInfop@D3D_CDisplayModeAutoDetector@@QAEPAVD3D_CAdapterInfo@@I@Z:PROC ; D3D_CDisplayModeAutoDetector::GetD3DAdapterInfop
EXTRN	?GetString@D3D_CDisplayModeAutoDetector@@QAEXPAV?$basic_string@DU?$char_traits@D@std@@V?$allocator@D@2@@std@@@Z:PROC ; D3D_CDisplayModeAutoDetector::GetString
EXTRN	?GetAvailableTextureMemory@CGraphicBase@@SAKXZ:PROC ; CGraphicBase::GetAvailableTextureMemory
EXTRN	??0CGraphicBase@@QAE@XZ:PROC			; CGraphicBase::CGraphicBase
EXTRN	??1CGraphicBase@@UAE@XZ:PROC			; CGraphicBase::~CGraphicBase
EXTRN	??0CStateManager@@QAE@PAUIDirect3DDevice9@@@Z:PROC ; CStateManager::CStateManager
EXTRN	?SetDefaultState@CStateManager@@QAEXXZ:PROC	; CStateManager::SetDefaultState
EXTRN	?SetRenderState@CStateManager@@QAEXW4_D3DRENDERSTATETYPE@@K@Z:PROC ; CStateManager::SetRenderState
EXTRN	??_ECGraphicDevice@@UAEPAXI@Z:PROC		; CGraphicDevice::`vector deleting destructor'
EXTRN	@__security_check_cookie@4:PROC
EXTRN	__CxxThrowException@8:PROC
EXTRN	___CxxFrameHandler3:PROC
EXTRN	_memcpy:PROC
EXTRN	_memmove:PROC
EXTRN	??_7type_info@@6B@:QWORD			; type_info::`vftable'
EXTRN	?ms_matIdentity@CGraphicBase@@1UD3DXMATRIX@@A:ZWORD ; CGraphicBase::ms_matIdentity
EXTRN	?ms_matView@CGraphicBase@@1UD3DXMATRIX@@A:ZWORD	; CGraphicBase::ms_matView
EXTRN	?ms_matProj@CGraphicBase@@1UD3DXMATRIX@@A:ZWORD	; CGraphicBase::ms_matProj
EXTRN	?ms_matInverseView@CGraphicBase@@1UD3DXMATRIX@@A:ZWORD ; CGraphicBase::ms_matInverseView
EXTRN	?ms_matInverseViewYAxis@CGraphicBase@@1UD3DXMATRIX@@A:ZWORD ; CGraphicBase::ms_matInverseViewYAxis
EXTRN	?ms_lpSphereMesh@CGraphicBase@@1PAUID3DXMesh@@A:DWORD ; CGraphicBase::ms_lpSphereMesh
EXTRN	?ms_lpCylinderMesh@CGraphicBase@@1PAUID3DXMesh@@A:DWORD ; CGraphicBase::ms_lpCylinderMesh
EXTRN	?ms_hLastResult@CGraphicBase@@1JA:DWORD		; CGraphicBase::ms_hLastResult
EXTRN	?ms_iWidth@CGraphicBase@@1HA:DWORD		; CGraphicBase::ms_iWidth
EXTRN	?ms_iHeight@CGraphicBase@@1HA:DWORD		; CGraphicBase::ms_iHeight
EXTRN	?ms_iD3DAdapterInfo@CGraphicBase@@1IA:DWORD	; CGraphicBase::ms_iD3DAdapterInfo
EXTRN	?ms_iD3DDevInfo@CGraphicBase@@1IA:DWORD		; CGraphicBase::ms_iD3DDevInfo
EXTRN	?ms_iD3DModeInfo@CGraphicBase@@1IA:DWORD	; CGraphicBase::ms_iD3DModeInfo
EXTRN	?ms_kD3DDetector@CGraphicBase@@1VD3D_CDisplayModeAutoDetector@@A:BYTE ; CGraphicBase::ms_kD3DDetector
EXTRN	?ms_hWnd@CGraphicBase@@1PAUHWND__@@A:DWORD	; CGraphicBase::ms_hWnd
EXTRN	?ms_hDC@CGraphicBase@@1PAUHDC__@@A:DWORD	; CGraphicBase::ms_hDC
EXTRN	?ms_lpd3d@CGraphicBase@@1PAUIDirect3D9@@A:DWORD	; CGraphicBase::ms_lpd3d
EXTRN	?ms_lpd3dDevice@CGraphicBase@@1PAUIDirect3DDevice9@@A:DWORD ; CGraphicBase::ms_lpd3dDevice
EXTRN	?ms_Viewport@CGraphicBase@@1U_D3DVIEWPORT9@@A:BYTE ; CGraphicBase::ms_Viewport
EXTRN	?ms_d3dCaps@CGraphicBase@@1U_D3DCAPS9@@A:BYTE	; CGraphicBase::ms_d3dCaps
EXTRN	?ms_lpd3dMatStack@CGraphicBase@@1PAUID3DXMatrixStack@@A:DWORD ; CGraphicBase::ms_lpd3dMatStack
EXTRN	?ms_d3dPresentParameter@CGraphicBase@@1U_D3DPRESENT_PARAMETERS_@@A:BYTE ; CGraphicBase::ms_d3dPresentParameter
EXTRN	?ms_dwD3DBehavior@CGraphicBase@@1KA:DWORD	; CGraphicBase::ms_dwD3DBehavior
EXTRN	?ms_pntVS@CGraphicBase@@1KA:DWORD		; CGraphicBase::ms_pntVS
EXTRN	?ms_pnt2VS@CGraphicBase@@1KA:DWORD		; CGraphicBase::ms_pnt2VS
EXTRN	?ms_matScreen0@CGraphicBase@@1UD3DXMATRIX@@A:ZWORD ; CGraphicBase::ms_matScreen0
EXTRN	?ms_matScreen1@CGraphicBase@@1UD3DXMATRIX@@A:ZWORD ; CGraphicBase::ms_matScreen1
EXTRN	?ms_matScreen2@CGraphicBase@@1UD3DXMATRIX@@A:ZWORD ; CGraphicBase::ms_matScreen2
EXTRN	?ms_dwWavingEndTime@CGraphicBase@@1KA:DWORD	; CGraphicBase::ms_dwWavingEndTime
EXTRN	?ms_dwFlashingEndTime@CGraphicBase@@1KA:DWORD	; CGraphicBase::ms_dwFlashingEndTime
EXTRN	?ms_bSupportDXT@CGraphicBase@@1_NA:BYTE		; CGraphicBase::ms_bSupportDXT
EXTRN	?ms_isLowTextureMemory@CGraphicBase@@1_NA:BYTE	; CGraphicBase::ms_isLowTextureMemory
EXTRN	?ms_isHighTextureMemory@CGraphicBase@@1_NA:BYTE	; CGraphicBase::ms_isHighTextureMemory
EXTRN	?m_smallPdtVertexBuffer@CGraphicBase@@1PAUIDirect3DVertexBuffer9@@A:DWORD ; CGraphicBase::m_smallPdtVertexBuffer
EXTRN	?m_largePdtVertexBuffer@CGraphicBase@@1PAUIDirect3DVertexBuffer9@@A:DWORD ; CGraphicBase::m_largePdtVertexBuffer
EXTRN	?ms_alpd3dDefIB@CGraphicBase@@1PAPAUIDirect3DIndexBuffer9@@A:BYTE ; CGraphicBase::ms_alpd3dDefIB
EXTRN	___security_cookie:DWORD
EXTRN	__fltused:DWORD
;	COMDAT ?_OptionsStorage@?1??__local_stdio_scanf_options@@9@4_KA
_BSS	SEGMENT
?_OptionsStorage@?1??__local_stdio_scanf_options@@9@4_KA DQ 01H DUP (?) ; `__local_stdio_scanf_options'::`2'::_OptionsStorage
_BSS	ENDS
;	COMDAT ?ms_singleton@?$CSingleton@VCStateManager@@@@0PAVCStateManager@@A
_BSS	SEGMENT
?ms_singleton@?$CSingleton@VCStateManager@@@@0PAVCStateManager@@A DD 01H DUP (?) ; CSingleton<CStateManager>::ms_singleton
_BSS	ENDS
_BSS	SEGMENT
?s_MaxTextureWidth@@3KA DD 01H DUP (?)			; s_MaxTextureWidth
?s_MaxTextureHeight@@3KA DD 01H DUP (?)			; s_MaxTextureHeight
_BSS	ENDS
;	COMDAT __real@3f000000
CONST	SEGMENT
__real@3f000000 DD 03f000000r			; 0.5
CONST	ENDS
;	COMDAT ??_R2CGraphicBase@@8
rdata$r	SEGMENT
??_R2CGraphicBase@@8 DD FLAT:??_R1A@?0A@EA@CGraphicBase@@8 ; CGraphicBase::`RTTI Base Class Array'
rdata$r	ENDS
;	COMDAT ??_R3CGraphicBase@@8
rdata$r	SEGMENT
??_R3CGraphicBase@@8 DD 00H				; CGraphicBase::`RTTI Class Hierarchy Descriptor'
	DD	00H
	DD	01H
	DD	FLAT:??_R2CGraphicBase@@8
rdata$r	ENDS
;	COMDAT ??_R0?AVCGraphicBase@@@8
data$rs	SEGMENT
??_R0?AVCGraphicBase@@@8 DD FLAT:??_7type_info@@6B@	; CGraphicBase `RTTI Type Descriptor'
	DD	00H
	DB	'.?AVCGraphicBase@@', 00H
data$rs	ENDS
;	COMDAT ??_R1A@?0A@EA@CGraphicBase@@8
rdata$r	SEGMENT
??_R1A@?0A@EA@CGraphicBase@@8 DD FLAT:??_R0?AVCGraphicBase@@@8 ; CGraphicBase::`RTTI Base Class Descriptor at (0,-1,0,64)'
	DD	00H
	DD	00H
	DD	0ffffffffH
	DD	00H
	DD	040H
	DD	FLAT:??_R3CGraphicBase@@8
rdata$r	ENDS
;	COMDAT ??_R1A@?0A@EA@CGraphicDevice@@8
rdata$r	SEGMENT
??_R1A@?0A@EA@CGraphicDevice@@8 DD FLAT:??_R0?AVCGraphicDevice@@@8 ; CGraphicDevice::`RTTI Base Class Descriptor at (0,-1,0,64)'
	DD	01H
	DD	00H
	DD	0ffffffffH
	DD	00H
	DD	040H
	DD	FLAT:??_R3CGraphicDevice@@8
rdata$r	ENDS
;	COMDAT ??_R2CGraphicDevice@@8
rdata$r	SEGMENT
??_R2CGraphicDevice@@8 DD FLAT:??_R1A@?0A@EA@CGraphicDevice@@8 ; CGraphicDevice::`RTTI Base Class Array'
	DD	FLAT:??_R1A@?0A@EA@CGraphicBase@@8
rdata$r	ENDS
;	COMDAT ??_R3CGraphicDevice@@8
rdata$r	SEGMENT
??_R3CGraphicDevice@@8 DD 00H				; CGraphicDevice::`RTTI Class Hierarchy Descriptor'
	DD	00H
	DD	02H
	DD	FLAT:??_R2CGraphicDevice@@8
rdata$r	ENDS
;	COMDAT ??_R0?AVCGraphicDevice@@@8
data$rs	SEGMENT
??_R0?AVCGraphicDevice@@@8 DD FLAT:??_7type_info@@6B@	; CGraphicDevice `RTTI Type Descriptor'
	DD	00H
	DB	'.?AVCGraphicDevice@@', 00H
data$rs	ENDS
;	COMDAT ??_R4CGraphicDevice@@6B@
rdata$r	SEGMENT
??_R4CGraphicDevice@@6B@ DD 00H				; CGraphicDevice::`RTTI Complete Object Locator'
	DD	00H
	DD	00H
	DD	FLAT:??_R0?AVCGraphicDevice@@@8
	DD	FLAT:??_R3CGraphicDevice@@8
rdata$r	ENDS
;	COMDAT ?c_awFillCubeIndices@?1??__CreateDefaultIndexBufferList@CGraphicDevice@@IAE_NXZ@4QBGB
CONST	SEGMENT
?c_awFillCubeIndices@?1??__CreateDefaultIndexBufferList@CGraphicDevice@@IAE_NXZ@4QBGB DW 00H ; `CGraphicDevice::__CreateDefaultIndexBufferList'::`2'::c_awFillCubeIndices
	DW	01H
	DW	02H
	DW	01H
	DW	03H
	DW	02H
	DW	02H
	DW	00H
	DW	06H
	DW	00H
	DW	04H
	DW	06H
	DW	00H
	DW	01H
	DW	04H
	DW	01H
	DW	05H
	DW	04H
	DW	01H
	DW	03H
	DW	05H
	DW	03H
	DW	07H
	DW	05H
	DW	03H
	DW	02H
	DW	07H
	DW	02H
	DW	06H
	DW	07H
	DW	04H
	DW	05H
	DW	06H
	DW	05H
	DW	07H
	DW	06H
CONST	ENDS
;	COMDAT ?c_awFillRectIndices@?1??__CreateDefaultIndexBufferList@CGraphicDevice@@IAE_NXZ@4QBGB
CONST	SEGMENT
?c_awFillRectIndices@?1??__CreateDefaultIndexBufferList@CGraphicDevice@@IAE_NXZ@4QBGB DW 00H ; `CGraphicDevice::__CreateDefaultIndexBufferList'::`2'::c_awFillRectIndices
	DW	02H
	DW	01H
	DW	02H
	DW	03H
	DW	01H
CONST	ENDS
;	COMDAT ?c_awFillTriIndices@?1??__CreateDefaultIndexBufferList@CGraphicDevice@@IAE_NXZ@4QBGB
CONST	SEGMENT
?c_awFillTriIndices@?1??__CreateDefaultIndexBufferList@CGraphicDevice@@IAE_NXZ@4QBGB DW 00H ; `CGraphicDevice::__CreateDefaultIndexBufferList'::`2'::c_awFillTriIndices
	DW	01H
	DW	02H
CONST	ENDS
;	COMDAT ?c_awLineCubeIndices@?1??__CreateDefaultIndexBufferList@CGraphicDevice@@IAE_NXZ@4QBGB
CONST	SEGMENT
?c_awLineCubeIndices@?1??__CreateDefaultIndexBufferList@CGraphicDevice@@IAE_NXZ@4QBGB DW 00H ; `CGraphicDevice::__CreateDefaultIndexBufferList'::`2'::c_awLineCubeIndices
	DW	01H
	DW	00H
	DW	02H
	DW	01H
	DW	03H
	DW	02H
	DW	03H
	DW	00H
	DW	04H
	DW	01H
	DW	05H
	DW	02H
	DW	06H
	DW	03H
	DW	07H
	DW	04H
	DW	05H
	DW	04H
	DW	06H
	DW	05H
	DW	07H
	DW	06H
	DW	07H
CONST	ENDS
;	COMDAT ?c_awLineRectIndices@?1??__CreateDefaultIndexBufferList@CGraphicDevice@@IAE_NXZ@4QBGB
CONST	SEGMENT
?c_awLineRectIndices@?1??__CreateDefaultIndexBufferList@CGraphicDevice@@IAE_NXZ@4QBGB DW 00H ; `CGraphicDevice::__CreateDefaultIndexBufferList'::`2'::c_awLineRectIndices
	DW	01H
	DW	00H
	DW	02H
	DW	01H
	DW	03H
	DW	02H
	DW	03H
CONST	ENDS
;	COMDAT ?c_awLineTriIndices@?1??__CreateDefaultIndexBufferList@CGraphicDevice@@IAE_NXZ@4QBGB
CONST	SEGMENT
?c_awLineTriIndices@?1??__CreateDefaultIndexBufferList@CGraphicDevice@@IAE_NXZ@4QBGB DW 00H ; `CGraphicDevice::__CreateDefaultIndexBufferList'::`2'::c_awLineTriIndices
	DW	01H
	DW	00H
	DW	02H
	DW	01H
	DW	02H
CONST	ENDS
;	COMDAT ?c_awLineIndices@?1??__CreateDefaultIndexBufferList@CGraphicDevice@@IAE_NXZ@4QBGB
CONST	SEGMENT
?c_awLineIndices@?1??__CreateDefaultIndexBufferList@CGraphicDevice@@IAE_NXZ@4QBGB DW 00H ; `CGraphicDevice::__CreateDefaultIndexBufferList'::`2'::c_awLineIndices
	DW	01H
CONST	ENDS
;	COMDAT ??_C@_03OJNODIHH@SIS@
CONST	SEGMENT
??_C@_03OJNODIHH@SIS@ DB 'SIS', 00H			; `string'
CONST	ENDS
;	COMDAT ??_C@_0CJ@PKDINAHJ@IDirect3DDevice?4GetDeviceCaps?5?9@
CONST	SEGMENT
??_C@_0CJ@PKDINAHJ@IDirect3DDevice?4GetDeviceCaps?5?9@ DB 'IDirect3DDevic'
	DB	'e.GetDeviceCaps - ERROR %d', 00H		; `string'
CONST	ENDS
;	COMDAT ??_C@_0CI@IPGGGCFB@IDirect3DDevice?4CreateDevice?5?9?5@
CONST	SEGMENT
??_C@_0CI@IPGGGCFB@IDirect3DDevice?4CreateDevice?5?9?5@ DB 'IDirect3DDevi'
	DB	'ce.CreateDevice - ERROR %d', 00H		; `string'
CONST	ENDS
;	COMDAT ??_C@_0ID@GFNIEGEI@IDirect3DDevice?4CreateDevice?5?9?5@
CONST	SEGMENT
??_C@_0ID@GFNIEGEI@IDirect3DDevice?4CreateDevice?5?9?5@ DB 'IDirect3DDevi'
	DB	'ce.CreateDevice - ERROR D3DERR_OUTOFVIDEOMEMORY', 0aH, 'Direc'
	DB	't3D does not have enough display memory to perform the operat'
	DB	'ion', 00H					; `string'
CONST	ENDS
;	COMDAT ??_C@_0GO@ICOCNPJJ@IDirect3DDevice?4CreateDevice?5?9?5@
CONST	SEGMENT
??_C@_0GO@ICOCNPJJ@IDirect3DDevice?4CreateDevice?5?9?5@ DB 'IDirect3DDevi'
	DB	'ce.CreateDevice - ERROR D3DERR_NOTAVAILABLE', 0aH, 'This devi'
	DB	'ce does not support the queried technique. ', 00H ; `string'
CONST	ENDS
;	COMDAT ??_C@_0JB@NCJOPOMN@IDirect3DDevice?4CreateDevice?5?9?5@
CONST	SEGMENT
??_C@_0JB@NCJOPOMN@IDirect3DDevice?4CreateDevice?5?9?5@ DB 'IDirect3DDevi'
	DB	'ce.CreateDevice - ERROR D3DERR_INVALIDCALL', 0aH, 'The method'
	DB	' call is invalid. For example, a method''s parameter may have'
	DB	' an invalid value.', 00H			; `string'
CONST	ENDS
;	COMDAT ??_C@_04MAKEOOIM@3dfx@
CONST	SEGMENT
??_C@_04MAKEOOIM@3dfx@ DB '3dfx', 00H			; `string'
CONST	ENDS
;	COMDAT ??_C@_0BM@LIHILKDJ@device?5?$CFd?0?5mode?5?$CFd?5is?5EMPTY@
CONST	SEGMENT
??_C@_0BM@LIHILKDJ@device?5?$CFd?0?5mode?5?$CFd?5is?5EMPTY@ DB 'device %d'
	DB	', mode %d is EMPTY', 00H			; `string'
CONST	ENDS
;	COMDAT ??_C@_0BE@JAEGAKLI@adapter?5?$CFd?5is?5EMPTY@
CONST	SEGMENT
??_C@_0BE@JAEGAKLI@adapter?5?$CFd?5is?5EMPTY@ DB 'adapter %d is EMPTY', 00H ; `string'
CONST	ENDS
;	COMDAT ??_C@_08NLGDGEBC@?$CFs?5?$CFx?5?$CFx@
CONST	SEGMENT
??_C@_08NLGDGEBC@?$CFs?5?$CFx?5?$CFx@ DB '%s %x %x', 00H ; `string'
CONST	ENDS
;	COMDAT ??_C@_0L@NIHOAGKC@grpblk?4txt@
CONST	SEGMENT
??_C@_0L@NIHOAGKC@grpblk?4txt@ DB 'grpblk.txt', 00H	; `string'
CONST	ENDS
;	COMDAT ??_C@_01KDCPPGHE@r@
CONST	SEGMENT
??_C@_01KDCPPGHE@r@ DB 'r', 00H				; `string'
CONST	ENDS
;	COMDAT ??_C@_0BH@HJNPBJOM@Failed?5to?5reset?5device@
CONST	SEGMENT
??_C@_0BH@HJNPBJOM@Failed?5to?5reset?5device@ DB 'Failed to reset device', 00H ; `string'
CONST	ENDS
;	COMDAT ??_C@_07KGMMFLDN@Warning@
CONST	SEGMENT
??_C@_07KGMMFLDN@Warning@ DB 'Warning', 00H		; `string'
CONST	ENDS
;	COMDAT ??_7CGraphicDevice@@6B@
CONST	SEGMENT
??_7CGraphicDevice@@6B@ DD FLAT:??_R4CGraphicDevice@@6B@ ; CGraphicDevice::`vftable'
	DD	FLAT:??_ECGraphicDevice@@UAEPAXI@Z
CONST	ENDS
;	COMDAT ??_R1A@?0A@EA@bad_array_new_length@std@@8
rdata$r	SEGMENT
??_R1A@?0A@EA@bad_array_new_length@std@@8 DD FLAT:??_R0?AVbad_array_new_length@std@@@8 ; std::bad_array_new_length::`RTTI Base Class Descriptor at (0,-1,0,64)'
	DD	02H
	DD	00H
	DD	0ffffffffH
	DD	00H
	DD	040H
	DD	FLAT:??_R3bad_array_new_length@std@@8
rdata$r	ENDS
;	COMDAT ??_R2bad_array_new_length@std@@8
rdata$r	SEGMENT
??_R2bad_array_new_length@std@@8 DD FLAT:??_R1A@?0A@EA@bad_array_new_length@std@@8 ; std::bad_array_new_length::`RTTI Base Class Array'
	DD	FLAT:??_R1A@?0A@EA@bad_alloc@std@@8
	DD	FLAT:??_R1A@?0A@EA@exception@std@@8
rdata$r	ENDS
;	COMDAT ??_R3bad_array_new_length@std@@8
rdata$r	SEGMENT
??_R3bad_array_new_length@std@@8 DD 00H			; std::bad_array_new_length::`RTTI Class Hierarchy Descriptor'
	DD	00H
	DD	03H
	DD	FLAT:??_R2bad_array_new_length@std@@8
rdata$r	ENDS
;	COMDAT ??_R4bad_array_new_length@std@@6B@
rdata$r	SEGMENT
??_R4bad_array_new_length@std@@6B@ DD 00H		; std::bad_array_new_length::`RTTI Complete Object Locator'
	DD	00H
	DD	00H
	DD	FLAT:??_R0?AVbad_array_new_length@std@@@8
	DD	FLAT:??_R3bad_array_new_length@std@@8
rdata$r	ENDS
;	COMDAT ??_R1A@?0A@EA@bad_alloc@std@@8
rdata$r	SEGMENT
??_R1A@?0A@EA@bad_alloc@std@@8 DD FLAT:??_R0?AVbad_alloc@std@@@8 ; std::bad_alloc::`RTTI Base Class Descriptor at (0,-1,0,64)'
	DD	01H
	DD	00H
	DD	0ffffffffH
	DD	00H
	DD	040H
	DD	FLAT:??_R3bad_alloc@std@@8
rdata$r	ENDS
;	COMDAT ??_R2bad_alloc@std@@8
rdata$r	SEGMENT
??_R2bad_alloc@std@@8 DD FLAT:??_R1A@?0A@EA@bad_alloc@std@@8 ; std::bad_alloc::`RTTI Base Class Array'
	DD	FLAT:??_R1A@?0A@EA@exception@std@@8
rdata$r	ENDS
;	COMDAT ??_R3bad_alloc@std@@8
rdata$r	SEGMENT
??_R3bad_alloc@std@@8 DD 00H				; std::bad_alloc::`RTTI Class Hierarchy Descriptor'
	DD	00H
	DD	02H
	DD	FLAT:??_R2bad_alloc@std@@8
rdata$r	ENDS
;	COMDAT ??_R4bad_alloc@std@@6B@
rdata$r	SEGMENT
??_R4bad_alloc@std@@6B@ DD 00H				; std::bad_alloc::`RTTI Complete Object Locator'
	DD	00H
	DD	00H
	DD	FLAT:??_R0?AVbad_alloc@std@@@8
	DD	FLAT:??_R3bad_alloc@std@@8
rdata$r	ENDS
;	COMDAT ??_R1A@?0A@EA@exception@std@@8
rdata$r	SEGMENT
??_R1A@?0A@EA@exception@std@@8 DD FLAT:??_R0?AVexception@std@@@8 ; std::exception::`RTTI Base Class Descriptor at (0,-1,0,64)'
	DD	00H
	DD	00H
	DD	0ffffffffH
	DD	00H
	DD	040H
	DD	FLAT:??_R3exception@std@@8
rdata$r	ENDS
;	COMDAT ??_R2exception@std@@8
rdata$r	SEGMENT
??_R2exception@std@@8 DD FLAT:??_R1A@?0A@EA@exception@std@@8 ; std::exception::`RTTI Base Class Array'
rdata$r	ENDS
;	COMDAT ??_R3exception@std@@8
rdata$r	SEGMENT
??_R3exception@std@@8 DD 00H				; std::exception::`RTTI Class Hierarchy Descriptor'
	DD	00H
	DD	01H
	DD	FLAT:??_R2exception@std@@8
rdata$r	ENDS
;	COMDAT ??_R4exception@std@@6B@
rdata$r	SEGMENT
??_R4exception@std@@6B@ DD 00H				; std::exception::`RTTI Complete Object Locator'
	DD	00H
	DD	00H
	DD	FLAT:??_R0?AVexception@std@@@8
	DD	FLAT:??_R3exception@std@@8
rdata$r	ENDS
;	COMDAT ??_C@_0BB@GCADKGJO@map?1set?5too?5long@
CONST	SEGMENT
??_C@_0BB@GCADKGJO@map?1set?5too?5long@ DB 'map/set too long', 00H ; `string'
CONST	ENDS
;	COMDAT ??_C@_0BA@JFNIOLAK@string?5too?5long@
CONST	SEGMENT
??_C@_0BA@JFNIOLAK@string?5too?5long@ DB 'string too long', 00H ; `string'
CONST	ENDS
;	COMDAT __CT??_R0?AVexception@std@@@8??0exception@std@@QAE@ABV01@@Z12
xdata$x	SEGMENT
__CT??_R0?AVexception@std@@@8??0exception@std@@QAE@ABV01@@Z12 DD 00H
	DD	FLAT:??_R0?AVexception@std@@@8
	DD	00H
	DD	0ffffffffH
	ORG $+4
	DD	0cH
	DD	FLAT:??0exception@std@@QAE@ABV01@@Z
xdata$x	ENDS
;	COMDAT ??_R0?AVexception@std@@@8
data$r	SEGMENT
??_R0?AVexception@std@@@8 DD FLAT:??_7type_info@@6B@	; std::exception `RTTI Type Descriptor'
	DD	00H
	DB	'.?AVexception@std@@', 00H
data$r	ENDS
;	COMDAT __CT??_R0?AVbad_alloc@std@@@8??0bad_alloc@std@@QAE@ABV01@@Z12
xdata$x	SEGMENT
__CT??_R0?AVbad_alloc@std@@@8??0bad_alloc@std@@QAE@ABV01@@Z12 DD 010H
	DD	FLAT:??_R0?AVbad_alloc@std@@@8
	DD	00H
	DD	0ffffffffH
	ORG $+4
	DD	0cH
	DD	FLAT:??0bad_alloc@std@@QAE@ABV01@@Z
xdata$x	ENDS
;	COMDAT ??_R0?AVbad_alloc@std@@@8
data$r	SEGMENT
??_R0?AVbad_alloc@std@@@8 DD FLAT:??_7type_info@@6B@	; std::bad_alloc `RTTI Type Descriptor'
	DD	00H
	DB	'.?AVbad_alloc@std@@', 00H
data$r	ENDS
;	COMDAT __CT??_R0?AVbad_array_new_length@std@@@8??0bad_array_new_length@std@@QAE@ABV01@@Z12
xdata$x	SEGMENT
__CT??_R0?AVbad_array_new_length@std@@@8??0bad_array_new_length@std@@QAE@ABV01@@Z12 DD 00H
	DD	FLAT:??_R0?AVbad_array_new_length@std@@@8
	DD	00H
	DD	0ffffffffH
	ORG $+4
	DD	0cH
	DD	FLAT:??0bad_array_new_length@std@@QAE@ABV01@@Z
xdata$x	ENDS
;	COMDAT ??_R0?AVbad_array_new_length@std@@@8
data$r	SEGMENT
??_R0?AVbad_array_new_length@std@@@8 DD FLAT:??_7type_info@@6B@ ; std::bad_array_new_length `RTTI Type Descriptor'
	DD	00H
	DB	'.?AVbad_array_new_length@std@@', 00H
data$r	ENDS
;	COMDAT __CTA3?AVbad_array_new_length@std@@
xdata$x	SEGMENT
__CTA3?AVbad_array_new_length@std@@ DD 03H
	DD	FLAT:__CT??_R0?AVbad_array_new_length@std@@@8??0bad_array_new_length@std@@QAE@ABV01@@Z12
	DD	FLAT:__CT??_R0?AVbad_alloc@std@@@8??0bad_alloc@std@@QAE@ABV01@@Z12
	DD	FLAT:__CT??_R0?AVexception@std@@@8??0exception@std@@QAE@ABV01@@Z12
xdata$x	ENDS
;	COMDAT __TI3?AVbad_array_new_length@std@@
xdata$x	SEGMENT
__TI3?AVbad_array_new_length@std@@ DD 00H
	DD	FLAT:??1bad_array_new_length@std@@UAE@XZ
	DD	00H
	DD	FLAT:__CTA3?AVbad_array_new_length@std@@
xdata$x	ENDS
;	COMDAT ??_C@_0BF@KINCDENJ@bad?5array?5new?5length@
CONST	SEGMENT
??_C@_0BF@KINCDENJ@bad?5array?5new?5length@ DB 'bad array new length', 00H ; `string'
CONST	ENDS
;	COMDAT ??_7bad_array_new_length@std@@6B@
CONST	SEGMENT
??_7bad_array_new_length@std@@6B@ DD FLAT:??_R4bad_array_new_length@std@@6B@ ; std::bad_array_new_length::`vftable'
	DD	FLAT:??_Ebad_array_new_length@std@@UAEPAXI@Z
	DD	FLAT:?what@exception@std@@UBEPBDXZ
CONST	ENDS
;	COMDAT ??_7bad_alloc@std@@6B@
CONST	SEGMENT
??_7bad_alloc@std@@6B@ DD FLAT:??_R4bad_alloc@std@@6B@	; std::bad_alloc::`vftable'
	DD	FLAT:??_Ebad_alloc@std@@UAEPAXI@Z
	DD	FLAT:?what@exception@std@@UBEPBDXZ
CONST	ENDS
;	COMDAT ??_C@_0BC@EOODALEL@Unknown?5exception@
CONST	SEGMENT
??_C@_0BC@EOODALEL@Unknown?5exception@ DB 'Unknown exception', 00H ; `string'
CONST	ENDS
;	COMDAT ??_7exception@std@@6B@
CONST	SEGMENT
??_7exception@std@@6B@ DD FLAT:??_R4exception@std@@6B@	; std::exception::`vftable'
	DD	FLAT:??_Eexception@std@@UAEPAXI@Z
	DD	FLAT:?what@exception@std@@UBEPBDXZ
CONST	ENDS
;	COMDAT xdata$x
xdata$x	SEGMENT
__unwindtable$??$?0ABUpiecewise_construct_t@std@@V?$tuple@ABI@1@V?$tuple@$$V@1@@?$_Tree_temp_node@V?$allocator@U?$_Tree_node@U?$pair@$$CBIV?$basic_string@DU?$char_traits@D@std@@V?$allocator@D@2@@std@@@std@@PAX@std@@@std@@@std@@QAE@AAV?$allocator@U?$_Tree_node@U?$pair@$$CBIV?$basic_string@DU?$char_traits@D@std@@V?$allocator@D@2@@std@@@std@@PAX@std@@@1@PAU?$_Tree_node@U?$pair@$$CBIV?$basic_string@DU?$char_traits@D@std@@V?$allocator@D@2@@std@@@std@@PAX@1@ABUpiecewise_construct_t@1@$$QAV?$tuple@ABI@1@$$QAV?$tuple@$$V@1@@Z DD 0ffffffffH
	DD	FLAT:__unwindfunclet$??$?0ABUpiecewise_construct_t@std@@V?$tuple@ABI@1@V?$tuple@$$V@1@@?$_Tree_temp_node@V?$allocator@U?$_Tree_node@U?$pair@$$CBIV?$basic_string@DU?$char_traits@D@std@@V?$allocator@D@2@@std@@@std@@PAX@std@@@std@@@std@@QAE@AAV?$allocator@U?$_Tree_node@U?$pair@$$CBIV?$basic_string@DU?$char_traits@D@std@@V?$allocator@D@2@@std@@@std@@PAX@std@@@1@PAU?$_Tree_node@U?$pair@$$CBIV?$basic_string@DU?$char_traits@D@std@@V?$allocator@D@2@@std@@@std@@PAX@1@ABUpiecewise_construct_t@1@$$QAV?$tuple@ABI@1@$$QAV?$tuple@$$V@1@@Z$1
__ehfuncinfo$??$?0ABUpiecewise_construct_t@std@@V?$tuple@ABI@1@V?$tuple@$$V@1@@?$_Tree_temp_node@V?$allocator@U?$_Tree_node@U?$pair@$$CBIV?$basic_string@DU?$char_traits@D@std@@V?$allocator@D@2@@std@@@std@@PAX@std@@@std@@@std@@QAE@AAV?$allocator@U?$_Tree_node@U?$pair@$$CBIV?$basic_string@DU?$char_traits@D@std@@V?$allocator@D@2@@std@@@std@@PAX@std@@@1@PAU?$_Tree_node@U?$pair@$$CBIV?$basic_string@DU?$char_traits@D@std@@V?$allocator@D@2@@std@@@std@@PAX@1@ABUpiecewise_construct_t@1@$$QAV?$tuple@ABI@1@$$QAV?$tuple@$$V@1@@Z DD 019930522H
	DD	01H
	DD	FLAT:__unwindtable$??$?0ABUpiecewise_construct_t@std@@V?$tuple@ABI@1@V?$tuple@$$V@1@@?$_Tree_temp_node@V?$allocator@U?$_Tree_node@U?$pair@$$CBIV?$basic_string@DU?$char_traits@D@std@@V?$allocator@D@2@@std@@@std@@PAX@std@@@std@@@std@@QAE@AAV?$allocator@U?$_Tree_node@U?$pair@$$CBIV?$basic_string@DU?$char_traits@D@std@@V?$allocator@D@2@@std@@@std@@PAX@std@@@1@PAU?$_Tree_node@U?$pair@$$CBIV?$basic_string@DU?$char_traits@D@std@@V?$allocator@D@2@@std@@@std@@PAX@1@ABUpiecewise_construct_t@1@$$QAV?$tuple@ABI@1@$$QAV?$tuple@$$V@1@@Z
	DD	2 DUP(00H)
	DD	2 DUP(00H)
	DD	00H
	DD	01H
xdata$x	ENDS
;	COMDAT xdata$x
xdata$x	SEGMENT
__unwindtable$??0?$_Tree_temp_node_alloc@V?$allocator@U?$_Tree_node@U?$pair@$$CBIV?$basic_string@DU?$char_traits@D@std@@V?$allocator@D@2@@std@@@std@@PAX@std@@@std@@@std@@QAE@AAV?$allocator@U?$_Tree_node@U?$pair@$$CBIV?$basic_string@DU?$char_traits@D@std@@V?$allocator@D@2@@std@@@std@@PAX@std@@@1@@Z DD 0ffffffffH
	DD	FLAT:__unwindfunclet$??0?$_Tree_temp_node_alloc@V?$allocator@U?$_Tree_node@U?$pair@$$CBIV?$basic_string@DU?$char_traits@D@std@@V?$allocator@D@2@@std@@@std@@PAX@std@@@std@@@std@@QAE@AAV?$allocator@U?$_Tree_node@U?$pair@$$CBIV?$basic_string@DU?$char_traits@D@std@@V?$allocator@D@2@@std@@@std@@PAX@std@@@1@@Z$0
__ehfuncinfo$??0?$_Tree_temp_node_alloc@V?$allocator@U?$_Tree_node@U?$pair@$$CBIV?$basic_string@DU?$char_traits@D@std@@V?$allocator@D@2@@std@@@std@@PAX@std@@@std@@@std@@QAE@AAV?$allocator@U?$_Tree_node@U?$pair@$$CBIV?$basic_string@DU?$char_traits@D@std@@V?$allocator@D@2@@std@@@std@@PAX@std@@@1@@Z DD 019930522H
	DD	01H
	DD	FLAT:__unwindtable$??0?$_Tree_temp_node_alloc@V?$allocator@U?$_Tree_node@U?$pair@$$CBIV?$basic_string@DU?$char_traits@D@std@@V?$allocator@D@2@@std@@@std@@PAX@std@@@std@@@std@@QAE@AAV?$allocator@U?$_Tree_node@U?$pair@$$CBIV?$basic_string@DU?$char_traits@D@std@@V?$allocator@D@2@@std@@@std@@PAX@std@@@1@@Z
	DD	2 DUP(00H)
	DD	2 DUP(00H)
	DD	00H
	DD	01H
xdata$x	ENDS
;	COMDAT xdata$x
xdata$x	SEGMENT
__unwindtable$??$_Try_emplace@ABI$$V@?$map@IV?$basic_string@DU?$char_traits@D@std@@V?$allocator@D@2@@std@@U?$less@I@2@V?$allocator@U?$pair@$$CBIV?$basic_string@DU?$char_traits@D@std@@V?$allocator@D@2@@std@@@std@@@2@@std@@AAE?AU?$pair@PAU?$_Tree_node@U?$pair@$$CBIV?$basic_string@DU?$char_traits@D@std@@V?$allocator@D@2@@std@@@std@@PAX@std@@_N@1@ABI@Z DD 0ffffffffH
	DD	FLAT:__unwindfunclet$??$_Try_emplace@ABI$$V@?$map@IV?$basic_string@DU?$char_traits@D@std@@V?$allocator@D@2@@std@@U?$less@I@2@V?$allocator@U?$pair@$$CBIV?$basic_string@DU?$char_traits@D@std@@V?$allocator@D@2@@std@@@std@@@2@@std@@AAE?AU?$pair@PAU?$_Tree_node@U?$pair@$$CBIV?$basic_string@DU?$char_traits@D@std@@V?$allocator@D@2@@std@@@std@@PAX@std@@_N@1@ABI@Z$2
__ehfuncinfo$??$_Try_emplace@ABI$$V@?$map@IV?$basic_string@DU?$char_traits@D@std@@V?$allocator@D@2@@std@@U?$less@I@2@V?$allocator@U?$pair@$$CBIV?$basic_string@DU?$char_traits@D@std@@V?$allocator@D@2@@std@@@std@@@2@@std@@AAE?AU?$pair@PAU?$_Tree_node@U?$pair@$$CBIV?$basic_string@DU?$char_traits@D@std@@V?$allocator@D@2@@std@@@std@@PAX@std@@_N@1@ABI@Z DD 019930522H
	DD	01H
	DD	FLAT:__unwindtable$??$_Try_emplace@ABI$$V@?$map@IV?$basic_string@DU?$char_traits@D@std@@V?$allocator@D@2@@std@@U?$less@I@2@V?$allocator@U?$pair@$$CBIV?$basic_string@DU?$char_traits@D@std@@V?$allocator@D@2@@std@@@std@@@2@@std@@AAE?AU?$pair@PAU?$_Tree_node@U?$pair@$$CBIV?$basic_string@DU?$char_traits@D@std@@V?$allocator@D@2@@std@@@std@@PAX@std@@_N@1@ABI@Z
	DD	2 DUP(00H)
	DD	2 DUP(00H)
	DD	00H
	DD	01H
xdata$x	ENDS
;	COMDAT xdata$x
xdata$x	SEGMENT
__unwindtable$??A?$map@IV?$basic_string@DU?$char_traits@D@std@@V?$allocator@D@2@@std@@U?$less@I@2@V?$allocator@U?$pair@$$CBIV?$basic_string@DU?$char_traits@D@std@@V?$allocator@D@2@@std@@@std@@@2@@std@@QAEAAV?$basic_string@DU?$char_traits@D@std@@V?$allocator@D@2@@1@ABI@Z DD 0ffffffffH
	DD	FLAT:__unwindfunclet$??A?$map@IV?$basic_string@DU?$char_traits@D@std@@V?$allocator@D@2@@std@@U?$less@I@2@V?$allocator@U?$pair@$$CBIV?$basic_string@DU?$char_traits@D@std@@V?$allocator@D@2@@std@@@std@@@2@@std@@QAEAAV?$basic_string@DU?$char_traits@D@std@@V?$allocator@D@2@@1@ABI@Z$2
__ehfuncinfo$??A?$map@IV?$basic_string@DU?$char_traits@D@std@@V?$allocator@D@2@@std@@U?$less@I@2@V?$allocator@U?$pair@$$CBIV?$basic_string@DU?$char_traits@D@std@@V?$allocator@D@2@@std@@@std@@@2@@std@@QAEAAV?$basic_string@DU?$char_traits@D@std@@V?$allocator@D@2@@1@ABI@Z DD 019930522H
	DD	01H
	DD	FLAT:__unwindtable$??A?$map@IV?$basic_string@DU?$char_traits@D@std@@V?$allocator@D@2@@std@@U?$less@I@2@V?$allocator@U?$pair@$$CBIV?$basic_string@DU?$char_traits@D@std@@V?$allocator@D@2@@std@@@std@@@2@@std@@QAEAAV?$basic_string@DU?$char_traits@D@std@@V?$allocator@D@2@@1@ABI@Z
	DD	2 DUP(00H)
	DD	2 DUP(00H)
	DD	00H
	DD	01H
xdata$x	ENDS
;	COMDAT xdata$x
xdata$x	SEGMENT
__unwindtable$?Create@CGraphicDevice@@QAEHPAUHWND__@@HH_NHH@Z DD 0ffffffffH
	DD	FLAT:__unwindfunclet$?Create@CGraphicDevice@@QAEHPAUHWND__@@HH_NHH@Z$0
	DD	00H
	DD	FLAT:__unwindfunclet$?Create@CGraphicDevice@@QAEHPAUHWND__@@HH_NHH@Z$1
	DD	01H
	DD	FLAT:__unwindfunclet$?Create@CGraphicDevice@@QAEHPAUHWND__@@HH_NHH@Z$2
__ehfuncinfo$?Create@CGraphicDevice@@QAEHPAUHWND__@@HH_NHH@Z DD 019930522H
	DD	03H
	DD	FLAT:__unwindtable$?Create@CGraphicDevice@@QAEHPAUHWND__@@HH_NHH@Z
	DD	2 DUP(00H)
	DD	2 DUP(00H)
	DD	00H
	DD	01H
xdata$x	ENDS
;	COMDAT xdata$x
xdata$x	SEGMENT
__ehfuncinfo$??1CGraphicDevice@@UAE@XZ DD 019930522H
	DD	00H
	DD	00H
	DD	2 DUP(00H)
	DD	2 DUP(00H)
	DD	00H
	DD	05H
xdata$x	ENDS
;	COMDAT xdata$x
xdata$x	SEGMENT
__unwindtable$??0CGraphicDevice@@QAE@XZ DD 0ffffffffH
	DD	FLAT:__unwindfunclet$??0CGraphicDevice@@QAE@XZ$0
__ehfuncinfo$??0CGraphicDevice@@QAE@XZ DD 019930522H
	DD	01H
	DD	FLAT:__unwindtable$??0CGraphicDevice@@QAE@XZ
	DD	2 DUP(00H)
	DD	2 DUP(00H)
	DD	00H
	DD	01H
xdata$x	ENDS
; Function compile flags: /Ogtp
; File C:\Program Files\Microsoft Visual Studio\2022\Community\VC\Tools\MSVC\14.34.31933\include\xtree
; File C:\Program Files\Microsoft Visual Studio\2022\Community\VC\Tools\MSVC\14.34.31933\include\utility
; File C:\Program Files\Microsoft Visual Studio\2022\Community\VC\Tools\MSVC\14.34.31933\include\xstring
; File C:\Program Files\Microsoft Visual Studio\2022\Community\VC\Tools\MSVC\14.34.31933\include\xmemory
; File C:\Program Files\Microsoft Visual Studio\2022\Community\VC\Tools\MSVC\14.34.31933\include\xstring
; File C:\Program Files\Microsoft Visual Studio\2022\Community\VC\Tools\MSVC\14.34.31933\include\xmemory
; File C:\Program Files\Microsoft Visual Studio\2022\Community\VC\Tools\MSVC\14.34.31933\include\xstring
; File C:\Program Files\Microsoft Visual Studio\2022\Community\VC\Tools\MSVC\14.34.31933\include\xmemory
; File C:\Program Files\Microsoft Visual Studio\2022\Community\VC\Tools\MSVC\14.34.31933\include\xtree
; File C:\Program Files\Microsoft Visual Studio\2022\Community\VC\Tools\MSVC\14.34.31933\include\xmemory
; File C:\Program Files\Microsoft Visual Studio\2022\Community\VC\Tools\MSVC\14.34.31933\include\xtree
;	COMDAT ??$_Erase_tree@V?$allocator@U?$_Tree_node@U?$pair@$$CBIV?$basic_string@DU?$char_traits@D@std@@V?$allocator@D@2@@std@@@std@@PAX@std@@@std@@@?$_Tree_val@U?$_Tree_simple_types@U?$pair@$$CBIV?$basic_string@DU?$char_traits@D@std@@V?$allocator@D@2@@std@@@std@@@std@@@std@@QAEXAAV?$allocator@U?$_Tree_node@U?$pair@$$CBIV?$basic_string@DU?$char_traits@D@std@@V?$allocator@D@2@@std@@@std@@PAX@std@@@1@PAU?$_Tree_node@U?$pair@$$CBIV?$basic_string@DU?$char_traits@D@std@@V?$allocator@D@2@@std@@@std@@PAX@1@@Z
_TEXT	SEGMENT
_this$1$ = -4						; size = 4
__Al$ = 8						; size = 4
__Rootnode$ = 12					; size = 4
??$_Erase_tree@V?$allocator@U?$_Tree_node@U?$pair@$$CBIV?$basic_string@DU?$char_traits@D@std@@V?$allocator@D@2@@std@@@std@@PAX@std@@@std@@@?$_Tree_val@U?$_Tree_simple_types@U?$pair@$$CBIV?$basic_string@DU?$char_traits@D@std@@V?$allocator@D@2@@std@@@std@@@std@@@std@@QAEXAAV?$allocator@U?$_Tree_node@U?$pair@$$CBIV?$basic_string@DU?$char_traits@D@std@@V?$allocator@D@2@@std@@@std@@PAX@std@@@1@PAU?$_Tree_node@U?$pair@$$CBIV?$basic_string@DU?$char_traits@D@std@@V?$allocator@D@2@@std@@@std@@PAX@1@@Z PROC ; std::_Tree_val<std::_Tree_simple_types<std::pair<unsigned int const ,std::basic_string<char,std::char_traits<char>,std::allocator<char> > > > >::_Erase_tree<std::allocator<std::_Tree_node<std::pair<unsigned int const ,std::basic_string<char,std::char_traits<char>,std::allocator<char> > >,void *> > >, COMDAT
; _this$ = ecx

; 744  :     void _Erase_tree(_Alnode& _Al, _Nodeptr _Rootnode) noexcept {

  00000	55		 push	 ebp
  00001	8b ec		 mov	 ebp, esp
  00003	51		 push	 ecx
  00004	57		 push	 edi

; 745  :         while (!_Rootnode->_Isnil) { // free subtrees, then node

  00005	8b 7d 0c	 mov	 edi, DWORD PTR __Rootnode$[ebp]
  00008	8b c1		 mov	 eax, ecx
  0000a	89 45 fc	 mov	 DWORD PTR _this$1$[ebp], eax
  0000d	80 7f 0d 00	 cmp	 BYTE PTR [edi+13], 0
  00011	75 6e		 jne	 SHORT $LN73@Erase_tree
  00013	53		 push	 ebx
  00014	8b 5d 08	 mov	 ebx, DWORD PTR __Al$[ebp]
  00017	56		 push	 esi
$LL2@Erase_tree:

; 746  :             _Erase_tree(_Al, _Rootnode->_Right);

  00018	ff 77 08	 push	 DWORD PTR [edi+8]
  0001b	8b c8		 mov	 ecx, eax
  0001d	53		 push	 ebx
  0001e	e8 00 00 00 00	 call	 ??$_Erase_tree@V?$allocator@U?$_Tree_node@U?$pair@$$CBIV?$basic_string@DU?$char_traits@D@std@@V?$allocator@D@2@@std@@@std@@PAX@std@@@std@@@?$_Tree_val@U?$_Tree_simple_types@U?$pair@$$CBIV?$basic_string@DU?$char_traits@D@std@@V?$allocator@D@2@@std@@@std@@@std@@@std@@QAEXAAV?$allocator@U?$_Tree_node@U?$pair@$$CBIV?$basic_string@DU?$char_traits@D@std@@V?$allocator@D@2@@std@@@std@@PAX@std@@@1@PAU?$_Tree_node@U?$pair@$$CBIV?$basic_string@DU?$char_traits@D@std@@V?$allocator@D@2@@std@@@std@@PAX@1@@Z ; std::_Tree_val<std::_Tree_simple_types<std::pair<unsigned int const ,std::basic_string<char,std::char_traits<char>,std::allocator<char> > > > >::_Erase_tree<std::allocator<std::_Tree_node<std::pair<unsigned int const ,std::basic_string<char,std::char_traits<char>,std::allocator<char> > >,void *> > >
; File C:\Program Files\Microsoft Visual Studio\2022\Community\VC\Tools\MSVC\14.34.31933\include\utility

; 653  :     _Ty _Old_val = static_cast<_Ty&&>(_Val);

  00023	8b f7		 mov	 esi, edi

; 654  :     _Val         = static_cast<_Other&&>(_New_val);

  00025	8b 3f		 mov	 edi, DWORD PTR [edi]
; File C:\Program Files\Microsoft Visual Studio\2022\Community\VC\Tools\MSVC\14.34.31933\include\xstring

; 2301 :         return _BUF_SIZE <= _Myres;

  00027	8b 4e 28	 mov	 ecx, DWORD PTR [esi+40]
  0002a	83 f9 10	 cmp	 ecx, 16			; 00000010H

; 5011 :         if (_My_data._Large_string_engaged()) {

  0002d	72 28		 jb	 SHORT $LN29@Erase_tree
; File C:\Program Files\Microsoft Visual Studio\2022\Community\VC\Tools\MSVC\14.34.31933\include\xmemory

; 830  :         _Deallocate<_New_alignof<_Ty>>(_Ptr, sizeof(_Ty) * _Count);

  0002f	8b 46 14	 mov	 eax, DWORD PTR [esi+20]
; File C:\Program Files\Microsoft Visual Studio\2022\Community\VC\Tools\MSVC\14.34.31933\include\xstring

; 5016 :             _Al.deallocate(_Ptr, _My_data._Myres + 1);

  00032	41		 inc	 ecx
; File C:\Program Files\Microsoft Visual Studio\2022\Community\VC\Tools\MSVC\14.34.31933\include\xmemory

; 251  :         if (_Bytes >= _Big_allocation_threshold) { // boost the alignment of big allocations to help autovectorization

  00033	81 f9 00 10 00
	00		 cmp	 ecx, 4096		; 00001000H
  00039	72 12		 jb	 SHORT $LN39@Erase_tree

; 150  :     const uintptr_t _Ptr_container   = _Ptr_user[-1];

  0003b	8b 50 fc	 mov	 edx, DWORD PTR [eax-4]
  0003e	83 c1 23	 add	 ecx, 35			; 00000023H

; 151  : 
; 152  :     // If the following asserts, it likely means that we are performing
; 153  :     // an aligned delete on memory coming from an unaligned allocation.
; 154  :     _STL_ASSERT(_Ptr_user[-2] == _Big_allocation_sentinel, "invalid argument");
; 155  : 
; 156  :     // Extra paranoia on aligned allocation/deallocation; ensure _Ptr_container is
; 157  :     // in range [_Min_back_shift, _Non_user_size]
; 158  : #ifdef _DEBUG
; 159  :     constexpr uintptr_t _Min_back_shift = 2 * sizeof(void*);
; 160  : #else // ^^^ _DEBUG ^^^ // vvv !_DEBUG vvv
; 161  :     constexpr uintptr_t _Min_back_shift = sizeof(void*);
; 162  : #endif // _DEBUG
; 163  :     const uintptr_t _Back_shift = reinterpret_cast<uintptr_t>(_Ptr) - _Ptr_container;

  00041	2b c2		 sub	 eax, edx

; 164  :     _STL_VERIFY(_Back_shift >= _Min_back_shift && _Back_shift <= _Non_user_size, "invalid argument");

  00043	83 c0 fc	 add	 eax, -4			; fffffffcH
  00046	83 f8 1f	 cmp	 eax, 31			; 0000001fH
  00049	77 3d		 ja	 SHORT $LN36@Erase_tree

; 165  :     _Ptr = reinterpret_cast<void*>(_Ptr_container);

  0004b	8b c2		 mov	 eax, edx
$LN39@Erase_tree:

; 255  :         ::operator delete(_Ptr, _Bytes);

  0004d	51		 push	 ecx
  0004e	50		 push	 eax
  0004f	e8 00 00 00 00	 call	 ??3@YAXPAXI@Z		; operator delete
  00054	83 c4 08	 add	 esp, 8
$LN29@Erase_tree:
  00057	6a 2c		 push	 44			; 0000002cH
  00059	56		 push	 esi
; File C:\Program Files\Microsoft Visual Studio\2022\Community\VC\Tools\MSVC\14.34.31933\include\xstring

; 5019 :         _My_data._Mysize = 0;

  0005a	c7 46 24 00 00
	00 00		 mov	 DWORD PTR [esi+36], 0

; 5020 :         _My_data._Myres  = _BUF_SIZE - 1;

  00061	c7 46 28 0f 00
	00 00		 mov	 DWORD PTR [esi+40], 15	; 0000000fH

; 5021 :         // the _Traits::assign is last so the codegen doesn't think the char write can alias this
; 5022 :         _Traits::assign(_My_data._Bx._Buf[0], _Elem());

  00068	c6 46 14 00	 mov	 BYTE PTR [esi+20], 0
; File C:\Program Files\Microsoft Visual Studio\2022\Community\VC\Tools\MSVC\14.34.31933\include\xmemory

; 255  :         ::operator delete(_Ptr, _Bytes);

  0006c	e8 00 00 00 00	 call	 ??3@YAXPAXI@Z		; operator delete
  00071	83 c4 08	 add	 esp, 8
; File C:\Program Files\Microsoft Visual Studio\2022\Community\VC\Tools\MSVC\14.34.31933\include\xtree

; 745  :         while (!_Rootnode->_Isnil) { // free subtrees, then node

  00074	80 7f 0d 00	 cmp	 BYTE PTR [edi+13], 0
  00078	75 05		 jne	 SHORT $LN75@Erase_tree
  0007a	8b 45 fc	 mov	 eax, DWORD PTR _this$1$[ebp]
  0007d	eb 99		 jmp	 SHORT $LL2@Erase_tree
$LN75@Erase_tree:
  0007f	5e		 pop	 esi
  00080	5b		 pop	 ebx
$LN73@Erase_tree:
  00081	5f		 pop	 edi

; 749  :     }

  00082	8b e5		 mov	 esp, ebp
  00084	5d		 pop	 ebp
  00085	c2 08 00	 ret	 8
$LN36@Erase_tree:
; File C:\Program Files\Microsoft Visual Studio\2022\Community\VC\Tools\MSVC\14.34.31933\include\xmemory

; 164  :     _STL_VERIFY(_Back_shift >= _Min_back_shift && _Back_shift <= _Non_user_size, "invalid argument");

  00088	e8 00 00 00 00	 call	 __invalid_parameter_noinfo_noreturn
$LN76@Erase_tree:
  0008d	cc		 int	 3
??$_Erase_tree@V?$allocator@U?$_Tree_node@U?$pair@$$CBIV?$basic_string@DU?$char_traits@D@std@@V?$allocator@D@2@@std@@@std@@PAX@std@@@std@@@?$_Tree_val@U?$_Tree_simple_types@U?$pair@$$CBIV?$basic_string@DU?$char_traits@D@std@@V?$allocator@D@2@@std@@@std@@@std@@@std@@QAEXAAV?$allocator@U?$_Tree_node@U?$pair@$$CBIV?$basic_string@DU?$char_traits@D@std@@V?$allocator@D@2@@std@@@std@@PAX@std@@@1@PAU?$_Tree_node@U?$pair@$$CBIV?$basic_string@DU?$char_traits@D@std@@V?$allocator@D@2@@std@@@std@@PAX@1@@Z ENDP ; std::_Tree_val<std::_Tree_simple_types<std::pair<unsigned int const ,std::basic_string<char,std::char_traits<char>,std::allocator<char> > > > >::_Erase_tree<std::allocator<std::_Tree_node<std::pair<unsigned int const ,std::basic_string<char,std::char_traits<char>,std::allocator<char> > >,void *> > >
_TEXT	ENDS
; Function compile flags: /Ogtp
; File C:\Program Files\Microsoft Visual Studio\2022\Community\VC\Tools\MSVC\14.34.31933\include\xmemory
;	COMDAT ??1?$_Alloc_construct_ptr@V?$allocator@U?$_Tree_node@U?$pair@$$CBIV?$basic_string@DU?$char_traits@D@std@@V?$allocator@D@2@@std@@@std@@PAX@std@@@std@@@std@@QAE@XZ
_TEXT	SEGMENT
??1?$_Alloc_construct_ptr@V?$allocator@U?$_Tree_node@U?$pair@$$CBIV?$basic_string@DU?$char_traits@D@std@@V?$allocator@D@2@@std@@@std@@PAX@std@@@std@@@std@@QAE@XZ PROC ; std::_Alloc_construct_ptr<std::allocator<std::_Tree_node<std::pair<unsigned int const ,std::basic_string<char,std::char_traits<char>,std::allocator<char> > >,void *> > >::~_Alloc_construct_ptr<std::allocator<std::_Tree_node<std::pair<unsigned int const ,std::basic_string<char,std::char_traits<char>,std::allocator<char> > >,void *> > >, COMDAT
; _this$ = ecx

; 1017 :         if (_Ptr) {

  00000	8b 41 04	 mov	 eax, DWORD PTR [ecx+4]
  00003	85 c0		 test	 eax, eax
  00005	74 0b		 je	 SHORT $LN8@Alloc_cons

; 255  :         ::operator delete(_Ptr, _Bytes);

  00007	6a 2c		 push	 44			; 0000002cH
  00009	50		 push	 eax
  0000a	e8 00 00 00 00	 call	 ??3@YAXPAXI@Z		; operator delete
  0000f	83 c4 08	 add	 esp, 8
$LN8@Alloc_cons:

; 1018 :             _Al.deallocate(_Ptr, 1);
; 1019 :         }
; 1020 :     }

  00012	c3		 ret	 0
??1?$_Alloc_construct_ptr@V?$allocator@U?$_Tree_node@U?$pair@$$CBIV?$basic_string@DU?$char_traits@D@std@@V?$allocator@D@2@@std@@@std@@PAX@std@@@std@@@std@@QAE@XZ ENDP ; std::_Alloc_construct_ptr<std::allocator<std::_Tree_node<std::pair<unsigned int const ,std::basic_string<char,std::char_traits<char>,std::allocator<char> > >,void *> > >::~_Alloc_construct_ptr<std::allocator<std::_Tree_node<std::pair<unsigned int const ,std::basic_string<char,std::char_traits<char>,std::allocator<char> > >,void *> > >
_TEXT	ENDS
; Function compile flags: /Ogtp
; File C:\Program Files\Microsoft Visual Studio\2022\Community\VC\Tools\MSVC\14.34.31933\include\xtree
; File C:\Program Files\Microsoft Visual Studio\2022\Community\VC\Tools\MSVC\14.34.31933\include\xstddef
; File C:\Program Files\Microsoft Visual Studio\2022\Community\VC\Tools\MSVC\14.34.31933\include\xtree
; File C:\Program Files\Microsoft Visual Studio\2022\Community\VC\Tools\MSVC\14.34.31933\include\xstddef
; File C:\Program Files\Microsoft Visual Studio\2022\Community\VC\Tools\MSVC\14.34.31933\include\xtree
;	COMDAT ??$_Find_lower_bound@I@?$_Tree@V?$_Tmap_traits@IV?$basic_string@DU?$char_traits@D@std@@V?$allocator@D@2@@std@@U?$less@I@2@V?$allocator@U?$pair@$$CBIV?$basic_string@DU?$char_traits@D@std@@V?$allocator@D@2@@std@@@std@@@2@$0A@@std@@@std@@IBE?AU?$_Tree_find_result@PAU?$_Tree_node@U?$pair@$$CBIV?$basic_string@DU?$char_traits@D@std@@V?$allocator@D@2@@std@@@std@@PAX@std@@@1@ABI@Z
_TEXT	SEGMENT
___$ReturnUdt$ = 8					; size = 4
__Keyval$ = 12						; size = 4
??$_Find_lower_bound@I@?$_Tree@V?$_Tmap_traits@IV?$basic_string@DU?$char_traits@D@std@@V?$allocator@D@2@@std@@U?$less@I@2@V?$allocator@U?$pair@$$CBIV?$basic_string@DU?$char_traits@D@std@@V?$allocator@D@2@@std@@@std@@@2@$0A@@std@@@std@@IBE?AU?$_Tree_find_result@PAU?$_Tree_node@U?$pair@$$CBIV?$basic_string@DU?$char_traits@D@std@@V?$allocator@D@2@@std@@@std@@PAX@std@@@1@ABI@Z PROC ; std::_Tree<std::_Tmap_traits<unsigned int,std::basic_string<char,std::char_traits<char>,std::allocator<char> >,std::less<unsigned int>,std::allocator<std::pair<unsigned int const ,std::basic_string<char,std::char_traits<char>,std::allocator<char> > > >,0> >::_Find_lower_bound<unsigned int>, COMDAT
; _this$ = ecx

; 1609 :     _Tree_find_result<_Nodeptr> _Find_lower_bound(const _Keyty& _Keyval) const {

  00000	55		 push	 ebp
  00001	8b ec		 mov	 ebp, esp

; 1610 :         const auto _Scary = _Get_scary();
; 1611 :         _Tree_find_result<_Nodeptr> _Result{{_Scary->_Myhead->_Parent, _Tree_child::_Right}, _Scary->_Myhead};

  00003	8b 09		 mov	 ecx, DWORD PTR [ecx]
  00005	8b 55 08	 mov	 edx, DWORD PTR ___$ReturnUdt$[ebp]
  00008	8b 41 04	 mov	 eax, DWORD PTR [ecx+4]
  0000b	89 02		 mov	 DWORD PTR [edx], eax
  0000d	c7 42 04 00 00
	00 00		 mov	 DWORD PTR [edx+4], 0
  00014	89 4a 08	 mov	 DWORD PTR [edx+8], ecx

; 1612 :         _Nodeptr _Trynode = _Result._Location._Parent;
; 1613 :         while (!_Trynode->_Isnil) {

  00017	80 78 0d 00	 cmp	 BYTE PTR [eax+13], 0
  0001b	75 28		 jne	 SHORT $LN12@Find_lower
; File C:\Program Files\Microsoft Visual Studio\2022\Community\VC\Tools\MSVC\14.34.31933\include\xstddef

; 143  :         return _Left < _Right;

  0001d	8b 4d 0c	 mov	 ecx, DWORD PTR __Keyval$[ebp]
  00020	56		 push	 esi
  00021	8b 31		 mov	 esi, DWORD PTR [ecx]
$LL2@Find_lower:
; File C:\Program Files\Microsoft Visual Studio\2022\Community\VC\Tools\MSVC\14.34.31933\include\xtree

; 1614 :             _Result._Location._Parent = _Trynode;

  00023	89 02		 mov	 DWORD PTR [edx], eax
; File C:\Program Files\Microsoft Visual Studio\2022\Community\VC\Tools\MSVC\14.34.31933\include\xstddef

; 143  :         return _Left < _Right;

  00025	39 70 10	 cmp	 DWORD PTR [eax+16], esi
; File C:\Program Files\Microsoft Visual Studio\2022\Community\VC\Tools\MSVC\14.34.31933\include\xtree

; 1615 :             if (_DEBUG_LT_PRED(_Getcomp(), _Traits::_Kfn(_Trynode->_Myval), _Keyval)) {

  00028	73 07		 jae	 SHORT $LN4@Find_lower

; 1616 :                 _Result._Location._Child = _Tree_child::_Right;
; 1617 :                 _Trynode                 = _Trynode->_Right;

  0002a	8b 40 08	 mov	 eax, DWORD PTR [eax+8]
  0002d	33 c9		 xor	 ecx, ecx

; 1618 :             } else {

  0002f	eb 0a		 jmp	 SHORT $LN5@Find_lower
$LN4@Find_lower:

; 1619 :                 _Result._Location._Child = _Tree_child::_Left;
; 1620 :                 _Result._Bound           = _Trynode;

  00031	89 42 08	 mov	 DWORD PTR [edx+8], eax

; 1621 :                 _Trynode                 = _Trynode->_Left;

  00034	b9 01 00 00 00	 mov	 ecx, 1
  00039	8b 00		 mov	 eax, DWORD PTR [eax]
$LN5@Find_lower:

; 1612 :         _Nodeptr _Trynode = _Result._Location._Parent;
; 1613 :         while (!_Trynode->_Isnil) {

  0003b	89 4a 04	 mov	 DWORD PTR [edx+4], ecx
  0003e	80 78 0d 00	 cmp	 BYTE PTR [eax+13], 0
  00042	74 df		 je	 SHORT $LL2@Find_lower

; 1622 :             }
; 1623 :         }
; 1624 : 
; 1625 :         return _Result;

  00044	5e		 pop	 esi
$LN12@Find_lower:

; 1626 :     }

  00045	8b c2		 mov	 eax, edx
  00047	5d		 pop	 ebp
  00048	c2 08 00	 ret	 8
??$_Find_lower_bound@I@?$_Tree@V?$_Tmap_traits@IV?$basic_string@DU?$char_traits@D@std@@V?$allocator@D@2@@std@@U?$less@I@2@V?$allocator@U?$pair@$$CBIV?$basic_string@DU?$char_traits@D@std@@V?$allocator@D@2@@std@@@std@@@2@$0A@@std@@@std@@IBE?AU?$_Tree_find_result@PAU?$_Tree_node@U?$pair@$$CBIV?$basic_string@DU?$char_traits@D@std@@V?$allocator@D@2@@std@@@std@@PAX@std@@@1@ABI@Z ENDP ; std::_Tree<std::_Tmap_traits<unsigned int,std::basic_string<char,std::char_traits<char>,std::allocator<char> >,std::less<unsigned int>,std::allocator<std::pair<unsigned int const ,std::basic_string<char,std::char_traits<char>,std::allocator<char> > > >,0> >::_Find_lower_bound<unsigned int>
_TEXT	ENDS
; Function compile flags: /Ogtp
; File C:\Users\flourine\Desktop\Xantios\client-src\Code\EterLib\GrpDevice.cpp
;	COMDAT ?GetMaxTextureHeight@@YAKXZ
_TEXT	SEGMENT
?GetMaxTextureHeight@@YAKXZ PROC			; GetMaxTextureHeight, COMDAT

; 352  : 	return s_MaxTextureHeight;

  00000	a1 00 00 00 00	 mov	 eax, DWORD PTR ?s_MaxTextureHeight@@3KA

; 353  : }

  00005	c3		 ret	 0
?GetMaxTextureHeight@@YAKXZ ENDP			; GetMaxTextureHeight
_TEXT	ENDS
; Function compile flags: /Ogtp
; File C:\Users\flourine\Desktop\Xantios\client-src\Code\EterLib\GrpDevice.cpp
;	COMDAT ?GetMaxTextureWidth@@YAKXZ
_TEXT	SEGMENT
?GetMaxTextureWidth@@YAKXZ PROC				; GetMaxTextureWidth, COMDAT

; 347  : 	return s_MaxTextureWidth;

  00000	a1 00 00 00 00	 mov	 eax, DWORD PTR ?s_MaxTextureWidth@@3KA

; 348  : }

  00005	c3		 ret	 0
?GetMaxTextureWidth@@YAKXZ ENDP				; GetMaxTextureWidth
_TEXT	ENDS
; Function compile flags: /Ogtp
; File C:\Users\flourine\Desktop\Xantios\client-src\Code\EterLib\GrpDevice.cpp
;	COMDAT ?EL3D_ConfirmDevice@@YAHAAU_D3DCAPS9@@IW4_D3DFORMAT@@@Z
_TEXT	SEGMENT
_rkD3DCaps$ = 8						; size = 4
_uBehavior$ = 12					; size = 4
___formal$ = 16						; size = 4
?EL3D_ConfirmDevice@@YAHAAU_D3DCAPS9@@IW4_D3DFORMAT@@@Z PROC ; EL3D_ConfirmDevice, COMDAT

; 301  : {

  00000	55		 push	 ebp
  00001	8b ec		 mov	 ebp, esp

; 302  : 	if (uBehavior & D3DCREATE_PUREDEVICE)

  00003	8b 45 0c	 mov	 eax, DWORD PTR _uBehavior$[ebp]
  00006	a8 10		 test	 al, 16			; 00000010H
  00008	75 42		 jne	 SHORT $LN11@EL3D_Confi

; 303  : 	{
; 304  : 		return FALSE;
; 305  : 	}
; 306  : 
; 307  : 	if (uBehavior & D3DCREATE_HARDWARE_VERTEXPROCESSING)

  0000a	8b 4d 08	 mov	 ecx, DWORD PTR _rkD3DCaps$[ebp]
  0000d	a8 40		 test	 al, 64			; 00000040H
  0000f	74 24		 je	 SHORT $LN9@EL3D_Confi

; 308  : 	{
; 309  : 		// DirectionalLight
; 310  : 		if (!(rkD3DCaps.VertexProcessingCaps & D3DVTXPCAPS_DIRECTIONALLIGHTS))

  00011	8b 81 9c 00 00
	00		 mov	 eax, DWORD PTR [ecx+156]
  00017	a8 08		 test	 al, 8
  00019	74 31		 je	 SHORT $LN11@EL3D_Confi

; 311  : 		{
; 312  : 			return FALSE;
; 313  : 		}
; 314  : 
; 315  : 		// PositionalLight
; 316  : 		if (!(rkD3DCaps.VertexProcessingCaps & D3DVTXPCAPS_POSITIONALLIGHTS))

  0001b	a8 10		 test	 al, 16			; 00000010H
  0001d	74 2d		 je	 SHORT $LN11@EL3D_Confi

; 317  : 		{
; 318  : 			return FALSE;
; 319  : 		}
; 320  : 
; 321  : 		// Software T&L Support - ATI NOT SUPPORT CLIP, USE DIRECTX SOFTWARE PROCESSING CLIPPING
; 322  : 		if (GRAPHICS_CAPS_SOFTWARE_TILING)

  0001f	80 3d 00 00 00
	00 00		 cmp	 BYTE PTR ?GRAPHICS_CAPS_SOFTWARE_TILING@@3_NA, 0 ; GRAPHICS_CAPS_SOFTWARE_TILING
  00026	74 09		 je	 SHORT $LN6@EL3D_Confi

; 323  : 		{
; 324  : 			if (!(rkD3DCaps.PrimitiveMiscCaps & D3DPMISCCAPS_CLIPTLVERTS))

  00028	f7 41 20 00 02
	00 00		 test	 DWORD PTR [ecx+32], 512	; 00000200H
  0002f	eb 02		 jmp	 SHORT $LN16@EL3D_Confi
$LN6@EL3D_Confi:

; 325  : 			{
; 326  : 				return FALSE;
; 327  : 			}
; 328  : 		}
; 329  : 		else
; 330  : 		{
; 331  : 			// Shadow/Terrain
; 332  : 			if (!(rkD3DCaps.VertexProcessingCaps & D3DVTXPCAPS_TEXGEN))

  00031	a8 01		 test	 al, 1
$LN16@EL3D_Confi:

; 335  : 			}
; 336  : 		}
; 337  : 	}
; 338  : 
; 339  : 	s_MaxTextureWidth = rkD3DCaps.MaxTextureWidth;

  00033	74 17		 je	 SHORT $LN11@EL3D_Confi
$LN9@EL3D_Confi:
  00035	8b 41 58	 mov	 eax, DWORD PTR [ecx+88]
  00038	a3 00 00 00 00	 mov	 DWORD PTR ?s_MaxTextureWidth@@3KA, eax

; 340  : 	s_MaxTextureHeight = rkD3DCaps.MaxTextureHeight;

  0003d	8b 41 5c	 mov	 eax, DWORD PTR [ecx+92]
  00040	a3 00 00 00 00	 mov	 DWORD PTR ?s_MaxTextureHeight@@3KA, eax

; 341  : 
; 342  : 	return TRUE;

  00045	b8 01 00 00 00	 mov	 eax, 1

; 343  : }

  0004a	5d		 pop	 ebp
  0004b	c3		 ret	 0
$LN11@EL3D_Confi:

; 333  : 			{
; 334  : 				return FALSE;

  0004c	33 c0		 xor	 eax, eax

; 343  : }

  0004e	5d		 pop	 ebp
  0004f	c3		 ret	 0
?EL3D_ConfirmDevice@@YAHAAU_D3DCAPS9@@IW4_D3DFORMAT@@@Z ENDP ; EL3D_ConfirmDevice
_TEXT	ENDS
; Function compile flags: /Ogtp
;	COMDAT ??_GCGraphicDevice@@UAEPAXI@Z
_TEXT	SEGMENT
___flags$ = 8						; size = 4
??_GCGraphicDevice@@UAEPAXI@Z PROC			; CGraphicDevice::`scalar deleting destructor', COMDAT
; _this$ = ecx
  00000	55		 push	 ebp
  00001	8b ec		 mov	 ebp, esp
  00003	56		 push	 esi
  00004	8b f1		 mov	 esi, ecx
  00006	e8 00 00 00 00	 call	 ??1CGraphicDevice@@UAE@XZ ; CGraphicDevice::~CGraphicDevice
  0000b	f6 45 08 01	 test	 BYTE PTR ___flags$[ebp], 1
  0000f	74 0b		 je	 SHORT $LN4@scalar
  00011	6a 14		 push	 20			; 00000014H
  00013	56		 push	 esi
  00014	e8 00 00 00 00	 call	 ??3@YAXPAXI@Z		; operator delete
  00019	83 c4 08	 add	 esp, 8
$LN4@scalar:
  0001c	8b c6		 mov	 eax, esi
  0001e	5e		 pop	 esi
  0001f	5d		 pop	 ebp
  00020	c2 04 00	 ret	 4
??_GCGraphicDevice@@UAEPAXI@Z ENDP			; CGraphicDevice::`scalar deleting destructor'
_TEXT	ENDS
; Function compile flags: /Ogtp
; File C:\Program Files\Microsoft Visual Studio\2022\Community\VC\Tools\MSVC\14.34.31933\include\map
; File C:\Program Files\Microsoft Visual Studio\2022\Community\VC\Tools\MSVC\14.34.31933\include\xtree
; File C:\Program Files\Microsoft Visual Studio\2022\Community\VC\Tools\MSVC\14.34.31933\include\map
; File C:\Program Files\Microsoft Visual Studio\2022\Community\VC\Tools\MSVC\14.34.31933\include\xmemory
; File C:\Program Files\Microsoft Visual Studio\2022\Community\VC\Tools\MSVC\14.34.31933\include\xtree
; File C:\Program Files\Microsoft Visual Studio\2022\Community\VC\Tools\MSVC\14.34.31933\include\xmemory
; File C:\Program Files\Microsoft Visual Studio\2022\Community\VC\Tools\MSVC\14.34.31933\include\utility
; File C:\Program Files\Microsoft Visual Studio\2022\Community\VC\Tools\MSVC\14.34.31933\include\map
; File C:\Program Files\Microsoft Visual Studio\2022\Community\VC\Tools\MSVC\14.34.31933\include\utility
; File C:\Program Files\Microsoft Visual Studio\2022\Community\VC\Tools\MSVC\14.34.31933\include\map
; File C:\Program Files\Microsoft Visual Studio\2022\Community\VC\Tools\MSVC\14.34.31933\include\utility
; File C:\Program Files\Microsoft Visual Studio\2022\Community\VC\Tools\MSVC\14.34.31933\include\map
; File C:\Program Files\Microsoft Visual Studio\2022\Community\VC\Tools\MSVC\14.34.31933\include\xstring
; File C:\Program Files\Microsoft Visual Studio\2022\Community\VC\Tools\MSVC\14.34.31933\include\xtree
; File C:\Program Files\Microsoft Visual Studio\2022\Community\VC\Tools\MSVC\14.34.31933\include\map
; File C:\Program Files\Microsoft Visual Studio\2022\Community\VC\Tools\MSVC\14.34.31933\include\xtree
; File C:\Program Files\Microsoft Visual Studio\2022\Community\VC\Tools\MSVC\14.34.31933\include\map
;	COMDAT ??A?$map@IV?$basic_string@DU?$char_traits@D@std@@V?$allocator@D@2@@std@@U?$less@I@2@V?$allocator@U?$pair@$$CBIV?$basic_string@DU?$char_traits@D@std@@V?$allocator@D@2@@std@@@std@@@2@@std@@QAEAAV?$basic_string@DU?$char_traits@D@std@@V?$allocator@D@2@@1@ABI@Z
_TEXT	SEGMENT
__Loc$3 = -32						; size = 12
$T4 = -20						; size = 8
__$EHRec$ = -12						; size = 12
__Keyval$ = 8						; size = 4
??A?$map@IV?$basic_string@DU?$char_traits@D@std@@V?$allocator@D@2@@std@@U?$less@I@2@V?$allocator@U?$pair@$$CBIV?$basic_string@DU?$char_traits@D@std@@V?$allocator@D@2@@std@@@std@@@2@@std@@QAEAAV?$basic_string@DU?$char_traits@D@std@@V?$allocator@D@2@@1@ABI@Z PROC ; std::map<unsigned int,std::basic_string<char,std::char_traits<char>,std::allocator<char> >,std::less<unsigned int>,std::allocator<std::pair<unsigned int const ,std::basic_string<char,std::char_traits<char>,std::allocator<char> > > > >::operator[], COMDAT
; _this$ = ecx

; 344  :     mapped_type& operator[](const key_type& _Keyval) {

  00000	55		 push	 ebp
  00001	8b ec		 mov	 ebp, esp
  00003	6a ff		 push	 -1
  00005	68 00 00 00 00	 push	 __ehhandler$??A?$map@IV?$basic_string@DU?$char_traits@D@std@@V?$allocator@D@2@@std@@U?$less@I@2@V?$allocator@U?$pair@$$CBIV?$basic_string@DU?$char_traits@D@std@@V?$allocator@D@2@@std@@@std@@@2@@std@@QAEAAV?$basic_string@DU?$char_traits@D@std@@V?$allocator@D@2@@1@ABI@Z
  0000a	64 a1 00 00 00
	00		 mov	 eax, DWORD PTR fs:0
  00010	50		 push	 eax
  00011	83 ec 14	 sub	 esp, 20			; 00000014H
  00014	56		 push	 esi
  00015	57		 push	 edi
  00016	a1 00 00 00 00	 mov	 eax, DWORD PTR ___security_cookie
  0001b	33 c5		 xor	 eax, ebp
  0001d	50		 push	 eax
  0001e	8d 45 f4	 lea	 eax, DWORD PTR __$EHRec$[ebp]
  00021	64 a3 00 00 00
	00		 mov	 DWORD PTR fs:0, eax
  00027	8b f9		 mov	 edi, ecx

; 196  :         const auto _Loc = _Mybase::_Find_lower_bound(_Keyval);

  00029	8b 75 08	 mov	 esi, DWORD PTR __Keyval$[ebp]
  0002c	8d 45 e0	 lea	 eax, DWORD PTR __Loc$3[ebp]
  0002f	56		 push	 esi
  00030	50		 push	 eax
  00031	e8 00 00 00 00	 call	 ??$_Find_lower_bound@I@?$_Tree@V?$_Tmap_traits@IV?$basic_string@DU?$char_traits@D@std@@V?$allocator@D@2@@std@@U?$less@I@2@V?$allocator@U?$pair@$$CBIV?$basic_string@DU?$char_traits@D@std@@V?$allocator@D@2@@std@@@std@@@2@$0A@@std@@@std@@IBE?AU?$_Tree_find_result@PAU?$_Tree_node@U?$pair@$$CBIV?$basic_string@DU?$char_traits@D@std@@V?$allocator@D@2@@std@@@std@@PAX@std@@@1@ABI@Z ; std::_Tree<std::_Tmap_traits<unsigned int,std::basic_string<char,std::char_traits<char>,std::allocator<char> >,std::less<unsigned int>,std::allocator<std::pair<unsigned int const ,std::basic_string<char,std::char_traits<char>,std::allocator<char> > > >,0> >::_Find_lower_bound<unsigned int>
; File C:\Program Files\Microsoft Visual Studio\2022\Community\VC\Tools\MSVC\14.34.31933\include\xtree

; 1605 :         return !_Bound->_Isnil && !_DEBUG_LT_PRED(_Getcomp(), _Keyval, _Traits::_Kfn(_Bound->_Myval));

  00036	8b 55 e8	 mov	 edx, DWORD PTR __Loc$3[ebp+8]
  00039	80 7a 0d 00	 cmp	 BYTE PTR [edx+13], 0
  0003d	75 07		 jne	 SHORT $LN4@operator
  0003f	8b 06		 mov	 eax, DWORD PTR [esi]
  00041	3b 42 10	 cmp	 eax, DWORD PTR [edx+16]
  00044	73 67		 jae	 SHORT $LN3@operator
$LN4@operator:

; 1629 :         if (max_size() == _Get_scary()->_Mysize) {

  00046	81 7f 04 5d 74
	d1 05		 cmp	 DWORD PTR [edi+4], 97612893 ; 05d1745dH
  0004d	74 74		 je	 SHORT $LN116@operator
; File C:\Program Files\Microsoft Visual Studio\2022\Community\VC\Tools\MSVC\14.34.31933\include\map

; 204  :         const auto _Inserted = _Tree_temp_node<_Alnode>(_Mybase::_Getal(), _Scary->_Myhead, piecewise_construct,

  0004f	8b 37		 mov	 esi, DWORD PTR [edi]
; File C:\Program Files\Microsoft Visual Studio\2022\Community\VC\Tools\MSVC\14.34.31933\include\xmemory

; 1005 :     _CONSTEXPR20 explicit _Alloc_construct_ptr(_Alloc& _Al_) : _Al(_Al_), _Ptr(nullptr) {}

  00051	89 7d ec	 mov	 DWORD PTR $T4[ebp], edi

; 77   :         return ::operator new(_Bytes);

  00054	6a 2c		 push	 44			; 0000002cH
; File C:\Program Files\Microsoft Visual Studio\2022\Community\VC\Tools\MSVC\14.34.31933\include\xtree

; 785  :     explicit _Tree_temp_node_alloc(_Alnode& _Al_) : _Alloc_construct_ptr<_Alnode>(_Al_) {

  00056	c7 45 fc 00 00
	00 00		 mov	 DWORD PTR __$EHRec$[ebp+8], 0
; File C:\Program Files\Microsoft Visual Studio\2022\Community\VC\Tools\MSVC\14.34.31933\include\xmemory

; 1012 :         _Ptr = nullptr; // if allocate throws, prevents double-free

  0005d	c7 45 f0 00 00
	00 00		 mov	 DWORD PTR $T4[ebp+4], 0

; 77   :         return ::operator new(_Bytes);

  00064	e8 00 00 00 00	 call	 ??2@YAPAXI@Z		; operator new

; 235  :         return _Traits::_Allocate(_Bytes);

  00069	8b c8		 mov	 ecx, eax

; 77   :         return ::operator new(_Bytes);

  0006b	83 c4 04	 add	 esp, 4
; File C:\Program Files\Microsoft Visual Studio\2022\Community\VC\Tools\MSVC\14.34.31933\include\utility

; 214  :         : first(_Tuple_get<_Indexes1>(_STD move(_Val1))...), second(_Tuple_get<_Indexes2>(_STD move(_Val2))...) {}

  0006e	8b 45 08	 mov	 eax, DWORD PTR __Keyval$[ebp]
  00071	0f 57 c0	 xorps	 xmm0, xmm0
; File C:\Program Files\Microsoft Visual Studio\2022\Community\VC\Tools\MSVC\14.34.31933\include\map

; 210  :         return {_Scary->_Insert_node(_Loc._Location, _Inserted), true};

  00074	51		 push	 ecx
; File C:\Program Files\Microsoft Visual Studio\2022\Community\VC\Tools\MSVC\14.34.31933\include\utility

; 214  :         : first(_Tuple_get<_Indexes1>(_STD move(_Val1))...), second(_Tuple_get<_Indexes2>(_STD move(_Val2))...) {}

  00075	8b 00		 mov	 eax, DWORD PTR [eax]
; File C:\Program Files\Microsoft Visual Studio\2022\Community\VC\Tools\MSVC\14.34.31933\include\map

; 210  :         return {_Scary->_Insert_node(_Loc._Location, _Inserted), true};

  00077	ff 75 e4	 push	 DWORD PTR __Loc$3[ebp+4]
; File C:\Program Files\Microsoft Visual Studio\2022\Community\VC\Tools\MSVC\14.34.31933\include\utility

; 214  :         : first(_Tuple_get<_Indexes1>(_STD move(_Val1))...), second(_Tuple_get<_Indexes2>(_STD move(_Val2))...) {}

  0007a	89 41 10	 mov	 DWORD PTR [ecx+16], eax
; File C:\Program Files\Microsoft Visual Studio\2022\Community\VC\Tools\MSVC\14.34.31933\include\map

; 210  :         return {_Scary->_Insert_node(_Loc._Location, _Inserted), true};

  0007d	ff 75 e0	 push	 DWORD PTR __Loc$3[ebp]
; File C:\Program Files\Microsoft Visual Studio\2022\Community\VC\Tools\MSVC\14.34.31933\include\xstring

; 2341 :         _CONSTEXPR20 _Bxty() noexcept : _Buf() {} // user-provided, for fancy pointers

  00080	0f 11 41 14	 movups	 XMMWORD PTR [ecx+20], xmm0

; 4998 :         _My_data._Mysize = 0;

  00084	c7 41 24 00 00
	00 00		 mov	 DWORD PTR [ecx+36], 0

; 4999 :         _My_data._Myres  = _BUF_SIZE - 1;

  0008b	c7 41 28 0f 00
	00 00		 mov	 DWORD PTR [ecx+40], 15	; 0000000fH

; 5000 :         _My_data._Activate_SSO_buffer();
; 5001 : 
; 5002 :         // the _Traits::assign is last so the codegen doesn't think the char write can alias this
; 5003 :         _Traits::assign(_My_data._Bx._Buf[0], _Elem());

  00092	c6 41 14 00	 mov	 BYTE PTR [ecx+20], 0
; File C:\Program Files\Microsoft Visual Studio\2022\Community\VC\Tools\MSVC\14.34.31933\include\xtree

; 808  :         _Construct_in_place(this->_Ptr->_Left, _Myhead);

  00096	89 31		 mov	 DWORD PTR [ecx], esi

; 809  :         _Construct_in_place(this->_Ptr->_Parent, _Myhead);

  00098	89 71 04	 mov	 DWORD PTR [ecx+4], esi

; 810  :         _Construct_in_place(this->_Ptr->_Right, _Myhead);

  0009b	89 71 08	 mov	 DWORD PTR [ecx+8], esi

; 811  :         this->_Ptr->_Color = _Red;

  0009e	66 c7 41 0c 00
	00		 mov	 WORD PTR [ecx+12], 0
; File C:\Program Files\Microsoft Visual Studio\2022\Community\VC\Tools\MSVC\14.34.31933\include\map

; 210  :         return {_Scary->_Insert_node(_Loc._Location, _Inserted), true};

  000a4	8b cf		 mov	 ecx, edi
  000a6	e8 00 00 00 00	 call	 ?_Insert_node@?$_Tree_val@U?$_Tree_simple_types@U?$pair@$$CBIV?$basic_string@DU?$char_traits@D@std@@V?$allocator@D@2@@std@@@std@@@std@@@std@@QAEPAU?$_Tree_node@U?$pair@$$CBIV?$basic_string@DU?$char_traits@D@std@@V?$allocator@D@2@@std@@@std@@PAX@2@U?$_Tree_id@PAU?$_Tree_node@U?$pair@$$CBIV?$basic_string@DU?$char_traits@D@std@@V?$allocator@D@2@@std@@@std@@PAX@std@@@2@QAU32@@Z ; std::_Tree_val<std::_Tree_simple_types<std::pair<unsigned int const ,std::basic_string<char,std::char_traits<char>,std::allocator<char> > > > >::_Insert_node
  000ab	8b d0		 mov	 edx, eax
$LN3@operator:

; 345  :         return _Try_emplace(_Keyval).first->_Myval.second;

  000ad	8d 42 14	 lea	 eax, DWORD PTR [edx+20]

; 346  :     }

  000b0	8b 4d f4	 mov	 ecx, DWORD PTR __$EHRec$[ebp]
  000b3	64 89 0d 00 00
	00 00		 mov	 DWORD PTR fs:0, ecx
  000ba	59		 pop	 ecx
  000bb	5f		 pop	 edi
  000bc	5e		 pop	 esi
  000bd	8b e5		 mov	 esp, ebp
  000bf	5d		 pop	 ebp
  000c0	c2 04 00	 ret	 4
$LN116@operator:
; File C:\Program Files\Microsoft Visual Studio\2022\Community\VC\Tools\MSVC\14.34.31933\include\xtree

; 1630 :             _Throw_tree_length_error();

  000c3	e8 00 00 00 00	 call	 ?_Throw_tree_length_error@std@@YAXXZ ; std::_Throw_tree_length_error
$LN114@operator:
  000c8	cc		 int	 3
_TEXT	ENDS
;	COMDAT text$x
text$x	SEGMENT
__unwindfunclet$??A?$map@IV?$basic_string@DU?$char_traits@D@std@@V?$allocator@D@2@@std@@U?$less@I@2@V?$allocator@U?$pair@$$CBIV?$basic_string@DU?$char_traits@D@std@@V?$allocator@D@2@@std@@@std@@@2@@std@@QAEAAV?$basic_string@DU?$char_traits@D@std@@V?$allocator@D@2@@1@ABI@Z$2:
  00000	8d 4d ec	 lea	 ecx, DWORD PTR $T4[ebp]
  00003	e9 00 00 00 00	 jmp	 ??1?$_Alloc_construct_ptr@V?$allocator@U?$_Tree_node@U?$pair@$$CBIV?$basic_string@DU?$char_traits@D@std@@V?$allocator@D@2@@std@@@std@@PAX@std@@@std@@@std@@QAE@XZ ; std::_Alloc_construct_ptr<std::allocator<std::_Tree_node<std::pair<unsigned int const ,std::basic_string<char,std::char_traits<char>,std::allocator<char> > >,void *> > >::~_Alloc_construct_ptr<std::allocator<std::_Tree_node<std::pair<unsigned int const ,std::basic_string<char,std::char_traits<char>,std::allocator<char> > >,void *> > >
  00008	cc		 int	 3
  00009	cc		 int	 3
  0000a	cc		 int	 3
  0000b	cc		 int	 3
  0000c	cc		 int	 3
__ehhandler$??A?$map@IV?$basic_string@DU?$char_traits@D@std@@V?$allocator@D@2@@std@@U?$less@I@2@V?$allocator@U?$pair@$$CBIV?$basic_string@DU?$char_traits@D@std@@V?$allocator@D@2@@std@@@std@@@2@@std@@QAEAAV?$basic_string@DU?$char_traits@D@std@@V?$allocator@D@2@@1@ABI@Z:
  0000d	90		 npad	 1
  0000e	90		 npad	 1
  0000f	8b 54 24 08	 mov	 edx, DWORD PTR [esp+8]
  00013	8d 42 0c	 lea	 eax, DWORD PTR [edx+12]
  00016	8b 4a e0	 mov	 ecx, DWORD PTR [edx-32]
  00019	33 c8		 xor	 ecx, eax
  0001b	e8 00 00 00 00	 call	 @__security_check_cookie@4
  00020	b8 00 00 00 00	 mov	 eax, OFFSET __ehfuncinfo$??A?$map@IV?$basic_string@DU?$char_traits@D@std@@V?$allocator@D@2@@std@@U?$less@I@2@V?$allocator@U?$pair@$$CBIV?$basic_string@DU?$char_traits@D@std@@V?$allocator@D@2@@std@@@std@@@2@@std@@QAEAAV?$basic_string@DU?$char_traits@D@std@@V?$allocator@D@2@@1@ABI@Z
  00025	e9 00 00 00 00	 jmp	 ___CxxFrameHandler3
text$x	ENDS
??A?$map@IV?$basic_string@DU?$char_traits@D@std@@V?$allocator@D@2@@std@@U?$less@I@2@V?$allocator@U?$pair@$$CBIV?$basic_string@DU?$char_traits@D@std@@V?$allocator@D@2@@std@@@std@@@2@@std@@QAEAAV?$basic_string@DU?$char_traits@D@std@@V?$allocator@D@2@@1@ABI@Z ENDP ; std::map<unsigned int,std::basic_string<char,std::char_traits<char>,std::allocator<char> >,std::less<unsigned int>,std::allocator<std::pair<unsigned int const ,std::basic_string<char,std::char_traits<char>,std::allocator<char> > > > >::operator[]
; Function compile flags: /Ogtp
; File C:\Program Files\Microsoft Visual Studio\2022\Community\VC\Tools\MSVC\14.34.31933\include\xtree
;	COMDAT ?_Insert_node@?$_Tree_val@U?$_Tree_simple_types@U?$pair@$$CBIV?$basic_string@DU?$char_traits@D@std@@V?$allocator@D@2@@std@@@std@@@std@@@std@@QAEPAU?$_Tree_node@U?$pair@$$CBIV?$basic_string@DU?$char_traits@D@std@@V?$allocator@D@2@@std@@@std@@PAX@2@U?$_Tree_id@PAU?$_Tree_node@U?$pair@$$CBIV?$basic_string@DU?$char_traits@D@std@@V?$allocator@D@2@@std@@@std@@PAX@std@@@2@QAU32@@Z
_TEXT	SEGMENT
__Head$1$ = -4						; size = 4
__Loc$ = 8						; size = 8
__Newnode$ = 16						; size = 4
?_Insert_node@?$_Tree_val@U?$_Tree_simple_types@U?$pair@$$CBIV?$basic_string@DU?$char_traits@D@std@@V?$allocator@D@2@@std@@@std@@@std@@@std@@QAEPAU?$_Tree_node@U?$pair@$$CBIV?$basic_string@DU?$char_traits@D@std@@V?$allocator@D@2@@std@@@std@@PAX@2@U?$_Tree_id@PAU?$_Tree_node@U?$pair@$$CBIV?$basic_string@DU?$char_traits@D@std@@V?$allocator@D@2@@std@@@std@@PAX@std@@@2@QAU32@@Z PROC ; std::_Tree_val<std::_Tree_simple_types<std::pair<unsigned int const ,std::basic_string<char,std::char_traits<char>,std::allocator<char> > > > >::_Insert_node, COMDAT
; _this$ = ecx

; 646  :     _Nodeptr _Insert_node(const _Tree_id<_Nodeptr> _Loc, const _Nodeptr _Newnode) noexcept {

  00000	55		 push	 ebp
  00001	8b ec		 mov	 ebp, esp
  00003	51		 push	 ecx

; 647  :         ++_Mysize;
; 648  :         const auto _Head  = _Myhead;
; 649  :         _Newnode->_Parent = _Loc._Parent;

  00004	8b 55 08	 mov	 edx, DWORD PTR __Loc$[ebp]
  00007	53		 push	 ebx
  00008	8b d9		 mov	 ebx, ecx
  0000a	57		 push	 edi
  0000b	8b 7d 10	 mov	 edi, DWORD PTR __Newnode$[ebp]
  0000e	8b 03		 mov	 eax, DWORD PTR [ebx]
  00010	ff 43 04	 inc	 DWORD PTR [ebx+4]
  00013	89 45 fc	 mov	 DWORD PTR __Head$1$[ebp], eax
  00016	89 57 04	 mov	 DWORD PTR [edi+4], edx

; 650  :         if (_Loc._Parent == _Head) { // first node in tree, just set head values

  00019	3b d0		 cmp	 edx, eax
  0001b	75 16		 jne	 SHORT $LN5@Insert_nod

; 651  :             _Head->_Left     = _Newnode;

  0001d	89 38		 mov	 DWORD PTR [eax], edi

; 652  :             _Head->_Parent   = _Newnode;

  0001f	89 78 04	 mov	 DWORD PTR [eax+4], edi

; 653  :             _Head->_Right    = _Newnode;

  00022	89 78 08	 mov	 DWORD PTR [eax+8], edi

; 712  :         return _Newnode;
; 713  :     }

  00025	8b c7		 mov	 eax, edi
  00027	c6 47 0c 01	 mov	 BYTE PTR [edi+12], 1
  0002b	5f		 pop	 edi
  0002c	5b		 pop	 ebx
  0002d	8b e5		 mov	 esp, ebp
  0002f	5d		 pop	 ebp
  00030	c2 0c 00	 ret	 12			; 0000000cH
$LN5@Insert_nod:

; 654  :             _Newnode->_Color = _Black; // the root is black
; 655  :             return _Newnode;
; 656  :         }
; 657  : 
; 658  :         _STL_INTERNAL_CHECK(_Loc._Child != _Tree_child::_Unused);
; 659  :         if (_Loc._Child == _Tree_child::_Right) { // add to right of _Loc._Parent

  00033	83 7d 0c 00	 cmp	 DWORD PTR __Loc$[ebp+4], 0
  00037	75 0d		 jne	 SHORT $LN6@Insert_nod

; 660  :             _STL_INTERNAL_CHECK(_Loc._Parent->_Right->_Isnil);
; 661  :             _Loc._Parent->_Right = _Newnode;

  00039	89 7a 08	 mov	 DWORD PTR [edx+8], edi

; 662  :             if (_Loc._Parent == _Head->_Right) { // remember rightmost node

  0003c	3b 50 08	 cmp	 edx, DWORD PTR [eax+8]
  0003f	75 0d		 jne	 SHORT $LN9@Insert_nod

; 663  :                 _Head->_Right = _Newnode;

  00041	89 78 08	 mov	 DWORD PTR [eax+8], edi

; 664  :             }
; 665  :         } else { // add to left of _Loc._Parent

  00044	eb 08		 jmp	 SHORT $LN9@Insert_nod
$LN6@Insert_nod:

; 666  :             _STL_INTERNAL_CHECK(_Loc._Parent->_Left->_Isnil);
; 667  :             _Loc._Parent->_Left = _Newnode;

  00046	89 3a		 mov	 DWORD PTR [edx], edi

; 668  :             if (_Loc._Parent == _Head->_Left) { // remember leftmost node

  00048	3b 10		 cmp	 edx, DWORD PTR [eax]
  0004a	75 02		 jne	 SHORT $LN9@Insert_nod

; 669  :                 _Head->_Left = _Newnode;

  0004c	89 38		 mov	 DWORD PTR [eax], edi
$LN9@Insert_nod:

; 670  :             }
; 671  :         }
; 672  : 
; 673  :         for (_Nodeptr _Pnode = _Newnode; _Pnode->_Parent->_Color == _Red;) {

  0004e	8b 4f 04	 mov	 ecx, DWORD PTR [edi+4]
  00051	8b c7		 mov	 eax, edi
  00053	80 79 0c 00	 cmp	 BYTE PTR [ecx+12], 0
  00057	0f 85 7d 01 00
	00		 jne	 $LN3@Insert_nod
  0005d	56		 push	 esi
  0005e	66 90		 npad	 2
$LL2@Insert_nod:

; 674  :             if (_Pnode->_Parent == _Pnode->_Parent->_Parent->_Left) { // fixup red-red in left subtree

  00060	8b 50 04	 mov	 edx, DWORD PTR [eax+4]
  00063	8b 72 04	 mov	 esi, DWORD PTR [edx+4]
  00066	8b 0e		 mov	 ecx, DWORD PTR [esi]
  00068	3b d1		 cmp	 edx, ecx
  0006a	0f 85 aa 00 00
	00		 jne	 $LN10@Insert_nod

; 675  :                 const auto _Parent_sibling = _Pnode->_Parent->_Parent->_Right;

  00070	8b 4e 08	 mov	 ecx, DWORD PTR [esi+8]

; 676  :                 if (_Parent_sibling->_Color == _Red) { // parent's sibling has two red children, blacken both

  00073	80 79 0c 00	 cmp	 BYTE PTR [ecx+12], 0
  00077	0f 84 a3 00 00
	00		 je	 $LN54@Insert_nod

; 677  :                     _Pnode->_Parent->_Color          = _Black;
; 678  :                     _Parent_sibling->_Color          = _Black;
; 679  :                     _Pnode->_Parent->_Parent->_Color = _Red;
; 680  :                     _Pnode                           = _Pnode->_Parent->_Parent;
; 681  :                 } else { // parent's sibling has red and black children
; 682  :                     if (_Pnode == _Pnode->_Parent->_Right) { // rotate right child to left

  0007d	8b 72 08	 mov	 esi, DWORD PTR [edx+8]
  00080	3b c6		 cmp	 eax, esi
  00082	75 37		 jne	 SHORT $LN51@Insert_nod

; 462  :         _Wherenode->_Right = _Pnode->_Left;

  00084	8b 0e		 mov	 ecx, DWORD PTR [esi]

; 683  :                         _Pnode = _Pnode->_Parent;

  00086	8b c2		 mov	 eax, edx

; 462  :         _Wherenode->_Right = _Pnode->_Left;

  00088	89 4a 08	 mov	 DWORD PTR [edx+8], ecx

; 463  : 
; 464  :         if (!_Pnode->_Left->_Isnil) {

  0008b	8b 0e		 mov	 ecx, DWORD PTR [esi]
  0008d	80 79 0d 00	 cmp	 BYTE PTR [ecx+13], 0
  00091	75 03		 jne	 SHORT $LN34@Insert_nod

; 465  :             _Pnode->_Left->_Parent = _Wherenode;

  00093	89 41 04	 mov	 DWORD PTR [ecx+4], eax
$LN34@Insert_nod:

; 466  :         }
; 467  : 
; 468  :         _Pnode->_Parent = _Wherenode->_Parent;

  00096	8b 4a 04	 mov	 ecx, DWORD PTR [edx+4]
  00099	89 4e 04	 mov	 DWORD PTR [esi+4], ecx

; 469  : 
; 470  :         if (_Wherenode == _Myhead->_Parent) {

  0009c	8b 0b		 mov	 ecx, DWORD PTR [ebx]
  0009e	3b 41 04	 cmp	 eax, DWORD PTR [ecx+4]
  000a1	75 05		 jne	 SHORT $LN35@Insert_nod

; 471  :             _Myhead->_Parent = _Pnode;

  000a3	89 71 04	 mov	 DWORD PTR [ecx+4], esi
  000a6	eb 0e		 jmp	 SHORT $LN38@Insert_nod
$LN35@Insert_nod:

; 472  :         } else if (_Wherenode == _Wherenode->_Parent->_Left) {

  000a8	8b 4a 04	 mov	 ecx, DWORD PTR [edx+4]
  000ab	3b 01		 cmp	 eax, DWORD PTR [ecx]
  000ad	75 04		 jne	 SHORT $LN37@Insert_nod

; 473  :             _Wherenode->_Parent->_Left = _Pnode;

  000af	89 31		 mov	 DWORD PTR [ecx], esi

; 474  :         } else {

  000b1	eb 03		 jmp	 SHORT $LN38@Insert_nod
$LN37@Insert_nod:

; 475  :             _Wherenode->_Parent->_Right = _Pnode;

  000b3	89 71 08	 mov	 DWORD PTR [ecx+8], esi
$LN38@Insert_nod:

; 476  :         }
; 477  : 
; 478  :         _Pnode->_Left       = _Wherenode;

  000b6	89 06		 mov	 DWORD PTR [esi], eax

; 479  :         _Wherenode->_Parent = _Pnode;

  000b8	89 72 04	 mov	 DWORD PTR [edx+4], esi
$LN51@Insert_nod:

; 684  :                         _Lrotate(_Pnode);
; 685  :                     }
; 686  : 
; 687  :                     _Pnode->_Parent->_Color          = _Black; // propagate red up

  000bb	8b 48 04	 mov	 ecx, DWORD PTR [eax+4]
  000be	c6 41 0c 01	 mov	 BYTE PTR [ecx+12], 1

; 688  :                     _Pnode->_Parent->_Parent->_Color = _Red;

  000c2	8b 48 04	 mov	 ecx, DWORD PTR [eax+4]
  000c5	8b 49 04	 mov	 ecx, DWORD PTR [ecx+4]
  000c8	c6 41 0c 00	 mov	 BYTE PTR [ecx+12], 0

; 689  :                     _Rrotate(_Pnode->_Parent->_Parent);

  000cc	8b 48 04	 mov	 ecx, DWORD PTR [eax+4]
  000cf	8b 51 04	 mov	 edx, DWORD PTR [ecx+4]

; 483  :         _Nodeptr _Pnode   = _Wherenode->_Left;

  000d2	8b 32		 mov	 esi, DWORD PTR [edx]

; 484  :         _Wherenode->_Left = _Pnode->_Right;

  000d4	8b 4e 08	 mov	 ecx, DWORD PTR [esi+8]
  000d7	89 0a		 mov	 DWORD PTR [edx], ecx

; 485  : 
; 486  :         if (!_Pnode->_Right->_Isnil) {

  000d9	8b 4e 08	 mov	 ecx, DWORD PTR [esi+8]
  000dc	80 79 0d 00	 cmp	 BYTE PTR [ecx+13], 0
  000e0	75 03		 jne	 SHORT $LN20@Insert_nod

; 487  :             _Pnode->_Right->_Parent = _Wherenode;

  000e2	89 51 04	 mov	 DWORD PTR [ecx+4], edx
$LN20@Insert_nod:

; 488  :         }
; 489  : 
; 490  :         _Pnode->_Parent = _Wherenode->_Parent;

  000e5	8b 4a 04	 mov	 ecx, DWORD PTR [edx+4]
  000e8	89 4e 04	 mov	 DWORD PTR [esi+4], ecx

; 491  : 
; 492  :         if (_Wherenode == _Myhead->_Parent) {

  000eb	8b 0b		 mov	 ecx, DWORD PTR [ebx]
  000ed	3b 51 04	 cmp	 edx, DWORD PTR [ecx+4]
  000f0	75 0b		 jne	 SHORT $LN21@Insert_nod

; 493  :             _Myhead->_Parent = _Pnode;

  000f2	89 71 04	 mov	 DWORD PTR [ecx+4], esi

; 498  :         }
; 499  : 
; 500  :         _Pnode->_Right      = _Wherenode;

  000f5	89 56 08	 mov	 DWORD PTR [esi+8], edx

; 690  :                 }
; 691  :             } else { // fixup red-red in right subtree

  000f8	e9 cc 00 00 00	 jmp	 $LN53@Insert_nod
$LN21@Insert_nod:

; 494  :         } else if (_Wherenode == _Wherenode->_Parent->_Right) {

  000fd	8b 4a 04	 mov	 ecx, DWORD PTR [edx+4]
  00100	3b 51 08	 cmp	 edx, DWORD PTR [ecx+8]
  00103	75 0b		 jne	 SHORT $LN23@Insert_nod

; 495  :             _Wherenode->_Parent->_Right = _Pnode;

  00105	89 71 08	 mov	 DWORD PTR [ecx+8], esi

; 498  :         }
; 499  : 
; 500  :         _Pnode->_Right      = _Wherenode;

  00108	89 56 08	 mov	 DWORD PTR [esi+8], edx

; 690  :                 }
; 691  :             } else { // fixup red-red in right subtree

  0010b	e9 b9 00 00 00	 jmp	 $LN53@Insert_nod
$LN23@Insert_nod:

; 497  :             _Wherenode->_Parent->_Left = _Pnode;

  00110	89 31		 mov	 DWORD PTR [ecx], esi

; 498  :         }
; 499  : 
; 500  :         _Pnode->_Right      = _Wherenode;

  00112	89 56 08	 mov	 DWORD PTR [esi+8], edx

; 690  :                 }
; 691  :             } else { // fixup red-red in right subtree

  00115	e9 af 00 00 00	 jmp	 $LN53@Insert_nod
$LN10@Insert_nod:

; 692  :                 const auto _Parent_sibling = _Pnode->_Parent->_Parent->_Left;
; 693  :                 if (_Parent_sibling->_Color == _Red) { // parent's sibling has two red children, blacken both

  0011a	80 79 0c 00	 cmp	 BYTE PTR [ecx+12], 0
  0011e	75 1d		 jne	 SHORT $LN15@Insert_nod
$LN54@Insert_nod:

; 670  :             }
; 671  :         }
; 672  : 
; 673  :         for (_Nodeptr _Pnode = _Newnode; _Pnode->_Parent->_Color == _Red;) {

  00120	c6 42 0c 01	 mov	 BYTE PTR [edx+12], 1
  00124	c6 41 0c 01	 mov	 BYTE PTR [ecx+12], 1
  00128	8b 48 04	 mov	 ecx, DWORD PTR [eax+4]
  0012b	8b 49 04	 mov	 ecx, DWORD PTR [ecx+4]
  0012e	c6 41 0c 00	 mov	 BYTE PTR [ecx+12], 0
  00132	8b 48 04	 mov	 ecx, DWORD PTR [eax+4]
  00135	8b 41 04	 mov	 eax, DWORD PTR [ecx+4]
  00138	e9 8f 00 00 00	 jmp	 $LN32@Insert_nod
$LN15@Insert_nod:

; 694  :                     _Pnode->_Parent->_Color          = _Black;
; 695  :                     _Parent_sibling->_Color          = _Black;
; 696  :                     _Pnode->_Parent->_Parent->_Color = _Red;
; 697  :                     _Pnode                           = _Pnode->_Parent->_Parent;
; 698  :                 } else { // parent's sibling has red and black children
; 699  :                     if (_Pnode == _Pnode->_Parent->_Left) { // rotate left child to right

  0013d	8b 32		 mov	 esi, DWORD PTR [edx]
  0013f	3b c6		 cmp	 eax, esi
  00141	75 3a		 jne	 SHORT $LN46@Insert_nod

; 484  :         _Wherenode->_Left = _Pnode->_Right;

  00143	8b 4e 08	 mov	 ecx, DWORD PTR [esi+8]

; 700  :                         _Pnode = _Pnode->_Parent;

  00146	8b c2		 mov	 eax, edx

; 484  :         _Wherenode->_Left = _Pnode->_Right;

  00148	89 08		 mov	 DWORD PTR [eax], ecx

; 485  : 
; 486  :         if (!_Pnode->_Right->_Isnil) {

  0014a	8b 4e 08	 mov	 ecx, DWORD PTR [esi+8]
  0014d	80 79 0d 00	 cmp	 BYTE PTR [ecx+13], 0
  00151	75 03		 jne	 SHORT $LN41@Insert_nod

; 487  :             _Pnode->_Right->_Parent = _Wherenode;

  00153	89 41 04	 mov	 DWORD PTR [ecx+4], eax
$LN41@Insert_nod:

; 488  :         }
; 489  : 
; 490  :         _Pnode->_Parent = _Wherenode->_Parent;

  00156	8b 4a 04	 mov	 ecx, DWORD PTR [edx+4]
  00159	89 4e 04	 mov	 DWORD PTR [esi+4], ecx

; 491  : 
; 492  :         if (_Wherenode == _Myhead->_Parent) {

  0015c	8b 0b		 mov	 ecx, DWORD PTR [ebx]
  0015e	3b 41 04	 cmp	 eax, DWORD PTR [ecx+4]
  00161	75 05		 jne	 SHORT $LN42@Insert_nod

; 493  :             _Myhead->_Parent = _Pnode;

  00163	89 71 04	 mov	 DWORD PTR [ecx+4], esi
  00166	eb 0f		 jmp	 SHORT $LN45@Insert_nod
$LN42@Insert_nod:

; 494  :         } else if (_Wherenode == _Wherenode->_Parent->_Right) {

  00168	8b 4a 04	 mov	 ecx, DWORD PTR [edx+4]
  0016b	3b 41 08	 cmp	 eax, DWORD PTR [ecx+8]
  0016e	75 05		 jne	 SHORT $LN44@Insert_nod

; 495  :             _Wherenode->_Parent->_Right = _Pnode;

  00170	89 71 08	 mov	 DWORD PTR [ecx+8], esi

; 496  :         } else {

  00173	eb 02		 jmp	 SHORT $LN45@Insert_nod
$LN44@Insert_nod:

; 497  :             _Wherenode->_Parent->_Left = _Pnode;

  00175	89 31		 mov	 DWORD PTR [ecx], esi
$LN45@Insert_nod:

; 498  :         }
; 499  : 
; 500  :         _Pnode->_Right      = _Wherenode;

  00177	89 46 08	 mov	 DWORD PTR [esi+8], eax

; 501  :         _Wherenode->_Parent = _Pnode;

  0017a	89 72 04	 mov	 DWORD PTR [edx+4], esi
$LN46@Insert_nod:

; 701  :                         _Rrotate(_Pnode);
; 702  :                     }
; 703  : 
; 704  :                     _Pnode->_Parent->_Color          = _Black; // propagate red up

  0017d	8b 48 04	 mov	 ecx, DWORD PTR [eax+4]
  00180	c6 41 0c 01	 mov	 BYTE PTR [ecx+12], 1

; 705  :                     _Pnode->_Parent->_Parent->_Color = _Red;

  00184	8b 48 04	 mov	 ecx, DWORD PTR [eax+4]
  00187	8b 49 04	 mov	 ecx, DWORD PTR [ecx+4]
  0018a	c6 41 0c 00	 mov	 BYTE PTR [ecx+12], 0

; 706  :                     _Lrotate(_Pnode->_Parent->_Parent);

  0018e	8b 48 04	 mov	 ecx, DWORD PTR [eax+4]
  00191	8b 51 04	 mov	 edx, DWORD PTR [ecx+4]

; 461  :         _Nodeptr _Pnode    = _Wherenode->_Right;

  00194	8b 72 08	 mov	 esi, DWORD PTR [edx+8]

; 462  :         _Wherenode->_Right = _Pnode->_Left;

  00197	8b 0e		 mov	 ecx, DWORD PTR [esi]
  00199	89 4a 08	 mov	 DWORD PTR [edx+8], ecx

; 463  : 
; 464  :         if (!_Pnode->_Left->_Isnil) {

  0019c	8b 0e		 mov	 ecx, DWORD PTR [esi]
  0019e	80 79 0d 00	 cmp	 BYTE PTR [ecx+13], 0
  001a2	75 03		 jne	 SHORT $LN27@Insert_nod

; 465  :             _Pnode->_Left->_Parent = _Wherenode;

  001a4	89 51 04	 mov	 DWORD PTR [ecx+4], edx
$LN27@Insert_nod:

; 466  :         }
; 467  : 
; 468  :         _Pnode->_Parent = _Wherenode->_Parent;

  001a7	8b 4a 04	 mov	 ecx, DWORD PTR [edx+4]
  001aa	89 4e 04	 mov	 DWORD PTR [esi+4], ecx

; 469  : 
; 470  :         if (_Wherenode == _Myhead->_Parent) {

  001ad	8b 0b		 mov	 ecx, DWORD PTR [ebx]
  001af	3b 51 04	 cmp	 edx, DWORD PTR [ecx+4]
  001b2	75 05		 jne	 SHORT $LN28@Insert_nod

; 471  :             _Myhead->_Parent = _Pnode;

  001b4	89 71 04	 mov	 DWORD PTR [ecx+4], esi
  001b7	eb 0e		 jmp	 SHORT $LN31@Insert_nod
$LN28@Insert_nod:

; 472  :         } else if (_Wherenode == _Wherenode->_Parent->_Left) {

  001b9	8b 4a 04	 mov	 ecx, DWORD PTR [edx+4]
  001bc	3b 11		 cmp	 edx, DWORD PTR [ecx]
  001be	75 04		 jne	 SHORT $LN30@Insert_nod

; 473  :             _Wherenode->_Parent->_Left = _Pnode;

  001c0	89 31		 mov	 DWORD PTR [ecx], esi

; 474  :         } else {

  001c2	eb 03		 jmp	 SHORT $LN31@Insert_nod
$LN30@Insert_nod:

; 475  :             _Wherenode->_Parent->_Right = _Pnode;

  001c4	89 71 08	 mov	 DWORD PTR [ecx+8], esi
$LN31@Insert_nod:

; 476  :         }
; 477  : 
; 478  :         _Pnode->_Left       = _Wherenode;

  001c7	89 16		 mov	 DWORD PTR [esi], edx
$LN53@Insert_nod:

; 670  :             }
; 671  :         }
; 672  : 
; 673  :         for (_Nodeptr _Pnode = _Newnode; _Pnode->_Parent->_Color == _Red;) {

  001c9	89 72 04	 mov	 DWORD PTR [edx+4], esi
$LN32@Insert_nod:
  001cc	8b 48 04	 mov	 ecx, DWORD PTR [eax+4]
  001cf	80 79 0c 00	 cmp	 BYTE PTR [ecx+12], 0
  001d3	0f 84 87 fe ff
	ff		 je	 $LL2@Insert_nod
  001d9	5e		 pop	 esi
$LN3@Insert_nod:

; 707  :                 }
; 708  :             }
; 709  :         }
; 710  : 
; 711  :         _Head->_Parent->_Color = _Black; // root is always black

  001da	8b 45 fc	 mov	 eax, DWORD PTR __Head$1$[ebp]
  001dd	8b 40 04	 mov	 eax, DWORD PTR [eax+4]
  001e0	c6 40 0c 01	 mov	 BYTE PTR [eax+12], 1

; 712  :         return _Newnode;
; 713  :     }

  001e4	8b c7		 mov	 eax, edi
  001e6	5f		 pop	 edi
  001e7	5b		 pop	 ebx
  001e8	8b e5		 mov	 esp, ebp
  001ea	5d		 pop	 ebp
  001eb	c2 0c 00	 ret	 12			; 0000000cH
?_Insert_node@?$_Tree_val@U?$_Tree_simple_types@U?$pair@$$CBIV?$basic_string@DU?$char_traits@D@std@@V?$allocator@D@2@@std@@@std@@@std@@@std@@QAEPAU?$_Tree_node@U?$pair@$$CBIV?$basic_string@DU?$char_traits@D@std@@V?$allocator@D@2@@std@@@std@@PAX@2@U?$_Tree_id@PAU?$_Tree_node@U?$pair@$$CBIV?$basic_string@DU?$char_traits@D@std@@V?$allocator@D@2@@std@@@std@@PAX@std@@@2@QAU32@@Z ENDP ; std::_Tree_val<std::_Tree_simple_types<std::pair<unsigned int const ,std::basic_string<char,std::char_traits<char>,std::allocator<char> > > > >::_Insert_node
_TEXT	ENDS
; Function compile flags: /Ogtp
; File C:\Users\flourine\Desktop\Xantios\client-src\Code\EterLib\GrpDevice.cpp
;	COMDAT ?CreatePNT2StreamVertexShader@CGraphicDevice@@IAEKXZ
_TEXT	SEGMENT
?CreatePNT2StreamVertexShader@CGraphicDevice@@IAEKXZ PROC ; CGraphicDevice::CreatePNT2StreamVertexShader, COMDAT
; _this$ = ecx

; 233  : 	assert(ms_lpd3dDevice != NULL);
; 234  : 	return D3DFVF_XYZ | D3DFVF_NORMAL | D3DFVF_TEX1 | D3DFVF_TEX2;

  00000	b8 12 03 00 00	 mov	 eax, 786		; 00000312H

; 235  : }

  00005	c3		 ret	 0
?CreatePNT2StreamVertexShader@CGraphicDevice@@IAEKXZ ENDP ; CGraphicDevice::CreatePNT2StreamVertexShader
_TEXT	ENDS
; Function compile flags: /Ogtp
; File C:\Users\flourine\Desktop\Xantios\client-src\Code\EterLib\GrpDevice.cpp
;	COMDAT ?CreatePNTStreamVertexShader@CGraphicDevice@@IAEKXZ
_TEXT	SEGMENT
?CreatePNTStreamVertexShader@CGraphicDevice@@IAEKXZ PROC ; CGraphicDevice::CreatePNTStreamVertexShader, COMDAT
; _this$ = ecx

; 227  : 	assert(ms_lpd3dDevice != NULL);
; 228  : 	return D3DFVF_XYZ | D3DFVF_NORMAL | D3DFVF_TEX1;

  00000	b8 12 01 00 00	 mov	 eax, 274		; 00000112H

; 229  : }

  00005	c3		 ret	 0
?CreatePNTStreamVertexShader@CGraphicDevice@@IAEKXZ ENDP ; CGraphicDevice::CreatePNTStreamVertexShader
_TEXT	ENDS
; Function compile flags: /Ogtp
; File C:\Users\flourine\Desktop\Xantios\client-src\Code\EterLib\GrpDevice.cpp
;	COMDAT ?__CreatePDTVertexBufferList@CGraphicDevice@@IAE_NXZ
_TEXT	SEGMENT
?__CreatePDTVertexBufferList@CGraphicDevice@@IAE_NXZ PROC ; CGraphicDevice::__CreatePDTVertexBufferList, COMDAT
; _this$ = ecx

; 690  : 	auto res = ms_lpd3dDevice->CreateVertexBuffer(sizeof(TPDTVertex) * SMALL_PDT_VERTEX_BUFFER_SIZE,

  00000	8b 0d 00 00 00
	00		 mov	 ecx, DWORD PTR ?ms_lpd3dDevice@CGraphicBase@@1PAUIDirect3DDevice9@@A ; CGraphicBase::ms_lpd3dDevice
  00006	6a 00		 push	 0
  00008	68 00 00 00 00	 push	 OFFSET ?m_smallPdtVertexBuffer@CGraphicBase@@1PAUIDirect3DVertexBuffer9@@A ; CGraphicBase::m_smallPdtVertexBuffer
  0000d	6a 00		 push	 0
  0000f	8b 01		 mov	 eax, DWORD PTR [ecx]
  00011	68 42 01 00 00	 push	 322			; 00000142H
  00016	68 08 02 00 00	 push	 520			; 00000208H
  0001b	68 80 01 00 00	 push	 384			; 00000180H
  00020	51		 push	 ecx
  00021	ff 50 68	 call	 DWORD PTR [eax+104]

; 691  : 		D3DUSAGE_DYNAMIC | D3DUSAGE_WRITEONLY,
; 692  : 		TPDTVertex::kFVF,
; 693  : 		D3DPOOL_DEFAULT,
; 694  : 		&m_smallPdtVertexBuffer, NULL);
; 695  : 
; 696  : 	if (FAILED(res))

  00024	85 c0		 test	 eax, eax
  00026	78 2a		 js	 SHORT $LN5@CreatePDTV

; 697  : 	{
; 698  : 		return false;
; 699  : 	}
; 700  : 	
; 701  : 	res = ms_lpd3dDevice->CreateVertexBuffer(sizeof(TPDTVertex) * LARGE_PDT_VERTEX_BUFFER_SIZE,

  00028	8b 0d 00 00 00
	00		 mov	 ecx, DWORD PTR ?ms_lpd3dDevice@CGraphicBase@@1PAUIDirect3DDevice9@@A ; CGraphicBase::ms_lpd3dDevice
  0002e	6a 00		 push	 0
  00030	68 00 00 00 00	 push	 OFFSET ?m_largePdtVertexBuffer@CGraphicBase@@1PAUIDirect3DVertexBuffer9@@A ; CGraphicBase::m_largePdtVertexBuffer
  00035	6a 00		 push	 0
  00037	8b 01		 mov	 eax, DWORD PTR [ecx]
  00039	68 42 01 00 00	 push	 322			; 00000142H
  0003e	68 08 02 00 00	 push	 520			; 00000208H
  00043	68 c0 12 00 00	 push	 4800			; 000012c0H
  00048	51		 push	 ecx
  00049	ff 50 68	 call	 DWORD PTR [eax+104]

; 702  : 		D3DUSAGE_DYNAMIC | D3DUSAGE_WRITEONLY,
; 703  : 		TPDTVertex::kFVF,
; 704  : 		D3DPOOL_DEFAULT,
; 705  : 		&m_largePdtVertexBuffer, NULL);
; 706  : 
; 707  : 	if (FAILED(res))

  0004c	85 c0		 test	 eax, eax
  0004e	0f 99 c0	 setns	 al

; 710  : 	}
; 711  : 
; 712  : 	return true;
; 713  : }

  00051	c3		 ret	 0
$LN5@CreatePDTV:

; 708  : 	{
; 709  : 		return false;

  00052	32 c0		 xor	 al, al

; 710  : 	}
; 711  : 
; 712  : 	return true;
; 713  : }

  00054	c3		 ret	 0
?__CreatePDTVertexBufferList@CGraphicDevice@@IAE_NXZ ENDP ; CGraphicDevice::__CreatePDTVertexBufferList
_TEXT	ENDS
; Function compile flags: /Ogtp
; File C:\Users\flourine\Desktop\Xantios\client-src\Code\EterLib\GrpDevice.cpp
;	COMDAT ?__DestroyPDTVertexBufferList@CGraphicDevice@@IAEXXZ
_TEXT	SEGMENT
?__DestroyPDTVertexBufferList@CGraphicDevice@@IAEXXZ PROC ; CGraphicDevice::__DestroyPDTVertexBufferList, COMDAT
; _this$ = ecx

; 675  : 	if (m_smallPdtVertexBuffer)

  00000	8b 0d 00 00 00
	00		 mov	 ecx, DWORD PTR ?m_smallPdtVertexBuffer@CGraphicBase@@1PAUIDirect3DVertexBuffer9@@A ; CGraphicBase::m_smallPdtVertexBuffer
  00006	85 c9		 test	 ecx, ecx
  00008	74 10		 je	 SHORT $LN2@DestroyPDT

; 676  : 	{
; 677  : 		m_smallPdtVertexBuffer->Release();

  0000a	8b 01		 mov	 eax, DWORD PTR [ecx]
  0000c	51		 push	 ecx
  0000d	ff 50 08	 call	 DWORD PTR [eax+8]

; 678  : 		m_smallPdtVertexBuffer = nullptr;

  00010	c7 05 00 00 00
	00 00 00 00 00	 mov	 DWORD PTR ?m_smallPdtVertexBuffer@CGraphicBase@@1PAUIDirect3DVertexBuffer9@@A, 0 ; CGraphicBase::m_smallPdtVertexBuffer
$LN2@DestroyPDT:

; 679  : 	}
; 680  : 
; 681  : 	if (m_largePdtVertexBuffer)

  0001a	8b 0d 00 00 00
	00		 mov	 ecx, DWORD PTR ?m_largePdtVertexBuffer@CGraphicBase@@1PAUIDirect3DVertexBuffer9@@A ; CGraphicBase::m_largePdtVertexBuffer
  00020	85 c9		 test	 ecx, ecx
  00022	74 10		 je	 SHORT $LN3@DestroyPDT

; 682  : 	{
; 683  : 		m_largePdtVertexBuffer->Release();

  00024	8b 01		 mov	 eax, DWORD PTR [ecx]
  00026	51		 push	 ecx
  00027	ff 50 08	 call	 DWORD PTR [eax+8]

; 684  : 		m_largePdtVertexBuffer = nullptr;

  0002a	c7 05 00 00 00
	00 00 00 00 00	 mov	 DWORD PTR ?m_largePdtVertexBuffer@CGraphicBase@@1PAUIDirect3DVertexBuffer9@@A, 0 ; CGraphicBase::m_largePdtVertexBuffer
$LN3@DestroyPDT:

; 685  : 	}
; 686  : }

  00034	c3		 ret	 0
?__DestroyPDTVertexBufferList@CGraphicDevice@@IAEXXZ ENDP ; CGraphicDevice::__DestroyPDTVertexBufferList
_TEXT	ENDS
; Function compile flags: /Ogtp
; File C:\Users\flourine\Desktop\Xantios\client-src\Code\EterLib\GrpDevice.cpp
;	COMDAT ?__InitializePDTVertexBufferList@CGraphicDevice@@IAEXXZ
_TEXT	SEGMENT
?__InitializePDTVertexBufferList@CGraphicDevice@@IAEXXZ PROC ; CGraphicDevice::__InitializePDTVertexBufferList, COMDAT
; _this$ = ecx

; 669  : 	m_smallPdtVertexBuffer = nullptr;

  00000	c7 05 00 00 00
	00 00 00 00 00	 mov	 DWORD PTR ?m_smallPdtVertexBuffer@CGraphicBase@@1PAUIDirect3DVertexBuffer9@@A, 0 ; CGraphicBase::m_smallPdtVertexBuffer

; 670  : 	m_largePdtVertexBuffer = nullptr;

  0000a	c7 05 00 00 00
	00 00 00 00 00	 mov	 DWORD PTR ?m_largePdtVertexBuffer@CGraphicBase@@1PAUIDirect3DVertexBuffer9@@A, 0 ; CGraphicBase::m_largePdtVertexBuffer

; 671  : }

  00014	c3		 ret	 0
?__InitializePDTVertexBufferList@CGraphicDevice@@IAEXXZ ENDP ; CGraphicDevice::__InitializePDTVertexBufferList
_TEXT	ENDS
; Function compile flags: /Ogtp
; File C:\Users\flourine\Desktop\Xantios\client-src\Code\EterLib\GrpDevice.cpp
;	COMDAT ?__CreateDefaultIndexBuffer@CGraphicDevice@@IAE_NIIPBG@Z
_TEXT	SEGMENT
_dstIndices$ = 8					; size = 4
_eDefIB$ = 8						; size = 4
_uIdxCount$ = 12					; size = 4
_c_awIndices$ = 16					; size = 4
?__CreateDefaultIndexBuffer@CGraphicDevice@@IAE_NIIPBG@Z PROC ; CGraphicDevice::__CreateDefaultIndexBuffer, COMDAT
; _this$ = ecx

; 773  : {

  00000	55		 push	 ebp
  00001	8b ec		 mov	 ebp, esp

; 774  : 	assert(ms_alpd3dDefIB[eDefIB] == NULL);
; 775  : 
; 776  : 	if (FAILED(

  00003	8b 15 00 00 00
	00		 mov	 edx, DWORD PTR ?ms_lpd3dDevice@CGraphicBase@@1PAUIDirect3DDevice9@@A ; CGraphicBase::ms_lpd3dDevice
  00009	56		 push	 esi
  0000a	57		 push	 edi
  0000b	6a 00		 push	 0
  0000d	8b 02		 mov	 eax, DWORD PTR [edx]
  0000f	8b 48 6c	 mov	 ecx, DWORD PTR [eax+108]
  00012	8b 45 08	 mov	 eax, DWORD PTR _eDefIB$[ebp]
  00015	8d 34 85 00 00
	00 00		 lea	 esi, DWORD PTR ?ms_alpd3dDefIB@CGraphicBase@@1PAPAUIDirect3DIndexBuffer9@@A[eax*4]
  0001c	8b 45 0c	 mov	 eax, DWORD PTR _uIdxCount$[ebp]
  0001f	56		 push	 esi
  00020	6a 01		 push	 1
  00022	6a 65		 push	 101			; 00000065H
  00024	6a 08		 push	 8
  00026	8d 3c 00	 lea	 edi, DWORD PTR [eax+eax]
  00029	57		 push	 edi
  0002a	52		 push	 edx
  0002b	ff d1		 call	 ecx
  0002d	85 c0		 test	 eax, eax
  0002f	78 35		 js	 SHORT $LN5@CreateDefa

; 777  : 		ms_lpd3dDevice->CreateIndexBuffer(
; 778  : 			sizeof(WORD)*uIdxCount, 
; 779  : 			D3DUSAGE_WRITEONLY, 
; 780  : 			D3DFMT_INDEX16,
; 781  : 			D3DPOOL_MANAGED,
; 782  : 			&ms_alpd3dDefIB[eDefIB], nullptr)
; 783  : 	)) return false;
; 784  : 	
; 785  : 	WORD* dstIndices;
; 786  : 	if (FAILED(

  00031	8b 0e		 mov	 ecx, DWORD PTR [esi]
  00033	8d 55 08	 lea	 edx, DWORD PTR _dstIndices$[ebp]
  00036	6a 00		 push	 0
  00038	52		 push	 edx
  00039	6a 00		 push	 0
  0003b	8b 01		 mov	 eax, DWORD PTR [ecx]
  0003d	6a 00		 push	 0
  0003f	51		 push	 ecx
  00040	ff 50 2c	 call	 DWORD PTR [eax+44]
  00043	85 c0		 test	 eax, eax
  00045	78 1f		 js	 SHORT $LN5@CreateDefa

; 789  : 
; 790  : 	memcpy(dstIndices, c_awIndices, sizeof(WORD)*uIdxCount);

  00047	57		 push	 edi
  00048	ff 75 10	 push	 DWORD PTR _c_awIndices$[ebp]
  0004b	ff 75 08	 push	 DWORD PTR _dstIndices$[ebp]
  0004e	e8 00 00 00 00	 call	 _memcpy

; 791  : 
; 792  : 	ms_alpd3dDefIB[eDefIB]->Unlock();

  00053	8b 06		 mov	 eax, DWORD PTR [esi]
  00055	83 c4 0c	 add	 esp, 12			; 0000000cH
  00058	8b 08		 mov	 ecx, DWORD PTR [eax]
  0005a	50		 push	 eax
  0005b	ff 51 30	 call	 DWORD PTR [ecx+48]
  0005e	5f		 pop	 edi

; 793  : 
; 794  : 	return true;

  0005f	b0 01		 mov	 al, 1

; 795  : }

  00061	5e		 pop	 esi
  00062	5d		 pop	 ebp
  00063	c2 0c 00	 ret	 12			; 0000000cH
$LN5@CreateDefa:
  00066	5f		 pop	 edi

; 787  : 		ms_alpd3dDefIB[eDefIB]->Lock(0, 0, (void**)&dstIndices, 0)
; 788  : 	)) return false;

  00067	32 c0		 xor	 al, al

; 795  : }

  00069	5e		 pop	 esi
  0006a	5d		 pop	 ebp
  0006b	c2 0c 00	 ret	 12			; 0000000cH
?__CreateDefaultIndexBuffer@CGraphicDevice@@IAE_NIIPBG@Z ENDP ; CGraphicDevice::__CreateDefaultIndexBuffer
_TEXT	ENDS
; Function compile flags: /Ogtp
; File C:\Users\flourine\Desktop\Xantios\client-src\Code\EterLib\GrpDevice.cpp
;	COMDAT ?__CreateDefaultIndexBufferList@CGraphicDevice@@IAE_NXZ
_TEXT	SEGMENT
?__CreateDefaultIndexBufferList@CGraphicDevice@@IAE_NXZ PROC ; CGraphicDevice::__CreateDefaultIndexBufferList, COMDAT
; _this$ = ecx

; 798  : {

  00000	56		 push	 esi

; 799  : 	static const WORD c_awLineIndices[2] = { 0, 1, };
; 800  : 	static const WORD c_awLineTriIndices[6] = { 0, 1, 0, 2, 1, 2, };
; 801  : 	static const WORD c_awLineRectIndices[8] = { 0, 1, 0, 2, 1, 3, 2, 3,};
; 802  : 	static const WORD c_awLineCubeIndices[24] =
; 803  : 	{
; 804  : 		0, 1, 0, 2, 1, 3, 2, 3,
; 805  : 		0, 4, 1, 5, 2, 6, 3, 7,
; 806  : 		4, 5, 4, 6, 5, 7, 6, 7,
; 807  : 	};
; 808  : 	static const WORD c_awFillTriIndices[3] = { 0, 1, 2, };
; 809  : 	static const WORD c_awFillRectIndices[6] = { 0, 2, 1, 2, 3, 1, };
; 810  : 	static const WORD c_awFillCubeIndices[36] =
; 811  : 	{
; 812  : 		0, 1, 2, 1, 3, 2,
; 813  : 		2, 0, 6, 0, 4, 6,
; 814  : 		0, 1, 4, 1, 5, 4,
; 815  : 		1, 3, 5, 3, 7, 5,
; 816  : 		3, 2, 7, 2, 6, 7,
; 817  : 		4, 5, 6, 5, 7, 6,
; 818  : 	};
; 819  : 
; 820  : 	if (!__CreateDefaultIndexBuffer(DEFAULT_IB_LINE, 2, c_awLineIndices))

  00001	68 00 00 00 00	 push	 OFFSET ?c_awLineIndices@?1??__CreateDefaultIndexBufferList@CGraphicDevice@@IAE_NXZ@4QBGB
  00006	6a 02		 push	 2
  00008	6a 00		 push	 0
  0000a	8b f1		 mov	 esi, ecx
  0000c	e8 00 00 00 00	 call	 ?__CreateDefaultIndexBuffer@CGraphicDevice@@IAE_NIIPBG@Z ; CGraphicDevice::__CreateDefaultIndexBuffer
  00011	84 c0		 test	 al, al
  00013	74 7b		 je	 SHORT $LN10@CreateDefa

; 821  : 	{
; 822  : 		return false;
; 823  : 	}
; 824  : 	if (!__CreateDefaultIndexBuffer(DEFAULT_IB_LINE_TRI, 6, c_awLineTriIndices))

  00015	68 00 00 00 00	 push	 OFFSET ?c_awLineTriIndices@?1??__CreateDefaultIndexBufferList@CGraphicDevice@@IAE_NXZ@4QBGB
  0001a	6a 06		 push	 6
  0001c	6a 01		 push	 1
  0001e	8b ce		 mov	 ecx, esi
  00020	e8 00 00 00 00	 call	 ?__CreateDefaultIndexBuffer@CGraphicDevice@@IAE_NIIPBG@Z ; CGraphicDevice::__CreateDefaultIndexBuffer
  00025	84 c0		 test	 al, al
  00027	74 67		 je	 SHORT $LN10@CreateDefa

; 825  : 	{
; 826  : 		return false;
; 827  : 	}
; 828  : 	if (!__CreateDefaultIndexBuffer(DEFAULT_IB_LINE_RECT, 8, c_awLineRectIndices))

  00029	68 00 00 00 00	 push	 OFFSET ?c_awLineRectIndices@?1??__CreateDefaultIndexBufferList@CGraphicDevice@@IAE_NXZ@4QBGB
  0002e	6a 08		 push	 8
  00030	6a 02		 push	 2
  00032	8b ce		 mov	 ecx, esi
  00034	e8 00 00 00 00	 call	 ?__CreateDefaultIndexBuffer@CGraphicDevice@@IAE_NIIPBG@Z ; CGraphicDevice::__CreateDefaultIndexBuffer
  00039	84 c0		 test	 al, al
  0003b	74 53		 je	 SHORT $LN10@CreateDefa

; 829  : 	{
; 830  : 		return false;
; 831  : 	}
; 832  : 	if (!__CreateDefaultIndexBuffer(DEFAULT_IB_LINE_CUBE, 24, c_awLineCubeIndices))

  0003d	68 00 00 00 00	 push	 OFFSET ?c_awLineCubeIndices@?1??__CreateDefaultIndexBufferList@CGraphicDevice@@IAE_NXZ@4QBGB
  00042	6a 18		 push	 24			; 00000018H
  00044	6a 03		 push	 3
  00046	8b ce		 mov	 ecx, esi
  00048	e8 00 00 00 00	 call	 ?__CreateDefaultIndexBuffer@CGraphicDevice@@IAE_NIIPBG@Z ; CGraphicDevice::__CreateDefaultIndexBuffer
  0004d	84 c0		 test	 al, al
  0004f	74 3f		 je	 SHORT $LN10@CreateDefa

; 833  : 	{
; 834  : 		return false;
; 835  : 	}
; 836  : 	if (!__CreateDefaultIndexBuffer(DEFAULT_IB_FILL_TRI, 3, c_awFillTriIndices))

  00051	68 00 00 00 00	 push	 OFFSET ?c_awFillTriIndices@?1??__CreateDefaultIndexBufferList@CGraphicDevice@@IAE_NXZ@4QBGB
  00056	6a 03		 push	 3
  00058	6a 04		 push	 4
  0005a	8b ce		 mov	 ecx, esi
  0005c	e8 00 00 00 00	 call	 ?__CreateDefaultIndexBuffer@CGraphicDevice@@IAE_NIIPBG@Z ; CGraphicDevice::__CreateDefaultIndexBuffer
  00061	84 c0		 test	 al, al
  00063	74 2b		 je	 SHORT $LN10@CreateDefa

; 837  : 	{
; 838  : 		return false;
; 839  : 	}
; 840  : 	if (!__CreateDefaultIndexBuffer(DEFAULT_IB_FILL_RECT, 6, c_awFillRectIndices))

  00065	68 00 00 00 00	 push	 OFFSET ?c_awFillRectIndices@?1??__CreateDefaultIndexBufferList@CGraphicDevice@@IAE_NXZ@4QBGB
  0006a	6a 06		 push	 6
  0006c	6a 05		 push	 5
  0006e	8b ce		 mov	 ecx, esi
  00070	e8 00 00 00 00	 call	 ?__CreateDefaultIndexBuffer@CGraphicDevice@@IAE_NIIPBG@Z ; CGraphicDevice::__CreateDefaultIndexBuffer
  00075	84 c0		 test	 al, al
  00077	74 17		 je	 SHORT $LN10@CreateDefa

; 841  : 	{
; 842  : 		return false;
; 843  : 	}
; 844  : 	if (!__CreateDefaultIndexBuffer(DEFAULT_IB_FILL_CUBE, 36, c_awFillCubeIndices))

  00079	68 00 00 00 00	 push	 OFFSET ?c_awFillCubeIndices@?1??__CreateDefaultIndexBufferList@CGraphicDevice@@IAE_NXZ@4QBGB
  0007e	6a 24		 push	 36			; 00000024H
  00080	6a 06		 push	 6
  00082	8b ce		 mov	 ecx, esi
  00084	e8 00 00 00 00	 call	 ?__CreateDefaultIndexBuffer@CGraphicDevice@@IAE_NIIPBG@Z ; CGraphicDevice::__CreateDefaultIndexBuffer
  00089	84 c0		 test	 al, al
  0008b	5e		 pop	 esi
  0008c	0f 95 c0	 setne	 al

; 847  : 	}
; 848  : 
; 849  : 	return true;
; 850  : }

  0008f	c3		 ret	 0
$LN10@CreateDefa:

; 845  : 	{
; 846  : 		return false;

  00090	32 c0		 xor	 al, al
  00092	5e		 pop	 esi

; 847  : 	}
; 848  : 
; 849  : 	return true;
; 850  : }

  00093	c3		 ret	 0
?__CreateDefaultIndexBufferList@CGraphicDevice@@IAE_NXZ ENDP ; CGraphicDevice::__CreateDefaultIndexBufferList
_TEXT	ENDS
; Function compile flags: /Ogtp
; File C:\Users\flourine\Desktop\Xantios\client-src\Code\EterLib\GrpDevice.cpp
;	COMDAT ?__DestroyDefaultIndexBufferList@CGraphicDevice@@IAEXXZ
_TEXT	SEGMENT
?__DestroyDefaultIndexBufferList@CGraphicDevice@@IAEXXZ PROC ; CGraphicDevice::__DestroyDefaultIndexBufferList, COMDAT
; _this$ = ecx

; 763  : {

  00000	56		 push	 esi

; 764  : 	for (UINT i = 0; i < DEFAULT_IB_NUM; ++i)

  00001	33 f6		 xor	 esi, esi
$LL4@DestroyDef:

; 765  : 		if (ms_alpd3dDefIB[i])

  00003	8b 8e 00 00 00
	00		 mov	 ecx, DWORD PTR ?ms_alpd3dDefIB@CGraphicBase@@1PAPAUIDirect3DIndexBuffer9@@A[esi]
  00009	85 c9		 test	 ecx, ecx
  0000b	74 10		 je	 SHORT $LN2@DestroyDef

; 766  : 		{
; 767  : 			ms_alpd3dDefIB[i]->Release();

  0000d	8b 01		 mov	 eax, DWORD PTR [ecx]
  0000f	51		 push	 ecx
  00010	ff 50 08	 call	 DWORD PTR [eax+8]

; 768  : 			ms_alpd3dDefIB[i] = NULL;

  00013	c7 86 00 00 00
	00 00 00 00 00	 mov	 DWORD PTR ?ms_alpd3dDefIB@CGraphicBase@@1PAPAUIDirect3DIndexBuffer9@@A[esi], 0
$LN2@DestroyDef:

; 764  : 	for (UINT i = 0; i < DEFAULT_IB_NUM; ++i)

  0001d	83 c6 04	 add	 esi, 4
  00020	83 fe 1c	 cmp	 esi, 28			; 0000001cH
  00023	72 de		 jb	 SHORT $LL4@DestroyDef

; 769  : 		}
; 770  : }

  00025	5e		 pop	 esi
  00026	c3		 ret	 0
?__DestroyDefaultIndexBufferList@CGraphicDevice@@IAEXXZ ENDP ; CGraphicDevice::__DestroyDefaultIndexBufferList
_TEXT	ENDS
; Function compile flags: /Ogtp
; File C:\Users\flourine\Desktop\Xantios\client-src\Code\EterLib\GrpDevice.cpp
;	COMDAT ?__InitializeDefaultIndexBufferList@CGraphicDevice@@IAEXXZ
_TEXT	SEGMENT
?__InitializeDefaultIndexBufferList@CGraphicDevice@@IAEXXZ PROC ; CGraphicDevice::__InitializeDefaultIndexBufferList, COMDAT
; _this$ = ecx

; 755  : {

  00000	0f 57 c0	 xorps	 xmm0, xmm0

; 756  : 	for (UINT i = 0; i < DEFAULT_IB_NUM; ++i)
; 757  : 	{
; 758  : 		ms_alpd3dDefIB[i] = NULL;

  00003	c7 05 10 00 00
	00 00 00 00 00	 mov	 DWORD PTR ?ms_alpd3dDefIB@CGraphicBase@@1PAPAUIDirect3DIndexBuffer9@@A+16, 0
  0000d	0f 11 05 00 00
	00 00		 movups	 XMMWORD PTR ?ms_alpd3dDefIB@CGraphicBase@@1PAPAUIDirect3DIndexBuffer9@@A, xmm0
  00014	c7 05 14 00 00
	00 00 00 00 00	 mov	 DWORD PTR ?ms_alpd3dDefIB@CGraphicBase@@1PAPAUIDirect3DIndexBuffer9@@A+20, 0
  0001e	c7 05 18 00 00
	00 00 00 00 00	 mov	 DWORD PTR ?ms_alpd3dDefIB@CGraphicBase@@1PAPAUIDirect3DIndexBuffer9@@A+24, 0

; 759  : 	}
; 760  : }

  00028	c3		 ret	 0
?__InitializeDefaultIndexBufferList@CGraphicDevice@@IAEXXZ ENDP ; CGraphicDevice::__InitializeDefaultIndexBufferList
_TEXT	ENDS
; Function compile flags: /Ogtp
; File C:\Users\flourine\Desktop\Xantios\client-src\Code\EterLib\GrpDevice.cpp
; File C:\Program Files\Microsoft Visual Studio\2022\Community\VC\Tools\MSVC\14.34.31933\include\xtree
; File C:\Program Files\Microsoft Visual Studio\2022\Community\VC\Tools\MSVC\14.34.31933\include\xstddef
; File C:\Program Files\Microsoft Visual Studio\2022\Community\VC\Tools\MSVC\14.34.31933\include\xtree
; File C:\Users\flourine\Desktop\Xantios\client-src\Code\EterLib\GrpDevice.cpp
; File C:\Program Files\Microsoft Visual Studio\2022\Community\VC\Tools\MSVC\14.34.31933\include\xstring
; File C:\Users\flourine\Desktop\Xantios\client-src\Code\EterLib\GrpDevice.cpp
;	COMDAT ?__WarningMessage@CGraphicDevice@@IAEXPAUHWND__@@I@Z
_TEXT	SEGMENT
__Loc$1 = -12						; size = 12
_hWnd$ = 8						; size = 4
_uiMsg$ = 12						; size = 4
?__WarningMessage@CGraphicDevice@@IAEXPAUHWND__@@I@Z PROC ; CGraphicDevice::__WarningMessage, COMDAT
; _this$ = ecx

; 52   : {

  00000	55		 push	 ebp
  00001	8b ec		 mov	 ebp, esp
  00003	83 ec 0c	 sub	 esp, 12			; 0000000cH
  00006	56		 push	 esi
; File C:\Program Files\Microsoft Visual Studio\2022\Community\VC\Tools\MSVC\14.34.31933\include\xtree

; 1367 :         const _Tree_find_result<_Nodeptr> _Loc = _Find_lower_bound(_Keyval);

  00007	8d 45 0c	 lea	 eax, DWORD PTR _uiMsg$[ebp]
  0000a	50		 push	 eax

; 1136 :         return iterator(_Scary->_Myhead, _Scary);

  0000b	8d 71 08	 lea	 esi, DWORD PTR [ecx+8]

; 1367 :         const _Tree_find_result<_Nodeptr> _Loc = _Find_lower_bound(_Keyval);

  0000e	8d 45 f4	 lea	 eax, DWORD PTR __Loc$1[ebp]
  00011	8b ce		 mov	 ecx, esi
  00013	50		 push	 eax
  00014	e8 00 00 00 00	 call	 ??$_Find_lower_bound@I@?$_Tree@V?$_Tmap_traits@IV?$basic_string@DU?$char_traits@D@std@@V?$allocator@D@2@@std@@U?$less@I@2@V?$allocator@U?$pair@$$CBIV?$basic_string@DU?$char_traits@D@std@@V?$allocator@D@2@@std@@@std@@@2@$0A@@std@@@std@@IBE?AU?$_Tree_find_result@PAU?$_Tree_node@U?$pair@$$CBIV?$basic_string@DU?$char_traits@D@std@@V?$allocator@D@2@@std@@@std@@PAX@std@@@1@ABI@Z ; std::_Tree<std::_Tmap_traits<unsigned int,std::basic_string<char,std::char_traits<char>,std::allocator<char> >,std::less<unsigned int>,std::allocator<std::pair<unsigned int const ,std::basic_string<char,std::char_traits<char>,std::allocator<char> > > >,0> >::_Find_lower_bound<unsigned int>

; 1605 :         return !_Bound->_Isnil && !_DEBUG_LT_PRED(_Getcomp(), _Keyval, _Traits::_Kfn(_Bound->_Myval));

  00019	8b 55 fc	 mov	 edx, DWORD PTR __Loc$1[ebp+8]
  0001c	80 7a 0d 00	 cmp	 BYTE PTR [edx+13], 0
  00020	75 33		 jne	 SHORT $LN1@WarningMes
; File C:\Program Files\Microsoft Visual Studio\2022\Community\VC\Tools\MSVC\14.34.31933\include\xstddef

; 143  :         return _Left < _Right;

  00022	8b 45 0c	 mov	 eax, DWORD PTR _uiMsg$[ebp]
  00025	3b 42 10	 cmp	 eax, DWORD PTR [edx+16]
; File C:\Program Files\Microsoft Visual Studio\2022\Community\VC\Tools\MSVC\14.34.31933\include\xtree

; 1605 :         return !_Bound->_Isnil && !_DEBUG_LT_PRED(_Getcomp(), _Keyval, _Traits::_Kfn(_Bound->_Myval));

  00028	72 2b		 jb	 SHORT $LN1@WarningMes

; 233  :         return this->_Ptr == _Right._Ptr;

  0002a	39 16		 cmp	 DWORD PTR [esi], edx
; File C:\Users\flourine\Desktop\Xantios\client-src\Code\EterLib\GrpDevice.cpp

; 53   : 	if (m_kMap_strWarningMessage.end() == m_kMap_strWarningMessage.find(uiMsg))

  0002c	74 27		 je	 SHORT $LN1@WarningMes

; 57   : 	MessageBox(hWnd, m_kMap_strWarningMessage[uiMsg].c_str(), "Warning", MB_OK | MB_TOPMOST);

  0002e	8d 45 0c	 lea	 eax, DWORD PTR _uiMsg$[ebp]
  00031	8b ce		 mov	 ecx, esi
  00033	50		 push	 eax
  00034	e8 00 00 00 00	 call	 ??A?$map@IV?$basic_string@DU?$char_traits@D@std@@V?$allocator@D@2@@std@@U?$less@I@2@V?$allocator@U?$pair@$$CBIV?$basic_string@DU?$char_traits@D@std@@V?$allocator@D@2@@std@@@std@@@2@@std@@QAEAAV?$basic_string@DU?$char_traits@D@std@@V?$allocator@D@2@@1@ABI@Z ; std::map<unsigned int,std::basic_string<char,std::char_traits<char>,std::allocator<char> >,std::less<unsigned int>,std::allocator<std::pair<unsigned int const ,std::basic_string<char,std::char_traits<char>,std::allocator<char> > > > >::operator[]
; File C:\Program Files\Microsoft Visual Studio\2022\Community\VC\Tools\MSVC\14.34.31933\include\xstring

; 2301 :         return _BUF_SIZE <= _Myres;

  00039	83 78 14 10	 cmp	 DWORD PTR [eax+20], 16	; 00000010H

; 2293 :         if (_Large_string_engaged()) {

  0003d	72 02		 jb	 SHORT $LN34@WarningMes

; 2294 :             _Result = _Unfancy(_Bx._Ptr);

  0003f	8b 00		 mov	 eax, DWORD PTR [eax]
$LN34@WarningMes:
; File C:\Users\flourine\Desktop\Xantios\client-src\Code\EterLib\GrpDevice.cpp

; 57   : 	MessageBox(hWnd, m_kMap_strWarningMessage[uiMsg].c_str(), "Warning", MB_OK | MB_TOPMOST);

  00041	68 00 00 04 00	 push	 262144			; 00040000H
  00046	68 00 00 00 00	 push	 OFFSET ??_C@_07KGMMFLDN@Warning@
  0004b	50		 push	 eax
  0004c	ff 75 08	 push	 DWORD PTR _hWnd$[ebp]
  0004f	ff 15 00 00 00
	00		 call	 DWORD PTR __imp__MessageBoxA@16
$LN1@WarningMes:
  00055	5e		 pop	 esi

; 58   : }

  00056	8b e5		 mov	 esp, ebp
  00058	5d		 pop	 ebp
  00059	c2 08 00	 ret	 8
?__WarningMessage@CGraphicDevice@@IAEXPAUHWND__@@I@Z ENDP ; CGraphicDevice::__WarningMessage
_TEXT	ENDS
; Function compile flags: /Ogtp
; File C:\Users\flourine\Desktop\Xantios\client-src\Code\EterLib\GrpDevice.cpp
;	COMDAT ?__IsInDriverBlackList@CGraphicDevice@@IAE_NAAVD3D_CAdapterInfo@@@Z
_TEXT	SEGMENT
_dwChkLowVersion$1 = -784				; size = 4
_dwChkHighVersion$2 = -780				; size = 4
_ret$1$ = -773						; size = 1
_szSrcDriver$ = -772					; size = 256
_szChkDriver$3 = -516					; size = 256
_szLine$4 = -260					; size = 256
__$ArrayPad$ = -4					; size = 4
_rkD3DAdapterInfo$ = 8					; size = 4
?__IsInDriverBlackList@CGraphicDevice@@IAE_NAAVD3D_CAdapterInfo@@@Z PROC ; CGraphicDevice::__IsInDriverBlackList, COMDAT
; _this$ = ecx

; 356  : {

  00000	55		 push	 ebp
  00001	8b ec		 mov	 ebp, esp
  00003	81 ec 10 03 00
	00		 sub	 esp, 784		; 00000310H
  00009	a1 00 00 00 00	 mov	 eax, DWORD PTR ___security_cookie
  0000e	33 c5		 xor	 eax, ebp
  00010	89 45 fc	 mov	 DWORD PTR __$ArrayPad$[ebp], eax
  00013	53		 push	 ebx
  00014	56		 push	 esi
  00015	8b 75 08	 mov	 esi, DWORD PTR _rkD3DAdapterInfo$[ebp]

; 357  : 	D3DADAPTER_IDENTIFIER9& rkD3DAdapterIdentifier = rkD3DAdapterInfo.GetIdentifier();
; 358  : 
; 359  : 	char szSrcDriver[256];
; 360  : 	strncpy(szSrcDriver, rkD3DAdapterIdentifier.Driver, sizeof(szSrcDriver) - 1);

  00018	8d 85 fc fc ff
	ff		 lea	 eax, DWORD PTR _szSrcDriver$[ebp]
  0001e	57		 push	 edi
  0001f	68 ff 00 00 00	 push	 255			; 000000ffH
  00024	56		 push	 esi
  00025	50		 push	 eax
  00026	e8 00 00 00 00	 call	 _strncpy

; 361  : 	DWORD dwSrcHighVersion = rkD3DAdapterIdentifier.DriverVersion.QuadPart >> 32;

  0002b	8b 9e 20 04 00
	00		 mov	 ebx, DWORD PTR [esi+1056]
  00031	8b be 24 04 00
	00		 mov	 edi, DWORD PTR [esi+1060]

; 362  : 	DWORD dwSrcLowVersion = rkD3DAdapterIdentifier.DriverVersion.QuadPart & 0xffffffff;
; 363  : 
; 364  : 	bool ret = false;
; 365  : 
; 366  : 	FILE* fp = fopen("grpblk.txt", "r");

  00037	68 00 00 00 00	 push	 OFFSET ??_C@_01KDCPPGHE@r@
  0003c	68 00 00 00 00	 push	 OFFSET ??_C@_0L@NIHOAGKC@grpblk?4txt@
  00041	c6 85 fb fc ff
	ff 00		 mov	 BYTE PTR _ret$1$[ebp], 0
  00048	e8 00 00 00 00	 call	 _fopen
  0004d	8b f0		 mov	 esi, eax
  0004f	83 c4 14	 add	 esp, 20			; 00000014H

; 367  : 	if (fp)

  00052	85 f6		 test	 esi, esi
  00054	0f 84 ca 00 00
	00		 je	 $LN21@IsInDriver

; 368  : 	{
; 369  : 		DWORD dwChkHighVersion;
; 370  : 		DWORD dwChkLowVersion;
; 371  : 
; 372  : 		char szChkDriver[256];
; 373  : 
; 374  : 		char szLine[256];
; 375  : 		while (fgets(szLine, sizeof(szLine) - 1, fp))

  0005a	56		 push	 esi
  0005b	8d 85 fc fe ff
	ff		 lea	 eax, DWORD PTR _szLine$4[ebp]
  00061	68 ff 00 00 00	 push	 255			; 000000ffH
  00066	50		 push	 eax
  00067	e8 00 00 00 00	 call	 _fgets
  0006c	83 c4 0c	 add	 esp, 12			; 0000000cH
  0006f	85 c0		 test	 eax, eax
  00071	0f 84 a4 00 00
	00		 je	 $LN16@IsInDriver
  00077	66 0f 1f 84 00
	00 00 00 00	 npad	 9
$LL2@IsInDriver:

; 376  : 		{
; 377  : 			sscanf(szLine, "%s %x %x", szChkDriver, &dwChkHighVersion, &dwChkLowVersion);

  00080	8d 85 f0 fc ff
	ff		 lea	 eax, DWORD PTR _dwChkLowVersion$1[ebp]
  00086	50		 push	 eax
  00087	8d 85 f4 fc ff
	ff		 lea	 eax, DWORD PTR _dwChkHighVersion$2[ebp]
  0008d	50		 push	 eax
  0008e	8d 85 fc fd ff
	ff		 lea	 eax, DWORD PTR _szChkDriver$3[ebp]
  00094	50		 push	 eax
  00095	8d 85 fc fe ff
	ff		 lea	 eax, DWORD PTR _szLine$4[ebp]
  0009b	68 00 00 00 00	 push	 OFFSET ??_C@_08NLGDGEBC@?$CFs?5?$CFx?5?$CFx@
  000a0	50		 push	 eax
  000a1	e8 00 00 00 00	 call	 _sscanf
  000a6	83 c4 14	 add	 esp, 20			; 00000014H

; 378  : 
; 379  : 			if (strcmp(szSrcDriver, szChkDriver) == 0)

  000a9	8d 85 fc fd ff
	ff		 lea	 eax, DWORD PTR _szChkDriver$3[ebp]
  000af	8d 8d fc fc ff
	ff		 lea	 ecx, DWORD PTR _szSrcDriver$[ebp]
$LL17@IsInDriver:
  000b5	8a 11		 mov	 dl, BYTE PTR [ecx]
  000b7	3a 10		 cmp	 dl, BYTE PTR [eax]
  000b9	75 1a		 jne	 SHORT $LN18@IsInDriver
  000bb	84 d2		 test	 dl, dl
  000bd	74 12		 je	 SHORT $LN19@IsInDriver
  000bf	8a 51 01	 mov	 dl, BYTE PTR [ecx+1]
  000c2	3a 50 01	 cmp	 dl, BYTE PTR [eax+1]
  000c5	75 0e		 jne	 SHORT $LN18@IsInDriver
  000c7	83 c1 02	 add	 ecx, 2
  000ca	83 c0 02	 add	 eax, 2
  000cd	84 d2		 test	 dl, dl
  000cf	75 e4		 jne	 SHORT $LL17@IsInDriver
$LN19@IsInDriver:
  000d1	33 c0		 xor	 eax, eax
  000d3	eb 05		 jmp	 SHORT $LN20@IsInDriver
$LN18@IsInDriver:
  000d5	1b c0		 sbb	 eax, eax
  000d7	83 c8 01	 or	 eax, 1
$LN20@IsInDriver:
  000da	85 c0		 test	 eax, eax
  000dc	75 10		 jne	 SHORT $LN7@IsInDriver

; 380  : 				if (dwSrcHighVersion == dwChkHighVersion)

  000de	3b bd f4 fc ff
	ff		 cmp	 edi, DWORD PTR _dwChkHighVersion$2[ebp]
  000e4	75 08		 jne	 SHORT $LN7@IsInDriver

; 381  : 					if (dwSrcLowVersion == dwChkLowVersion)

  000e6	3b 9d f0 fc ff
	ff		 cmp	 ebx, DWORD PTR _dwChkLowVersion$1[ebp]
  000ec	74 26		 je	 SHORT $LN12@IsInDriver
$LN7@IsInDriver:

; 368  : 	{
; 369  : 		DWORD dwChkHighVersion;
; 370  : 		DWORD dwChkLowVersion;
; 371  : 
; 372  : 		char szChkDriver[256];
; 373  : 
; 374  : 		char szLine[256];
; 375  : 		while (fgets(szLine, sizeof(szLine) - 1, fp))

  000ee	56		 push	 esi
  000ef	8d 85 fc fe ff
	ff		 lea	 eax, DWORD PTR _szLine$4[ebp]

; 384  : 						break;
; 385  : 					}
; 386  : 
; 387  : 			szLine[0] = '\0';

  000f5	c6 85 fc fe ff
	ff 00		 mov	 BYTE PTR _szLine$4[ebp], 0
  000fc	68 ff 00 00 00	 push	 255			; 000000ffH
  00101	50		 push	 eax
  00102	e8 00 00 00 00	 call	 _fgets
  00107	83 c4 0c	 add	 esp, 12			; 0000000cH
  0010a	85 c0		 test	 eax, eax
  0010c	0f 85 6e ff ff
	ff		 jne	 $LL2@IsInDriver

; 368  : 	{
; 369  : 		DWORD dwChkHighVersion;
; 370  : 		DWORD dwChkLowVersion;
; 371  : 
; 372  : 		char szChkDriver[256];
; 373  : 
; 374  : 		char szLine[256];
; 375  : 		while (fgets(szLine, sizeof(szLine) - 1, fp))

  00112	eb 07		 jmp	 SHORT $LN16@IsInDriver
$LN12@IsInDriver:

; 382  : 					{
; 383  : 						ret = true;

  00114	c6 85 fb fc ff
	ff 01		 mov	 BYTE PTR _ret$1$[ebp], 1
$LN16@IsInDriver:

; 388  : 		}
; 389  : 		fclose(fp);

  0011b	56		 push	 esi
  0011c	e8 00 00 00 00	 call	 _fclose
  00121	83 c4 04	 add	 esp, 4
$LN21@IsInDriver:

; 390  : 	}
; 391  : 
; 392  : 	return ret;
; 393  : }

  00124	8b 4d fc	 mov	 ecx, DWORD PTR __$ArrayPad$[ebp]
  00127	8a 85 fb fc ff
	ff		 mov	 al, BYTE PTR _ret$1$[ebp]
  0012d	33 cd		 xor	 ecx, ebp
  0012f	5f		 pop	 edi
  00130	5e		 pop	 esi
  00131	5b		 pop	 ebx
  00132	e8 00 00 00 00	 call	 @__security_check_cookie@4
  00137	8b e5		 mov	 esp, ebp
  00139	5d		 pop	 ebp
  0013a	c2 04 00	 ret	 4
?__IsInDriverBlackList@CGraphicDevice@@IAE_NAAVD3D_CAdapterInfo@@@Z ENDP ; CGraphicDevice::__IsInDriverBlackList
_TEXT	ENDS
; Function compile flags: /Ogtp
; File C:\Users\flourine\Desktop\Xantios\client-src\Code\EterLib\GrpDevice.cpp
;	COMDAT ?__Initialize@CGraphicDevice@@IAEXXZ
_TEXT	SEGMENT
?__Initialize@CGraphicDevice@@IAEXXZ PROC		; CGraphicDevice::__Initialize, COMDAT
; _this$ = ecx

; 28   : {

  00000	56		 push	 esi
  00001	8b f1		 mov	 esi, ecx

; 29   : 	ms_iD3DAdapterInfo = D3DADAPTER_DEFAULT;

  00003	c7 05 00 00 00
	00 00 00 00 00	 mov	 DWORD PTR ?ms_iD3DAdapterInfo@CGraphicBase@@1IA, 0 ; CGraphicBase::ms_iD3DAdapterInfo

; 30   : 	ms_iD3DDevInfo = D3DADAPTER_DEFAULT;

  0000d	c7 05 00 00 00
	00 00 00 00 00	 mov	 DWORD PTR ?ms_iD3DDevInfo@CGraphicBase@@1IA, 0 ; CGraphicBase::ms_iD3DDevInfo

; 31   : 	ms_iD3DModeInfo = D3DADAPTER_DEFAULT;

  00017	c7 05 00 00 00
	00 00 00 00 00	 mov	 DWORD PTR ?ms_iD3DModeInfo@CGraphicBase@@1IA, 0 ; CGraphicBase::ms_iD3DModeInfo

; 32   : 
; 33   : 	ms_lpd3d			= NULL;

  00021	c7 05 00 00 00
	00 00 00 00 00	 mov	 DWORD PTR ?ms_lpd3d@CGraphicBase@@1PAUIDirect3D9@@A, 0 ; CGraphicBase::ms_lpd3d

; 34   : 	ms_lpd3dDevice		= NULL;

  0002b	c7 05 00 00 00
	00 00 00 00 00	 mov	 DWORD PTR ?ms_lpd3dDevice@CGraphicBase@@1PAUIDirect3DDevice9@@A, 0 ; CGraphicBase::ms_lpd3dDevice

; 35   : 	ms_lpd3dMatStack	= NULL;

  00035	c7 05 00 00 00
	00 00 00 00 00	 mov	 DWORD PTR ?ms_lpd3dMatStack@CGraphicBase@@1PAUID3DXMatrixStack@@A, 0 ; CGraphicBase::ms_lpd3dMatStack

; 36   : 
; 37   : 	ms_dwWavingEndTime = 0;

  0003f	c7 05 00 00 00
	00 00 00 00 00	 mov	 DWORD PTR ?ms_dwWavingEndTime@CGraphicBase@@1KA, 0 ; CGraphicBase::ms_dwWavingEndTime

; 38   : 	ms_dwFlashingEndTime = 0;

  00049	c7 05 00 00 00
	00 00 00 00 00	 mov	 DWORD PTR ?ms_dwFlashingEndTime@CGraphicBase@@1KA, 0 ; CGraphicBase::ms_dwFlashingEndTime

; 39   : 
; 40   : 	m_pStateManager		= NULL;

  00053	c7 46 10 00 00
	00 00		 mov	 DWORD PTR [esi+16], 0

; 41   : 
; 42   : 	__InitializeDefaultIndexBufferList();

  0005a	e8 00 00 00 00	 call	 ?__InitializeDefaultIndexBufferList@CGraphicDevice@@IAEXXZ ; CGraphicDevice::__InitializeDefaultIndexBufferList

; 43   : 	__InitializePDTVertexBufferList();

  0005f	8b ce		 mov	 ecx, esi
  00061	5e		 pop	 esi
  00062	e9 00 00 00 00	 jmp	 ?__InitializePDTVertexBufferList@CGraphicDevice@@IAEXXZ ; CGraphicDevice::__InitializePDTVertexBufferList
?__Initialize@CGraphicDevice@@IAEXXZ ENDP		; CGraphicDevice::__Initialize
_TEXT	ENDS
; Function compile flags: /Ogtp
; File C:\Users\flourine\Desktop\Xantios\client-src\Code\EterLib\GrpDevice.cpp
;	COMDAT ?GetDevice@CGraphicDevice@@QAEPAUIDirect3DDevice9@@XZ
_TEXT	SEGMENT
?GetDevice@CGraphicDevice@@QAEPAUIDirect3DDevice9@@XZ PROC ; CGraphicDevice::GetDevice, COMDAT
; _this$ = ecx

; 297  : 	return ms_lpd3dDevice;

  00000	a1 00 00 00 00	 mov	 eax, DWORD PTR ?ms_lpd3dDevice@CGraphicBase@@1PAUIDirect3DDevice9@@A ; CGraphicBase::ms_lpd3dDevice

; 298  : }

  00005	c3		 ret	 0
?GetDevice@CGraphicDevice@@QAEPAUIDirect3DDevice9@@XZ ENDP ; CGraphicDevice::GetDevice
_TEXT	ENDS
; Function compile flags: /Ogtp
; File C:\Users\flourine\Desktop\Xantios\client-src\Code\EterLib\GrpDevice.cpp
;	COMDAT ?GetDirectx9@CGraphicDevice@@QAEPAUIDirect3D9@@XZ
_TEXT	SEGMENT
?GetDirectx9@CGraphicDevice@@QAEPAUIDirect3D9@@XZ PROC	; CGraphicDevice::GetDirectx9, COMDAT
; _this$ = ecx

; 292  : 	return ms_lpd3d;

  00000	a1 00 00 00 00	 mov	 eax, DWORD PTR ?ms_lpd3d@CGraphicBase@@1PAUIDirect3D9@@A ; CGraphicBase::ms_lpd3d

; 293  : }

  00005	c3		 ret	 0
?GetDirectx9@CGraphicDevice@@QAEPAUIDirect3D9@@XZ ENDP	; CGraphicDevice::GetDirectx9
_TEXT	ENDS
; Function compile flags: /Ogtp
; File C:\Users\flourine\Desktop\Xantios\client-src\Code\EterLib\GrpDevice.cpp
; File C:\Program Files\Microsoft Visual Studio\2022\Community\VC\Tools\MSVC\14.34.31933\include\xstring
; File C:\Users\flourine\Desktop\Xantios\client-src\Code\EterLib\GrpDevice.cpp
; File C:\Program Files\Microsoft Visual Studio\2022\Community\VC\Tools\MSVC\14.34.31933\include\xstring
; File C:\Users\flourine\Desktop\Xantios\client-src\Code\EterLib\GrpDevice.cpp
; File C:\Program Files\Microsoft Visual Studio\2022\Community\VC\Tools\MSVC\14.34.31933\include\xstring
; File C:\Program Files\Microsoft Visual Studio\2022\Community\VC\Tools\MSVC\14.34.31933\include\xmemory
; File C:\Program Files\Microsoft Visual Studio\2022\Community\VC\Tools\MSVC\14.34.31933\include\xstring
; File C:\Program Files\Microsoft Visual Studio\2022\Community\VC\Tools\MSVC\14.34.31933\include\xmemory
; File C:\Program Files\Microsoft Visual Studio\2022\Community\VC\Tools\MSVC\14.34.31933\include\xstring
; File C:\Program Files\Microsoft Visual Studio\2022\Community\VC\Tools\MSVC\14.34.31933\include\utility
; File C:\Program Files\Microsoft Visual Studio\2022\Community\VC\Tools\MSVC\14.34.31933\include\xstring
; File C:\Program Files\Microsoft Visual Studio\2022\Community\VC\Tools\MSVC\14.34.31933\include\xmemory
; File C:\Program Files\Microsoft Visual Studio\2022\Community\VC\Tools\MSVC\14.34.31933\include\xstring
; File C:\Program Files\Microsoft Visual Studio\2022\Community\VC\Tools\MSVC\14.34.31933\include\xmemory
; File C:\Users\flourine\Desktop\Xantios\client-src\Code\EterLib\GrpDevice.cpp
; File C:\Program Files\Microsoft Visual Studio\2022\Community\VC\Tools\MSVC\14.34.31933\include\xmemory
; File C:\Program Files\Microsoft Visual Studio\2022\Community\VC\Tools\MSVC\14.34.31933\include\xstring
; File C:\Users\flourine\Desktop\Xantios\client-src\Code\EterLib\GrpDevice.cpp
;	COMDAT ?RegisterWarningString@CGraphicDevice@@QAEXIPBD@Z
_TEXT	SEGMENT
$T1 = -8						; size = 4
$T2 = -4						; size = 4
_uiMsg$ = 8						; size = 4
_c_szString$ = 12					; size = 4
?RegisterWarningString@CGraphicDevice@@QAEXIPBD@Z PROC	; CGraphicDevice::RegisterWarningString, COMDAT
; _this$ = ecx

; 47   : {

  00000	55		 push	 ebp
  00001	8b ec		 mov	 ebp, esp
  00003	83 ec 08	 sub	 esp, 8

; 48   : 	m_kMap_strWarningMessage[uiMsg] = c_szString;

  00006	8d 45 08	 lea	 eax, DWORD PTR _uiMsg$[ebp]
  00009	83 c1 08	 add	 ecx, 8
  0000c	53		 push	 ebx
  0000d	56		 push	 esi
  0000e	57		 push	 edi
  0000f	50		 push	 eax
  00010	e8 00 00 00 00	 call	 ??A?$map@IV?$basic_string@DU?$char_traits@D@std@@V?$allocator@D@2@@std@@U?$less@I@2@V?$allocator@U?$pair@$$CBIV?$basic_string@DU?$char_traits@D@std@@V?$allocator@D@2@@std@@@std@@@2@@std@@QAEAAV?$basic_string@DU?$char_traits@D@std@@V?$allocator@D@2@@1@ABI@Z ; std::map<unsigned int,std::basic_string<char,std::char_traits<char>,std::allocator<char> >,std::less<unsigned int>,std::allocator<std::pair<unsigned int const ,std::basic_string<char,std::char_traits<char>,std::allocator<char> > > > >::operator[]
; File C:\Program Files\Microsoft Visual Studio\2022\Community\VC\Tools\MSVC\14.34.31933\include\xstring

; 415  :             return __builtin_strlen(_First);

  00015	8b 55 0c	 mov	 edx, DWORD PTR _c_szString$[ebp]
; File C:\Users\flourine\Desktop\Xantios\client-src\Code\EterLib\GrpDevice.cpp

; 48   : 	m_kMap_strWarningMessage[uiMsg] = c_szString;

  00018	8b d8		 mov	 ebx, eax
; File C:\Program Files\Microsoft Visual Studio\2022\Community\VC\Tools\MSVC\14.34.31933\include\xstring

; 415  :             return __builtin_strlen(_First);

  0001a	8b f2		 mov	 esi, edx
  0001c	8d 4e 01	 lea	 ecx, DWORD PTR [esi+1]
  0001f	90		 npad	 1
$LL67@RegisterWa:
  00020	8a 06		 mov	 al, BYTE PTR [esi]
  00022	46		 inc	 esi
  00023	84 c0		 test	 al, al
  00025	75 f9		 jne	 SHORT $LL67@RegisterWa
  00027	2b f1		 sub	 esi, ecx

; 3530 :         if (_Count <= _Mypair._Myval2._Myres) {

  00029	8b 4b 14	 mov	 ecx, DWORD PTR [ebx+20]
  0002c	89 4d f8	 mov	 DWORD PTR $T1[ebp], ecx
  0002f	3b f1		 cmp	 esi, ecx
  00031	77 24		 ja	 SHORT $LN10@RegisterWa

; 2283 :         value_type* _Result = _Bx._Buf;

  00033	8b fb		 mov	 edi, ebx

; 2301 :         return _BUF_SIZE <= _Myres;

  00035	83 f9 10	 cmp	 ecx, 16			; 00000010H

; 2284 :         if (_Large_string_engaged()) {

  00038	72 02		 jb	 SHORT $LN13@RegisterWa

; 2285 :             _Result = _Unfancy(_Bx._Ptr);

  0003a	8b 3b		 mov	 edi, DWORD PTR [ebx]
$LN13@RegisterWa:

; 117  :         _CSTD memmove(_First1, _First2, _Count * sizeof(_Elem));

  0003c	56		 push	 esi
  0003d	52		 push	 edx
  0003e	57		 push	 edi

; 3533 :             _Mypair._Myval2._Mysize = _Count;

  0003f	89 73 10	 mov	 DWORD PTR [ebx+16], esi

; 117  :         _CSTD memmove(_First1, _First2, _Count * sizeof(_Elem));

  00042	e8 00 00 00 00	 call	 _memmove
  00047	83 c4 0c	 add	 esp, 12			; 0000000cH

; 3535 :             _Traits::assign(_Old_ptr[_Count], _Elem());

  0004a	c6 04 37 00	 mov	 BYTE PTR [edi+esi], 0
  0004e	5f		 pop	 edi
; File C:\Users\flourine\Desktop\Xantios\client-src\Code\EterLib\GrpDevice.cpp

; 49   : }

  0004f	5e		 pop	 esi
  00050	5b		 pop	 ebx
  00051	8b e5		 mov	 esp, ebp
  00053	5d		 pop	 ebp
  00054	c2 08 00	 ret	 8
$LN10@RegisterWa:
; File C:\Program Files\Microsoft Visual Studio\2022\Community\VC\Tools\MSVC\14.34.31933\include\xstring

; 4903 :         if (_New_size > max_size()) {

  00057	81 fe ff ff ff
	7f		 cmp	 esi, 2147483647		; 7fffffffH
  0005d	0f 87 d1 00 00
	00		 ja	 $LN71@RegisterWa

; 4883 :         const size_type _Masked = _Requested | _ALLOC_MASK;

  00063	8b fe		 mov	 edi, esi
  00065	83 cf 0f	 or	 edi, 15			; 0000000fH
  00068	81 ff ff ff ff
	7f		 cmp	 edi, 2147483647		; 7fffffffH

; 4884 :         if (_Masked > _Max) { // the mask overflows, settle for max_size()

  0006e	76 15		 jbe	 SHORT $LN27@RegisterWa

; 4885 :             return _Max;

  00070	b8 00 00 00 80	 mov	 eax, -2147483648	; 80000000H
  00075	bf ff ff ff 7f	 mov	 edi, 2147483647		; 7fffffffH
; File C:\Program Files\Microsoft Visual Studio\2022\Community\VC\Tools\MSVC\14.34.31933\include\xmemory

; 229  :             return _Allocate_manually_vector_aligned<_Traits>(_Bytes);

  0007a	50		 push	 eax
  0007b	e8 00 00 00 00	 call	 ??$_Allocate_manually_vector_aligned@U_Default_allocate_traits@std@@@std@@YAPAXI@Z ; std::_Allocate_manually_vector_aligned<std::_Default_allocate_traits>
  00080	83 c4 04	 add	 esp, 4
  00083	eb 52		 jmp	 SHORT $LN69@RegisterWa
$LN27@RegisterWa:
; File C:\Program Files\Microsoft Visual Studio\2022\Community\VC\Tools\MSVC\14.34.31933\include\xstring

; 4888 :         if (_Old > _Max - _Old / 2) { // similarly, geometric overflows

  00085	8b d1		 mov	 edx, ecx
  00087	b8 ff ff ff 7f	 mov	 eax, 2147483647		; 7fffffffH
  0008c	d1 ea		 shr	 edx, 1
  0008e	2b c2		 sub	 eax, edx
  00090	3b c8		 cmp	 ecx, eax
  00092	76 15		 jbe	 SHORT $LN28@RegisterWa

; 4889 :             return _Max;

  00094	b8 00 00 00 80	 mov	 eax, -2147483648	; 80000000H
  00099	bf ff ff ff 7f	 mov	 edi, 2147483647		; 7fffffffH
; File C:\Program Files\Microsoft Visual Studio\2022\Community\VC\Tools\MSVC\14.34.31933\include\xmemory

; 229  :             return _Allocate_manually_vector_aligned<_Traits>(_Bytes);

  0009e	50		 push	 eax
  0009f	e8 00 00 00 00	 call	 ??$_Allocate_manually_vector_aligned@U_Default_allocate_traits@std@@@std@@YAPAXI@Z ; std::_Allocate_manually_vector_aligned<std::_Default_allocate_traits>
  000a4	83 c4 04	 add	 esp, 4
  000a7	eb 2e		 jmp	 SHORT $LN69@RegisterWa
$LN28@RegisterWa:
; File C:\Program Files\Microsoft Visual Studio\2022\Community\VC\Tools\MSVC\14.34.31933\include\xstring

; 4892 :         return (_STD max)(_Masked, _Old + _Old / 2);

  000a9	8d 04 0a	 lea	 eax, DWORD PTR [edx+ecx]
; File C:\Program Files\Microsoft Visual Studio\2022\Community\VC\Tools\MSVC\14.34.31933\include\utility

; 43   :     return _Left < _Right ? _Right : _Left;

  000ac	3b f8		 cmp	 edi, eax
  000ae	0f 42 f8	 cmovb	 edi, eax
; File C:\Program Files\Microsoft Visual Studio\2022\Community\VC\Tools\MSVC\14.34.31933\include\xstring

; 4910 :         const pointer _New_ptr        = _Al.allocate(_New_capacity + 1); // throws

  000b1	8d 47 01	 lea	 eax, DWORD PTR [edi+1]
; File C:\Program Files\Microsoft Visual Studio\2022\Community\VC\Tools\MSVC\14.34.31933\include\xmemory

; 228  :         if (_Bytes >= _Big_allocation_threshold) { // boost the alignment of big allocations to help autovectorization

  000b4	3d 00 10 00 00	 cmp	 eax, 4096		; 00001000H
  000b9	72 0b		 jb	 SHORT $LN35@RegisterWa

; 229  :             return _Allocate_manually_vector_aligned<_Traits>(_Bytes);

  000bb	50		 push	 eax
  000bc	e8 00 00 00 00	 call	 ??$_Allocate_manually_vector_aligned@U_Default_allocate_traits@std@@@std@@YAPAXI@Z ; std::_Allocate_manually_vector_aligned<std::_Default_allocate_traits>
  000c1	83 c4 04	 add	 esp, 4
  000c4	eb 11		 jmp	 SHORT $LN69@RegisterWa
$LN35@RegisterWa:

; 230  :         }
; 231  :     }
; 232  : #endif // defined(_M_IX86) || defined(_M_X64)
; 233  : 
; 234  :     if (_Bytes != 0) {

  000c6	85 c0		 test	 eax, eax
  000c8	74 0b		 je	 SHORT $LN36@RegisterWa

; 77   :         return ::operator new(_Bytes);

  000ca	50		 push	 eax
  000cb	e8 00 00 00 00	 call	 ??2@YAPAXI@Z		; operator new
  000d0	83 c4 04	 add	 esp, 4

; 235  :         return _Traits::_Allocate(_Bytes);

  000d3	eb 02		 jmp	 SHORT $LN69@RegisterWa
$LN36@RegisterWa:

; 236  :     }
; 237  : 
; 238  :     return nullptr;

  000d5	33 c0		 xor	 eax, eax
$LN69@RegisterWa:
; File C:\Program Files\Microsoft Visual Studio\2022\Community\VC\Tools\MSVC\14.34.31933\include\xstring

; 64   :         _CSTD memcpy(_First1, _First2, _Count * sizeof(_Elem));

  000d7	56		 push	 esi
  000d8	ff 75 0c	 push	 DWORD PTR _c_szString$[ebp]

; 4920 :         _Mypair._Myval2._Myres  = _New_capacity;

  000db	89 7b 14	 mov	 DWORD PTR [ebx+20], edi

; 64   :         _CSTD memcpy(_First1, _First2, _Count * sizeof(_Elem));

  000de	8b f8		 mov	 edi, eax
  000e0	57		 push	 edi

; 4919 :         _Mypair._Myval2._Mysize = _New_size;

  000e1	89 45 fc	 mov	 DWORD PTR $T2[ebp], eax
  000e4	89 73 10	 mov	 DWORD PTR [ebx+16], esi

; 64   :         _CSTD memcpy(_First1, _First2, _Count * sizeof(_Elem));

  000e7	e8 00 00 00 00	 call	 _memcpy

; 4922 :         if (_BUF_SIZE <= _Old_capacity) {

  000ec	8b 45 f8	 mov	 eax, DWORD PTR $T1[ebp]

; 64   :         _CSTD memcpy(_First1, _First2, _Count * sizeof(_Elem));

  000ef	83 c4 0c	 add	 esp, 12			; 0000000cH

; 3543 :                 _Traits::assign(_New_ptr[_Count], _Elem());

  000f2	c6 04 37 00	 mov	 BYTE PTR [edi+esi], 0

; 4922 :         if (_BUF_SIZE <= _Old_capacity) {

  000f6	83 f8 10	 cmp	 eax, 16			; 00000010H
  000f9	72 29		 jb	 SHORT $LN21@RegisterWa

; 4923 :             _Al.deallocate(_Mypair._Myval2._Bx._Ptr, _Old_capacity + 1);

  000fb	8d 48 01	 lea	 ecx, DWORD PTR [eax+1]
; File C:\Program Files\Microsoft Visual Studio\2022\Community\VC\Tools\MSVC\14.34.31933\include\xmemory

; 830  :         _Deallocate<_New_alignof<_Ty>>(_Ptr, sizeof(_Ty) * _Count);

  000fe	8b 03		 mov	 eax, DWORD PTR [ebx]

; 251  :         if (_Bytes >= _Big_allocation_threshold) { // boost the alignment of big allocations to help autovectorization

  00100	81 f9 00 10 00
	00		 cmp	 ecx, 4096		; 00001000H
  00106	72 12		 jb	 SHORT $LN58@RegisterWa

; 150  :     const uintptr_t _Ptr_container   = _Ptr_user[-1];

  00108	8b 50 fc	 mov	 edx, DWORD PTR [eax-4]
  0010b	83 c1 23	 add	 ecx, 35			; 00000023H

; 151  : 
; 152  :     // If the following asserts, it likely means that we are performing
; 153  :     // an aligned delete on memory coming from an unaligned allocation.
; 154  :     _STL_ASSERT(_Ptr_user[-2] == _Big_allocation_sentinel, "invalid argument");
; 155  : 
; 156  :     // Extra paranoia on aligned allocation/deallocation; ensure _Ptr_container is
; 157  :     // in range [_Min_back_shift, _Non_user_size]
; 158  : #ifdef _DEBUG
; 159  :     constexpr uintptr_t _Min_back_shift = 2 * sizeof(void*);
; 160  : #else // ^^^ _DEBUG ^^^ // vvv !_DEBUG vvv
; 161  :     constexpr uintptr_t _Min_back_shift = sizeof(void*);
; 162  : #endif // _DEBUG
; 163  :     const uintptr_t _Back_shift = reinterpret_cast<uintptr_t>(_Ptr) - _Ptr_container;

  0010e	2b c2		 sub	 eax, edx

; 164  :     _STL_VERIFY(_Back_shift >= _Min_back_shift && _Back_shift <= _Non_user_size, "invalid argument");

  00110	83 c0 fc	 add	 eax, -4			; fffffffcH
  00113	83 f8 1f	 cmp	 eax, 31			; 0000001fH
  00116	77 17		 ja	 SHORT $LN55@RegisterWa

; 165  :     _Ptr = reinterpret_cast<void*>(_Ptr_container);

  00118	8b c2		 mov	 eax, edx
$LN58@RegisterWa:

; 255  :         ::operator delete(_Ptr, _Bytes);

  0011a	51		 push	 ecx
  0011b	50		 push	 eax
  0011c	e8 00 00 00 00	 call	 ??3@YAXPAXI@Z		; operator delete
  00121	83 c4 08	 add	 esp, 8
$LN21@RegisterWa:
; File C:\Users\flourine\Desktop\Xantios\client-src\Code\EterLib\GrpDevice.cpp

; 49   : }

  00124	89 3b		 mov	 DWORD PTR [ebx], edi
  00126	5f		 pop	 edi
  00127	5e		 pop	 esi
  00128	5b		 pop	 ebx
  00129	8b e5		 mov	 esp, ebp
  0012b	5d		 pop	 ebp
  0012c	c2 08 00	 ret	 8
$LN55@RegisterWa:
; File C:\Program Files\Microsoft Visual Studio\2022\Community\VC\Tools\MSVC\14.34.31933\include\xmemory

; 164  :     _STL_VERIFY(_Back_shift >= _Min_back_shift && _Back_shift <= _Non_user_size, "invalid argument");

  0012f	e8 00 00 00 00	 call	 __invalid_parameter_noinfo_noreturn
$LN71@RegisterWa:
; File C:\Program Files\Microsoft Visual Studio\2022\Community\VC\Tools\MSVC\14.34.31933\include\xstring

; 4904 :             _Xlen_string(); // result too long

  00134	e8 00 00 00 00	 call	 ?_Xlen_string@std@@YAXXZ ; std::_Xlen_string
$LN68@RegisterWa:
  00139	cc		 int	 3
?RegisterWarningString@CGraphicDevice@@QAEXIPBD@Z ENDP	; CGraphicDevice::RegisterWarningString
_TEXT	ENDS
; Function compile flags: /Ogtp
; File C:\Users\flourine\Desktop\Xantios\client-src\Code\EterLib\GrpDevice.cpp
;	COMDAT ?ResizeBackBuffer@CGraphicDevice@@QAE_NII@Z
_TEXT	SEGMENT
_uWidth$ = 8						; size = 4
_uHeight$ = 12						; size = 4
?ResizeBackBuffer@CGraphicDevice@@QAE_NII@Z PROC	; CGraphicDevice::ResizeBackBuffer, COMDAT
; _this$ = ecx

; 122  : {

  00000	55		 push	 ebp
  00001	8b ec		 mov	 ebp, esp

; 123  : 	if (!ms_lpd3dDevice)

  00003	8b 0d 00 00 00
	00		 mov	 ecx, DWORD PTR ?ms_lpd3dDevice@CGraphicBase@@1PAUIDirect3DDevice9@@A ; CGraphicBase::ms_lpd3dDevice
  00009	85 c9		 test	 ecx, ecx
  0000b	74 4a		 je	 SHORT $LN8@ResizeBack

; 124  : 	{
; 125  : 		return false;
; 126  : 	}
; 127  : 
; 128  : 	D3DPRESENT_PARAMETERS& rkD3DPP = ms_d3dPresentParameter;
; 129  : 	if (rkD3DPP.Windowed)

  0000d	83 3d 20 00 00
	00 00		 cmp	 DWORD PTR ?ms_d3dPresentParameter@CGraphicBase@@1U_D3DPRESENT_PARAMETERS_@@A+32, 0
  00014	74 3b		 je	 SHORT $LN4@ResizeBack

; 130  : 	{
; 131  : 		if (rkD3DPP.BackBufferWidth != uWidth || rkD3DPP.BackBufferHeight != uHeight)

  00016	8b 55 08	 mov	 edx, DWORD PTR _uWidth$[ebp]
  00019	8b 45 0c	 mov	 eax, DWORD PTR _uHeight$[ebp]
  0001c	39 15 00 00 00
	00		 cmp	 DWORD PTR ?ms_d3dPresentParameter@CGraphicBase@@1U_D3DPRESENT_PARAMETERS_@@A, edx
  00022	75 08		 jne	 SHORT $LN5@ResizeBack
  00024	39 05 04 00 00
	00		 cmp	 DWORD PTR ?ms_d3dPresentParameter@CGraphicBase@@1U_D3DPRESENT_PARAMETERS_@@A+4, eax
  0002a	74 25		 je	 SHORT $LN4@ResizeBack
$LN5@ResizeBack:

; 132  : 		{
; 133  : 			rkD3DPP.BackBufferWidth = uWidth;

  0002c	89 15 00 00 00
	00		 mov	 DWORD PTR ?ms_d3dPresentParameter@CGraphicBase@@1U_D3DPRESENT_PARAMETERS_@@A, edx

; 134  : 			rkD3DPP.BackBufferHeight = uHeight;

  00032	a3 04 00 00 00	 mov	 DWORD PTR ?ms_d3dPresentParameter@CGraphicBase@@1U_D3DPRESENT_PARAMETERS_@@A+4, eax

; 135  : 
; 136  : 			IDirect3DDevice9& rkD3DDev = *ms_lpd3dDevice;
; 137  : 
; 138  : 			HRESULT hr = rkD3DDev.Reset(&rkD3DPP);

  00037	8b 01		 mov	 eax, DWORD PTR [ecx]
  00039	68 00 00 00 00	 push	 OFFSET ?ms_d3dPresentParameter@CGraphicBase@@1U_D3DPRESENT_PARAMETERS_@@A ; CGraphicBase::ms_d3dPresentParameter
  0003e	51		 push	 ecx
  0003f	ff 50 40	 call	 DWORD PTR [eax+64]

; 139  : 			if (FAILED(hr))

  00042	85 c0		 test	 eax, eax
  00044	78 11		 js	 SHORT $LN8@ResizeBack

; 142  : 			}
; 143  : 
; 144  : 			STATEMANAGER.SetDefaultState();

  00046	8b 0d 00 00 00
	00		 mov	 ecx, DWORD PTR ?ms_singleton@?$CSingleton@VCStateManager@@@@0PAVCStateManager@@A ; CSingleton<CStateManager>::ms_singleton
  0004c	e8 00 00 00 00	 call	 ?SetDefaultState@CStateManager@@QAEXXZ ; CStateManager::SetDefaultState
$LN4@ResizeBack:

; 145  : 		}
; 146  : 	}
; 147  : 
; 148  : 	return true;

  00051	b0 01		 mov	 al, 1

; 149  : }

  00053	5d		 pop	 ebp
  00054	c2 08 00	 ret	 8
$LN8@ResizeBack:

; 140  : 			{
; 141  : 				return false;

  00057	32 c0		 xor	 al, al

; 149  : }

  00059	5d		 pop	 ebp
  0005a	c2 08 00	 ret	 8
?ResizeBackBuffer@CGraphicDevice@@QAE_NII@Z ENDP	; CGraphicDevice::ResizeBackBuffer
_TEXT	ENDS
; Function compile flags: /Ogtp
; File C:\Users\flourine\Desktop\Xantios\client-src\Code\EterLib\GrpDevice.cpp
;	COMDAT ?MoveWebBrowserRect@CGraphicDevice@@QAEXABUtagRECT@@@Z
_TEXT	SEGMENT
_c_rcWebPage$ = 8					; size = 4
?MoveWebBrowserRect@CGraphicDevice@@QAEXABUtagRECT@@@Z PROC ; CGraphicDevice::MoveWebBrowserRect, COMDAT
; _this$ = ecx

; 61   : {

  00000	55		 push	 ebp
  00001	8b ec		 mov	 ebp, esp

; 62   : 	g_rcBrowser = c_rcWebPage;

  00003	8b 45 08	 mov	 eax, DWORD PTR _c_rcWebPage$[ebp]
  00006	0f 10 00	 movups	 xmm0, XMMWORD PTR [eax]
  00009	0f 11 05 00 00
	00 00		 movups	 XMMWORD PTR ?g_rcBrowser@@3UtagRECT@@A, xmm0

; 63   : }

  00010	5d		 pop	 ebp
  00011	c2 04 00	 ret	 4
?MoveWebBrowserRect@CGraphicDevice@@QAEXABUtagRECT@@@Z ENDP ; CGraphicDevice::MoveWebBrowserRect
_TEXT	ENDS
; Function compile flags: /Ogtp
; File C:\Users\flourine\Desktop\Xantios\client-src\Code\EterLib\GrpDevice.cpp
;	COMDAT ?DisableWebBrowserMode@CGraphicDevice@@QAEXXZ
_TEXT	SEGMENT
?DisableWebBrowserMode@CGraphicDevice@@QAEXXZ PROC	; CGraphicDevice::DisableWebBrowserMode, COMDAT
; _this$ = ecx

; 100  : 	if (!ms_lpd3dDevice)

  00000	8b 0d 00 00 00
	00		 mov	 ecx, DWORD PTR ?ms_lpd3dDevice@CGraphicBase@@1PAUIDirect3DDevice9@@A ; CGraphicBase::ms_lpd3dDevice
  00006	85 c9		 test	 ecx, ecx
  00008	74 5b		 je	 SHORT $LN1@DisableWeb

; 101  : 	{
; 102  : 		return;
; 103  : 	}
; 104  : 
; 105  : 	D3DPRESENT_PARAMETERS& rkD3DPP = ms_d3dPresentParameter;
; 106  : 
; 107  : 	g_isBrowserMode = false;
; 108  : 
; 109  : 	rkD3DPP = g_kD3DPP;

  0000a	0f 10 05 00 00
	00 00		 movups	 xmm0, XMMWORD PTR ?g_kD3DPP@@3U_D3DPRESENT_PARAMETERS_@@A
  00011	c6 05 00 00 00
	00 00		 mov	 BYTE PTR ?g_isBrowserMode@@3_NA, 0 ; g_isBrowserMode

; 110  : 
; 111  : 	IDirect3DDevice9& rkD3DDev = *ms_lpd3dDevice;
; 112  : 	HRESULT hr = rkD3DDev.Reset(&rkD3DPP);

  00018	68 00 00 00 00	 push	 OFFSET ?ms_d3dPresentParameter@CGraphicBase@@1U_D3DPRESENT_PARAMETERS_@@A ; CGraphicBase::ms_d3dPresentParameter
  0001d	0f 11 05 00 00
	00 00		 movups	 XMMWORD PTR ?ms_d3dPresentParameter@CGraphicBase@@1U_D3DPRESENT_PARAMETERS_@@A, xmm0
  00024	51		 push	 ecx
  00025	0f 10 05 10 00
	00 00		 movups	 xmm0, XMMWORD PTR ?g_kD3DPP@@3U_D3DPRESENT_PARAMETERS_@@A+16
  0002c	0f 11 05 10 00
	00 00		 movups	 XMMWORD PTR ?ms_d3dPresentParameter@CGraphicBase@@1U_D3DPRESENT_PARAMETERS_@@A+16, xmm0
  00033	0f 10 05 20 00
	00 00		 movups	 xmm0, XMMWORD PTR ?g_kD3DPP@@3U_D3DPRESENT_PARAMETERS_@@A+32
  0003a	0f 11 05 20 00
	00 00		 movups	 XMMWORD PTR ?ms_d3dPresentParameter@CGraphicBase@@1U_D3DPRESENT_PARAMETERS_@@A+32, xmm0
  00041	f3 0f 7e 05 30
	00 00 00	 movq	 xmm0, QWORD PTR ?g_kD3DPP@@3U_D3DPRESENT_PARAMETERS_@@A+48
  00049	66 0f d6 05 30
	00 00 00	 movq	 QWORD PTR ?ms_d3dPresentParameter@CGraphicBase@@1U_D3DPRESENT_PARAMETERS_@@A+48, xmm0
  00051	8b 01		 mov	 eax, DWORD PTR [ecx]
  00053	ff 50 40	 call	 DWORD PTR [eax+64]

; 113  : 	if (FAILED(hr))

  00056	85 c0		 test	 eax, eax
  00058	78 0b		 js	 SHORT $LN1@DisableWeb

; 114  : 	{
; 115  : 		return;
; 116  : 	}
; 117  : 
; 118  : 	STATEMANAGER.SetDefaultState();

  0005a	8b 0d 00 00 00
	00		 mov	 ecx, DWORD PTR ?ms_singleton@?$CSingleton@VCStateManager@@@@0PAVCStateManager@@A ; CSingleton<CStateManager>::ms_singleton
  00060	e9 00 00 00 00	 jmp	 ?SetDefaultState@CStateManager@@QAEXXZ ; CStateManager::SetDefaultState
$LN1@DisableWeb:

; 119  : }

  00065	c3		 ret	 0
?DisableWebBrowserMode@CGraphicDevice@@QAEXXZ ENDP	; CGraphicDevice::DisableWebBrowserMode
_TEXT	ENDS
; Function compile flags: /Ogtp
; File C:\Users\flourine\Desktop\Xantios\client-src\Code\EterLib\GrpDevice.cpp
;	COMDAT ?EnableWebBrowserMode@CGraphicDevice@@QAEXABUtagRECT@@@Z
_TEXT	SEGMENT
_c_rcWebPage$ = 8					; size = 4
?EnableWebBrowserMode@CGraphicDevice@@QAEXABUtagRECT@@@Z PROC ; CGraphicDevice::EnableWebBrowserMode, COMDAT
; _this$ = ecx

; 66   : {

  00000	55		 push	 ebp
  00001	8b ec		 mov	 ebp, esp

; 67   : 	if (!ms_lpd3dDevice)

  00003	8b 0d 00 00 00
	00		 mov	 ecx, DWORD PTR ?ms_lpd3dDevice@CGraphicBase@@1PAUIDirect3DDevice9@@A ; CGraphicBase::ms_lpd3dDevice
  00009	85 c9		 test	 ecx, ecx
  0000b	0f 84 8f 00 00
	00		 je	 $LN1@EnableWebB

; 68   : 	{
; 69   : 		return;
; 70   : 	}
; 71   : 
; 72   : 	D3DPRESENT_PARAMETERS& rkD3DPP = ms_d3dPresentParameter;
; 73   : 
; 74   : 	g_isBrowserMode = true;
; 75   : 
; 76   : 	if (D3DSWAPEFFECT_COPY == rkD3DPP.SwapEffect)

  00011	83 3d 18 00 00
	00 03		 cmp	 DWORD PTR ?ms_d3dPresentParameter@CGraphicBase@@1U_D3DPRESENT_PARAMETERS_@@A+24, 3
  00018	c6 05 00 00 00
	00 01		 mov	 BYTE PTR ?g_isBrowserMode@@3_NA, 1 ; g_isBrowserMode
  0001f	74 7f		 je	 SHORT $LN1@EnableWebB

; 77   : 	{
; 78   : 		return;
; 79   : 	}
; 80   : 
; 81   : 	g_kD3DPP = rkD3DPP;

  00021	0f 10 05 00 00
	00 00		 movups	 xmm0, XMMWORD PTR ?ms_d3dPresentParameter@CGraphicBase@@1U_D3DPRESENT_PARAMETERS_@@A

; 82   : 	g_rcBrowser = c_rcWebPage;

  00028	8b 45 08	 mov	 eax, DWORD PTR _c_rcWebPage$[ebp]

; 83   : 
; 84   : 	rkD3DPP.SwapEffect = D3DSWAPEFFECT_DISCARD;
; 85   : 	rkD3DPP.BackBufferCount = 0;
; 86   : 	rkD3DPP.PresentationInterval = D3DPRESENT_INTERVAL_IMMEDIATE;
; 87   : 	IDirect3DDevice9& rkD3DDev = *ms_lpd3dDevice;
; 88   : 
; 89   : 	HRESULT hr = rkD3DDev.Reset(&rkD3DPP);

  0002b	68 00 00 00 00	 push	 OFFSET ?ms_d3dPresentParameter@CGraphicBase@@1U_D3DPRESENT_PARAMETERS_@@A ; CGraphicBase::ms_d3dPresentParameter
  00030	0f 11 05 00 00
	00 00		 movups	 XMMWORD PTR ?g_kD3DPP@@3U_D3DPRESENT_PARAMETERS_@@A, xmm0
  00037	51		 push	 ecx
  00038	0f 10 05 10 00
	00 00		 movups	 xmm0, XMMWORD PTR ?ms_d3dPresentParameter@CGraphicBase@@1U_D3DPRESENT_PARAMETERS_@@A+16
  0003f	0f 11 05 10 00
	00 00		 movups	 XMMWORD PTR ?g_kD3DPP@@3U_D3DPRESENT_PARAMETERS_@@A+16, xmm0
  00046	0f 10 05 20 00
	00 00		 movups	 xmm0, XMMWORD PTR ?ms_d3dPresentParameter@CGraphicBase@@1U_D3DPRESENT_PARAMETERS_@@A+32
  0004d	0f 11 05 20 00
	00 00		 movups	 XMMWORD PTR ?g_kD3DPP@@3U_D3DPRESENT_PARAMETERS_@@A+32, xmm0
  00054	f3 0f 7e 05 30
	00 00 00	 movq	 xmm0, QWORD PTR ?ms_d3dPresentParameter@CGraphicBase@@1U_D3DPRESENT_PARAMETERS_@@A+48
  0005c	66 0f d6 05 30
	00 00 00	 movq	 QWORD PTR ?g_kD3DPP@@3U_D3DPRESENT_PARAMETERS_@@A+48, xmm0
  00064	0f 10 00	 movups	 xmm0, XMMWORD PTR [eax]
  00067	c7 05 18 00 00
	00 01 00 00 00	 mov	 DWORD PTR ?ms_d3dPresentParameter@CGraphicBase@@1U_D3DPRESENT_PARAMETERS_@@A+24, 1
  00071	c7 05 0c 00 00
	00 00 00 00 00	 mov	 DWORD PTR ?ms_d3dPresentParameter@CGraphicBase@@1U_D3DPRESENT_PARAMETERS_@@A+12, 0
  0007b	0f 11 05 00 00
	00 00		 movups	 XMMWORD PTR ?g_rcBrowser@@3UtagRECT@@A, xmm0
  00082	c7 05 34 00 00
	00 00 00 00 80	 mov	 DWORD PTR ?ms_d3dPresentParameter@CGraphicBase@@1U_D3DPRESENT_PARAMETERS_@@A+52, -2147483648 ; 80000000H
  0008c	8b 01		 mov	 eax, DWORD PTR [ecx]
  0008e	ff 50 40	 call	 DWORD PTR [eax+64]

; 90   : 	if (FAILED(hr))

  00091	85 c0		 test	 eax, eax
  00093	78 0b		 js	 SHORT $LN1@EnableWebB

; 91   : 	{
; 92   : 		return;
; 93   : 	}
; 94   : 
; 95   : 	STATEMANAGER.SetDefaultState();

  00095	8b 0d 00 00 00
	00		 mov	 ecx, DWORD PTR ?ms_singleton@?$CSingleton@VCStateManager@@@@0PAVCStateManager@@A ; CSingleton<CStateManager>::ms_singleton
  0009b	e8 00 00 00 00	 call	 ?SetDefaultState@CStateManager@@QAEXXZ ; CStateManager::SetDefaultState
$LN1@EnableWebB:

; 96   : }

  000a0	5d		 pop	 ebp
  000a1	c2 04 00	 ret	 4
?EnableWebBrowserMode@CGraphicDevice@@QAEXABUtagRECT@@@Z ENDP ; CGraphicDevice::EnableWebBrowserMode
_TEXT	ENDS
; Function compile flags: /Ogtp
; File C:\Users\flourine\Desktop\Xantios\client-src\Code\EterLib\GrpDevice.cpp
;	COMDAT ?Reset@CGraphicDevice@@QAE_NXZ
_TEXT	SEGMENT
?Reset@CGraphicDevice@@QAE_NXZ PROC			; CGraphicDevice::Reset, COMDAT
; _this$ = ecx

; 265  : {

  00000	56		 push	 esi
  00001	8b f1		 mov	 esi, ecx

; 266  : #ifdef ENABLE_FIX_MOBS_LAG
; 267  : 	__DestroyPDTVertexBufferList();

  00003	e8 00 00 00 00	 call	 ?__DestroyPDTVertexBufferList@CGraphicDevice@@IAEXXZ ; CGraphicDevice::__DestroyPDTVertexBufferList

; 268  : #endif
; 269  : 
; 270  : 	HRESULT hr;
; 271  : 
; 272  : 	if (FAILED(hr = ms_lpd3dDevice->Reset(&ms_d3dPresentParameter)))

  00008	8b 15 00 00 00
	00		 mov	 edx, DWORD PTR ?ms_lpd3dDevice@CGraphicBase@@1PAUIDirect3DDevice9@@A ; CGraphicBase::ms_lpd3dDevice
  0000e	68 00 00 00 00	 push	 OFFSET ?ms_d3dPresentParameter@CGraphicBase@@1U_D3DPRESENT_PARAMETERS_@@A ; CGraphicBase::ms_d3dPresentParameter
  00013	52		 push	 edx
  00014	8b 02		 mov	 eax, DWORD PTR [edx]
  00016	ff 50 40	 call	 DWORD PTR [eax+64]
  00019	85 c0		 test	 eax, eax
  0001b	79 11		 jns	 SHORT $LN2@Reset

; 273  : 	{
; 274  : #ifdef ENABLE_FIX_MOBS_LAG
; 275  : 		TraceError("Failed to reset device");

  0001d	68 00 00 00 00	 push	 OFFSET ??_C@_0BH@HJNPBJOM@Failed?5to?5reset?5device@
  00022	e8 00 00 00 00	 call	 ?TraceError@@YAXPBDZZ	; TraceError
  00027	83 c4 04	 add	 esp, 4

; 276  : #endif
; 277  : 		return false;

  0002a	32 c0		 xor	 al, al
  0002c	5e		 pop	 esi

; 285  : }

  0002d	c3		 ret	 0
$LN2@Reset:

; 278  : 	}
; 279  : 
; 280  : #ifdef ENABLE_FIX_MOBS_LAG
; 281  : 	m_pStateManager->SetDefaultState();

  0002e	8b 4e 10	 mov	 ecx, DWORD PTR [esi+16]
  00031	e8 00 00 00 00	 call	 ?SetDefaultState@CStateManager@@QAEXXZ ; CStateManager::SetDefaultState

; 282  : 	__CreatePDTVertexBufferList();

  00036	8b ce		 mov	 ecx, esi
  00038	e8 00 00 00 00	 call	 ?__CreatePDTVertexBufferList@CGraphicDevice@@IAE_NXZ ; CGraphicDevice::__CreatePDTVertexBufferList

; 283  : #endif
; 284  : 	return true;

  0003d	b0 01		 mov	 al, 1
  0003f	5e		 pop	 esi

; 285  : }

  00040	c3		 ret	 0
?Reset@CGraphicDevice@@QAE_NXZ ENDP			; CGraphicDevice::Reset
_TEXT	ENDS
; Function compile flags: /Ogtp
; File C:\Users\flourine\Desktop\Xantios\client-src\Code\EterLib\GrpDevice.cpp
;	COMDAT ?GetDeviceState@CGraphicDevice@@QAE?AW4EDeviceState@1@XZ
_TEXT	SEGMENT
?GetDeviceState@CGraphicDevice@@QAE?AW4EDeviceState@1@XZ PROC ; CGraphicDevice::GetDeviceState, COMDAT
; _this$ = ecx

; 239  : 	if (!ms_lpd3dDevice)

  00000	8b 0d 00 00 00
	00		 mov	 ecx, DWORD PTR ?ms_lpd3dDevice@CGraphicBase@@1PAUIDirect3DDevice9@@A ; CGraphicBase::ms_lpd3dDevice
  00006	85 c9		 test	 ecx, ecx
  00008	75 04		 jne	 SHORT $LN2@GetDeviceS

; 240  : 	{
; 241  : 		return DEVICESTATE_NULL;

  0000a	8d 41 03	 lea	 eax, DWORD PTR [ecx+3]

; 262  : }

  0000d	c3		 ret	 0
$LN2@GetDeviceS:

; 242  : 	}
; 243  : 
; 244  : 	HRESULT hr;
; 245  : 
; 246  : 	if (FAILED(hr = ms_lpd3dDevice->TestCooperativeLevel()))

  0000e	8b 01		 mov	 eax, DWORD PTR [ecx]
  00010	51		 push	 ecx
  00011	ff 50 0c	 call	 DWORD PTR [eax+12]
  00014	8b c8		 mov	 ecx, eax
  00016	85 c9		 test	 ecx, ecx
  00018	79 1b		 jns	 SHORT $LN3@GetDeviceS

; 247  : 	{
; 248  : 		if (D3DERR_DEVICELOST == hr)

  0001a	81 f9 68 08 76
	88		 cmp	 ecx, -2005530520	; 88760868H
  00020	74 0d		 je	 SHORT $LN5@GetDeviceS

; 249  : 		{
; 250  : 			return DEVICESTATE_BROKEN;
; 251  : 		}
; 252  : 
; 253  : 		if (D3DERR_DEVICENOTRESET == hr)

  00022	33 c0		 xor	 eax, eax
  00024	81 f9 69 08 76
	88		 cmp	 ecx, -2005530519	; 88760869H
  0002a	0f 94 c0	 sete	 al
  0002d	40		 inc	 eax

; 262  : }

  0002e	c3		 ret	 0
$LN5@GetDeviceS:

; 254  : 		{
; 255  : 			return DEVICESTATE_NEEDS_RESET;
; 256  : 		}
; 257  : 
; 258  : 		return DEVICESTATE_BROKEN;

  0002f	b8 01 00 00 00	 mov	 eax, 1

; 262  : }

  00034	c3		 ret	 0
$LN3@GetDeviceS:

; 259  : 	}
; 260  : 
; 261  : 	return DEVICESTATE_OK;

  00035	33 c0		 xor	 eax, eax

; 262  : }

  00037	c3		 ret	 0
?GetDeviceState@CGraphicDevice@@QAE?AW4EDeviceState@1@XZ ENDP ; CGraphicDevice::GetDeviceState
_TEXT	ENDS
; Function compile flags: /Ogtp
; File C:\Users\flourine\Desktop\Xantios\client-src\Code\EterLib\GrpDevice.cpp
; File C:\Program Files\Microsoft Visual Studio\2022\Community\VC\Tools\MSVC\14.34.31933\include\xstring
; File C:\Users\flourine\Desktop\Xantios\client-src\Code\EterLib\GrpDevice.cpp
; File C:\Program Files\Microsoft Visual Studio\2022\Community\VC\Tools\MSVC\14.34.31933\include\xmemory
; File C:\Program Files\Microsoft Visual Studio\2022\Community\VC\Tools\MSVC\14.34.31933\include\xstring
; File C:\Program Files\Microsoft Visual Studio\2022\Community\VC\Tools\MSVC\14.34.31933\include\xmemory
; File C:\Program Files\Microsoft Visual Studio\2022\Community\VC\Tools\MSVC\14.34.31933\include\xstring
; File C:\Users\flourine\Desktop\Xantios\client-src\Code\EterLib\GrpDevice.cpp
; File C:\Users\flourine\Desktop\Xantios\client-src\extern\include\directX\d3dx9math.inl
; File C:\Users\flourine\Desktop\Xantios\client-src\Code\EterLib\GrpDevice.cpp
; File C:\Users\flourine\Desktop\Xantios\client-src\extern\include\directX\d3dx9math.inl
; File C:\Users\flourine\Desktop\Xantios\client-src\Code\EterLib\GrpDevice.cpp
; File C:\Users\flourine\Desktop\Xantios\client-src\extern\include\directX\d3dx9math.inl
; File C:\Users\flourine\Desktop\Xantios\client-src\Code\EterLib\GrpDevice.cpp
; File C:\Users\flourine\Desktop\Xantios\client-src\extern\include\directX\d3dx9math.inl
; File C:\Users\flourine\Desktop\Xantios\client-src\Code\EterLib\GrpDevice.cpp
; File C:\Program Files\Microsoft Visual Studio\2022\Community\VC\Tools\MSVC\14.34.31933\include\xstring
; File C:\Program Files\Microsoft Visual Studio\2022\Community\VC\Tools\MSVC\14.34.31933\include\xmemory
; File C:\Program Files\Microsoft Visual Studio\2022\Community\VC\Tools\MSVC\14.34.31933\include\xstring
; File C:\Program Files\Microsoft Visual Studio\2022\Community\VC\Tools\MSVC\14.34.31933\include\xmemory
; File C:\Program Files\Microsoft Visual Studio\2022\Community\VC\Tools\MSVC\14.34.31933\include\xstring
; File C:\Program Files\Microsoft Visual Studio\2022\Community\VC\Tools\MSVC\14.34.31933\include\xmemory
; File C:\Program Files\Microsoft Visual Studio\2022\Community\VC\Tools\MSVC\14.34.31933\include\xstring
; File C:\Program Files\Microsoft Visual Studio\2022\Community\VC\Tools\MSVC\14.34.31933\include\xmemory
; File C:\Users\flourine\Desktop\Xantios\client-src\Code\EterLib\GrpDevice.cpp
; File C:\Program Files\Microsoft Visual Studio\2022\Community\VC\Tools\MSVC\14.34.31933\include\xmemory
; File C:\Users\flourine\Desktop\Xantios\client-src\Code\EterLib\GrpDevice.cpp
;	COMDAT ?Create@CGraphicDevice@@QAEHPAUHWND__@@HH_NHH@Z
_TEXT	SEGMENT
tv2806 = -84						; size = 4
$T2 = -84						; size = 4
_pkD3DAdapterInfo$1$ = -80				; size = 4
_hWnd$GSCopy$1$ = -76					; size = 4
_this$GSCopy$1$ = -72					; size = 4
_ErrorCorrection$1$ = -68				; size = 4
_iRet$1$ = -68						; size = 4
_stDevList$ = -64					; size = 24
_stModeInfo$ = -40					; size = 24
__$ArrayPad$ = -16					; size = 4
__$EHRec$ = -12						; size = 12
_hWnd$ = 8						; size = 4
_iHres$ = 12						; size = 4
_iVres$ = 16						; size = 4
_Windowed$ = 20						; size = 1
___formal$ = 24						; size = 4
_iReflashRate$ = 28					; size = 4
?Create@CGraphicDevice@@QAEHPAUHWND__@@HH_NHH@Z PROC	; CGraphicDevice::Create, COMDAT
; _this$ = ecx

; 396  : {

  00000	55		 push	 ebp
  00001	8b ec		 mov	 ebp, esp
  00003	6a ff		 push	 -1
  00005	68 00 00 00 00	 push	 __ehhandler$?Create@CGraphicDevice@@QAEHPAUHWND__@@HH_NHH@Z
  0000a	64 a1 00 00 00
	00		 mov	 eax, DWORD PTR fs:0
  00010	50		 push	 eax
  00011	83 ec 48	 sub	 esp, 72			; 00000048H
  00014	a1 00 00 00 00	 mov	 eax, DWORD PTR ___security_cookie
  00019	33 c5		 xor	 eax, ebp
  0001b	89 45 f0	 mov	 DWORD PTR __$ArrayPad$[ebp], eax
  0001e	56		 push	 esi
  0001f	57		 push	 edi
  00020	50		 push	 eax
  00021	8d 45 f4	 lea	 eax, DWORD PTR __$EHRec$[ebp]
  00024	64 a3 00 00 00
	00		 mov	 DWORD PTR fs:0, eax
  0002a	8b c1		 mov	 eax, ecx
  0002c	89 45 b8	 mov	 DWORD PTR _this$GSCopy$1$[ebp], eax
  0002f	8b 7d 08	 mov	 edi, DWORD PTR _hWnd$[ebp]
  00032	89 7d b4	 mov	 DWORD PTR _hWnd$GSCopy$1$[ebp], edi

; 397  : 	int iRet = CREATE_OK;

  00035	c7 45 bc 01 00
	00 00		 mov	 DWORD PTR _iRet$1$[ebp], 1

; 398  : 
; 399  : 	Destroy();

  0003c	e8 00 00 00 00	 call	 ?Destroy@CGraphicDevice@@QAEXXZ ; CGraphicDevice::Destroy

; 400  : 
; 401  : 	ms_iWidth	= iHres;

  00041	8b 45 0c	 mov	 eax, DWORD PTR _iHres$[ebp]
  00044	a3 00 00 00 00	 mov	 DWORD PTR ?ms_iWidth@CGraphicBase@@1HA, eax ; CGraphicBase::ms_iWidth

; 402  : 	ms_iHeight	= iVres;

  00049	8b 45 10	 mov	 eax, DWORD PTR _iVres$[ebp]

; 403  : 
; 404  : 	ms_hWnd		= hWnd;
; 405  : 	ms_hDC		= GetDC(hWnd);

  0004c	57		 push	 edi
  0004d	a3 00 00 00 00	 mov	 DWORD PTR ?ms_iHeight@CGraphicBase@@1HA, eax ; CGraphicBase::ms_iHeight
  00052	89 3d 00 00 00
	00		 mov	 DWORD PTR ?ms_hWnd@CGraphicBase@@1PAUHWND__@@A, edi ; CGraphicBase::ms_hWnd
  00058	ff 15 00 00 00
	00		 call	 DWORD PTR __imp__GetDC@4

; 406  : 	ms_lpd3d	= Direct3DCreate9(D3D_SDK_VERSION);

  0005e	6a 20		 push	 32			; 00000020H
  00060	a3 00 00 00 00	 mov	 DWORD PTR ?ms_hDC@CGraphicBase@@1PAUHDC__@@A, eax ; CGraphicBase::ms_hDC
  00065	e8 00 00 00 00	 call	 _Direct3DCreate9@4
  0006a	a3 00 00 00 00	 mov	 DWORD PTR ?ms_lpd3d@CGraphicBase@@1PAUIDirect3D9@@A, eax ; CGraphicBase::ms_lpd3d

; 407  : 
; 408  : 	if (!ms_lpd3d)

  0006f	85 c0		 test	 eax, eax
  00071	75 0a		 jne	 SHORT $LN4@Create

; 409  : 	{
; 410  : 		return CREATE_NO_DIRECTX;

  00073	b8 02 00 00 00	 mov	 eax, 2
  00078	e9 fd 0a 00 00	 jmp	 $LN1@Create
$LN4@Create:

; 411  : 	}
; 412  : 
; 413  : 	if (!ms_kD3DDetector.Build(*ms_lpd3d, EL3D_ConfirmDevice))

  0007d	68 00 00 00 00	 push	 OFFSET ?EL3D_ConfirmDevice@@YAHAAU_D3DCAPS9@@IW4_D3DFORMAT@@@Z ; EL3D_ConfirmDevice
  00082	50		 push	 eax
  00083	b9 00 00 00 00	 mov	 ecx, OFFSET ?ms_kD3DDetector@CGraphicBase@@1VD3D_CDisplayModeAutoDetector@@A ; CGraphicBase::ms_kD3DDetector
  00088	e8 00 00 00 00	 call	 ?Build@D3D_CDisplayModeAutoDetector@@QAEHAAUIDirect3D9@@P6AHAAU_D3DCAPS9@@IW4_D3DFORMAT@@@Z@Z ; D3D_CDisplayModeAutoDetector::Build
  0008d	85 c0		 test	 eax, eax
  0008f	75 0a		 jne	 SHORT $LN5@Create

; 414  : 	{
; 415  : 		return CREATE_ENUM;

  00091	b8 40 00 00 00	 mov	 eax, 64			; 00000040H
  00096	e9 df 0a 00 00	 jmp	 $LN1@Create
$LN5@Create:

; 416  : 	}
; 417  : 
; 418  : 	if (!ms_kD3DDetector.Find(800, 600, 32, TRUE, &ms_iD3DModeInfo, &ms_iD3DDevInfo, &ms_iD3DAdapterInfo))

  0009b	68 00 00 00 00	 push	 OFFSET ?ms_iD3DAdapterInfo@CGraphicBase@@1IA ; CGraphicBase::ms_iD3DAdapterInfo
  000a0	68 00 00 00 00	 push	 OFFSET ?ms_iD3DDevInfo@CGraphicBase@@1IA ; CGraphicBase::ms_iD3DDevInfo
  000a5	68 00 00 00 00	 push	 OFFSET ?ms_iD3DModeInfo@CGraphicBase@@1IA ; CGraphicBase::ms_iD3DModeInfo
  000aa	6a 01		 push	 1
  000ac	6a 20		 push	 32			; 00000020H
  000ae	68 58 02 00 00	 push	 600			; 00000258H
  000b3	68 20 03 00 00	 push	 800			; 00000320H
  000b8	b9 00 00 00 00	 mov	 ecx, OFFSET ?ms_kD3DDetector@CGraphicBase@@1VD3D_CDisplayModeAutoDetector@@A ; CGraphicBase::ms_kD3DDetector
  000bd	e8 00 00 00 00	 call	 ?Find@D3D_CDisplayModeAutoDetector@@QAEHIIIHPAI00@Z ; D3D_CDisplayModeAutoDetector::Find
  000c2	85 c0		 test	 eax, eax
  000c4	75 0a		 jne	 SHORT $LN6@Create

; 419  : 	{
; 420  : 		return CREATE_DETECT;

  000c6	b8 80 00 00 00	 mov	 eax, 128		; 00000080H
  000cb	e9 aa 0a 00 00	 jmp	 $LN1@Create
$LN6@Create:
  000d0	0f 57 c0	 xorps	 xmm0, xmm0
; File C:\Program Files\Microsoft Visual Studio\2022\Community\VC\Tools\MSVC\14.34.31933\include\xstring

; 4998 :         _My_data._Mysize = 0;

  000d3	c7 45 d0 00 00
	00 00		 mov	 DWORD PTR _stDevList$[ebp+16], 0

; 2341 :         _CONSTEXPR20 _Bxty() noexcept : _Buf() {} // user-provided, for fancy pointers

  000da	0f 11 45 c0	 movups	 XMMWORD PTR _stDevList$[ebp], xmm0

; 4999 :         _My_data._Myres  = _BUF_SIZE - 1;

  000de	c7 45 d4 0f 00
	00 00		 mov	 DWORD PTR _stDevList$[ebp+20], 15 ; 0000000fH

; 5000 :         _My_data._Activate_SSO_buffer();
; 5001 : 
; 5002 :         // the _Traits::assign is last so the codegen doesn't think the char write can alias this
; 5003 :         _Traits::assign(_My_data._Bx._Buf[0], _Elem());

  000e5	c6 45 c0 00	 mov	 BYTE PTR _stDevList$[ebp], 0
; File C:\Users\flourine\Desktop\Xantios\client-src\Code\EterLib\GrpDevice.cpp

; 424  : 	ms_kD3DDetector.GetString(&stDevList);

  000e9	8d 45 c0	 lea	 eax, DWORD PTR _stDevList$[ebp]
  000ec	c7 45 fc 00 00
	00 00		 mov	 DWORD PTR __$EHRec$[ebp+8], 0
  000f3	50		 push	 eax
  000f4	b9 00 00 00 00	 mov	 ecx, OFFSET ?ms_kD3DDetector@CGraphicBase@@1VD3D_CDisplayModeAutoDetector@@A ; CGraphicBase::ms_kD3DDetector
  000f9	e8 00 00 00 00	 call	 ?GetString@D3D_CDisplayModeAutoDetector@@QAEXPAV?$basic_string@DU?$char_traits@D@std@@V?$allocator@D@2@@std@@@Z ; D3D_CDisplayModeAutoDetector::GetString

; 425  : 
; 426  : 	//Tracen(stDevList.c_str());
; 427  : 	//Tracenf("adapter %d, device %d, mode %d", ms_iD3DAdapterInfo, ms_iD3DDevInfo, ms_iD3DModeInfo);
; 428  : 
; 429  : 	D3D_CAdapterInfo * pkD3DAdapterInfo = ms_kD3DDetector.GetD3DAdapterInfop(ms_iD3DAdapterInfo);

  000fe	ff 35 00 00 00
	00		 push	 DWORD PTR ?ms_iD3DAdapterInfo@CGraphicBase@@1IA ; CGraphicBase::ms_iD3DAdapterInfo
  00104	b9 00 00 00 00	 mov	 ecx, OFFSET ?ms_kD3DDetector@CGraphicBase@@1VD3D_CDisplayModeAutoDetector@@A ; CGraphicBase::ms_kD3DDetector
  00109	e8 00 00 00 00	 call	 ?GetD3DAdapterInfop@D3D_CDisplayModeAutoDetector@@QAEPAVD3D_CAdapterInfo@@I@Z ; D3D_CDisplayModeAutoDetector::GetD3DAdapterInfop
  0010e	8b f0		 mov	 esi, eax
  00110	89 75 b0	 mov	 DWORD PTR _pkD3DAdapterInfo$1$[ebp], esi

; 430  : 	if (!pkD3DAdapterInfo)

  00113	85 f6		 test	 esi, esi
  00115	75 1d		 jne	 SHORT $LN7@Create

; 431  : 	{
; 432  : 		Tracenf("adapter %d is EMPTY", ms_iD3DAdapterInfo);

  00117	ff 35 00 00 00
	00		 push	 DWORD PTR ?ms_iD3DAdapterInfo@CGraphicBase@@1IA ; CGraphicBase::ms_iD3DAdapterInfo
  0011d	68 00 00 00 00	 push	 OFFSET ??_C@_0BE@JAEGAKLI@adapter?5?$CFd?5is?5EMPTY@
  00122	e8 00 00 00 00	 call	 ?Tracenf@@YAXPBDZZ	; Tracenf
  00127	83 c4 08	 add	 esp, 8
  0012a	be 80 00 00 00	 mov	 esi, 128		; 00000080H
  0012f	e9 14 0a 00 00	 jmp	 $LN108@Create
$LN7@Create:

; 433  : 		return CREATE_DETECT;
; 434  : 	}
; 435  : 
; 436  : 	if (__IsInDriverBlackList(*pkD3DAdapterInfo))

  00134	8b 4d b8	 mov	 ecx, DWORD PTR _this$GSCopy$1$[ebp]
  00137	56		 push	 esi
  00138	e8 00 00 00 00	 call	 ?__IsInDriverBlackList@CGraphicDevice@@IAE_NAAVD3D_CAdapterInfo@@@Z ; CGraphicDevice::__IsInDriverBlackList
  0013d	84 c0		 test	 al, al
  0013f	74 16		 je	 SHORT $LN8@Create

; 437  : 	{
; 438  : 		iRet |= CREATE_BAD_DRIVER;

  00141	b9 01 02 00 00	 mov	 ecx, 513		; 00000201H

; 439  : 		__WarningMessage(hWnd, CREATE_BAD_DRIVER);

  00146	68 00 02 00 00	 push	 512			; 00000200H
  0014b	89 4d bc	 mov	 DWORD PTR _iRet$1$[ebp], ecx
  0014e	8b 4d b8	 mov	 ecx, DWORD PTR _this$GSCopy$1$[ebp]
  00151	57		 push	 edi
  00152	e8 00 00 00 00	 call	 ?__WarningMessage@CGraphicDevice@@IAEXPAUHWND__@@I@Z ; CGraphicDevice::__WarningMessage
$LN8@Create:

; 440  : 	}
; 441  : 
; 442  : 	D3D_SModeInfo * pkD3DModeInfo = pkD3DAdapterInfo->GetD3DModeInfop(ms_iD3DDevInfo, ms_iD3DModeInfo);

  00157	ff 35 00 00 00
	00		 push	 DWORD PTR ?ms_iD3DModeInfo@CGraphicBase@@1IA ; CGraphicBase::ms_iD3DModeInfo
  0015d	8b ce		 mov	 ecx, esi
  0015f	ff 35 00 00 00
	00		 push	 DWORD PTR ?ms_iD3DDevInfo@CGraphicBase@@1IA ; CGraphicBase::ms_iD3DDevInfo
  00165	e8 00 00 00 00	 call	 ?GetD3DModeInfop@D3D_CAdapterInfo@@QAEPAUD3D_SModeInfo@@II@Z ; D3D_CAdapterInfo::GetD3DModeInfop
  0016a	8b f8		 mov	 edi, eax

; 443  : 	if (!pkD3DModeInfo)

  0016c	85 ff		 test	 edi, edi
  0016e	75 23		 jne	 SHORT $LN9@Create

; 444  : 	{
; 445  : 		Tracenf("device %d, mode %d is EMPTY", ms_iD3DDevInfo, ms_iD3DModeInfo);

  00170	ff 35 00 00 00
	00		 push	 DWORD PTR ?ms_iD3DModeInfo@CGraphicBase@@1IA ; CGraphicBase::ms_iD3DModeInfo
  00176	ff 35 00 00 00
	00		 push	 DWORD PTR ?ms_iD3DDevInfo@CGraphicBase@@1IA ; CGraphicBase::ms_iD3DDevInfo
  0017c	68 00 00 00 00	 push	 OFFSET ??_C@_0BM@LIHILKDJ@device?5?$CFd?0?5mode?5?$CFd?5is?5EMPTY@
  00181	e8 00 00 00 00	 call	 ?Tracenf@@YAXPBDZZ	; Tracenf
  00186	83 c4 0c	 add	 esp, 12			; 0000000cH
  00189	be 80 00 00 00	 mov	 esi, 128		; 00000080H
  0018e	e9 b5 09 00 00	 jmp	 $LN108@Create
$LN9@Create:

; 446  : 		return CREATE_DETECT;
; 447  : 	}
; 448  : 
; 449  : 	D3DADAPTER_IDENTIFIER9& rkD3DAdapterId = pkD3DAdapterInfo->GetIdentifier();
; 450  : 	if (Windowed &&
; 451  : 			strnicmp(rkD3DAdapterId.Driver, "3dfx", 4) == 0 &&

  00193	80 7d 14 00	 cmp	 BYTE PTR _Windowed$[ebp], 0
  00197	74 2b		 je	 SHORT $LN10@Create
  00199	6a 04		 push	 4
  0019b	68 00 00 00 00	 push	 OFFSET ??_C@_04MAKEOOIM@3dfx@
  001a0	56		 push	 esi
  001a1	e8 00 00 00 00	 call	 __strnicmp
  001a6	83 c4 0c	 add	 esp, 12			; 0000000cH
  001a9	85 c0		 test	 eax, eax
  001ab	75 17		 jne	 SHORT $LN10@Create
  001ad	8b ce		 mov	 ecx, esi
  001af	e8 00 00 00 00	 call	 ?GetDesktopD3DDisplayModer@D3D_CAdapterInfo@@QAEAAU_D3DDISPLAYMODE@@XZ ; D3D_CAdapterInfo::GetDesktopD3DDisplayModer
  001b4	83 78 0c 16	 cmp	 DWORD PTR [eax+12], 22	; 00000016H
  001b8	75 0a		 jne	 SHORT $LN10@Create

; 452  : 			22 == pkD3DAdapterInfo->GetDesktopD3DDisplayModer().Format)
; 453  : 	{
; 454  : 		return CREATE_FORMAT;

  001ba	be 00 04 00 00	 mov	 esi, 1024		; 00000400H
  001bf	e9 84 09 00 00	 jmp	 $LN108@Create
$LN10@Create:
; File C:\Program Files\Microsoft Visual Studio\2022\Community\VC\Tools\MSVC\14.34.31933\include\xmemory

; 1376 :         : _Ty1(), _Myval2(_STD forward<_Other2>(_Val2)...) {}

  001c4	8b 75 bc	 mov	 esi, DWORD PTR _iRet$1$[ebp]
  001c7	0f 57 c0	 xorps	 xmm0, xmm0
  001ca	81 ce 00 01 00
	00		 or	 esi, 256		; 00000100H
  001d0	83 7f 0c 20	 cmp	 DWORD PTR [edi+12], 32	; 00000020H
; File C:\Program Files\Microsoft Visual Studio\2022\Community\VC\Tools\MSVC\14.34.31933\include\xstring

; 2341 :         _CONSTEXPR20 _Bxty() noexcept : _Buf() {} // user-provided, for fancy pointers

  001d4	0f 11 45 d8	 movups	 XMMWORD PTR _stModeInfo$[ebp], xmm0
; File C:\Program Files\Microsoft Visual Studio\2022\Community\VC\Tools\MSVC\14.34.31933\include\xmemory

; 1376 :         : _Ty1(), _Myval2(_STD forward<_Other2>(_Val2)...) {}

  001d8	0f 45 75 bc	 cmovne	 esi, DWORD PTR _iRet$1$[ebp]
; File C:\Program Files\Microsoft Visual Studio\2022\Community\VC\Tools\MSVC\14.34.31933\include\xstring

; 4998 :         _My_data._Mysize = 0;

  001dc	c7 45 e8 00 00
	00 00		 mov	 DWORD PTR _stModeInfo$[ebp+16], 0

; 4999 :         _My_data._Myres  = _BUF_SIZE - 1;

  001e3	c7 45 ec 0f 00
	00 00		 mov	 DWORD PTR _stModeInfo$[ebp+20], 15 ; 0000000fH

; 5000 :         _My_data._Activate_SSO_buffer();
; 5001 : 
; 5002 :         // the _Traits::assign is last so the codegen doesn't think the char write can alias this
; 5003 :         _Traits::assign(_My_data._Bx._Buf[0], _Elem());

  001ea	c6 45 d8 00	 mov	 BYTE PTR _stModeInfo$[ebp], 0
; File C:\Users\flourine\Desktop\Xantios\client-src\Code\EterLib\GrpDevice.cpp

; 467  : 	pkD3DModeInfo->GetString(&stModeInfo);

  001ee	8d 45 d8	 lea	 eax, DWORD PTR _stModeInfo$[ebp]
  001f1	c6 45 fc 01	 mov	 BYTE PTR __$EHRec$[ebp+8], 1
  001f5	50		 push	 eax
  001f6	8b cf		 mov	 ecx, edi
  001f8	e8 00 00 00 00	 call	 ?GetString@D3D_SModeInfo@@QAEXPAV?$basic_string@DU?$char_traits@D@std@@V?$allocator@D@2@@std@@@Z ; D3D_SModeInfo::GetString
  001fd	8a 55 14	 mov	 dl, BYTE PTR _Windowed$[ebp]

; 468  : 
; 469  : 	//Tracen(stModeInfo.c_str());
; 470  : 
; 471  : 	int ErrorCorrection = 0;

  00200	8b 4d 1c	 mov	 ecx, DWORD PTR _iReflashRate$[ebp]
  00203	0f b6 c2	 movzx	 eax, dl
  00206	c7 45 bc 00 00
	00 00		 mov	 DWORD PTR _ErrorCorrection$1$[ebp], 0
  0020d	89 45 ac	 mov	 DWORD PTR tv2806[ebp], eax
$RETRY$299:

; 472  : 
; 473  : RETRY:
; 474  : 	ZeroMemory(&ms_d3dPresentParameter, sizeof(ms_d3dPresentParameter));
; 475  : 
; 476  : 	ms_d3dPresentParameter.Windowed							= Windowed;

  00210	a3 20 00 00 00	 mov	 DWORD PTR ?ms_d3dPresentParameter@CGraphicBase@@1U_D3DPRESENT_PARAMETERS_@@A+32, eax
  00215	0f 57 c0	 xorps	 xmm0, xmm0

; 477  : 	ms_d3dPresentParameter.BackBufferWidth					= iHres;

  00218	8b 45 0c	 mov	 eax, DWORD PTR _iHres$[ebp]
  0021b	a3 00 00 00 00	 mov	 DWORD PTR ?ms_d3dPresentParameter@CGraphicBase@@1U_D3DPRESENT_PARAMETERS_@@A, eax

; 478  : 	ms_d3dPresentParameter.BackBufferHeight					= iVres;

  00220	8b 45 10	 mov	 eax, DWORD PTR _iVres$[ebp]
  00223	a3 04 00 00 00	 mov	 DWORD PTR ?ms_d3dPresentParameter@CGraphicBase@@1U_D3DPRESENT_PARAMETERS_@@A+4, eax

; 479  : 	ms_d3dPresentParameter.hDeviceWindow					= hWnd;

  00228	8b 45 b4	 mov	 eax, DWORD PTR _hWnd$GSCopy$1$[ebp]
  0022b	a3 1c 00 00 00	 mov	 DWORD PTR ?ms_d3dPresentParameter@CGraphicBase@@1U_D3DPRESENT_PARAMETERS_@@A+28, eax

; 480  : 	ms_d3dPresentParameter.BackBufferCount					= m_uBackBufferCount;

  00230	8b 45 b8	 mov	 eax, DWORD PTR _this$GSCopy$1$[ebp]
  00233	66 0f 13 05 08
	00 00 00	 movlpd	 QWORD PTR ?ms_d3dPresentParameter@CGraphicBase@@1U_D3DPRESENT_PARAMETERS_@@A+8, xmm0
  0023b	c7 05 18 00 00
	00 00 00 00 00	 mov	 DWORD PTR ?ms_d3dPresentParameter@CGraphicBase@@1U_D3DPRESENT_PARAMETERS_@@A+24, 0
  00245	66 0f 13 05 10
	00 00 00	 movlpd	 QWORD PTR ?ms_d3dPresentParameter@CGraphicBase@@1U_D3DPRESENT_PARAMETERS_@@A+16, xmm0
  0024d	66 0f 13 05 24
	00 00 00	 movlpd	 QWORD PTR ?ms_d3dPresentParameter@CGraphicBase@@1U_D3DPRESENT_PARAMETERS_@@A+36, xmm0
  00255	66 0f 13 05 2c
	00 00 00	 movlpd	 QWORD PTR ?ms_d3dPresentParameter@CGraphicBase@@1U_D3DPRESENT_PARAMETERS_@@A+44, xmm0
  0025d	c7 05 34 00 00
	00 00 00 00 00	 mov	 DWORD PTR ?ms_d3dPresentParameter@CGraphicBase@@1U_D3DPRESENT_PARAMETERS_@@A+52, 0
  00267	8b 40 04	 mov	 eax, DWORD PTR [eax+4]
  0026a	a3 0c 00 00 00	 mov	 DWORD PTR ?ms_d3dPresentParameter@CGraphicBase@@1U_D3DPRESENT_PARAMETERS_@@A+12, eax

; 481  : 	ms_d3dPresentParameter.SwapEffect						= D3DSWAPEFFECT_DISCARD;

  0026f	c7 05 18 00 00
	00 01 00 00 00	 mov	 DWORD PTR ?ms_d3dPresentParameter@CGraphicBase@@1U_D3DPRESENT_PARAMETERS_@@A+24, 1

; 482  : 
; 483  : 	if (Windowed)

  00279	84 d2		 test	 dl, dl
  0027b	74 0d		 je	 SHORT $LN12@Create

; 484  : 	{
; 485  : 		ms_d3dPresentParameter.BackBufferFormat				= pkD3DAdapterInfo->GetDesktopD3DDisplayModer().Format;

  0027d	8b 4d b0	 mov	 ecx, DWORD PTR _pkD3DAdapterInfo$1$[ebp]
  00280	e8 00 00 00 00	 call	 ?GetDesktopD3DDisplayModer@D3D_CAdapterInfo@@QAEAAU_D3DDISPLAYMODE@@XZ ; D3D_CAdapterInfo::GetDesktopD3DDisplayModer
  00285	8b 40 0c	 mov	 eax, DWORD PTR [eax+12]

; 486  : 	}

  00288	eb 09		 jmp	 SHORT $LN295@Create
$LN12@Create:

; 487  : 	else
; 488  : 	{
; 489  : 		ms_d3dPresentParameter.BackBufferFormat				= pkD3DModeInfo->m_eD3DFmtPixel;

  0028a	8b 47 10	 mov	 eax, DWORD PTR [edi+16]

; 490  : 		ms_d3dPresentParameter.FullScreen_RefreshRateInHz	= iReflashRate;

  0028d	89 0d 30 00 00
	00		 mov	 DWORD PTR ?ms_d3dPresentParameter@CGraphicBase@@1U_D3DPRESENT_PARAMETERS_@@A+48, ecx
$LN295@Create:

; 491  : 	}
; 492  : 
; 493  : 	ms_d3dPresentParameter.Flags							= D3DPRESENTFLAG_LOCKABLE_BACKBUFFER;
; 494  : 	ms_d3dPresentParameter.EnableAutoDepthStencil			= TRUE;
; 495  : 	ms_d3dPresentParameter.AutoDepthStencilFormat			= pkD3DModeInfo->m_eD3DFmtDepthStencil;
; 496  : 
; 497  : 	ms_dwD3DBehavior = pkD3DModeInfo->m_dwD3DBehavior;
; 498  : 
; 499  : 	if (FAILED(ms_hLastResult = ms_lpd3d->CreateDevice(ms_iD3DAdapterInfo, D3DDEVTYPE_HAL, hWnd, pkD3DModeInfo->m_dwD3DBehavior, &ms_d3dPresentParameter, &ms_lpd3dDevice)))

  00293	8b 0d 00 00 00
	00		 mov	 ecx, DWORD PTR ?ms_lpd3d@CGraphicBase@@1PAUIDirect3D9@@A ; CGraphicBase::ms_lpd3d
  00299	68 00 00 00 00	 push	 OFFSET ?ms_lpd3dDevice@CGraphicBase@@1PAUIDirect3DDevice9@@A ; CGraphicBase::ms_lpd3dDevice
  0029e	a3 08 00 00 00	 mov	 DWORD PTR ?ms_d3dPresentParameter@CGraphicBase@@1U_D3DPRESENT_PARAMETERS_@@A+8, eax
  002a3	c7 05 2c 00 00
	00 01 00 00 00	 mov	 DWORD PTR ?ms_d3dPresentParameter@CGraphicBase@@1U_D3DPRESENT_PARAMETERS_@@A+44, 1
  002ad	c7 05 24 00 00
	00 01 00 00 00	 mov	 DWORD PTR ?ms_d3dPresentParameter@CGraphicBase@@1U_D3DPRESENT_PARAMETERS_@@A+36, 1
  002b7	8b 47 14	 mov	 eax, DWORD PTR [edi+20]
  002ba	68 00 00 00 00	 push	 OFFSET ?ms_d3dPresentParameter@CGraphicBase@@1U_D3DPRESENT_PARAMETERS_@@A ; CGraphicBase::ms_d3dPresentParameter
  002bf	a3 28 00 00 00	 mov	 DWORD PTR ?ms_d3dPresentParameter@CGraphicBase@@1U_D3DPRESENT_PARAMETERS_@@A+40, eax
  002c4	8b 47 0c	 mov	 eax, DWORD PTR [edi+12]
  002c7	a3 00 00 00 00	 mov	 DWORD PTR ?ms_dwD3DBehavior@CGraphicBase@@1KA, eax ; CGraphicBase::ms_dwD3DBehavior
  002cc	ff 77 0c	 push	 DWORD PTR [edi+12]
  002cf	8b 01		 mov	 eax, DWORD PTR [ecx]
  002d1	ff 75 b4	 push	 DWORD PTR _hWnd$GSCopy$1$[ebp]
  002d4	6a 01		 push	 1
  002d6	ff 35 00 00 00
	00		 push	 DWORD PTR ?ms_iD3DAdapterInfo@CGraphicBase@@1IA ; CGraphicBase::ms_iD3DAdapterInfo
  002dc	51		 push	 ecx
  002dd	ff 50 40	 call	 DWORD PTR [eax+64]
  002e0	a3 00 00 00 00	 mov	 DWORD PTR ?ms_hLastResult@CGraphicBase@@1JA, eax ; CGraphicBase::ms_hLastResult
  002e5	85 c0		 test	 eax, eax
  002e7	79 67		 jns	 SHORT $LN14@Create

; 500  : 	{
; 501  : 		switch (ms_hLastResult)

  002e9	3d 7c 01 76 88	 cmp	 eax, -2005532292	; 8876017cH
  002ee	74 2c		 je	 SHORT $LN17@Create
  002f0	3d 6a 08 76 88	 cmp	 eax, -2005530518	; 8876086aH
  002f5	74 1e		 je	 SHORT $LN16@Create
  002f7	3d 6c 08 76 88	 cmp	 eax, -2005530516	; 8876086cH
  002fc	74 10		 je	 SHORT $LN15@Create

; 511  : 			break;
; 512  : 		default:
; 513  : 			Tracenf("IDirect3DDevice.CreateDevice - ERROR %d", ms_hLastResult);

  002fe	50		 push	 eax
  002ff	68 00 00 00 00	 push	 OFFSET ??_C@_0CI@IPGGGCFB@IDirect3DDevice?4CreateDevice?5?9?5@
  00304	e8 00 00 00 00	 call	 ?Tracenf@@YAXPBDZZ	; Tracenf
  00309	83 c4 08	 add	 esp, 8
  0030c	eb 1b		 jmp	 SHORT $LN2@Create
$LN15@Create:

; 502  : 		{
; 503  : 		case D3DERR_INVALIDCALL:
; 504  : 			Tracen("IDirect3DDevice.CreateDevice - ERROR D3DERR_INVALIDCALL\nThe method call is invalid. For example, a method's parameter may have an invalid value.");

  0030e	68 00 00 00 00	 push	 OFFSET ??_C@_0JB@NCJOPOMN@IDirect3DDevice?4CreateDevice?5?9?5@

; 505  : 			break;

  00313	eb 0c		 jmp	 SHORT $LN296@Create
$LN16@Create:

; 506  : 		case D3DERR_NOTAVAILABLE:
; 507  : 			Tracen("IDirect3DDevice.CreateDevice - ERROR D3DERR_NOTAVAILABLE\nThis device does not support the queried technique. ");

  00315	68 00 00 00 00	 push	 OFFSET ??_C@_0GO@ICOCNPJJ@IDirect3DDevice?4CreateDevice?5?9?5@

; 508  : 			break;

  0031a	eb 05		 jmp	 SHORT $LN296@Create
$LN17@Create:

; 509  : 		case D3DERR_OUTOFVIDEOMEMORY:
; 510  : 			Tracen("IDirect3DDevice.CreateDevice - ERROR D3DERR_OUTOFVIDEOMEMORY\nDirect3D does not have enough display memory to perform the operation");

  0031c	68 00 00 00 00	 push	 OFFSET ??_C@_0ID@GFNIEGEI@IDirect3DDevice?4CreateDevice?5?9?5@
$LN296@Create:

; 514  : 			break;
; 515  : 		}
; 516  : 
; 517  : 		if (ErrorCorrection)

  00321	e8 00 00 00 00	 call	 ?Tracen@@YAXPBD@Z	; Tracen
  00326	83 c4 04	 add	 esp, 4
$LN2@Create:
  00329	83 7d bc 00	 cmp	 DWORD PTR _ErrorCorrection$1$[ebp], 0
  0032d	75 17		 jne	 SHORT $LN290@Create

; 518  : 		{
; 519  : 			return CREATE_DEVICE;
; 520  : 		}
; 521  : 
; 522  : 		iReflashRate = 0;
; 523  : 		++ErrorCorrection;
; 524  : 		iRet = CREATE_REFRESHRATE;
; 525  : 		goto RETRY;

  0032f	8a 55 14	 mov	 dl, BYTE PTR _Windowed$[ebp]
  00332	33 c9		 xor	 ecx, ecx
  00334	8b 45 ac	 mov	 eax, DWORD PTR tv2806[ebp]
  00337	c7 45 bc 01 00
	00 00		 mov	 DWORD PTR _ErrorCorrection$1$[ebp], 1
  0033e	8d 71 20	 lea	 esi, DWORD PTR [ecx+32]
  00341	e9 ca fe ff ff	 jmp	 $RETRY$299
$LN290@Create:
  00346	be 10 00 00 00	 mov	 esi, 16			; 00000010H
  0034b	e9 b6 07 00 00	 jmp	 $LN35@Create
$LN14@Create:

; 526  : 	}
; 527  : 
; 528  : 	// Check DXT Support Info
; 529  : 	if (ms_lpd3d->CheckDeviceFormat(
; 530  : 				ms_iD3DAdapterInfo,
; 531  : 				D3DDEVTYPE_HAL,
; 532  : 				ms_d3dPresentParameter.BackBufferFormat,
; 533  : 				0,
; 534  : 				D3DRTYPE_TEXTURE,
; 535  : 				D3DFMT_DXT1) == D3DERR_NOTAVAILABLE)

  00350	8b 0d 00 00 00
	00		 mov	 ecx, DWORD PTR ?ms_lpd3d@CGraphicBase@@1PAUIDirect3D9@@A ; CGraphicBase::ms_lpd3d
  00356	68 44 58 54 31	 push	 827611204		; 31545844H
  0035b	6a 03		 push	 3
  0035d	6a 00		 push	 0
  0035f	ff 35 08 00 00
	00		 push	 DWORD PTR ?ms_d3dPresentParameter@CGraphicBase@@1U_D3DPRESENT_PARAMETERS_@@A+8
  00365	8b 01		 mov	 eax, DWORD PTR [ecx]
  00367	6a 01		 push	 1
  00369	ff 35 00 00 00
	00		 push	 DWORD PTR ?ms_iD3DAdapterInfo@CGraphicBase@@1IA ; CGraphicBase::ms_iD3DAdapterInfo
  0036f	51		 push	 ecx
  00370	ff 50 28	 call	 DWORD PTR [eax+40]
  00373	0f b6 0d 00 00
	00 00		 movzx	 ecx, BYTE PTR ?ms_bSupportDXT@CGraphicBase@@1_NA ; CGraphicBase::ms_bSupportDXT
  0037a	33 d2		 xor	 edx, edx

; 536  : 	{
; 537  : 		ms_bSupportDXT = false;
; 538  : 	}
; 539  : 
; 540  : 	if (ms_lpd3d->CheckDeviceFormat(
; 541  : 				ms_iD3DAdapterInfo,
; 542  : 				D3DDEVTYPE_HAL,
; 543  : 				ms_d3dPresentParameter.BackBufferFormat,
; 544  : 				0,
; 545  : 				D3DRTYPE_TEXTURE,
; 546  : 				D3DFMT_DXT3) == D3DERR_NOTAVAILABLE)

  0037c	68 44 58 54 33	 push	 861165636		; 33545844H
  00381	6a 03		 push	 3
  00383	3d 6a 08 76 88	 cmp	 eax, -2005530518	; 8876086aH
  00388	52		 push	 edx
  00389	ff 35 08 00 00
	00		 push	 DWORD PTR ?ms_d3dPresentParameter@CGraphicBase@@1U_D3DPRESENT_PARAMETERS_@@A+8
  0038f	0f 44 ca	 cmove	 ecx, edx
  00392	88 0d 00 00 00
	00		 mov	 BYTE PTR ?ms_bSupportDXT@CGraphicBase@@1_NA, cl ; CGraphicBase::ms_bSupportDXT
  00398	8b 0d 00 00 00
	00		 mov	 ecx, DWORD PTR ?ms_lpd3d@CGraphicBase@@1PAUIDirect3D9@@A ; CGraphicBase::ms_lpd3d
  0039e	6a 01		 push	 1
  003a0	ff 35 00 00 00
	00		 push	 DWORD PTR ?ms_iD3DAdapterInfo@CGraphicBase@@1IA ; CGraphicBase::ms_iD3DAdapterInfo
  003a6	8b 01		 mov	 eax, DWORD PTR [ecx]
  003a8	51		 push	 ecx
  003a9	ff 50 28	 call	 DWORD PTR [eax+40]
  003ac	0f b6 0d 00 00
	00 00		 movzx	 ecx, BYTE PTR ?ms_bSupportDXT@CGraphicBase@@1_NA ; CGraphicBase::ms_bSupportDXT
  003b3	33 d2		 xor	 edx, edx

; 547  : 	{
; 548  : 		ms_bSupportDXT = false;
; 549  : 	}
; 550  : 
; 551  : 	if (ms_lpd3d->CheckDeviceFormat(
; 552  : 				ms_iD3DAdapterInfo,
; 553  : 				D3DDEVTYPE_HAL,
; 554  : 				ms_d3dPresentParameter.BackBufferFormat,
; 555  : 				0,
; 556  : 				D3DRTYPE_TEXTURE,
; 557  : 				D3DFMT_DXT5) == D3DERR_NOTAVAILABLE)

  003b5	68 44 58 54 35	 push	 894720068		; 35545844H
  003ba	6a 03		 push	 3
  003bc	3d 6a 08 76 88	 cmp	 eax, -2005530518	; 8876086aH
  003c1	52		 push	 edx
  003c2	ff 35 08 00 00
	00		 push	 DWORD PTR ?ms_d3dPresentParameter@CGraphicBase@@1U_D3DPRESENT_PARAMETERS_@@A+8
  003c8	0f 44 ca	 cmove	 ecx, edx
  003cb	88 0d 00 00 00
	00		 mov	 BYTE PTR ?ms_bSupportDXT@CGraphicBase@@1_NA, cl ; CGraphicBase::ms_bSupportDXT
  003d1	8b 0d 00 00 00
	00		 mov	 ecx, DWORD PTR ?ms_lpd3d@CGraphicBase@@1PAUIDirect3D9@@A ; CGraphicBase::ms_lpd3d
  003d7	6a 01		 push	 1
  003d9	ff 35 00 00 00
	00		 push	 DWORD PTR ?ms_iD3DAdapterInfo@CGraphicBase@@1IA ; CGraphicBase::ms_iD3DAdapterInfo
  003df	8b 01		 mov	 eax, DWORD PTR [ecx]
  003e1	51		 push	 ecx
  003e2	ff 50 28	 call	 DWORD PTR [eax+40]
  003e5	0f b6 0d 00 00
	00 00		 movzx	 ecx, BYTE PTR ?ms_bSupportDXT@CGraphicBase@@1_NA ; CGraphicBase::ms_bSupportDXT
  003ec	33 d2		 xor	 edx, edx
  003ee	3d 6a 08 76 88	 cmp	 eax, -2005530518	; 8876086aH

; 558  : 	{
; 559  : 		ms_bSupportDXT = false;
; 560  : 	}
; 561  : 
; 562  : 	if (FAILED((ms_hLastResult = ms_lpd3dDevice->GetDeviceCaps(&ms_d3dCaps))))

  003f3	68 00 00 00 00	 push	 OFFSET ?ms_d3dCaps@CGraphicBase@@1U_D3DCAPS9@@A ; CGraphicBase::ms_d3dCaps
  003f8	0f 44 ca	 cmove	 ecx, edx
  003fb	88 0d 00 00 00
	00		 mov	 BYTE PTR ?ms_bSupportDXT@CGraphicBase@@1_NA, cl ; CGraphicBase::ms_bSupportDXT
  00401	8b 0d 00 00 00
	00		 mov	 ecx, DWORD PTR ?ms_lpd3dDevice@CGraphicBase@@1PAUIDirect3DDevice9@@A ; CGraphicBase::ms_lpd3dDevice
  00407	51		 push	 ecx
  00408	8b 01		 mov	 eax, DWORD PTR [ecx]
  0040a	ff 50 1c	 call	 DWORD PTR [eax+28]
  0040d	a3 00 00 00 00	 mov	 DWORD PTR ?ms_hLastResult@CGraphicBase@@1JA, eax ; CGraphicBase::ms_hLastResult
  00412	85 c0		 test	 eax, eax
  00414	79 18		 jns	 SHORT $LN23@Create

; 563  : 	{
; 564  : 		Tracenf("IDirect3DDevice.GetDeviceCaps - ERROR %d", ms_hLastResult);

  00416	50		 push	 eax
  00417	68 00 00 00 00	 push	 OFFSET ??_C@_0CJ@PKDINAHJ@IDirect3DDevice?4GetDeviceCaps?5?9@
  0041c	e8 00 00 00 00	 call	 ?Tracenf@@YAXPBDZZ	; Tracenf
  00421	83 c4 08	 add	 esp, 8

; 565  : 		return CREATE_GET_DEVICE_CAPS2;

  00424	be 08 00 00 00	 mov	 esi, 8
  00429	e9 d8 06 00 00	 jmp	 $LN35@Create
$LN23@Create:

; 566  : 	}
; 567  : 
; 568  : 	if (!Windowed)

  0042e	80 7d 14 00	 cmp	 BYTE PTR _Windowed$[ebp], 0
  00432	75 17		 jne	 SHORT $LN24@Create

; 569  : 	{
; 570  : 		SetWindowPos(hWnd, HWND_TOPMOST, 0, 0, iHres, iVres, SWP_SHOWWINDOW);

  00434	6a 40		 push	 64			; 00000040H
  00436	ff 75 10	 push	 DWORD PTR _iVres$[ebp]
  00439	ff 75 0c	 push	 DWORD PTR _iHres$[ebp]
  0043c	6a 00		 push	 0
  0043e	6a 00		 push	 0
  00440	6a ff		 push	 -1
  00442	ff 75 b4	 push	 DWORD PTR _hWnd$GSCopy$1$[ebp]
  00445	ff 15 00 00 00
	00		 call	 DWORD PTR __imp__SetWindowPos@28
$LN24@Create:

; 571  : 	}
; 572  : 
; 573  : 	//Tracef("vertex shader version : %X\n",(DWORD)ms_d3dCaps.VertexShaderVersion);
; 574  : 
; 575  : 	ms_lpd3dDevice->GetViewport(&ms_Viewport);

  0044b	8b 0d 00 00 00
	00		 mov	 ecx, DWORD PTR ?ms_lpd3dDevice@CGraphicBase@@1PAUIDirect3DDevice9@@A ; CGraphicBase::ms_lpd3dDevice
  00451	68 00 00 00 00	 push	 OFFSET ?ms_Viewport@CGraphicBase@@1U_D3DVIEWPORT9@@A ; CGraphicBase::ms_Viewport
  00456	51		 push	 ecx
  00457	8b 01		 mov	 eax, DWORD PTR [ecx]
  00459	ff 90 c0 00 00
	00		 call	 DWORD PTR [eax+192]

; 576  : 
; 577  : 	m_pStateManager = new CStateManager(ms_lpd3dDevice);

  0045f	68 94 63 01 00	 push	 91028			; 00016394H
  00464	e8 00 00 00 00	 call	 ??2@YAPAXI@Z		; operator new
  00469	83 c4 04	 add	 esp, 4
  0046c	89 45 ac	 mov	 DWORD PTR $T2[ebp], eax
  0046f	c6 45 fc 02	 mov	 BYTE PTR __$EHRec$[ebp+8], 2
  00473	85 c0		 test	 eax, eax
  00475	74 0f		 je	 SHORT $LN37@Create
  00477	ff 35 00 00 00
	00		 push	 DWORD PTR ?ms_lpd3dDevice@CGraphicBase@@1PAUIDirect3DDevice9@@A ; CGraphicBase::ms_lpd3dDevice
  0047d	8b c8		 mov	 ecx, eax
  0047f	e8 00 00 00 00	 call	 ??0CStateManager@@QAE@PAUIDirect3DDevice9@@@Z ; CStateManager::CStateManager
  00484	eb 02		 jmp	 SHORT $LN38@Create
$LN37@Create:
  00486	33 c0		 xor	 eax, eax
$LN38@Create:
  00488	8b 7d b8	 mov	 edi, DWORD PTR _this$GSCopy$1$[ebp]

; 578  : 	m_pStateManager->SetRenderState(D3DRS_MULTISAMPLEANTIALIAS, TRUE);

  0048b	8b c8		 mov	 ecx, eax
  0048d	6a 01		 push	 1
  0048f	68 a1 00 00 00	 push	 161			; 000000a1H
  00494	c6 45 fc 01	 mov	 BYTE PTR __$EHRec$[ebp+8], 1
  00498	89 47 10	 mov	 DWORD PTR [edi+16], eax
  0049b	e8 00 00 00 00	 call	 ?SetRenderState@CStateManager@@QAEXW4_D3DRENDERSTATETYPE@@K@Z ; CStateManager::SetRenderState

; 579  : 
; 580  : 	D3DXCreateMatrixStack(0, &ms_lpd3dMatStack);

  004a0	68 00 00 00 00	 push	 OFFSET ?ms_lpd3dMatStack@CGraphicBase@@1PAUID3DXMatrixStack@@A ; CGraphicBase::ms_lpd3dMatStack
  004a5	6a 00		 push	 0
  004a7	e8 00 00 00 00	 call	 _D3DXCreateMatrixStack@8

; 581  : 	ms_lpd3dMatStack->LoadIdentity();

  004ac	a1 00 00 00 00	 mov	 eax, DWORD PTR ?ms_lpd3dMatStack@CGraphicBase@@1PAUID3DXMatrixStack@@A ; CGraphicBase::ms_lpd3dMatStack
  004b1	50		 push	 eax
  004b2	8b 08		 mov	 ecx, DWORD PTR [eax]
  004b4	ff 51 14	 call	 DWORD PTR [ecx+20]

; 582  : 
; 583  : 	ms_pntVS = CreatePNTStreamVertexShader();

  004b7	8b cf		 mov	 ecx, edi
  004b9	e8 00 00 00 00	 call	 ?CreatePNTStreamVertexShader@CGraphicDevice@@IAEKXZ ; CGraphicDevice::CreatePNTStreamVertexShader

; 584  : 	ms_pnt2VS = CreatePNT2StreamVertexShader();

  004be	8b cf		 mov	 ecx, edi
  004c0	a3 00 00 00 00	 mov	 DWORD PTR ?ms_pntVS@CGraphicBase@@1KA, eax ; CGraphicBase::ms_pntVS
  004c5	e8 00 00 00 00	 call	 ?CreatePNT2StreamVertexShader@CGraphicDevice@@IAEKXZ ; CGraphicDevice::CreatePNT2StreamVertexShader
  004ca	a3 00 00 00 00	 mov	 DWORD PTR ?ms_pnt2VS@CGraphicBase@@1KA, eax ; CGraphicBase::ms_pnt2VS
; File C:\Users\flourine\Desktop\Xantios\client-src\extern\include\directX\d3dx9math.inl

; 2261 :     pOut->m[0][1] = pOut->m[0][2] = pOut->m[0][3] =

  004cf	c7 05 38 00 00
	00 00 00 00 00	 mov	 DWORD PTR ?ms_matIdentity@CGraphicBase@@1UD3DXMATRIX@@A+56, 0
  004d9	c7 05 34 00 00
	00 00 00 00 00	 mov	 DWORD PTR ?ms_matIdentity@CGraphicBase@@1UD3DXMATRIX@@A+52, 0
  004e3	c7 05 30 00 00
	00 00 00 00 00	 mov	 DWORD PTR ?ms_matIdentity@CGraphicBase@@1UD3DXMATRIX@@A+48, 0
  004ed	c7 05 2c 00 00
	00 00 00 00 00	 mov	 DWORD PTR ?ms_matIdentity@CGraphicBase@@1UD3DXMATRIX@@A+44, 0
  004f7	c7 05 24 00 00
	00 00 00 00 00	 mov	 DWORD PTR ?ms_matIdentity@CGraphicBase@@1UD3DXMATRIX@@A+36, 0
  00501	c7 05 20 00 00
	00 00 00 00 00	 mov	 DWORD PTR ?ms_matIdentity@CGraphicBase@@1UD3DXMATRIX@@A+32, 0
  0050b	c7 05 1c 00 00
	00 00 00 00 00	 mov	 DWORD PTR ?ms_matIdentity@CGraphicBase@@1UD3DXMATRIX@@A+28, 0
  00515	c7 05 18 00 00
	00 00 00 00 00	 mov	 DWORD PTR ?ms_matIdentity@CGraphicBase@@1UD3DXMATRIX@@A+24, 0
  0051f	c7 05 10 00 00
	00 00 00 00 00	 mov	 DWORD PTR ?ms_matIdentity@CGraphicBase@@1UD3DXMATRIX@@A+16, 0
  00529	c7 05 0c 00 00
	00 00 00 00 00	 mov	 DWORD PTR ?ms_matIdentity@CGraphicBase@@1UD3DXMATRIX@@A+12, 0
  00533	c7 05 08 00 00
	00 00 00 00 00	 mov	 DWORD PTR ?ms_matIdentity@CGraphicBase@@1UD3DXMATRIX@@A+8, 0
  0053d	c7 05 04 00 00
	00 00 00 00 00	 mov	 DWORD PTR ?ms_matIdentity@CGraphicBase@@1UD3DXMATRIX@@A+4, 0

; 2266 :     pOut->m[0][0] = pOut->m[1][1] = pOut->m[2][2] = pOut->m[3][3] = 1.0f;

  00547	c7 05 3c 00 00
	00 00 00 80 3f	 mov	 DWORD PTR ?ms_matIdentity@CGraphicBase@@1UD3DXMATRIX@@A+60, 1065353216 ; 3f800000H
  00551	c7 05 28 00 00
	00 00 00 80 3f	 mov	 DWORD PTR ?ms_matIdentity@CGraphicBase@@1UD3DXMATRIX@@A+40, 1065353216 ; 3f800000H
  0055b	c7 05 14 00 00
	00 00 00 80 3f	 mov	 DWORD PTR ?ms_matIdentity@CGraphicBase@@1UD3DXMATRIX@@A+20, 1065353216 ; 3f800000H
  00565	c7 05 00 00 00
	00 00 00 80 3f	 mov	 DWORD PTR ?ms_matIdentity@CGraphicBase@@1UD3DXMATRIX@@A, 1065353216 ; 3f800000H

; 2261 :     pOut->m[0][1] = pOut->m[0][2] = pOut->m[0][3] =

  0056f	c7 05 38 00 00
	00 00 00 00 00	 mov	 DWORD PTR ?ms_matView@CGraphicBase@@1UD3DXMATRIX@@A+56, 0
  00579	c7 05 34 00 00
	00 00 00 00 00	 mov	 DWORD PTR ?ms_matView@CGraphicBase@@1UD3DXMATRIX@@A+52, 0
  00583	c7 05 30 00 00
	00 00 00 00 00	 mov	 DWORD PTR ?ms_matView@CGraphicBase@@1UD3DXMATRIX@@A+48, 0
  0058d	c7 05 2c 00 00
	00 00 00 00 00	 mov	 DWORD PTR ?ms_matView@CGraphicBase@@1UD3DXMATRIX@@A+44, 0
  00597	c7 05 24 00 00
	00 00 00 00 00	 mov	 DWORD PTR ?ms_matView@CGraphicBase@@1UD3DXMATRIX@@A+36, 0
  005a1	c7 05 20 00 00
	00 00 00 00 00	 mov	 DWORD PTR ?ms_matView@CGraphicBase@@1UD3DXMATRIX@@A+32, 0
  005ab	c7 05 1c 00 00
	00 00 00 00 00	 mov	 DWORD PTR ?ms_matView@CGraphicBase@@1UD3DXMATRIX@@A+28, 0
  005b5	c7 05 18 00 00
	00 00 00 00 00	 mov	 DWORD PTR ?ms_matView@CGraphicBase@@1UD3DXMATRIX@@A+24, 0
  005bf	c7 05 10 00 00
	00 00 00 00 00	 mov	 DWORD PTR ?ms_matView@CGraphicBase@@1UD3DXMATRIX@@A+16, 0
  005c9	c7 05 0c 00 00
	00 00 00 00 00	 mov	 DWORD PTR ?ms_matView@CGraphicBase@@1UD3DXMATRIX@@A+12, 0
  005d3	c7 05 08 00 00
	00 00 00 00 00	 mov	 DWORD PTR ?ms_matView@CGraphicBase@@1UD3DXMATRIX@@A+8, 0
  005dd	c7 05 04 00 00
	00 00 00 00 00	 mov	 DWORD PTR ?ms_matView@CGraphicBase@@1UD3DXMATRIX@@A+4, 0

; 2266 :     pOut->m[0][0] = pOut->m[1][1] = pOut->m[2][2] = pOut->m[3][3] = 1.0f;

  005e7	c7 05 3c 00 00
	00 00 00 80 3f	 mov	 DWORD PTR ?ms_matView@CGraphicBase@@1UD3DXMATRIX@@A+60, 1065353216 ; 3f800000H
  005f1	c7 05 28 00 00
	00 00 00 80 3f	 mov	 DWORD PTR ?ms_matView@CGraphicBase@@1UD3DXMATRIX@@A+40, 1065353216 ; 3f800000H
  005fb	c7 05 14 00 00
	00 00 00 80 3f	 mov	 DWORD PTR ?ms_matView@CGraphicBase@@1UD3DXMATRIX@@A+20, 1065353216 ; 3f800000H
  00605	c7 05 00 00 00
	00 00 00 80 3f	 mov	 DWORD PTR ?ms_matView@CGraphicBase@@1UD3DXMATRIX@@A, 1065353216 ; 3f800000H

; 2261 :     pOut->m[0][1] = pOut->m[0][2] = pOut->m[0][3] =

  0060f	c7 05 38 00 00
	00 00 00 00 00	 mov	 DWORD PTR ?ms_matProj@CGraphicBase@@1UD3DXMATRIX@@A+56, 0
  00619	c7 05 34 00 00
	00 00 00 00 00	 mov	 DWORD PTR ?ms_matProj@CGraphicBase@@1UD3DXMATRIX@@A+52, 0
  00623	c7 05 30 00 00
	00 00 00 00 00	 mov	 DWORD PTR ?ms_matProj@CGraphicBase@@1UD3DXMATRIX@@A+48, 0
  0062d	c7 05 2c 00 00
	00 00 00 00 00	 mov	 DWORD PTR ?ms_matProj@CGraphicBase@@1UD3DXMATRIX@@A+44, 0
  00637	c7 05 24 00 00
	00 00 00 00 00	 mov	 DWORD PTR ?ms_matProj@CGraphicBase@@1UD3DXMATRIX@@A+36, 0
  00641	c7 05 20 00 00
	00 00 00 00 00	 mov	 DWORD PTR ?ms_matProj@CGraphicBase@@1UD3DXMATRIX@@A+32, 0
  0064b	c7 05 1c 00 00
	00 00 00 00 00	 mov	 DWORD PTR ?ms_matProj@CGraphicBase@@1UD3DXMATRIX@@A+28, 0
  00655	c7 05 18 00 00
	00 00 00 00 00	 mov	 DWORD PTR ?ms_matProj@CGraphicBase@@1UD3DXMATRIX@@A+24, 0
  0065f	c7 05 10 00 00
	00 00 00 00 00	 mov	 DWORD PTR ?ms_matProj@CGraphicBase@@1UD3DXMATRIX@@A+16, 0
  00669	c7 05 0c 00 00
	00 00 00 00 00	 mov	 DWORD PTR ?ms_matProj@CGraphicBase@@1UD3DXMATRIX@@A+12, 0
  00673	c7 05 08 00 00
	00 00 00 00 00	 mov	 DWORD PTR ?ms_matProj@CGraphicBase@@1UD3DXMATRIX@@A+8, 0
  0067d	c7 05 04 00 00
	00 00 00 00 00	 mov	 DWORD PTR ?ms_matProj@CGraphicBase@@1UD3DXMATRIX@@A+4, 0

; 2266 :     pOut->m[0][0] = pOut->m[1][1] = pOut->m[2][2] = pOut->m[3][3] = 1.0f;

  00687	c7 05 3c 00 00
	00 00 00 80 3f	 mov	 DWORD PTR ?ms_matProj@CGraphicBase@@1UD3DXMATRIX@@A+60, 1065353216 ; 3f800000H
  00691	c7 05 28 00 00
	00 00 00 80 3f	 mov	 DWORD PTR ?ms_matProj@CGraphicBase@@1UD3DXMATRIX@@A+40, 1065353216 ; 3f800000H
  0069b	c7 05 14 00 00
	00 00 00 80 3f	 mov	 DWORD PTR ?ms_matProj@CGraphicBase@@1UD3DXMATRIX@@A+20, 1065353216 ; 3f800000H
  006a5	c7 05 00 00 00
	00 00 00 80 3f	 mov	 DWORD PTR ?ms_matProj@CGraphicBase@@1UD3DXMATRIX@@A, 1065353216 ; 3f800000H

; 2261 :     pOut->m[0][1] = pOut->m[0][2] = pOut->m[0][3] =

  006af	c7 05 38 00 00
	00 00 00 00 00	 mov	 DWORD PTR ?ms_matInverseView@CGraphicBase@@1UD3DXMATRIX@@A+56, 0
  006b9	c7 05 34 00 00
	00 00 00 00 00	 mov	 DWORD PTR ?ms_matInverseView@CGraphicBase@@1UD3DXMATRIX@@A+52, 0
  006c3	c7 05 30 00 00
	00 00 00 00 00	 mov	 DWORD PTR ?ms_matInverseView@CGraphicBase@@1UD3DXMATRIX@@A+48, 0
  006cd	c7 05 2c 00 00
	00 00 00 00 00	 mov	 DWORD PTR ?ms_matInverseView@CGraphicBase@@1UD3DXMATRIX@@A+44, 0
  006d7	c7 05 24 00 00
	00 00 00 00 00	 mov	 DWORD PTR ?ms_matInverseView@CGraphicBase@@1UD3DXMATRIX@@A+36, 0
  006e1	c7 05 20 00 00
	00 00 00 00 00	 mov	 DWORD PTR ?ms_matInverseView@CGraphicBase@@1UD3DXMATRIX@@A+32, 0
  006eb	c7 05 1c 00 00
	00 00 00 00 00	 mov	 DWORD PTR ?ms_matInverseView@CGraphicBase@@1UD3DXMATRIX@@A+28, 0
  006f5	c7 05 18 00 00
	00 00 00 00 00	 mov	 DWORD PTR ?ms_matInverseView@CGraphicBase@@1UD3DXMATRIX@@A+24, 0
  006ff	c7 05 10 00 00
	00 00 00 00 00	 mov	 DWORD PTR ?ms_matInverseView@CGraphicBase@@1UD3DXMATRIX@@A+16, 0
  00709	c7 05 0c 00 00
	00 00 00 00 00	 mov	 DWORD PTR ?ms_matInverseView@CGraphicBase@@1UD3DXMATRIX@@A+12, 0
  00713	c7 05 08 00 00
	00 00 00 00 00	 mov	 DWORD PTR ?ms_matInverseView@CGraphicBase@@1UD3DXMATRIX@@A+8, 0
  0071d	c7 05 04 00 00
	00 00 00 00 00	 mov	 DWORD PTR ?ms_matInverseView@CGraphicBase@@1UD3DXMATRIX@@A+4, 0

; 2266 :     pOut->m[0][0] = pOut->m[1][1] = pOut->m[2][2] = pOut->m[3][3] = 1.0f;

  00727	c7 05 3c 00 00
	00 00 00 80 3f	 mov	 DWORD PTR ?ms_matInverseView@CGraphicBase@@1UD3DXMATRIX@@A+60, 1065353216 ; 3f800000H
; File C:\Users\flourine\Desktop\Xantios\client-src\Code\EterLib\GrpDevice.cpp

; 601  : 	ms_matScreen2._11 = (float) iHres / 2;

  00731	66 0f 6e 45 0c	 movd	 xmm0, DWORD PTR _iHres$[ebp]
  00736	0f 5b c0	 cvtdq2ps xmm0, xmm0

; 603  : 
; 604  : 	D3DXCreateSphere(ms_lpd3dDevice, 1.0f, 32, 32, &ms_lpSphereMesh, NULL);

  00739	6a 00		 push	 0
  0073b	68 00 00 00 00	 push	 OFFSET ?ms_lpSphereMesh@CGraphicBase@@1PAUID3DXMesh@@A ; CGraphicBase::ms_lpSphereMesh
  00740	6a 20		 push	 32			; 00000020H
  00742	6a 20		 push	 32			; 00000020H
  00744	51		 push	 ecx
  00745	f3 0f 59 05 00
	00 00 00	 mulss	 xmm0, DWORD PTR __real@3f000000
  0074d	c7 04 24 00 00
	80 3f		 mov	 DWORD PTR [esp], 1065353216 ; 3f800000H
  00754	ff 35 00 00 00
	00		 push	 DWORD PTR ?ms_lpd3dDevice@CGraphicBase@@1PAUIDirect3DDevice9@@A ; CGraphicBase::ms_lpd3dDevice
; File C:\Users\flourine\Desktop\Xantios\client-src\extern\include\directX\d3dx9math.inl

; 2266 :     pOut->m[0][0] = pOut->m[1][1] = pOut->m[2][2] = pOut->m[3][3] = 1.0f;

  0075a	c7 05 28 00 00
	00 00 00 80 3f	 mov	 DWORD PTR ?ms_matInverseView@CGraphicBase@@1UD3DXMATRIX@@A+40, 1065353216 ; 3f800000H
; File C:\Users\flourine\Desktop\Xantios\client-src\Code\EterLib\GrpDevice.cpp

; 601  : 	ms_matScreen2._11 = (float) iHres / 2;

  00764	f3 0f 11 05 00
	00 00 00	 movss	 DWORD PTR ?ms_matScreen2@CGraphicBase@@1UD3DXMATRIX@@A, xmm0
  0076c	66 0f 6e 45 10	 movd	 xmm0, DWORD PTR _iVres$[ebp]

; 602  : 	ms_matScreen2._22 = (float) iVres / 2;

  00771	0f 5b c0	 cvtdq2ps xmm0, xmm0
; File C:\Users\flourine\Desktop\Xantios\client-src\extern\include\directX\d3dx9math.inl

; 2266 :     pOut->m[0][0] = pOut->m[1][1] = pOut->m[2][2] = pOut->m[3][3] = 1.0f;

  00774	c7 05 14 00 00
	00 00 00 80 3f	 mov	 DWORD PTR ?ms_matInverseView@CGraphicBase@@1UD3DXMATRIX@@A+20, 1065353216 ; 3f800000H
  0077e	c7 05 00 00 00
	00 00 00 80 3f	 mov	 DWORD PTR ?ms_matInverseView@CGraphicBase@@1UD3DXMATRIX@@A, 1065353216 ; 3f800000H

; 2261 :     pOut->m[0][1] = pOut->m[0][2] = pOut->m[0][3] =

  00788	c7 05 38 00 00
	00 00 00 00 00	 mov	 DWORD PTR ?ms_matInverseViewYAxis@CGraphicBase@@1UD3DXMATRIX@@A+56, 0
  00792	c7 05 34 00 00
	00 00 00 00 00	 mov	 DWORD PTR ?ms_matInverseViewYAxis@CGraphicBase@@1UD3DXMATRIX@@A+52, 0
  0079c	c7 05 30 00 00
	00 00 00 00 00	 mov	 DWORD PTR ?ms_matInverseViewYAxis@CGraphicBase@@1UD3DXMATRIX@@A+48, 0
; File C:\Users\flourine\Desktop\Xantios\client-src\Code\EterLib\GrpDevice.cpp

; 602  : 	ms_matScreen2._22 = (float) iVres / 2;

  007a6	f3 0f 59 05 00
	00 00 00	 mulss	 xmm0, DWORD PTR __real@3f000000
; File C:\Users\flourine\Desktop\Xantios\client-src\extern\include\directX\d3dx9math.inl

; 2261 :     pOut->m[0][1] = pOut->m[0][2] = pOut->m[0][3] =

  007ae	c7 05 2c 00 00
	00 00 00 00 00	 mov	 DWORD PTR ?ms_matInverseViewYAxis@CGraphicBase@@1UD3DXMATRIX@@A+44, 0
  007b8	c7 05 24 00 00
	00 00 00 00 00	 mov	 DWORD PTR ?ms_matInverseViewYAxis@CGraphicBase@@1UD3DXMATRIX@@A+36, 0
  007c2	c7 05 20 00 00
	00 00 00 00 00	 mov	 DWORD PTR ?ms_matInverseViewYAxis@CGraphicBase@@1UD3DXMATRIX@@A+32, 0
  007cc	c7 05 1c 00 00
	00 00 00 00 00	 mov	 DWORD PTR ?ms_matInverseViewYAxis@CGraphicBase@@1UD3DXMATRIX@@A+28, 0
  007d6	c7 05 18 00 00
	00 00 00 00 00	 mov	 DWORD PTR ?ms_matInverseViewYAxis@CGraphicBase@@1UD3DXMATRIX@@A+24, 0
  007e0	c7 05 10 00 00
	00 00 00 00 00	 mov	 DWORD PTR ?ms_matInverseViewYAxis@CGraphicBase@@1UD3DXMATRIX@@A+16, 0
  007ea	c7 05 0c 00 00
	00 00 00 00 00	 mov	 DWORD PTR ?ms_matInverseViewYAxis@CGraphicBase@@1UD3DXMATRIX@@A+12, 0
  007f4	c7 05 08 00 00
	00 00 00 00 00	 mov	 DWORD PTR ?ms_matInverseViewYAxis@CGraphicBase@@1UD3DXMATRIX@@A+8, 0
  007fe	c7 05 04 00 00
	00 00 00 00 00	 mov	 DWORD PTR ?ms_matInverseViewYAxis@CGraphicBase@@1UD3DXMATRIX@@A+4, 0

; 2266 :     pOut->m[0][0] = pOut->m[1][1] = pOut->m[2][2] = pOut->m[3][3] = 1.0f;

  00808	c7 05 3c 00 00
	00 00 00 80 3f	 mov	 DWORD PTR ?ms_matInverseViewYAxis@CGraphicBase@@1UD3DXMATRIX@@A+60, 1065353216 ; 3f800000H
  00812	c7 05 28 00 00
	00 00 00 80 3f	 mov	 DWORD PTR ?ms_matInverseViewYAxis@CGraphicBase@@1UD3DXMATRIX@@A+40, 1065353216 ; 3f800000H
  0081c	c7 05 14 00 00
	00 00 00 80 3f	 mov	 DWORD PTR ?ms_matInverseViewYAxis@CGraphicBase@@1UD3DXMATRIX@@A+20, 1065353216 ; 3f800000H
  00826	c7 05 00 00 00
	00 00 00 80 3f	 mov	 DWORD PTR ?ms_matInverseViewYAxis@CGraphicBase@@1UD3DXMATRIX@@A, 1065353216 ; 3f800000H

; 2261 :     pOut->m[0][1] = pOut->m[0][2] = pOut->m[0][3] =

  00830	c7 05 38 00 00
	00 00 00 00 00	 mov	 DWORD PTR ?ms_matScreen0@CGraphicBase@@1UD3DXMATRIX@@A+56, 0
  0083a	c7 05 34 00 00
	00 00 00 00 00	 mov	 DWORD PTR ?ms_matScreen0@CGraphicBase@@1UD3DXMATRIX@@A+52, 0
  00844	c7 05 30 00 00
	00 00 00 00 00	 mov	 DWORD PTR ?ms_matScreen0@CGraphicBase@@1UD3DXMATRIX@@A+48, 0
  0084e	c7 05 2c 00 00
	00 00 00 00 00	 mov	 DWORD PTR ?ms_matScreen0@CGraphicBase@@1UD3DXMATRIX@@A+44, 0
  00858	c7 05 24 00 00
	00 00 00 00 00	 mov	 DWORD PTR ?ms_matScreen0@CGraphicBase@@1UD3DXMATRIX@@A+36, 0
  00862	c7 05 20 00 00
	00 00 00 00 00	 mov	 DWORD PTR ?ms_matScreen0@CGraphicBase@@1UD3DXMATRIX@@A+32, 0
  0086c	c7 05 1c 00 00
	00 00 00 00 00	 mov	 DWORD PTR ?ms_matScreen0@CGraphicBase@@1UD3DXMATRIX@@A+28, 0
  00876	c7 05 18 00 00
	00 00 00 00 00	 mov	 DWORD PTR ?ms_matScreen0@CGraphicBase@@1UD3DXMATRIX@@A+24, 0
  00880	c7 05 10 00 00
	00 00 00 00 00	 mov	 DWORD PTR ?ms_matScreen0@CGraphicBase@@1UD3DXMATRIX@@A+16, 0
  0088a	c7 05 0c 00 00
	00 00 00 00 00	 mov	 DWORD PTR ?ms_matScreen0@CGraphicBase@@1UD3DXMATRIX@@A+12, 0
  00894	c7 05 08 00 00
	00 00 00 00 00	 mov	 DWORD PTR ?ms_matScreen0@CGraphicBase@@1UD3DXMATRIX@@A+8, 0
  0089e	c7 05 04 00 00
	00 00 00 00 00	 mov	 DWORD PTR ?ms_matScreen0@CGraphicBase@@1UD3DXMATRIX@@A+4, 0

; 2266 :     pOut->m[0][0] = pOut->m[1][1] = pOut->m[2][2] = pOut->m[3][3] = 1.0f;

  008a8	c7 05 3c 00 00
	00 00 00 80 3f	 mov	 DWORD PTR ?ms_matScreen0@CGraphicBase@@1UD3DXMATRIX@@A+60, 1065353216 ; 3f800000H
  008b2	c7 05 28 00 00
	00 00 00 80 3f	 mov	 DWORD PTR ?ms_matScreen0@CGraphicBase@@1UD3DXMATRIX@@A+40, 1065353216 ; 3f800000H

; 2261 :     pOut->m[0][1] = pOut->m[0][2] = pOut->m[0][3] =

  008bc	c7 05 38 00 00
	00 00 00 00 00	 mov	 DWORD PTR ?ms_matScreen1@CGraphicBase@@1UD3DXMATRIX@@A+56, 0
  008c6	c7 05 2c 00 00
	00 00 00 00 00	 mov	 DWORD PTR ?ms_matScreen1@CGraphicBase@@1UD3DXMATRIX@@A+44, 0
  008d0	c7 05 24 00 00
	00 00 00 00 00	 mov	 DWORD PTR ?ms_matScreen1@CGraphicBase@@1UD3DXMATRIX@@A+36, 0
  008da	c7 05 20 00 00
	00 00 00 00 00	 mov	 DWORD PTR ?ms_matScreen1@CGraphicBase@@1UD3DXMATRIX@@A+32, 0
  008e4	c7 05 1c 00 00
	00 00 00 00 00	 mov	 DWORD PTR ?ms_matScreen1@CGraphicBase@@1UD3DXMATRIX@@A+28, 0
  008ee	c7 05 18 00 00
	00 00 00 00 00	 mov	 DWORD PTR ?ms_matScreen1@CGraphicBase@@1UD3DXMATRIX@@A+24, 0
  008f8	c7 05 10 00 00
	00 00 00 00 00	 mov	 DWORD PTR ?ms_matScreen1@CGraphicBase@@1UD3DXMATRIX@@A+16, 0
  00902	c7 05 0c 00 00
	00 00 00 00 00	 mov	 DWORD PTR ?ms_matScreen1@CGraphicBase@@1UD3DXMATRIX@@A+12, 0
  0090c	c7 05 08 00 00
	00 00 00 00 00	 mov	 DWORD PTR ?ms_matScreen1@CGraphicBase@@1UD3DXMATRIX@@A+8, 0
  00916	c7 05 04 00 00
	00 00 00 00 00	 mov	 DWORD PTR ?ms_matScreen1@CGraphicBase@@1UD3DXMATRIX@@A+4, 0

; 2266 :     pOut->m[0][0] = pOut->m[1][1] = pOut->m[2][2] = pOut->m[3][3] = 1.0f;

  00920	c7 05 3c 00 00
	00 00 00 80 3f	 mov	 DWORD PTR ?ms_matScreen1@CGraphicBase@@1UD3DXMATRIX@@A+60, 1065353216 ; 3f800000H
  0092a	c7 05 28 00 00
	00 00 00 80 3f	 mov	 DWORD PTR ?ms_matScreen1@CGraphicBase@@1UD3DXMATRIX@@A+40, 1065353216 ; 3f800000H
  00934	c7 05 14 00 00
	00 00 00 80 3f	 mov	 DWORD PTR ?ms_matScreen1@CGraphicBase@@1UD3DXMATRIX@@A+20, 1065353216 ; 3f800000H
  0093e	c7 05 00 00 00
	00 00 00 80 3f	 mov	 DWORD PTR ?ms_matScreen1@CGraphicBase@@1UD3DXMATRIX@@A, 1065353216 ; 3f800000H

; 2261 :     pOut->m[0][1] = pOut->m[0][2] = pOut->m[0][3] =

  00948	c7 05 38 00 00
	00 00 00 00 00	 mov	 DWORD PTR ?ms_matScreen2@CGraphicBase@@1UD3DXMATRIX@@A+56, 0
  00952	c7 05 34 00 00
	00 00 00 00 00	 mov	 DWORD PTR ?ms_matScreen2@CGraphicBase@@1UD3DXMATRIX@@A+52, 0
  0095c	c7 05 30 00 00
	00 00 00 00 00	 mov	 DWORD PTR ?ms_matScreen2@CGraphicBase@@1UD3DXMATRIX@@A+48, 0
  00966	c7 05 2c 00 00
	00 00 00 00 00	 mov	 DWORD PTR ?ms_matScreen2@CGraphicBase@@1UD3DXMATRIX@@A+44, 0
  00970	c7 05 24 00 00
	00 00 00 00 00	 mov	 DWORD PTR ?ms_matScreen2@CGraphicBase@@1UD3DXMATRIX@@A+36, 0
  0097a	c7 05 20 00 00
	00 00 00 00 00	 mov	 DWORD PTR ?ms_matScreen2@CGraphicBase@@1UD3DXMATRIX@@A+32, 0
  00984	c7 05 1c 00 00
	00 00 00 00 00	 mov	 DWORD PTR ?ms_matScreen2@CGraphicBase@@1UD3DXMATRIX@@A+28, 0
  0098e	c7 05 18 00 00
	00 00 00 00 00	 mov	 DWORD PTR ?ms_matScreen2@CGraphicBase@@1UD3DXMATRIX@@A+24, 0
  00998	c7 05 10 00 00
	00 00 00 00 00	 mov	 DWORD PTR ?ms_matScreen2@CGraphicBase@@1UD3DXMATRIX@@A+16, 0
  009a2	c7 05 0c 00 00
	00 00 00 00 00	 mov	 DWORD PTR ?ms_matScreen2@CGraphicBase@@1UD3DXMATRIX@@A+12, 0
  009ac	c7 05 08 00 00
	00 00 00 00 00	 mov	 DWORD PTR ?ms_matScreen2@CGraphicBase@@1UD3DXMATRIX@@A+8, 0
  009b6	c7 05 04 00 00
	00 00 00 00 00	 mov	 DWORD PTR ?ms_matScreen2@CGraphicBase@@1UD3DXMATRIX@@A+4, 0

; 2266 :     pOut->m[0][0] = pOut->m[1][1] = pOut->m[2][2] = pOut->m[3][3] = 1.0f;

  009c0	c7 05 3c 00 00
	00 00 00 80 3f	 mov	 DWORD PTR ?ms_matScreen2@CGraphicBase@@1UD3DXMATRIX@@A+60, 1065353216 ; 3f800000H
  009ca	c7 05 28 00 00
	00 00 00 80 3f	 mov	 DWORD PTR ?ms_matScreen2@CGraphicBase@@1UD3DXMATRIX@@A+40, 1065353216 ; 3f800000H
; File C:\Users\flourine\Desktop\Xantios\client-src\Code\EterLib\GrpDevice.cpp

; 595  : 	ms_matScreen0._11 = 1;

  009d4	c7 05 00 00 00
	00 00 00 80 3f	 mov	 DWORD PTR ?ms_matScreen0@CGraphicBase@@1UD3DXMATRIX@@A, 1065353216 ; 3f800000H

; 596  : 	ms_matScreen0._22 = -1;

  009de	c7 05 14 00 00
	00 00 00 80 bf	 mov	 DWORD PTR ?ms_matScreen0@CGraphicBase@@1UD3DXMATRIX@@A+20, -1082130432 ; bf800000H

; 597  : 
; 598  : 	ms_matScreen1._41 = 1;

  009e8	c7 05 30 00 00
	00 00 00 80 3f	 mov	 DWORD PTR ?ms_matScreen1@CGraphicBase@@1UD3DXMATRIX@@A+48, 1065353216 ; 3f800000H

; 599  : 	ms_matScreen1._42 = 1;

  009f2	c7 05 34 00 00
	00 00 00 80 3f	 mov	 DWORD PTR ?ms_matScreen1@CGraphicBase@@1UD3DXMATRIX@@A+52, 1065353216 ; 3f800000H

; 602  : 	ms_matScreen2._22 = (float) iVres / 2;

  009fc	f3 0f 11 05 14
	00 00 00	 movss	 DWORD PTR ?ms_matScreen2@CGraphicBase@@1UD3DXMATRIX@@A+20, xmm0

; 603  : 
; 604  : 	D3DXCreateSphere(ms_lpd3dDevice, 1.0f, 32, 32, &ms_lpSphereMesh, NULL);

  00a04	e8 00 00 00 00	 call	 _D3DXCreateSphere@24

; 605  : 	D3DXCreateCylinder(ms_lpd3dDevice, 1.0f, 1.0f, 1.0f, 8, 8, &ms_lpCylinderMesh, NULL);

  00a09	6a 00		 push	 0
  00a0b	68 00 00 00 00	 push	 OFFSET ?ms_lpCylinderMesh@CGraphicBase@@1PAUID3DXMesh@@A ; CGraphicBase::ms_lpCylinderMesh
  00a10	6a 08		 push	 8
  00a12	6a 08		 push	 8
  00a14	83 ec 0c	 sub	 esp, 12			; 0000000cH
  00a17	c7 44 24 08 00
	00 80 3f	 mov	 DWORD PTR [esp+8], 1065353216 ; 3f800000H
  00a1f	c7 44 24 04 00
	00 80 3f	 mov	 DWORD PTR [esp+4], 1065353216 ; 3f800000H
  00a27	c7 04 24 00 00
	80 3f		 mov	 DWORD PTR [esp], 1065353216 ; 3f800000H
  00a2e	ff 35 00 00 00
	00		 push	 DWORD PTR ?ms_lpd3dDevice@CGraphicBase@@1PAUIDirect3DDevice9@@A ; CGraphicBase::ms_lpd3dDevice
  00a34	e8 00 00 00 00	 call	 _D3DXCreateCylinder@32

; 606  : 
; 607  : 	ms_lpd3dDevice->Clear(0L, NULL, D3DCLEAR_TARGET | D3DCLEAR_ZBUFFER, 0xff000000, 1.0f, 0);

  00a39	a1 00 00 00 00	 mov	 eax, DWORD PTR ?ms_lpd3dDevice@CGraphicBase@@1PAUIDirect3DDevice9@@A ; CGraphicBase::ms_lpd3dDevice
  00a3e	6a 00		 push	 0
  00a40	8b 08		 mov	 ecx, DWORD PTR [eax]
  00a42	51		 push	 ecx
  00a43	c7 04 24 00 00
	80 3f		 mov	 DWORD PTR [esp], 1065353216 ; 3f800000H
  00a4a	68 00 00 00 ff	 push	 -16777216		; ff000000H
  00a4f	6a 03		 push	 3
  00a51	6a 00		 push	 0
  00a53	6a 00		 push	 0
  00a55	50		 push	 eax
  00a56	ff 91 ac 00 00
	00		 call	 DWORD PTR [ecx+172]

; 608  : 
; 609  : 	if (!__CreateDefaultIndexBufferList())

  00a5c	8b cf		 mov	 ecx, edi
  00a5e	e8 00 00 00 00	 call	 ?__CreateDefaultIndexBufferList@CGraphicDevice@@IAE_NXZ ; CGraphicDevice::__CreateDefaultIndexBufferList
  00a63	84 c0		 test	 al, al
  00a65	75 07		 jne	 SHORT $LN25@Create

; 610  : 	{
; 611  : 		return false;

  00a67	33 f6		 xor	 esi, esi
  00a69	e9 98 00 00 00	 jmp	 $LN35@Create
$LN25@Create:

; 612  : 	}
; 613  : 
; 614  : 	if (!__CreatePDTVertexBufferList())

  00a6e	8b cf		 mov	 ecx, edi
  00a70	e8 00 00 00 00	 call	 ?__CreatePDTVertexBufferList@CGraphicDevice@@IAE_NXZ ; CGraphicDevice::__CreatePDTVertexBufferList
  00a75	84 c0		 test	 al, al
  00a77	75 07		 jne	 SHORT $LN26@Create

; 615  : 	{
; 616  : 		return false;

  00a79	33 f6		 xor	 esi, esi
  00a7b	e9 86 00 00 00	 jmp	 $LN35@Create
$LN26@Create:

; 617  : 	}
; 618  : 
; 619  : 	DWORD dwTexMemSize = GetAvailableTextureMemory();

  00a80	e8 00 00 00 00	 call	 ?GetAvailableTextureMemory@CGraphicBase@@SAKXZ ; CGraphicBase::GetAvailableTextureMemory

; 620  : 
; 621  : 	if (dwTexMemSize < 64 * 1024 * 1024)

  00a85	3d 00 00 00 04	 cmp	 eax, 67108864		; 04000000H
  00a8a	73 3f		 jae	 SHORT $LN27@Create

; 622  : 	{
; 623  : 		ms_isLowTextureMemory = true;

  00a8c	c6 05 00 00 00
	00 01		 mov	 BYTE PTR ?ms_isLowTextureMemory@CGraphicBase@@1_NA, 1 ; CGraphicBase::ms_isLowTextureMemory
$LN29@Create:

; 634  : 	else
; 635  : 	{
; 636  : 		ms_isHighTextureMemory = false;

  00a93	32 c0		 xor	 al, al
$LN30@Create:

; 637  : 	}
; 638  : 
; 639  : 	if (ms_d3dCaps.TextureAddressCaps & D3DPTADDRESSCAPS_BORDER)
; 640  : 	{
; 641  : 		GRAPHICS_CAPS_CAN_NOT_TEXTURE_ADDRESS_BORDER = false;
; 642  : 	}
; 643  : 	else
; 644  : 	{
; 645  : 		GRAPHICS_CAPS_CAN_NOT_TEXTURE_ADDRESS_BORDER = true;
; 646  : 	}
; 647  : 
; 648  : 	//D3DADAPTER_IDENTIFIER9& rkD3DAdapterId=pkD3DAdapterInfo->GetIdentifier();
; 649  : 	if (strnicmp(rkD3DAdapterId.Driver, "SIS", 3) == 0)

  00a95	8b 7d b0	 mov	 edi, DWORD PTR _pkD3DAdapterInfo$1$[ebp]
  00a98	a2 00 00 00 00	 mov	 BYTE PTR ?ms_isHighTextureMemory@CGraphicBase@@1_NA, al ; CGraphicBase::ms_isHighTextureMemory
  00a9d	a1 4c 00 00 00	 mov	 eax, DWORD PTR ?ms_d3dCaps@CGraphicBase@@1U_D3DCAPS9@@A+76
  00aa2	c1 e8 03	 shr	 eax, 3
  00aa5	6a 03		 push	 3
  00aa7	f6 d0		 not	 al
  00aa9	24 01		 and	 al, 1
  00aab	68 00 00 00 00	 push	 OFFSET ??_C@_03OJNODIHH@SIS@
  00ab0	57		 push	 edi
  00ab1	a2 00 00 00 00	 mov	 BYTE PTR ?GRAPHICS_CAPS_CAN_NOT_TEXTURE_ADDRESS_BORDER@@3_NA, al ; GRAPHICS_CAPS_CAN_NOT_TEXTURE_ADDRESS_BORDER
  00ab6	e8 00 00 00 00	 call	 __strnicmp
  00abb	83 c4 0c	 add	 esp, 12			; 0000000cH
  00abe	85 c0		 test	 eax, eax
  00ac0	75 1b		 jne	 SHORT $LN33@Create

; 650  : 	{
; 651  : 		GRAPHICS_CAPS_CAN_NOT_DRAW_LINE = true;

  00ac2	c6 05 00 00 00
	00 01		 mov	 BYTE PTR ?GRAPHICS_CAPS_CAN_NOT_DRAW_LINE@@3_NA, 1 ; GRAPHICS_CAPS_CAN_NOT_DRAW_LINE

; 652  : 		GRAPHICS_CAPS_CAN_NOT_DRAW_SHADOW = true;
; 653  : 		GRAPHICS_CAPS_HALF_SIZE_IMAGE = true;
; 654  : 		ms_isLowTextureMemory = true;
; 655  : 	}

  00ac9	eb 26		 jmp	 SHORT $LN297@Create
$LN27@Create:

; 624  : 	}
; 625  : 	else
; 626  : 	{
; 627  : 		ms_isLowTextureMemory = false;
; 628  : 	}
; 629  : 
; 630  : 	if (dwTexMemSize > 100 * 1024 * 1024)

  00acb	c6 05 00 00 00
	00 00		 mov	 BYTE PTR ?ms_isLowTextureMemory@CGraphicBase@@1_NA, 0 ; CGraphicBase::ms_isLowTextureMemory
  00ad2	3d 00 00 40 06	 cmp	 eax, 104857600		; 06400000H
  00ad7	76 ba		 jbe	 SHORT $LN29@Create

; 631  : 	{
; 632  : 		ms_isHighTextureMemory = true;

  00ad9	b0 01		 mov	 al, 1

; 633  : 	}

  00adb	eb b8		 jmp	 SHORT $LN30@Create
$LN33@Create:

; 656  : 	else if (strnicmp(rkD3DAdapterId.Driver, "3dfx", 4) == 0)

  00add	6a 04		 push	 4
  00adf	68 00 00 00 00	 push	 OFFSET ??_C@_04MAKEOOIM@3dfx@
  00ae4	57		 push	 edi
  00ae5	e8 00 00 00 00	 call	 __strnicmp
  00aea	83 c4 0c	 add	 esp, 12			; 0000000cH
  00aed	85 c0		 test	 eax, eax
  00aef	75 15		 jne	 SHORT $LN35@Create
$LN297@Create:
; File C:\Program Files\Microsoft Visual Studio\2022\Community\VC\Tools\MSVC\14.34.31933\include\xstring

; 2301 :         return _BUF_SIZE <= _Myres;

  00af1	c6 05 00 00 00
	00 01		 mov	 BYTE PTR ?ms_isLowTextureMemory@CGraphicBase@@1_NA, 1 ; CGraphicBase::ms_isLowTextureMemory
  00af8	c6 05 00 00 00
	00 01		 mov	 BYTE PTR ?GRAPHICS_CAPS_HALF_SIZE_IMAGE@@3_NA, 1 ; GRAPHICS_CAPS_HALF_SIZE_IMAGE
  00aff	c6 05 00 00 00
	00 01		 mov	 BYTE PTR ?GRAPHICS_CAPS_CAN_NOT_DRAW_SHADOW@@3_NA, 1 ; GRAPHICS_CAPS_CAN_NOT_DRAW_SHADOW
$LN35@Create:
  00b06	8b 4d ec	 mov	 ecx, DWORD PTR _stModeInfo$[ebp+20]
  00b09	83 f9 10	 cmp	 ecx, 16			; 00000010H

; 5011 :         if (_My_data._Large_string_engaged()) {

  00b0c	72 28		 jb	 SHORT $LN115@Create
; File C:\Program Files\Microsoft Visual Studio\2022\Community\VC\Tools\MSVC\14.34.31933\include\xmemory

; 830  :         _Deallocate<_New_alignof<_Ty>>(_Ptr, sizeof(_Ty) * _Count);

  00b0e	8b 55 d8	 mov	 edx, DWORD PTR _stModeInfo$[ebp]
; File C:\Program Files\Microsoft Visual Studio\2022\Community\VC\Tools\MSVC\14.34.31933\include\xstring

; 5016 :             _Al.deallocate(_Ptr, _My_data._Myres + 1);

  00b11	41		 inc	 ecx
; File C:\Program Files\Microsoft Visual Studio\2022\Community\VC\Tools\MSVC\14.34.31933\include\xmemory

; 830  :         _Deallocate<_New_alignof<_Ty>>(_Ptr, sizeof(_Ty) * _Count);

  00b12	8b c2		 mov	 eax, edx

; 251  :         if (_Bytes >= _Big_allocation_threshold) { // boost the alignment of big allocations to help autovectorization

  00b14	81 f9 00 10 00
	00		 cmp	 ecx, 4096		; 00001000H
  00b1a	72 10		 jb	 SHORT $LN125@Create

; 150  :     const uintptr_t _Ptr_container   = _Ptr_user[-1];

  00b1c	8b 50 fc	 mov	 edx, DWORD PTR [eax-4]
  00b1f	83 c1 23	 add	 ecx, 35			; 00000023H
  00b22	2b c2		 sub	 eax, edx

; 164  :     _STL_VERIFY(_Back_shift >= _Min_back_shift && _Back_shift <= _Non_user_size, "invalid argument");

  00b24	83 c0 fc	 add	 eax, -4			; fffffffcH
  00b27	83 f8 1f	 cmp	 eax, 31			; 0000001fH
  00b2a	77 6b		 ja	 SHORT $LN81@Create
$LN125@Create:

; 255  :         ::operator delete(_Ptr, _Bytes);

  00b2c	51		 push	 ecx
  00b2d	52		 push	 edx
  00b2e	e8 00 00 00 00	 call	 ??3@YAXPAXI@Z		; operator delete
  00b33	83 c4 08	 add	 esp, 8
$LN115@Create:
; File C:\Program Files\Microsoft Visual Studio\2022\Community\VC\Tools\MSVC\14.34.31933\include\xstring

; 5019 :         _My_data._Mysize = 0;

  00b36	c7 45 e8 00 00
	00 00		 mov	 DWORD PTR _stModeInfo$[ebp+16], 0

; 5020 :         _My_data._Myres  = _BUF_SIZE - 1;

  00b3d	c7 45 ec 0f 00
	00 00		 mov	 DWORD PTR _stModeInfo$[ebp+20], 15 ; 0000000fH

; 5021 :         // the _Traits::assign is last so the codegen doesn't think the char write can alias this
; 5022 :         _Traits::assign(_My_data._Bx._Buf[0], _Elem());

  00b44	c6 45 d8 00	 mov	 BYTE PTR _stModeInfo$[ebp], 0
$LN108@Create:

; 2301 :         return _BUF_SIZE <= _Myres;

  00b48	8b 4d d4	 mov	 ecx, DWORD PTR _stDevList$[ebp+20]
  00b4b	83 f9 10	 cmp	 ecx, 16			; 00000010H

; 5011 :         if (_My_data._Large_string_engaged()) {

  00b4e	72 28		 jb	 SHORT $LN74@Create
; File C:\Program Files\Microsoft Visual Studio\2022\Community\VC\Tools\MSVC\14.34.31933\include\xmemory

; 830  :         _Deallocate<_New_alignof<_Ty>>(_Ptr, sizeof(_Ty) * _Count);

  00b50	8b 55 c0	 mov	 edx, DWORD PTR _stDevList$[ebp]
; File C:\Program Files\Microsoft Visual Studio\2022\Community\VC\Tools\MSVC\14.34.31933\include\xstring

; 5016 :             _Al.deallocate(_Ptr, _My_data._Myres + 1);

  00b53	41		 inc	 ecx
; File C:\Program Files\Microsoft Visual Studio\2022\Community\VC\Tools\MSVC\14.34.31933\include\xmemory

; 830  :         _Deallocate<_New_alignof<_Ty>>(_Ptr, sizeof(_Ty) * _Count);

  00b54	8b c2		 mov	 eax, edx

; 251  :         if (_Bytes >= _Big_allocation_threshold) { // boost the alignment of big allocations to help autovectorization

  00b56	81 f9 00 10 00
	00		 cmp	 ecx, 4096		; 00001000H
  00b5c	72 10		 jb	 SHORT $LN84@Create

; 150  :     const uintptr_t _Ptr_container   = _Ptr_user[-1];

  00b5e	8b 50 fc	 mov	 edx, DWORD PTR [eax-4]
  00b61	83 c1 23	 add	 ecx, 35			; 00000023H
  00b64	2b c2		 sub	 eax, edx

; 164  :     _STL_VERIFY(_Back_shift >= _Min_back_shift && _Back_shift <= _Non_user_size, "invalid argument");

  00b66	83 c0 fc	 add	 eax, -4			; fffffffcH
  00b69	83 f8 1f	 cmp	 eax, 31			; 0000001fH
  00b6c	77 29		 ja	 SHORT $LN81@Create
$LN84@Create:

; 255  :         ::operator delete(_Ptr, _Bytes);

  00b6e	51		 push	 ecx
  00b6f	52		 push	 edx
  00b70	e8 00 00 00 00	 call	 ??3@YAXPAXI@Z		; operator delete
  00b75	83 c4 08	 add	 esp, 8
$LN74@Create:
; File C:\Users\flourine\Desktop\Xantios\client-src\Code\EterLib\GrpDevice.cpp

; 663  : 	return (iRet);

  00b78	8b c6		 mov	 eax, esi
$LN1@Create:

; 664  : }

  00b7a	8b 4d f4	 mov	 ecx, DWORD PTR __$EHRec$[ebp]
  00b7d	64 89 0d 00 00
	00 00		 mov	 DWORD PTR fs:0, ecx
  00b84	59		 pop	 ecx
  00b85	5f		 pop	 edi
  00b86	5e		 pop	 esi
  00b87	8b 4d f0	 mov	 ecx, DWORD PTR __$ArrayPad$[ebp]
  00b8a	33 cd		 xor	 ecx, ebp
  00b8c	e8 00 00 00 00	 call	 @__security_check_cookie@4
  00b91	8b e5		 mov	 esp, ebp
  00b93	5d		 pop	 ebp
  00b94	c2 18 00	 ret	 24			; 00000018H
$LN81@Create:
; File C:\Program Files\Microsoft Visual Studio\2022\Community\VC\Tools\MSVC\14.34.31933\include\xmemory

; 164  :     _STL_VERIFY(_Back_shift >= _Min_back_shift && _Back_shift <= _Non_user_size, "invalid argument");

  00b97	e8 00 00 00 00	 call	 __invalid_parameter_noinfo_noreturn
$LN294@Create:
  00b9c	cc		 int	 3
_TEXT	ENDS
;	COMDAT text$x
text$x	SEGMENT
__unwindfunclet$?Create@CGraphicDevice@@QAEHPAUHWND__@@HH_NHH@Z$0:
  00000	8d 4d c0	 lea	 ecx, DWORD PTR _stDevList$[ebp]
  00003	e9 00 00 00 00	 jmp	 ??1?$basic_string@DU?$char_traits@D@std@@V?$allocator@D@2@@std@@QAE@XZ ; std::basic_string<char,std::char_traits<char>,std::allocator<char> >::~basic_string<char,std::char_traits<char>,std::allocator<char> >
__unwindfunclet$?Create@CGraphicDevice@@QAEHPAUHWND__@@HH_NHH@Z$1:
  00008	8d 4d d8	 lea	 ecx, DWORD PTR _stModeInfo$[ebp]
  0000b	e9 00 00 00 00	 jmp	 ??1?$basic_string@DU?$char_traits@D@std@@V?$allocator@D@2@@std@@QAE@XZ ; std::basic_string<char,std::char_traits<char>,std::allocator<char> >::~basic_string<char,std::char_traits<char>,std::allocator<char> >
__unwindfunclet$?Create@CGraphicDevice@@QAEHPAUHWND__@@HH_NHH@Z$2:
  00010	68 94 63 01 00	 push	 91028			; 00016394H
  00015	8b 45 ac	 mov	 eax, DWORD PTR $T2[ebp]
  00018	50		 push	 eax
  00019	e8 00 00 00 00	 call	 ??3@YAXPAXI@Z		; operator delete
  0001e	83 c4 08	 add	 esp, 8
  00021	c3		 ret	 0
  00022	cc		 int	 3
  00023	cc		 int	 3
  00024	cc		 int	 3
  00025	cc		 int	 3
  00026	cc		 int	 3
__ehhandler$?Create@CGraphicDevice@@QAEHPAUHWND__@@HH_NHH@Z:
  00027	90		 npad	 1
  00028	90		 npad	 1
  00029	8b 54 24 08	 mov	 edx, DWORD PTR [esp+8]
  0002d	8d 42 0c	 lea	 eax, DWORD PTR [edx+12]
  00030	8b 4a ac	 mov	 ecx, DWORD PTR [edx-84]
  00033	33 c8		 xor	 ecx, eax
  00035	e8 00 00 00 00	 call	 @__security_check_cookie@4
  0003a	8b 4a fc	 mov	 ecx, DWORD PTR [edx-4]
  0003d	33 c8		 xor	 ecx, eax
  0003f	e8 00 00 00 00	 call	 @__security_check_cookie@4
  00044	b8 00 00 00 00	 mov	 eax, OFFSET __ehfuncinfo$?Create@CGraphicDevice@@QAEHPAUHWND__@@HH_NHH@Z
  00049	e9 00 00 00 00	 jmp	 ___CxxFrameHandler3
text$x	ENDS
?Create@CGraphicDevice@@QAEHPAUHWND__@@HH_NHH@Z ENDP	; CGraphicDevice::Create
; Function compile flags: /Ogtp
; File C:\Users\flourine\Desktop\Xantios\client-src\Code\EterLib\GrpDevice.cpp
; File C:\Users\flourine\Desktop\Xantios\client-src\Code\eterBase\Stl.h
; File C:\Users\flourine\Desktop\Xantios\client-src\Code\EterLib\GrpDevice.cpp
; File C:\Users\flourine\Desktop\Xantios\client-src\Code\eterBase\Stl.h
; File C:\Users\flourine\Desktop\Xantios\client-src\Code\EterLib\GrpDevice.cpp
;	COMDAT ?Destroy@CGraphicDevice@@QAEXXZ
_TEXT	SEGMENT
?Destroy@CGraphicDevice@@QAEXXZ PROC			; CGraphicDevice::Destroy, COMDAT
; _this$ = ecx

; 857  : {

  00000	56		 push	 esi
  00001	8b f1		 mov	 esi, ecx

; 858  : 	__DestroyPDTVertexBufferList();

  00003	e8 00 00 00 00	 call	 ?__DestroyPDTVertexBufferList@CGraphicDevice@@IAEXXZ ; CGraphicDevice::__DestroyPDTVertexBufferList

; 859  : 	__DestroyDefaultIndexBufferList();

  00008	8b ce		 mov	 ecx, esi
  0000a	e8 00 00 00 00	 call	 ?__DestroyDefaultIndexBufferList@CGraphicDevice@@IAEXXZ ; CGraphicDevice::__DestroyDefaultIndexBufferList

; 860  : 
; 861  : 	if (ms_hDC)

  0000f	a1 00 00 00 00	 mov	 eax, DWORD PTR ?ms_hDC@CGraphicBase@@1PAUHDC__@@A ; CGraphicBase::ms_hDC
  00014	85 c0		 test	 eax, eax
  00016	74 17		 je	 SHORT $LN2@Destroy

; 862  : 	{
; 863  : 		ReleaseDC(ms_hWnd, ms_hDC);

  00018	50		 push	 eax
  00019	ff 35 00 00 00
	00		 push	 DWORD PTR ?ms_hWnd@CGraphicBase@@1PAUHWND__@@A ; CGraphicBase::ms_hWnd
  0001f	ff 15 00 00 00
	00		 call	 DWORD PTR __imp__ReleaseDC@8

; 864  : 		ms_hDC = nullptr;

  00025	c7 05 00 00 00
	00 00 00 00 00	 mov	 DWORD PTR ?ms_hDC@CGraphicBase@@1PAUHDC__@@A, 0 ; CGraphicBase::ms_hDC
$LN2@Destroy:
; File C:\Users\flourine\Desktop\Xantios\client-src\Code\eterBase\Stl.h

; 86   : 	if (!rpObject)

  0002f	8b 0d 00 00 00
	00		 mov	 ecx, DWORD PTR ?ms_lpSphereMesh@CGraphicBase@@1PAUID3DXMesh@@A ; CGraphicBase::ms_lpSphereMesh
; File C:\Users\flourine\Desktop\Xantios\client-src\Code\EterLib\GrpDevice.cpp

; 867  : 	if (ms_pntVS)

  00035	c7 05 00 00 00
	00 00 00 00 00	 mov	 DWORD PTR ?ms_pntVS@CGraphicBase@@1KA, 0 ; CGraphicBase::ms_pntVS

; 868  : 	{
; 869  : 		ms_pntVS = 0;
; 870  : 	}
; 871  : 
; 872  : 	if (ms_pnt2VS)

  0003f	c7 05 00 00 00
	00 00 00 00 00	 mov	 DWORD PTR ?ms_pnt2VS@CGraphicBase@@1KA, 0 ; CGraphicBase::ms_pnt2VS
; File C:\Users\flourine\Desktop\Xantios\client-src\Code\eterBase\Stl.h

; 86   : 	if (!rpObject)

  00049	85 c9		 test	 ecx, ecx
  0004b	74 10		 je	 SHORT $LN9@Destroy

; 87   : 		return;
; 88   : 
; 89   : 	rpObject->Release();

  0004d	8b 01		 mov	 eax, DWORD PTR [ecx]
  0004f	51		 push	 ecx
  00050	ff 50 08	 call	 DWORD PTR [eax+8]

; 90   : 	rpObject = NULL;

  00053	c7 05 00 00 00
	00 00 00 00 00	 mov	 DWORD PTR ?ms_lpSphereMesh@CGraphicBase@@1PAUID3DXMesh@@A, 0 ; CGraphicBase::ms_lpSphereMesh
$LN9@Destroy:

; 86   : 	if (!rpObject)

  0005d	8b 0d 00 00 00
	00		 mov	 ecx, DWORD PTR ?ms_lpCylinderMesh@CGraphicBase@@1PAUID3DXMesh@@A ; CGraphicBase::ms_lpCylinderMesh
  00063	85 c9		 test	 ecx, ecx
  00065	74 10		 je	 SHORT $LN12@Destroy

; 87   : 		return;
; 88   : 
; 89   : 	rpObject->Release();

  00067	8b 01		 mov	 eax, DWORD PTR [ecx]
  00069	51		 push	 ecx
  0006a	ff 50 08	 call	 DWORD PTR [eax+8]

; 90   : 	rpObject = NULL;

  0006d	c7 05 00 00 00
	00 00 00 00 00	 mov	 DWORD PTR ?ms_lpCylinderMesh@CGraphicBase@@1PAUID3DXMesh@@A, 0 ; CGraphicBase::ms_lpCylinderMesh
$LN12@Destroy:

; 86   : 	if (!rpObject)

  00077	8b 0d 00 00 00
	00		 mov	 ecx, DWORD PTR ?ms_lpd3dMatStack@CGraphicBase@@1PAUID3DXMatrixStack@@A ; CGraphicBase::ms_lpd3dMatStack
  0007d	85 c9		 test	 ecx, ecx
  0007f	74 10		 je	 SHORT $LN15@Destroy

; 87   : 		return;
; 88   : 
; 89   : 	rpObject->Release();

  00081	8b 01		 mov	 eax, DWORD PTR [ecx]
  00083	51		 push	 ecx
  00084	ff 50 08	 call	 DWORD PTR [eax+8]

; 90   : 	rpObject = NULL;

  00087	c7 05 00 00 00
	00 00 00 00 00	 mov	 DWORD PTR ?ms_lpd3dMatStack@CGraphicBase@@1PAUID3DXMatrixStack@@A, 0 ; CGraphicBase::ms_lpd3dMatStack
$LN15@Destroy:

; 86   : 	if (!rpObject)

  00091	8b 0d 00 00 00
	00		 mov	 ecx, DWORD PTR ?ms_lpd3dDevice@CGraphicBase@@1PAUIDirect3DDevice9@@A ; CGraphicBase::ms_lpd3dDevice
  00097	85 c9		 test	 ecx, ecx
  00099	74 10		 je	 SHORT $LN18@Destroy

; 87   : 		return;
; 88   : 
; 89   : 	rpObject->Release();

  0009b	8b 01		 mov	 eax, DWORD PTR [ecx]
  0009d	51		 push	 ecx
  0009e	ff 50 08	 call	 DWORD PTR [eax+8]

; 90   : 	rpObject = NULL;

  000a1	c7 05 00 00 00
	00 00 00 00 00	 mov	 DWORD PTR ?ms_lpd3dDevice@CGraphicBase@@1PAUIDirect3DDevice9@@A, 0 ; CGraphicBase::ms_lpd3dDevice
$LN18@Destroy:

; 86   : 	if (!rpObject)

  000ab	8b 0d 00 00 00
	00		 mov	 ecx, DWORD PTR ?ms_lpd3d@CGraphicBase@@1PAUIDirect3D9@@A ; CGraphicBase::ms_lpd3d
  000b1	85 c9		 test	 ecx, ecx
  000b3	74 10		 je	 SHORT $LN21@Destroy

; 87   : 		return;
; 88   : 
; 89   : 	rpObject->Release();

  000b5	8b 01		 mov	 eax, DWORD PTR [ecx]
  000b7	51		 push	 ecx
  000b8	ff 50 08	 call	 DWORD PTR [eax+8]

; 90   : 	rpObject = NULL;

  000bb	c7 05 00 00 00
	00 00 00 00 00	 mov	 DWORD PTR ?ms_lpd3d@CGraphicBase@@1PAUIDirect3D9@@A, 0 ; CGraphicBase::ms_lpd3d
$LN21@Destroy:
; File C:\Users\flourine\Desktop\Xantios\client-src\Code\EterLib\GrpDevice.cpp

; 884  : 	if (m_pStateManager)

  000c5	8b 4e 10	 mov	 ecx, DWORD PTR [esi+16]
  000c8	85 c9		 test	 ecx, ecx
  000ca	74 0d		 je	 SHORT $LN5@Destroy

; 885  : 	{
; 886  : 		delete m_pStateManager;

  000cc	8b 01		 mov	 eax, DWORD PTR [ecx]
  000ce	6a 01		 push	 1
  000d0	ff 10		 call	 DWORD PTR [eax]

; 887  : 		m_pStateManager = NULL;

  000d2	c7 46 10 00 00
	00 00		 mov	 DWORD PTR [esi+16], 0
$LN5@Destroy:

; 888  : 	}
; 889  : 
; 890  : 	__Initialize();

  000d9	8b ce		 mov	 ecx, esi
  000db	5e		 pop	 esi
  000dc	e9 00 00 00 00	 jmp	 ?__Initialize@CGraphicDevice@@IAEXXZ ; CGraphicDevice::__Initialize
?Destroy@CGraphicDevice@@QAEXXZ ENDP			; CGraphicDevice::Destroy
_TEXT	ENDS
; Function compile flags: /Ogtp
; File C:\Users\flourine\Desktop\Xantios\client-src\Code\EterLib\GrpDevice.cpp
;	COMDAT ?InitBackBufferCount@CGraphicDevice@@QAEXI@Z
_TEXT	SEGMENT
_uBackBufferCount$ = 8					; size = 4
?InitBackBufferCount@CGraphicDevice@@QAEXI@Z PROC	; CGraphicDevice::InitBackBufferCount, COMDAT
; _this$ = ecx

; 853  : {

  00000	55		 push	 ebp
  00001	8b ec		 mov	 ebp, esp

; 854  : 	m_uBackBufferCount = uBackBufferCount;

  00003	8b 45 08	 mov	 eax, DWORD PTR _uBackBufferCount$[ebp]
  00006	89 41 04	 mov	 DWORD PTR [ecx+4], eax

; 855  : }

  00009	5d		 pop	 ebp
  0000a	c2 04 00	 ret	 4
?InitBackBufferCount@CGraphicDevice@@QAEXI@Z ENDP	; CGraphicDevice::InitBackBufferCount
_TEXT	ENDS
; Function compile flags: /Ogtp
; File C:\Users\flourine\Desktop\Xantios\client-src\Code\EterLib\GrpDevice.cpp
; File C:\Program Files\Microsoft Visual Studio\2022\Community\VC\Tools\MSVC\14.34.31933\include\xtree
; File C:\Users\flourine\Desktop\Xantios\client-src\Code\EterLib\GrpDevice.cpp
; File C:\Program Files\Microsoft Visual Studio\2022\Community\VC\Tools\MSVC\14.34.31933\include\xtree
; File C:\Program Files\Microsoft Visual Studio\2022\Community\VC\Tools\MSVC\14.34.31933\include\xmemory
; File C:\Users\flourine\Desktop\Xantios\client-src\Code\EterLib\GrpDevice.cpp
;	COMDAT ??1CGraphicDevice@@UAE@XZ
_TEXT	SEGMENT
__$EHRec$ = -12						; size = 12
??1CGraphicDevice@@UAE@XZ PROC				; CGraphicDevice::~CGraphicDevice, COMDAT
; _this$ = ecx

; 23   : {

  00000	55		 push	 ebp
  00001	8b ec		 mov	 ebp, esp
  00003	6a ff		 push	 -1
  00005	68 00 00 00 00	 push	 __ehhandler$??1CGraphicDevice@@UAE@XZ
  0000a	64 a1 00 00 00
	00		 mov	 eax, DWORD PTR fs:0
  00010	50		 push	 eax
  00011	56		 push	 esi
  00012	57		 push	 edi
  00013	a1 00 00 00 00	 mov	 eax, DWORD PTR ___security_cookie
  00018	33 c5		 xor	 eax, ebp
  0001a	50		 push	 eax
  0001b	8d 45 f4	 lea	 eax, DWORD PTR __$EHRec$[ebp]
  0001e	64 a3 00 00 00
	00		 mov	 DWORD PTR fs:0, eax
  00024	8b f9		 mov	 edi, ecx
  00026	c7 07 00 00 00
	00		 mov	 DWORD PTR [edi], OFFSET ??_7CGraphicDevice@@6B@

; 24   : 	Destroy();

  0002c	e8 00 00 00 00	 call	 ?Destroy@CGraphicDevice@@QAEXXZ ; CGraphicDevice::Destroy
; File C:\Program Files\Microsoft Visual Studio\2022\Community\VC\Tools\MSVC\14.34.31933\include\xtree

; 754  :         _Erase_tree(_Al, _Myhead->_Parent);

  00031	8b 47 08	 mov	 eax, DWORD PTR [edi+8]
; File C:\Users\flourine\Desktop\Xantios\client-src\Code\EterLib\GrpDevice.cpp

; 25   : }

  00034	8d 77 08	 lea	 esi, DWORD PTR [edi+8]
; File C:\Program Files\Microsoft Visual Studio\2022\Community\VC\Tools\MSVC\14.34.31933\include\xtree

; 754  :         _Erase_tree(_Al, _Myhead->_Parent);

  00037	8b ce		 mov	 ecx, esi
  00039	ff 70 04	 push	 DWORD PTR [eax+4]
  0003c	56		 push	 esi
  0003d	e8 00 00 00 00	 call	 ??$_Erase_tree@V?$allocator@U?$_Tree_node@U?$pair@$$CBIV?$basic_string@DU?$char_traits@D@std@@V?$allocator@D@2@@std@@@std@@PAX@std@@@std@@@?$_Tree_val@U?$_Tree_simple_types@U?$pair@$$CBIV?$basic_string@DU?$char_traits@D@std@@V?$allocator@D@2@@std@@@std@@@std@@@std@@QAEXAAV?$allocator@U?$_Tree_node@U?$pair@$$CBIV?$basic_string@DU?$char_traits@D@std@@V?$allocator@D@2@@std@@@std@@PAX@std@@@1@PAU?$_Tree_node@U?$pair@$$CBIV?$basic_string@DU?$char_traits@D@std@@V?$allocator@D@2@@std@@@std@@PAX@1@@Z ; std::_Tree_val<std::_Tree_simple_types<std::pair<unsigned int const ,std::basic_string<char,std::char_traits<char>,std::allocator<char> > > > >::_Erase_tree<std::allocator<std::_Tree_node<std::pair<unsigned int const ,std::basic_string<char,std::char_traits<char>,std::allocator<char> > >,void *> > >
; File C:\Program Files\Microsoft Visual Studio\2022\Community\VC\Tools\MSVC\14.34.31933\include\xmemory

; 255  :         ::operator delete(_Ptr, _Bytes);

  00042	6a 2c		 push	 44			; 0000002cH
  00044	ff 36		 push	 DWORD PTR [esi]
  00046	e8 00 00 00 00	 call	 ??3@YAXPAXI@Z		; operator delete
  0004b	83 c4 08	 add	 esp, 8
; File C:\Users\flourine\Desktop\Xantios\client-src\Code\EterLib\GrpDevice.cpp

; 25   : }

  0004e	8b cf		 mov	 ecx, edi
  00050	e8 00 00 00 00	 call	 ??1CGraphicBase@@UAE@XZ	; CGraphicBase::~CGraphicBase
  00055	8b 4d f4	 mov	 ecx, DWORD PTR __$EHRec$[ebp]
  00058	64 89 0d 00 00
	00 00		 mov	 DWORD PTR fs:0, ecx
  0005f	59		 pop	 ecx
  00060	5f		 pop	 edi
  00061	5e		 pop	 esi
  00062	8b e5		 mov	 esp, ebp
  00064	5d		 pop	 ebp
  00065	c3		 ret	 0
  00066	cc		 int	 3
  00067	cc		 int	 3
  00068	cc		 int	 3
  00069	cc		 int	 3
  0006a	cc		 int	 3
_TEXT	ENDS
;	COMDAT text$x
text$x	SEGMENT
__ehhandler$??1CGraphicDevice@@UAE@XZ:
  00000	90		 npad	 1
  00001	90		 npad	 1
  00002	8b 54 24 08	 mov	 edx, DWORD PTR [esp+8]
  00006	8d 42 0c	 lea	 eax, DWORD PTR [edx+12]
  00009	8b 4a f4	 mov	 ecx, DWORD PTR [edx-12]
  0000c	33 c8		 xor	 ecx, eax
  0000e	e8 00 00 00 00	 call	 @__security_check_cookie@4
  00013	b8 00 00 00 00	 mov	 eax, OFFSET __ehfuncinfo$??1CGraphicDevice@@UAE@XZ
  00018	e9 00 00 00 00	 jmp	 ___CxxFrameHandler3
text$x	ENDS
??1CGraphicDevice@@UAE@XZ ENDP				; CGraphicDevice::~CGraphicDevice
; Function compile flags: /Ogtp
; File C:\Users\flourine\Desktop\Xantios\client-src\Code\EterLib\GrpDevice.cpp
; File C:\Program Files\Microsoft Visual Studio\2022\Community\VC\Tools\MSVC\14.34.31933\include\xmemory
; File C:\Users\flourine\Desktop\Xantios\client-src\Code\EterLib\GrpDevice.cpp
; File C:\Program Files\Microsoft Visual Studio\2022\Community\VC\Tools\MSVC\14.34.31933\include\xtree
; File C:\Program Files\Microsoft Visual Studio\2022\Community\VC\Tools\MSVC\14.34.31933\include\xmemory
; File C:\Users\flourine\Desktop\Xantios\client-src\Code\EterLib\GrpDevice.cpp
; File C:\Program Files\Microsoft Visual Studio\2022\Community\VC\Tools\MSVC\14.34.31933\include\xtree
; File C:\Users\flourine\Desktop\Xantios\client-src\Code\EterLib\GrpDevice.cpp
;	COMDAT ??0CGraphicDevice@@QAE@XZ
_TEXT	SEGMENT
_this$ = -20						; size = 4
_this$ = -16						; size = 4
__$EHRec$ = -12						; size = 12
??0CGraphicDevice@@QAE@XZ PROC				; CGraphicDevice::CGraphicDevice, COMDAT
; _this$ = ecx

; 18   : {

  00000	55		 push	 ebp
  00001	8b ec		 mov	 ebp, esp
  00003	6a ff		 push	 -1
  00005	68 00 00 00 00	 push	 __ehhandler$??0CGraphicDevice@@QAE@XZ
  0000a	64 a1 00 00 00
	00		 mov	 eax, DWORD PTR fs:0
  00010	50		 push	 eax
  00011	83 ec 08	 sub	 esp, 8
  00014	56		 push	 esi
  00015	57		 push	 edi
  00016	a1 00 00 00 00	 mov	 eax, DWORD PTR ___security_cookie
  0001b	33 c5		 xor	 eax, ebp
  0001d	50		 push	 eax
  0001e	8d 45 f4	 lea	 eax, DWORD PTR __$EHRec$[ebp]
  00021	64 a3 00 00 00
	00		 mov	 DWORD PTR fs:0, eax
  00027	8b f9		 mov	 edi, ecx
  00029	89 7d f0	 mov	 DWORD PTR _this$[ebp], edi
  0002c	e8 00 00 00 00	 call	 ??0CGraphicBase@@QAE@XZ	; CGraphicBase::CGraphicBase
  00031	8d 77 08	 lea	 esi, DWORD PTR [edi+8]
  00034	c7 07 00 00 00
	00		 mov	 DWORD PTR [edi], OFFSET ??_7CGraphicDevice@@6B@
  0003a	c7 47 04 00 00
	00 00		 mov	 DWORD PTR [edi+4], 0
; File C:\Program Files\Microsoft Visual Studio\2022\Community\VC\Tools\MSVC\14.34.31933\include\xmemory

; 77   :         return ::operator new(_Bytes);

  00041	6a 2c		 push	 44			; 0000002cH
; File C:\Users\flourine\Desktop\Xantios\client-src\Code\EterLib\GrpDevice.cpp

; 18   : {

  00043	c7 45 fc 00 00
	00 00		 mov	 DWORD PTR __$EHRec$[ebp+8], 0
  0004a	89 75 ec	 mov	 DWORD PTR _this$[ebp], esi
; File C:\Program Files\Microsoft Visual Studio\2022\Community\VC\Tools\MSVC\14.34.31933\include\xtree

; 437  :     _Tree_val() noexcept : _Myhead(), _Mysize(0) {}

  0004d	c7 06 00 00 00
	00		 mov	 DWORD PTR [esi], 0
  00053	c7 46 04 00 00
	00 00		 mov	 DWORD PTR [esi+4], 0
; File C:\Program Files\Microsoft Visual Studio\2022\Community\VC\Tools\MSVC\14.34.31933\include\xmemory

; 77   :         return ::operator new(_Bytes);

  0005a	e8 00 00 00 00	 call	 ??2@YAPAXI@Z		; operator new
  0005f	83 c4 04	 add	 esp, 4
; File C:\Users\flourine\Desktop\Xantios\client-src\Code\EterLib\GrpDevice.cpp

; 19   : 	__Initialize();

  00062	8b cf		 mov	 ecx, edi
; File C:\Program Files\Microsoft Visual Studio\2022\Community\VC\Tools\MSVC\14.34.31933\include\xtree

; 347  :         _Construct_in_place(_Pnode->_Left, _Pnode);

  00064	89 00		 mov	 DWORD PTR [eax], eax

; 348  :         _Construct_in_place(_Pnode->_Parent, _Pnode);

  00066	89 40 04	 mov	 DWORD PTR [eax+4], eax

; 349  :         _Construct_in_place(_Pnode->_Right, _Pnode);

  00069	89 40 08	 mov	 DWORD PTR [eax+8], eax

; 350  :         _Pnode->_Color = _Black;

  0006c	66 c7 40 0c 01
	01		 mov	 WORD PTR [eax+12], 257	; 00000101H

; 1941 :         _Scary->_Myhead = _Node::_Buyheadnode(_Getal());

  00072	89 06		 mov	 DWORD PTR [esi], eax
; File C:\Users\flourine\Desktop\Xantios\client-src\Code\EterLib\GrpDevice.cpp

; 19   : 	__Initialize();

  00074	e8 00 00 00 00	 call	 ?__Initialize@CGraphicDevice@@IAEXXZ ; CGraphicDevice::__Initialize

; 20   : }

  00079	8b c7		 mov	 eax, edi
  0007b	8b 4d f4	 mov	 ecx, DWORD PTR __$EHRec$[ebp]
  0007e	64 89 0d 00 00
	00 00		 mov	 DWORD PTR fs:0, ecx
  00085	59		 pop	 ecx
  00086	5f		 pop	 edi
  00087	5e		 pop	 esi
  00088	8b e5		 mov	 esp, ebp
  0008a	5d		 pop	 ebp
  0008b	c3		 ret	 0
_TEXT	ENDS
;	COMDAT text$x
text$x	SEGMENT
__unwindfunclet$??0CGraphicDevice@@QAE@XZ$0:
  00000	8b 4d f0	 mov	 ecx, DWORD PTR _this$[ebp]
  00003	e9 00 00 00 00	 jmp	 ??1CGraphicBase@@UAE@XZ	; CGraphicBase::~CGraphicBase
  00008	cc		 int	 3
  00009	cc		 int	 3
  0000a	cc		 int	 3
  0000b	cc		 int	 3
  0000c	cc		 int	 3
__ehhandler$??0CGraphicDevice@@QAE@XZ:
  0000d	90		 npad	 1
  0000e	90		 npad	 1
  0000f	8b 54 24 08	 mov	 edx, DWORD PTR [esp+8]
  00013	8d 42 0c	 lea	 eax, DWORD PTR [edx+12]
  00016	8b 4a ec	 mov	 ecx, DWORD PTR [edx-20]
  00019	33 c8		 xor	 ecx, eax
  0001b	e8 00 00 00 00	 call	 @__security_check_cookie@4
  00020	b8 00 00 00 00	 mov	 eax, OFFSET __ehfuncinfo$??0CGraphicDevice@@QAE@XZ
  00025	e9 00 00 00 00	 jmp	 ___CxxFrameHandler3
text$x	ENDS
??0CGraphicDevice@@QAE@XZ ENDP				; CGraphicDevice::CGraphicDevice
; Function compile flags: /Ogtp
; File C:\Program Files\Microsoft Visual Studio\2022\Community\VC\Tools\MSVC\14.34.31933\include\xmemory
;	COMDAT ??$_Allocate_manually_vector_aligned@U_Default_allocate_traits@std@@@std@@YAPAXI@Z
_TEXT	SEGMENT
__Bytes$ = 8						; size = 4
??$_Allocate_manually_vector_aligned@U_Default_allocate_traits@std@@@std@@YAPAXI@Z PROC ; std::_Allocate_manually_vector_aligned<std::_Default_allocate_traits>, COMDAT

; 127  : __declspec(allocator) void* _Allocate_manually_vector_aligned(const size_t _Bytes) {

  00000	55		 push	 ebp
  00001	8b ec		 mov	 ebp, esp

; 128  :     // allocate _Bytes manually aligned to at least _Big_allocation_alignment
; 129  :     const size_t _Block_size = _Non_user_size + _Bytes;

  00003	8b 45 08	 mov	 eax, DWORD PTR __Bytes$[ebp]
  00006	8d 48 23	 lea	 ecx, DWORD PTR [eax+35]

; 130  :     if (_Block_size <= _Bytes) {

  00009	3b c8		 cmp	 ecx, eax
  0000b	0f 86 00 00 00
	00		 jbe	 ?_Throw_bad_array_new_length@std@@YAXXZ ; std::_Throw_bad_array_new_length

; 77   :         return ::operator new(_Bytes);

  00011	51		 push	 ecx
  00012	e8 00 00 00 00	 call	 ??2@YAPAXI@Z		; operator new

; 131  :         _Throw_bad_array_new_length(); // add overflow
; 132  :     }
; 133  : 
; 134  :     const uintptr_t _Ptr_container = reinterpret_cast<uintptr_t>(_Traits::_Allocate(_Block_size));

  00017	8b c8		 mov	 ecx, eax

; 77   :         return ::operator new(_Bytes);

  00019	83 c4 04	 add	 esp, 4

; 135  :     _STL_VERIFY(_Ptr_container != 0, "invalid argument"); // validate even in release since we're doing p[-1]

  0001c	85 c9		 test	 ecx, ecx
  0001e	74 0b		 je	 SHORT $LN7@Allocate_m

; 136  :     void* const _Ptr = reinterpret_cast<void*>((_Ptr_container + _Non_user_size) & ~(_Big_allocation_alignment - 1));

  00020	8d 41 23	 lea	 eax, DWORD PTR [ecx+35]
  00023	83 e0 e0	 and	 eax, -32		; ffffffe0H

; 137  :     static_cast<uintptr_t*>(_Ptr)[-1] = _Ptr_container;

  00026	89 48 fc	 mov	 DWORD PTR [eax-4], ecx

; 138  : 
; 139  : #ifdef _DEBUG
; 140  :     static_cast<uintptr_t*>(_Ptr)[-2] = _Big_allocation_sentinel;
; 141  : #endif // _DEBUG
; 142  :     return _Ptr;
; 143  : }

  00029	5d		 pop	 ebp
  0002a	c3		 ret	 0
$LN7@Allocate_m:

; 135  :     _STL_VERIFY(_Ptr_container != 0, "invalid argument"); // validate even in release since we're doing p[-1]

  0002b	e9 00 00 00 00	 jmp	 __invalid_parameter_noinfo_noreturn
??$_Allocate_manually_vector_aligned@U_Default_allocate_traits@std@@@std@@YAPAXI@Z ENDP ; std::_Allocate_manually_vector_aligned<std::_Default_allocate_traits>
_TEXT	ENDS
; Function compile flags: /Ogtp
; File C:\Program Files\Microsoft Visual Studio\2022\Community\VC\Tools\MSVC\14.34.31933\include\xtree
;	COMDAT ?_Throw_tree_length_error@std@@YAXXZ
_TEXT	SEGMENT
?_Throw_tree_length_error@std@@YAXXZ PROC		; std::_Throw_tree_length_error, COMDAT

; 418  :     _Xlength_error("map/set too long");

  00000	68 00 00 00 00	 push	 OFFSET ??_C@_0BB@GCADKGJO@map?1set?5too?5long@
  00005	e8 00 00 00 00	 call	 ?_Xlength_error@std@@YAXPBD@Z ; std::_Xlength_error
$LN3@Throw_tree:
  0000a	cc		 int	 3
?_Throw_tree_length_error@std@@YAXXZ ENDP		; std::_Throw_tree_length_error
_TEXT	ENDS
; Function compile flags: /Ogtp
; File C:\Program Files\Microsoft Visual Studio\2022\Community\VC\Tools\MSVC\14.34.31933\include\xstring
; File C:\Program Files\Microsoft Visual Studio\2022\Community\VC\Tools\MSVC\14.34.31933\include\xmemory
; File C:\Program Files\Microsoft Visual Studio\2022\Community\VC\Tools\MSVC\14.34.31933\include\xstring
; File C:\Program Files\Microsoft Visual Studio\2022\Community\VC\Tools\MSVC\14.34.31933\include\xmemory
; File C:\Program Files\Microsoft Visual Studio\2022\Community\VC\Tools\MSVC\14.34.31933\include\xstring
; File C:\Program Files\Microsoft Visual Studio\2022\Community\VC\Tools\MSVC\14.34.31933\include\xmemory
; File C:\Program Files\Microsoft Visual Studio\2022\Community\VC\Tools\MSVC\14.34.31933\include\xstring
;	COMDAT ??1?$basic_string@DU?$char_traits@D@std@@V?$allocator@D@2@@std@@QAE@XZ
_TEXT	SEGMENT
??1?$basic_string@DU?$char_traits@D@std@@V?$allocator@D@2@@std@@QAE@XZ PROC ; std::basic_string<char,std::char_traits<char>,std::allocator<char> >::~basic_string<char,std::char_traits<char>,std::allocator<char> >, COMDAT
; _this$ = ecx

; 3270 :     _CONSTEXPR20 ~basic_string() noexcept {

  00000	56		 push	 esi
  00001	8b f1		 mov	 esi, ecx

; 2301 :         return _BUF_SIZE <= _Myres;

  00003	8b 4e 14	 mov	 ecx, DWORD PTR [esi+20]
  00006	83 f9 10	 cmp	 ecx, 16			; 00000010H

; 5011 :         if (_My_data._Large_string_engaged()) {

  00009	72 27		 jb	 SHORT $LN12@basic_stri
; File C:\Program Files\Microsoft Visual Studio\2022\Community\VC\Tools\MSVC\14.34.31933\include\xmemory

; 830  :         _Deallocate<_New_alignof<_Ty>>(_Ptr, sizeof(_Ty) * _Count);

  0000b	8b 06		 mov	 eax, DWORD PTR [esi]
; File C:\Program Files\Microsoft Visual Studio\2022\Community\VC\Tools\MSVC\14.34.31933\include\xstring

; 5016 :             _Al.deallocate(_Ptr, _My_data._Myres + 1);

  0000d	41		 inc	 ecx
; File C:\Program Files\Microsoft Visual Studio\2022\Community\VC\Tools\MSVC\14.34.31933\include\xmemory

; 251  :         if (_Bytes >= _Big_allocation_threshold) { // boost the alignment of big allocations to help autovectorization

  0000e	81 f9 00 10 00
	00		 cmp	 ecx, 4096		; 00001000H
  00014	72 12		 jb	 SHORT $LN22@basic_stri

; 150  :     const uintptr_t _Ptr_container   = _Ptr_user[-1];

  00016	8b 50 fc	 mov	 edx, DWORD PTR [eax-4]
  00019	83 c1 23	 add	 ecx, 35			; 00000023H

; 151  : 
; 152  :     // If the following asserts, it likely means that we are performing
; 153  :     // an aligned delete on memory coming from an unaligned allocation.
; 154  :     _STL_ASSERT(_Ptr_user[-2] == _Big_allocation_sentinel, "invalid argument");
; 155  : 
; 156  :     // Extra paranoia on aligned allocation/deallocation; ensure _Ptr_container is
; 157  :     // in range [_Min_back_shift, _Non_user_size]
; 158  : #ifdef _DEBUG
; 159  :     constexpr uintptr_t _Min_back_shift = 2 * sizeof(void*);
; 160  : #else // ^^^ _DEBUG ^^^ // vvv !_DEBUG vvv
; 161  :     constexpr uintptr_t _Min_back_shift = sizeof(void*);
; 162  : #endif // _DEBUG
; 163  :     const uintptr_t _Back_shift = reinterpret_cast<uintptr_t>(_Ptr) - _Ptr_container;

  0001c	2b c2		 sub	 eax, edx

; 164  :     _STL_VERIFY(_Back_shift >= _Min_back_shift && _Back_shift <= _Non_user_size, "invalid argument");

  0001e	83 c0 fc	 add	 eax, -4			; fffffffcH
  00021	83 f8 1f	 cmp	 eax, 31			; 0000001fH
  00024	77 1f		 ja	 SHORT $LN19@basic_stri

; 165  :     _Ptr = reinterpret_cast<void*>(_Ptr_container);

  00026	8b c2		 mov	 eax, edx
$LN22@basic_stri:

; 255  :         ::operator delete(_Ptr, _Bytes);

  00028	51		 push	 ecx
  00029	50		 push	 eax
  0002a	e8 00 00 00 00	 call	 ??3@YAXPAXI@Z		; operator delete
  0002f	83 c4 08	 add	 esp, 8
$LN12@basic_stri:
; File C:\Program Files\Microsoft Visual Studio\2022\Community\VC\Tools\MSVC\14.34.31933\include\xstring

; 5019 :         _My_data._Mysize = 0;

  00032	c7 46 10 00 00
	00 00		 mov	 DWORD PTR [esi+16], 0

; 5020 :         _My_data._Myres  = _BUF_SIZE - 1;

  00039	c7 46 14 0f 00
	00 00		 mov	 DWORD PTR [esi+20], 15	; 0000000fH

; 5021 :         // the _Traits::assign is last so the codegen doesn't think the char write can alias this
; 5022 :         _Traits::assign(_My_data._Bx._Buf[0], _Elem());

  00040	c6 06 00	 mov	 BYTE PTR [esi], 0
  00043	5e		 pop	 esi

; 3278 :     }

  00044	c3		 ret	 0
$LN19@basic_stri:
; File C:\Program Files\Microsoft Visual Studio\2022\Community\VC\Tools\MSVC\14.34.31933\include\xmemory

; 164  :     _STL_VERIFY(_Back_shift >= _Min_back_shift && _Back_shift <= _Non_user_size, "invalid argument");

  00045	e8 00 00 00 00	 call	 __invalid_parameter_noinfo_noreturn
$LN27@basic_stri:
  0004a	cc		 int	 3
??1?$basic_string@DU?$char_traits@D@std@@V?$allocator@D@2@@std@@QAE@XZ ENDP ; std::basic_string<char,std::char_traits<char>,std::allocator<char> >::~basic_string<char,std::char_traits<char>,std::allocator<char> >
_TEXT	ENDS
; Function compile flags: /Ogtp
; File C:\Program Files\Microsoft Visual Studio\2022\Community\VC\Tools\MSVC\14.34.31933\include\xstring
;	COMDAT ?_Xlen_string@std@@YAXXZ
_TEXT	SEGMENT
?_Xlen_string@std@@YAXXZ PROC				; std::_Xlen_string, COMDAT

; 2368 :     _Xlength_error("string too long");

  00000	68 00 00 00 00	 push	 OFFSET ??_C@_0BA@JFNIOLAK@string?5too?5long@
  00005	e8 00 00 00 00	 call	 ?_Xlength_error@std@@YAXPBD@Z ; std::_Xlength_error
$LN3@Xlen_strin:
  0000a	cc		 int	 3
?_Xlen_string@std@@YAXXZ ENDP				; std::_Xlen_string
_TEXT	ENDS
; Function compile flags: /Ogtp
; File C:\Program Files\Microsoft Visual Studio\2022\Community\VC\Tools\MSVC\14.34.31933\include\exception
;	COMDAT ?_Throw_bad_array_new_length@std@@YAXXZ
_TEXT	SEGMENT
$T1 = -12						; size = 12
?_Throw_bad_array_new_length@std@@YAXXZ PROC		; std::_Throw_bad_array_new_length, COMDAT

; 323  : [[noreturn]] inline void _Throw_bad_array_new_length() {

  00000	55		 push	 ebp
  00001	8b ec		 mov	 ebp, esp
  00003	83 ec 0c	 sub	 esp, 12			; 0000000cH

; 324  :     _THROW(bad_array_new_length{});

  00006	8d 4d f4	 lea	 ecx, DWORD PTR $T1[ebp]
  00009	e8 00 00 00 00	 call	 ??0bad_array_new_length@std@@QAE@XZ ; std::bad_array_new_length::bad_array_new_length
  0000e	68 00 00 00 00	 push	 OFFSET __TI3?AVbad_array_new_length@std@@
  00013	8d 45 f4	 lea	 eax, DWORD PTR $T1[ebp]
  00016	50		 push	 eax
  00017	e8 00 00 00 00	 call	 __CxxThrowException@8
$LN3@Throw_bad_:
  0001c	cc		 int	 3
?_Throw_bad_array_new_length@std@@YAXXZ ENDP		; std::_Throw_bad_array_new_length
_TEXT	ENDS
; Function compile flags: /Ogtp
; File C:\Program Files\Microsoft Visual Studio\2022\Community\VC\Tools\MSVC\14.34.31933\include\vcruntime_exception.h
;	COMDAT ??_Gbad_array_new_length@std@@UAEPAXI@Z
_TEXT	SEGMENT
___flags$ = 8						; size = 4
??_Gbad_array_new_length@std@@UAEPAXI@Z PROC		; std::bad_array_new_length::`scalar deleting destructor', COMDAT
; _this$ = ecx
  00000	55		 push	 ebp
  00001	8b ec		 mov	 ebp, esp

; 89   :     {

  00003	56		 push	 esi
  00004	8b f1		 mov	 esi, ecx

; 90   :         __std_exception_destroy(&_Data);

  00006	8d 46 04	 lea	 eax, DWORD PTR [esi+4]
  00009	c7 06 00 00 00
	00		 mov	 DWORD PTR [esi], OFFSET ??_7exception@std@@6B@
  0000f	50		 push	 eax
  00010	e8 00 00 00 00	 call	 ___std_exception_destroy
  00015	83 c4 04	 add	 esp, 4
  00018	f6 45 08 01	 test	 BYTE PTR ___flags$[ebp], 1
  0001c	74 0b		 je	 SHORT $LN12@scalar
  0001e	6a 0c		 push	 12			; 0000000cH
  00020	56		 push	 esi
  00021	e8 00 00 00 00	 call	 ??3@YAXPAXI@Z		; operator delete
  00026	83 c4 08	 add	 esp, 8
$LN12@scalar:
  00029	8b c6		 mov	 eax, esi
  0002b	5e		 pop	 esi
  0002c	5d		 pop	 ebp
  0002d	c2 04 00	 ret	 4
??_Gbad_array_new_length@std@@UAEPAXI@Z ENDP		; std::bad_array_new_length::`scalar deleting destructor'
_TEXT	ENDS
; Function compile flags: /Ogtp
; File C:\Program Files\Microsoft Visual Studio\2022\Community\VC\Tools\MSVC\14.34.31933\include\vcruntime_exception.h
;	COMDAT ??0bad_array_new_length@std@@QAE@ABV01@@Z
_TEXT	SEGMENT
___that$ = 8						; size = 4
??0bad_array_new_length@std@@QAE@ABV01@@Z PROC		; std::bad_array_new_length::bad_array_new_length, COMDAT
; _this$ = ecx
  00000	55		 push	 ebp
  00001	8b ec		 mov	 ebp, esp

; 72   :     {

  00003	56		 push	 esi
  00004	8b f1		 mov	 esi, ecx
  00006	0f 57 c0	 xorps	 xmm0, xmm0

; 71   :         : _Data()

  00009	8d 46 04	 lea	 eax, DWORD PTR [esi+4]

; 73   :         __std_exception_copy(&_Other._Data, &_Data);

  0000c	50		 push	 eax
  0000d	c7 06 00 00 00
	00		 mov	 DWORD PTR [esi], OFFSET ??_7exception@std@@6B@
  00013	66 0f d6 00	 movq	 QWORD PTR [eax], xmm0
  00017	8b 45 08	 mov	 eax, DWORD PTR ___that$[ebp]
  0001a	83 c0 04	 add	 eax, 4
  0001d	50		 push	 eax
  0001e	e8 00 00 00 00	 call	 ___std_exception_copy
  00023	83 c4 08	 add	 esp, 8
  00026	c7 06 00 00 00
	00		 mov	 DWORD PTR [esi], OFFSET ??_7bad_array_new_length@std@@6B@
  0002c	8b c6		 mov	 eax, esi
  0002e	5e		 pop	 esi
  0002f	5d		 pop	 ebp
  00030	c2 04 00	 ret	 4
??0bad_array_new_length@std@@QAE@ABV01@@Z ENDP		; std::bad_array_new_length::bad_array_new_length
_TEXT	ENDS
; Function compile flags: /Ogtp
; File C:\Program Files\Microsoft Visual Studio\2022\Community\VC\Tools\MSVC\14.34.31933\include\vcruntime_exception.h
;	COMDAT ??1bad_array_new_length@std@@UAE@XZ
_TEXT	SEGMENT
??1bad_array_new_length@std@@UAE@XZ PROC		; std::bad_array_new_length::~bad_array_new_length, COMDAT
; _this$ = ecx

; 90   :         __std_exception_destroy(&_Data);

  00000	8d 41 04	 lea	 eax, DWORD PTR [ecx+4]
  00003	c7 01 00 00 00
	00		 mov	 DWORD PTR [ecx], OFFSET ??_7exception@std@@6B@
  00009	50		 push	 eax
  0000a	e8 00 00 00 00	 call	 ___std_exception_destroy
  0000f	59		 pop	 ecx
  00010	c3		 ret	 0
??1bad_array_new_length@std@@UAE@XZ ENDP		; std::bad_array_new_length::~bad_array_new_length
_TEXT	ENDS
; Function compile flags: /Ogtp
; File C:\Program Files\Microsoft Visual Studio\2022\Community\VC\Tools\MSVC\14.34.31933\include\vcruntime_exception.h
;	COMDAT ??0bad_array_new_length@std@@QAE@XZ
_TEXT	SEGMENT
??0bad_array_new_length@std@@QAE@XZ PROC		; std::bad_array_new_length::bad_array_new_length, COMDAT
; _this$ = ecx

; 141  :     {

  00000	0f 57 c0	 xorps	 xmm0, xmm0

; 142  :     }

  00003	8b c1		 mov	 eax, ecx

; 65   :         : _Data()

  00005	66 0f d6 41 04	 movq	 QWORD PTR [ecx+4], xmm0

; 66   :     {
; 67   :         _Data._What = _Message;

  0000a	c7 41 04 00 00
	00 00		 mov	 DWORD PTR [ecx+4], OFFSET ??_C@_0BF@KINCDENJ@bad?5array?5new?5length@

; 141  :     {

  00011	c7 01 00 00 00
	00		 mov	 DWORD PTR [ecx], OFFSET ??_7bad_array_new_length@std@@6B@

; 142  :     }

  00017	c3		 ret	 0
??0bad_array_new_length@std@@QAE@XZ ENDP		; std::bad_array_new_length::bad_array_new_length
_TEXT	ENDS
; Function compile flags: /Ogtp
; File C:\Program Files\Microsoft Visual Studio\2022\Community\VC\Tools\MSVC\14.34.31933\include\vcruntime_exception.h
;	COMDAT ??_Gbad_alloc@std@@UAEPAXI@Z
_TEXT	SEGMENT
___flags$ = 8						; size = 4
??_Gbad_alloc@std@@UAEPAXI@Z PROC			; std::bad_alloc::`scalar deleting destructor', COMDAT
; _this$ = ecx
  00000	55		 push	 ebp
  00001	8b ec		 mov	 ebp, esp

; 89   :     {

  00003	56		 push	 esi
  00004	8b f1		 mov	 esi, ecx

; 90   :         __std_exception_destroy(&_Data);

  00006	8d 46 04	 lea	 eax, DWORD PTR [esi+4]
  00009	c7 06 00 00 00
	00		 mov	 DWORD PTR [esi], OFFSET ??_7exception@std@@6B@
  0000f	50		 push	 eax
  00010	e8 00 00 00 00	 call	 ___std_exception_destroy
  00015	83 c4 04	 add	 esp, 4
  00018	f6 45 08 01	 test	 BYTE PTR ___flags$[ebp], 1
  0001c	74 0b		 je	 SHORT $LN9@scalar
  0001e	6a 0c		 push	 12			; 0000000cH
  00020	56		 push	 esi
  00021	e8 00 00 00 00	 call	 ??3@YAXPAXI@Z		; operator delete
  00026	83 c4 08	 add	 esp, 8
$LN9@scalar:
  00029	8b c6		 mov	 eax, esi
  0002b	5e		 pop	 esi
  0002c	5d		 pop	 ebp
  0002d	c2 04 00	 ret	 4
??_Gbad_alloc@std@@UAEPAXI@Z ENDP			; std::bad_alloc::`scalar deleting destructor'
_TEXT	ENDS
; Function compile flags: /Ogtp
; File C:\Program Files\Microsoft Visual Studio\2022\Community\VC\Tools\MSVC\14.34.31933\include\vcruntime_exception.h
;	COMDAT ??0bad_alloc@std@@QAE@ABV01@@Z
_TEXT	SEGMENT
___that$ = 8						; size = 4
??0bad_alloc@std@@QAE@ABV01@@Z PROC			; std::bad_alloc::bad_alloc, COMDAT
; _this$ = ecx
  00000	55		 push	 ebp
  00001	8b ec		 mov	 ebp, esp

; 72   :     {

  00003	56		 push	 esi
  00004	8b f1		 mov	 esi, ecx
  00006	0f 57 c0	 xorps	 xmm0, xmm0

; 71   :         : _Data()

  00009	8d 46 04	 lea	 eax, DWORD PTR [esi+4]

; 73   :         __std_exception_copy(&_Other._Data, &_Data);

  0000c	50		 push	 eax
  0000d	c7 06 00 00 00
	00		 mov	 DWORD PTR [esi], OFFSET ??_7exception@std@@6B@
  00013	66 0f d6 00	 movq	 QWORD PTR [eax], xmm0
  00017	8b 45 08	 mov	 eax, DWORD PTR ___that$[ebp]
  0001a	83 c0 04	 add	 eax, 4
  0001d	50		 push	 eax
  0001e	e8 00 00 00 00	 call	 ___std_exception_copy
  00023	83 c4 08	 add	 esp, 8
  00026	c7 06 00 00 00
	00		 mov	 DWORD PTR [esi], OFFSET ??_7bad_alloc@std@@6B@
  0002c	8b c6		 mov	 eax, esi
  0002e	5e		 pop	 esi
  0002f	5d		 pop	 ebp
  00030	c2 04 00	 ret	 4
??0bad_alloc@std@@QAE@ABV01@@Z ENDP			; std::bad_alloc::bad_alloc
_TEXT	ENDS
