; Listing generated by Microsoft (R) Optimizing Compiler Version 19.34.31942.0 

	TITLE	C:\Users\flourine\Desktop\Xantios\client-src\Code\EterLib\Distribute\GrpObjectInstance.obj
	.686P
	.XMM
	include listing.inc
	.model	flat

INCLUDELIB LIBCMT
INCLUDELIB OLDNAMES

PUBLIC	??_H@YGXPAXIIP6EPAX0@Z@Z			; `vector constructor iterator'
PUBLIC	??0exception@std@@QAE@ABV01@@Z			; std::exception::exception
PUBLIC	??1exception@std@@UAE@XZ			; std::exception::~exception
PUBLIC	?what@exception@std@@UBEPBDXZ			; std::exception::what
PUBLIC	??_Gexception@std@@UAEPAXI@Z			; std::exception::`scalar deleting destructor'
PUBLIC	??0bad_alloc@std@@QAE@ABV01@@Z			; std::bad_alloc::bad_alloc
PUBLIC	??_Gbad_alloc@std@@UAEPAXI@Z			; std::bad_alloc::`scalar deleting destructor'
PUBLIC	??0bad_array_new_length@std@@QAE@XZ		; std::bad_array_new_length::bad_array_new_length
PUBLIC	??1bad_array_new_length@std@@UAE@XZ		; std::bad_array_new_length::~bad_array_new_length
PUBLIC	??0bad_array_new_length@std@@QAE@ABV01@@Z	; std::bad_array_new_length::bad_array_new_length
PUBLIC	??_Gbad_array_new_length@std@@UAEPAXI@Z		; std::bad_array_new_length::`scalar deleting destructor'
PUBLIC	?_Throw_bad_array_new_length@std@@YAXXZ		; std::_Throw_bad_array_new_length
PUBLIC	??0D3DXVECTOR3@@QAE@XZ				; D3DXVECTOR3::D3DXVECTOR3
PUBLIC	??0D3DXVECTOR4@@QAE@XZ				; D3DXVECTOR4::D3DXVECTOR4
PUBLIC	??$_Allocate_manually_vector_aligned@U_Default_allocate_traits@std@@@std@@YAPAXI@Z ; std::_Allocate_manually_vector_aligned<std::_Default_allocate_traits>
PUBLIC	?Unlink@SpherePack@@QAEXXZ			; SpherePack::Unlink
PUBLIC	??0CGraphicObjectInstance@@QAE@XZ		; CGraphicObjectInstance::CGraphicObjectInstance
PUBLIC	??1CGraphicObjectInstance@@UAE@XZ		; CGraphicObjectInstance::~CGraphicObjectInstance
PUBLIC	?GetPosition@CGraphicObjectInstance@@QBEABUD3DXVECTOR3@@XZ ; CGraphicObjectInstance::GetPosition
PUBLIC	?GetScale@CGraphicObjectInstance@@QBEABUD3DXVECTOR3@@XZ ; CGraphicObjectInstance::GetScale
PUBLIC	?GetRotation@CGraphicObjectInstance@@QAEMXZ	; CGraphicObjectInstance::GetRotation
PUBLIC	?GetYaw@CGraphicObjectInstance@@QAEMXZ		; CGraphicObjectInstance::GetYaw
PUBLIC	?GetPitch@CGraphicObjectInstance@@QAEMXZ	; CGraphicObjectInstance::GetPitch
PUBLIC	?GetRoll@CGraphicObjectInstance@@QAEMXZ		; CGraphicObjectInstance::GetRoll
PUBLIC	?SetPosition@CGraphicObjectInstance@@QAEXMMM@Z	; CGraphicObjectInstance::SetPosition
PUBLIC	?SetPosition@CGraphicObjectInstance@@QAEXABUD3DXVECTOR3@@@Z ; CGraphicObjectInstance::SetPosition
PUBLIC	?SetScale@CGraphicObjectInstance@@QAEXMMM@Z	; CGraphicObjectInstance::SetScale
PUBLIC	?SetRotation@CGraphicObjectInstance@@QAEXM@Z	; CGraphicObjectInstance::SetRotation
PUBLIC	?SetRotation@CGraphicObjectInstance@@QAEXMMM@Z	; CGraphicObjectInstance::SetRotation
PUBLIC	?SetRotationQuaternion@CGraphicObjectInstance@@QAEXABUD3DXQUATERNION@@@Z ; CGraphicObjectInstance::SetRotationQuaternion
PUBLIC	?SetRotationMatrix@CGraphicObjectInstance@@QAEXABUD3DXMATRIX@@@Z ; CGraphicObjectInstance::SetRotationMatrix
PUBLIC	?Clear@CGraphicObjectInstance@@QAEXXZ		; CGraphicObjectInstance::Clear
PUBLIC	?Update@CGraphicObjectInstance@@QAEXXZ		; CGraphicObjectInstance::Update
PUBLIC	?Render@CGraphicObjectInstance@@QAE_NXZ		; CGraphicObjectInstance::Render
PUBLIC	?BlendRender@CGraphicObjectInstance@@QAEXXZ	; CGraphicObjectInstance::BlendRender
PUBLIC	?RenderToShadowMap@CGraphicObjectInstance@@QAEXXZ ; CGraphicObjectInstance::RenderToShadowMap
PUBLIC	?RenderShadow@CGraphicObjectInstance@@QAEXXZ	; CGraphicObjectInstance::RenderShadow
PUBLIC	?RenderPCBlocker@CGraphicObjectInstance@@QAEXXZ	; CGraphicObjectInstance::RenderPCBlocker
PUBLIC	?Deform@CGraphicObjectInstance@@QAEXXZ		; CGraphicObjectInstance::Deform
PUBLIC	?Transform@CGraphicObjectInstance@@QAEXXZ	; CGraphicObjectInstance::Transform
PUBLIC	?Show@CGraphicObjectInstance@@QAEXXZ		; CGraphicObjectInstance::Show
PUBLIC	?Hide@CGraphicObjectInstance@@QAEXXZ		; CGraphicObjectInstance::Hide
PUBLIC	?isShow@CGraphicObjectInstance@@QAE_NXZ		; CGraphicObjectInstance::isShow
PUBLIC	?isIntersect@CGraphicObjectInstance@@QAE_NABVCRay@@PAM11@Z ; CGraphicObjectInstance::isIntersect
PUBLIC	?GetWTBBoxVertex@CGraphicObjectInstance@@QAEAAUD3DXVECTOR4@@ABE@Z ; CGraphicObjectInstance::GetWTBBoxVertex
PUBLIC	?GetTransform@CGraphicObjectInstance@@QAEAAUD3DXMATRIX@@XZ ; CGraphicObjectInstance::GetTransform
PUBLIC	?SetPortal@CGraphicObjectInstance@@QAEXKH@Z	; CGraphicObjectInstance::SetPortal
PUBLIC	?GetPortal@CGraphicObjectInstance@@QAEHK@Z	; CGraphicObjectInstance::GetPortal
PUBLIC	?Initialize@CGraphicObjectInstance@@QAEXXZ	; CGraphicObjectInstance::Initialize
PUBLIC	?OnInitialize@CGraphicObjectInstance@@UAEXXZ	; CGraphicObjectInstance::OnInitialize
PUBLIC	?UpdateBoundingSphere@CGraphicObjectInstance@@QAEXXZ ; CGraphicObjectInstance::UpdateBoundingSphere
PUBLIC	?RegisterBoundingSphere@CGraphicObjectInstance@@QAEXXZ ; CGraphicObjectInstance::RegisterBoundingSphere
PUBLIC	?OnClear@CGraphicObjectInstance@@UAEXXZ		; CGraphicObjectInstance::OnClear
PUBLIC	?OnUpdate@CGraphicObjectInstance@@UAEXXZ	; CGraphicObjectInstance::OnUpdate
PUBLIC	?OnDeform@CGraphicObjectInstance@@UAEXXZ	; CGraphicObjectInstance::OnDeform
PUBLIC	?Scale@CGraphicObjectInstance@@QAEXABUD3DXVECTOR3@@@Z ; CGraphicObjectInstance::Scale
PUBLIC	?Scale@CGraphicObjectInstance@@QAEXMMM@Z	; CGraphicObjectInstance::Scale
PUBLIC	?AddCollision@CGraphicObjectInstance@@QAEXPBVCStaticCollisionData@@PBUD3DXMATRIX@@@Z ; CGraphicObjectInstance::AddCollision
PUBLIC	?ClearCollision@CGraphicObjectInstance@@QAEXXZ	; CGraphicObjectInstance::ClearCollision
PUBLIC	?CollisionDynamicSphere@CGraphicObjectInstance@@QBE_NABUCDynamicSphereInstance@@@Z ; CGraphicObjectInstance::CollisionDynamicSphere
PUBLIC	?MovementCollisionDynamicSphere@CGraphicObjectInstance@@QBE_NABUCDynamicSphereInstance@@@Z ; CGraphicObjectInstance::MovementCollisionDynamicSphere
PUBLIC	?GetCollisionMovementAdjust@CGraphicObjectInstance@@QBE?AUD3DXVECTOR3@@ABUCDynamicSphereInstance@@@Z ; CGraphicObjectInstance::GetCollisionMovementAdjust
PUBLIC	?UpdateCollisionData@CGraphicObjectInstance@@QAEXPBV?$vector@VCStaticCollisionData@@V?$allocator@VCStaticCollisionData@@@std@@@std@@@Z ; CGraphicObjectInstance::UpdateCollisionData
PUBLIC	??1?$vector@PAVCBaseCollisionInstance@@V?$allocator@PAVCBaseCollisionInstance@@@std@@@std@@QAE@XZ ; std::vector<CBaseCollisionInstance *,std::allocator<CBaseCollisionInstance *> >::~vector<CBaseCollisionInstance *,std::allocator<CBaseCollisionInstance *> >
PUBLIC	?_Xlength@?$vector@PAVCBaseCollisionInstance@@V?$allocator@PAVCBaseCollisionInstance@@@std@@@std@@CAXXZ ; std::vector<CBaseCollisionInstance *,std::allocator<CBaseCollisionInstance *> >::_Xlength
PUBLIC	?GetCollisionInstanceCount@CGraphicObjectInstance@@QAEKXZ ; CGraphicObjectInstance::GetCollisionInstanceCount
PUBLIC	?GetCollisionInstanceData@CGraphicObjectInstance@@QAEPAVCBaseCollisionInstance@@K@Z ; CGraphicObjectInstance::GetCollisionInstanceData
PUBLIC	?SetHeightInstance@CGraphicObjectInstance@@QAEXPAVCAttributeInstance@@@Z ; CGraphicObjectInstance::SetHeightInstance
PUBLIC	?ClearHeightInstance@CGraphicObjectInstance@@QAEXXZ ; CGraphicObjectInstance::ClearHeightInstance
PUBLIC	?UpdateHeightInstance@CGraphicObjectInstance@@QAEXPAVCAttributeInstance@@@Z ; CGraphicObjectInstance::UpdateHeightInstance
PUBLIC	?IsObjectHeight@CGraphicObjectInstance@@QAE_NXZ	; CGraphicObjectInstance::IsObjectHeight
PUBLIC	?GetObjectHeight@CGraphicObjectInstance@@QAE_NMMPAM@Z ; CGraphicObjectInstance::GetObjectHeight
PUBLIC	?SetScaleWorld@CGraphicObjectInstance@@QAEXMMM@Z ; CGraphicObjectInstance::SetScaleWorld
PUBLIC	?SetAcceScale@CGraphicObjectInstance@@QAEXMMM@Z	; CGraphicObjectInstance::SetAcceScale
PUBLIC	?SetAcceScale@CGraphicObjectInstance@@QAEXABUD3DXVECTOR3@@E@Z ; CGraphicObjectInstance::SetAcceScale
PUBLIC	??_GCGraphicObjectInstance@@UAEPAXI@Z		; CGraphicObjectInstance::`scalar deleting destructor'
PUBLIC	??$_Emplace_reallocate@PAVCBaseCollisionInstance@@@?$vector@PAVCBaseCollisionInstance@@V?$allocator@PAVCBaseCollisionInstance@@@std@@@std@@AAEPAPAVCBaseCollisionInstance@@QAPAV2@$$QAPAV2@@Z ; std::vector<CBaseCollisionInstance *,std::allocator<CBaseCollisionInstance *> >::_Emplace_reallocate<CBaseCollisionInstance *>
PUBLIC	??$_Copy_memmove@PAPAVCBaseCollisionInstance@@PAPAV1@@std@@YAPAPAVCBaseCollisionInstance@@PAPAV1@00@Z ; std::_Copy_memmove<CBaseCollisionInstance * *,CBaseCollisionInstance * *>
PUBLIC	??_7exception@std@@6B@				; std::exception::`vftable'
PUBLIC	??_C@_0BC@EOODALEL@Unknown?5exception@		; `string'
PUBLIC	??_7bad_alloc@std@@6B@				; std::bad_alloc::`vftable'
PUBLIC	??_7bad_array_new_length@std@@6B@		; std::bad_array_new_length::`vftable'
PUBLIC	??_C@_0BF@KINCDENJ@bad?5array?5new?5length@	; `string'
PUBLIC	__TI3?AVbad_array_new_length@std@@
PUBLIC	__CTA3?AVbad_array_new_length@std@@
PUBLIC	??_R0?AVbad_array_new_length@std@@@8		; std::bad_array_new_length `RTTI Type Descriptor'
PUBLIC	__CT??_R0?AVbad_array_new_length@std@@@8??0bad_array_new_length@std@@QAE@ABV01@@Z12
PUBLIC	??_R0?AVbad_alloc@std@@@8			; std::bad_alloc `RTTI Type Descriptor'
PUBLIC	__CT??_R0?AVbad_alloc@std@@@8??0bad_alloc@std@@QAE@ABV01@@Z12
PUBLIC	??_R0?AVexception@std@@@8			; std::exception `RTTI Type Descriptor'
PUBLIC	__CT??_R0?AVexception@std@@@8??0exception@std@@QAE@ABV01@@Z12
PUBLIC	??_R4exception@std@@6B@				; std::exception::`RTTI Complete Object Locator'
PUBLIC	??_R3exception@std@@8				; std::exception::`RTTI Class Hierarchy Descriptor'
PUBLIC	??_R2exception@std@@8				; std::exception::`RTTI Base Class Array'
PUBLIC	??_R1A@?0A@EA@exception@std@@8			; std::exception::`RTTI Base Class Descriptor at (0,-1,0,64)'
PUBLIC	??_R4bad_alloc@std@@6B@				; std::bad_alloc::`RTTI Complete Object Locator'
PUBLIC	??_R3bad_alloc@std@@8				; std::bad_alloc::`RTTI Class Hierarchy Descriptor'
PUBLIC	??_R2bad_alloc@std@@8				; std::bad_alloc::`RTTI Base Class Array'
PUBLIC	??_R1A@?0A@EA@bad_alloc@std@@8			; std::bad_alloc::`RTTI Base Class Descriptor at (0,-1,0,64)'
PUBLIC	??_R4bad_array_new_length@std@@6B@		; std::bad_array_new_length::`RTTI Complete Object Locator'
PUBLIC	??_R3bad_array_new_length@std@@8		; std::bad_array_new_length::`RTTI Class Hierarchy Descriptor'
PUBLIC	??_R2bad_array_new_length@std@@8		; std::bad_array_new_length::`RTTI Base Class Array'
PUBLIC	??_R1A@?0A@EA@bad_array_new_length@std@@8	; std::bad_array_new_length::`RTTI Base Class Descriptor at (0,-1,0,64)'
PUBLIC	?ms_singleton@?$CSingleton@VCCullingManager@@@@0PAVCCullingManager@@A ; CSingleton<CCullingManager>::ms_singleton
PUBLIC	??_7CGraphicObjectInstance@@6B@			; CGraphicObjectInstance::`vftable'
PUBLIC	??_C@_0BA@FOIKENOD@vector?5too?5long@		; `string'
PUBLIC	??_R4CGraphicObjectInstance@@6B@		; CGraphicObjectInstance::`RTTI Complete Object Locator'
PUBLIC	??_R0?AVCGraphicObjectInstance@@@8		; CGraphicObjectInstance `RTTI Type Descriptor'
PUBLIC	??_R3CGraphicObjectInstance@@8			; CGraphicObjectInstance::`RTTI Class Hierarchy Descriptor'
PUBLIC	??_R2CGraphicObjectInstance@@8			; CGraphicObjectInstance::`RTTI Base Class Array'
PUBLIC	??_R1A@?0A@EA@CGraphicObjectInstance@@8		; CGraphicObjectInstance::`RTTI Base Class Descriptor at (0,-1,0,64)'
PUBLIC	??_R1A@?0A@EA@CGraphicCollisionObject@@8	; CGraphicCollisionObject::`RTTI Base Class Descriptor at (0,-1,0,64)'
PUBLIC	??_R0?AVCGraphicCollisionObject@@@8		; CGraphicCollisionObject `RTTI Type Descriptor'
PUBLIC	??_R3CGraphicCollisionObject@@8			; CGraphicCollisionObject::`RTTI Class Hierarchy Descriptor'
PUBLIC	??_R2CGraphicCollisionObject@@8			; CGraphicCollisionObject::`RTTI Base Class Array'
PUBLIC	??_R1A@?0A@EA@CGraphicBase@@8			; CGraphicBase::`RTTI Base Class Descriptor at (0,-1,0,64)'
PUBLIC	??_R0?AVCGraphicBase@@@8			; CGraphicBase `RTTI Type Descriptor'
PUBLIC	??_R3CGraphicBase@@8				; CGraphicBase::`RTTI Class Hierarchy Descriptor'
PUBLIC	??_R2CGraphicBase@@8				; CGraphicBase::`RTTI Base Class Array'
PUBLIC	__real@3c8efa35
EXTRN	__purecall:PROC
EXTRN	??2@YAPAXI@Z:PROC				; operator new
EXTRN	??3@YAXPAXI@Z:PROC				; operator delete
EXTRN	__invalid_parameter_noinfo_noreturn:PROC
EXTRN	___std_exception_copy:PROC
EXTRN	___std_exception_destroy:PROC
EXTRN	??_Eexception@std@@UAEPAXI@Z:PROC		; std::exception::`vector deleting destructor'
EXTRN	??_Ebad_alloc@std@@UAEPAXI@Z:PROC		; std::bad_alloc::`vector deleting destructor'
EXTRN	??_Ebad_array_new_length@std@@UAEPAXI@Z:PROC	; std::bad_array_new_length::`vector deleting destructor'
EXTRN	?_Xlength_error@std@@YAXPBD@Z:PROC		; std::_Xlength_error
EXTRN	_D3DXMatrixMultiply@12:PROC
EXTRN	_D3DXMatrixScaling@16:PROC
EXTRN	_D3DXMatrixRotationZ@8:PROC
EXTRN	_D3DXMatrixRotationQuaternion@8:PROC
EXTRN	_D3DXMatrixRotationYawPitchRoll@16:PROC
EXTRN	??0CGraphicCollisionObject@@QAE@XZ:PROC		; CGraphicCollisionObject::CGraphicCollisionObject
EXTRN	??1CGraphicCollisionObject@@UAE@XZ:PROC		; CGraphicCollisionObject::~CGraphicCollisionObject
EXTRN	?IntersectTriangle@CGraphicCollisionObject@@IAE_NABUD3DXVECTOR3@@0000PAM11@Z:PROC ; CGraphicCollisionObject::IntersectTriangle
EXTRN	?LostChild@SpherePack@@QAEXPAV1@@Z:PROC		; SpherePack::LostChild
EXTRN	?AddIntegrate@SpherePackFactory@@QAEXPAVSpherePack@@@Z:PROC ; SpherePackFactory::AddIntegrate
EXTRN	?AddRecompute@SpherePackFactory@@QAEXPAVSpherePack@@@Z:PROC ; SpherePackFactory::AddRecompute
EXTRN	?Register@CCullingManager@@QAEPAVSpherePack@@PAVCGraphicObjectInstance@@@Z:PROC ; CCullingManager::Register
EXTRN	?Unregister@CCullingManager@@QAEXPAVSpherePack@@@Z:PROC ; CCullingManager::Unregister
EXTRN	?Destroy@CBaseCollisionInstance@@QAEXXZ:PROC	; CBaseCollisionInstance::Destroy
EXTRN	?BuildCollisionInstance@CBaseCollisionInstance@@SAPAV1@PBVCStaticCollisionData@@PBUD3DXMATRIX@@@Z:PROC ; CBaseCollisionInstance::BuildCollisionInstance
EXTRN	??_ECGraphicObjectInstance@@UAEPAXI@Z:PROC	; CGraphicObjectInstance::`vector deleting destructor'
EXTRN	@__security_check_cookie@4:PROC
EXTRN	__CxxThrowException@8:PROC
EXTRN	___CxxFrameHandler3:PROC
EXTRN	_memmove:PROC
EXTRN	??_7type_info@@6B@:QWORD			; type_info::`vftable'
EXTRN	___security_cookie:DWORD
EXTRN	__fltused:DWORD
;	COMDAT ?ms_singleton@?$CSingleton@VCCullingManager@@@@0PAVCCullingManager@@A
_BSS	SEGMENT
?ms_singleton@?$CSingleton@VCCullingManager@@@@0PAVCCullingManager@@A DD 01H DUP (?) ; CSingleton<CCullingManager>::ms_singleton
_BSS	ENDS
;	COMDAT __real@3c8efa35
CONST	SEGMENT
__real@3c8efa35 DD 03c8efa35r			; 0.0174533
CONST	ENDS
;	COMDAT ??_R2CGraphicBase@@8
rdata$r	SEGMENT
??_R2CGraphicBase@@8 DD FLAT:??_R1A@?0A@EA@CGraphicBase@@8 ; CGraphicBase::`RTTI Base Class Array'
rdata$r	ENDS
;	COMDAT ??_R3CGraphicBase@@8
rdata$r	SEGMENT
??_R3CGraphicBase@@8 DD 00H				; CGraphicBase::`RTTI Class Hierarchy Descriptor'
	DD	00H
	DD	01H
	DD	FLAT:??_R2CGraphicBase@@8
rdata$r	ENDS
;	COMDAT ??_R0?AVCGraphicBase@@@8
data$rs	SEGMENT
??_R0?AVCGraphicBase@@@8 DD FLAT:??_7type_info@@6B@	; CGraphicBase `RTTI Type Descriptor'
	DD	00H
	DB	'.?AVCGraphicBase@@', 00H
data$rs	ENDS
;	COMDAT ??_R1A@?0A@EA@CGraphicBase@@8
rdata$r	SEGMENT
??_R1A@?0A@EA@CGraphicBase@@8 DD FLAT:??_R0?AVCGraphicBase@@@8 ; CGraphicBase::`RTTI Base Class Descriptor at (0,-1,0,64)'
	DD	00H
	DD	00H
	DD	0ffffffffH
	DD	00H
	DD	040H
	DD	FLAT:??_R3CGraphicBase@@8
rdata$r	ENDS
;	COMDAT ??_R2CGraphicCollisionObject@@8
rdata$r	SEGMENT
??_R2CGraphicCollisionObject@@8 DD FLAT:??_R1A@?0A@EA@CGraphicCollisionObject@@8 ; CGraphicCollisionObject::`RTTI Base Class Array'
	DD	FLAT:??_R1A@?0A@EA@CGraphicBase@@8
rdata$r	ENDS
;	COMDAT ??_R3CGraphicCollisionObject@@8
rdata$r	SEGMENT
??_R3CGraphicCollisionObject@@8 DD 00H			; CGraphicCollisionObject::`RTTI Class Hierarchy Descriptor'
	DD	00H
	DD	02H
	DD	FLAT:??_R2CGraphicCollisionObject@@8
rdata$r	ENDS
;	COMDAT ??_R0?AVCGraphicCollisionObject@@@8
data$rs	SEGMENT
??_R0?AVCGraphicCollisionObject@@@8 DD FLAT:??_7type_info@@6B@ ; CGraphicCollisionObject `RTTI Type Descriptor'
	DD	00H
	DB	'.?AVCGraphicCollisionObject@@', 00H
data$rs	ENDS
;	COMDAT ??_R1A@?0A@EA@CGraphicCollisionObject@@8
rdata$r	SEGMENT
??_R1A@?0A@EA@CGraphicCollisionObject@@8 DD FLAT:??_R0?AVCGraphicCollisionObject@@@8 ; CGraphicCollisionObject::`RTTI Base Class Descriptor at (0,-1,0,64)'
	DD	01H
	DD	00H
	DD	0ffffffffH
	DD	00H
	DD	040H
	DD	FLAT:??_R3CGraphicCollisionObject@@8
rdata$r	ENDS
;	COMDAT ??_R1A@?0A@EA@CGraphicObjectInstance@@8
rdata$r	SEGMENT
??_R1A@?0A@EA@CGraphicObjectInstance@@8 DD FLAT:??_R0?AVCGraphicObjectInstance@@@8 ; CGraphicObjectInstance::`RTTI Base Class Descriptor at (0,-1,0,64)'
	DD	02H
	DD	00H
	DD	0ffffffffH
	DD	00H
	DD	040H
	DD	FLAT:??_R3CGraphicObjectInstance@@8
rdata$r	ENDS
;	COMDAT ??_R2CGraphicObjectInstance@@8
rdata$r	SEGMENT
??_R2CGraphicObjectInstance@@8 DD FLAT:??_R1A@?0A@EA@CGraphicObjectInstance@@8 ; CGraphicObjectInstance::`RTTI Base Class Array'
	DD	FLAT:??_R1A@?0A@EA@CGraphicCollisionObject@@8
	DD	FLAT:??_R1A@?0A@EA@CGraphicBase@@8
rdata$r	ENDS
;	COMDAT ??_R3CGraphicObjectInstance@@8
rdata$r	SEGMENT
??_R3CGraphicObjectInstance@@8 DD 00H			; CGraphicObjectInstance::`RTTI Class Hierarchy Descriptor'
	DD	00H
	DD	03H
	DD	FLAT:??_R2CGraphicObjectInstance@@8
rdata$r	ENDS
;	COMDAT ??_R0?AVCGraphicObjectInstance@@@8
data$rs	SEGMENT
??_R0?AVCGraphicObjectInstance@@@8 DD FLAT:??_7type_info@@6B@ ; CGraphicObjectInstance `RTTI Type Descriptor'
	DD	00H
	DB	'.?AVCGraphicObjectInstance@@', 00H
data$rs	ENDS
;	COMDAT ??_R4CGraphicObjectInstance@@6B@
rdata$r	SEGMENT
??_R4CGraphicObjectInstance@@6B@ DD 00H			; CGraphicObjectInstance::`RTTI Complete Object Locator'
	DD	00H
	DD	00H
	DD	FLAT:??_R0?AVCGraphicObjectInstance@@@8
	DD	FLAT:??_R3CGraphicObjectInstance@@8
rdata$r	ENDS
;	COMDAT ??_C@_0BA@FOIKENOD@vector?5too?5long@
CONST	SEGMENT
??_C@_0BA@FOIKENOD@vector?5too?5long@ DB 'vector too long', 00H ; `string'
CONST	ENDS
;	COMDAT ??_7CGraphicObjectInstance@@6B@
CONST	SEGMENT
??_7CGraphicObjectInstance@@6B@ DD FLAT:??_R4CGraphicObjectInstance@@6B@ ; CGraphicObjectInstance::`vftable'
	DD	FLAT:??_ECGraphicObjectInstance@@UAEPAXI@Z
	DD	FLAT:__purecall
	DD	FLAT:?OnInitialize@CGraphicObjectInstance@@UAEXXZ
	DD	FLAT:__purecall
	DD	FLAT:__purecall
	DD	FLAT:__purecall
	DD	FLAT:__purecall
	DD	FLAT:__purecall
	DD	FLAT:__purecall
	DD	FLAT:?OnClear@CGraphicObjectInstance@@UAEXXZ
	DD	FLAT:?OnUpdate@CGraphicObjectInstance@@UAEXXZ
	DD	FLAT:?OnDeform@CGraphicObjectInstance@@UAEXXZ
	DD	FLAT:__purecall
	DD	FLAT:__purecall
	DD	FLAT:__purecall
CONST	ENDS
;	COMDAT ??_R1A@?0A@EA@bad_array_new_length@std@@8
rdata$r	SEGMENT
??_R1A@?0A@EA@bad_array_new_length@std@@8 DD FLAT:??_R0?AVbad_array_new_length@std@@@8 ; std::bad_array_new_length::`RTTI Base Class Descriptor at (0,-1,0,64)'
	DD	02H
	DD	00H
	DD	0ffffffffH
	DD	00H
	DD	040H
	DD	FLAT:??_R3bad_array_new_length@std@@8
rdata$r	ENDS
;	COMDAT ??_R2bad_array_new_length@std@@8
rdata$r	SEGMENT
??_R2bad_array_new_length@std@@8 DD FLAT:??_R1A@?0A@EA@bad_array_new_length@std@@8 ; std::bad_array_new_length::`RTTI Base Class Array'
	DD	FLAT:??_R1A@?0A@EA@bad_alloc@std@@8
	DD	FLAT:??_R1A@?0A@EA@exception@std@@8
rdata$r	ENDS
;	COMDAT ??_R3bad_array_new_length@std@@8
rdata$r	SEGMENT
??_R3bad_array_new_length@std@@8 DD 00H			; std::bad_array_new_length::`RTTI Class Hierarchy Descriptor'
	DD	00H
	DD	03H
	DD	FLAT:??_R2bad_array_new_length@std@@8
rdata$r	ENDS
;	COMDAT ??_R4bad_array_new_length@std@@6B@
rdata$r	SEGMENT
??_R4bad_array_new_length@std@@6B@ DD 00H		; std::bad_array_new_length::`RTTI Complete Object Locator'
	DD	00H
	DD	00H
	DD	FLAT:??_R0?AVbad_array_new_length@std@@@8
	DD	FLAT:??_R3bad_array_new_length@std@@8
rdata$r	ENDS
;	COMDAT ??_R1A@?0A@EA@bad_alloc@std@@8
rdata$r	SEGMENT
??_R1A@?0A@EA@bad_alloc@std@@8 DD FLAT:??_R0?AVbad_alloc@std@@@8 ; std::bad_alloc::`RTTI Base Class Descriptor at (0,-1,0,64)'
	DD	01H
	DD	00H
	DD	0ffffffffH
	DD	00H
	DD	040H
	DD	FLAT:??_R3bad_alloc@std@@8
rdata$r	ENDS
;	COMDAT ??_R2bad_alloc@std@@8
rdata$r	SEGMENT
??_R2bad_alloc@std@@8 DD FLAT:??_R1A@?0A@EA@bad_alloc@std@@8 ; std::bad_alloc::`RTTI Base Class Array'
	DD	FLAT:??_R1A@?0A@EA@exception@std@@8
rdata$r	ENDS
;	COMDAT ??_R3bad_alloc@std@@8
rdata$r	SEGMENT
??_R3bad_alloc@std@@8 DD 00H				; std::bad_alloc::`RTTI Class Hierarchy Descriptor'
	DD	00H
	DD	02H
	DD	FLAT:??_R2bad_alloc@std@@8
rdata$r	ENDS
;	COMDAT ??_R4bad_alloc@std@@6B@
rdata$r	SEGMENT
??_R4bad_alloc@std@@6B@ DD 00H				; std::bad_alloc::`RTTI Complete Object Locator'
	DD	00H
	DD	00H
	DD	FLAT:??_R0?AVbad_alloc@std@@@8
	DD	FLAT:??_R3bad_alloc@std@@8
rdata$r	ENDS
;	COMDAT ??_R1A@?0A@EA@exception@std@@8
rdata$r	SEGMENT
??_R1A@?0A@EA@exception@std@@8 DD FLAT:??_R0?AVexception@std@@@8 ; std::exception::`RTTI Base Class Descriptor at (0,-1,0,64)'
	DD	00H
	DD	00H
	DD	0ffffffffH
	DD	00H
	DD	040H
	DD	FLAT:??_R3exception@std@@8
rdata$r	ENDS
;	COMDAT ??_R2exception@std@@8
rdata$r	SEGMENT
??_R2exception@std@@8 DD FLAT:??_R1A@?0A@EA@exception@std@@8 ; std::exception::`RTTI Base Class Array'
rdata$r	ENDS
;	COMDAT ??_R3exception@std@@8
rdata$r	SEGMENT
??_R3exception@std@@8 DD 00H				; std::exception::`RTTI Class Hierarchy Descriptor'
	DD	00H
	DD	01H
	DD	FLAT:??_R2exception@std@@8
rdata$r	ENDS
;	COMDAT ??_R4exception@std@@6B@
rdata$r	SEGMENT
??_R4exception@std@@6B@ DD 00H				; std::exception::`RTTI Complete Object Locator'
	DD	00H
	DD	00H
	DD	FLAT:??_R0?AVexception@std@@@8
	DD	FLAT:??_R3exception@std@@8
rdata$r	ENDS
;	COMDAT __CT??_R0?AVexception@std@@@8??0exception@std@@QAE@ABV01@@Z12
xdata$x	SEGMENT
__CT??_R0?AVexception@std@@@8??0exception@std@@QAE@ABV01@@Z12 DD 00H
	DD	FLAT:??_R0?AVexception@std@@@8
	DD	00H
	DD	0ffffffffH
	ORG $+4
	DD	0cH
	DD	FLAT:??0exception@std@@QAE@ABV01@@Z
xdata$x	ENDS
;	COMDAT ??_R0?AVexception@std@@@8
data$r	SEGMENT
??_R0?AVexception@std@@@8 DD FLAT:??_7type_info@@6B@	; std::exception `RTTI Type Descriptor'
	DD	00H
	DB	'.?AVexception@std@@', 00H
data$r	ENDS
;	COMDAT __CT??_R0?AVbad_alloc@std@@@8??0bad_alloc@std@@QAE@ABV01@@Z12
xdata$x	SEGMENT
__CT??_R0?AVbad_alloc@std@@@8??0bad_alloc@std@@QAE@ABV01@@Z12 DD 010H
	DD	FLAT:??_R0?AVbad_alloc@std@@@8
	DD	00H
	DD	0ffffffffH
	ORG $+4
	DD	0cH
	DD	FLAT:??0bad_alloc@std@@QAE@ABV01@@Z
xdata$x	ENDS
;	COMDAT ??_R0?AVbad_alloc@std@@@8
data$r	SEGMENT
??_R0?AVbad_alloc@std@@@8 DD FLAT:??_7type_info@@6B@	; std::bad_alloc `RTTI Type Descriptor'
	DD	00H
	DB	'.?AVbad_alloc@std@@', 00H
data$r	ENDS
;	COMDAT __CT??_R0?AVbad_array_new_length@std@@@8??0bad_array_new_length@std@@QAE@ABV01@@Z12
xdata$x	SEGMENT
__CT??_R0?AVbad_array_new_length@std@@@8??0bad_array_new_length@std@@QAE@ABV01@@Z12 DD 00H
	DD	FLAT:??_R0?AVbad_array_new_length@std@@@8
	DD	00H
	DD	0ffffffffH
	ORG $+4
	DD	0cH
	DD	FLAT:??0bad_array_new_length@std@@QAE@ABV01@@Z
xdata$x	ENDS
;	COMDAT ??_R0?AVbad_array_new_length@std@@@8
data$r	SEGMENT
??_R0?AVbad_array_new_length@std@@@8 DD FLAT:??_7type_info@@6B@ ; std::bad_array_new_length `RTTI Type Descriptor'
	DD	00H
	DB	'.?AVbad_array_new_length@std@@', 00H
data$r	ENDS
;	COMDAT __CTA3?AVbad_array_new_length@std@@
xdata$x	SEGMENT
__CTA3?AVbad_array_new_length@std@@ DD 03H
	DD	FLAT:__CT??_R0?AVbad_array_new_length@std@@@8??0bad_array_new_length@std@@QAE@ABV01@@Z12
	DD	FLAT:__CT??_R0?AVbad_alloc@std@@@8??0bad_alloc@std@@QAE@ABV01@@Z12
	DD	FLAT:__CT??_R0?AVexception@std@@@8??0exception@std@@QAE@ABV01@@Z12
xdata$x	ENDS
;	COMDAT __TI3?AVbad_array_new_length@std@@
xdata$x	SEGMENT
__TI3?AVbad_array_new_length@std@@ DD 00H
	DD	FLAT:??1bad_array_new_length@std@@UAE@XZ
	DD	00H
	DD	FLAT:__CTA3?AVbad_array_new_length@std@@
xdata$x	ENDS
;	COMDAT ??_C@_0BF@KINCDENJ@bad?5array?5new?5length@
CONST	SEGMENT
??_C@_0BF@KINCDENJ@bad?5array?5new?5length@ DB 'bad array new length', 00H ; `string'
CONST	ENDS
;	COMDAT ??_7bad_array_new_length@std@@6B@
CONST	SEGMENT
??_7bad_array_new_length@std@@6B@ DD FLAT:??_R4bad_array_new_length@std@@6B@ ; std::bad_array_new_length::`vftable'
	DD	FLAT:??_Ebad_array_new_length@std@@UAEPAXI@Z
	DD	FLAT:?what@exception@std@@UBEPBDXZ
CONST	ENDS
;	COMDAT ??_7bad_alloc@std@@6B@
CONST	SEGMENT
??_7bad_alloc@std@@6B@ DD FLAT:??_R4bad_alloc@std@@6B@	; std::bad_alloc::`vftable'
	DD	FLAT:??_Ebad_alloc@std@@UAEPAXI@Z
	DD	FLAT:?what@exception@std@@UBEPBDXZ
CONST	ENDS
;	COMDAT ??_C@_0BC@EOODALEL@Unknown?5exception@
CONST	SEGMENT
??_C@_0BC@EOODALEL@Unknown?5exception@ DB 'Unknown exception', 00H ; `string'
CONST	ENDS
;	COMDAT ??_7exception@std@@6B@
CONST	SEGMENT
??_7exception@std@@6B@ DD FLAT:??_R4exception@std@@6B@	; std::exception::`vftable'
	DD	FLAT:??_Eexception@std@@UAEPAXI@Z
	DD	FLAT:?what@exception@std@@UBEPBDXZ
CONST	ENDS
;	COMDAT xdata$x
xdata$x	SEGMENT
__ehfuncinfo$??1CGraphicObjectInstance@@UAE@XZ DD 019930522H
	DD	00H
	DD	00H
	DD	2 DUP(00H)
	DD	2 DUP(00H)
	DD	00H
	DD	05H
xdata$x	ENDS
;	COMDAT xdata$x
xdata$x	SEGMENT
__unwindtable$??0CGraphicObjectInstance@@QAE@XZ DD 0ffffffffH
	DD	FLAT:__unwindfunclet$??0CGraphicObjectInstance@@QAE@XZ$0
	DD	00H
	DD	FLAT:__unwindfunclet$??0CGraphicObjectInstance@@QAE@XZ$1
__ehfuncinfo$??0CGraphicObjectInstance@@QAE@XZ DD 019930522H
	DD	02H
	DD	FLAT:__unwindtable$??0CGraphicObjectInstance@@QAE@XZ
	DD	2 DUP(00H)
	DD	2 DUP(00H)
	DD	00H
	DD	01H
xdata$x	ENDS
; Function compile flags: /Ogtp
; File C:\Program Files\Microsoft Visual Studio\2022\Community\VC\Tools\MSVC\14.34.31933\include\xutility
;	COMDAT ??$_Copy_memmove@PAPAVCBaseCollisionInstance@@PAPAV1@@std@@YAPAPAVCBaseCollisionInstance@@PAPAV1@00@Z
_TEXT	SEGMENT
__First$ = 8						; size = 4
__Last$ = 12						; size = 4
__Dest$ = 16						; size = 4
??$_Copy_memmove@PAPAVCBaseCollisionInstance@@PAPAV1@@std@@YAPAPAVCBaseCollisionInstance@@PAPAV1@00@Z PROC ; std::_Copy_memmove<CBaseCollisionInstance * *,CBaseCollisionInstance * *>, COMDAT

; 3833 : _OutCtgIt _Copy_memmove(_CtgIt _First, _CtgIt _Last, _OutCtgIt _Dest) {

  00000	55		 push	 ebp
  00001	8b ec		 mov	 ebp, esp

; 3834 :     auto _FirstPtr              = _To_address(_First);
; 3835 :     auto _LastPtr               = _To_address(_Last);
; 3836 :     auto _DestPtr               = _To_address(_Dest);
; 3837 :     const char* const _First_ch = const_cast<const char*>(reinterpret_cast<const volatile char*>(_FirstPtr));
; 3838 :     const char* const _Last_ch  = const_cast<const char*>(reinterpret_cast<const volatile char*>(_LastPtr));
; 3839 :     char* const _Dest_ch        = const_cast<char*>(reinterpret_cast<const volatile char*>(_DestPtr));
; 3840 :     const auto _Count           = static_cast<size_t>(_Last_ch - _First_ch);

  00003	8b 45 08	 mov	 eax, DWORD PTR __First$[ebp]
  00006	56		 push	 esi

; 3841 :     _CSTD memmove(_Dest_ch, _First_ch, _Count);

  00007	8b 75 10	 mov	 esi, DWORD PTR __Dest$[ebp]
  0000a	57		 push	 edi
  0000b	8b 7d 0c	 mov	 edi, DWORD PTR __Last$[ebp]
  0000e	2b f8		 sub	 edi, eax
  00010	57		 push	 edi
  00011	50		 push	 eax
  00012	56		 push	 esi
  00013	e8 00 00 00 00	 call	 _memmove
  00018	83 c4 0c	 add	 esp, 12			; 0000000cH

; 3842 :     if constexpr (is_pointer_v<_OutCtgIt>) {
; 3843 :         return reinterpret_cast<_OutCtgIt>(_Dest_ch + _Count);

  0001b	8d 04 37	 lea	 eax, DWORD PTR [edi+esi]
  0001e	5f		 pop	 edi
  0001f	5e		 pop	 esi

; 3844 :     } else {
; 3845 :         return _Dest + (_LastPtr - _FirstPtr);
; 3846 :     }
; 3847 : }

  00020	5d		 pop	 ebp
  00021	c3		 ret	 0
??$_Copy_memmove@PAPAVCBaseCollisionInstance@@PAPAV1@@std@@YAPAPAVCBaseCollisionInstance@@PAPAV1@00@Z ENDP ; std::_Copy_memmove<CBaseCollisionInstance * *,CBaseCollisionInstance * *>
_TEXT	ENDS
; Function compile flags: /Ogtp
; File C:\Program Files\Microsoft Visual Studio\2022\Community\VC\Tools\MSVC\14.34.31933\include\vector
; File C:\Program Files\Microsoft Visual Studio\2022\Community\VC\Tools\MSVC\14.34.31933\include\xmemory
; File C:\Program Files\Microsoft Visual Studio\2022\Community\VC\Tools\MSVC\14.34.31933\include\vector
; File C:\Program Files\Microsoft Visual Studio\2022\Community\VC\Tools\MSVC\14.34.31933\include\xmemory
; File C:\Program Files\Microsoft Visual Studio\2022\Community\VC\Tools\MSVC\14.34.31933\include\vector
; File C:\Program Files\Microsoft Visual Studio\2022\Community\VC\Tools\MSVC\14.34.31933\include\xmemory
; File C:\Program Files\Microsoft Visual Studio\2022\Community\VC\Tools\MSVC\14.34.31933\include\vector
; File C:\Program Files\Microsoft Visual Studio\2022\Community\VC\Tools\MSVC\14.34.31933\include\xmemory
; File C:\Program Files\Microsoft Visual Studio\2022\Community\VC\Tools\MSVC\14.34.31933\include\vector
; File C:\Program Files\Microsoft Visual Studio\2022\Community\VC\Tools\MSVC\14.34.31933\include\xmemory
; File C:\Program Files\Microsoft Visual Studio\2022\Community\VC\Tools\MSVC\14.34.31933\include\vector
; File C:\Program Files\Microsoft Visual Studio\2022\Community\VC\Tools\MSVC\14.34.31933\include\xmemory
; File C:\Program Files\Microsoft Visual Studio\2022\Community\VC\Tools\MSVC\14.34.31933\include\vector
; File C:\Program Files\Microsoft Visual Studio\2022\Community\VC\Tools\MSVC\14.34.31933\include\xmemory
; File C:\Program Files\Microsoft Visual Studio\2022\Community\VC\Tools\MSVC\14.34.31933\include\vector
; File C:\Program Files\Microsoft Visual Studio\2022\Community\VC\Tools\MSVC\14.34.31933\include\xmemory
; File C:\Program Files\Microsoft Visual Studio\2022\Community\VC\Tools\MSVC\14.34.31933\include\vector
; File C:\Program Files\Microsoft Visual Studio\2022\Community\VC\Tools\MSVC\14.34.31933\include\xmemory
; File C:\Program Files\Microsoft Visual Studio\2022\Community\VC\Tools\MSVC\14.34.31933\include\vector
;	COMDAT ??$_Emplace_reallocate@PAVCBaseCollisionInstance@@@?$vector@PAVCBaseCollisionInstance@@V?$allocator@PAVCBaseCollisionInstance@@@std@@@std@@AAEPAPAVCBaseCollisionInstance@@QAPAV2@$$QAPAV2@@Z
_TEXT	SEGMENT
__Newsize$1$ = -12					; size = 4
tv639 = -8						; size = 4
tv622 = -4						; size = 4
__Whereptr$ = 8						; size = 4
_<_Val_0>$ = 12						; size = 4
??$_Emplace_reallocate@PAVCBaseCollisionInstance@@@?$vector@PAVCBaseCollisionInstance@@V?$allocator@PAVCBaseCollisionInstance@@@std@@@std@@AAEPAPAVCBaseCollisionInstance@@QAPAV2@$$QAPAV2@@Z PROC ; std::vector<CBaseCollisionInstance *,std::allocator<CBaseCollisionInstance *> >::_Emplace_reallocate<CBaseCollisionInstance *>, COMDAT
; _this$ = ecx

; 875  :     _CONSTEXPR20 pointer _Emplace_reallocate(const pointer _Whereptr, _Valty&&... _Val) {

  00000	55		 push	 ebp
  00001	8b ec		 mov	 ebp, esp
  00003	83 ec 0c	 sub	 esp, 12			; 0000000cH
  00006	53		 push	 ebx

; 876  :         // reallocate and insert by perfectly forwarding _Val at _Whereptr
; 877  :         _Alty& _Al        = _Getal();
; 878  :         auto& _My_data    = _Mypair._Myval2;
; 879  :         pointer& _Myfirst = _My_data._Myfirst;
; 880  :         pointer& _Mylast  = _My_data._Mylast;
; 881  : 
; 882  :         _STL_INTERNAL_CHECK(_Mylast == _My_data._Myend); // check that we have no unused capacity
; 883  : 
; 884  :         const auto _Whereoff = static_cast<size_type>(_Whereptr - _Myfirst);

  00007	8b 5d 08	 mov	 ebx, DWORD PTR __Whereptr$[ebp]
  0000a	56		 push	 esi
  0000b	8b f1		 mov	 esi, ecx
  0000d	57		 push	 edi
  0000e	8b 0e		 mov	 ecx, DWORD PTR [esi]
  00010	2b d9		 sub	 ebx, ecx

; 885  :         const auto _Oldsize  = static_cast<size_type>(_Mylast - _Myfirst);

  00012	8b 46 04	 mov	 eax, DWORD PTR [esi+4]
  00015	2b c1		 sub	 eax, ecx
  00017	c1 fb 02	 sar	 ebx, 2
  0001a	c1 f8 02	 sar	 eax, 2

; 886  : 
; 887  :         if (_Oldsize == max_size()) {

  0001d	3d ff ff ff 3f	 cmp	 eax, 1073741823		; 3fffffffH
  00022	0f 84 0f 01 00
	00		 je	 $LN88@Emplace_re

; 1942 :         return static_cast<size_type>(_My_data._Myend - _My_data._Myfirst);

  00028	8b 56 08	 mov	 edx, DWORD PTR [esi+8]

; 889  :         }
; 890  : 
; 891  :         const size_type _Newsize     = _Oldsize + 1;

  0002b	8d 78 01	 lea	 edi, DWORD PTR [eax+1]

; 1942 :         return static_cast<size_type>(_My_data._Myend - _My_data._Myfirst);

  0002e	2b d1		 sub	 edx, ecx

; 889  :         }
; 890  : 
; 891  :         const size_type _Newsize     = _Oldsize + 1;

  00030	89 7d f4	 mov	 DWORD PTR __Newsize$1$[ebp], edi

; 1942 :         return static_cast<size_type>(_My_data._Myend - _My_data._Myfirst);

  00033	c1 fa 02	 sar	 edx, 2

; 2029 :         if (_Oldcapacity > _Max - _Oldcapacity / 2) {

  00036	b8 ff ff ff 3f	 mov	 eax, 1073741823		; 3fffffffH
  0003b	8b ca		 mov	 ecx, edx
  0003d	d1 e9		 shr	 ecx, 1
  0003f	2b c1		 sub	 eax, ecx
  00041	3b d0		 cmp	 edx, eax
  00043	76 15		 jbe	 SHORT $LN12@Emplace_re

; 2030 :             return _Max; // geometric growth would overflow

  00045	b8 fc ff ff ff	 mov	 eax, -4			; fffffffcH
; File C:\Program Files\Microsoft Visual Studio\2022\Community\VC\Tools\MSVC\14.34.31933\include\xmemory

; 229  :             return _Allocate_manually_vector_aligned<_Traits>(_Bytes);

  0004a	50		 push	 eax
; File C:\Program Files\Microsoft Visual Studio\2022\Community\VC\Tools\MSVC\14.34.31933\include\vector

; 2030 :             return _Max; // geometric growth would overflow

  0004b	89 45 f8	 mov	 DWORD PTR tv639[ebp], eax
; File C:\Program Files\Microsoft Visual Studio\2022\Community\VC\Tools\MSVC\14.34.31933\include\xmemory

; 229  :             return _Allocate_manually_vector_aligned<_Traits>(_Bytes);

  0004e	e8 00 00 00 00	 call	 ??$_Allocate_manually_vector_aligned@U_Default_allocate_traits@std@@@std@@YAPAXI@Z ; std::_Allocate_manually_vector_aligned<std::_Default_allocate_traits>
  00053	83 c4 04	 add	 esp, 4
  00056	8b f8		 mov	 edi, eax
  00058	eb 47		 jmp	 SHORT $LN23@Emplace_re
$LN12@Emplace_re:
; File C:\Program Files\Microsoft Visual Studio\2022\Community\VC\Tools\MSVC\14.34.31933\include\vector

; 2033 :         const size_type _Geometric = _Oldcapacity + _Oldcapacity / 2;

  0005a	8d 04 11	 lea	 eax, DWORD PTR [ecx+edx]
; File C:\Program Files\Microsoft Visual Studio\2022\Community\VC\Tools\MSVC\14.34.31933\include\xmemory

; 60   :         if (_Count > _Max_possible) {

  0005d	8b cf		 mov	 ecx, edi
  0005f	3b c7		 cmp	 eax, edi
  00061	0f 43 c8	 cmovae	 ecx, eax
  00064	81 f9 ff ff ff
	3f		 cmp	 ecx, 1073741823		; 3fffffffH
  0006a	0f 87 cc 00 00
	00		 ja	 $LN89@Emplace_re

; 62   :         }
; 63   :     }
; 64   : 
; 65   :     return _Count * _Ty_size;

  00070	8d 04 8d 00 00
	00 00		 lea	 eax, DWORD PTR [ecx*4]
  00077	89 45 f8	 mov	 DWORD PTR tv639[ebp], eax

; 228  :         if (_Bytes >= _Big_allocation_threshold) { // boost the alignment of big allocations to help autovectorization

  0007a	3d 00 10 00 00	 cmp	 eax, 4096		; 00001000H
  0007f	72 0d		 jb	 SHORT $LN24@Emplace_re

; 229  :             return _Allocate_manually_vector_aligned<_Traits>(_Bytes);

  00081	50		 push	 eax
  00082	e8 00 00 00 00	 call	 ??$_Allocate_manually_vector_aligned@U_Default_allocate_traits@std@@@std@@YAPAXI@Z ; std::_Allocate_manually_vector_aligned<std::_Default_allocate_traits>
  00087	83 c4 04	 add	 esp, 4
  0008a	8b f8		 mov	 edi, eax
  0008c	eb 13		 jmp	 SHORT $LN23@Emplace_re
$LN24@Emplace_re:

; 230  :         }
; 231  :     }
; 232  : #endif // defined(_M_IX86) || defined(_M_X64)
; 233  : 
; 234  :     if (_Bytes != 0) {

  0008e	85 c0		 test	 eax, eax
  00090	74 0d		 je	 SHORT $LN25@Emplace_re

; 77   :         return ::operator new(_Bytes);

  00092	50		 push	 eax
  00093	e8 00 00 00 00	 call	 ??2@YAPAXI@Z		; operator new
  00098	83 c4 04	 add	 esp, 4

; 235  :         return _Traits::_Allocate(_Bytes);

  0009b	8b f8		 mov	 edi, eax
  0009d	eb 02		 jmp	 SHORT $LN23@Emplace_re
$LN25@Emplace_re:

; 236  :     }
; 237  : 
; 238  :     return nullptr;

  0009f	33 ff		 xor	 edi, edi
$LN23@Emplace_re:
; File C:\Program Files\Microsoft Visual Studio\2022\Community\VC\Tools\MSVC\14.34.31933\include\vector

; 899  :         _Alty_traits::construct(_Al, _Unfancy(_Newvec + _Whereoff), _STD forward<_Valty>(_Val)...);

  000a1	8b 45 0c	 mov	 eax, DWORD PTR _<_Val_0>$[ebp]
  000a4	8d 0c 9f	 lea	 ecx, DWORD PTR [edi+ebx*4]

; 900  :         _Constructed_first = _Newvec + _Whereoff;
; 901  : 
; 902  :         if (_Whereptr == _Mylast) { // at back, provide strong guarantee

  000a7	8b 5d 08	 mov	 ebx, DWORD PTR __Whereptr$[ebp]
  000aa	89 4d fc	 mov	 DWORD PTR tv622[ebp], ecx
  000ad	8b 00		 mov	 eax, DWORD PTR [eax]
  000af	89 01		 mov	 DWORD PTR [ecx], eax
  000b1	8b 46 04	 mov	 eax, DWORD PTR [esi+4]
  000b4	8b 0e		 mov	 ecx, DWORD PTR [esi]
  000b6	3b d8		 cmp	 ebx, eax
  000b8	75 07		 jne	 SHORT $LN4@Emplace_re

; 908  :         } else { // provide basic guarantee

  000ba	8b 5d fc	 mov	 ebx, DWORD PTR tv622[ebp]
; File C:\Program Files\Microsoft Visual Studio\2022\Community\VC\Tools\MSVC\14.34.31933\include\xmemory

; 1800 :             _Copy_memmove(_UFirst, _ULast, _Unfancy(_Dest));

  000bd	8b d7		 mov	 edx, edi
; File C:\Program Files\Microsoft Visual Studio\2022\Community\VC\Tools\MSVC\14.34.31933\include\vector

; 908  :         } else { // provide basic guarantee

  000bf	eb 16		 jmp	 SHORT $LN73@Emplace_re
$LN4@Emplace_re:
; File C:\Program Files\Microsoft Visual Studio\2022\Community\VC\Tools\MSVC\14.34.31933\include\xmemory

; 1800 :             _Copy_memmove(_UFirst, _ULast, _Unfancy(_Dest));

  000c1	57		 push	 edi
  000c2	53		 push	 ebx
  000c3	51		 push	 ecx
  000c4	e8 00 00 00 00	 call	 ??$_Copy_memmove@PAPAVCBaseCollisionInstance@@PAPAV1@@std@@YAPAPAVCBaseCollisionInstance@@PAPAV1@00@Z ; std::_Copy_memmove<CBaseCollisionInstance * *,CBaseCollisionInstance * *>
  000c9	8b 46 04	 mov	 eax, DWORD PTR [esi+4]
  000cc	8b cb		 mov	 ecx, ebx
; File C:\Program Files\Microsoft Visual Studio\2022\Community\VC\Tools\MSVC\14.34.31933\include\vector

; 911  :             _Uninitialized_move(_Whereptr, _Mylast, _Newvec + _Whereoff + 1, _Al);

  000ce	8b 5d fc	 mov	 ebx, DWORD PTR tv622[ebp]
; File C:\Program Files\Microsoft Visual Studio\2022\Community\VC\Tools\MSVC\14.34.31933\include\xmemory

; 1800 :             _Copy_memmove(_UFirst, _ULast, _Unfancy(_Dest));

  000d1	83 c4 0c	 add	 esp, 12			; 0000000cH
; File C:\Program Files\Microsoft Visual Studio\2022\Community\VC\Tools\MSVC\14.34.31933\include\vector

; 911  :             _Uninitialized_move(_Whereptr, _Mylast, _Newvec + _Whereoff + 1, _Al);

  000d4	8d 53 04	 lea	 edx, DWORD PTR [ebx+4]
$LN73@Emplace_re:
  000d7	52		 push	 edx
  000d8	50		 push	 eax
  000d9	51		 push	 ecx
  000da	e8 00 00 00 00	 call	 ??$_Copy_memmove@PAPAVCBaseCollisionInstance@@PAPAV1@@std@@YAPAPAVCBaseCollisionInstance@@PAPAV1@00@Z ; std::_Copy_memmove<CBaseCollisionInstance * *,CBaseCollisionInstance * *>

; 2086 :         if (_Myfirst) { // destroy and deallocate old array

  000df	8b 06		 mov	 eax, DWORD PTR [esi]

; 911  :             _Uninitialized_move(_Whereptr, _Mylast, _Newvec + _Whereoff + 1, _Al);

  000e1	83 c4 0c	 add	 esp, 12			; 0000000cH

; 2086 :         if (_Myfirst) { // destroy and deallocate old array

  000e4	85 c0		 test	 eax, eax
  000e6	74 2c		 je	 SHORT $LN37@Emplace_re

; 2087 :             _Destroy_range(_Myfirst, _Mylast, _Al);
; 2088 :             _ASAN_VECTOR_REMOVE;
; 2089 :             _Al.deallocate(_Myfirst, static_cast<size_type>(_Myend - _Myfirst));

  000e8	8b 4e 08	 mov	 ecx, DWORD PTR [esi+8]
  000eb	2b c8		 sub	 ecx, eax
; File C:\Program Files\Microsoft Visual Studio\2022\Community\VC\Tools\MSVC\14.34.31933\include\xmemory

; 830  :         _Deallocate<_New_alignof<_Ty>>(_Ptr, sizeof(_Ty) * _Count);

  000ed	83 e1 fc	 and	 ecx, -4			; fffffffcH

; 251  :         if (_Bytes >= _Big_allocation_threshold) { // boost the alignment of big allocations to help autovectorization

  000f0	81 f9 00 10 00
	00		 cmp	 ecx, 4096		; 00001000H
  000f6	72 12		 jb	 SHORT $LN47@Emplace_re

; 150  :     const uintptr_t _Ptr_container   = _Ptr_user[-1];

  000f8	8b 50 fc	 mov	 edx, DWORD PTR [eax-4]
  000fb	83 c1 23	 add	 ecx, 35			; 00000023H

; 151  : 
; 152  :     // If the following asserts, it likely means that we are performing
; 153  :     // an aligned delete on memory coming from an unaligned allocation.
; 154  :     _STL_ASSERT(_Ptr_user[-2] == _Big_allocation_sentinel, "invalid argument");
; 155  : 
; 156  :     // Extra paranoia on aligned allocation/deallocation; ensure _Ptr_container is
; 157  :     // in range [_Min_back_shift, _Non_user_size]
; 158  : #ifdef _DEBUG
; 159  :     constexpr uintptr_t _Min_back_shift = 2 * sizeof(void*);
; 160  : #else // ^^^ _DEBUG ^^^ // vvv !_DEBUG vvv
; 161  :     constexpr uintptr_t _Min_back_shift = sizeof(void*);
; 162  : #endif // _DEBUG
; 163  :     const uintptr_t _Back_shift = reinterpret_cast<uintptr_t>(_Ptr) - _Ptr_container;

  000fe	2b c2		 sub	 eax, edx

; 164  :     _STL_VERIFY(_Back_shift >= _Min_back_shift && _Back_shift <= _Non_user_size, "invalid argument");

  00100	83 c0 fc	 add	 eax, -4			; fffffffcH
  00103	83 f8 1f	 cmp	 eax, 31			; 0000001fH
  00106	77 2a		 ja	 SHORT $LN44@Emplace_re

; 165  :     _Ptr = reinterpret_cast<void*>(_Ptr_container);

  00108	8b c2		 mov	 eax, edx
$LN47@Emplace_re:

; 255  :         ::operator delete(_Ptr, _Bytes);

  0010a	51		 push	 ecx
  0010b	50		 push	 eax
  0010c	e8 00 00 00 00	 call	 ??3@YAXPAXI@Z		; operator delete
  00111	83 c4 08	 add	 esp, 8
$LN37@Emplace_re:
; File C:\Program Files\Microsoft Visual Studio\2022\Community\VC\Tools\MSVC\14.34.31933\include\vector

; 2093 :         _Mylast  = _Newvec + _Newsize;

  00114	8b 45 f4	 mov	 eax, DWORD PTR __Newsize$1$[ebp]
  00117	89 3e		 mov	 DWORD PTR [esi], edi
  00119	8d 0c 87	 lea	 ecx, DWORD PTR [edi+eax*4]

; 912  :         }
; 913  :         _CATCH_ALL
; 914  :         _Destroy_range(_Constructed_first, _Constructed_last, _Al);
; 915  :         _Al.deallocate(_Newvec, _Newcapacity);
; 916  :         _RERAISE;
; 917  :         _CATCH_END
; 918  : 
; 919  :         _Change_array(_Newvec, _Newsize, _Newcapacity);
; 920  :         return _Newvec + _Whereoff;

  0011c	8b c3		 mov	 eax, ebx

; 2093 :         _Mylast  = _Newvec + _Newsize;

  0011e	89 4e 04	 mov	 DWORD PTR [esi+4], ecx

; 2094 :         _Myend   = _Newvec + _Newcapacity;

  00121	8b 4d f8	 mov	 ecx, DWORD PTR tv639[ebp]
  00124	03 cf		 add	 ecx, edi

; 912  :         }
; 913  :         _CATCH_ALL
; 914  :         _Destroy_range(_Constructed_first, _Constructed_last, _Al);
; 915  :         _Al.deallocate(_Newvec, _Newcapacity);
; 916  :         _RERAISE;
; 917  :         _CATCH_END
; 918  : 
; 919  :         _Change_array(_Newvec, _Newsize, _Newcapacity);
; 920  :         return _Newvec + _Whereoff;

  00126	5f		 pop	 edi

; 2094 :         _Myend   = _Newvec + _Newcapacity;

  00127	89 4e 08	 mov	 DWORD PTR [esi+8], ecx

; 912  :         }
; 913  :         _CATCH_ALL
; 914  :         _Destroy_range(_Constructed_first, _Constructed_last, _Al);
; 915  :         _Al.deallocate(_Newvec, _Newcapacity);
; 916  :         _RERAISE;
; 917  :         _CATCH_END
; 918  : 
; 919  :         _Change_array(_Newvec, _Newsize, _Newcapacity);
; 920  :         return _Newvec + _Whereoff;

  0012a	5e		 pop	 esi
  0012b	5b		 pop	 ebx

; 921  :     }

  0012c	8b e5		 mov	 esp, ebp
  0012e	5d		 pop	 ebp
  0012f	c2 08 00	 ret	 8
$LN44@Emplace_re:
; File C:\Program Files\Microsoft Visual Studio\2022\Community\VC\Tools\MSVC\14.34.31933\include\xmemory

; 164  :     _STL_VERIFY(_Back_shift >= _Min_back_shift && _Back_shift <= _Non_user_size, "invalid argument");

  00132	e8 00 00 00 00	 call	 __invalid_parameter_noinfo_noreturn
$LN88@Emplace_re:
; File C:\Program Files\Microsoft Visual Studio\2022\Community\VC\Tools\MSVC\14.34.31933\include\vector

; 888  :             _Xlength();

  00137	e8 00 00 00 00	 call	 ?_Xlength@?$vector@PAVCBaseCollisionInstance@@V?$allocator@PAVCBaseCollisionInstance@@@std@@@std@@CAXXZ ; std::vector<CBaseCollisionInstance *,std::allocator<CBaseCollisionInstance *> >::_Xlength
$LN89@Emplace_re:
; File C:\Program Files\Microsoft Visual Studio\2022\Community\VC\Tools\MSVC\14.34.31933\include\xmemory

; 61   :             _Throw_bad_array_new_length(); // multiply overflow

  0013c	e8 00 00 00 00	 call	 ?_Throw_bad_array_new_length@std@@YAXXZ ; std::_Throw_bad_array_new_length
$LN86@Emplace_re:
  00141	cc		 int	 3
??$_Emplace_reallocate@PAVCBaseCollisionInstance@@@?$vector@PAVCBaseCollisionInstance@@V?$allocator@PAVCBaseCollisionInstance@@@std@@@std@@AAEPAPAVCBaseCollisionInstance@@QAPAV2@$$QAPAV2@@Z ENDP ; std::vector<CBaseCollisionInstance *,std::allocator<CBaseCollisionInstance *> >::_Emplace_reallocate<CBaseCollisionInstance *>
_TEXT	ENDS
; Function compile flags: /Ogtp
;	COMDAT ??_GCGraphicObjectInstance@@UAEPAXI@Z
_TEXT	SEGMENT
___flags$ = 8						; size = 4
??_GCGraphicObjectInstance@@UAEPAXI@Z PROC		; CGraphicObjectInstance::`scalar deleting destructor', COMDAT
; _this$ = ecx
  00000	55		 push	 ebp
  00001	8b ec		 mov	 ebp, esp
  00003	56		 push	 esi
  00004	8b f1		 mov	 esi, ecx
  00006	e8 00 00 00 00	 call	 ??1CGraphicObjectInstance@@UAE@XZ ; CGraphicObjectInstance::~CGraphicObjectInstance
  0000b	f6 45 08 01	 test	 BYTE PTR ___flags$[ebp], 1
  0000f	74 0e		 je	 SHORT $LN4@scalar
  00011	68 8c 02 00 00	 push	 652			; 0000028cH
  00016	56		 push	 esi
  00017	e8 00 00 00 00	 call	 ??3@YAXPAXI@Z		; operator delete
  0001c	83 c4 08	 add	 esp, 8
$LN4@scalar:
  0001f	8b c6		 mov	 eax, esi
  00021	5e		 pop	 esi
  00022	5d		 pop	 ebp
  00023	c2 04 00	 ret	 4
??_GCGraphicObjectInstance@@UAEPAXI@Z ENDP		; CGraphicObjectInstance::`scalar deleting destructor'
_TEXT	ENDS
; Function compile flags: /Ogtp
; File C:\Users\flourine\Desktop\Xantios\client-src\Code\EterLib\GrpObjectInstance.cpp
;	COMDAT ?SetAcceScale@CGraphicObjectInstance@@QAEXABUD3DXVECTOR3@@E@Z
_TEXT	SEGMENT
_rv3Scale$ = 8						; size = 4
_bRace$ = 12						; size = 1
?SetAcceScale@CGraphicObjectInstance@@QAEXABUD3DXVECTOR3@@E@Z PROC ; CGraphicObjectInstance::SetAcceScale, COMDAT
; _this$ = ecx

; 501  : {

  00000	55		 push	 ebp
  00001	8b ec		 mov	 ebp, esp

; 502  : 	m_v3ScaleAcce = rv3Scale;

  00003	8b 45 08	 mov	 eax, DWORD PTR _rv3Scale$[ebp]
  00006	f3 0f 7e 00	 movq	 xmm0, QWORD PTR [eax]
  0000a	66 0f d6 81 c0
	01 00 00	 movq	 QWORD PTR [ecx+448], xmm0
  00012	8b 40 08	 mov	 eax, DWORD PTR [eax+8]
  00015	89 81 c8 01 00
	00		 mov	 DWORD PTR [ecx+456], eax

; 503  : 	m_bAttachedAcceRace = bRace;

  0001b	8a 45 0c	 mov	 al, BYTE PTR _bRace$[ebp]
  0001e	88 81 bc 01 00
	00		 mov	 BYTE PTR [ecx+444], al

; 504  : }

  00024	5d		 pop	 ebp
  00025	c2 08 00	 ret	 8
?SetAcceScale@CGraphicObjectInstance@@QAEXABUD3DXVECTOR3@@E@Z ENDP ; CGraphicObjectInstance::SetAcceScale
_TEXT	ENDS
; Function compile flags: /Ogtp
; File C:\Users\flourine\Desktop\Xantios\client-src\Code\EterLib\GrpObjectInstance.cpp
;	COMDAT ?SetAcceScale@CGraphicObjectInstance@@QAEXMMM@Z
_TEXT	SEGMENT
_x$ = 8							; size = 4
_y$ = 12						; size = 4
_z$ = 16						; size = 4
?SetAcceScale@CGraphicObjectInstance@@QAEXMMM@Z PROC	; CGraphicObjectInstance::SetAcceScale, COMDAT
; _this$ = ecx

; 494  : {

  00000	55		 push	 ebp
  00001	8b ec		 mov	 ebp, esp

; 495  : 	m_v3ScaleAcce.x = x;

  00003	f3 0f 10 45 08	 movss	 xmm0, DWORD PTR _x$[ebp]
  00008	f3 0f 11 81 c0
	01 00 00	 movss	 DWORD PTR [ecx+448], xmm0

; 496  : 	m_v3ScaleAcce.y = y;

  00010	f3 0f 10 45 0c	 movss	 xmm0, DWORD PTR _y$[ebp]
  00015	f3 0f 11 81 c4
	01 00 00	 movss	 DWORD PTR [ecx+452], xmm0

; 497  : 	m_v3ScaleAcce.z = z;

  0001d	f3 0f 10 45 10	 movss	 xmm0, DWORD PTR _z$[ebp]
  00022	f3 0f 11 81 c8
	01 00 00	 movss	 DWORD PTR [ecx+456], xmm0

; 498  : }

  0002a	5d		 pop	 ebp
  0002b	c2 0c 00	 ret	 12			; 0000000cH
?SetAcceScale@CGraphicObjectInstance@@QAEXMMM@Z ENDP	; CGraphicObjectInstance::SetAcceScale
_TEXT	ENDS
; Function compile flags: /Ogtp
; File C:\Users\flourine\Desktop\Xantios\client-src\Code\EterLib\GrpObjectInstance.cpp
;	COMDAT ?SetScaleWorld@CGraphicObjectInstance@@QAEXMMM@Z
_TEXT	SEGMENT
_x$ = 8							; size = 4
_y$ = 12						; size = 4
_z$ = 16						; size = 4
?SetScaleWorld@CGraphicObjectInstance@@QAEXMMM@Z PROC	; CGraphicObjectInstance::SetScaleWorld, COMDAT
; _this$ = ecx

; 486  : {

  00000	55		 push	 ebp
  00001	8b ec		 mov	 ebp, esp

; 487  : 	m_v3Scale.x = x;
; 488  : 	m_v3Scale.y = y;
; 489  : 	m_v3Scale.z = z;

  00003	f3 0f 10 45 10	 movss	 xmm0, DWORD PTR _z$[ebp]

; 490  : 	D3DXMatrixScaling(&m_matScaleWorld, x, y, z);

  00008	8d 81 4c 02 00
	00		 lea	 eax, DWORD PTR [ecx+588]
  0000e	f3 0f 10 4d 0c	 movss	 xmm1, DWORD PTR _y$[ebp]
  00013	83 ec 0c	 sub	 esp, 12			; 0000000cH
  00016	f3 0f 10 55 08	 movss	 xmm2, DWORD PTR _x$[ebp]
  0001b	f3 0f 11 51 10	 movss	 DWORD PTR [ecx+16], xmm2
  00020	f3 0f 11 49 14	 movss	 DWORD PTR [ecx+20], xmm1
  00025	f3 0f 11 44 24
	08		 movss	 DWORD PTR [esp+8], xmm0
  0002b	f3 0f 11 4c 24
	04		 movss	 DWORD PTR [esp+4], xmm1
  00031	f3 0f 11 14 24	 movss	 DWORD PTR [esp], xmm2
  00036	50		 push	 eax
  00037	f3 0f 11 41 18	 movss	 DWORD PTR [ecx+24], xmm0
  0003c	e8 00 00 00 00	 call	 _D3DXMatrixScaling@16

; 491  : }

  00041	5d		 pop	 ebp
  00042	c2 0c 00	 ret	 12			; 0000000cH
?SetScaleWorld@CGraphicObjectInstance@@QAEXMMM@Z ENDP	; CGraphicObjectInstance::SetScaleWorld
_TEXT	ENDS
; Function compile flags: /Ogtp
; File C:\Users\flourine\Desktop\Xantios\client-src\Code\EterLib\GrpObjectInstance.cpp
;	COMDAT ?GetObjectHeight@CGraphicObjectInstance@@QAE_NMMPAM@Z
_TEXT	SEGMENT
_fX$ = 8						; size = 4
_fY$ = 12						; size = 4
_pfHeight$ = 16						; size = 4
?GetObjectHeight@CGraphicObjectInstance@@QAE_NMMPAM@Z PROC ; CGraphicObjectInstance::GetObjectHeight, COMDAT
; _this$ = ecx

; 444  : {

  00000	55		 push	 ebp
  00001	8b ec		 mov	 ebp, esp

; 445  : 	if (!m_pHeightAttributeInstance)

  00003	83 b9 b8 01 00
	00 00		 cmp	 DWORD PTR [ecx+440], 0
  0000a	75 06		 jne	 SHORT $LN2@GetObjectH

; 446  : 	{
; 447  : 		return false;

  0000c	32 c0		 xor	 al, al

; 451  : }

  0000e	5d		 pop	 ebp
  0000f	c2 0c 00	 ret	 12			; 0000000cH
$LN2@GetObjectH:

; 448  : 	}
; 449  : 
; 450  : 	return OnGetObjectHeight(fX, fY, pfHeight);

  00012	ff 75 10	 push	 DWORD PTR _pfHeight$[ebp]
  00015	8b 01		 mov	 eax, DWORD PTR [ecx]
  00017	f3 0f 10 45 0c	 movss	 xmm0, DWORD PTR _fY$[ebp]
  0001c	83 ec 08	 sub	 esp, 8
  0001f	8b 40 38	 mov	 eax, DWORD PTR [eax+56]
  00022	f3 0f 11 44 24
	04		 movss	 DWORD PTR [esp+4], xmm0
  00028	f3 0f 10 45 08	 movss	 xmm0, DWORD PTR _fX$[ebp]
  0002d	f3 0f 11 04 24	 movss	 DWORD PTR [esp], xmm0
  00032	ff d0		 call	 eax

; 451  : }

  00034	5d		 pop	 ebp
  00035	c2 0c 00	 ret	 12			; 0000000cH
?GetObjectHeight@CGraphicObjectInstance@@QAE_NMMPAM@Z ENDP ; CGraphicObjectInstance::GetObjectHeight
_TEXT	ENDS
; Function compile flags: /Ogtp
; File C:\Users\flourine\Desktop\Xantios\client-src\Code\EterLib\GrpObjectInstance.cpp
;	COMDAT ?IsObjectHeight@CGraphicObjectInstance@@QAE_NXZ
_TEXT	SEGMENT
?IsObjectHeight@CGraphicObjectInstance@@QAE_NXZ PROC	; CGraphicObjectInstance::IsObjectHeight, COMDAT
; _this$ = ecx

; 435  : 	if (m_pHeightAttributeInstance)

  00000	83 b9 b8 01 00
	00 00		 cmp	 DWORD PTR [ecx+440], 0
  00007	0f 95 c0	 setne	 al

; 436  : 	{
; 437  : 		return true;
; 438  : 	}
; 439  : 
; 440  : 	return false;
; 441  : }

  0000a	c3		 ret	 0
?IsObjectHeight@CGraphicObjectInstance@@QAE_NXZ ENDP	; CGraphicObjectInstance::IsObjectHeight
_TEXT	ENDS
; Function compile flags: /Ogtp
; File C:\Users\flourine\Desktop\Xantios\client-src\Code\EterLib\GrpObjectInstance.cpp
;	COMDAT ?UpdateHeightInstance@CGraphicObjectInstance@@QAEXPAVCAttributeInstance@@@Z
_TEXT	SEGMENT
_pAttributeInstance$ = 8				; size = 4
?UpdateHeightInstance@CGraphicObjectInstance@@QAEXPAVCAttributeInstance@@@Z PROC ; CGraphicObjectInstance::UpdateHeightInstance, COMDAT
; _this$ = ecx

; 428  : {

  00000	55		 push	 ebp
  00001	8b ec		 mov	 ebp, esp
  00003	56		 push	 esi
  00004	8b f1		 mov	 esi, ecx

; 429  : 	ClearHeightInstance();

  00006	e8 00 00 00 00	 call	 ?ClearHeightInstance@CGraphicObjectInstance@@QAEXXZ ; CGraphicObjectInstance::ClearHeightInstance

; 430  : 	OnUpdateHeighInstance(pAttributeInstance);

  0000b	8b 06		 mov	 eax, DWORD PTR [esi]
  0000d	8b ce		 mov	 ecx, esi
  0000f	ff 75 08	 push	 DWORD PTR _pAttributeInstance$[ebp]
  00012	ff 50 34	 call	 DWORD PTR [eax+52]
  00015	5e		 pop	 esi

; 431  : }

  00016	5d		 pop	 ebp
  00017	c2 04 00	 ret	 4
?UpdateHeightInstance@CGraphicObjectInstance@@QAEXPAVCAttributeInstance@@@Z ENDP ; CGraphicObjectInstance::UpdateHeightInstance
_TEXT	ENDS
; Function compile flags: /Ogtp
; File C:\Users\flourine\Desktop\Xantios\client-src\Code\EterLib\GrpObjectInstance.cpp
;	COMDAT ?ClearHeightInstance@CGraphicObjectInstance@@QAEXXZ
_TEXT	SEGMENT
?ClearHeightInstance@CGraphicObjectInstance@@QAEXXZ PROC ; CGraphicObjectInstance::ClearHeightInstance, COMDAT
; _this$ = ecx

; 424  : 	m_pHeightAttributeInstance = NULL;

  00000	c7 81 b8 01 00
	00 00 00 00 00	 mov	 DWORD PTR [ecx+440], 0

; 425  : }

  0000a	c3		 ret	 0
?ClearHeightInstance@CGraphicObjectInstance@@QAEXXZ ENDP ; CGraphicObjectInstance::ClearHeightInstance
_TEXT	ENDS
; Function compile flags: /Ogtp
; File C:\Users\flourine\Desktop\Xantios\client-src\Code\EterLib\GrpObjectInstance.cpp
;	COMDAT ?SetHeightInstance@CGraphicObjectInstance@@QAEXPAVCAttributeInstance@@@Z
_TEXT	SEGMENT
_pAttributeInstance$ = 8				; size = 4
?SetHeightInstance@CGraphicObjectInstance@@QAEXPAVCAttributeInstance@@@Z PROC ; CGraphicObjectInstance::SetHeightInstance, COMDAT
; _this$ = ecx

; 418  : {

  00000	55		 push	 ebp
  00001	8b ec		 mov	 ebp, esp

; 419  : 	m_pHeightAttributeInstance = pAttributeInstance;

  00003	8b 45 08	 mov	 eax, DWORD PTR _pAttributeInstance$[ebp]
  00006	89 81 b8 01 00
	00		 mov	 DWORD PTR [ecx+440], eax

; 420  : }

  0000c	5d		 pop	 ebp
  0000d	c2 04 00	 ret	 4
?SetHeightInstance@CGraphicObjectInstance@@QAEXPAVCAttributeInstance@@@Z ENDP ; CGraphicObjectInstance::SetHeightInstance
_TEXT	ENDS
; Function compile flags: /Ogtp
; File C:\Users\flourine\Desktop\Xantios\client-src\Code\EterLib\GrpObjectInstance.cpp
; File C:\Program Files\Microsoft Visual Studio\2022\Community\VC\Tools\MSVC\14.34.31933\include\vector
; File C:\Users\flourine\Desktop\Xantios\client-src\Code\EterLib\GrpObjectInstance.cpp
; File C:\Program Files\Microsoft Visual Studio\2022\Community\VC\Tools\MSVC\14.34.31933\include\vector
; File C:\Users\flourine\Desktop\Xantios\client-src\Code\EterLib\GrpObjectInstance.cpp
;	COMDAT ?GetCollisionInstanceData@CGraphicObjectInstance@@QAEPAVCBaseCollisionInstance@@K@Z
_TEXT	SEGMENT
_dwIndex$ = 8						; size = 4
?GetCollisionInstanceData@CGraphicObjectInstance@@QAEPAVCBaseCollisionInstance@@K@Z PROC ; CGraphicObjectInstance::GetCollisionInstanceData, COMDAT
; _this$ = ecx

; 406  : {

  00000	55		 push	 ebp
  00001	8b ec		 mov	 ebp, esp
; File C:\Program Files\Microsoft Visual Studio\2022\Community\VC\Tools\MSVC\14.34.31933\include\vector

; 1932 :         return static_cast<size_type>(_My_data._Mylast - _My_data._Myfirst);

  00003	8b 81 b0 01 00
	00		 mov	 eax, DWORD PTR [ecx+432]
  00009	8b 91 ac 01 00
	00		 mov	 edx, DWORD PTR [ecx+428]
  0000f	2b c2		 sub	 eax, edx
; File C:\Users\flourine\Desktop\Xantios\client-src\Code\EterLib\GrpObjectInstance.cpp

; 407  : 	if (dwIndex > m_StaticCollisionInstanceVector.size())

  00011	8b 4d 08	 mov	 ecx, DWORD PTR _dwIndex$[ebp]
; File C:\Program Files\Microsoft Visual Studio\2022\Community\VC\Tools\MSVC\14.34.31933\include\vector

; 1932 :         return static_cast<size_type>(_My_data._Mylast - _My_data._Myfirst);

  00014	c1 f8 02	 sar	 eax, 2
; File C:\Users\flourine\Desktop\Xantios\client-src\Code\EterLib\GrpObjectInstance.cpp

; 407  : 	if (dwIndex > m_StaticCollisionInstanceVector.size())

  00017	3b c8		 cmp	 ecx, eax
  00019	76 06		 jbe	 SHORT $LN2@GetCollisi

; 408  : 	{
; 409  : 		return 0;

  0001b	33 c0		 xor	 eax, eax

; 412  : }

  0001d	5d		 pop	 ebp
  0001e	c2 04 00	 ret	 4
$LN2@GetCollisi:

; 410  : 	}
; 411  : 	return m_StaticCollisionInstanceVector[dwIndex];

  00021	8b 04 8a	 mov	 eax, DWORD PTR [edx+ecx*4]

; 412  : }

  00024	5d		 pop	 ebp
  00025	c2 04 00	 ret	 4
?GetCollisionInstanceData@CGraphicObjectInstance@@QAEPAVCBaseCollisionInstance@@K@Z ENDP ; CGraphicObjectInstance::GetCollisionInstanceData
_TEXT	ENDS
; Function compile flags: /Ogtp
; File C:\Users\flourine\Desktop\Xantios\client-src\Code\EterLib\GrpObjectInstance.cpp
; File C:\Program Files\Microsoft Visual Studio\2022\Community\VC\Tools\MSVC\14.34.31933\include\vector
; File C:\Users\flourine\Desktop\Xantios\client-src\Code\EterLib\GrpObjectInstance.cpp
;	COMDAT ?GetCollisionInstanceCount@CGraphicObjectInstance@@QAEKXZ
_TEXT	SEGMENT
?GetCollisionInstanceCount@CGraphicObjectInstance@@QAEKXZ PROC ; CGraphicObjectInstance::GetCollisionInstanceCount, COMDAT
; _this$ = ecx
; File C:\Program Files\Microsoft Visual Studio\2022\Community\VC\Tools\MSVC\14.34.31933\include\vector

; 1932 :         return static_cast<size_type>(_My_data._Mylast - _My_data._Myfirst);

  00000	8b 81 b0 01 00
	00		 mov	 eax, DWORD PTR [ecx+432]
  00006	2b 81 ac 01 00
	00		 sub	 eax, DWORD PTR [ecx+428]
  0000c	c1 f8 02	 sar	 eax, 2
; File C:\Users\flourine\Desktop\Xantios\client-src\Code\EterLib\GrpObjectInstance.cpp

; 403  : }

  0000f	c3		 ret	 0
?GetCollisionInstanceCount@CGraphicObjectInstance@@QAEKXZ ENDP ; CGraphicObjectInstance::GetCollisionInstanceCount
_TEXT	ENDS
; Function compile flags: /Ogtp
; File C:\Program Files\Microsoft Visual Studio\2022\Community\VC\Tools\MSVC\14.34.31933\include\vector
;	COMDAT ?_Xlength@?$vector@PAVCBaseCollisionInstance@@V?$allocator@PAVCBaseCollisionInstance@@@std@@@std@@CAXXZ
_TEXT	SEGMENT
?_Xlength@?$vector@PAVCBaseCollisionInstance@@V?$allocator@PAVCBaseCollisionInstance@@@std@@@std@@CAXXZ PROC ; std::vector<CBaseCollisionInstance *,std::allocator<CBaseCollisionInstance *> >::_Xlength, COMDAT

; 2201 :         _Xlength_error("vector too long");

  00000	68 00 00 00 00	 push	 OFFSET ??_C@_0BA@FOIKENOD@vector?5too?5long@
  00005	e8 00 00 00 00	 call	 ?_Xlength_error@std@@YAXPBD@Z ; std::_Xlength_error
$LN3@Xlength:
  0000a	cc		 int	 3
?_Xlength@?$vector@PAVCBaseCollisionInstance@@V?$allocator@PAVCBaseCollisionInstance@@@std@@@std@@CAXXZ ENDP ; std::vector<CBaseCollisionInstance *,std::allocator<CBaseCollisionInstance *> >::_Xlength
_TEXT	ENDS
; Function compile flags: /Ogtp
; File C:\Program Files\Microsoft Visual Studio\2022\Community\VC\Tools\MSVC\14.34.31933\include\vector
; File C:\Program Files\Microsoft Visual Studio\2022\Community\VC\Tools\MSVC\14.34.31933\include\xmemory
; File C:\Program Files\Microsoft Visual Studio\2022\Community\VC\Tools\MSVC\14.34.31933\include\vector
; File C:\Program Files\Microsoft Visual Studio\2022\Community\VC\Tools\MSVC\14.34.31933\include\xmemory
; File C:\Program Files\Microsoft Visual Studio\2022\Community\VC\Tools\MSVC\14.34.31933\include\vector
; File C:\Program Files\Microsoft Visual Studio\2022\Community\VC\Tools\MSVC\14.34.31933\include\xmemory
; File C:\Program Files\Microsoft Visual Studio\2022\Community\VC\Tools\MSVC\14.34.31933\include\vector
;	COMDAT ??1?$vector@PAVCBaseCollisionInstance@@V?$allocator@PAVCBaseCollisionInstance@@@std@@@std@@QAE@XZ
_TEXT	SEGMENT
??1?$vector@PAVCBaseCollisionInstance@@V?$allocator@PAVCBaseCollisionInstance@@@std@@@std@@QAE@XZ PROC ; std::vector<CBaseCollisionInstance *,std::allocator<CBaseCollisionInstance *> >::~vector<CBaseCollisionInstance *,std::allocator<CBaseCollisionInstance *> >, COMDAT
; _this$ = ecx

; 829  :     _CONSTEXPR20 ~vector() noexcept {

  00000	56		 push	 esi
  00001	8b f1		 mov	 esi, ecx

; 2107 :         if (_Myfirst) { // destroy and deallocate old array

  00003	8b 06		 mov	 eax, DWORD PTR [esi]
  00005	85 c0		 test	 eax, eax
  00007	74 40		 je	 SHORT $LN4@vector

; 2108 :             _Destroy_range(_Myfirst, _Mylast, _Al);
; 2109 :             _ASAN_VECTOR_REMOVE;
; 2110 :             _Al.deallocate(_Myfirst, static_cast<size_type>(_Myend - _Myfirst));

  00009	8b 4e 08	 mov	 ecx, DWORD PTR [esi+8]
  0000c	2b c8		 sub	 ecx, eax
; File C:\Program Files\Microsoft Visual Studio\2022\Community\VC\Tools\MSVC\14.34.31933\include\xmemory

; 830  :         _Deallocate<_New_alignof<_Ty>>(_Ptr, sizeof(_Ty) * _Count);

  0000e	83 e1 fc	 and	 ecx, -4			; fffffffcH

; 251  :         if (_Bytes >= _Big_allocation_threshold) { // boost the alignment of big allocations to help autovectorization

  00011	81 f9 00 10 00
	00		 cmp	 ecx, 4096		; 00001000H
  00017	72 12		 jb	 SHORT $LN20@vector

; 150  :     const uintptr_t _Ptr_container   = _Ptr_user[-1];

  00019	8b 50 fc	 mov	 edx, DWORD PTR [eax-4]
  0001c	83 c1 23	 add	 ecx, 35			; 00000023H

; 151  : 
; 152  :     // If the following asserts, it likely means that we are performing
; 153  :     // an aligned delete on memory coming from an unaligned allocation.
; 154  :     _STL_ASSERT(_Ptr_user[-2] == _Big_allocation_sentinel, "invalid argument");
; 155  : 
; 156  :     // Extra paranoia on aligned allocation/deallocation; ensure _Ptr_container is
; 157  :     // in range [_Min_back_shift, _Non_user_size]
; 158  : #ifdef _DEBUG
; 159  :     constexpr uintptr_t _Min_back_shift = 2 * sizeof(void*);
; 160  : #else // ^^^ _DEBUG ^^^ // vvv !_DEBUG vvv
; 161  :     constexpr uintptr_t _Min_back_shift = sizeof(void*);
; 162  : #endif // _DEBUG
; 163  :     const uintptr_t _Back_shift = reinterpret_cast<uintptr_t>(_Ptr) - _Ptr_container;

  0001f	2b c2		 sub	 eax, edx

; 164  :     _STL_VERIFY(_Back_shift >= _Min_back_shift && _Back_shift <= _Non_user_size, "invalid argument");

  00021	83 c0 fc	 add	 eax, -4			; fffffffcH
  00024	83 f8 1f	 cmp	 eax, 31			; 0000001fH
  00027	77 22		 ja	 SHORT $LN17@vector

; 165  :     _Ptr = reinterpret_cast<void*>(_Ptr_container);

  00029	8b c2		 mov	 eax, edx
$LN20@vector:

; 255  :         ::operator delete(_Ptr, _Bytes);

  0002b	51		 push	 ecx
  0002c	50		 push	 eax
  0002d	e8 00 00 00 00	 call	 ??3@YAXPAXI@Z		; operator delete
; File C:\Program Files\Microsoft Visual Studio\2022\Community\VC\Tools\MSVC\14.34.31933\include\vector

; 2112 :             _Myfirst = nullptr;

  00032	c7 06 00 00 00
	00		 mov	 DWORD PTR [esi], 0
; File C:\Program Files\Microsoft Visual Studio\2022\Community\VC\Tools\MSVC\14.34.31933\include\xmemory

; 255  :         ::operator delete(_Ptr, _Bytes);

  00038	83 c4 08	 add	 esp, 8
; File C:\Program Files\Microsoft Visual Studio\2022\Community\VC\Tools\MSVC\14.34.31933\include\vector

; 2113 :             _Mylast  = nullptr;

  0003b	c7 46 04 00 00
	00 00		 mov	 DWORD PTR [esi+4], 0

; 2114 :             _Myend   = nullptr;

  00042	c7 46 08 00 00
	00 00		 mov	 DWORD PTR [esi+8], 0
$LN4@vector:
  00049	5e		 pop	 esi

; 835  :     }

  0004a	c3		 ret	 0
$LN17@vector:
; File C:\Program Files\Microsoft Visual Studio\2022\Community\VC\Tools\MSVC\14.34.31933\include\xmemory

; 164  :     _STL_VERIFY(_Back_shift >= _Min_back_shift && _Back_shift <= _Non_user_size, "invalid argument");

  0004b	e8 00 00 00 00	 call	 __invalid_parameter_noinfo_noreturn
$LN25@vector:
  00050	cc		 int	 3
??1?$vector@PAVCBaseCollisionInstance@@V?$allocator@PAVCBaseCollisionInstance@@@std@@@std@@QAE@XZ ENDP ; std::vector<CBaseCollisionInstance *,std::allocator<CBaseCollisionInstance *> >::~vector<CBaseCollisionInstance *,std::allocator<CBaseCollisionInstance *> >
_TEXT	ENDS
; Function compile flags: /Ogtp
; File C:\Users\flourine\Desktop\Xantios\client-src\Code\EterLib\GrpObjectInstance.cpp
;	COMDAT ?UpdateCollisionData@CGraphicObjectInstance@@QAEXPBV?$vector@VCStaticCollisionData@@V?$allocator@VCStaticCollisionData@@@std@@@std@@@Z
_TEXT	SEGMENT
_pscdVector$ = 8					; size = 4
?UpdateCollisionData@CGraphicObjectInstance@@QAEXPBV?$vector@VCStaticCollisionData@@V?$allocator@VCStaticCollisionData@@@std@@@std@@@Z PROC ; CGraphicObjectInstance::UpdateCollisionData, COMDAT
; _this$ = ecx

; 395  : {

  00000	55		 push	 ebp
  00001	8b ec		 mov	 ebp, esp
  00003	56		 push	 esi
  00004	8b f1		 mov	 esi, ecx

; 396  : 	ClearCollision();

  00006	e8 00 00 00 00	 call	 ?ClearCollision@CGraphicObjectInstance@@QAEXXZ ; CGraphicObjectInstance::ClearCollision

; 397  : 	OnUpdateCollisionData(pscdVector);

  0000b	8b 06		 mov	 eax, DWORD PTR [esi]
  0000d	8b ce		 mov	 ecx, esi
  0000f	ff 75 08	 push	 DWORD PTR _pscdVector$[ebp]
  00012	ff 50 30	 call	 DWORD PTR [eax+48]
  00015	5e		 pop	 esi

; 398  : }

  00016	5d		 pop	 ebp
  00017	c2 04 00	 ret	 4
?UpdateCollisionData@CGraphicObjectInstance@@QAEXPBV?$vector@VCStaticCollisionData@@V?$allocator@VCStaticCollisionData@@@std@@@std@@@Z ENDP ; CGraphicObjectInstance::UpdateCollisionData
_TEXT	ENDS
; Function compile flags: /Ogtp
; File C:\Users\flourine\Desktop\Xantios\client-src\Code\EterLib\GrpObjectInstance.cpp
; File C:\Program Files\Microsoft Visual Studio\2022\Community\VC\Tools\MSVC\14.34.31933\include\vector
; File C:\Users\flourine\Desktop\Xantios\client-src\Code\EterLib\GrpObjectInstance.cpp
; File C:\Users\flourine\Desktop\Xantios\client-src\Code\EterLib\CollisionData.h
; File C:\Users\flourine\Desktop\Xantios\client-src\Code\EterLib\GrpObjectInstance.cpp
; File C:\Program Files\Microsoft Visual Studio\2022\Community\VC\Tools\MSVC\14.34.31933\include\vector
; File C:\Users\flourine\Desktop\Xantios\client-src\Code\EterLib\GrpObjectInstance.cpp
; File C:\Users\flourine\Desktop\Xantios\client-src\extern\include\directX\d3dx9math.inl
; File C:\Users\flourine\Desktop\Xantios\client-src\Code\EterLib\GrpObjectInstance.cpp
; File C:\Users\flourine\Desktop\Xantios\client-src\extern\include\directX\d3dx9math.inl
; File C:\Users\flourine\Desktop\Xantios\client-src\Code\EterLib\GrpObjectInstance.cpp
; File C:\Users\flourine\Desktop\Xantios\client-src\Code\EterLib\CollisionData.h
; File C:\Users\flourine\Desktop\Xantios\client-src\Code\EterLib\GrpObjectInstance.cpp
;	COMDAT ?GetCollisionMovementAdjust@CGraphicObjectInstance@@QBE?AUD3DXVECTOR3@@ABUCDynamicSphereInstance@@@Z
_TEXT	SEGMENT
___$ReturnUdt$ = 8					; size = 4
_s$ = 12						; size = 4
?GetCollisionMovementAdjust@CGraphicObjectInstance@@QBE?AUD3DXVECTOR3@@ABUCDynamicSphereInstance@@@Z PROC ; CGraphicObjectInstance::GetCollisionMovementAdjust, COMDAT
; _this$ = ecx

; 381  : {

  00000	55		 push	 ebp
  00001	8b ec		 mov	 ebp, esp
  00003	53		 push	 ebx
  00004	56		 push	 esi
  00005	57		 push	 edi
  00006	8b f9		 mov	 edi, ecx
; File C:\Program Files\Microsoft Visual Studio\2022\Community\VC\Tools\MSVC\14.34.31933\include\vector

; 41   :     _CONSTEXPR20 _Vector_const_iterator(_Tptr _Parg, const _Container_base* _Pvector) noexcept : _Ptr(_Parg) {

  00008	8b b7 ac 01 00
	00		 mov	 esi, DWORD PTR [edi+428]
  0000e	3b b7 b0 01 00
	00		 cmp	 esi, DWORD PTR [edi+432]
; File C:\Users\flourine\Desktop\Xantios\client-src\Code\EterLib\GrpObjectInstance.cpp

; 383  : 	for (it = m_StaticCollisionInstanceVector.begin(); it != m_StaticCollisionInstanceVector.end(); ++it)

  00014	74 23		 je	 SHORT $LN3@GetCollisi
  00016	8b 5d 0c	 mov	 ebx, DWORD PTR _s$[ebp]
  00019	0f 1f 80 00 00
	00 00		 npad	 7
$LL20@GetCollisi:

; 385  : 		if ((*it)->MovementCollisionDynamicSphere(s))

  00020	8b 0e		 mov	 ecx, DWORD PTR [esi]
; File C:\Users\flourine\Desktop\Xantios\client-src\Code\EterLib\CollisionData.h

; 83   : 		return OnMovementCollisionDynamicSphere(s);

  00022	53		 push	 ebx
  00023	8b 01		 mov	 eax, DWORD PTR [ecx]
  00025	8b 40 08	 mov	 eax, DWORD PTR [eax+8]
  00028	ff d0		 call	 eax
; File C:\Users\flourine\Desktop\Xantios\client-src\Code\EterLib\GrpObjectInstance.cpp

; 385  : 		if ((*it)->MovementCollisionDynamicSphere(s))

  0002a	84 c0		 test	 al, al
  0002c	75 29		 jne	 SHORT $LN30@GetCollisi
; File C:\Program Files\Microsoft Visual Studio\2022\Community\VC\Tools\MSVC\14.34.31933\include\vector

; 74   :         ++_Ptr;

  0002e	83 c6 04	 add	 esi, 4

; 156  :         return _Ptr == _Right._Ptr;

  00031	3b b7 b0 01 00
	00		 cmp	 esi, DWORD PTR [edi+432]
; File C:\Users\flourine\Desktop\Xantios\client-src\Code\EterLib\GrpObjectInstance.cpp

; 383  : 	for (it = m_StaticCollisionInstanceVector.begin(); it != m_StaticCollisionInstanceVector.end(); ++it)

  00037	75 e7		 jne	 SHORT $LL20@GetCollisi
$LN3@GetCollisi:
; File C:\Users\flourine\Desktop\Xantios\client-src\extern\include\directX\d3dx9math.inl

; 304  :     x = fx;

  00039	8b 45 08	 mov	 eax, DWORD PTR ___$ReturnUdt$[ebp]
  0003c	5f		 pop	 edi
; File C:\Users\flourine\Desktop\Xantios\client-src\Code\EterLib\GrpObjectInstance.cpp

; 392  : }

  0003d	5e		 pop	 esi
  0003e	5b		 pop	 ebx
; File C:\Users\flourine\Desktop\Xantios\client-src\extern\include\directX\d3dx9math.inl

; 304  :     x = fx;

  0003f	c7 00 00 00 00
	00		 mov	 DWORD PTR [eax], 0

; 305  :     y = fy;

  00045	c7 40 04 00 00
	00 00		 mov	 DWORD PTR [eax+4], 0

; 306  :     z = fz;

  0004c	c7 40 08 00 00
	00 00		 mov	 DWORD PTR [eax+8], 0
; File C:\Users\flourine\Desktop\Xantios\client-src\Code\EterLib\GrpObjectInstance.cpp

; 392  : }

  00053	5d		 pop	 ebp
  00054	c2 08 00	 ret	 8
$LN30@GetCollisi:

; 387  : 			return (*it)->GetCollisionMovementAdjust(s);

  00057	8b 0e		 mov	 ecx, DWORD PTR [esi]
; File C:\Users\flourine\Desktop\Xantios\client-src\Code\EterLib\CollisionData.h

; 93   : 		return OnGetCollisionMovementAdjust(s);

  00059	8b 75 08	 mov	 esi, DWORD PTR ___$ReturnUdt$[ebp]
  0005c	53		 push	 ebx
  0005d	56		 push	 esi
  0005e	8b 11		 mov	 edx, DWORD PTR [ecx]
  00060	ff 52 04	 call	 DWORD PTR [edx+4]
  00063	5f		 pop	 edi
; File C:\Users\flourine\Desktop\Xantios\client-src\Code\EterLib\GrpObjectInstance.cpp

; 387  : 			return (*it)->GetCollisionMovementAdjust(s);

  00064	8b c6		 mov	 eax, esi

; 392  : }

  00066	5e		 pop	 esi
  00067	5b		 pop	 ebx
  00068	5d		 pop	 ebp
  00069	c2 08 00	 ret	 8
?GetCollisionMovementAdjust@CGraphicObjectInstance@@QBE?AUD3DXVECTOR3@@ABUCDynamicSphereInstance@@@Z ENDP ; CGraphicObjectInstance::GetCollisionMovementAdjust
_TEXT	ENDS
; Function compile flags: /Ogtp
; File C:\Users\flourine\Desktop\Xantios\client-src\Code\EterLib\GrpObjectInstance.cpp
; File C:\Program Files\Microsoft Visual Studio\2022\Community\VC\Tools\MSVC\14.34.31933\include\vector
; File C:\Users\flourine\Desktop\Xantios\client-src\Code\EterLib\GrpObjectInstance.cpp
; File C:\Users\flourine\Desktop\Xantios\client-src\Code\EterLib\CollisionData.h
; File C:\Users\flourine\Desktop\Xantios\client-src\Code\EterLib\GrpObjectInstance.cpp
; File C:\Program Files\Microsoft Visual Studio\2022\Community\VC\Tools\MSVC\14.34.31933\include\vector
; File C:\Users\flourine\Desktop\Xantios\client-src\Code\EterLib\GrpObjectInstance.cpp
;	COMDAT ?MovementCollisionDynamicSphere@CGraphicObjectInstance@@QBE_NABUCDynamicSphereInstance@@@Z
_TEXT	SEGMENT
_s$ = 8							; size = 4
?MovementCollisionDynamicSphere@CGraphicObjectInstance@@QBE_NABUCDynamicSphereInstance@@@Z PROC ; CGraphicObjectInstance::MovementCollisionDynamicSphere, COMDAT
; _this$ = ecx

; 368  : {

  00000	55		 push	 ebp
  00001	8b ec		 mov	 ebp, esp
  00003	53		 push	 ebx
  00004	56		 push	 esi
  00005	57		 push	 edi
  00006	8b f9		 mov	 edi, ecx
; File C:\Program Files\Microsoft Visual Studio\2022\Community\VC\Tools\MSVC\14.34.31933\include\vector

; 41   :     _CONSTEXPR20 _Vector_const_iterator(_Tptr _Parg, const _Container_base* _Pvector) noexcept : _Ptr(_Parg) {

  00008	8b b7 ac 01 00
	00		 mov	 esi, DWORD PTR [edi+428]
  0000e	3b b7 b0 01 00
	00		 cmp	 esi, DWORD PTR [edi+432]
; File C:\Users\flourine\Desktop\Xantios\client-src\Code\EterLib\GrpObjectInstance.cpp

; 370  : 	for (it = m_StaticCollisionInstanceVector.begin(); it != m_StaticCollisionInstanceVector.end(); ++it)

  00014	74 23		 je	 SHORT $LN3@MovementCo
  00016	8b 5d 08	 mov	 ebx, DWORD PTR _s$[ebp]
  00019	0f 1f 80 00 00
	00 00		 npad	 7
$LL18@MovementCo:

; 372  : 		if ((*it)->MovementCollisionDynamicSphere(s))

  00020	8b 0e		 mov	 ecx, DWORD PTR [esi]
; File C:\Users\flourine\Desktop\Xantios\client-src\Code\EterLib\CollisionData.h

; 83   : 		return OnMovementCollisionDynamicSphere(s);

  00022	53		 push	 ebx
  00023	8b 01		 mov	 eax, DWORD PTR [ecx]
  00025	8b 40 08	 mov	 eax, DWORD PTR [eax+8]
  00028	ff d0		 call	 eax
; File C:\Users\flourine\Desktop\Xantios\client-src\Code\EterLib\GrpObjectInstance.cpp

; 372  : 		if ((*it)->MovementCollisionDynamicSphere(s))

  0002a	84 c0		 test	 al, al
  0002c	75 14		 jne	 SHORT $LN26@MovementCo
; File C:\Program Files\Microsoft Visual Studio\2022\Community\VC\Tools\MSVC\14.34.31933\include\vector

; 74   :         ++_Ptr;

  0002e	83 c6 04	 add	 esi, 4

; 156  :         return _Ptr == _Right._Ptr;

  00031	3b b7 b0 01 00
	00		 cmp	 esi, DWORD PTR [edi+432]
; File C:\Users\flourine\Desktop\Xantios\client-src\Code\EterLib\GrpObjectInstance.cpp

; 370  : 	for (it = m_StaticCollisionInstanceVector.begin(); it != m_StaticCollisionInstanceVector.end(); ++it)

  00037	75 e7		 jne	 SHORT $LL18@MovementCo
$LN3@MovementCo:
  00039	5f		 pop	 edi

; 373  : 		{
; 374  : 			return true;
; 375  : 		}
; 376  : 	}
; 377  : 	return false;
; 378  : }

  0003a	5e		 pop	 esi
  0003b	32 c0		 xor	 al, al
  0003d	5b		 pop	 ebx
  0003e	5d		 pop	 ebp
  0003f	c2 04 00	 ret	 4
$LN26@MovementCo:
  00042	5f		 pop	 edi
  00043	5e		 pop	 esi
  00044	b0 01		 mov	 al, 1
  00046	5b		 pop	 ebx
  00047	5d		 pop	 ebp
  00048	c2 04 00	 ret	 4
?MovementCollisionDynamicSphere@CGraphicObjectInstance@@QBE_NABUCDynamicSphereInstance@@@Z ENDP ; CGraphicObjectInstance::MovementCollisionDynamicSphere
_TEXT	ENDS
; Function compile flags: /Ogtp
; File C:\Users\flourine\Desktop\Xantios\client-src\Code\EterLib\GrpObjectInstance.cpp
; File C:\Program Files\Microsoft Visual Studio\2022\Community\VC\Tools\MSVC\14.34.31933\include\vector
; File C:\Users\flourine\Desktop\Xantios\client-src\Code\EterLib\GrpObjectInstance.cpp
; File C:\Users\flourine\Desktop\Xantios\client-src\Code\EterLib\CollisionData.h
; File C:\Users\flourine\Desktop\Xantios\client-src\Code\EterLib\GrpObjectInstance.cpp
; File C:\Program Files\Microsoft Visual Studio\2022\Community\VC\Tools\MSVC\14.34.31933\include\vector
; File C:\Users\flourine\Desktop\Xantios\client-src\Code\EterLib\GrpObjectInstance.cpp
;	COMDAT ?CollisionDynamicSphere@CGraphicObjectInstance@@QBE_NABUCDynamicSphereInstance@@@Z
_TEXT	SEGMENT
_s$ = 8							; size = 4
?CollisionDynamicSphere@CGraphicObjectInstance@@QBE_NABUCDynamicSphereInstance@@@Z PROC ; CGraphicObjectInstance::CollisionDynamicSphere, COMDAT
; _this$ = ecx

; 355  : {

  00000	55		 push	 ebp
  00001	8b ec		 mov	 ebp, esp
  00003	53		 push	 ebx
  00004	56		 push	 esi
  00005	57		 push	 edi
  00006	8b f9		 mov	 edi, ecx
; File C:\Program Files\Microsoft Visual Studio\2022\Community\VC\Tools\MSVC\14.34.31933\include\vector

; 41   :     _CONSTEXPR20 _Vector_const_iterator(_Tptr _Parg, const _Container_base* _Pvector) noexcept : _Ptr(_Parg) {

  00008	8b b7 ac 01 00
	00		 mov	 esi, DWORD PTR [edi+428]
  0000e	3b b7 b0 01 00
	00		 cmp	 esi, DWORD PTR [edi+432]
; File C:\Users\flourine\Desktop\Xantios\client-src\Code\EterLib\GrpObjectInstance.cpp

; 357  : 	for (it = m_StaticCollisionInstanceVector.begin(); it != m_StaticCollisionInstanceVector.end(); ++it)

  00014	74 23		 je	 SHORT $LN3@CollisionD
  00016	8b 5d 08	 mov	 ebx, DWORD PTR _s$[ebp]
  00019	0f 1f 80 00 00
	00 00		 npad	 7
$LL18@CollisionD:

; 359  : 		if ((*it)->CollisionDynamicSphere(s))

  00020	8b 0e		 mov	 ecx, DWORD PTR [esi]
; File C:\Users\flourine\Desktop\Xantios\client-src\Code\EterLib\CollisionData.h

; 87   : 		return OnCollisionDynamicSphere(s);

  00022	53		 push	 ebx
  00023	8b 01		 mov	 eax, DWORD PTR [ecx]
  00025	8b 40 0c	 mov	 eax, DWORD PTR [eax+12]
  00028	ff d0		 call	 eax
; File C:\Users\flourine\Desktop\Xantios\client-src\Code\EterLib\GrpObjectInstance.cpp

; 359  : 		if ((*it)->CollisionDynamicSphere(s))

  0002a	84 c0		 test	 al, al
  0002c	75 14		 jne	 SHORT $LN26@CollisionD
; File C:\Program Files\Microsoft Visual Studio\2022\Community\VC\Tools\MSVC\14.34.31933\include\vector

; 74   :         ++_Ptr;

  0002e	83 c6 04	 add	 esi, 4

; 156  :         return _Ptr == _Right._Ptr;

  00031	3b b7 b0 01 00
	00		 cmp	 esi, DWORD PTR [edi+432]
; File C:\Users\flourine\Desktop\Xantios\client-src\Code\EterLib\GrpObjectInstance.cpp

; 357  : 	for (it = m_StaticCollisionInstanceVector.begin(); it != m_StaticCollisionInstanceVector.end(); ++it)

  00037	75 e7		 jne	 SHORT $LL18@CollisionD
$LN3@CollisionD:
  00039	5f		 pop	 edi

; 360  : 		{
; 361  : 			return true;
; 362  : 		}
; 363  : 	}
; 364  : 	return false;
; 365  : }

  0003a	5e		 pop	 esi
  0003b	32 c0		 xor	 al, al
  0003d	5b		 pop	 ebx
  0003e	5d		 pop	 ebp
  0003f	c2 04 00	 ret	 4
$LN26@CollisionD:
  00042	5f		 pop	 edi
  00043	5e		 pop	 esi
  00044	b0 01		 mov	 al, 1
  00046	5b		 pop	 ebx
  00047	5d		 pop	 ebp
  00048	c2 04 00	 ret	 4
?CollisionDynamicSphere@CGraphicObjectInstance@@QBE_NABUCDynamicSphereInstance@@@Z ENDP ; CGraphicObjectInstance::CollisionDynamicSphere
_TEXT	ENDS
; Function compile flags: /Ogtp
; File C:\Users\flourine\Desktop\Xantios\client-src\Code\EterLib\GrpObjectInstance.cpp
; File C:\Program Files\Microsoft Visual Studio\2022\Community\VC\Tools\MSVC\14.34.31933\include\vector
; File C:\Users\flourine\Desktop\Xantios\client-src\Code\EterLib\GrpObjectInstance.cpp
; File C:\Program Files\Microsoft Visual Studio\2022\Community\VC\Tools\MSVC\14.34.31933\include\vector
; File C:\Users\flourine\Desktop\Xantios\client-src\Code\EterLib\GrpObjectInstance.cpp
; File C:\Program Files\Microsoft Visual Studio\2022\Community\VC\Tools\MSVC\14.34.31933\include\vector
; File C:\Users\flourine\Desktop\Xantios\client-src\Code\EterLib\GrpObjectInstance.cpp
;	COMDAT ?ClearCollision@CGraphicObjectInstance@@QAEXXZ
_TEXT	SEGMENT
?ClearCollision@CGraphicObjectInstance@@QAEXXZ PROC	; CGraphicObjectInstance::ClearCollision, COMDAT
; _this$ = ecx

; 345  : {

  00000	56		 push	 esi
  00001	57		 push	 edi
  00002	8b f9		 mov	 edi, ecx
; File C:\Program Files\Microsoft Visual Studio\2022\Community\VC\Tools\MSVC\14.34.31933\include\vector

; 41   :     _CONSTEXPR20 _Vector_const_iterator(_Tptr _Parg, const _Container_base* _Pvector) noexcept : _Ptr(_Parg) {

  00004	8b b7 ac 01 00
	00		 mov	 esi, DWORD PTR [edi+428]
  0000a	3b b7 b0 01 00
	00		 cmp	 esi, DWORD PTR [edi+432]
; File C:\Users\flourine\Desktop\Xantios\client-src\Code\EterLib\GrpObjectInstance.cpp

; 347  : 	for (it = m_StaticCollisionInstanceVector.begin(); it != m_StaticCollisionInstanceVector.end(); ++it)

  00010	74 12		 je	 SHORT $LN3@ClearColli
$LL19@ClearColli:

; 348  : 	{
; 349  : 		(*it)->Destroy();

  00012	8b 0e		 mov	 ecx, DWORD PTR [esi]
  00014	e8 00 00 00 00	 call	 ?Destroy@CBaseCollisionInstance@@QAEXXZ ; CBaseCollisionInstance::Destroy
; File C:\Program Files\Microsoft Visual Studio\2022\Community\VC\Tools\MSVC\14.34.31933\include\vector

; 74   :         ++_Ptr;

  00019	83 c6 04	 add	 esi, 4

; 156  :         return _Ptr == _Right._Ptr;

  0001c	3b b7 b0 01 00
	00		 cmp	 esi, DWORD PTR [edi+432]
; File C:\Users\flourine\Desktop\Xantios\client-src\Code\EterLib\GrpObjectInstance.cpp

; 347  : 	for (it = m_StaticCollisionInstanceVector.begin(); it != m_StaticCollisionInstanceVector.end(); ++it)

  00022	75 ee		 jne	 SHORT $LL19@ClearColli
$LN3@ClearColli:
; File C:\Program Files\Microsoft Visual Studio\2022\Community\VC\Tools\MSVC\14.34.31933\include\vector

; 1829 :         if (_Myfirst == _Mylast) { // already empty, nothing to do

  00024	8b 87 ac 01 00
	00		 mov	 eax, DWORD PTR [edi+428]
  0002a	3b 87 b0 01 00
	00		 cmp	 eax, DWORD PTR [edi+432]
  00030	74 06		 je	 SHORT $LN20@ClearColli

; 1830 :             // This is an optimization for debug mode: we can avoid taking the debug lock to invalidate iterators.
; 1831 :             // Note that when clearing an empty vector, this will preserve past-the-end iterators, which is allowed by
; 1832 :             // N4901 [tab:container.seq.req] "a.clear() [...] may invalidate the past-the-end iterator".
; 1833 :             return;
; 1834 :         }
; 1835 : 
; 1836 :         _My_data._Orphan_all();
; 1837 :         _Destroy_range(_Myfirst, _Mylast, _Getal());
; 1838 :         _ASAN_VECTOR_MODIFY(static_cast<difference_type>(_Myfirst - _Mylast)); // negative when destroying elements
; 1839 :         _Mylast = _Myfirst;

  00032	89 87 b0 01 00
	00		 mov	 DWORD PTR [edi+432], eax
$LN20@ClearColli:
  00038	5f		 pop	 edi
; File C:\Users\flourine\Desktop\Xantios\client-src\Code\EterLib\GrpObjectInstance.cpp

; 352  : }

  00039	5e		 pop	 esi
  0003a	c3		 ret	 0
?ClearCollision@CGraphicObjectInstance@@QAEXXZ ENDP	; CGraphicObjectInstance::ClearCollision
_TEXT	ENDS
; Function compile flags: /Ogtp
; File C:\Users\flourine\Desktop\Xantios\client-src\Code\EterLib\GrpObjectInstance.cpp
; File C:\Program Files\Microsoft Visual Studio\2022\Community\VC\Tools\MSVC\14.34.31933\include\vector
; File C:\Users\flourine\Desktop\Xantios\client-src\Code\EterLib\GrpObjectInstance.cpp
; File C:\Program Files\Microsoft Visual Studio\2022\Community\VC\Tools\MSVC\14.34.31933\include\vector
; File C:\Users\flourine\Desktop\Xantios\client-src\Code\EterLib\GrpObjectInstance.cpp
; File C:\Program Files\Microsoft Visual Studio\2022\Community\VC\Tools\MSVC\14.34.31933\include\vector
; File C:\Users\flourine\Desktop\Xantios\client-src\Code\EterLib\GrpObjectInstance.cpp
;	COMDAT ?AddCollision@CGraphicObjectInstance@@QAEXPBVCStaticCollisionData@@PBUD3DXMATRIX@@@Z
_TEXT	SEGMENT
_pscd$ = 8						; size = 4
$T1 = 12						; size = 4
_pMat$ = 12						; size = 4
?AddCollision@CGraphicObjectInstance@@QAEXPBVCStaticCollisionData@@PBUD3DXMATRIX@@@Z PROC ; CGraphicObjectInstance::AddCollision, COMDAT
; _this$ = ecx

; 340  : {

  00000	55		 push	 ebp
  00001	8b ec		 mov	 ebp, esp
  00003	56		 push	 esi
  00004	57		 push	 edi

; 341  : 	m_StaticCollisionInstanceVector.push_back(CBaseCollisionInstance::BuildCollisionInstance(pscd, pMat));

  00005	ff 75 0c	 push	 DWORD PTR _pMat$[ebp]
  00008	8b f1		 mov	 esi, ecx
  0000a	ff 75 08	 push	 DWORD PTR _pscd$[ebp]
  0000d	e8 00 00 00 00	 call	 ?BuildCollisionInstance@CBaseCollisionInstance@@SAPAV1@PBVCStaticCollisionData@@PBUD3DXMATRIX@@@Z ; CBaseCollisionInstance::BuildCollisionInstance
; File C:\Program Files\Microsoft Visual Studio\2022\Community\VC\Tools\MSVC\14.34.31933\include\vector

; 844  :         if (_Mylast != _My_data._Myend) {

  00012	8b 8e b0 01 00
	00		 mov	 ecx, DWORD PTR [esi+432]
; File C:\Users\flourine\Desktop\Xantios\client-src\Code\EterLib\GrpObjectInstance.cpp

; 341  : 	m_StaticCollisionInstanceVector.push_back(CBaseCollisionInstance::BuildCollisionInstance(pscd, pMat));

  00018	83 c4 08	 add	 esp, 8
  0001b	89 45 0c	 mov	 DWORD PTR $T1[ebp], eax
; File C:\Program Files\Microsoft Visual Studio\2022\Community\VC\Tools\MSVC\14.34.31933\include\vector

; 844  :         if (_Mylast != _My_data._Myend) {

  0001e	3b 8e b4 01 00
	00		 cmp	 ecx, DWORD PTR [esi+436]
  00024	74 0f		 je	 SHORT $LN6@AddCollisi

; 860  :             _Construct_in_place(*_Mylast, _STD forward<_Valty>(_Val)...);

  00026	89 01		 mov	 DWORD PTR [ecx], eax

; 861  :         } else {
; 862  :             _ASAN_VECTOR_EXTEND_GUARD(static_cast<size_type>(_Mylast - _My_data._Myfirst) + 1);
; 863  :             _Alty_traits::construct(_Getal(), _Unfancy(_Mylast), _STD forward<_Valty>(_Val)...);
; 864  :             _ASAN_VECTOR_RELEASE_GUARD;
; 865  :         }
; 866  : 
; 867  :         _Orphan_range(_Mylast, _Mylast);
; 868  :         _Ty& _Result = *_Mylast;
; 869  :         ++_Mylast;

  00028	83 86 b0 01 00
	00 04		 add	 DWORD PTR [esi+432], 4
  0002f	5f		 pop	 edi
; File C:\Users\flourine\Desktop\Xantios\client-src\Code\EterLib\GrpObjectInstance.cpp

; 342  : }

  00030	5e		 pop	 esi
  00031	5d		 pop	 ebp
  00032	c2 08 00	 ret	 8
$LN6@AddCollisi:
; File C:\Program Files\Microsoft Visual Studio\2022\Community\VC\Tools\MSVC\14.34.31933\include\vector

; 848  :         return *_Emplace_reallocate(_Mylast, _STD forward<_Valty>(_Val)...);

  00035	8d 45 0c	 lea	 eax, DWORD PTR $T1[ebp]
  00038	50		 push	 eax
  00039	51		 push	 ecx
  0003a	8d 8e ac 01 00
	00		 lea	 ecx, DWORD PTR [esi+428]
  00040	e8 00 00 00 00	 call	 ??$_Emplace_reallocate@PAVCBaseCollisionInstance@@@?$vector@PAVCBaseCollisionInstance@@V?$allocator@PAVCBaseCollisionInstance@@@std@@@std@@AAEPAPAVCBaseCollisionInstance@@QAPAV2@$$QAPAV2@@Z ; std::vector<CBaseCollisionInstance *,std::allocator<CBaseCollisionInstance *> >::_Emplace_reallocate<CBaseCollisionInstance *>
  00045	5f		 pop	 edi
; File C:\Users\flourine\Desktop\Xantios\client-src\Code\EterLib\GrpObjectInstance.cpp

; 342  : }

  00046	5e		 pop	 esi
  00047	5d		 pop	 ebp
  00048	c2 08 00	 ret	 8
?AddCollision@CGraphicObjectInstance@@QAEXPBVCStaticCollisionData@@PBUD3DXMATRIX@@@Z ENDP ; CGraphicObjectInstance::AddCollision
_TEXT	ENDS
; Function compile flags: /Ogtp
; File C:\Users\flourine\Desktop\Xantios\client-src\Code\EterLib\GrpObjectInstance.cpp
;	COMDAT ?Scale@CGraphicObjectInstance@@QAEXMMM@Z
_TEXT	SEGMENT
_x$ = 8							; size = 4
_y$ = 12						; size = 4
_z$ = 16						; size = 4
?Scale@CGraphicObjectInstance@@QAEXMMM@Z PROC		; CGraphicObjectInstance::Scale, COMDAT
; _this$ = ecx

; 481  : {

  00000	55		 push	 ebp
  00001	8b ec		 mov	 ebp, esp

; 482  : 	D3DXMatrixScaling(&scaleMatrix_, x, y, z);

  00003	f3 0f 10 45 10	 movss	 xmm0, DWORD PTR _z$[ebp]
  00008	8d 81 6c 01 00
	00		 lea	 eax, DWORD PTR [ecx+364]
  0000e	83 ec 0c	 sub	 esp, 12			; 0000000cH
  00011	f3 0f 11 44 24
	08		 movss	 DWORD PTR [esp+8], xmm0
  00017	f3 0f 10 45 0c	 movss	 xmm0, DWORD PTR _y$[ebp]
  0001c	f3 0f 11 44 24
	04		 movss	 DWORD PTR [esp+4], xmm0
  00022	f3 0f 10 45 08	 movss	 xmm0, DWORD PTR _x$[ebp]
  00027	f3 0f 11 04 24	 movss	 DWORD PTR [esp], xmm0
  0002c	50		 push	 eax
  0002d	e8 00 00 00 00	 call	 _D3DXMatrixScaling@16

; 483  : }

  00032	5d		 pop	 ebp
  00033	c2 0c 00	 ret	 12			; 0000000cH
?Scale@CGraphicObjectInstance@@QAEXMMM@Z ENDP		; CGraphicObjectInstance::Scale
_TEXT	ENDS
; Function compile flags: /Ogtp
; File C:\Users\flourine\Desktop\Xantios\client-src\Code\EterLib\GrpObjectInstance.cpp
;	COMDAT ?Scale@CGraphicObjectInstance@@QAEXABUD3DXVECTOR3@@@Z
_TEXT	SEGMENT
_scale$ = 8						; size = 4
?Scale@CGraphicObjectInstance@@QAEXABUD3DXVECTOR3@@@Z PROC ; CGraphicObjectInstance::Scale, COMDAT
; _this$ = ecx

; 476  : {

  00000	55		 push	 ebp
  00001	8b ec		 mov	 ebp, esp

; 477  : 	Scale(scale.x, scale.y, scale.z);

  00003	8b 45 08	 mov	 eax, DWORD PTR _scale$[ebp]
  00006	83 ec 0c	 sub	 esp, 12			; 0000000cH
  00009	f3 0f 10 40 08	 movss	 xmm0, DWORD PTR [eax+8]
  0000e	f3 0f 11 44 24
	08		 movss	 DWORD PTR [esp+8], xmm0
  00014	f3 0f 10 40 04	 movss	 xmm0, DWORD PTR [eax+4]
  00019	f3 0f 11 44 24
	04		 movss	 DWORD PTR [esp+4], xmm0
  0001f	f3 0f 10 00	 movss	 xmm0, DWORD PTR [eax]
  00023	f3 0f 11 04 24	 movss	 DWORD PTR [esp], xmm0
  00028	e8 00 00 00 00	 call	 ?Scale@CGraphicObjectInstance@@QAEXMMM@Z ; CGraphicObjectInstance::Scale

; 478  : }

  0002d	5d		 pop	 ebp
  0002e	c2 04 00	 ret	 4
?Scale@CGraphicObjectInstance@@QAEXABUD3DXVECTOR3@@@Z ENDP ; CGraphicObjectInstance::Scale
_TEXT	ENDS
; Function compile flags: /Ogtp
; File C:\Users\flourine\Desktop\Xantios\client-src\Code\EterLib\GrpObjectInstance.h
;	COMDAT ?OnDeform@CGraphicObjectInstance@@UAEXXZ
_TEXT	SEGMENT
?OnDeform@CGraphicObjectInstance@@UAEXXZ PROC		; CGraphicObjectInstance::OnDeform, COMDAT
; _this$ = ecx

; 100  : 	virtual void			OnDeform() {}

  00000	c2 00 00	 ret	 0
?OnDeform@CGraphicObjectInstance@@UAEXXZ ENDP		; CGraphicObjectInstance::OnDeform
_TEXT	ENDS
; Function compile flags: /Ogtp
; File C:\Users\flourine\Desktop\Xantios\client-src\Code\EterLib\GrpObjectInstance.h
;	COMDAT ?OnUpdate@CGraphicObjectInstance@@UAEXXZ
_TEXT	SEGMENT
?OnUpdate@CGraphicObjectInstance@@UAEXXZ PROC		; CGraphicObjectInstance::OnUpdate, COMDAT
; _this$ = ecx

; 99   : 	virtual void			OnUpdate() {}

  00000	c2 00 00	 ret	 0
?OnUpdate@CGraphicObjectInstance@@UAEXXZ ENDP		; CGraphicObjectInstance::OnUpdate
_TEXT	ENDS
; Function compile flags: /Ogtp
; File C:\Users\flourine\Desktop\Xantios\client-src\Code\EterLib\GrpObjectInstance.h
;	COMDAT ?OnClear@CGraphicObjectInstance@@UAEXXZ
_TEXT	SEGMENT
?OnClear@CGraphicObjectInstance@@UAEXXZ PROC		; CGraphicObjectInstance::OnClear, COMDAT
; _this$ = ecx

; 98   : 	virtual void			OnClear() {}

  00000	c2 00 00	 ret	 0
?OnClear@CGraphicObjectInstance@@UAEXXZ ENDP		; CGraphicObjectInstance::OnClear
_TEXT	ENDS
; Function compile flags: /Ogtp
; File C:\Users\flourine\Desktop\Xantios\client-src\Code\EterLib\GrpObjectInstance.cpp
;	COMDAT ?RegisterBoundingSphere@CGraphicObjectInstance@@QAEXXZ
_TEXT	SEGMENT
?RegisterBoundingSphere@CGraphicObjectInstance@@QAEXXZ PROC ; CGraphicObjectInstance::RegisterBoundingSphere, COMDAT
; _this$ = ecx

; 330  : {

  00000	56		 push	 esi
  00001	8b f1		 mov	 esi, ecx

; 331  : 	if (m_CullingHandle)

  00003	8b 86 68 01 00
	00		 mov	 eax, DWORD PTR [esi+360]
  00009	85 c0		 test	 eax, eax
  0000b	74 0c		 je	 SHORT $LN2@RegisterBo

; 332  : 	{
; 333  : 		CCullingManager::Instance().Unregister(m_CullingHandle);

  0000d	8b 0d 00 00 00
	00		 mov	 ecx, DWORD PTR ?ms_singleton@?$CSingleton@VCCullingManager@@@@0PAVCCullingManager@@A ; CSingleton<CCullingManager>::ms_singleton
  00013	50		 push	 eax
  00014	e8 00 00 00 00	 call	 ?Unregister@CCullingManager@@QAEXPAVSpherePack@@@Z ; CCullingManager::Unregister
$LN2@RegisterBo:

; 334  : 	}
; 335  : 
; 336  : 	m_CullingHandle = CCullingManager::Instance().Register(this);

  00019	8b 0d 00 00 00
	00		 mov	 ecx, DWORD PTR ?ms_singleton@?$CSingleton@VCCullingManager@@@@0PAVCCullingManager@@A ; CSingleton<CCullingManager>::ms_singleton
  0001f	56		 push	 esi
  00020	e8 00 00 00 00	 call	 ?Register@CCullingManager@@QAEPAVSpherePack@@PAVCGraphicObjectInstance@@@Z ; CCullingManager::Register
  00025	89 86 68 01 00
	00		 mov	 DWORD PTR [esi+360], eax
  0002b	5e		 pop	 esi

; 337  : }

  0002c	c3		 ret	 0
?RegisterBoundingSphere@CGraphicObjectInstance@@QAEXXZ ENDP ; CGraphicObjectInstance::RegisterBoundingSphere
_TEXT	ENDS
; Function compile flags: /Ogtp
; File C:\Users\flourine\Desktop\Xantios\client-src\Code\EterLib\GrpObjectInstance.cpp
; File C:\Users\flourine\Desktop\Xantios\client-src\Code\SphereLib\vector.h
; File C:\Users\flourine\Desktop\Xantios\client-src\Code\SphereLib\spherepack.h
; File C:\Users\flourine\Desktop\Xantios\client-src\Code\SphereLib\sphere.h
; File C:\Users\flourine\Desktop\Xantios\client-src\Code\SphereLib\spherepack.h
; File C:\Users\flourine\Desktop\Xantios\client-src\Code\SphereLib\vector.h
; File C:\Users\flourine\Desktop\Xantios\client-src\Code\SphereLib\spherepack.h
; File C:\Users\flourine\Desktop\Xantios\client-src\Code\EterLib\GrpObjectInstance.cpp
; File C:\Users\flourine\Desktop\Xantios\client-src\Code\SphereLib\vector.h
; File C:\Users\flourine\Desktop\Xantios\client-src\Code\SphereLib\spherepack.h
; File C:\Users\flourine\Desktop\Xantios\client-src\Code\SphereLib\vector.h
; File C:\Users\flourine\Desktop\Xantios\client-src\Code\SphereLib\spherepack.h
; File C:\Users\flourine\Desktop\Xantios\client-src\Code\EterLib\GrpObjectInstance.cpp
;	COMDAT ?UpdateBoundingSphere@CGraphicObjectInstance@@QAEXXZ
_TEXT	SEGMENT
_radius$1 = -20						; size = 4
_center$2 = -16						; size = 12
__$ArrayPad$ = -4					; size = 4
?UpdateBoundingSphere@CGraphicObjectInstance@@QAEXXZ PROC ; CGraphicObjectInstance::UpdateBoundingSphere, COMDAT
; _this$ = ecx

; 312  : {

  00000	55		 push	 ebp
  00001	8b ec		 mov	 ebp, esp
  00003	83 ec 14	 sub	 esp, 20			; 00000014H
  00006	a1 00 00 00 00	 mov	 eax, DWORD PTR ___security_cookie
  0000b	33 c5		 xor	 eax, ebp
  0000d	89 45 fc	 mov	 DWORD PTR __$ArrayPad$[ebp], eax
  00010	56		 push	 esi
  00011	8b f1		 mov	 esi, ecx

; 313  : 	if (m_CullingHandle)

  00013	83 be 68 01 00
	00 00		 cmp	 DWORD PTR [esi+360], 0
  0001a	0f 84 54 01 00
	00		 je	 $LN28@UpdateBoun

; 314  : 	{
; 315  : 		Vector3d center;
; 316  : 		float radius;
; 317  : 		GetBoundingSphere(center, radius);

  00020	8b 06		 mov	 eax, DWORD PTR [esi]
  00022	8d 4d ec	 lea	 ecx, DWORD PTR _radius$1[ebp]
  00025	51		 push	 ecx
  00026	8d 4d f0	 lea	 ecx, DWORD PTR _center$2[ebp]
  00029	51		 push	 ecx
  0002a	8b ce		 mov	 ecx, esi
  0002c	ff 50 0c	 call	 DWORD PTR [eax+12]

; 318  : 		if (radius != m_CullingHandle->GetRadius())

  0002f	8b b6 68 01 00
	00		 mov	 esi, DWORD PTR [esi+360]
  00035	f3 0f 10 55 ec	 movss	 xmm2, DWORD PTR _radius$1[ebp]
  0003a	f3 0f 10 45 f0	 movss	 xmm0, DWORD PTR _center$2[ebp]
  0003f	0f 2e 56 10	 ucomiss xmm2, DWORD PTR [esi+16]
  00043	f3 0f 11 46 04	 movss	 DWORD PTR [esi+4], xmm0
  00048	f3 0f 10 45 f4	 movss	 xmm0, DWORD PTR _center$2[ebp+4]
  0004d	9f		 lahf
  0004e	f6 c4 44	 test	 ah, 68			; 00000044H
  00051	0f 8b a8 00 00
	00		 jnp	 $LN3@UpdateBoun
; File C:\Users\flourine\Desktop\Xantios\client-src\Code\SphereLib\vector.h

; 59   : 		y = A.y;

  00057	f3 0f 11 46 08	 movss	 DWORD PTR [esi+8], xmm0

; 60   : 		z = A.z;

  0005c	f3 0f 10 45 f8	 movss	 xmm0, DWORD PTR _center$2[ebp+8]
  00061	f3 0f 11 46 0c	 movss	 DWORD PTR [esi+12], xmm0
; File C:\Users\flourine\Desktop\Xantios\client-src\Code\SphereLib\spherepack.h

; 478  : 	if (mParent && !HasSpherePackFlag(SPF_INTEGRATE))

  00066	8b 4e 20	 mov	 ecx, DWORD PTR [esi+32]
  00069	85 c9		 test	 ecx, ecx
  0006b	0f 84 03 01 00
	00		 je	 $LN28@UpdateBoun

; 133  : 		if ( mFlags & flag ) { return true; }

  00071	f6 46 38 20	 test	 BYTE PTR [esi+56], 32	; 00000020H
  00075	0f 85 f9 00 00
	00		 jne	 $LN28@UpdateBoun

; 480  : 		if (radius != GetRadius())

  0007b	0f 2e 56 10	 ucomiss xmm2, DWORD PTR [esi+16]
  0007f	9f		 lahf
  00080	f6 c4 44	 test	 ah, 68			; 00000044H
  00083	7b 34		 jnp	 SHORT $LN24@UpdateBoun
; File C:\Users\flourine\Desktop\Xantios\client-src\Code\SphereLib\sphere.h

; 68   : 		mRadius2 = radius * radius;

  00085	0f 28 c2	 movaps	 xmm0, xmm2
  00088	f3 0f 11 56 10	 movss	 DWORD PTR [esi+16], xmm2
  0008d	f3 0f 59 c2	 mulss	 xmm0, xmm2
  00091	f3 0f 11 46 14	 movss	 DWORD PTR [esi+20], xmm0
  00096	0f 57 c0	 xorps	 xmm0, xmm0
; File C:\Users\flourine\Desktop\Xantios\client-src\Code\SphereLib\spherepack.h

; 241  : 		mBindingDistance = parent->GetRadius() - GetRadius();

  00099	f3 0f 10 49 10	 movss	 xmm1, DWORD PTR [ecx+16]
  0009e	f3 0f 5c ca	 subss	 xmm1, xmm2

; 242  : 		if ( mBindingDistance <= 0 )

  000a2	0f 2f c1	 comiss	 xmm0, xmm1
  000a5	72 09		 jb	 SHORT $LN23@UpdateBoun

; 243  : 		{
; 244  : 			mBindingDistance = 0;

  000a7	c7 46 40 00 00
	00 00		 mov	 DWORD PTR [esi+64], 0

; 245  : 		}

  000ae	eb 09		 jmp	 SHORT $LN24@UpdateBoun
$LN23@UpdateBoun:

; 246  : 		else
; 247  : 		{
; 248  : 			mBindingDistance *= mBindingDistance;

  000b0	f3 0f 59 c9	 mulss	 xmm1, xmm1
  000b4	f3 0f 11 4e 40	 movss	 DWORD PTR [esi+64], xmm1
$LN24@UpdateBoun:

; 486  : 		mFactory->AddRecompute(mParent);

  000b9	51		 push	 ecx
  000ba	8b 4e 48	 mov	 ecx, DWORD PTR [esi+72]
  000bd	e8 00 00 00 00	 call	 ?AddRecompute@SpherePackFactory@@QAEXPAVSpherePack@@@Z ; SpherePackFactory::AddRecompute

; 212  : 	float DistanceSquared(const SpherePack *pack) const { return mCenter.DistanceSq( pack->mCenter );  };

  000c2	8b 46 20	 mov	 eax, DWORD PTR [esi+32]
; File C:\Users\flourine\Desktop\Xantios\client-src\Code\SphereLib\vector.h

; 182  : 		float dx = a.x - x;

  000c5	f3 0f 10 48 04	 movss	 xmm1, DWORD PTR [eax+4]

; 183  : 		float dy = a.y - y;

  000ca	f3 0f 10 50 08	 movss	 xmm2, DWORD PTR [eax+8]
  000cf	f3 0f 5c 56 08	 subss	 xmm2, DWORD PTR [esi+8]
  000d4	f3 0f 5c 4e 04	 subss	 xmm1, DWORD PTR [esi+4]

; 184  : 		float dz = a.z - z;

  000d9	f3 0f 10 40 0c	 movss	 xmm0, DWORD PTR [eax+12]
  000de	f3 0f 5c 46 0c	 subss	 xmm0, DWORD PTR [esi+12]

; 185  : 		return dx * dx + dy * dy + dz * dz;

  000e3	f3 0f 59 d2	 mulss	 xmm2, xmm2
  000e7	f3 0f 59 c9	 mulss	 xmm1, xmm1
  000eb	f3 0f 59 c0	 mulss	 xmm0, xmm0
  000ef	f3 0f 58 d1	 addss	 xmm2, xmm1
  000f3	f3 0f 58 d0	 addss	 xmm2, xmm0
; File C:\Users\flourine\Desktop\Xantios\client-src\Code\SphereLib\spherepack.h

; 490  : 		if (dist >= mBindingDistance)

  000f7	0f 2f 56 40	 comiss	 xmm2, DWORD PTR [esi+64]
  000fb	72 77		 jb	 SHORT $LN28@UpdateBoun
; File C:\Users\flourine\Desktop\Xantios\client-src\Code\EterLib\GrpObjectInstance.cpp

; 321  : 		}

  000fd	eb 65		 jmp	 SHORT $LN41@UpdateBoun
$LN3@UpdateBoun:
; File C:\Users\flourine\Desktop\Xantios\client-src\Code\SphereLib\vector.h

; 58   : 		x = A.x;

  000ff	f3 0f 10 55 f0	 movss	 xmm2, DWORD PTR _center$2[ebp]

; 59   : 		y = A.y;

  00104	f3 0f 11 46 08	 movss	 DWORD PTR [esi+8], xmm0

; 60   : 		z = A.z;

  00109	f3 0f 10 45 f8	 movss	 xmm0, DWORD PTR _center$2[ebp+8]
  0010e	f3 0f 10 5d f4	 movss	 xmm3, DWORD PTR _center$2[ebp+4]
  00113	f3 0f 11 46 0c	 movss	 DWORD PTR [esi+12], xmm0
; File C:\Users\flourine\Desktop\Xantios\client-src\Code\SphereLib\spherepack.h

; 456  : 	if (mParent && !HasSpherePackFlag(SPF_INTEGRATE))

  00118	8b 46 20	 mov	 eax, DWORD PTR [esi+32]
  0011b	85 c0		 test	 eax, eax
  0011d	74 55		 je	 SHORT $LN28@UpdateBoun

; 133  : 		if ( mFlags & flag ) { return true; }

  0011f	f6 46 38 20	 test	 BYTE PTR [esi+56], 32	; 00000020H
  00123	75 4f		 jne	 SHORT $LN28@UpdateBoun
; File C:\Users\flourine\Desktop\Xantios\client-src\Code\SphereLib\vector.h

; 182  : 		float dx = a.x - x;

  00125	f3 0f 10 48 04	 movss	 xmm1, DWORD PTR [eax+4]

; 184  : 		float dz = a.z - z;

  0012a	f3 0f 10 40 0c	 movss	 xmm0, DWORD PTR [eax+12]
  0012f	f3 0f 5c ca	 subss	 xmm1, xmm2
  00133	f3 0f 10 50 08	 movss	 xmm2, DWORD PTR [eax+8]
  00138	f3 0f 5c 45 f8	 subss	 xmm0, DWORD PTR _center$2[ebp+8]
  0013d	f3 0f 5c d3	 subss	 xmm2, xmm3

; 185  : 		return dx * dx + dy * dy + dz * dz;

  00141	f3 0f 59 c9	 mulss	 xmm1, xmm1
  00145	f3 0f 59 c0	 mulss	 xmm0, xmm0
  00149	f3 0f 59 d2	 mulss	 xmm2, xmm2
  0014d	f3 0f 58 d1	 addss	 xmm2, xmm1
  00151	f3 0f 58 d0	 addss	 xmm2, xmm0
; File C:\Users\flourine\Desktop\Xantios\client-src\Code\SphereLib\spherepack.h

; 460  : 		if (dist >= mBindingDistance) // if that exceeds our binding distance...

  00155	0f 2f 56 40	 comiss	 xmm2, DWORD PTR [esi+64]
  00159	72 19		 jb	 SHORT $LN28@UpdateBoun

; 461  : 		{
; 462  : 			// If our parent, is not already marked to be recomputed (rebalance the sphere), then add him to the recomputation fifo.
; 463  : 			mFactory->AddRecompute(mParent);

  0015b	8b 4e 48	 mov	 ecx, DWORD PTR [esi+72]
  0015e	50		 push	 eax
  0015f	e8 00 00 00 00	 call	 ?AddRecompute@SpherePackFactory@@QAEXPAVSpherePack@@@Z ; SpherePackFactory::AddRecompute
$LN41@UpdateBoun:
; File C:\Users\flourine\Desktop\Xantios\client-src\Code\EterLib\GrpObjectInstance.cpp

; 327  : }

  00164	8b ce		 mov	 ecx, esi
  00166	e8 00 00 00 00	 call	 ?Unlink@SpherePack@@QAEXXZ ; SpherePack::Unlink
  0016b	8b 4e 48	 mov	 ecx, DWORD PTR [esi+72]
  0016e	56		 push	 esi
  0016f	e8 00 00 00 00	 call	 ?AddIntegrate@SpherePackFactory@@QAEXPAVSpherePack@@@Z ; SpherePackFactory::AddIntegrate
$LN28@UpdateBoun:
  00174	8b 4d fc	 mov	 ecx, DWORD PTR __$ArrayPad$[ebp]
  00177	33 cd		 xor	 ecx, ebp
  00179	5e		 pop	 esi
  0017a	e8 00 00 00 00	 call	 @__security_check_cookie@4
  0017f	8b e5		 mov	 esp, ebp
  00181	5d		 pop	 ebp
  00182	c3		 ret	 0
?UpdateBoundingSphere@CGraphicObjectInstance@@QAEXXZ ENDP ; CGraphicObjectInstance::UpdateBoundingSphere
_TEXT	ENDS
; Function compile flags: /Ogtp
; File C:\Users\flourine\Desktop\Xantios\client-src\Code\EterLib\GrpObjectInstance.cpp
;	COMDAT ?OnInitialize@CGraphicObjectInstance@@UAEXXZ
_TEXT	SEGMENT
?OnInitialize@CGraphicObjectInstance@@UAEXXZ PROC	; CGraphicObjectInstance::OnInitialize, COMDAT
; _this$ = ecx

; 6    : {

  00000	0f 57 c0	 xorps	 xmm0, xmm0

; 7    : 	ZeroMemory(m_abyPortalID, sizeof(m_abyPortalID));

  00003	66 0f d6 81 60
	01 00 00	 movq	 QWORD PTR [ecx+352], xmm0

; 8    : }

  0000b	c3		 ret	 0
?OnInitialize@CGraphicObjectInstance@@UAEXXZ ENDP	; CGraphicObjectInstance::OnInitialize
_TEXT	ENDS
; Function compile flags: /Ogtp
; File C:\Users\flourine\Desktop\Xantios\client-src\Code\EterLib\GrpObjectInstance.cpp
; File C:\Users\flourine\Desktop\Xantios\client-src\extern\include\directX\d3dx9math.inl
; File C:\Users\flourine\Desktop\Xantios\client-src\Code\EterLib\GrpObjectInstance.cpp
; File C:\Users\flourine\Desktop\Xantios\client-src\extern\include\directX\d3dx9math.inl
; File C:\Users\flourine\Desktop\Xantios\client-src\Code\EterLib\GrpObjectInstance.cpp
; File C:\Users\flourine\Desktop\Xantios\client-src\extern\include\directX\d3dx9math.inl
; File C:\Users\flourine\Desktop\Xantios\client-src\Code\EterLib\GrpObjectInstance.cpp
;	COMDAT ?Initialize@CGraphicObjectInstance@@QAEXXZ
_TEXT	SEGMENT
?Initialize@CGraphicObjectInstance@@QAEXXZ PROC		; CGraphicObjectInstance::Initialize, COMDAT
; _this$ = ecx

; 276  : {

  00000	56		 push	 esi
  00001	8b f1		 mov	 esi, ecx

; 277  : 	if (m_CullingHandle)

  00003	8b 86 68 01 00
	00		 mov	 eax, DWORD PTR [esi+360]
  00009	85 c0		 test	 eax, eax
  0000b	74 0c		 je	 SHORT $LN2@Initialize

; 278  : 	{
; 279  : 		CCullingManager::Instance().Unregister(m_CullingHandle);

  0000d	8b 0d 00 00 00
	00		 mov	 ecx, DWORD PTR ?ms_singleton@?$CSingleton@VCCullingManager@@@@0PAVCCullingManager@@A ; CSingleton<CCullingManager>::ms_singleton
  00013	50		 push	 eax
  00014	e8 00 00 00 00	 call	 ?Unregister@CCullingManager@@QAEXPAVSpherePack@@@Z ; CCullingManager::Unregister
$LN2@Initialize:

; 280  : 	}
; 281  : 	m_CullingHandle = 0;

  00019	c7 86 68 01 00
	00 00 00 00 00	 mov	 DWORD PTR [esi+360], 0

; 282  : 
; 283  : 	m_pHeightAttributeInstance = NULL;

  00023	c7 86 b8 01 00
	00 00 00 00 00	 mov	 DWORD PTR [esi+440], 0

; 284  : 
; 285  : 	m_isVisible = TRUE;

  0002d	c6 46 68 01	 mov	 BYTE PTR [esi+104], 1

; 286  : 
; 287  : 	m_BlockCamera = false;

  00031	c6 86 ac 00 00
	00 00		 mov	 BYTE PTR [esi+172], 0

; 288  : 
; 289  : 	m_v3Position.x = m_v3Position.y = m_v3Position.z = 0.0f;

  00038	c7 46 0c 00 00
	00 00		 mov	 DWORD PTR [esi+12], 0
  0003f	c7 46 08 00 00
	00 00		 mov	 DWORD PTR [esi+8], 0
  00046	c7 46 04 00 00
	00 00		 mov	 DWORD PTR [esi+4], 0

; 290  : 	m_v3Scale.x = m_v3Scale.y = m_v3Scale.z = 1.0f;

  0004d	c7 46 18 00 00
	80 3f		 mov	 DWORD PTR [esi+24], 1065353216 ; 3f800000H
  00054	c7 46 14 00 00
	80 3f		 mov	 DWORD PTR [esi+20], 1065353216 ; 3f800000H
  0005b	c7 46 10 00 00
	80 3f		 mov	 DWORD PTR [esi+16], 1065353216 ; 3f800000H

; 291  : 	m_fYaw = m_fPitch = m_fRoll = 0.0f;

  00062	c7 46 24 00 00
	00 00		 mov	 DWORD PTR [esi+36], 0
  00069	c7 46 20 00 00
	00 00		 mov	 DWORD PTR [esi+32], 0
  00070	c7 46 1c 00 00
	00 00		 mov	 DWORD PTR [esi+28], 0
; File C:\Users\flourine\Desktop\Xantios\client-src\extern\include\directX\d3dx9math.inl

; 2261 :     pOut->m[0][1] = pOut->m[0][2] = pOut->m[0][3] =

  00077	c7 86 a4 00 00
	00 00 00 00 00	 mov	 DWORD PTR [esi+164], 0
  00081	c7 86 a0 00 00
	00 00 00 00 00	 mov	 DWORD PTR [esi+160], 0
  0008b	c7 86 9c 00 00
	00 00 00 00 00	 mov	 DWORD PTR [esi+156], 0
  00095	c7 86 98 00 00
	00 00 00 00 00	 mov	 DWORD PTR [esi+152], 0
  0009f	c7 86 90 00 00
	00 00 00 00 00	 mov	 DWORD PTR [esi+144], 0
  000a9	c7 86 8c 00 00
	00 00 00 00 00	 mov	 DWORD PTR [esi+140], 0
  000b3	c7 86 88 00 00
	00 00 00 00 00	 mov	 DWORD PTR [esi+136], 0
  000bd	c7 86 84 00 00
	00 00 00 00 00	 mov	 DWORD PTR [esi+132], 0
  000c7	c7 46 7c 00 00
	00 00		 mov	 DWORD PTR [esi+124], 0
  000ce	c7 46 78 00 00
	00 00		 mov	 DWORD PTR [esi+120], 0
  000d5	c7 46 74 00 00
	00 00		 mov	 DWORD PTR [esi+116], 0
  000dc	c7 46 70 00 00
	00 00		 mov	 DWORD PTR [esi+112], 0

; 2262 :     pOut->m[1][0] = pOut->m[1][2] = pOut->m[1][3] =
; 2263 :     pOut->m[2][0] = pOut->m[2][1] = pOut->m[2][3] =
; 2264 :     pOut->m[3][0] = pOut->m[3][1] = pOut->m[3][2] = 0.0f;
; 2265 : 
; 2266 :     pOut->m[0][0] = pOut->m[1][1] = pOut->m[2][2] = pOut->m[3][3] = 1.0f;

  000e3	c7 86 a8 00 00
	00 00 00 80 3f	 mov	 DWORD PTR [esi+168], 1065353216 ; 3f800000H
  000ed	c7 86 94 00 00
	00 00 00 80 3f	 mov	 DWORD PTR [esi+148], 1065353216 ; 3f800000H
  000f7	c7 86 80 00 00
	00 00 00 80 3f	 mov	 DWORD PTR [esi+128], 1065353216 ; 3f800000H
  00101	c7 46 6c 00 00
	80 3f		 mov	 DWORD PTR [esi+108], 1065353216 ; 3f800000H

; 2261 :     pOut->m[0][1] = pOut->m[0][2] = pOut->m[0][3] =

  00108	c7 46 60 00 00
	00 00		 mov	 DWORD PTR [esi+96], 0
  0010f	c7 46 5c 00 00
	00 00		 mov	 DWORD PTR [esi+92], 0
  00116	c7 46 58 00 00
	00 00		 mov	 DWORD PTR [esi+88], 0
  0011d	c7 46 54 00 00
	00 00		 mov	 DWORD PTR [esi+84], 0
  00124	c7 46 4c 00 00
	00 00		 mov	 DWORD PTR [esi+76], 0
  0012b	c7 46 48 00 00
	00 00		 mov	 DWORD PTR [esi+72], 0
  00132	c7 46 44 00 00
	00 00		 mov	 DWORD PTR [esi+68], 0
  00139	c7 46 40 00 00
	00 00		 mov	 DWORD PTR [esi+64], 0
  00140	c7 46 38 00 00
	00 00		 mov	 DWORD PTR [esi+56], 0
  00147	c7 46 34 00 00
	00 00		 mov	 DWORD PTR [esi+52], 0
  0014e	c7 46 30 00 00
	00 00		 mov	 DWORD PTR [esi+48], 0
  00155	c7 46 2c 00 00
	00 00		 mov	 DWORD PTR [esi+44], 0

; 2262 :     pOut->m[1][0] = pOut->m[1][2] = pOut->m[1][3] =
; 2263 :     pOut->m[2][0] = pOut->m[2][1] = pOut->m[2][3] =
; 2264 :     pOut->m[3][0] = pOut->m[3][1] = pOut->m[3][2] = 0.0f;
; 2265 : 
; 2266 :     pOut->m[0][0] = pOut->m[1][1] = pOut->m[2][2] = pOut->m[3][3] = 1.0f;

  0015c	c7 46 64 00 00
	80 3f		 mov	 DWORD PTR [esi+100], 1065353216 ; 3f800000H
  00163	c7 46 50 00 00
	80 3f		 mov	 DWORD PTR [esi+80], 1065353216 ; 3f800000H
  0016a	c7 46 3c 00 00
	80 3f		 mov	 DWORD PTR [esi+60], 1065353216 ; 3f800000H
  00171	c7 46 28 00 00
	80 3f		 mov	 DWORD PTR [esi+40], 1065353216 ; 3f800000H

; 2261 :     pOut->m[0][1] = pOut->m[0][2] = pOut->m[0][3] =

  00178	c7 86 a4 01 00
	00 00 00 00 00	 mov	 DWORD PTR [esi+420], 0
  00182	c7 86 a0 01 00
	00 00 00 00 00	 mov	 DWORD PTR [esi+416], 0
  0018c	c7 86 9c 01 00
	00 00 00 00 00	 mov	 DWORD PTR [esi+412], 0
  00196	c7 86 98 01 00
	00 00 00 00 00	 mov	 DWORD PTR [esi+408], 0
  001a0	c7 86 90 01 00
	00 00 00 00 00	 mov	 DWORD PTR [esi+400], 0
  001aa	c7 86 8c 01 00
	00 00 00 00 00	 mov	 DWORD PTR [esi+396], 0
  001b4	c7 86 88 01 00
	00 00 00 00 00	 mov	 DWORD PTR [esi+392], 0
  001be	c7 86 84 01 00
	00 00 00 00 00	 mov	 DWORD PTR [esi+388], 0
  001c8	c7 86 7c 01 00
	00 00 00 00 00	 mov	 DWORD PTR [esi+380], 0
  001d2	c7 86 78 01 00
	00 00 00 00 00	 mov	 DWORD PTR [esi+376], 0
  001dc	c7 86 74 01 00
	00 00 00 00 00	 mov	 DWORD PTR [esi+372], 0
  001e6	c7 86 70 01 00
	00 00 00 00 00	 mov	 DWORD PTR [esi+368], 0

; 2262 :     pOut->m[1][0] = pOut->m[1][2] = pOut->m[1][3] =
; 2263 :     pOut->m[2][0] = pOut->m[2][1] = pOut->m[2][3] =
; 2264 :     pOut->m[3][0] = pOut->m[3][1] = pOut->m[3][2] = 0.0f;
; 2265 : 
; 2266 :     pOut->m[0][0] = pOut->m[1][1] = pOut->m[2][2] = pOut->m[3][3] = 1.0f;

  001f0	c7 86 a8 01 00
	00 00 00 80 3f	 mov	 DWORD PTR [esi+424], 1065353216 ; 3f800000H
  001fa	c7 86 94 01 00
	00 00 00 80 3f	 mov	 DWORD PTR [esi+404], 1065353216 ; 3f800000H
  00204	c7 86 80 01 00
	00 00 00 80 3f	 mov	 DWORD PTR [esi+384], 1065353216 ; 3f800000H
  0020e	c7 86 6c 01 00
	00 00 00 80 3f	 mov	 DWORD PTR [esi+364], 1065353216 ; 3f800000H
; File C:\Users\flourine\Desktop\Xantios\client-src\Code\EterLib\GrpObjectInstance.cpp

; 298  : 	m_v3ScaleAcce.x = m_v3ScaleAcce.y = m_v3ScaleAcce.z = 0.0f;

  00218	c7 86 c8 01 00
	00 00 00 00 00	 mov	 DWORD PTR [esi+456], 0
  00222	c7 86 c4 01 00
	00 00 00 00 00	 mov	 DWORD PTR [esi+452], 0
  0022c	c7 86 c0 01 00
	00 00 00 00 00	 mov	 DWORD PTR [esi+448], 0
; File C:\Users\flourine\Desktop\Xantios\client-src\extern\include\directX\d3dx9math.inl

; 2261 :     pOut->m[0][1] = pOut->m[0][2] = pOut->m[0][3] =

  00236	c7 86 04 02 00
	00 00 00 00 00	 mov	 DWORD PTR [esi+516], 0
  00240	c7 86 00 02 00
	00 00 00 00 00	 mov	 DWORD PTR [esi+512], 0
  0024a	c7 86 fc 01 00
	00 00 00 00 00	 mov	 DWORD PTR [esi+508], 0
  00254	c7 86 f8 01 00
	00 00 00 00 00	 mov	 DWORD PTR [esi+504], 0
  0025e	c7 86 f0 01 00
	00 00 00 00 00	 mov	 DWORD PTR [esi+496], 0
  00268	c7 86 ec 01 00
	00 00 00 00 00	 mov	 DWORD PTR [esi+492], 0
  00272	c7 86 e8 01 00
	00 00 00 00 00	 mov	 DWORD PTR [esi+488], 0
  0027c	c7 86 e4 01 00
	00 00 00 00 00	 mov	 DWORD PTR [esi+484], 0
  00286	c7 86 dc 01 00
	00 00 00 00 00	 mov	 DWORD PTR [esi+476], 0
  00290	c7 86 d8 01 00
	00 00 00 00 00	 mov	 DWORD PTR [esi+472], 0
  0029a	c7 86 d4 01 00
	00 00 00 00 00	 mov	 DWORD PTR [esi+468], 0
  002a4	c7 86 d0 01 00
	00 00 00 00 00	 mov	 DWORD PTR [esi+464], 0

; 2262 :     pOut->m[1][0] = pOut->m[1][2] = pOut->m[1][3] =
; 2263 :     pOut->m[2][0] = pOut->m[2][1] = pOut->m[2][3] =
; 2264 :     pOut->m[3][0] = pOut->m[3][1] = pOut->m[3][2] = 0.0f;
; 2265 : 
; 2266 :     pOut->m[0][0] = pOut->m[1][1] = pOut->m[2][2] = pOut->m[3][3] = 1.0f;

  002ae	c7 86 08 02 00
	00 00 00 80 3f	 mov	 DWORD PTR [esi+520], 1065353216 ; 3f800000H
  002b8	c7 86 f4 01 00
	00 00 00 80 3f	 mov	 DWORD PTR [esi+500], 1065353216 ; 3f800000H
  002c2	c7 86 e0 01 00
	00 00 00 80 3f	 mov	 DWORD PTR [esi+480], 1065353216 ; 3f800000H
  002cc	c7 86 cc 01 00
	00 00 00 80 3f	 mov	 DWORD PTR [esi+460], 1065353216 ; 3f800000H

; 2261 :     pOut->m[0][1] = pOut->m[0][2] = pOut->m[0][3] =

  002d6	c7 86 44 02 00
	00 00 00 00 00	 mov	 DWORD PTR [esi+580], 0
; File C:\Users\flourine\Desktop\Xantios\client-src\Code\EterLib\GrpObjectInstance.cpp

; 303  : 	OnInitialize();

  002e0	8b 06		 mov	 eax, DWORD PTR [esi]
  002e2	8b ce		 mov	 ecx, esi
; File C:\Users\flourine\Desktop\Xantios\client-src\extern\include\directX\d3dx9math.inl

; 2261 :     pOut->m[0][1] = pOut->m[0][2] = pOut->m[0][3] =

  002e4	c7 86 40 02 00
	00 00 00 00 00	 mov	 DWORD PTR [esi+576], 0
  002ee	c7 86 3c 02 00
	00 00 00 00 00	 mov	 DWORD PTR [esi+572], 0
  002f8	c7 86 38 02 00
	00 00 00 00 00	 mov	 DWORD PTR [esi+568], 0
  00302	c7 86 30 02 00
	00 00 00 00 00	 mov	 DWORD PTR [esi+560], 0
  0030c	c7 86 2c 02 00
	00 00 00 00 00	 mov	 DWORD PTR [esi+556], 0
  00316	c7 86 28 02 00
	00 00 00 00 00	 mov	 DWORD PTR [esi+552], 0
  00320	c7 86 24 02 00
	00 00 00 00 00	 mov	 DWORD PTR [esi+548], 0
  0032a	c7 86 1c 02 00
	00 00 00 00 00	 mov	 DWORD PTR [esi+540], 0
  00334	c7 86 18 02 00
	00 00 00 00 00	 mov	 DWORD PTR [esi+536], 0
  0033e	c7 86 14 02 00
	00 00 00 00 00	 mov	 DWORD PTR [esi+532], 0
  00348	c7 86 10 02 00
	00 00 00 00 00	 mov	 DWORD PTR [esi+528], 0

; 2262 :     pOut->m[1][0] = pOut->m[1][2] = pOut->m[1][3] =
; 2263 :     pOut->m[2][0] = pOut->m[2][1] = pOut->m[2][3] =
; 2264 :     pOut->m[3][0] = pOut->m[3][1] = pOut->m[3][2] = 0.0f;
; 2265 : 
; 2266 :     pOut->m[0][0] = pOut->m[1][1] = pOut->m[2][2] = pOut->m[3][3] = 1.0f;

  00352	c7 86 48 02 00
	00 00 00 80 3f	 mov	 DWORD PTR [esi+584], 1065353216 ; 3f800000H
  0035c	c7 86 34 02 00
	00 00 00 80 3f	 mov	 DWORD PTR [esi+564], 1065353216 ; 3f800000H
  00366	c7 86 20 02 00
	00 00 00 80 3f	 mov	 DWORD PTR [esi+544], 1065353216 ; 3f800000H
  00370	c7 86 0c 02 00
	00 00 00 80 3f	 mov	 DWORD PTR [esi+524], 1065353216 ; 3f800000H

; 2261 :     pOut->m[0][1] = pOut->m[0][2] = pOut->m[0][3] =

  0037a	c7 86 84 02 00
	00 00 00 00 00	 mov	 DWORD PTR [esi+644], 0
  00384	c7 86 80 02 00
	00 00 00 00 00	 mov	 DWORD PTR [esi+640], 0
  0038e	c7 86 7c 02 00
	00 00 00 00 00	 mov	 DWORD PTR [esi+636], 0
  00398	c7 86 78 02 00
	00 00 00 00 00	 mov	 DWORD PTR [esi+632], 0
  003a2	c7 86 70 02 00
	00 00 00 00 00	 mov	 DWORD PTR [esi+624], 0
  003ac	c7 86 6c 02 00
	00 00 00 00 00	 mov	 DWORD PTR [esi+620], 0
  003b6	c7 86 68 02 00
	00 00 00 00 00	 mov	 DWORD PTR [esi+616], 0
  003c0	c7 86 64 02 00
	00 00 00 00 00	 mov	 DWORD PTR [esi+612], 0
  003ca	c7 86 5c 02 00
	00 00 00 00 00	 mov	 DWORD PTR [esi+604], 0
  003d4	c7 86 58 02 00
	00 00 00 00 00	 mov	 DWORD PTR [esi+600], 0
  003de	c7 86 54 02 00
	00 00 00 00 00	 mov	 DWORD PTR [esi+596], 0
  003e8	c7 86 50 02 00
	00 00 00 00 00	 mov	 DWORD PTR [esi+592], 0

; 2262 :     pOut->m[1][0] = pOut->m[1][2] = pOut->m[1][3] =
; 2263 :     pOut->m[2][0] = pOut->m[2][1] = pOut->m[2][3] =
; 2264 :     pOut->m[3][0] = pOut->m[3][1] = pOut->m[3][2] = 0.0f;
; 2265 : 
; 2266 :     pOut->m[0][0] = pOut->m[1][1] = pOut->m[2][2] = pOut->m[3][3] = 1.0f;

  003f2	c7 86 88 02 00
	00 00 00 80 3f	 mov	 DWORD PTR [esi+648], 1065353216 ; 3f800000H
  003fc	c7 86 74 02 00
	00 00 00 80 3f	 mov	 DWORD PTR [esi+628], 1065353216 ; 3f800000H
  00406	c7 86 60 02 00
	00 00 00 80 3f	 mov	 DWORD PTR [esi+608], 1065353216 ; 3f800000H
  00410	c7 86 4c 02 00
	00 00 00 80 3f	 mov	 DWORD PTR [esi+588], 1065353216 ; 3f800000H
; File C:\Users\flourine\Desktop\Xantios\client-src\Code\EterLib\GrpObjectInstance.cpp

; 303  : 	OnInitialize();

  0041a	5e		 pop	 esi
  0041b	ff 60 08	 jmp	 DWORD PTR [eax+8]
?Initialize@CGraphicObjectInstance@@QAEXXZ ENDP		; CGraphicObjectInstance::Initialize
_TEXT	ENDS
; Function compile flags: /Ogtp
; File C:\Users\flourine\Desktop\Xantios\client-src\Code\EterLib\GrpObjectInstance.cpp
;	COMDAT ?GetPortal@CGraphicObjectInstance@@QAEHK@Z
_TEXT	SEGMENT
_dwIndex$ = 8						; size = 4
?GetPortal@CGraphicObjectInstance@@QAEHK@Z PROC		; CGraphicObjectInstance::GetPortal, COMDAT
; _this$ = ecx

; 465  : {

  00000	55		 push	 ebp
  00001	8b ec		 mov	 ebp, esp

; 466  : 	if (dwIndex >= PORTAL_ID_MAX_NUM)

  00003	8b 45 08	 mov	 eax, DWORD PTR _dwIndex$[ebp]
  00006	83 f8 08	 cmp	 eax, 8
  00009	72 06		 jb	 SHORT $LN2@GetPortal

; 467  : 	{
; 468  : 		assert(dwIndex < PORTAL_ID_MAX_NUM);
; 469  : 		return 0;

  0000b	33 c0		 xor	 eax, eax

; 473  : }

  0000d	5d		 pop	 ebp
  0000e	c2 04 00	 ret	 4
$LN2@GetPortal:

; 470  : 	}
; 471  : 
; 472  : 	return m_abyPortalID[dwIndex];

  00011	0f b6 84 08 60
	01 00 00	 movzx	 eax, BYTE PTR [eax+ecx+352]

; 473  : }

  00019	5d		 pop	 ebp
  0001a	c2 04 00	 ret	 4
?GetPortal@CGraphicObjectInstance@@QAEHK@Z ENDP		; CGraphicObjectInstance::GetPortal
_TEXT	ENDS
; Function compile flags: /Ogtp
; File C:\Users\flourine\Desktop\Xantios\client-src\Code\EterLib\GrpObjectInstance.cpp
;	COMDAT ?SetPortal@CGraphicObjectInstance@@QAEXKH@Z
_TEXT	SEGMENT
_dwIndex$ = 8						; size = 4
_iID$ = 12						; size = 4
?SetPortal@CGraphicObjectInstance@@QAEXKH@Z PROC	; CGraphicObjectInstance::SetPortal, COMDAT
; _this$ = ecx

; 454  : {

  00000	55		 push	 ebp
  00001	8b ec		 mov	 ebp, esp

; 455  : 	if (dwIndex >= PORTAL_ID_MAX_NUM)

  00003	8b 55 08	 mov	 edx, DWORD PTR _dwIndex$[ebp]
  00006	83 fa 08	 cmp	 edx, 8
  00009	73 0a		 jae	 SHORT $LN1@SetPortal

; 456  : 	{
; 457  : 		assert(dwIndex < PORTAL_ID_MAX_NUM);
; 458  : 		return;
; 459  : 	}
; 460  : 
; 461  : 	m_abyPortalID[dwIndex] = iID;

  0000b	8a 45 0c	 mov	 al, BYTE PTR _iID$[ebp]
  0000e	88 84 0a 60 01
	00 00		 mov	 BYTE PTR [edx+ecx+352], al
$LN1@SetPortal:

; 462  : }

  00015	5d		 pop	 ebp
  00016	c2 08 00	 ret	 8
?SetPortal@CGraphicObjectInstance@@QAEXKH@Z ENDP	; CGraphicObjectInstance::SetPortal
_TEXT	ENDS
; Function compile flags: /Ogtp
; File C:\Users\flourine\Desktop\Xantios\client-src\Code\EterLib\GrpObjectInstance.cpp
;	COMDAT ?GetTransform@CGraphicObjectInstance@@QAEAAUD3DXMATRIX@@XZ
_TEXT	SEGMENT
?GetTransform@CGraphicObjectInstance@@QAEAAUD3DXMATRIX@@XZ PROC ; CGraphicObjectInstance::GetTransform, COMDAT
; _this$ = ecx

; 149  : 	return m_worldMatrix;

  00000	8d 41 6c	 lea	 eax, DWORD PTR [ecx+108]

; 150  : }

  00003	c3		 ret	 0
?GetTransform@CGraphicObjectInstance@@QAEAAUD3DXMATRIX@@XZ ENDP ; CGraphicObjectInstance::GetTransform
_TEXT	ENDS
; Function compile flags: /Ogtp
; File C:\Users\flourine\Desktop\Xantios\client-src\Code\EterLib\GrpObjectInstance.cpp
;	COMDAT ?GetWTBBoxVertex@CGraphicObjectInstance@@QAEAAUD3DXVECTOR4@@ABE@Z
_TEXT	SEGMENT
_c_rucNumTBBoxVertex$ = 8				; size = 4
?GetWTBBoxVertex@CGraphicObjectInstance@@QAEAAUD3DXVECTOR4@@ABE@Z PROC ; CGraphicObjectInstance::GetWTBBoxVertex, COMDAT
; _this$ = ecx

; 219  : {

  00000	55		 push	 ebp
  00001	8b ec		 mov	 ebp, esp

; 220  : 	return m_v4TBBox[c_rucNumTBBoxVertex];

  00003	8b 45 08	 mov	 eax, DWORD PTR _c_rucNumTBBoxVertex$[ebp]
  00006	0f b6 00	 movzx	 eax, BYTE PTR [eax]
  00009	83 c0 0b	 add	 eax, 11			; 0000000bH
  0000c	c1 e0 04	 shl	 eax, 4
  0000f	03 c1		 add	 eax, ecx

; 221  : }

  00011	5d		 pop	 ebp
  00012	c2 04 00	 ret	 4
?GetWTBBoxVertex@CGraphicObjectInstance@@QAEAAUD3DXVECTOR4@@ABE@Z ENDP ; CGraphicObjectInstance::GetWTBBoxVertex
_TEXT	ENDS
; Function compile flags: /Ogtp
; File C:\Users\flourine\Desktop\Xantios\client-src\Code\EterLib\GrpObjectInstance.cpp
; File C:\Users\flourine\Desktop\Xantios\client-src\Code\EterLib\Ray.h
; File C:\Users\flourine\Desktop\Xantios\client-src\Code\EterLib\GrpObjectInstance.cpp
; File C:\Users\flourine\Desktop\Xantios\client-src\Code\EterLib\Ray.h
; File C:\Users\flourine\Desktop\Xantios\client-src\extern\include\directX\d3dx9math.inl
; File C:\Users\flourine\Desktop\Xantios\client-src\Code\EterLib\Ray.h
; File C:\Users\flourine\Desktop\Xantios\client-src\extern\include\directX\d3dx9math.inl
; File C:\Users\flourine\Desktop\Xantios\client-src\Code\EterLib\Ray.h
; File C:\Users\flourine\Desktop\Xantios\client-src\Code\EterLib\GrpObjectInstance.cpp
; File C:\Users\flourine\Desktop\Xantios\client-src\Code\EterLib\Ray.h
; File C:\Users\flourine\Desktop\Xantios\client-src\Code\EterLib\GrpObjectInstance.cpp
; File C:\Users\flourine\Desktop\Xantios\client-src\Code\EterLib\Ray.h
; File C:\Users\flourine\Desktop\Xantios\client-src\Code\EterLib\GrpObjectInstance.cpp
; File C:\Users\flourine\Desktop\Xantios\client-src\Code\EterLib\Ray.h
; File C:\Users\flourine\Desktop\Xantios\client-src\Code\EterLib\GrpObjectInstance.cpp
; File C:\Users\flourine\Desktop\Xantios\client-src\extern\include\directX\d3dx9math.inl
; File C:\Users\flourine\Desktop\Xantios\client-src\Code\EterLib\GrpObjectInstance.cpp
; File C:\Users\flourine\Desktop\Xantios\client-src\extern\include\directX\d3dx9math.inl
; File C:\Users\flourine\Desktop\Xantios\client-src\Code\EterLib\GrpObjectInstance.cpp
; File C:\Users\flourine\Desktop\Xantios\client-src\extern\include\directX\d3dx9math.inl
; File C:\Users\flourine\Desktop\Xantios\client-src\Code\EterLib\GrpObjectInstance.cpp
; File C:\Users\flourine\Desktop\Xantios\client-src\extern\include\directX\d3dx9math.inl
; File C:\Users\flourine\Desktop\Xantios\client-src\Code\EterLib\GrpObjectInstance.cpp
; File C:\Users\flourine\Desktop\Xantios\client-src\extern\include\directX\d3dx9math.inl
; File C:\Users\flourine\Desktop\Xantios\client-src\Code\EterLib\GrpObjectInstance.cpp
; File C:\Users\flourine\Desktop\Xantios\client-src\extern\include\directX\d3dx9math.inl
; File C:\Users\flourine\Desktop\Xantios\client-src\Code\EterLib\GrpObjectInstance.cpp
; File C:\Users\flourine\Desktop\Xantios\client-src\extern\include\directX\d3dx9math.inl
; File C:\Users\flourine\Desktop\Xantios\client-src\Code\EterLib\GrpObjectInstance.cpp
; File C:\Users\flourine\Desktop\Xantios\client-src\extern\include\directX\d3dx9math.inl
; File C:\Users\flourine\Desktop\Xantios\client-src\Code\EterLib\GrpObjectInstance.cpp
; File C:\Users\flourine\Desktop\Xantios\client-src\extern\include\directX\d3dx9math.inl
; File C:\Users\flourine\Desktop\Xantios\client-src\Code\EterLib\GrpObjectInstance.cpp
; File C:\Users\flourine\Desktop\Xantios\client-src\extern\include\directX\d3dx9math.inl
; File C:\Users\flourine\Desktop\Xantios\client-src\Code\EterLib\GrpObjectInstance.cpp
;	COMDAT ?isIntersect@CGraphicObjectInstance@@QAE_NABVCRay@@PAM11@Z
_TEXT	SEGMENT
_pu$GSCopy$1$ = -220					; size = 4
_pv$GSCopy$1$ = -216					; size = 4
_pt$GSCopy$1$ = -212					; size = 4
$T1 = -208						; size = 12
$T2 = -208						; size = 12
$T3 = -208						; size = 12
$T4 = -208						; size = 12
$T5 = -208						; size = 12
$T6 = -208						; size = 12
$T7 = -208						; size = 12
$T8 = -208						; size = 12
_v3Start$ = -196					; size = 12
_v3Dir$ = -184						; size = 12
_posVertices$ = -172					; size = 96
_Indices$ = -76						; size = 72
__$ArrayPad$ = -4					; size = 4
_c_rRay$ = 8						; size = 4
_pu$ = 12						; size = 4
_pv$ = 16						; size = 4
_pt$ = 20						; size = 4
?isIntersect@CGraphicObjectInstance@@QAE_NABVCRay@@PAM11@Z PROC ; CGraphicObjectInstance::isIntersect, COMDAT
; _this$ = ecx

; 224  : {

  00000	55		 push	 ebp
  00001	8b ec		 mov	 ebp, esp
  00003	81 ec dc 00 00
	00		 sub	 esp, 220		; 000000dcH
  00009	a1 00 00 00 00	 mov	 eax, DWORD PTR ___security_cookie
  0000e	33 c5		 xor	 eax, ebp
  00010	89 45 fc	 mov	 DWORD PTR __$ArrayPad$[ebp], eax
  00013	8b 55 08	 mov	 edx, DWORD PTR _c_rRay$[ebp]
  00016	8b 45 10	 mov	 eax, DWORD PTR _pv$[ebp]
  00019	53		 push	 ebx
  0001a	8b d9		 mov	 ebx, ecx
  0001c	89 85 28 ff ff
	ff		 mov	 DWORD PTR _pv$GSCopy$1$[ebp], eax
; File C:\Users\flourine\Desktop\Xantios\client-src\Code\EterLib\Ray.h

; 36   : 		*pv3Start = m_v3Start;

  00022	f3 0f 7e 02	 movq	 xmm0, QWORD PTR [edx]
; File C:\Users\flourine\Desktop\Xantios\client-src\Code\EterLib\GrpObjectInstance.cpp

; 224  : {

  00026	8b 45 14	 mov	 eax, DWORD PTR _pt$[ebp]
; File C:\Users\flourine\Desktop\Xantios\client-src\Code\EterLib\Ray.h

; 36   : 		*pv3Start = m_v3Start;

  00029	66 0f d6 85 3c
	ff ff ff	 movq	 QWORD PTR _v3Start$[ebp], xmm0
; File C:\Users\flourine\Desktop\Xantios\client-src\extern\include\directX\d3dx9math.inl

; 304  :     x = fx;

  00031	f3 0f 10 ab 30
	01 00 00	 movss	 xmm5, DWORD PTR [ebx+304]
; File C:\Users\flourine\Desktop\Xantios\client-src\Code\EterLib\Ray.h

; 41   : 		*pv3Dir = m_v3Direction;

  00039	f3 0f 7e 42 18	 movq	 xmm0, QWORD PTR [edx+24]
; File C:\Users\flourine\Desktop\Xantios\client-src\extern\include\directX\d3dx9math.inl

; 305  :     y = fy;

  0003e	f3 0f 10 9b 34
	01 00 00	 movss	 xmm3, DWORD PTR [ebx+308]

; 304  :     x = fx;

  00046	f3 0f 10 a3 3c
	01 00 00	 movss	 xmm4, DWORD PTR [ebx+316]

; 306  :     z = fz;

  0004e	f3 0f 10 8b 38
	01 00 00	 movss	 xmm1, DWORD PTR [ebx+312]

; 305  :     y = fy;

  00056	f3 0f 10 93 40
	01 00 00	 movss	 xmm2, DWORD PTR [ebx+320]
; File C:\Users\flourine\Desktop\Xantios\client-src\Code\EterLib\Ray.h

; 41   : 		*pv3Dir = m_v3Direction;

  0005e	66 0f d6 85 48
	ff ff ff	 movq	 QWORD PTR _v3Dir$[ebp], xmm0
; File C:\Users\flourine\Desktop\Xantios\client-src\Code\EterLib\GrpObjectInstance.cpp

; 232  : 	posVertices[0] = TPosition(m_v3TBBoxMin.x, m_v3TBBoxMin.y, m_v3TBBoxMin.z);

  00066	0f 28 c5	 movaps	 xmm0, xmm5
  00069	0f 14 c3	 unpcklps xmm0, xmm3
  0006c	66 0f d6 85 54
	ff ff ff	 movq	 QWORD PTR _posVertices$[ebp], xmm0

; 233  : 	posVertices[1] = TPosition(m_v3TBBoxMax.x, m_v3TBBoxMin.y, m_v3TBBoxMin.z);

  00074	0f 28 c4	 movaps	 xmm0, xmm4
  00077	8b 4d 0c	 mov	 ecx, DWORD PTR _pu$[ebp]
  0007a	89 85 2c ff ff
	ff		 mov	 DWORD PTR _pt$GSCopy$1$[ebp], eax
; File C:\Users\flourine\Desktop\Xantios\client-src\Code\EterLib\Ray.h

; 36   : 		*pv3Start = m_v3Start;

  00080	8b 42 08	 mov	 eax, DWORD PTR [edx+8]
; File C:\Users\flourine\Desktop\Xantios\client-src\Code\EterLib\GrpObjectInstance.cpp

; 233  : 	posVertices[1] = TPosition(m_v3TBBoxMax.x, m_v3TBBoxMin.y, m_v3TBBoxMin.z);

  00083	0f 14 c3	 unpcklps xmm0, xmm3
; File C:\Users\flourine\Desktop\Xantios\client-src\Code\EterLib\Ray.h

; 36   : 		*pv3Start = m_v3Start;

  00086	89 85 44 ff ff
	ff		 mov	 DWORD PTR _v3Start$[ebp+8], eax

; 41   : 		*pv3Dir = m_v3Direction;

  0008c	8b 42 20	 mov	 eax, DWORD PTR [edx+32]
; File C:\Users\flourine\Desktop\Xantios\client-src\Code\EterLib\GrpObjectInstance.cpp

; 233  : 	posVertices[1] = TPosition(m_v3TBBoxMax.x, m_v3TBBoxMin.y, m_v3TBBoxMin.z);

  0008f	66 0f d6 85 60
	ff ff ff	 movq	 QWORD PTR _posVertices$[ebp+12], xmm0

; 234  : 	posVertices[2] = TPosition(m_v3TBBoxMin.x, m_v3TBBoxMax.y, m_v3TBBoxMin.z);

  00097	0f 28 c5	 movaps	 xmm0, xmm5
; File C:\Users\flourine\Desktop\Xantios\client-src\Code\EterLib\Ray.h

; 41   : 		*pv3Dir = m_v3Direction;

  0009a	89 85 50 ff ff
	ff		 mov	 DWORD PTR _v3Dir$[ebp+8], eax
; File C:\Users\flourine\Desktop\Xantios\client-src\Code\EterLib\GrpObjectInstance.cpp

; 234  : 	posVertices[2] = TPosition(m_v3TBBoxMin.x, m_v3TBBoxMax.y, m_v3TBBoxMin.z);

  000a0	0f 14 c2	 unpcklps xmm0, xmm2
  000a3	66 0f d6 85 6c
	ff ff ff	 movq	 QWORD PTR _posVertices$[ebp+24], xmm0

; 235  : 	posVertices[3] = TPosition(m_v3TBBoxMax.x, m_v3TBBoxMax.y, m_v3TBBoxMin.z);

  000ab	0f 28 c4	 movaps	 xmm0, xmm4
; File C:\Users\flourine\Desktop\Xantios\client-src\extern\include\directX\d3dx9math.inl

; 306  :     z = fz;

  000ae	f3 0f 11 8d 38
	ff ff ff	 movss	 DWORD PTR $T8[ebp+8], xmm1
; File C:\Users\flourine\Desktop\Xantios\client-src\Code\EterLib\GrpObjectInstance.cpp

; 232  : 	posVertices[0] = TPosition(m_v3TBBoxMin.x, m_v3TBBoxMin.y, m_v3TBBoxMin.z);

  000b6	8b 85 38 ff ff
	ff		 mov	 eax, DWORD PTR $T8[ebp+8]
  000bc	89 85 5c ff ff
	ff		 mov	 DWORD PTR _posVertices$[ebp+8], eax
; File C:\Users\flourine\Desktop\Xantios\client-src\extern\include\directX\d3dx9math.inl

; 306  :     z = fz;

  000c2	f3 0f 11 8d 38
	ff ff ff	 movss	 DWORD PTR $T7[ebp+8], xmm1
; File C:\Users\flourine\Desktop\Xantios\client-src\Code\EterLib\GrpObjectInstance.cpp

; 233  : 	posVertices[1] = TPosition(m_v3TBBoxMax.x, m_v3TBBoxMin.y, m_v3TBBoxMin.z);

  000ca	8b 85 38 ff ff
	ff		 mov	 eax, DWORD PTR $T7[ebp+8]
  000d0	89 85 68 ff ff
	ff		 mov	 DWORD PTR _posVertices$[ebp+20], eax

; 235  : 	posVertices[3] = TPosition(m_v3TBBoxMax.x, m_v3TBBoxMax.y, m_v3TBBoxMin.z);

  000d6	0f 14 c2	 unpcklps xmm0, xmm2
; File C:\Users\flourine\Desktop\Xantios\client-src\extern\include\directX\d3dx9math.inl

; 306  :     z = fz;

  000d9	f3 0f 11 8d 38
	ff ff ff	 movss	 DWORD PTR $T6[ebp+8], xmm1
; File C:\Users\flourine\Desktop\Xantios\client-src\Code\EterLib\GrpObjectInstance.cpp

; 234  : 	posVertices[2] = TPosition(m_v3TBBoxMin.x, m_v3TBBoxMax.y, m_v3TBBoxMin.z);

  000e1	8b 85 38 ff ff
	ff		 mov	 eax, DWORD PTR $T6[ebp+8]
  000e7	89 85 74 ff ff
	ff		 mov	 DWORD PTR _posVertices$[ebp+32], eax
; File C:\Users\flourine\Desktop\Xantios\client-src\extern\include\directX\d3dx9math.inl

; 306  :     z = fz;

  000ed	f3 0f 11 8d 38
	ff ff ff	 movss	 DWORD PTR $T5[ebp+8], xmm1
; File C:\Users\flourine\Desktop\Xantios\client-src\Code\EterLib\GrpObjectInstance.cpp

; 235  : 	posVertices[3] = TPosition(m_v3TBBoxMax.x, m_v3TBBoxMax.y, m_v3TBBoxMin.z);

  000f5	8b 85 38 ff ff
	ff		 mov	 eax, DWORD PTR $T5[ebp+8]
; File C:\Users\flourine\Desktop\Xantios\client-src\extern\include\directX\d3dx9math.inl

; 306  :     z = fz;

  000fb	f3 0f 10 8b 44
	01 00 00	 movss	 xmm1, DWORD PTR [ebx+324]
; File C:\Users\flourine\Desktop\Xantios\client-src\Code\EterLib\GrpObjectInstance.cpp

; 235  : 	posVertices[3] = TPosition(m_v3TBBoxMax.x, m_v3TBBoxMax.y, m_v3TBBoxMin.z);

  00103	66 0f d6 85 78
	ff ff ff	 movq	 QWORD PTR _posVertices$[ebp+36], xmm0

; 236  : 	posVertices[4] = TPosition(m_v3TBBoxMin.x, m_v3TBBoxMin.y, m_v3TBBoxMax.z);

  0010b	0f 28 c5	 movaps	 xmm0, xmm5
  0010e	89 45 80	 mov	 DWORD PTR _posVertices$[ebp+44], eax
; File C:\Users\flourine\Desktop\Xantios\client-src\extern\include\directX\d3dx9math.inl

; 306  :     z = fz;

  00111	f3 0f 11 8d 38
	ff ff ff	 movss	 DWORD PTR $T4[ebp+8], xmm1
; File C:\Users\flourine\Desktop\Xantios\client-src\Code\EterLib\GrpObjectInstance.cpp

; 236  : 	posVertices[4] = TPosition(m_v3TBBoxMin.x, m_v3TBBoxMin.y, m_v3TBBoxMax.z);

  00119	8b 85 38 ff ff
	ff		 mov	 eax, DWORD PTR $T4[ebp+8]
  0011f	0f 14 c3	 unpcklps xmm0, xmm3
  00122	89 45 8c	 mov	 DWORD PTR _posVertices$[ebp+56], eax
; File C:\Users\flourine\Desktop\Xantios\client-src\extern\include\directX\d3dx9math.inl

; 306  :     z = fz;

  00125	f3 0f 11 8d 38
	ff ff ff	 movss	 DWORD PTR $T3[ebp+8], xmm1
; File C:\Users\flourine\Desktop\Xantios\client-src\Code\EterLib\GrpObjectInstance.cpp

; 237  : 	posVertices[5] = TPosition(m_v3TBBoxMax.x, m_v3TBBoxMin.y, m_v3TBBoxMax.z);

  0012d	8b 85 38 ff ff
	ff		 mov	 eax, DWORD PTR $T3[ebp+8]
  00133	66 0f d6 45 84	 movq	 QWORD PTR _posVertices$[ebp+48], xmm0
  00138	0f 28 c4	 movaps	 xmm0, xmm4
  0013b	89 45 98	 mov	 DWORD PTR _posVertices$[ebp+68], eax
; File C:\Users\flourine\Desktop\Xantios\client-src\extern\include\directX\d3dx9math.inl

; 306  :     z = fz;

  0013e	f3 0f 11 8d 38
	ff ff ff	 movss	 DWORD PTR $T2[ebp+8], xmm1
; File C:\Users\flourine\Desktop\Xantios\client-src\Code\EterLib\GrpObjectInstance.cpp

; 238  : 	posVertices[6] = TPosition(m_v3TBBoxMin.x, m_v3TBBoxMax.y, m_v3TBBoxMax.z);

  00146	8b 85 38 ff ff
	ff		 mov	 eax, DWORD PTR $T2[ebp+8]
  0014c	56		 push	 esi
  0014d	0f 14 c3	 unpcklps xmm0, xmm3
  00150	0f 14 ea	 unpcklps xmm5, xmm2
  00153	89 45 a4	 mov	 DWORD PTR _posVertices$[ebp+80], eax
; File C:\Users\flourine\Desktop\Xantios\client-src\extern\include\directX\d3dx9math.inl

; 306  :     z = fz;

  00156	f3 0f 11 8d 38
	ff ff ff	 movss	 DWORD PTR $T1[ebp+8], xmm1
; File C:\Users\flourine\Desktop\Xantios\client-src\Code\EterLib\GrpObjectInstance.cpp

; 239  : 	posVertices[7] = TPosition(m_v3TBBoxMax.x, m_v3TBBoxMax.y, m_v3TBBoxMax.z);

  0015e	8b 85 38 ff ff
	ff		 mov	 eax, DWORD PTR $T1[ebp+8]
  00164	0f 14 e2	 unpcklps xmm4, xmm2
  00167	57		 push	 edi
  00168	89 8d 24 ff ff
	ff		 mov	 DWORD PTR _pu$GSCopy$1$[ebp], ecx
  0016e	66 0f d6 45 90	 movq	 QWORD PTR _posVertices$[ebp+60], xmm0
  00173	66 0f d6 6d 9c	 movq	 QWORD PTR _posVertices$[ebp+72], xmm5
  00178	66 0f d6 65 a8	 movq	 QWORD PTR _posVertices$[ebp+84], xmm4
  0017d	89 45 b0	 mov	 DWORD PTR _posVertices$[ebp+92], eax

; 240  : 
; 241  : 	TIndex Indices[36] = {0, 1, 2, 1, 3, 2,

  00180	c7 45 b4 00 00
	01 00		 mov	 DWORD PTR _Indices$[ebp], 65536 ; 00010000H
  00187	c7 45 b8 02 00
	01 00		 mov	 DWORD PTR _Indices$[ebp+4], 65538 ; 00010002H
  0018e	c7 45 bc 03 00
	02 00		 mov	 DWORD PTR _Indices$[ebp+8], 131075 ; 00020003H

; 242  : 						  2, 0, 6, 0, 4, 6,

  00195	c7 45 c0 02 00
	00 00		 mov	 DWORD PTR _Indices$[ebp+12], 2
  0019c	c7 45 c4 06 00
	00 00		 mov	 DWORD PTR _Indices$[ebp+16], 6
  001a3	c7 45 c8 04 00
	06 00		 mov	 DWORD PTR _Indices$[ebp+20], 393220 ; 00060004H

; 243  : 						  0, 1, 4, 1, 5, 4,

  001aa	c7 45 cc 00 00
	01 00		 mov	 DWORD PTR _Indices$[ebp+24], 65536 ; 00010000H
  001b1	c7 45 d0 04 00
	01 00		 mov	 DWORD PTR _Indices$[ebp+28], 65540 ; 00010004H
  001b8	c7 45 d4 05 00
	04 00		 mov	 DWORD PTR _Indices$[ebp+32], 262149 ; 00040005H

; 244  : 						  1, 3, 5, 3, 7, 5,

  001bf	c7 45 d8 01 00
	03 00		 mov	 DWORD PTR _Indices$[ebp+36], 196609 ; 00030001H
  001c6	c7 45 dc 05 00
	03 00		 mov	 DWORD PTR _Indices$[ebp+40], 196613 ; 00030005H
; File C:\Users\flourine\Desktop\Xantios\client-src\extern\include\directX\d3dx9math.inl

; 304  :     x = fx;

  001cd	8d 75 b6	 lea	 esi, DWORD PTR _Indices$[ebp+2]
; File C:\Users\flourine\Desktop\Xantios\client-src\Code\EterLib\GrpObjectInstance.cpp

; 244  : 						  1, 3, 5, 3, 7, 5,

  001d0	c7 45 e0 07 00
	05 00		 mov	 DWORD PTR _Indices$[ebp+44], 327687 ; 00050007H

; 245  : 						  3, 2, 7, 2, 6, 7,
; 246  : 						  4, 5, 6, 5, 7, 6
; 247  : 						 };
; 248  : 
; 249  : 	int triCount = 12;

  001d7	bf 0c 00 00 00	 mov	 edi, 12			; 0000000cH
  001dc	c7 45 e4 03 00
	02 00		 mov	 DWORD PTR _Indices$[ebp+48], 131075 ; 00020003H
  001e3	c7 45 e8 07 00
	02 00		 mov	 DWORD PTR _Indices$[ebp+52], 131079 ; 00020007H
  001ea	c7 45 ec 06 00
	07 00		 mov	 DWORD PTR _Indices$[ebp+56], 458758 ; 00070006H
  001f1	c7 45 f0 04 00
	05 00		 mov	 DWORD PTR _Indices$[ebp+60], 327684 ; 00050004H
  001f8	c7 45 f4 06 00
	05 00		 mov	 DWORD PTR _Indices$[ebp+64], 327686 ; 00050006H
  001ff	c7 45 f8 07 00
	06 00		 mov	 DWORD PTR _Indices$[ebp+68], 393223 ; 00060007H
  00206	66 66 0f 1f 84
	00 00 00 00 00	 npad	 10
$LL2@isIntersec:

; 250  : 	WORD* pcurIdx = (WORD*)Indices;
; 251  : 
; 252  : 	while (triCount--)
; 253  : 	{
; 254  : 		if (IntersectTriangle(v3Start, v3Dir,

  00210	ff b5 2c ff ff
	ff		 push	 DWORD PTR _pt$GSCopy$1$[ebp]
  00216	0f b7 46 02	 movzx	 eax, WORD PTR [esi+2]
  0021a	4f		 dec	 edi
  0021b	ff b5 28 ff ff
	ff		 push	 DWORD PTR _pv$GSCopy$1$[ebp]
  00221	51		 push	 ecx
  00222	8d 04 40	 lea	 eax, DWORD PTR [eax+eax*2]
  00225	8d 8d 54 ff ff
	ff		 lea	 ecx, DWORD PTR _posVertices$[ebp]
  0022b	8d 04 81	 lea	 eax, DWORD PTR [ecx+eax*4]
  0022e	50		 push	 eax
  0022f	0f b7 06	 movzx	 eax, WORD PTR [esi]
  00232	8d 04 40	 lea	 eax, DWORD PTR [eax+eax*2]
  00235	8d 04 81	 lea	 eax, DWORD PTR [ecx+eax*4]
  00238	50		 push	 eax
  00239	0f b7 46 fe	 movzx	 eax, WORD PTR [esi-2]
  0023d	8d 04 40	 lea	 eax, DWORD PTR [eax+eax*2]
  00240	8d 04 81	 lea	 eax, DWORD PTR [ecx+eax*4]
  00243	8b cb		 mov	 ecx, ebx
  00245	50		 push	 eax
  00246	8d 85 48 ff ff
	ff		 lea	 eax, DWORD PTR _v3Dir$[ebp]
  0024c	50		 push	 eax
  0024d	8d 85 3c ff ff
	ff		 lea	 eax, DWORD PTR _v3Start$[ebp]
  00253	50		 push	 eax
  00254	e8 00 00 00 00	 call	 ?IntersectTriangle@CGraphicCollisionObject@@IAE_NABUD3DXVECTOR3@@0000PAM11@Z ; CGraphicCollisionObject::IntersectTriangle
  00259	84 c0		 test	 al, al
  0025b	75 20		 jne	 SHORT $LN34@isIntersec

; 255  : 							  posVertices[pcurIdx[0]],
; 256  : 							  posVertices[pcurIdx[1]],
; 257  : 							  posVertices[pcurIdx[2]],
; 258  : 							  pu, pv, pt))
; 259  : 		{
; 260  : 			return true;
; 261  : 		}
; 262  : 
; 263  : 		pcurIdx += 3;

  0025d	8b 8d 24 ff ff
	ff		 mov	 ecx, DWORD PTR _pu$GSCopy$1$[ebp]
  00263	83 c6 06	 add	 esi, 6
  00266	85 ff		 test	 edi, edi
  00268	75 a6		 jne	 SHORT $LL2@isIntersec

; 264  : 	}
; 265  : 
; 266  : 	return false;
; 267  : }

  0026a	5f		 pop	 edi
  0026b	5e		 pop	 esi
  0026c	5b		 pop	 ebx
  0026d	8b 4d fc	 mov	 ecx, DWORD PTR __$ArrayPad$[ebp]
  00270	33 cd		 xor	 ecx, ebp
  00272	e8 00 00 00 00	 call	 @__security_check_cookie@4
  00277	8b e5		 mov	 esp, ebp
  00279	5d		 pop	 ebp
  0027a	c2 10 00	 ret	 16			; 00000010H
$LN34@isIntersec:
  0027d	8b 4d fc	 mov	 ecx, DWORD PTR __$ArrayPad$[ebp]
  00280	b0 01		 mov	 al, 1
  00282	5f		 pop	 edi
  00283	5e		 pop	 esi
  00284	33 cd		 xor	 ecx, ebp
  00286	5b		 pop	 ebx
  00287	e8 00 00 00 00	 call	 @__security_check_cookie@4
  0028c	8b e5		 mov	 esp, ebp
  0028e	5d		 pop	 ebp
  0028f	c2 10 00	 ret	 16			; 00000010H
?isIntersect@CGraphicObjectInstance@@QAE_NABVCRay@@PAM11@Z ENDP ; CGraphicObjectInstance::isIntersect
_TEXT	ENDS
; Function compile flags: /Ogtp
; File C:\Users\flourine\Desktop\Xantios\client-src\Code\EterLib\GrpObjectInstance.cpp
;	COMDAT ?isShow@CGraphicObjectInstance@@QAE_NXZ
_TEXT	SEGMENT
?isShow@CGraphicObjectInstance@@QAE_NXZ PROC		; CGraphicObjectInstance::isShow, COMDAT
; _this$ = ecx

; 211  : 	return m_isVisible;

  00000	8a 41 68	 mov	 al, BYTE PTR [ecx+104]

; 212  : }

  00003	c3		 ret	 0
?isShow@CGraphicObjectInstance@@QAE_NXZ ENDP		; CGraphicObjectInstance::isShow
_TEXT	ENDS
; Function compile flags: /Ogtp
; File C:\Users\flourine\Desktop\Xantios\client-src\Code\EterLib\GrpObjectInstance.cpp
;	COMDAT ?Hide@CGraphicObjectInstance@@QAEXXZ
_TEXT	SEGMENT
?Hide@CGraphicObjectInstance@@QAEXXZ PROC		; CGraphicObjectInstance::Hide, COMDAT
; _this$ = ecx

; 207  : 	m_isVisible = false;

  00000	c6 41 68 00	 mov	 BYTE PTR [ecx+104], 0

; 208  : }

  00004	c3		 ret	 0
?Hide@CGraphicObjectInstance@@QAEXXZ ENDP		; CGraphicObjectInstance::Hide
_TEXT	ENDS
; Function compile flags: /Ogtp
; File C:\Users\flourine\Desktop\Xantios\client-src\Code\EterLib\GrpObjectInstance.cpp
;	COMDAT ?Show@CGraphicObjectInstance@@QAEXXZ
_TEXT	SEGMENT
?Show@CGraphicObjectInstance@@QAEXXZ PROC		; CGraphicObjectInstance::Show, COMDAT
; _this$ = ecx

; 202  : 	m_isVisible = true;

  00000	c6 41 68 01	 mov	 BYTE PTR [ecx+104], 1

; 203  : }

  00004	c3		 ret	 0
?Show@CGraphicObjectInstance@@QAEXXZ ENDP		; CGraphicObjectInstance::Show
_TEXT	ENDS
; Function compile flags: /Ogtp
; File C:\Users\flourine\Desktop\Xantios\client-src\Code\EterLib\GrpObjectInstance.cpp
; File C:\Users\flourine\Desktop\Xantios\client-src\extern\include\directX\d3dx9math.inl
; File C:\Users\flourine\Desktop\Xantios\client-src\Code\EterLib\GrpObjectInstance.cpp
; File C:\Users\flourine\Desktop\Xantios\client-src\extern\include\directX\d3dx9math.inl
; File C:\Users\flourine\Desktop\Xantios\client-src\Code\EterLib\GrpObjectInstance.cpp
;	COMDAT ?Transform@CGraphicObjectInstance@@QAEXXZ
_TEXT	SEGMENT
$T1 = -68						; size = 64
__$ArrayPad$ = -4					; size = 4
?Transform@CGraphicObjectInstance@@QAEXXZ PROC		; CGraphicObjectInstance::Transform, COMDAT
; _this$ = ecx

; 109  : {

  00000	55		 push	 ebp
  00001	8b ec		 mov	 ebp, esp
  00003	83 ec 44	 sub	 esp, 68			; 00000044H
  00006	a1 00 00 00 00	 mov	 eax, DWORD PTR ___security_cookie
  0000b	33 c5		 xor	 eax, ebp
  0000d	89 45 fc	 mov	 DWORD PTR __$ArrayPad$[ebp], eax
  00010	56		 push	 esi
  00011	8b f1		 mov	 esi, ecx

; 110  : 	m_worldMatrix = m_matScaleWorld * m_mRotation;

  00013	8d 46 28	 lea	 eax, DWORD PTR [esi+40]
; File C:\Users\flourine\Desktop\Xantios\client-src\extern\include\directX\d3dx9math.inl

; 885  :     D3DXMatrixMultiply(&matT, this, &mat);

  00016	50		 push	 eax
; File C:\Users\flourine\Desktop\Xantios\client-src\Code\EterLib\GrpObjectInstance.cpp

; 110  : 	m_worldMatrix = m_matScaleWorld * m_mRotation;

  00017	8d 86 4c 02 00
	00		 lea	 eax, DWORD PTR [esi+588]
; File C:\Users\flourine\Desktop\Xantios\client-src\extern\include\directX\d3dx9math.inl

; 885  :     D3DXMatrixMultiply(&matT, this, &mat);

  0001d	50		 push	 eax
  0001e	8d 45 bc	 lea	 eax, DWORD PTR $T1[ebp]
  00021	50		 push	 eax
  00022	e8 00 00 00 00	 call	 _D3DXMatrixMultiply@12
; File C:\Users\flourine\Desktop\Xantios\client-src\Code\EterLib\GrpObjectInstance.cpp

; 110  : 	m_worldMatrix = m_matScaleWorld * m_mRotation;

  00027	0f 10 45 bc	 movups	 xmm0, XMMWORD PTR $T1[ebp]

; 111  : 
; 112  : 	m_worldMatrix._41	+= m_v3Position.x;
; 113  : 	m_worldMatrix._42	+= m_v3Position.y;
; 114  : 	m_worldMatrix._43	+= m_v3Position.z;
; 115  : }

  0002b	8b 4d fc	 mov	 ecx, DWORD PTR __$ArrayPad$[ebp]
  0002e	33 cd		 xor	 ecx, ebp
  00030	0f 11 46 6c	 movups	 XMMWORD PTR [esi+108], xmm0
  00034	0f 10 45 cc	 movups	 xmm0, XMMWORD PTR $T1[ebp+16]
  00038	0f 11 46 7c	 movups	 XMMWORD PTR [esi+124], xmm0
  0003c	0f 10 45 dc	 movups	 xmm0, XMMWORD PTR $T1[ebp+32]
  00040	0f 11 86 8c 00
	00 00		 movups	 XMMWORD PTR [esi+140], xmm0
  00047	0f 10 45 ec	 movups	 xmm0, XMMWORD PTR $T1[ebp+48]
  0004b	0f 11 86 9c 00
	00 00		 movups	 XMMWORD PTR [esi+156], xmm0
  00052	f3 0f 10 46 04	 movss	 xmm0, DWORD PTR [esi+4]
  00057	f3 0f 58 86 9c
	00 00 00	 addss	 xmm0, DWORD PTR [esi+156]
  0005f	f3 0f 11 86 9c
	00 00 00	 movss	 DWORD PTR [esi+156], xmm0
  00067	f3 0f 10 46 08	 movss	 xmm0, DWORD PTR [esi+8]
  0006c	f3 0f 58 86 a0
	00 00 00	 addss	 xmm0, DWORD PTR [esi+160]
  00074	f3 0f 11 86 a0
	00 00 00	 movss	 DWORD PTR [esi+160], xmm0
  0007c	f3 0f 10 46 0c	 movss	 xmm0, DWORD PTR [esi+12]
  00081	f3 0f 58 86 a4
	00 00 00	 addss	 xmm0, DWORD PTR [esi+164]
  00089	f3 0f 11 86 a4
	00 00 00	 movss	 DWORD PTR [esi+164], xmm0
  00091	5e		 pop	 esi
  00092	e8 00 00 00 00	 call	 @__security_check_cookie@4
  00097	8b e5		 mov	 esp, ebp
  00099	5d		 pop	 ebp
  0009a	c3		 ret	 0
?Transform@CGraphicObjectInstance@@QAEXXZ ENDP		; CGraphicObjectInstance::Transform
_TEXT	ENDS
; Function compile flags: /Ogtp
; File C:\Users\flourine\Desktop\Xantios\client-src\Code\EterLib\GrpObjectInstance.cpp
;	COMDAT ?Deform@CGraphicObjectInstance@@QAEXXZ
_TEXT	SEGMENT
?Deform@CGraphicObjectInstance@@QAEXXZ PROC		; CGraphicObjectInstance::Deform, COMDAT
; _this$ = ecx

; 98   : {

  00000	56		 push	 esi
  00001	8b f1		 mov	 esi, ecx

; 99   : 	if (!isShow())

  00003	e8 00 00 00 00	 call	 ?isShow@CGraphicObjectInstance@@QAE_NXZ ; CGraphicObjectInstance::isShow
  00008	84 c0		 test	 al, al
  0000a	74 08		 je	 SHORT $LN1@Deform

; 100  : 	{
; 101  : 		return;
; 102  : 	}
; 103  : 
; 104  : 	OnDeform();

  0000c	8b 06		 mov	 eax, DWORD PTR [esi]
  0000e	8b ce		 mov	 ecx, esi
  00010	5e		 pop	 esi
  00011	ff 60 2c	 jmp	 DWORD PTR [eax+44]
$LN1@Deform:
  00014	5e		 pop	 esi

; 105  : }

  00015	c3		 ret	 0
?Deform@CGraphicObjectInstance@@QAEXXZ ENDP		; CGraphicObjectInstance::Deform
_TEXT	ENDS
; Function compile flags: /Ogtp
; File C:\Users\flourine\Desktop\Xantios\client-src\Code\EterLib\GrpObjectInstance.cpp
;	COMDAT ?RenderPCBlocker@CGraphicObjectInstance@@QAEXXZ
_TEXT	SEGMENT
?RenderPCBlocker@CGraphicObjectInstance@@QAEXXZ PROC	; CGraphicObjectInstance::RenderPCBlocker, COMDAT
; _this$ = ecx

; 81   : {

  00000	56		 push	 esi
  00001	8b f1		 mov	 esi, ecx

; 82   : 	if (!isShow())

  00003	e8 00 00 00 00	 call	 ?isShow@CGraphicObjectInstance@@QAE_NXZ ; CGraphicObjectInstance::isShow
  00008	84 c0		 test	 al, al
  0000a	74 08		 je	 SHORT $LN1@RenderPCBl

; 83   : 	{
; 84   : 		return;
; 85   : 	}
; 86   : 
; 87   : 	OnRenderPCBlocker();

  0000c	8b 06		 mov	 eax, DWORD PTR [esi]
  0000e	8b ce		 mov	 ecx, esi
  00010	5e		 pop	 esi
  00011	ff 60 20	 jmp	 DWORD PTR [eax+32]
$LN1@RenderPCBl:
  00014	5e		 pop	 esi

; 88   : }

  00015	c3		 ret	 0
?RenderPCBlocker@CGraphicObjectInstance@@QAEXXZ ENDP	; CGraphicObjectInstance::RenderPCBlocker
_TEXT	ENDS
; Function compile flags: /Ogtp
; File C:\Users\flourine\Desktop\Xantios\client-src\Code\EterLib\GrpObjectInstance.cpp
;	COMDAT ?RenderShadow@CGraphicObjectInstance@@QAEXXZ
_TEXT	SEGMENT
?RenderShadow@CGraphicObjectInstance@@QAEXXZ PROC	; CGraphicObjectInstance::RenderShadow, COMDAT
; _this$ = ecx

; 71   : {

  00000	56		 push	 esi
  00001	8b f1		 mov	 esi, ecx

; 72   : 	if (!isShow())

  00003	e8 00 00 00 00	 call	 ?isShow@CGraphicObjectInstance@@QAE_NXZ ; CGraphicObjectInstance::isShow
  00008	84 c0		 test	 al, al
  0000a	74 08		 je	 SHORT $LN1@RenderShad

; 73   : 	{
; 74   : 		return;
; 75   : 	}
; 76   : 
; 77   : 	OnRenderShadow();

  0000c	8b 06		 mov	 eax, DWORD PTR [esi]
  0000e	8b ce		 mov	 ecx, esi
  00010	5e		 pop	 esi
  00011	ff 60 1c	 jmp	 DWORD PTR [eax+28]
$LN1@RenderShad:
  00014	5e		 pop	 esi

; 78   : }

  00015	c3		 ret	 0
?RenderShadow@CGraphicObjectInstance@@QAEXXZ ENDP	; CGraphicObjectInstance::RenderShadow
_TEXT	ENDS
; Function compile flags: /Ogtp
; File C:\Users\flourine\Desktop\Xantios\client-src\Code\EterLib\GrpObjectInstance.cpp
;	COMDAT ?RenderToShadowMap@CGraphicObjectInstance@@QAEXXZ
_TEXT	SEGMENT
?RenderToShadowMap@CGraphicObjectInstance@@QAEXXZ PROC	; CGraphicObjectInstance::RenderToShadowMap, COMDAT
; _this$ = ecx

; 61   : {

  00000	56		 push	 esi
  00001	8b f1		 mov	 esi, ecx

; 62   : 	if (!isShow())

  00003	e8 00 00 00 00	 call	 ?isShow@CGraphicObjectInstance@@QAE_NXZ ; CGraphicObjectInstance::isShow
  00008	84 c0		 test	 al, al
  0000a	74 08		 je	 SHORT $LN1@RenderToSh

; 63   : 	{
; 64   : 		return;
; 65   : 	}
; 66   : 
; 67   : 	OnRenderToShadowMap();

  0000c	8b 06		 mov	 eax, DWORD PTR [esi]
  0000e	8b ce		 mov	 ecx, esi
  00010	5e		 pop	 esi
  00011	ff 60 18	 jmp	 DWORD PTR [eax+24]
$LN1@RenderToSh:
  00014	5e		 pop	 esi

; 68   : }

  00015	c3		 ret	 0
?RenderToShadowMap@CGraphicObjectInstance@@QAEXXZ ENDP	; CGraphicObjectInstance::RenderToShadowMap
_TEXT	ENDS
; Function compile flags: /Ogtp
; File C:\Users\flourine\Desktop\Xantios\client-src\Code\EterLib\GrpObjectInstance.cpp
;	COMDAT ?BlendRender@CGraphicObjectInstance@@QAEXXZ
_TEXT	SEGMENT
?BlendRender@CGraphicObjectInstance@@QAEXXZ PROC	; CGraphicObjectInstance::BlendRender, COMDAT
; _this$ = ecx

; 51   : {

  00000	56		 push	 esi
  00001	8b f1		 mov	 esi, ecx

; 52   : 	if (!isShow())

  00003	e8 00 00 00 00	 call	 ?isShow@CGraphicObjectInstance@@QAE_NXZ ; CGraphicObjectInstance::isShow
  00008	84 c0		 test	 al, al
  0000a	74 08		 je	 SHORT $LN1@BlendRende

; 53   : 	{
; 54   : 		return;
; 55   : 	}
; 56   : 
; 57   : 	OnBlendRender();

  0000c	8b 06		 mov	 eax, DWORD PTR [esi]
  0000e	8b ce		 mov	 ecx, esi
  00010	5e		 pop	 esi
  00011	ff 60 14	 jmp	 DWORD PTR [eax+20]
$LN1@BlendRende:
  00014	5e		 pop	 esi

; 58   : }

  00015	c3		 ret	 0
?BlendRender@CGraphicObjectInstance@@QAEXXZ ENDP	; CGraphicObjectInstance::BlendRender
_TEXT	ENDS
; Function compile flags: /Ogtp
; File C:\Users\flourine\Desktop\Xantios\client-src\Code\EterLib\GrpObjectInstance.cpp
;	COMDAT ?Render@CGraphicObjectInstance@@QAE_NXZ
_TEXT	SEGMENT
?Render@CGraphicObjectInstance@@QAE_NXZ PROC		; CGraphicObjectInstance::Render, COMDAT
; _this$ = ecx

; 40   : {

  00000	56		 push	 esi
  00001	8b f1		 mov	 esi, ecx

; 41   : 	if (!isShow())

  00003	e8 00 00 00 00	 call	 ?isShow@CGraphicObjectInstance@@QAE_NXZ ; CGraphicObjectInstance::isShow
  00008	84 c0		 test	 al, al
  0000a	75 02		 jne	 SHORT $LN2@Render
  0000c	5e		 pop	 esi

; 48   : }

  0000d	c3		 ret	 0
$LN2@Render:

; 42   : 	{
; 43   : 		return false;
; 44   : 	}
; 45   : 
; 46   : 	OnRender();

  0000e	8b 06		 mov	 eax, DWORD PTR [esi]
  00010	8b ce		 mov	 ecx, esi
  00012	ff 50 10	 call	 DWORD PTR [eax+16]

; 47   : 	return true;

  00015	b0 01		 mov	 al, 1
  00017	5e		 pop	 esi

; 48   : }

  00018	c3		 ret	 0
?Render@CGraphicObjectInstance@@QAE_NXZ ENDP		; CGraphicObjectInstance::Render
_TEXT	ENDS
; Function compile flags: /Ogtp
; File C:\Users\flourine\Desktop\Xantios\client-src\Code\EterLib\GrpObjectInstance.cpp
;	COMDAT ?Update@CGraphicObjectInstance@@QAEXXZ
_TEXT	SEGMENT
?Update@CGraphicObjectInstance@@QAEXXZ PROC		; CGraphicObjectInstance::Update, COMDAT
; _this$ = ecx

; 91   : {

  00000	56		 push	 esi
  00001	8b f1		 mov	 esi, ecx

; 92   : 	OnUpdate();

  00003	8b 06		 mov	 eax, DWORD PTR [esi]
  00005	ff 50 28	 call	 DWORD PTR [eax+40]

; 93   : 
; 94   : 	UpdateBoundingSphere();

  00008	8b ce		 mov	 ecx, esi
  0000a	5e		 pop	 esi
  0000b	e9 00 00 00 00	 jmp	 ?UpdateBoundingSphere@CGraphicObjectInstance@@QAEXXZ ; CGraphicObjectInstance::UpdateBoundingSphere
?Update@CGraphicObjectInstance@@QAEXXZ ENDP		; CGraphicObjectInstance::Update
_TEXT	ENDS
; Function compile flags: /Ogtp
; File C:\Users\flourine\Desktop\Xantios\client-src\Code\EterLib\GrpObjectInstance.cpp
; File C:\Users\flourine\Desktop\Xantios\client-src\extern\include\directX\d3dx9math.inl
; File C:\Users\flourine\Desktop\Xantios\client-src\Code\EterLib\GrpObjectInstance.cpp
; File C:\Users\flourine\Desktop\Xantios\client-src\extern\include\directX\d3dx9math.inl
; File C:\Users\flourine\Desktop\Xantios\client-src\Code\EterLib\GrpObjectInstance.cpp
; File C:\Users\flourine\Desktop\Xantios\client-src\extern\include\directX\d3dx9math.inl
; File C:\Users\flourine\Desktop\Xantios\client-src\Code\EterLib\GrpObjectInstance.cpp
;	COMDAT ?Clear@CGraphicObjectInstance@@QAEXXZ
_TEXT	SEGMENT
?Clear@CGraphicObjectInstance@@QAEXXZ PROC		; CGraphicObjectInstance::Clear, COMDAT
; _this$ = ecx

; 11   : {

  00000	56		 push	 esi
  00001	8b f1		 mov	 esi, ecx

; 12   : 	if (m_CullingHandle)

  00003	8b 86 68 01 00
	00		 mov	 eax, DWORD PTR [esi+360]
  00009	85 c0		 test	 eax, eax
  0000b	74 16		 je	 SHORT $LN2@Clear

; 13   : 	{
; 14   : 		CCullingManager::Instance().Unregister(m_CullingHandle);

  0000d	8b 0d 00 00 00
	00		 mov	 ecx, DWORD PTR ?ms_singleton@?$CSingleton@VCCullingManager@@@@0PAVCCullingManager@@A ; CSingleton<CCullingManager>::ms_singleton
  00013	50		 push	 eax
  00014	e8 00 00 00 00	 call	 ?Unregister@CCullingManager@@QAEXPAVSpherePack@@@Z ; CCullingManager::Unregister

; 15   : 		m_CullingHandle = NULL;

  00019	c7 86 68 01 00
	00 00 00 00 00	 mov	 DWORD PTR [esi+360], 0
$LN2@Clear:

; 16   : 	}
; 17   : 
; 18   : 	ClearHeightInstance();

  00023	8b ce		 mov	 ecx, esi
  00025	e8 00 00 00 00	 call	 ?ClearHeightInstance@CGraphicObjectInstance@@QAEXXZ ; CGraphicObjectInstance::ClearHeightInstance
; File C:\Users\flourine\Desktop\Xantios\client-src\extern\include\directX\d3dx9math.inl

; 2261 :     pOut->m[0][1] = pOut->m[0][2] = pOut->m[0][3] =

  0002a	c7 86 a4 00 00
	00 00 00 00 00	 mov	 DWORD PTR [esi+164], 0
  00034	0f 57 c0	 xorps	 xmm0, xmm0
  00037	c7 86 a0 00 00
	00 00 00 00 00	 mov	 DWORD PTR [esi+160], 0
  00041	c7 86 9c 00 00
	00 00 00 00 00	 mov	 DWORD PTR [esi+156], 0
  0004b	c7 86 98 00 00
	00 00 00 00 00	 mov	 DWORD PTR [esi+152], 0
  00055	c7 86 90 00 00
	00 00 00 00 00	 mov	 DWORD PTR [esi+144], 0
  0005f	c7 86 8c 00 00
	00 00 00 00 00	 mov	 DWORD PTR [esi+140], 0
  00069	c7 86 88 00 00
	00 00 00 00 00	 mov	 DWORD PTR [esi+136], 0
  00073	c7 86 84 00 00
	00 00 00 00 00	 mov	 DWORD PTR [esi+132], 0
  0007d	c7 46 7c 00 00
	00 00		 mov	 DWORD PTR [esi+124], 0
  00084	c7 46 78 00 00
	00 00		 mov	 DWORD PTR [esi+120], 0
  0008b	c7 46 74 00 00
	00 00		 mov	 DWORD PTR [esi+116], 0
  00092	c7 46 70 00 00
	00 00		 mov	 DWORD PTR [esi+112], 0

; 2266 :     pOut->m[0][0] = pOut->m[1][1] = pOut->m[2][2] = pOut->m[3][3] = 1.0f;

  00099	c7 86 a8 00 00
	00 00 00 80 3f	 mov	 DWORD PTR [esi+168], 1065353216 ; 3f800000H
  000a3	c7 86 94 00 00
	00 00 00 80 3f	 mov	 DWORD PTR [esi+148], 1065353216 ; 3f800000H
  000ad	c7 86 80 00 00
	00 00 00 80 3f	 mov	 DWORD PTR [esi+128], 1065353216 ; 3f800000H
  000b7	c7 46 6c 00 00
	80 3f		 mov	 DWORD PTR [esi+108], 1065353216 ; 3f800000H
; File C:\Users\flourine\Desktop\Xantios\client-src\Code\EterLib\GrpObjectInstance.cpp

; 20   : 	m_isVisible = TRUE;

  000be	c6 46 68 01	 mov	 BYTE PTR [esi+104], 1

; 21   : 
; 22   : 	m_v3Position.x = m_v3Position.y = m_v3Position.z = 0.0f;

  000c2	c7 46 0c 00 00
	00 00		 mov	 DWORD PTR [esi+12], 0
  000c9	c7 46 08 00 00
	00 00		 mov	 DWORD PTR [esi+8], 0
  000d0	c7 46 04 00 00
	00 00		 mov	 DWORD PTR [esi+4], 0

; 23   : 	m_v3Scale.x = m_v3Scale.y = m_v3Scale.z = 1.0f;

  000d7	c7 46 18 00 00
	80 3f		 mov	 DWORD PTR [esi+24], 1065353216 ; 3f800000H
  000de	c7 46 14 00 00
	80 3f		 mov	 DWORD PTR [esi+20], 1065353216 ; 3f800000H
  000e5	c7 46 10 00 00
	80 3f		 mov	 DWORD PTR [esi+16], 1065353216 ; 3f800000H

; 24   : 	//m_fRotation = 0.0f;
; 25   : 	m_fYaw = m_fPitch = m_fRoll = 0.0f;

  000ec	c7 46 24 00 00
	00 00		 mov	 DWORD PTR [esi+36], 0
  000f3	c7 46 20 00 00
	00 00		 mov	 DWORD PTR [esi+32], 0
  000fa	c7 46 1c 00 00
	00 00		 mov	 DWORD PTR [esi+28], 0

; 26   : 	D3DXMatrixIdentity(&m_worldMatrix);
; 27   : 
; 28   : 	ZeroMemory(m_abyPortalID, sizeof(m_abyPortalID));

  00101	66 0f d6 86 60
	01 00 00	 movq	 QWORD PTR [esi+352], xmm0

; 29   : 
; 30   : 	m_v3ScaleAcce.x = m_v3ScaleAcce.y = m_v3ScaleAcce.z = 0.0f;

  00109	c7 86 c8 01 00
	00 00 00 00 00	 mov	 DWORD PTR [esi+456], 0
  00113	c7 86 c4 01 00
	00 00 00 00 00	 mov	 DWORD PTR [esi+452], 0
  0011d	c7 86 c0 01 00
	00 00 00 00 00	 mov	 DWORD PTR [esi+448], 0

; 31   : 	m_bAttachedAcceRace = 0;

  00127	c6 86 bc 01 00
	00 00		 mov	 BYTE PTR [esi+444], 0
; File C:\Users\flourine\Desktop\Xantios\client-src\extern\include\directX\d3dx9math.inl

; 2261 :     pOut->m[0][1] = pOut->m[0][2] = pOut->m[0][3] =

  0012e	c7 86 04 02 00
	00 00 00 00 00	 mov	 DWORD PTR [esi+516], 0
  00138	c7 86 00 02 00
	00 00 00 00 00	 mov	 DWORD PTR [esi+512], 0
  00142	c7 86 fc 01 00
	00 00 00 00 00	 mov	 DWORD PTR [esi+508], 0
  0014c	c7 86 f8 01 00
	00 00 00 00 00	 mov	 DWORD PTR [esi+504], 0
  00156	c7 86 f0 01 00
	00 00 00 00 00	 mov	 DWORD PTR [esi+496], 0
  00160	c7 86 ec 01 00
	00 00 00 00 00	 mov	 DWORD PTR [esi+492], 0
  0016a	c7 86 e8 01 00
	00 00 00 00 00	 mov	 DWORD PTR [esi+488], 0
  00174	c7 86 e4 01 00
	00 00 00 00 00	 mov	 DWORD PTR [esi+484], 0
  0017e	c7 86 dc 01 00
	00 00 00 00 00	 mov	 DWORD PTR [esi+476], 0
  00188	c7 86 d8 01 00
	00 00 00 00 00	 mov	 DWORD PTR [esi+472], 0
  00192	c7 86 d4 01 00
	00 00 00 00 00	 mov	 DWORD PTR [esi+468], 0
  0019c	c7 86 d0 01 00
	00 00 00 00 00	 mov	 DWORD PTR [esi+464], 0

; 2266 :     pOut->m[0][0] = pOut->m[1][1] = pOut->m[2][2] = pOut->m[3][3] = 1.0f;

  001a6	c7 86 08 02 00
	00 00 00 80 3f	 mov	 DWORD PTR [esi+520], 1065353216 ; 3f800000H
  001b0	c7 86 f4 01 00
	00 00 00 80 3f	 mov	 DWORD PTR [esi+500], 1065353216 ; 3f800000H
  001ba	c7 86 e0 01 00
	00 00 00 80 3f	 mov	 DWORD PTR [esi+480], 1065353216 ; 3f800000H
  001c4	c7 86 cc 01 00
	00 00 00 80 3f	 mov	 DWORD PTR [esi+460], 1065353216 ; 3f800000H

; 2261 :     pOut->m[0][1] = pOut->m[0][2] = pOut->m[0][3] =

  001ce	c7 86 44 02 00
	00 00 00 00 00	 mov	 DWORD PTR [esi+580], 0
  001d8	c7 86 40 02 00
	00 00 00 00 00	 mov	 DWORD PTR [esi+576], 0
  001e2	c7 86 3c 02 00
	00 00 00 00 00	 mov	 DWORD PTR [esi+572], 0
  001ec	c7 86 38 02 00
	00 00 00 00 00	 mov	 DWORD PTR [esi+568], 0
  001f6	c7 86 30 02 00
	00 00 00 00 00	 mov	 DWORD PTR [esi+560], 0
  00200	c7 86 2c 02 00
	00 00 00 00 00	 mov	 DWORD PTR [esi+556], 0
  0020a	c7 86 28 02 00
	00 00 00 00 00	 mov	 DWORD PTR [esi+552], 0
  00214	c7 86 24 02 00
	00 00 00 00 00	 mov	 DWORD PTR [esi+548], 0
  0021e	c7 86 1c 02 00
	00 00 00 00 00	 mov	 DWORD PTR [esi+540], 0
  00228	c7 86 18 02 00
	00 00 00 00 00	 mov	 DWORD PTR [esi+536], 0
  00232	c7 86 14 02 00
	00 00 00 00 00	 mov	 DWORD PTR [esi+532], 0
  0023c	c7 86 10 02 00
	00 00 00 00 00	 mov	 DWORD PTR [esi+528], 0

; 2266 :     pOut->m[0][0] = pOut->m[1][1] = pOut->m[2][2] = pOut->m[3][3] = 1.0f;

  00246	c7 86 48 02 00
	00 00 00 80 3f	 mov	 DWORD PTR [esi+584], 1065353216 ; 3f800000H
  00250	c7 86 34 02 00
	00 00 00 80 3f	 mov	 DWORD PTR [esi+564], 1065353216 ; 3f800000H
  0025a	c7 86 20 02 00
	00 00 00 80 3f	 mov	 DWORD PTR [esi+544], 1065353216 ; 3f800000H
  00264	c7 86 0c 02 00
	00 00 00 80 3f	 mov	 DWORD PTR [esi+524], 1065353216 ; 3f800000H

; 2261 :     pOut->m[0][1] = pOut->m[0][2] = pOut->m[0][3] =

  0026e	c7 86 84 02 00
	00 00 00 00 00	 mov	 DWORD PTR [esi+644], 0
  00278	c7 86 80 02 00
	00 00 00 00 00	 mov	 DWORD PTR [esi+640], 0
  00282	c7 86 7c 02 00
	00 00 00 00 00	 mov	 DWORD PTR [esi+636], 0
  0028c	c7 86 78 02 00
	00 00 00 00 00	 mov	 DWORD PTR [esi+632], 0
  00296	c7 86 70 02 00
	00 00 00 00 00	 mov	 DWORD PTR [esi+624], 0
  002a0	c7 86 6c 02 00
	00 00 00 00 00	 mov	 DWORD PTR [esi+620], 0
  002aa	c7 86 68 02 00
	00 00 00 00 00	 mov	 DWORD PTR [esi+616], 0
  002b4	c7 86 64 02 00
	00 00 00 00 00	 mov	 DWORD PTR [esi+612], 0
  002be	c7 86 5c 02 00
	00 00 00 00 00	 mov	 DWORD PTR [esi+604], 0
  002c8	c7 86 58 02 00
	00 00 00 00 00	 mov	 DWORD PTR [esi+600], 0
  002d2	c7 86 54 02 00
	00 00 00 00 00	 mov	 DWORD PTR [esi+596], 0
  002dc	c7 86 50 02 00
	00 00 00 00 00	 mov	 DWORD PTR [esi+592], 0

; 2266 :     pOut->m[0][0] = pOut->m[1][1] = pOut->m[2][2] = pOut->m[3][3] = 1.0f;

  002e6	c7 86 88 02 00
	00 00 00 80 3f	 mov	 DWORD PTR [esi+648], 1065353216 ; 3f800000H
  002f0	c7 86 74 02 00
	00 00 00 80 3f	 mov	 DWORD PTR [esi+628], 1065353216 ; 3f800000H
  002fa	c7 86 60 02 00
	00 00 00 80 3f	 mov	 DWORD PTR [esi+608], 1065353216 ; 3f800000H
; File C:\Users\flourine\Desktop\Xantios\client-src\Code\EterLib\GrpObjectInstance.cpp

; 36   : 	OnClear();

  00304	8b 06		 mov	 eax, DWORD PTR [esi]
  00306	8b ce		 mov	 ecx, esi
; File C:\Users\flourine\Desktop\Xantios\client-src\extern\include\directX\d3dx9math.inl

; 2266 :     pOut->m[0][0] = pOut->m[1][1] = pOut->m[2][2] = pOut->m[3][3] = 1.0f;

  00308	c7 86 4c 02 00
	00 00 00 80 3f	 mov	 DWORD PTR [esi+588], 1065353216 ; 3f800000H
; File C:\Users\flourine\Desktop\Xantios\client-src\Code\EterLib\GrpObjectInstance.cpp

; 36   : 	OnClear();

  00312	5e		 pop	 esi
  00313	ff 60 24	 jmp	 DWORD PTR [eax+36]
?Clear@CGraphicObjectInstance@@QAEXXZ ENDP		; CGraphicObjectInstance::Clear
_TEXT	ENDS
; Function compile flags: /Ogtp
; File C:\Users\flourine\Desktop\Xantios\client-src\Code\EterLib\GrpObjectInstance.cpp
;	COMDAT ?SetRotationMatrix@CGraphicObjectInstance@@QAEXABUD3DXMATRIX@@@Z
_TEXT	SEGMENT
_m$ = 8							; size = 4
?SetRotationMatrix@CGraphicObjectInstance@@QAEXABUD3DXMATRIX@@@Z PROC ; CGraphicObjectInstance::SetRotationMatrix, COMDAT
; _this$ = ecx

; 158  : {

  00000	55		 push	 ebp
  00001	8b ec		 mov	 ebp, esp

; 159  : 	m_mRotation = m;

  00003	8b 45 08	 mov	 eax, DWORD PTR _m$[ebp]
  00006	0f 10 00	 movups	 xmm0, XMMWORD PTR [eax]
  00009	0f 11 41 28	 movups	 XMMWORD PTR [ecx+40], xmm0
  0000d	0f 10 40 10	 movups	 xmm0, XMMWORD PTR [eax+16]
  00011	0f 11 41 38	 movups	 XMMWORD PTR [ecx+56], xmm0
  00015	0f 10 40 20	 movups	 xmm0, XMMWORD PTR [eax+32]
  00019	0f 11 41 48	 movups	 XMMWORD PTR [ecx+72], xmm0
  0001d	0f 10 40 30	 movups	 xmm0, XMMWORD PTR [eax+48]
  00021	0f 11 41 58	 movups	 XMMWORD PTR [ecx+88], xmm0

; 160  : }

  00025	5d		 pop	 ebp
  00026	c2 04 00	 ret	 4
?SetRotationMatrix@CGraphicObjectInstance@@QAEXABUD3DXMATRIX@@@Z ENDP ; CGraphicObjectInstance::SetRotationMatrix
_TEXT	ENDS
; Function compile flags: /Ogtp
; File C:\Users\flourine\Desktop\Xantios\client-src\Code\EterLib\GrpObjectInstance.cpp
;	COMDAT ?SetRotationQuaternion@CGraphicObjectInstance@@QAEXABUD3DXQUATERNION@@@Z
_TEXT	SEGMENT
_q$ = 8							; size = 4
?SetRotationQuaternion@CGraphicObjectInstance@@QAEXABUD3DXQUATERNION@@@Z PROC ; CGraphicObjectInstance::SetRotationQuaternion, COMDAT
; _this$ = ecx

; 153  : {

  00000	55		 push	 ebp
  00001	8b ec		 mov	 ebp, esp

; 154  : 	D3DXMatrixRotationQuaternion(&m_mRotation, &q);

  00003	ff 75 08	 push	 DWORD PTR _q$[ebp]
  00006	8d 41 28	 lea	 eax, DWORD PTR [ecx+40]
  00009	50		 push	 eax
  0000a	e8 00 00 00 00	 call	 _D3DXMatrixRotationQuaternion@8

; 155  : }

  0000f	5d		 pop	 ebp
  00010	c2 04 00	 ret	 4
?SetRotationQuaternion@CGraphicObjectInstance@@QAEXABUD3DXQUATERNION@@@Z ENDP ; CGraphicObjectInstance::SetRotationQuaternion
_TEXT	ENDS
; Function compile flags: /Ogtp
; File C:\Users\flourine\Desktop\Xantios\client-src\Code\EterLib\GrpObjectInstance.cpp
;	COMDAT ?SetRotation@CGraphicObjectInstance@@QAEXMMM@Z
_TEXT	SEGMENT
_fYaw$ = 8						; size = 4
_fPitch$ = 12						; size = 4
_fRoll$ = 16						; size = 4
?SetRotation@CGraphicObjectInstance@@QAEXMMM@Z PROC	; CGraphicObjectInstance::SetRotation, COMDAT
; _this$ = ecx

; 172  : {

  00000	55		 push	 ebp
  00001	8b ec		 mov	 ebp, esp

; 173  : 	//m_fRotation = fRotation;
; 174  : 	m_fYaw = fYaw;
; 175  : 	m_fPitch = fPitch;
; 176  : 	m_fRoll = fRoll;

  00003	f3 0f 10 45 10	 movss	 xmm0, DWORD PTR _fRoll$[ebp]

; 177  : 
; 178  : 	D3DXMatrixRotationYawPitchRoll(&m_mRotation, D3DXToRadian(fYaw), D3DXToRadian(fPitch), D3DXToRadian(fRoll));

  00008	8d 41 28	 lea	 eax, DWORD PTR [ecx+40]
  0000b	f3 0f 10 0d 00
	00 00 00	 movss	 xmm1, DWORD PTR __real@3c8efa35
  00013	83 ec 0c	 sub	 esp, 12			; 0000000cH
  00016	f3 0f 10 55 0c	 movss	 xmm2, DWORD PTR _fPitch$[ebp]
  0001b	f3 0f 10 5d 08	 movss	 xmm3, DWORD PTR _fYaw$[ebp]
  00020	f3 0f 11 41 24	 movss	 DWORD PTR [ecx+36], xmm0
  00025	f3 0f 11 51 20	 movss	 DWORD PTR [ecx+32], xmm2
  0002a	f3 0f 59 c1	 mulss	 xmm0, xmm1
  0002e	f3 0f 11 59 1c	 movss	 DWORD PTR [ecx+28], xmm3
  00033	f3 0f 59 d1	 mulss	 xmm2, xmm1
  00037	f3 0f 59 d9	 mulss	 xmm3, xmm1
  0003b	f3 0f 11 44 24
	08		 movss	 DWORD PTR [esp+8], xmm0
  00041	f3 0f 11 54 24
	04		 movss	 DWORD PTR [esp+4], xmm2
  00047	f3 0f 11 1c 24	 movss	 DWORD PTR [esp], xmm3
  0004c	50		 push	 eax
  0004d	e8 00 00 00 00	 call	 _D3DXMatrixRotationYawPitchRoll@16

; 179  : }

  00052	5d		 pop	 ebp
  00053	c2 0c 00	 ret	 12			; 0000000cH
?SetRotation@CGraphicObjectInstance@@QAEXMMM@Z ENDP	; CGraphicObjectInstance::SetRotation
_TEXT	ENDS
; Function compile flags: /Ogtp
; File C:\Users\flourine\Desktop\Xantios\client-src\Code\EterLib\GrpObjectInstance.cpp
;	COMDAT ?SetRotation@CGraphicObjectInstance@@QAEXM@Z
_TEXT	SEGMENT
_fRotation$ = 8						; size = 4
?SetRotation@CGraphicObjectInstance@@QAEXM@Z PROC	; CGraphicObjectInstance::SetRotation, COMDAT
; _this$ = ecx

; 163  : {

  00000	55		 push	 ebp
  00001	8b ec		 mov	 ebp, esp

; 164  : 	m_fYaw = 0;
; 165  : 	m_fPitch = 0;
; 166  : 	m_fRoll = fRotation;

  00003	f3 0f 10 45 08	 movss	 xmm0, DWORD PTR _fRotation$[ebp]

; 167  : 
; 168  : 	D3DXMatrixRotationZ(&m_mRotation, D3DXToRadian(fRotation));

  00008	8d 41 28	 lea	 eax, DWORD PTR [ecx+40]
  0000b	f3 0f 11 41 24	 movss	 DWORD PTR [ecx+36], xmm0
  00010	f3 0f 59 05 00
	00 00 00	 mulss	 xmm0, DWORD PTR __real@3c8efa35
  00018	51		 push	 ecx
  00019	c7 41 1c 00 00
	00 00		 mov	 DWORD PTR [ecx+28], 0
  00020	c7 41 20 00 00
	00 00		 mov	 DWORD PTR [ecx+32], 0
  00027	f3 0f 11 04 24	 movss	 DWORD PTR [esp], xmm0
  0002c	50		 push	 eax
  0002d	e8 00 00 00 00	 call	 _D3DXMatrixRotationZ@8

; 169  : }

  00032	5d		 pop	 ebp
  00033	c2 04 00	 ret	 4
?SetRotation@CGraphicObjectInstance@@QAEXM@Z ENDP	; CGraphicObjectInstance::SetRotation
_TEXT	ENDS
; Function compile flags: /Ogtp
; File C:\Users\flourine\Desktop\Xantios\client-src\Code\EterLib\GrpObjectInstance.cpp
;	COMDAT ?SetScale@CGraphicObjectInstance@@QAEXMMM@Z
_TEXT	SEGMENT
_x$ = 8							; size = 4
_y$ = 12						; size = 4
_z$ = 16						; size = 4
?SetScale@CGraphicObjectInstance@@QAEXMMM@Z PROC	; CGraphicObjectInstance::SetScale, COMDAT
; _this$ = ecx

; 194  : {

  00000	55		 push	 ebp
  00001	8b ec		 mov	 ebp, esp

; 195  : 	m_v3Scale.x = x;

  00003	f3 0f 10 45 08	 movss	 xmm0, DWORD PTR _x$[ebp]
  00008	f3 0f 11 41 10	 movss	 DWORD PTR [ecx+16], xmm0

; 196  : 	m_v3Scale.y = y;

  0000d	f3 0f 10 45 0c	 movss	 xmm0, DWORD PTR _y$[ebp]
  00012	f3 0f 11 41 14	 movss	 DWORD PTR [ecx+20], xmm0

; 197  : 	m_v3Scale.z = z;

  00017	f3 0f 10 45 10	 movss	 xmm0, DWORD PTR _z$[ebp]
  0001c	f3 0f 11 41 18	 movss	 DWORD PTR [ecx+24], xmm0

; 198  : }

  00021	5d		 pop	 ebp
  00022	c2 0c 00	 ret	 12			; 0000000cH
?SetScale@CGraphicObjectInstance@@QAEXMMM@Z ENDP	; CGraphicObjectInstance::SetScale
_TEXT	ENDS
; Function compile flags: /Ogtp
; File C:\Users\flourine\Desktop\Xantios\client-src\Code\EterLib\GrpObjectInstance.cpp
;	COMDAT ?SetPosition@CGraphicObjectInstance@@QAEXABUD3DXVECTOR3@@@Z
_TEXT	SEGMENT
_newposition$ = 8					; size = 4
?SetPosition@CGraphicObjectInstance@@QAEXABUD3DXVECTOR3@@@Z PROC ; CGraphicObjectInstance::SetPosition, COMDAT
; _this$ = ecx

; 189  : {

  00000	55		 push	 ebp
  00001	8b ec		 mov	 ebp, esp

; 190  : 	m_v3Position = newposition;

  00003	8b 45 08	 mov	 eax, DWORD PTR _newposition$[ebp]
  00006	f3 0f 7e 00	 movq	 xmm0, QWORD PTR [eax]
  0000a	66 0f d6 41 04	 movq	 QWORD PTR [ecx+4], xmm0
  0000f	8b 40 08	 mov	 eax, DWORD PTR [eax+8]
  00012	89 41 0c	 mov	 DWORD PTR [ecx+12], eax

; 191  : }

  00015	5d		 pop	 ebp
  00016	c2 04 00	 ret	 4
?SetPosition@CGraphicObjectInstance@@QAEXABUD3DXVECTOR3@@@Z ENDP ; CGraphicObjectInstance::SetPosition
_TEXT	ENDS
; Function compile flags: /Ogtp
; File C:\Users\flourine\Desktop\Xantios\client-src\Code\EterLib\GrpObjectInstance.cpp
;	COMDAT ?SetPosition@CGraphicObjectInstance@@QAEXMMM@Z
_TEXT	SEGMENT
_x$ = 8							; size = 4
_y$ = 12						; size = 4
_z$ = 16						; size = 4
?SetPosition@CGraphicObjectInstance@@QAEXMMM@Z PROC	; CGraphicObjectInstance::SetPosition, COMDAT
; _this$ = ecx

; 182  : {

  00000	55		 push	 ebp
  00001	8b ec		 mov	 ebp, esp

; 183  : 	m_v3Position.x = x;

  00003	f3 0f 10 45 08	 movss	 xmm0, DWORD PTR _x$[ebp]
  00008	f3 0f 11 41 04	 movss	 DWORD PTR [ecx+4], xmm0

; 184  : 	m_v3Position.y = y;

  0000d	f3 0f 10 45 0c	 movss	 xmm0, DWORD PTR _y$[ebp]
  00012	f3 0f 11 41 08	 movss	 DWORD PTR [ecx+8], xmm0

; 185  : 	m_v3Position.z = z;

  00017	f3 0f 10 45 10	 movss	 xmm0, DWORD PTR _z$[ebp]
  0001c	f3 0f 11 41 0c	 movss	 DWORD PTR [ecx+12], xmm0

; 186  : }

  00021	5d		 pop	 ebp
  00022	c2 0c 00	 ret	 12			; 0000000cH
?SetPosition@CGraphicObjectInstance@@QAEXMMM@Z ENDP	; CGraphicObjectInstance::SetPosition
_TEXT	ENDS
; Function compile flags: /Ogtp
; File C:\Users\flourine\Desktop\Xantios\client-src\Code\EterLib\GrpObjectInstance.cpp
;	COMDAT ?GetRoll@CGraphicObjectInstance@@QAEMXZ
_TEXT	SEGMENT
?GetRoll@CGraphicObjectInstance@@QAEMXZ PROC		; CGraphicObjectInstance::GetRoll, COMDAT
; _this$ = ecx

; 144  : 	return m_fRoll;

  00000	d9 41 24	 fld	 DWORD PTR [ecx+36]

; 145  : }

  00003	c3		 ret	 0
?GetRoll@CGraphicObjectInstance@@QAEMXZ ENDP		; CGraphicObjectInstance::GetRoll
_TEXT	ENDS
; Function compile flags: /Ogtp
; File C:\Users\flourine\Desktop\Xantios\client-src\Code\EterLib\GrpObjectInstance.cpp
;	COMDAT ?GetPitch@CGraphicObjectInstance@@QAEMXZ
_TEXT	SEGMENT
?GetPitch@CGraphicObjectInstance@@QAEMXZ PROC		; CGraphicObjectInstance::GetPitch, COMDAT
; _this$ = ecx

; 139  : 	return m_fPitch;

  00000	d9 41 20	 fld	 DWORD PTR [ecx+32]

; 140  : }

  00003	c3		 ret	 0
?GetPitch@CGraphicObjectInstance@@QAEMXZ ENDP		; CGraphicObjectInstance::GetPitch
_TEXT	ENDS
; Function compile flags: /Ogtp
; File C:\Users\flourine\Desktop\Xantios\client-src\Code\EterLib\GrpObjectInstance.cpp
;	COMDAT ?GetYaw@CGraphicObjectInstance@@QAEMXZ
_TEXT	SEGMENT
?GetYaw@CGraphicObjectInstance@@QAEMXZ PROC		; CGraphicObjectInstance::GetYaw, COMDAT
; _this$ = ecx

; 134  : 	return m_fYaw;

  00000	d9 41 1c	 fld	 DWORD PTR [ecx+28]

; 135  : }

  00003	c3		 ret	 0
?GetYaw@CGraphicObjectInstance@@QAEMXZ ENDP		; CGraphicObjectInstance::GetYaw
_TEXT	ENDS
; Function compile flags: /Ogtp
; File C:\Users\flourine\Desktop\Xantios\client-src\Code\EterLib\GrpObjectInstance.cpp
;	COMDAT ?GetRotation@CGraphicObjectInstance@@QAEMXZ
_TEXT	SEGMENT
?GetRotation@CGraphicObjectInstance@@QAEMXZ PROC	; CGraphicObjectInstance::GetRotation, COMDAT
; _this$ = ecx

; 129  : 	return GetRoll();

  00000	e9 00 00 00 00	 jmp	 ?GetRoll@CGraphicObjectInstance@@QAEMXZ ; CGraphicObjectInstance::GetRoll
?GetRotation@CGraphicObjectInstance@@QAEMXZ ENDP	; CGraphicObjectInstance::GetRotation
_TEXT	ENDS
; Function compile flags: /Ogtp
; File C:\Users\flourine\Desktop\Xantios\client-src\Code\EterLib\GrpObjectInstance.cpp
;	COMDAT ?GetScale@CGraphicObjectInstance@@QBEABUD3DXVECTOR3@@XZ
_TEXT	SEGMENT
?GetScale@CGraphicObjectInstance@@QBEABUD3DXVECTOR3@@XZ PROC ; CGraphicObjectInstance::GetScale, COMDAT
; _this$ = ecx

; 124  : 	return m_v3Scale;

  00000	8d 41 10	 lea	 eax, DWORD PTR [ecx+16]

; 125  : }

  00003	c3		 ret	 0
?GetScale@CGraphicObjectInstance@@QBEABUD3DXVECTOR3@@XZ ENDP ; CGraphicObjectInstance::GetScale
_TEXT	ENDS
; Function compile flags: /Ogtp
; File C:\Users\flourine\Desktop\Xantios\client-src\Code\EterLib\GrpObjectInstance.cpp
;	COMDAT ?GetPosition@CGraphicObjectInstance@@QBEABUD3DXVECTOR3@@XZ
_TEXT	SEGMENT
?GetPosition@CGraphicObjectInstance@@QBEABUD3DXVECTOR3@@XZ PROC ; CGraphicObjectInstance::GetPosition, COMDAT
; _this$ = ecx

; 119  : 	return m_v3Position;

  00000	8d 41 04	 lea	 eax, DWORD PTR [ecx+4]

; 120  : }

  00003	c3		 ret	 0
?GetPosition@CGraphicObjectInstance@@QBEABUD3DXVECTOR3@@XZ ENDP ; CGraphicObjectInstance::GetPosition
_TEXT	ENDS
; Function compile flags: /Ogtp
; File C:\Users\flourine\Desktop\Xantios\client-src\Code\EterLib\GrpObjectInstance.cpp
; File C:\Program Files\Microsoft Visual Studio\2022\Community\VC\Tools\MSVC\14.34.31933\include\vector
; File C:\Program Files\Microsoft Visual Studio\2022\Community\VC\Tools\MSVC\14.34.31933\include\xmemory
; File C:\Program Files\Microsoft Visual Studio\2022\Community\VC\Tools\MSVC\14.34.31933\include\vector
; File C:\Program Files\Microsoft Visual Studio\2022\Community\VC\Tools\MSVC\14.34.31933\include\xmemory
; File C:\Program Files\Microsoft Visual Studio\2022\Community\VC\Tools\MSVC\14.34.31933\include\vector
; File C:\Users\flourine\Desktop\Xantios\client-src\Code\EterLib\GrpObjectInstance.cpp
; File C:\Program Files\Microsoft Visual Studio\2022\Community\VC\Tools\MSVC\14.34.31933\include\xmemory
; File C:\Users\flourine\Desktop\Xantios\client-src\Code\EterLib\GrpObjectInstance.cpp
;	COMDAT ??1CGraphicObjectInstance@@UAE@XZ
_TEXT	SEGMENT
__$EHRec$ = -12						; size = 12
??1CGraphicObjectInstance@@UAE@XZ PROC			; CGraphicObjectInstance::~CGraphicObjectInstance, COMDAT
; _this$ = ecx

; 307  : {

  00000	55		 push	 ebp
  00001	8b ec		 mov	 ebp, esp
  00003	6a ff		 push	 -1
  00005	68 00 00 00 00	 push	 __ehhandler$??1CGraphicObjectInstance@@UAE@XZ
  0000a	64 a1 00 00 00
	00		 mov	 eax, DWORD PTR fs:0
  00010	50		 push	 eax
  00011	56		 push	 esi
  00012	a1 00 00 00 00	 mov	 eax, DWORD PTR ___security_cookie
  00017	33 c5		 xor	 eax, ebp
  00019	50		 push	 eax
  0001a	8d 45 f4	 lea	 eax, DWORD PTR __$EHRec$[ebp]
  0001d	64 a3 00 00 00
	00		 mov	 DWORD PTR fs:0, eax
  00023	8b f1		 mov	 esi, ecx
  00025	c7 06 00 00 00
	00		 mov	 DWORD PTR [esi], OFFSET ??_7CGraphicObjectInstance@@6B@

; 308  : 	Initialize();

  0002b	e8 00 00 00 00	 call	 ?Initialize@CGraphicObjectInstance@@QAEXXZ ; CGraphicObjectInstance::Initialize
; File C:\Program Files\Microsoft Visual Studio\2022\Community\VC\Tools\MSVC\14.34.31933\include\vector

; 2107 :         if (_Myfirst) { // destroy and deallocate old array

  00030	8b 86 ac 01 00
	00		 mov	 eax, DWORD PTR [esi+428]
  00036	85 c0		 test	 eax, eax
  00038	74 4d		 je	 SHORT $LN6@CGraphicOb

; 2108 :             _Destroy_range(_Myfirst, _Mylast, _Al);
; 2109 :             _ASAN_VECTOR_REMOVE;
; 2110 :             _Al.deallocate(_Myfirst, static_cast<size_type>(_Myend - _Myfirst));

  0003a	8b 8e b4 01 00
	00		 mov	 ecx, DWORD PTR [esi+436]
  00040	2b c8		 sub	 ecx, eax
; File C:\Program Files\Microsoft Visual Studio\2022\Community\VC\Tools\MSVC\14.34.31933\include\xmemory

; 830  :         _Deallocate<_New_alignof<_Ty>>(_Ptr, sizeof(_Ty) * _Count);

  00042	83 e1 fc	 and	 ecx, -4			; fffffffcH

; 251  :         if (_Bytes >= _Big_allocation_threshold) { // boost the alignment of big allocations to help autovectorization

  00045	81 f9 00 10 00
	00		 cmp	 ecx, 4096		; 00001000H
  0004b	72 12		 jb	 SHORT $LN22@CGraphicOb

; 150  :     const uintptr_t _Ptr_container   = _Ptr_user[-1];

  0004d	8b 50 fc	 mov	 edx, DWORD PTR [eax-4]
  00050	83 c1 23	 add	 ecx, 35			; 00000023H

; 151  : 
; 152  :     // If the following asserts, it likely means that we are performing
; 153  :     // an aligned delete on memory coming from an unaligned allocation.
; 154  :     _STL_ASSERT(_Ptr_user[-2] == _Big_allocation_sentinel, "invalid argument");
; 155  : 
; 156  :     // Extra paranoia on aligned allocation/deallocation; ensure _Ptr_container is
; 157  :     // in range [_Min_back_shift, _Non_user_size]
; 158  : #ifdef _DEBUG
; 159  :     constexpr uintptr_t _Min_back_shift = 2 * sizeof(void*);
; 160  : #else // ^^^ _DEBUG ^^^ // vvv !_DEBUG vvv
; 161  :     constexpr uintptr_t _Min_back_shift = sizeof(void*);
; 162  : #endif // _DEBUG
; 163  :     const uintptr_t _Back_shift = reinterpret_cast<uintptr_t>(_Ptr) - _Ptr_container;

  00053	2b c2		 sub	 eax, edx

; 164  :     _STL_VERIFY(_Back_shift >= _Min_back_shift && _Back_shift <= _Non_user_size, "invalid argument");

  00055	83 c0 fc	 add	 eax, -4			; fffffffcH
  00058	83 f8 1f	 cmp	 eax, 31			; 0000001fH
  0005b	77 41		 ja	 SHORT $LN19@CGraphicOb

; 165  :     _Ptr = reinterpret_cast<void*>(_Ptr_container);

  0005d	8b c2		 mov	 eax, edx
$LN22@CGraphicOb:

; 255  :         ::operator delete(_Ptr, _Bytes);

  0005f	51		 push	 ecx
  00060	50		 push	 eax
  00061	e8 00 00 00 00	 call	 ??3@YAXPAXI@Z		; operator delete
; File C:\Program Files\Microsoft Visual Studio\2022\Community\VC\Tools\MSVC\14.34.31933\include\vector

; 2112 :             _Myfirst = nullptr;

  00066	c7 86 ac 01 00
	00 00 00 00 00	 mov	 DWORD PTR [esi+428], 0
; File C:\Program Files\Microsoft Visual Studio\2022\Community\VC\Tools\MSVC\14.34.31933\include\xmemory

; 255  :         ::operator delete(_Ptr, _Bytes);

  00070	83 c4 08	 add	 esp, 8
; File C:\Program Files\Microsoft Visual Studio\2022\Community\VC\Tools\MSVC\14.34.31933\include\vector

; 2113 :             _Mylast  = nullptr;

  00073	c7 86 b0 01 00
	00 00 00 00 00	 mov	 DWORD PTR [esi+432], 0

; 2114 :             _Myend   = nullptr;

  0007d	c7 86 b4 01 00
	00 00 00 00 00	 mov	 DWORD PTR [esi+436], 0
$LN6@CGraphicOb:
; File C:\Users\flourine\Desktop\Xantios\client-src\Code\EterLib\GrpObjectInstance.cpp

; 309  : }

  00087	8b ce		 mov	 ecx, esi
  00089	e8 00 00 00 00	 call	 ??1CGraphicCollisionObject@@UAE@XZ ; CGraphicCollisionObject::~CGraphicCollisionObject
  0008e	8b 4d f4	 mov	 ecx, DWORD PTR __$EHRec$[ebp]
  00091	64 89 0d 00 00
	00 00		 mov	 DWORD PTR fs:0, ecx
  00098	59		 pop	 ecx
  00099	5e		 pop	 esi
  0009a	8b e5		 mov	 esp, ebp
  0009c	5d		 pop	 ebp
  0009d	c3		 ret	 0
$LN19@CGraphicOb:
; File C:\Program Files\Microsoft Visual Studio\2022\Community\VC\Tools\MSVC\14.34.31933\include\xmemory

; 164  :     _STL_VERIFY(_Back_shift >= _Min_back_shift && _Back_shift <= _Non_user_size, "invalid argument");

  0009e	e8 00 00 00 00	 call	 __invalid_parameter_noinfo_noreturn
$LN29@CGraphicOb:
  000a3	cc		 int	 3
  000a4	cc		 int	 3
  000a5	cc		 int	 3
  000a6	cc		 int	 3
  000a7	cc		 int	 3
  000a8	cc		 int	 3
_TEXT	ENDS
;	COMDAT text$x
text$x	SEGMENT
__ehhandler$??1CGraphicObjectInstance@@UAE@XZ:
  00000	90		 npad	 1
  00001	90		 npad	 1
  00002	8b 54 24 08	 mov	 edx, DWORD PTR [esp+8]
  00006	8d 42 0c	 lea	 eax, DWORD PTR [edx+12]
  00009	8b 4a f8	 mov	 ecx, DWORD PTR [edx-8]
  0000c	33 c8		 xor	 ecx, eax
  0000e	e8 00 00 00 00	 call	 @__security_check_cookie@4
  00013	b8 00 00 00 00	 mov	 eax, OFFSET __ehfuncinfo$??1CGraphicObjectInstance@@UAE@XZ
  00018	e9 00 00 00 00	 jmp	 ___CxxFrameHandler3
text$x	ENDS
??1CGraphicObjectInstance@@UAE@XZ ENDP			; CGraphicObjectInstance::~CGraphicObjectInstance
; Function compile flags: /Ogtp
; File C:\Users\flourine\Desktop\Xantios\client-src\Code\EterLib\GrpObjectInstance.cpp
; File C:\Program Files\Microsoft Visual Studio\2022\Community\VC\Tools\MSVC\14.34.31933\include\vector
; File C:\Users\flourine\Desktop\Xantios\client-src\Code\EterLib\GrpObjectInstance.cpp
;	COMDAT ??0CGraphicObjectInstance@@QAE@XZ
_TEXT	SEGMENT
_this$ = -16						; size = 4
__$EHRec$ = -12						; size = 12
??0CGraphicObjectInstance@@QAE@XZ PROC			; CGraphicObjectInstance::CGraphicObjectInstance, COMDAT
; _this$ = ecx

; 270  : {

  00000	55		 push	 ebp
  00001	8b ec		 mov	 ebp, esp
  00003	6a ff		 push	 -1
  00005	68 00 00 00 00	 push	 __ehhandler$??0CGraphicObjectInstance@@QAE@XZ
  0000a	64 a1 00 00 00
	00		 mov	 eax, DWORD PTR fs:0
  00010	50		 push	 eax
  00011	51		 push	 ecx
  00012	56		 push	 esi
  00013	a1 00 00 00 00	 mov	 eax, DWORD PTR ___security_cookie
  00018	33 c5		 xor	 eax, ebp
  0001a	50		 push	 eax
  0001b	8d 45 f4	 lea	 eax, DWORD PTR __$EHRec$[ebp]
  0001e	64 a3 00 00 00
	00		 mov	 DWORD PTR fs:0, eax
  00024	8b f1		 mov	 esi, ecx
  00026	89 75 f0	 mov	 DWORD PTR _this$[ebp], esi
  00029	e8 00 00 00 00	 call	 ??0CGraphicCollisionObject@@QAE@XZ ; CGraphicCollisionObject::CGraphicCollisionObject
  0002e	c7 06 00 00 00
	00		 mov	 DWORD PTR [esi], OFFSET ??_7CGraphicObjectInstance@@6B@
  00034	c7 45 fc 00 00
	00 00		 mov	 DWORD PTR __$EHRec$[ebp+8], 0
; File C:\Program Files\Microsoft Visual Studio\2022\Community\VC\Tools\MSVC\14.34.31933\include\vector

; 390  :     _CONSTEXPR20 _Vector_val() noexcept : _Myfirst(), _Mylast(), _Myend() {}

  0003b	c7 86 ac 01 00
	00 00 00 00 00	 mov	 DWORD PTR [esi+428], 0
  00045	c7 86 b0 01 00
	00 00 00 00 00	 mov	 DWORD PTR [esi+432], 0
  0004f	c7 86 b4 01 00
	00 00 00 00 00	 mov	 DWORD PTR [esi+436], 0
; File C:\Users\flourine\Desktop\Xantios\client-src\Code\EterLib\GrpObjectInstance.cpp

; 272  : 	Initialize();

  00059	8b ce		 mov	 ecx, esi
  0005b	c6 45 fc 01	 mov	 BYTE PTR __$EHRec$[ebp+8], 1
  0005f	c7 86 68 01 00
	00 00 00 00 00	 mov	 DWORD PTR [esi+360], 0
  00069	e8 00 00 00 00	 call	 ?Initialize@CGraphicObjectInstance@@QAEXXZ ; CGraphicObjectInstance::Initialize

; 273  : }

  0006e	8b c6		 mov	 eax, esi
  00070	8b 4d f4	 mov	 ecx, DWORD PTR __$EHRec$[ebp]
  00073	64 89 0d 00 00
	00 00		 mov	 DWORD PTR fs:0, ecx
  0007a	59		 pop	 ecx
  0007b	5e		 pop	 esi
  0007c	8b e5		 mov	 esp, ebp
  0007e	5d		 pop	 ebp
  0007f	c3		 ret	 0
_TEXT	ENDS
;	COMDAT text$x
text$x	SEGMENT
__unwindfunclet$??0CGraphicObjectInstance@@QAE@XZ$0:
  00000	8b 4d f0	 mov	 ecx, DWORD PTR _this$[ebp]
  00003	e9 00 00 00 00	 jmp	 ??1CGraphicCollisionObject@@UAE@XZ ; CGraphicCollisionObject::~CGraphicCollisionObject
__unwindfunclet$??0CGraphicObjectInstance@@QAE@XZ$1:
  00008	8b 4d f0	 mov	 ecx, DWORD PTR _this$[ebp]
  0000b	81 c1 ac 01 00
	00		 add	 ecx, 428		; 000001acH
  00011	e9 00 00 00 00	 jmp	 ??1?$vector@PAVCBaseCollisionInstance@@V?$allocator@PAVCBaseCollisionInstance@@@std@@@std@@QAE@XZ ; std::vector<CBaseCollisionInstance *,std::allocator<CBaseCollisionInstance *> >::~vector<CBaseCollisionInstance *,std::allocator<CBaseCollisionInstance *> >
  00016	cc		 int	 3
  00017	cc		 int	 3
  00018	cc		 int	 3
  00019	cc		 int	 3
  0001a	cc		 int	 3
__ehhandler$??0CGraphicObjectInstance@@QAE@XZ:
  0001b	90		 npad	 1
  0001c	90		 npad	 1
  0001d	8b 54 24 08	 mov	 edx, DWORD PTR [esp+8]
  00021	8d 42 0c	 lea	 eax, DWORD PTR [edx+12]
  00024	8b 4a f4	 mov	 ecx, DWORD PTR [edx-12]
  00027	33 c8		 xor	 ecx, eax
  00029	e8 00 00 00 00	 call	 @__security_check_cookie@4
  0002e	b8 00 00 00 00	 mov	 eax, OFFSET __ehfuncinfo$??0CGraphicObjectInstance@@QAE@XZ
  00033	e9 00 00 00 00	 jmp	 ___CxxFrameHandler3
text$x	ENDS
??0CGraphicObjectInstance@@QAE@XZ ENDP			; CGraphicObjectInstance::CGraphicObjectInstance
; Function compile flags: /Ogtp
; File C:\Users\flourine\Desktop\Xantios\client-src\Code\SphereLib\spherepack.h
;	COMDAT ?Unlink@SpherePack@@QAEXXZ
_TEXT	SEGMENT
?Unlink@SpherePack@@QAEXXZ PROC				; SpherePack::Unlink, COMDAT
; _this$ = ecx

; 147  : 	{

  00000	56		 push	 esi
  00001	8b f1		 mov	 esi, ecx

; 148  : 		if ( mFifo1 ) // if we belong to fifo1, null us out

  00003	8b 46 30	 mov	 eax, DWORD PTR [esi+48]
  00006	85 c0		 test	 eax, eax
  00008	74 0d		 je	 SHORT $LN2@Unlink

; 149  : 		{
; 150  : 			*mFifo1 = 0;

  0000a	c7 00 00 00 00
	00		 mov	 DWORD PTR [eax], 0

; 151  : 			mFifo1 = 0;

  00010	c7 46 30 00 00
	00 00		 mov	 DWORD PTR [esi+48], 0
$LN2@Unlink:

; 152  : 		}
; 153  : 
; 154  : 		if ( mFifo2 ) // if we belong to fifo2, null us out

  00017	8b 46 34	 mov	 eax, DWORD PTR [esi+52]
  0001a	85 c0		 test	 eax, eax
  0001c	74 0d		 je	 SHORT $LN3@Unlink

; 155  : 		{
; 156  : 			*mFifo2 = 0;

  0001e	c7 00 00 00 00
	00		 mov	 DWORD PTR [eax], 0

; 157  : 			mFifo2 = 0;

  00024	c7 46 34 00 00
	00 00		 mov	 DWORD PTR [esi+52], 0
$LN3@Unlink:

; 158  : 		}
; 159  : 
; 160  : 		if ( mParent ) { mParent->LostChild(this); }

  0002b	8b 4e 20	 mov	 ecx, DWORD PTR [esi+32]
  0002e	85 c9		 test	 ecx, ecx
  00030	74 06		 je	 SHORT $LN6@Unlink
  00032	56		 push	 esi
  00033	e8 00 00 00 00	 call	 ?LostChild@SpherePack@@QAEXPAV1@@Z ; SpherePack::LostChild
$LN6@Unlink:

; 161  : 
; 162  : 		assert( !mChildren ); // can't unlink guys with children!
; 163  : 
; 164  : 		mParent = 0; // got no father anymore
; 165  : 	}

  00038	c7 46 20 00 00
	00 00		 mov	 DWORD PTR [esi+32], 0
  0003f	5e		 pop	 esi
  00040	c3		 ret	 0
?Unlink@SpherePack@@QAEXXZ ENDP				; SpherePack::Unlink
_TEXT	ENDS
; Function compile flags: /Ogtp
; File C:\Program Files\Microsoft Visual Studio\2022\Community\VC\Tools\MSVC\14.34.31933\include\xmemory
;	COMDAT ??$_Allocate_manually_vector_aligned@U_Default_allocate_traits@std@@@std@@YAPAXI@Z
_TEXT	SEGMENT
__Bytes$ = 8						; size = 4
??$_Allocate_manually_vector_aligned@U_Default_allocate_traits@std@@@std@@YAPAXI@Z PROC ; std::_Allocate_manually_vector_aligned<std::_Default_allocate_traits>, COMDAT

; 127  : __declspec(allocator) void* _Allocate_manually_vector_aligned(const size_t _Bytes) {

  00000	55		 push	 ebp
  00001	8b ec		 mov	 ebp, esp

; 128  :     // allocate _Bytes manually aligned to at least _Big_allocation_alignment
; 129  :     const size_t _Block_size = _Non_user_size + _Bytes;

  00003	8b 45 08	 mov	 eax, DWORD PTR __Bytes$[ebp]
  00006	8d 48 23	 lea	 ecx, DWORD PTR [eax+35]

; 130  :     if (_Block_size <= _Bytes) {

  00009	3b c8		 cmp	 ecx, eax
  0000b	0f 86 00 00 00
	00		 jbe	 ?_Throw_bad_array_new_length@std@@YAXXZ ; std::_Throw_bad_array_new_length

; 77   :         return ::operator new(_Bytes);

  00011	51		 push	 ecx
  00012	e8 00 00 00 00	 call	 ??2@YAPAXI@Z		; operator new

; 131  :         _Throw_bad_array_new_length(); // add overflow
; 132  :     }
; 133  : 
; 134  :     const uintptr_t _Ptr_container = reinterpret_cast<uintptr_t>(_Traits::_Allocate(_Block_size));

  00017	8b c8		 mov	 ecx, eax

; 77   :         return ::operator new(_Bytes);

  00019	83 c4 04	 add	 esp, 4

; 135  :     _STL_VERIFY(_Ptr_container != 0, "invalid argument"); // validate even in release since we're doing p[-1]

  0001c	85 c9		 test	 ecx, ecx
  0001e	74 0b		 je	 SHORT $LN7@Allocate_m

; 136  :     void* const _Ptr = reinterpret_cast<void*>((_Ptr_container + _Non_user_size) & ~(_Big_allocation_alignment - 1));

  00020	8d 41 23	 lea	 eax, DWORD PTR [ecx+35]
  00023	83 e0 e0	 and	 eax, -32		; ffffffe0H

; 137  :     static_cast<uintptr_t*>(_Ptr)[-1] = _Ptr_container;

  00026	89 48 fc	 mov	 DWORD PTR [eax-4], ecx

; 138  : 
; 139  : #ifdef _DEBUG
; 140  :     static_cast<uintptr_t*>(_Ptr)[-2] = _Big_allocation_sentinel;
; 141  : #endif // _DEBUG
; 142  :     return _Ptr;
; 143  : }

  00029	5d		 pop	 ebp
  0002a	c3		 ret	 0
$LN7@Allocate_m:

; 135  :     _STL_VERIFY(_Ptr_container != 0, "invalid argument"); // validate even in release since we're doing p[-1]

  0002b	e9 00 00 00 00	 jmp	 __invalid_parameter_noinfo_noreturn
??$_Allocate_manually_vector_aligned@U_Default_allocate_traits@std@@@std@@YAPAXI@Z ENDP ; std::_Allocate_manually_vector_aligned<std::_Default_allocate_traits>
_TEXT	ENDS
; Function compile flags: /Ogtp
; File C:\Users\flourine\Desktop\Xantios\client-src\extern\include\directX\d3dx9math.h
;	COMDAT ??0D3DXVECTOR4@@QAE@XZ
_TEXT	SEGMENT
??0D3DXVECTOR4@@QAE@XZ PROC				; D3DXVECTOR4::D3DXVECTOR4, COMDAT
; _this$ = ecx

; 240  :     D3DXVECTOR4() {};

  00000	8b c1		 mov	 eax, ecx
  00002	c3		 ret	 0
??0D3DXVECTOR4@@QAE@XZ ENDP				; D3DXVECTOR4::D3DXVECTOR4
_TEXT	ENDS
; Function compile flags: /Ogtp
; File C:\Users\flourine\Desktop\Xantios\client-src\extern\include\directX\d3dx9math.h
;	COMDAT ??0D3DXVECTOR3@@QAE@XZ
_TEXT	SEGMENT
??0D3DXVECTOR3@@QAE@XZ PROC				; D3DXVECTOR3::D3DXVECTOR3, COMDAT
; _this$ = ecx

; 165  :     D3DXVECTOR3() {};

  00000	8b c1		 mov	 eax, ecx
  00002	c3		 ret	 0
??0D3DXVECTOR3@@QAE@XZ ENDP				; D3DXVECTOR3::D3DXVECTOR3
_TEXT	ENDS
; Function compile flags: /Ogtp
; File C:\Program Files\Microsoft Visual Studio\2022\Community\VC\Tools\MSVC\14.34.31933\include\exception
;	COMDAT ?_Throw_bad_array_new_length@std@@YAXXZ
_TEXT	SEGMENT
$T1 = -12						; size = 12
?_Throw_bad_array_new_length@std@@YAXXZ PROC		; std::_Throw_bad_array_new_length, COMDAT

; 323  : [[noreturn]] inline void _Throw_bad_array_new_length() {

  00000	55		 push	 ebp
  00001	8b ec		 mov	 ebp, esp
  00003	83 ec 0c	 sub	 esp, 12			; 0000000cH

; 324  :     _THROW(bad_array_new_length{});

  00006	8d 4d f4	 lea	 ecx, DWORD PTR $T1[ebp]
  00009	e8 00 00 00 00	 call	 ??0bad_array_new_length@std@@QAE@XZ ; std::bad_array_new_length::bad_array_new_length
  0000e	68 00 00 00 00	 push	 OFFSET __TI3?AVbad_array_new_length@std@@
  00013	8d 45 f4	 lea	 eax, DWORD PTR $T1[ebp]
  00016	50		 push	 eax
  00017	e8 00 00 00 00	 call	 __CxxThrowException@8
$LN3@Throw_bad_:
  0001c	cc		 int	 3
?_Throw_bad_array_new_length@std@@YAXXZ ENDP		; std::_Throw_bad_array_new_length
_TEXT	ENDS
; Function compile flags: /Ogtp
; File C:\Program Files\Microsoft Visual Studio\2022\Community\VC\Tools\MSVC\14.34.31933\include\vcruntime_exception.h
;	COMDAT ??_Gbad_array_new_length@std@@UAEPAXI@Z
_TEXT	SEGMENT
___flags$ = 8						; size = 4
??_Gbad_array_new_length@std@@UAEPAXI@Z PROC		; std::bad_array_new_length::`scalar deleting destructor', COMDAT
; _this$ = ecx
  00000	55		 push	 ebp
  00001	8b ec		 mov	 ebp, esp

; 89   :     {

  00003	56		 push	 esi
  00004	8b f1		 mov	 esi, ecx

; 90   :         __std_exception_destroy(&_Data);

  00006	8d 46 04	 lea	 eax, DWORD PTR [esi+4]
  00009	c7 06 00 00 00
	00		 mov	 DWORD PTR [esi], OFFSET ??_7exception@std@@6B@
  0000f	50		 push	 eax
  00010	e8 00 00 00 00	 call	 ___std_exception_destroy
  00015	83 c4 04	 add	 esp, 4
  00018	f6 45 08 01	 test	 BYTE PTR ___flags$[ebp], 1
  0001c	74 0b		 je	 SHORT $LN12@scalar
  0001e	6a 0c		 push	 12			; 0000000cH
  00020	56		 push	 esi
  00021	e8 00 00 00 00	 call	 ??3@YAXPAXI@Z		; operator delete
  00026	83 c4 08	 add	 esp, 8
$LN12@scalar:
  00029	8b c6		 mov	 eax, esi
  0002b	5e		 pop	 esi
  0002c	5d		 pop	 ebp
  0002d	c2 04 00	 ret	 4
??_Gbad_array_new_length@std@@UAEPAXI@Z ENDP		; std::bad_array_new_length::`scalar deleting destructor'
_TEXT	ENDS
; Function compile flags: /Ogtp
; File C:\Program Files\Microsoft Visual Studio\2022\Community\VC\Tools\MSVC\14.34.31933\include\vcruntime_exception.h
;	COMDAT ??0bad_array_new_length@std@@QAE@ABV01@@Z
_TEXT	SEGMENT
___that$ = 8						; size = 4
??0bad_array_new_length@std@@QAE@ABV01@@Z PROC		; std::bad_array_new_length::bad_array_new_length, COMDAT
; _this$ = ecx
  00000	55		 push	 ebp
  00001	8b ec		 mov	 ebp, esp

; 72   :     {

  00003	56		 push	 esi
  00004	8b f1		 mov	 esi, ecx
  00006	0f 57 c0	 xorps	 xmm0, xmm0

; 71   :         : _Data()

  00009	8d 46 04	 lea	 eax, DWORD PTR [esi+4]

; 73   :         __std_exception_copy(&_Other._Data, &_Data);

  0000c	50		 push	 eax
  0000d	c7 06 00 00 00
	00		 mov	 DWORD PTR [esi], OFFSET ??_7exception@std@@6B@
  00013	66 0f d6 00	 movq	 QWORD PTR [eax], xmm0
  00017	8b 45 08	 mov	 eax, DWORD PTR ___that$[ebp]
  0001a	83 c0 04	 add	 eax, 4
  0001d	50		 push	 eax
  0001e	e8 00 00 00 00	 call	 ___std_exception_copy
  00023	83 c4 08	 add	 esp, 8
  00026	c7 06 00 00 00
	00		 mov	 DWORD PTR [esi], OFFSET ??_7bad_array_new_length@std@@6B@
  0002c	8b c6		 mov	 eax, esi
  0002e	5e		 pop	 esi
  0002f	5d		 pop	 ebp
  00030	c2 04 00	 ret	 4
??0bad_array_new_length@std@@QAE@ABV01@@Z ENDP		; std::bad_array_new_length::bad_array_new_length
_TEXT	ENDS
; Function compile flags: /Ogtp
; File C:\Program Files\Microsoft Visual Studio\2022\Community\VC\Tools\MSVC\14.34.31933\include\vcruntime_exception.h
;	COMDAT ??1bad_array_new_length@std@@UAE@XZ
_TEXT	SEGMENT
??1bad_array_new_length@std@@UAE@XZ PROC		; std::bad_array_new_length::~bad_array_new_length, COMDAT
; _this$ = ecx

; 90   :         __std_exception_destroy(&_Data);

  00000	8d 41 04	 lea	 eax, DWORD PTR [ecx+4]
  00003	c7 01 00 00 00
	00		 mov	 DWORD PTR [ecx], OFFSET ??_7exception@std@@6B@
  00009	50		 push	 eax
  0000a	e8 00 00 00 00	 call	 ___std_exception_destroy
  0000f	59		 pop	 ecx
  00010	c3		 ret	 0
??1bad_array_new_length@std@@UAE@XZ ENDP		; std::bad_array_new_length::~bad_array_new_length
_TEXT	ENDS
; Function compile flags: /Ogtp
; File C:\Program Files\Microsoft Visual Studio\2022\Community\VC\Tools\MSVC\14.34.31933\include\vcruntime_exception.h
;	COMDAT ??0bad_array_new_length@std@@QAE@XZ
_TEXT	SEGMENT
??0bad_array_new_length@std@@QAE@XZ PROC		; std::bad_array_new_length::bad_array_new_length, COMDAT
; _this$ = ecx

; 141  :     {

  00000	0f 57 c0	 xorps	 xmm0, xmm0

; 142  :     }

  00003	8b c1		 mov	 eax, ecx

; 65   :         : _Data()

  00005	66 0f d6 41 04	 movq	 QWORD PTR [ecx+4], xmm0

; 66   :     {
; 67   :         _Data._What = _Message;

  0000a	c7 41 04 00 00
	00 00		 mov	 DWORD PTR [ecx+4], OFFSET ??_C@_0BF@KINCDENJ@bad?5array?5new?5length@

; 141  :     {

  00011	c7 01 00 00 00
	00		 mov	 DWORD PTR [ecx], OFFSET ??_7bad_array_new_length@std@@6B@

; 142  :     }

  00017	c3		 ret	 0
??0bad_array_new_length@std@@QAE@XZ ENDP		; std::bad_array_new_length::bad_array_new_length
_TEXT	ENDS
; Function compile flags: /Ogtp
; File C:\Program Files\Microsoft Visual Studio\2022\Community\VC\Tools\MSVC\14.34.31933\include\vcruntime_exception.h
;	COMDAT ??_Gbad_alloc@std@@UAEPAXI@Z
_TEXT	SEGMENT
___flags$ = 8						; size = 4
??_Gbad_alloc@std@@UAEPAXI@Z PROC			; std::bad_alloc::`scalar deleting destructor', COMDAT
; _this$ = ecx
  00000	55		 push	 ebp
  00001	8b ec		 mov	 ebp, esp

; 89   :     {

  00003	56		 push	 esi
  00004	8b f1		 mov	 esi, ecx

; 90   :         __std_exception_destroy(&_Data);

  00006	8d 46 04	 lea	 eax, DWORD PTR [esi+4]
  00009	c7 06 00 00 00
	00		 mov	 DWORD PTR [esi], OFFSET ??_7exception@std@@6B@
  0000f	50		 push	 eax
  00010	e8 00 00 00 00	 call	 ___std_exception_destroy
  00015	83 c4 04	 add	 esp, 4
  00018	f6 45 08 01	 test	 BYTE PTR ___flags$[ebp], 1
  0001c	74 0b		 je	 SHORT $LN9@scalar
  0001e	6a 0c		 push	 12			; 0000000cH
  00020	56		 push	 esi
  00021	e8 00 00 00 00	 call	 ??3@YAXPAXI@Z		; operator delete
  00026	83 c4 08	 add	 esp, 8
$LN9@scalar:
  00029	8b c6		 mov	 eax, esi
  0002b	5e		 pop	 esi
  0002c	5d		 pop	 ebp
  0002d	c2 04 00	 ret	 4
??_Gbad_alloc@std@@UAEPAXI@Z ENDP			; std::bad_alloc::`scalar deleting destructor'
_TEXT	ENDS
; Function compile flags: /Ogtp
; File C:\Program Files\Microsoft Visual Studio\2022\Community\VC\Tools\MSVC\14.34.31933\include\vcruntime_exception.h
;	COMDAT ??0bad_alloc@std@@QAE@ABV01@@Z
_TEXT	SEGMENT
___that$ = 8						; size = 4
??0bad_alloc@std@@QAE@ABV01@@Z PROC			; std::bad_alloc::bad_alloc, COMDAT
; _this$ = ecx
  00000	55		 push	 ebp
  00001	8b ec		 mov	 ebp, esp

; 72   :     {

  00003	56		 push	 esi
  00004	8b f1		 mov	 esi, ecx
  00006	0f 57 c0	 xorps	 xmm0, xmm0

; 71   :         : _Data()

  00009	8d 46 04	 lea	 eax, DWORD PTR [esi+4]

; 73   :         __std_exception_copy(&_Other._Data, &_Data);

  0000c	50		 push	 eax
  0000d	c7 06 00 00 00
	00		 mov	 DWORD PTR [esi], OFFSET ??_7exception@std@@6B@
  00013	66 0f d6 00	 movq	 QWORD PTR [eax], xmm0
  00017	8b 45 08	 mov	 eax, DWORD PTR ___that$[ebp]
  0001a	83 c0 04	 add	 eax, 4
  0001d	50		 push	 eax
  0001e	e8 00 00 00 00	 call	 ___std_exception_copy
  00023	83 c4 08	 add	 esp, 8
  00026	c7 06 00 00 00
	00		 mov	 DWORD PTR [esi], OFFSET ??_7bad_alloc@std@@6B@
  0002c	8b c6		 mov	 eax, esi
  0002e	5e		 pop	 esi
  0002f	5d		 pop	 ebp
  00030	c2 04 00	 ret	 4
??0bad_alloc@std@@QAE@ABV01@@Z ENDP			; std::bad_alloc::bad_alloc
_TEXT	ENDS
; Function compile flags: /Ogtp
; File C:\Program Files\Microsoft Visual Studio\2022\Community\VC\Tools\MSVC\14.34.31933\include\vcruntime_exception.h
;	COMDAT ??_Gexception@std@@UAEPAXI@Z
_TEXT	SEGMENT
___flags$ = 8						; size = 4
??_Gexception@std@@UAEPAXI@Z PROC			; std::exception::`scalar deleting destructor', COMDAT
; _this$ = ecx
  00000	55		 push	 ebp
  00001	8b ec		 mov	 ebp, esp

; 89   :     {

  00003	56		 push	 esi
  00004	8b f1		 mov	 esi, ecx

; 90   :         __std_exception_destroy(&_Data);

  00006	8d 46 04	 lea	 eax, DWORD PTR [esi+4]
  00009	c7 06 00 00 00
	00		 mov	 DWORD PTR [esi], OFFSET ??_7exception@std@@6B@
  0000f	50		 push	 eax
  00010	e8 00 00 00 00	 call	 ___std_exception_destroy
  00015	83 c4 04	 add	 esp, 4
  00018	f6 45 08 01	 test	 BYTE PTR ___flags$[ebp], 1
  0001c	74 0b		 je	 SHORT $LN6@scalar
  0001e	6a 0c		 push	 12			; 0000000cH
  00020	56		 push	 esi
  00021	e8 00 00 00 00	 call	 ??3@YAXPAXI@Z		; operator delete
  00026	83 c4 08	 add	 esp, 8
$LN6@scalar:
  00029	8b c6		 mov	 eax, esi
  0002b	5e		 pop	 esi
  0002c	5d		 pop	 ebp
  0002d	c2 04 00	 ret	 4
??_Gexception@std@@UAEPAXI@Z ENDP			; std::exception::`scalar deleting destructor'
_TEXT	ENDS
; Function compile flags: /Ogtp
; File C:\Program Files\Microsoft Visual Studio\2022\Community\VC\Tools\MSVC\14.34.31933\include\vcruntime_exception.h
;	COMDAT ?what@exception@std@@UBEPBDXZ
_TEXT	SEGMENT
?what@exception@std@@UBEPBDXZ PROC			; std::exception::what, COMDAT
; _this$ = ecx

; 95   :         return _Data._What ? _Data._What : "Unknown exception";

  00000	8b 49 04	 mov	 ecx, DWORD PTR [ecx+4]
  00003	b8 00 00 00 00	 mov	 eax, OFFSET ??_C@_0BC@EOODALEL@Unknown?5exception@
  00008	85 c9		 test	 ecx, ecx
  0000a	0f 45 c1	 cmovne	 eax, ecx

; 96   :     }

  0000d	c3		 ret	 0
?what@exception@std@@UBEPBDXZ ENDP			; std::exception::what
_TEXT	ENDS
; Function compile flags: /Ogtp
; File C:\Program Files\Microsoft Visual Studio\2022\Community\VC\Tools\MSVC\14.34.31933\include\vcruntime_exception.h
;	COMDAT ??1exception@std@@UAE@XZ
_TEXT	SEGMENT
??1exception@std@@UAE@XZ PROC				; std::exception::~exception, COMDAT
; _this$ = ecx

; 90   :         __std_exception_destroy(&_Data);

  00000	8d 41 04	 lea	 eax, DWORD PTR [ecx+4]
  00003	c7 01 00 00 00
	00		 mov	 DWORD PTR [ecx], OFFSET ??_7exception@std@@6B@
  00009	50		 push	 eax
  0000a	e8 00 00 00 00	 call	 ___std_exception_destroy
  0000f	59		 pop	 ecx

; 91   :     }

  00010	c3		 ret	 0
??1exception@std@@UAE@XZ ENDP				; std::exception::~exception
_TEXT	ENDS
; Function compile flags: /Ogtp
; File C:\Program Files\Microsoft Visual Studio\2022\Community\VC\Tools\MSVC\14.34.31933\include\vcruntime_exception.h
;	COMDAT ??0exception@std@@QAE@ABV01@@Z
_TEXT	SEGMENT
__Other$ = 8						; size = 4
??0exception@std@@QAE@ABV01@@Z PROC			; std::exception::exception, COMDAT
; _this$ = ecx

; 72   :     {

  00000	55		 push	 ebp
  00001	8b ec		 mov	 ebp, esp
  00003	56		 push	 esi
  00004	8b f1		 mov	 esi, ecx
  00006	0f 57 c0	 xorps	 xmm0, xmm0
  00009	8d 46 04	 lea	 eax, DWORD PTR [esi+4]

; 73   :         __std_exception_copy(&_Other._Data, &_Data);

  0000c	50		 push	 eax
  0000d	c7 06 00 00 00
	00		 mov	 DWORD PTR [esi], OFFSET ??_7exception@std@@6B@
  00013	66 0f d6 00	 movq	 QWORD PTR [eax], xmm0
  00017	8b 45 08	 mov	 eax, DWORD PTR __Other$[ebp]
  0001a	83 c0 04	 add	 eax, 4
  0001d	50		 push	 eax
  0001e	e8 00 00 00 00	 call	 ___std_exception_copy
  00023	83 c4 08	 add	 esp, 8

; 74   :     }

  00026	8b c6		 mov	 eax, esi
  00028	5e		 pop	 esi
  00029	5d		 pop	 ebp
  0002a	c2 04 00	 ret	 4
??0exception@std@@QAE@ABV01@@Z ENDP			; std::exception::exception
_TEXT	ENDS
; Function compile flags: /Ogtp
;	COMDAT ??_H@YGXPAXIIP6EPAX0@Z@Z
_TEXT	SEGMENT
___t$ = 8						; size = 4
___s$ = 12						; size = 4
___n$ = 16						; size = 4
___f$ = 20						; size = 4
??_H@YGXPAXIIP6EPAX0@Z@Z PROC				; `vector constructor iterator', COMDAT
  00000	55		 push	 ebp
  00001	8b ec		 mov	 ebp, esp
  00003	56		 push	 esi
  00004	8b 75 10	 mov	 esi, DWORD PTR ___n$[ebp]
  00007	85 f6		 test	 esi, esi
  00009	74 16		 je	 SHORT $LN6@vector
  0000b	53		 push	 ebx
  0000c	8b 5d 14	 mov	 ebx, DWORD PTR ___f$[ebp]
  0000f	57		 push	 edi
  00010	8b 7d 08	 mov	 edi, DWORD PTR ___t$[ebp]
$LL2@vector:
  00013	8b cf		 mov	 ecx, edi
  00015	ff d3		 call	 ebx
  00017	03 7d 0c	 add	 edi, DWORD PTR ___s$[ebp]
  0001a	83 ee 01	 sub	 esi, 1
  0001d	75 f4		 jne	 SHORT $LL2@vector
  0001f	5f		 pop	 edi
  00020	5b		 pop	 ebx
$LN6@vector:
  00021	5e		 pop	 esi
  00022	5d		 pop	 ebp
  00023	c2 10 00	 ret	 16			; 00000010H
??_H@YGXPAXIIP6EPAX0@Z@Z ENDP				; `vector constructor iterator'
_TEXT	ENDS
END
