; Listing generated by Microsoft (R) Optimizing Compiler Version 19.34.31942.0 

	TITLE	C:\Users\flourine\Desktop\Xantios\client-src\Code\EterLib\Distribute\GrpRenderTarget.obj
	.686P
	.XMM
	include listing.inc
	.model	flat

INCLUDELIB LIBCMT
INCLUDELIB OLDNAMES

PUBLIC	??_7?$CDynamicPoolEx@VCTextureAnimationRandomDecorator@NEffectUpdateDecorator@@@@6B@ ; CDynamicPoolEx<NEffectUpdateDecorator::CTextureAnimationRandomDecorator>::`vftable'
PUBLIC	??_G?$CDynamicPoolEx@VCTextureAnimationRandomDecorator@NEffectUpdateDecorator@@@@UAEPAXI@Z ; CDynamicPoolEx<NEffectUpdateDecorator::CTextureAnimationRandomDecorator>::`scalar deleting destructor'
PUBLIC	??_7?$CDynamicPoolEx@VCTextureAnimationCCWDecorator@NEffectUpdateDecorator@@@@6B@ ; CDynamicPoolEx<NEffectUpdateDecorator::CTextureAnimationCCWDecorator>::`vftable'
PUBLIC	??_G?$CDynamicPoolEx@VCTextureAnimationCCWDecorator@NEffectUpdateDecorator@@@@UAEPAXI@Z ; CDynamicPoolEx<NEffectUpdateDecorator::CTextureAnimationCCWDecorator>::`scalar deleting destructor'
PUBLIC	??_7?$CDynamicPoolEx@VCTextureAnimationCWDecorator@NEffectUpdateDecorator@@@@6B@ ; CDynamicPoolEx<NEffectUpdateDecorator::CTextureAnimationCWDecorator>::`vftable'
PUBLIC	??_G?$CDynamicPoolEx@VCTextureAnimationCWDecorator@NEffectUpdateDecorator@@@@UAEPAXI@Z ; CDynamicPoolEx<NEffectUpdateDecorator::CTextureAnimationCWDecorator>::`scalar deleting destructor'
PUBLIC	??_7?$CDynamicPoolEx@VCNullDecorator@NEffectUpdateDecorator@@@@6B@ ; CDynamicPoolEx<NEffectUpdateDecorator::CNullDecorator>::`vftable'
PUBLIC	??_G?$CDynamicPoolEx@VCNullDecorator@NEffectUpdateDecorator@@@@UAEPAXI@Z ; CDynamicPoolEx<NEffectUpdateDecorator::CNullDecorator>::`scalar deleting destructor'
PUBLIC	??_7?$CDynamicPoolEx@VCHeaderDecorator@NEffectUpdateDecorator@@@@6B@ ; CDynamicPoolEx<NEffectUpdateDecorator::CHeaderDecorator>::`vftable'
PUBLIC	??_G?$CDynamicPoolEx@VCHeaderDecorator@NEffectUpdateDecorator@@@@UAEPAXI@Z ; CDynamicPoolEx<NEffectUpdateDecorator::CHeaderDecorator>::`scalar deleting destructor'
PUBLIC	?_Fake_alloc@std@@3U_Fake_allocator@1@B		; std::_Fake_alloc
PUBLIC	??_R4?$CDynamicPoolEx@VCHeaderDecorator@NEffectUpdateDecorator@@@@6B@ ; CDynamicPoolEx<NEffectUpdateDecorator::CHeaderDecorator>::`RTTI Complete Object Locator'
PUBLIC	??_R0?AV?$CDynamicPoolEx@VCHeaderDecorator@NEffectUpdateDecorator@@@@@8 ; CDynamicPoolEx<NEffectUpdateDecorator::CHeaderDecorator> `RTTI Type Descriptor'
PUBLIC	??_R3?$CDynamicPoolEx@VCHeaderDecorator@NEffectUpdateDecorator@@@@8 ; CDynamicPoolEx<NEffectUpdateDecorator::CHeaderDecorator>::`RTTI Class Hierarchy Descriptor'
PUBLIC	??_R2?$CDynamicPoolEx@VCHeaderDecorator@NEffectUpdateDecorator@@@@8 ; CDynamicPoolEx<NEffectUpdateDecorator::CHeaderDecorator>::`RTTI Base Class Array'
PUBLIC	??_R1A@?0A@EA@?$CDynamicPoolEx@VCHeaderDecorator@NEffectUpdateDecorator@@@@8 ; CDynamicPoolEx<NEffectUpdateDecorator::CHeaderDecorator>::`RTTI Base Class Descriptor at (0,-1,0,64)'
PUBLIC	??_R4?$CDynamicPoolEx@VCNullDecorator@NEffectUpdateDecorator@@@@6B@ ; CDynamicPoolEx<NEffectUpdateDecorator::CNullDecorator>::`RTTI Complete Object Locator'
PUBLIC	??_R0?AV?$CDynamicPoolEx@VCNullDecorator@NEffectUpdateDecorator@@@@@8 ; CDynamicPoolEx<NEffectUpdateDecorator::CNullDecorator> `RTTI Type Descriptor'
PUBLIC	??_R3?$CDynamicPoolEx@VCNullDecorator@NEffectUpdateDecorator@@@@8 ; CDynamicPoolEx<NEffectUpdateDecorator::CNullDecorator>::`RTTI Class Hierarchy Descriptor'
PUBLIC	??_R2?$CDynamicPoolEx@VCNullDecorator@NEffectUpdateDecorator@@@@8 ; CDynamicPoolEx<NEffectUpdateDecorator::CNullDecorator>::`RTTI Base Class Array'
PUBLIC	??_R1A@?0A@EA@?$CDynamicPoolEx@VCNullDecorator@NEffectUpdateDecorator@@@@8 ; CDynamicPoolEx<NEffectUpdateDecorator::CNullDecorator>::`RTTI Base Class Descriptor at (0,-1,0,64)'
PUBLIC	??_R4?$CDynamicPoolEx@VCTextureAnimationCWDecorator@NEffectUpdateDecorator@@@@6B@ ; CDynamicPoolEx<NEffectUpdateDecorator::CTextureAnimationCWDecorator>::`RTTI Complete Object Locator'
PUBLIC	??_R0?AV?$CDynamicPoolEx@VCTextureAnimationCWDecorator@NEffectUpdateDecorator@@@@@8 ; CDynamicPoolEx<NEffectUpdateDecorator::CTextureAnimationCWDecorator> `RTTI Type Descriptor'
PUBLIC	??_R3?$CDynamicPoolEx@VCTextureAnimationCWDecorator@NEffectUpdateDecorator@@@@8 ; CDynamicPoolEx<NEffectUpdateDecorator::CTextureAnimationCWDecorator>::`RTTI Class Hierarchy Descriptor'
PUBLIC	??_R2?$CDynamicPoolEx@VCTextureAnimationCWDecorator@NEffectUpdateDecorator@@@@8 ; CDynamicPoolEx<NEffectUpdateDecorator::CTextureAnimationCWDecorator>::`RTTI Base Class Array'
PUBLIC	??_R1A@?0A@EA@?$CDynamicPoolEx@VCTextureAnimationCWDecorator@NEffectUpdateDecorator@@@@8 ; CDynamicPoolEx<NEffectUpdateDecorator::CTextureAnimationCWDecorator>::`RTTI Base Class Descriptor at (0,-1,0,64)'
PUBLIC	??_R4?$CDynamicPoolEx@VCTextureAnimationCCWDecorator@NEffectUpdateDecorator@@@@6B@ ; CDynamicPoolEx<NEffectUpdateDecorator::CTextureAnimationCCWDecorator>::`RTTI Complete Object Locator'
PUBLIC	??_R0?AV?$CDynamicPoolEx@VCTextureAnimationCCWDecorator@NEffectUpdateDecorator@@@@@8 ; CDynamicPoolEx<NEffectUpdateDecorator::CTextureAnimationCCWDecorator> `RTTI Type Descriptor'
PUBLIC	??_R3?$CDynamicPoolEx@VCTextureAnimationCCWDecorator@NEffectUpdateDecorator@@@@8 ; CDynamicPoolEx<NEffectUpdateDecorator::CTextureAnimationCCWDecorator>::`RTTI Class Hierarchy Descriptor'
PUBLIC	??_R2?$CDynamicPoolEx@VCTextureAnimationCCWDecorator@NEffectUpdateDecorator@@@@8 ; CDynamicPoolEx<NEffectUpdateDecorator::CTextureAnimationCCWDecorator>::`RTTI Base Class Array'
PUBLIC	??_R1A@?0A@EA@?$CDynamicPoolEx@VCTextureAnimationCCWDecorator@NEffectUpdateDecorator@@@@8 ; CDynamicPoolEx<NEffectUpdateDecorator::CTextureAnimationCCWDecorator>::`RTTI Base Class Descriptor at (0,-1,0,64)'
PUBLIC	??_R4?$CDynamicPoolEx@VCTextureAnimationRandomDecorator@NEffectUpdateDecorator@@@@6B@ ; CDynamicPoolEx<NEffectUpdateDecorator::CTextureAnimationRandomDecorator>::`RTTI Complete Object Locator'
PUBLIC	??_R0?AV?$CDynamicPoolEx@VCTextureAnimationRandomDecorator@NEffectUpdateDecorator@@@@@8 ; CDynamicPoolEx<NEffectUpdateDecorator::CTextureAnimationRandomDecorator> `RTTI Type Descriptor'
PUBLIC	??_R3?$CDynamicPoolEx@VCTextureAnimationRandomDecorator@NEffectUpdateDecorator@@@@8 ; CDynamicPoolEx<NEffectUpdateDecorator::CTextureAnimationRandomDecorator>::`RTTI Class Hierarchy Descriptor'
PUBLIC	??_R2?$CDynamicPoolEx@VCTextureAnimationRandomDecorator@NEffectUpdateDecorator@@@@8 ; CDynamicPoolEx<NEffectUpdateDecorator::CTextureAnimationRandomDecorator>::`RTTI Base Class Array'
PUBLIC	??_R1A@?0A@EA@?$CDynamicPoolEx@VCTextureAnimationRandomDecorator@NEffectUpdateDecorator@@@@8 ; CDynamicPoolEx<NEffectUpdateDecorator::CTextureAnimationRandomDecorator>::`RTTI Base Class Descriptor at (0,-1,0,64)'
PUBLIC	??_R4?$CDynamicPoolEx@VCAirResistanceDecorator@NEffectUpdateDecorator@@@@6B@ ; CDynamicPoolEx<NEffectUpdateDecorator::CAirResistanceDecorator>::`RTTI Complete Object Locator'
PUBLIC	??_R0?AV?$CDynamicPoolEx@VCAirResistanceDecorator@NEffectUpdateDecorator@@@@@8 ; CDynamicPoolEx<NEffectUpdateDecorator::CAirResistanceDecorator> `RTTI Type Descriptor'
PUBLIC	??_R3?$CDynamicPoolEx@VCAirResistanceDecorator@NEffectUpdateDecorator@@@@8 ; CDynamicPoolEx<NEffectUpdateDecorator::CAirResistanceDecorator>::`RTTI Class Hierarchy Descriptor'
PUBLIC	??_R2?$CDynamicPoolEx@VCAirResistanceDecorator@NEffectUpdateDecorator@@@@8 ; CDynamicPoolEx<NEffectUpdateDecorator::CAirResistanceDecorator>::`RTTI Base Class Array'
PUBLIC	??_R1A@?0A@EA@?$CDynamicPoolEx@VCAirResistanceDecorator@NEffectUpdateDecorator@@@@8 ; CDynamicPoolEx<NEffectUpdateDecorator::CAirResistanceDecorator>::`RTTI Base Class Descriptor at (0,-1,0,64)'
PUBLIC	??_R4?$CDynamicPoolEx@VCGravityDecorator@NEffectUpdateDecorator@@@@6B@ ; CDynamicPoolEx<NEffectUpdateDecorator::CGravityDecorator>::`RTTI Complete Object Locator'
PUBLIC	??_R0?AV?$CDynamicPoolEx@VCGravityDecorator@NEffectUpdateDecorator@@@@@8 ; CDynamicPoolEx<NEffectUpdateDecorator::CGravityDecorator> `RTTI Type Descriptor'
PUBLIC	??_R3?$CDynamicPoolEx@VCGravityDecorator@NEffectUpdateDecorator@@@@8 ; CDynamicPoolEx<NEffectUpdateDecorator::CGravityDecorator>::`RTTI Class Hierarchy Descriptor'
PUBLIC	??_R2?$CDynamicPoolEx@VCGravityDecorator@NEffectUpdateDecorator@@@@8 ; CDynamicPoolEx<NEffectUpdateDecorator::CGravityDecorator>::`RTTI Base Class Array'
PUBLIC	??_R1A@?0A@EA@?$CDynamicPoolEx@VCGravityDecorator@NEffectUpdateDecorator@@@@8 ; CDynamicPoolEx<NEffectUpdateDecorator::CGravityDecorator>::`RTTI Base Class Descriptor at (0,-1,0,64)'
PUBLIC	??_R4?$CDynamicPoolEx@VCRotationDecorator@NEffectUpdateDecorator@@@@6B@ ; CDynamicPoolEx<NEffectUpdateDecorator::CRotationDecorator>::`RTTI Complete Object Locator'
PUBLIC	??_R0?AV?$CDynamicPoolEx@VCRotationDecorator@NEffectUpdateDecorator@@@@@8 ; CDynamicPoolEx<NEffectUpdateDecorator::CRotationDecorator> `RTTI Type Descriptor'
PUBLIC	??_R3?$CDynamicPoolEx@VCRotationDecorator@NEffectUpdateDecorator@@@@8 ; CDynamicPoolEx<NEffectUpdateDecorator::CRotationDecorator>::`RTTI Class Hierarchy Descriptor'
PUBLIC	??_R2?$CDynamicPoolEx@VCRotationDecorator@NEffectUpdateDecorator@@@@8 ; CDynamicPoolEx<NEffectUpdateDecorator::CRotationDecorator>::`RTTI Base Class Array'
PUBLIC	??_R1A@?0A@EA@?$CDynamicPoolEx@VCRotationDecorator@NEffectUpdateDecorator@@@@8 ; CDynamicPoolEx<NEffectUpdateDecorator::CRotationDecorator>::`RTTI Base Class Descriptor at (0,-1,0,64)'
PUBLIC	??_7?$CDynamicPoolEx@VCRotationDecorator@NEffectUpdateDecorator@@@@6B@ ; CDynamicPoolEx<NEffectUpdateDecorator::CRotationDecorator>::`vftable'
PUBLIC	??_G?$CDynamicPoolEx@VCRotationDecorator@NEffectUpdateDecorator@@@@UAEPAXI@Z ; CDynamicPoolEx<NEffectUpdateDecorator::CRotationDecorator>::`scalar deleting destructor'
PUBLIC	??_7?$CDynamicPoolEx@VCGravityDecorator@NEffectUpdateDecorator@@@@6B@ ; CDynamicPoolEx<NEffectUpdateDecorator::CGravityDecorator>::`vftable'
PUBLIC	??_G?$CDynamicPoolEx@VCGravityDecorator@NEffectUpdateDecorator@@@@UAEPAXI@Z ; CDynamicPoolEx<NEffectUpdateDecorator::CGravityDecorator>::`scalar deleting destructor'
PUBLIC	??_7?$CDynamicPoolEx@VCAirResistanceDecorator@NEffectUpdateDecorator@@@@6B@ ; CDynamicPoolEx<NEffectUpdateDecorator::CAirResistanceDecorator>::`vftable'
PUBLIC	??_G?$CDynamicPoolEx@VCAirResistanceDecorator@NEffectUpdateDecorator@@@@UAEPAXI@Z ; CDynamicPoolEx<NEffectUpdateDecorator::CAirResistanceDecorator>::`scalar deleting destructor'
EXTRN	??_E?$CDynamicPoolEx@VCTextureAnimationRandomDecorator@NEffectUpdateDecorator@@@@UAEPAXI@Z:PROC ; CDynamicPoolEx<NEffectUpdateDecorator::CTextureAnimationRandomDecorator>::`vector deleting destructor'
EXTRN	??_E?$CDynamicPoolEx@VCTextureAnimationCCWDecorator@NEffectUpdateDecorator@@@@UAEPAXI@Z:PROC ; CDynamicPoolEx<NEffectUpdateDecorator::CTextureAnimationCCWDecorator>::`vector deleting destructor'
EXTRN	??_E?$CDynamicPoolEx@VCTextureAnimationCWDecorator@NEffectUpdateDecorator@@@@UAEPAXI@Z:PROC ; CDynamicPoolEx<NEffectUpdateDecorator::CTextureAnimationCWDecorator>::`vector deleting destructor'
EXTRN	??_E?$CDynamicPoolEx@VCNullDecorator@NEffectUpdateDecorator@@@@UAEPAXI@Z:PROC ; CDynamicPoolEx<NEffectUpdateDecorator::CNullDecorator>::`vector deleting destructor'
EXTRN	??_E?$CDynamicPoolEx@VCHeaderDecorator@NEffectUpdateDecorator@@@@UAEPAXI@Z:PROC ; CDynamicPoolEx<NEffectUpdateDecorator::CHeaderDecorator>::`vector deleting destructor'
EXTRN	??_E?$CDynamicPoolEx@VCRotationDecorator@NEffectUpdateDecorator@@@@UAEPAXI@Z:PROC ; CDynamicPoolEx<NEffectUpdateDecorator::CRotationDecorator>::`vector deleting destructor'
EXTRN	??_E?$CDynamicPoolEx@VCGravityDecorator@NEffectUpdateDecorator@@@@UAEPAXI@Z:PROC ; CDynamicPoolEx<NEffectUpdateDecorator::CGravityDecorator>::`vector deleting destructor'
EXTRN	??_7type_info@@6B@:QWORD			; type_info::`vftable'
EXTRN	??_E?$CDynamicPoolEx@VCAirResistanceDecorator@NEffectUpdateDecorator@@@@UAEPAXI@Z:PROC ; CDynamicPoolEx<NEffectUpdateDecorator::CAirResistanceDecorator>::`vector deleting destructor'
;	COMDAT ??_7?$CDynamicPoolEx@VCAirResistanceDecorator@NEffectUpdateDecorator@@@@6B@
CONST	SEGMENT
??_7?$CDynamicPoolEx@VCAirResistanceDecorator@NEffectUpdateDecorator@@@@6B@ DD FLAT:??_R4?$CDynamicPoolEx@VCAirResistanceDecorator@NEffectUpdateDecorator@@@@6B@ ; CDynamicPoolEx<NEffectUpdateDecorator::CAirResistanceDecorator>::`vftable'
	DD	FLAT:??_E?$CDynamicPoolEx@VCAirResistanceDecorator@NEffectUpdateDecorator@@@@UAEPAXI@Z
CONST	ENDS
;	COMDAT ??_7?$CDynamicPoolEx@VCGravityDecorator@NEffectUpdateDecorator@@@@6B@
CONST	SEGMENT
??_7?$CDynamicPoolEx@VCGravityDecorator@NEffectUpdateDecorator@@@@6B@ DD FLAT:??_R4?$CDynamicPoolEx@VCGravityDecorator@NEffectUpdateDecorator@@@@6B@ ; CDynamicPoolEx<NEffectUpdateDecorator::CGravityDecorator>::`vftable'
	DD	FLAT:??_E?$CDynamicPoolEx@VCGravityDecorator@NEffectUpdateDecorator@@@@UAEPAXI@Z
CONST	ENDS
;	COMDAT ??_7?$CDynamicPoolEx@VCRotationDecorator@NEffectUpdateDecorator@@@@6B@
CONST	SEGMENT
??_7?$CDynamicPoolEx@VCRotationDecorator@NEffectUpdateDecorator@@@@6B@ DD FLAT:??_R4?$CDynamicPoolEx@VCRotationDecorator@NEffectUpdateDecorator@@@@6B@ ; CDynamicPoolEx<NEffectUpdateDecorator::CRotationDecorator>::`vftable'
	DD	FLAT:??_E?$CDynamicPoolEx@VCRotationDecorator@NEffectUpdateDecorator@@@@UAEPAXI@Z
CONST	ENDS
;	COMDAT ??_R1A@?0A@EA@?$CDynamicPoolEx@VCRotationDecorator@NEffectUpdateDecorator@@@@8
rdata$r	SEGMENT
??_R1A@?0A@EA@?$CDynamicPoolEx@VCRotationDecorator@NEffectUpdateDecorator@@@@8 DD FLAT:??_R0?AV?$CDynamicPoolEx@VCRotationDecorator@NEffectUpdateDecorator@@@@@8 ; CDynamicPoolEx<NEffectUpdateDecorator::CRotationDecorator>::`RTTI Base Class Descriptor at (0,-1,0,64)'
	DD	00H
	DD	00H
	DD	0ffffffffH
	DD	00H
	DD	040H
	DD	FLAT:??_R3?$CDynamicPoolEx@VCRotationDecorator@NEffectUpdateDecorator@@@@8
rdata$r	ENDS
;	COMDAT ??_R2?$CDynamicPoolEx@VCRotationDecorator@NEffectUpdateDecorator@@@@8
rdata$r	SEGMENT
??_R2?$CDynamicPoolEx@VCRotationDecorator@NEffectUpdateDecorator@@@@8 DD FLAT:??_R1A@?0A@EA@?$CDynamicPoolEx@VCRotationDecorator@NEffectUpdateDecorator@@@@8 ; CDynamicPoolEx<NEffectUpdateDecorator::CRotationDecorator>::`RTTI Base Class Array'
rdata$r	ENDS
;	COMDAT ??_R3?$CDynamicPoolEx@VCRotationDecorator@NEffectUpdateDecorator@@@@8
rdata$r	SEGMENT
??_R3?$CDynamicPoolEx@VCRotationDecorator@NEffectUpdateDecorator@@@@8 DD 00H ; CDynamicPoolEx<NEffectUpdateDecorator::CRotationDecorator>::`RTTI Class Hierarchy Descriptor'
	DD	00H
	DD	01H
	DD	FLAT:??_R2?$CDynamicPoolEx@VCRotationDecorator@NEffectUpdateDecorator@@@@8
rdata$r	ENDS
;	COMDAT ??_R0?AV?$CDynamicPoolEx@VCRotationDecorator@NEffectUpdateDecorator@@@@@8
data$rs	SEGMENT
??_R0?AV?$CDynamicPoolEx@VCRotationDecorator@NEffectUpdateDecorator@@@@@8 DD FLAT:??_7type_info@@6B@ ; CDynamicPoolEx<NEffectUpdateDecorator::CRotationDecorator> `RTTI Type Descriptor'
	DD	00H
	DB	'.?AV?$CDynamicPoolEx@VCRotationDecorator@NEffectUpdateDe'
	DB	'corator@@@@', 00H
data$rs	ENDS
;	COMDAT ??_R4?$CDynamicPoolEx@VCRotationDecorator@NEffectUpdateDecorator@@@@6B@
rdata$r	SEGMENT
??_R4?$CDynamicPoolEx@VCRotationDecorator@NEffectUpdateDecorator@@@@6B@ DD 00H ; CDynamicPoolEx<NEffectUpdateDecorator::CRotationDecorator>::`RTTI Complete Object Locator'
	DD	00H
	DD	00H
	DD	FLAT:??_R0?AV?$CDynamicPoolEx@VCRotationDecorator@NEffectUpdateDecorator@@@@@8
	DD	FLAT:??_R3?$CDynamicPoolEx@VCRotationDecorator@NEffectUpdateDecorator@@@@8
rdata$r	ENDS
;	COMDAT ??_R1A@?0A@EA@?$CDynamicPoolEx@VCGravityDecorator@NEffectUpdateDecorator@@@@8
rdata$r	SEGMENT
??_R1A@?0A@EA@?$CDynamicPoolEx@VCGravityDecorator@NEffectUpdateDecorator@@@@8 DD FLAT:??_R0?AV?$CDynamicPoolEx@VCGravityDecorator@NEffectUpdateDecorator@@@@@8 ; CDynamicPoolEx<NEffectUpdateDecorator::CGravityDecorator>::`RTTI Base Class Descriptor at (0,-1,0,64)'
	DD	00H
	DD	00H
	DD	0ffffffffH
	DD	00H
	DD	040H
	DD	FLAT:??_R3?$CDynamicPoolEx@VCGravityDecorator@NEffectUpdateDecorator@@@@8
rdata$r	ENDS
;	COMDAT ??_R2?$CDynamicPoolEx@VCGravityDecorator@NEffectUpdateDecorator@@@@8
rdata$r	SEGMENT
??_R2?$CDynamicPoolEx@VCGravityDecorator@NEffectUpdateDecorator@@@@8 DD FLAT:??_R1A@?0A@EA@?$CDynamicPoolEx@VCGravityDecorator@NEffectUpdateDecorator@@@@8 ; CDynamicPoolEx<NEffectUpdateDecorator::CGravityDecorator>::`RTTI Base Class Array'
rdata$r	ENDS
;	COMDAT ??_R3?$CDynamicPoolEx@VCGravityDecorator@NEffectUpdateDecorator@@@@8
rdata$r	SEGMENT
??_R3?$CDynamicPoolEx@VCGravityDecorator@NEffectUpdateDecorator@@@@8 DD 00H ; CDynamicPoolEx<NEffectUpdateDecorator::CGravityDecorator>::`RTTI Class Hierarchy Descriptor'
	DD	00H
	DD	01H
	DD	FLAT:??_R2?$CDynamicPoolEx@VCGravityDecorator@NEffectUpdateDecorator@@@@8
rdata$r	ENDS
;	COMDAT ??_R0?AV?$CDynamicPoolEx@VCGravityDecorator@NEffectUpdateDecorator@@@@@8
data$rs	SEGMENT
??_R0?AV?$CDynamicPoolEx@VCGravityDecorator@NEffectUpdateDecorator@@@@@8 DD FLAT:??_7type_info@@6B@ ; CDynamicPoolEx<NEffectUpdateDecorator::CGravityDecorator> `RTTI Type Descriptor'
	DD	00H
	DB	'.?AV?$CDynamicPoolEx@VCGravityDecorator@NEffectUpdateDec'
	DB	'orator@@@@', 00H
data$rs	ENDS
;	COMDAT ??_R4?$CDynamicPoolEx@VCGravityDecorator@NEffectUpdateDecorator@@@@6B@
rdata$r	SEGMENT
??_R4?$CDynamicPoolEx@VCGravityDecorator@NEffectUpdateDecorator@@@@6B@ DD 00H ; CDynamicPoolEx<NEffectUpdateDecorator::CGravityDecorator>::`RTTI Complete Object Locator'
	DD	00H
	DD	00H
	DD	FLAT:??_R0?AV?$CDynamicPoolEx@VCGravityDecorator@NEffectUpdateDecorator@@@@@8
	DD	FLAT:??_R3?$CDynamicPoolEx@VCGravityDecorator@NEffectUpdateDecorator@@@@8
rdata$r	ENDS
;	COMDAT ??_R1A@?0A@EA@?$CDynamicPoolEx@VCAirResistanceDecorator@NEffectUpdateDecorator@@@@8
rdata$r	SEGMENT
??_R1A@?0A@EA@?$CDynamicPoolEx@VCAirResistanceDecorator@NEffectUpdateDecorator@@@@8 DD FLAT:??_R0?AV?$CDynamicPoolEx@VCAirResistanceDecorator@NEffectUpdateDecorator@@@@@8 ; CDynamicPoolEx<NEffectUpdateDecorator::CAirResistanceDecorator>::`RTTI Base Class Descriptor at (0,-1,0,64)'
	DD	00H
	DD	00H
	DD	0ffffffffH
	DD	00H
	DD	040H
	DD	FLAT:??_R3?$CDynamicPoolEx@VCAirResistanceDecorator@NEffectUpdateDecorator@@@@8
rdata$r	ENDS
;	COMDAT ??_R2?$CDynamicPoolEx@VCAirResistanceDecorator@NEffectUpdateDecorator@@@@8
rdata$r	SEGMENT
??_R2?$CDynamicPoolEx@VCAirResistanceDecorator@NEffectUpdateDecorator@@@@8 DD FLAT:??_R1A@?0A@EA@?$CDynamicPoolEx@VCAirResistanceDecorator@NEffectUpdateDecorator@@@@8 ; CDynamicPoolEx<NEffectUpdateDecorator::CAirResistanceDecorator>::`RTTI Base Class Array'
rdata$r	ENDS
;	COMDAT ??_R3?$CDynamicPoolEx@VCAirResistanceDecorator@NEffectUpdateDecorator@@@@8
rdata$r	SEGMENT
??_R3?$CDynamicPoolEx@VCAirResistanceDecorator@NEffectUpdateDecorator@@@@8 DD 00H ; CDynamicPoolEx<NEffectUpdateDecorator::CAirResistanceDecorator>::`RTTI Class Hierarchy Descriptor'
	DD	00H
	DD	01H
	DD	FLAT:??_R2?$CDynamicPoolEx@VCAirResistanceDecorator@NEffectUpdateDecorator@@@@8
rdata$r	ENDS
;	COMDAT ??_R0?AV?$CDynamicPoolEx@VCAirResistanceDecorator@NEffectUpdateDecorator@@@@@8
data$rs	SEGMENT
??_R0?AV?$CDynamicPoolEx@VCAirResistanceDecorator@NEffectUpdateDecorator@@@@@8 DD FLAT:??_7type_info@@6B@ ; CDynamicPoolEx<NEffectUpdateDecorator::CAirResistanceDecorator> `RTTI Type Descriptor'
	DD	00H
	DB	'.?AV?$CDynamicPoolEx@VCAirResistanceDecorator@NEffectUpd'
	DB	'ateDecorator@@@@', 00H
data$rs	ENDS
;	COMDAT ??_R4?$CDynamicPoolEx@VCAirResistanceDecorator@NEffectUpdateDecorator@@@@6B@
rdata$r	SEGMENT
??_R4?$CDynamicPoolEx@VCAirResistanceDecorator@NEffectUpdateDecorator@@@@6B@ DD 00H ; CDynamicPoolEx<NEffectUpdateDecorator::CAirResistanceDecorator>::`RTTI Complete Object Locator'
	DD	00H
	DD	00H
	DD	FLAT:??_R0?AV?$CDynamicPoolEx@VCAirResistanceDecorator@NEffectUpdateDecorator@@@@@8
	DD	FLAT:??_R3?$CDynamicPoolEx@VCAirResistanceDecorator@NEffectUpdateDecorator@@@@8
rdata$r	ENDS
;	COMDAT ??_R1A@?0A@EA@?$CDynamicPoolEx@VCTextureAnimationRandomDecorator@NEffectUpdateDecorator@@@@8
rdata$r	SEGMENT
??_R1A@?0A@EA@?$CDynamicPoolEx@VCTextureAnimationRandomDecorator@NEffectUpdateDecorator@@@@8 DD FLAT:??_R0?AV?$CDynamicPoolEx@VCTextureAnimationRandomDecorator@NEffectUpdateDecorator@@@@@8 ; CDynamicPoolEx<NEffectUpdateDecorator::CTextureAnimationRandomDecorator>::`RTTI Base Class Descriptor at (0,-1,0,64)'
	DD	00H
	DD	00H
	DD	0ffffffffH
	DD	00H
	DD	040H
	DD	FLAT:??_R3?$CDynamicPoolEx@VCTextureAnimationRandomDecorator@NEffectUpdateDecorator@@@@8
rdata$r	ENDS
;	COMDAT ??_R2?$CDynamicPoolEx@VCTextureAnimationRandomDecorator@NEffectUpdateDecorator@@@@8
rdata$r	SEGMENT
??_R2?$CDynamicPoolEx@VCTextureAnimationRandomDecorator@NEffectUpdateDecorator@@@@8 DD FLAT:??_R1A@?0A@EA@?$CDynamicPoolEx@VCTextureAnimationRandomDecorator@NEffectUpdateDecorator@@@@8 ; CDynamicPoolEx<NEffectUpdateDecorator::CTextureAnimationRandomDecorator>::`RTTI Base Class Array'
rdata$r	ENDS
;	COMDAT ??_R3?$CDynamicPoolEx@VCTextureAnimationRandomDecorator@NEffectUpdateDecorator@@@@8
rdata$r	SEGMENT
??_R3?$CDynamicPoolEx@VCTextureAnimationRandomDecorator@NEffectUpdateDecorator@@@@8 DD 00H ; CDynamicPoolEx<NEffectUpdateDecorator::CTextureAnimationRandomDecorator>::`RTTI Class Hierarchy Descriptor'
	DD	00H
	DD	01H
	DD	FLAT:??_R2?$CDynamicPoolEx@VCTextureAnimationRandomDecorator@NEffectUpdateDecorator@@@@8
rdata$r	ENDS
;	COMDAT ??_R0?AV?$CDynamicPoolEx@VCTextureAnimationRandomDecorator@NEffectUpdateDecorator@@@@@8
data$rs	SEGMENT
??_R0?AV?$CDynamicPoolEx@VCTextureAnimationRandomDecorator@NEffectUpdateDecorator@@@@@8 DD FLAT:??_7type_info@@6B@ ; CDynamicPoolEx<NEffectUpdateDecorator::CTextureAnimationRandomDecorator> `RTTI Type Descriptor'
	DD	00H
	DB	'.?AV?$CDynamicPoolEx@VCTextureAnimationRandomDecorator@N'
	DB	'EffectUpdateDecorator@@@@', 00H
data$rs	ENDS
;	COMDAT ??_R4?$CDynamicPoolEx@VCTextureAnimationRandomDecorator@NEffectUpdateDecorator@@@@6B@
rdata$r	SEGMENT
??_R4?$CDynamicPoolEx@VCTextureAnimationRandomDecorator@NEffectUpdateDecorator@@@@6B@ DD 00H ; CDynamicPoolEx<NEffectUpdateDecorator::CTextureAnimationRandomDecorator>::`RTTI Complete Object Locator'
	DD	00H
	DD	00H
	DD	FLAT:??_R0?AV?$CDynamicPoolEx@VCTextureAnimationRandomDecorator@NEffectUpdateDecorator@@@@@8
	DD	FLAT:??_R3?$CDynamicPoolEx@VCTextureAnimationRandomDecorator@NEffectUpdateDecorator@@@@8
rdata$r	ENDS
;	COMDAT ??_R1A@?0A@EA@?$CDynamicPoolEx@VCTextureAnimationCCWDecorator@NEffectUpdateDecorator@@@@8
rdata$r	SEGMENT
??_R1A@?0A@EA@?$CDynamicPoolEx@VCTextureAnimationCCWDecorator@NEffectUpdateDecorator@@@@8 DD FLAT:??_R0?AV?$CDynamicPoolEx@VCTextureAnimationCCWDecorator@NEffectUpdateDecorator@@@@@8 ; CDynamicPoolEx<NEffectUpdateDecorator::CTextureAnimationCCWDecorator>::`RTTI Base Class Descriptor at (0,-1,0,64)'
	DD	00H
	DD	00H
	DD	0ffffffffH
	DD	00H
	DD	040H
	DD	FLAT:??_R3?$CDynamicPoolEx@VCTextureAnimationCCWDecorator@NEffectUpdateDecorator@@@@8
rdata$r	ENDS
;	COMDAT ??_R2?$CDynamicPoolEx@VCTextureAnimationCCWDecorator@NEffectUpdateDecorator@@@@8
rdata$r	SEGMENT
??_R2?$CDynamicPoolEx@VCTextureAnimationCCWDecorator@NEffectUpdateDecorator@@@@8 DD FLAT:??_R1A@?0A@EA@?$CDynamicPoolEx@VCTextureAnimationCCWDecorator@NEffectUpdateDecorator@@@@8 ; CDynamicPoolEx<NEffectUpdateDecorator::CTextureAnimationCCWDecorator>::`RTTI Base Class Array'
rdata$r	ENDS
;	COMDAT ??_R3?$CDynamicPoolEx@VCTextureAnimationCCWDecorator@NEffectUpdateDecorator@@@@8
rdata$r	SEGMENT
??_R3?$CDynamicPoolEx@VCTextureAnimationCCWDecorator@NEffectUpdateDecorator@@@@8 DD 00H ; CDynamicPoolEx<NEffectUpdateDecorator::CTextureAnimationCCWDecorator>::`RTTI Class Hierarchy Descriptor'
	DD	00H
	DD	01H
	DD	FLAT:??_R2?$CDynamicPoolEx@VCTextureAnimationCCWDecorator@NEffectUpdateDecorator@@@@8
rdata$r	ENDS
;	COMDAT ??_R0?AV?$CDynamicPoolEx@VCTextureAnimationCCWDecorator@NEffectUpdateDecorator@@@@@8
data$rs	SEGMENT
??_R0?AV?$CDynamicPoolEx@VCTextureAnimationCCWDecorator@NEffectUpdateDecorator@@@@@8 DD FLAT:??_7type_info@@6B@ ; CDynamicPoolEx<NEffectUpdateDecorator::CTextureAnimationCCWDecorator> `RTTI Type Descriptor'
	DD	00H
	DB	'.?AV?$CDynamicPoolEx@VCTextureAnimationCCWDecorator@NEff'
	DB	'ectUpdateDecorator@@@@', 00H
data$rs	ENDS
;	COMDAT ??_R4?$CDynamicPoolEx@VCTextureAnimationCCWDecorator@NEffectUpdateDecorator@@@@6B@
rdata$r	SEGMENT
??_R4?$CDynamicPoolEx@VCTextureAnimationCCWDecorator@NEffectUpdateDecorator@@@@6B@ DD 00H ; CDynamicPoolEx<NEffectUpdateDecorator::CTextureAnimationCCWDecorator>::`RTTI Complete Object Locator'
	DD	00H
	DD	00H
	DD	FLAT:??_R0?AV?$CDynamicPoolEx@VCTextureAnimationCCWDecorator@NEffectUpdateDecorator@@@@@8
	DD	FLAT:??_R3?$CDynamicPoolEx@VCTextureAnimationCCWDecorator@NEffectUpdateDecorator@@@@8
rdata$r	ENDS
;	COMDAT ??_R1A@?0A@EA@?$CDynamicPoolEx@VCTextureAnimationCWDecorator@NEffectUpdateDecorator@@@@8
rdata$r	SEGMENT
??_R1A@?0A@EA@?$CDynamicPoolEx@VCTextureAnimationCWDecorator@NEffectUpdateDecorator@@@@8 DD FLAT:??_R0?AV?$CDynamicPoolEx@VCTextureAnimationCWDecorator@NEffectUpdateDecorator@@@@@8 ; CDynamicPoolEx<NEffectUpdateDecorator::CTextureAnimationCWDecorator>::`RTTI Base Class Descriptor at (0,-1,0,64)'
	DD	00H
	DD	00H
	DD	0ffffffffH
	DD	00H
	DD	040H
	DD	FLAT:??_R3?$CDynamicPoolEx@VCTextureAnimationCWDecorator@NEffectUpdateDecorator@@@@8
rdata$r	ENDS
;	COMDAT ??_R2?$CDynamicPoolEx@VCTextureAnimationCWDecorator@NEffectUpdateDecorator@@@@8
rdata$r	SEGMENT
??_R2?$CDynamicPoolEx@VCTextureAnimationCWDecorator@NEffectUpdateDecorator@@@@8 DD FLAT:??_R1A@?0A@EA@?$CDynamicPoolEx@VCTextureAnimationCWDecorator@NEffectUpdateDecorator@@@@8 ; CDynamicPoolEx<NEffectUpdateDecorator::CTextureAnimationCWDecorator>::`RTTI Base Class Array'
rdata$r	ENDS
;	COMDAT ??_R3?$CDynamicPoolEx@VCTextureAnimationCWDecorator@NEffectUpdateDecorator@@@@8
rdata$r	SEGMENT
??_R3?$CDynamicPoolEx@VCTextureAnimationCWDecorator@NEffectUpdateDecorator@@@@8 DD 00H ; CDynamicPoolEx<NEffectUpdateDecorator::CTextureAnimationCWDecorator>::`RTTI Class Hierarchy Descriptor'
	DD	00H
	DD	01H
	DD	FLAT:??_R2?$CDynamicPoolEx@VCTextureAnimationCWDecorator@NEffectUpdateDecorator@@@@8
rdata$r	ENDS
;	COMDAT ??_R0?AV?$CDynamicPoolEx@VCTextureAnimationCWDecorator@NEffectUpdateDecorator@@@@@8
data$rs	SEGMENT
??_R0?AV?$CDynamicPoolEx@VCTextureAnimationCWDecorator@NEffectUpdateDecorator@@@@@8 DD FLAT:??_7type_info@@6B@ ; CDynamicPoolEx<NEffectUpdateDecorator::CTextureAnimationCWDecorator> `RTTI Type Descriptor'
	DD	00H
	DB	'.?AV?$CDynamicPoolEx@VCTextureAnimationCWDecorator@NEffe'
	DB	'ctUpdateDecorator@@@@', 00H
data$rs	ENDS
;	COMDAT ??_R4?$CDynamicPoolEx@VCTextureAnimationCWDecorator@NEffectUpdateDecorator@@@@6B@
rdata$r	SEGMENT
??_R4?$CDynamicPoolEx@VCTextureAnimationCWDecorator@NEffectUpdateDecorator@@@@6B@ DD 00H ; CDynamicPoolEx<NEffectUpdateDecorator::CTextureAnimationCWDecorator>::`RTTI Complete Object Locator'
	DD	00H
	DD	00H
	DD	FLAT:??_R0?AV?$CDynamicPoolEx@VCTextureAnimationCWDecorator@NEffectUpdateDecorator@@@@@8
	DD	FLAT:??_R3?$CDynamicPoolEx@VCTextureAnimationCWDecorator@NEffectUpdateDecorator@@@@8
rdata$r	ENDS
;	COMDAT ??_R1A@?0A@EA@?$CDynamicPoolEx@VCNullDecorator@NEffectUpdateDecorator@@@@8
rdata$r	SEGMENT
??_R1A@?0A@EA@?$CDynamicPoolEx@VCNullDecorator@NEffectUpdateDecorator@@@@8 DD FLAT:??_R0?AV?$CDynamicPoolEx@VCNullDecorator@NEffectUpdateDecorator@@@@@8 ; CDynamicPoolEx<NEffectUpdateDecorator::CNullDecorator>::`RTTI Base Class Descriptor at (0,-1,0,64)'
	DD	00H
	DD	00H
	DD	0ffffffffH
	DD	00H
	DD	040H
	DD	FLAT:??_R3?$CDynamicPoolEx@VCNullDecorator@NEffectUpdateDecorator@@@@8
rdata$r	ENDS
;	COMDAT ??_R2?$CDynamicPoolEx@VCNullDecorator@NEffectUpdateDecorator@@@@8
rdata$r	SEGMENT
??_R2?$CDynamicPoolEx@VCNullDecorator@NEffectUpdateDecorator@@@@8 DD FLAT:??_R1A@?0A@EA@?$CDynamicPoolEx@VCNullDecorator@NEffectUpdateDecorator@@@@8 ; CDynamicPoolEx<NEffectUpdateDecorator::CNullDecorator>::`RTTI Base Class Array'
rdata$r	ENDS
;	COMDAT ??_R3?$CDynamicPoolEx@VCNullDecorator@NEffectUpdateDecorator@@@@8
rdata$r	SEGMENT
??_R3?$CDynamicPoolEx@VCNullDecorator@NEffectUpdateDecorator@@@@8 DD 00H ; CDynamicPoolEx<NEffectUpdateDecorator::CNullDecorator>::`RTTI Class Hierarchy Descriptor'
	DD	00H
	DD	01H
	DD	FLAT:??_R2?$CDynamicPoolEx@VCNullDecorator@NEffectUpdateDecorator@@@@8
rdata$r	ENDS
;	COMDAT ??_R0?AV?$CDynamicPoolEx@VCNullDecorator@NEffectUpdateDecorator@@@@@8
data$rs	SEGMENT
??_R0?AV?$CDynamicPoolEx@VCNullDecorator@NEffectUpdateDecorator@@@@@8 DD FLAT:??_7type_info@@6B@ ; CDynamicPoolEx<NEffectUpdateDecorator::CNullDecorator> `RTTI Type Descriptor'
	DD	00H
	DB	'.?AV?$CDynamicPoolEx@VCNullDecorator@NEffectUpdateDecora'
	DB	'tor@@@@', 00H
data$rs	ENDS
;	COMDAT ??_R4?$CDynamicPoolEx@VCNullDecorator@NEffectUpdateDecorator@@@@6B@
rdata$r	SEGMENT
??_R4?$CDynamicPoolEx@VCNullDecorator@NEffectUpdateDecorator@@@@6B@ DD 00H ; CDynamicPoolEx<NEffectUpdateDecorator::CNullDecorator>::`RTTI Complete Object Locator'
	DD	00H
	DD	00H
	DD	FLAT:??_R0?AV?$CDynamicPoolEx@VCNullDecorator@NEffectUpdateDecorator@@@@@8
	DD	FLAT:??_R3?$CDynamicPoolEx@VCNullDecorator@NEffectUpdateDecorator@@@@8
rdata$r	ENDS
;	COMDAT ??_R1A@?0A@EA@?$CDynamicPoolEx@VCHeaderDecorator@NEffectUpdateDecorator@@@@8
rdata$r	SEGMENT
??_R1A@?0A@EA@?$CDynamicPoolEx@VCHeaderDecorator@NEffectUpdateDecorator@@@@8 DD FLAT:??_R0?AV?$CDynamicPoolEx@VCHeaderDecorator@NEffectUpdateDecorator@@@@@8 ; CDynamicPoolEx<NEffectUpdateDecorator::CHeaderDecorator>::`RTTI Base Class Descriptor at (0,-1,0,64)'
	DD	00H
	DD	00H
	DD	0ffffffffH
	DD	00H
	DD	040H
	DD	FLAT:??_R3?$CDynamicPoolEx@VCHeaderDecorator@NEffectUpdateDecorator@@@@8
rdata$r	ENDS
;	COMDAT ??_R2?$CDynamicPoolEx@VCHeaderDecorator@NEffectUpdateDecorator@@@@8
rdata$r	SEGMENT
??_R2?$CDynamicPoolEx@VCHeaderDecorator@NEffectUpdateDecorator@@@@8 DD FLAT:??_R1A@?0A@EA@?$CDynamicPoolEx@VCHeaderDecorator@NEffectUpdateDecorator@@@@8 ; CDynamicPoolEx<NEffectUpdateDecorator::CHeaderDecorator>::`RTTI Base Class Array'
rdata$r	ENDS
;	COMDAT ??_R3?$CDynamicPoolEx@VCHeaderDecorator@NEffectUpdateDecorator@@@@8
rdata$r	SEGMENT
??_R3?$CDynamicPoolEx@VCHeaderDecorator@NEffectUpdateDecorator@@@@8 DD 00H ; CDynamicPoolEx<NEffectUpdateDecorator::CHeaderDecorator>::`RTTI Class Hierarchy Descriptor'
	DD	00H
	DD	01H
	DD	FLAT:??_R2?$CDynamicPoolEx@VCHeaderDecorator@NEffectUpdateDecorator@@@@8
rdata$r	ENDS
;	COMDAT ??_R0?AV?$CDynamicPoolEx@VCHeaderDecorator@NEffectUpdateDecorator@@@@@8
data$rs	SEGMENT
??_R0?AV?$CDynamicPoolEx@VCHeaderDecorator@NEffectUpdateDecorator@@@@@8 DD FLAT:??_7type_info@@6B@ ; CDynamicPoolEx<NEffectUpdateDecorator::CHeaderDecorator> `RTTI Type Descriptor'
	DD	00H
	DB	'.?AV?$CDynamicPoolEx@VCHeaderDecorator@NEffectUpdateDeco'
	DB	'rator@@@@', 00H
data$rs	ENDS
;	COMDAT ??_R4?$CDynamicPoolEx@VCHeaderDecorator@NEffectUpdateDecorator@@@@6B@
rdata$r	SEGMENT
??_R4?$CDynamicPoolEx@VCHeaderDecorator@NEffectUpdateDecorator@@@@6B@ DD 00H ; CDynamicPoolEx<NEffectUpdateDecorator::CHeaderDecorator>::`RTTI Complete Object Locator'
	DD	00H
	DD	00H
	DD	FLAT:??_R0?AV?$CDynamicPoolEx@VCHeaderDecorator@NEffectUpdateDecorator@@@@@8
	DD	FLAT:??_R3?$CDynamicPoolEx@VCHeaderDecorator@NEffectUpdateDecorator@@@@8
rdata$r	ENDS
;	COMDAT ?_Fake_alloc@std@@3U_Fake_allocator@1@B
CONST	SEGMENT
?_Fake_alloc@std@@3U_Fake_allocator@1@B	ORG $+1		; std::_Fake_alloc
CONST	ENDS
;	COMDAT ??_7?$CDynamicPoolEx@VCHeaderDecorator@NEffectUpdateDecorator@@@@6B@
CONST	SEGMENT
??_7?$CDynamicPoolEx@VCHeaderDecorator@NEffectUpdateDecorator@@@@6B@ DD FLAT:??_R4?$CDynamicPoolEx@VCHeaderDecorator@NEffectUpdateDecorator@@@@6B@ ; CDynamicPoolEx<NEffectUpdateDecorator::CHeaderDecorator>::`vftable'
	DD	FLAT:??_E?$CDynamicPoolEx@VCHeaderDecorator@NEffectUpdateDecorator@@@@UAEPAXI@Z
CONST	ENDS
;	COMDAT ??_7?$CDynamicPoolEx@VCNullDecorator@NEffectUpdateDecorator@@@@6B@
CONST	SEGMENT
??_7?$CDynamicPoolEx@VCNullDecorator@NEffectUpdateDecorator@@@@6B@ DD FLAT:??_R4?$CDynamicPoolEx@VCNullDecorator@NEffectUpdateDecorator@@@@6B@ ; CDynamicPoolEx<NEffectUpdateDecorator::CNullDecorator>::`vftable'
	DD	FLAT:??_E?$CDynamicPoolEx@VCNullDecorator@NEffectUpdateDecorator@@@@UAEPAXI@Z
CONST	ENDS
;	COMDAT ??_7?$CDynamicPoolEx@VCTextureAnimationCWDecorator@NEffectUpdateDecorator@@@@6B@
CONST	SEGMENT
??_7?$CDynamicPoolEx@VCTextureAnimationCWDecorator@NEffectUpdateDecorator@@@@6B@ DD FLAT:??_R4?$CDynamicPoolEx@VCTextureAnimationCWDecorator@NEffectUpdateDecorator@@@@6B@ ; CDynamicPoolEx<NEffectUpdateDecorator::CTextureAnimationCWDecorator>::`vftable'
	DD	FLAT:??_E?$CDynamicPoolEx@VCTextureAnimationCWDecorator@NEffectUpdateDecorator@@@@UAEPAXI@Z
CONST	ENDS
;	COMDAT ??_7?$CDynamicPoolEx@VCTextureAnimationCCWDecorator@NEffectUpdateDecorator@@@@6B@
CONST	SEGMENT
??_7?$CDynamicPoolEx@VCTextureAnimationCCWDecorator@NEffectUpdateDecorator@@@@6B@ DD FLAT:??_R4?$CDynamicPoolEx@VCTextureAnimationCCWDecorator@NEffectUpdateDecorator@@@@6B@ ; CDynamicPoolEx<NEffectUpdateDecorator::CTextureAnimationCCWDecorator>::`vftable'
	DD	FLAT:??_E?$CDynamicPoolEx@VCTextureAnimationCCWDecorator@NEffectUpdateDecorator@@@@UAEPAXI@Z
CONST	ENDS
;	COMDAT ??_7?$CDynamicPoolEx@VCTextureAnimationRandomDecorator@NEffectUpdateDecorator@@@@6B@
CONST	SEGMENT
??_7?$CDynamicPoolEx@VCTextureAnimationRandomDecorator@NEffectUpdateDecorator@@@@6B@ DD FLAT:??_R4?$CDynamicPoolEx@VCTextureAnimationRandomDecorator@NEffectUpdateDecorator@@@@6B@ ; CDynamicPoolEx<NEffectUpdateDecorator::CTextureAnimationRandomDecorator>::`vftable'
	DD	FLAT:??_E?$CDynamicPoolEx@VCTextureAnimationRandomDecorator@NEffectUpdateDecorator@@@@UAEPAXI@Z
CONST	ENDS
PUBLIC	??_H@YGXPAXIIP6EPAX0@Z@Z			; `vector constructor iterator'
PUBLIC	?__empty_global_delete@@YAXPAX@Z		; __empty_global_delete
PUBLIC	?__empty_global_delete@@YAXPAXI@Z		; __empty_global_delete
PUBLIC	?__empty_global_delete@@YAXPAXW4align_val_t@std@@@Z ; __empty_global_delete
PUBLIC	?__empty_global_delete@@YAXPAXIW4align_val_t@std@@@Z ; __empty_global_delete
PUBLIC	??0CGraphicRenderTarget@@QAE@XZ			; CGraphicRenderTarget::CGraphicRenderTarget
PUBLIC	??1CGraphicRenderTarget@@QAE@XZ			; CGraphicRenderTarget::~CGraphicRenderTarget
PUBLIC	?SetRenderTarget@CGraphicRenderTarget@@QAEXI@Z	; CGraphicRenderTarget::SetRenderTarget
PUBLIC	?SetRenderHair@CGraphicRenderTarget@@QAEXI@Z	; CGraphicRenderTarget::SetRenderHair
PUBLIC	?SetRenderArmor@CGraphicRenderTarget@@QAEXI@Z	; CGraphicRenderTarget::SetRenderArmor
PUBLIC	?SetRenderWeapon@CGraphicRenderTarget@@QAEXI@Z	; CGraphicRenderTarget::SetRenderWeapon
PUBLIC	?SetRenderSash@CGraphicRenderTarget@@QAEXI@Z	; CGraphicRenderTarget::SetRenderSash
PUBLIC	?SetRendererMotion@CGraphicRenderTarget@@QAEXI@Z ; CGraphicRenderTarget::SetRendererMotion
PUBLIC	?SetLightPosition@CGraphicRenderTarget@@QAEXUD3DXVECTOR3@@@Z ; CGraphicRenderTarget::SetLightPosition
PUBLIC	?GetLightPosition@CGraphicRenderTarget@@QBEABUD3DXVECTOR3@@XZ ; CGraphicRenderTarget::GetLightPosition
PUBLIC	?SetRenderDistance@CGraphicRenderTarget@@QAEXM@Z ; CGraphicRenderTarget::SetRenderDistance
PUBLIC	?GetRenderDistance@CGraphicRenderTarget@@QAEMXZ	; CGraphicRenderTarget::GetRenderDistance
PUBLIC	?SetRotation@CGraphicRenderTarget@@QAEXM@Z	; CGraphicRenderTarget::SetRotation
PUBLIC	?GetRotation@CGraphicRenderTarget@@QAEMXZ	; CGraphicRenderTarget::GetRotation
PUBLIC	?SetRotationMode@CGraphicRenderTarget@@QAEX_N@Z	; CGraphicRenderTarget::SetRotationMode
PUBLIC	?Update@CGraphicRenderTarget@@QAEXXZ		; CGraphicRenderTarget::Update
PUBLIC	?Render@CGraphicRenderTarget@@QAEXMMMM@Z	; CGraphicRenderTarget::Render
PUBLIC	?Destroy@CGraphicRenderTarget@@QAEXXZ		; CGraphicRenderTarget::Destroy
PUBLIC	??1SCreateData@CInstanceBase@@QAE@XZ		; CInstanceBase::SCreateData::~SCreateData
PUBLIC	??1?$CDynamicPoolEx@VCRotationDecorator@NEffectUpdateDecorator@@@@UAE@XZ ; CDynamicPoolEx<NEffectUpdateDecorator::CRotationDecorator>::~CDynamicPoolEx<NEffectUpdateDecorator::CRotationDecorator>
PUBLIC	?Delete@?$CDynamicPoolEx@VCRotationDecorator@NEffectUpdateDecorator@@@@KAXPAVCRotationDecorator@NEffectUpdateDecorator@@@Z ; CDynamicPoolEx<NEffectUpdateDecorator::CRotationDecorator>::Delete
PUBLIC	??1?$CDynamicPoolEx@VCGravityDecorator@NEffectUpdateDecorator@@@@UAE@XZ ; CDynamicPoolEx<NEffectUpdateDecorator::CGravityDecorator>::~CDynamicPoolEx<NEffectUpdateDecorator::CGravityDecorator>
PUBLIC	?Delete@?$CDynamicPoolEx@VCGravityDecorator@NEffectUpdateDecorator@@@@KAXPAVCGravityDecorator@NEffectUpdateDecorator@@@Z ; CDynamicPoolEx<NEffectUpdateDecorator::CGravityDecorator>::Delete
PUBLIC	??1?$CDynamicPoolEx@VCAirResistanceDecorator@NEffectUpdateDecorator@@@@UAE@XZ ; CDynamicPoolEx<NEffectUpdateDecorator::CAirResistanceDecorator>::~CDynamicPoolEx<NEffectUpdateDecorator::CAirResistanceDecorator>
PUBLIC	?Delete@?$CDynamicPoolEx@VCAirResistanceDecorator@NEffectUpdateDecorator@@@@KAXPAVCAirResistanceDecorator@NEffectUpdateDecorator@@@Z ; CDynamicPoolEx<NEffectUpdateDecorator::CAirResistanceDecorator>::Delete
PUBLIC	??1?$CDynamicPoolEx@VCTextureAnimationRandomDecorator@NEffectUpdateDecorator@@@@UAE@XZ ; CDynamicPoolEx<NEffectUpdateDecorator::CTextureAnimationRandomDecorator>::~CDynamicPoolEx<NEffectUpdateDecorator::CTextureAnimationRandomDecorator>
PUBLIC	?Delete@?$CDynamicPoolEx@VCTextureAnimationRandomDecorator@NEffectUpdateDecorator@@@@KAXPAVCTextureAnimationRandomDecorator@NEffectUpdateDecorator@@@Z ; CDynamicPoolEx<NEffectUpdateDecorator::CTextureAnimationRandomDecorator>::Delete
PUBLIC	??1?$CDynamicPoolEx@VCTextureAnimationCCWDecorator@NEffectUpdateDecorator@@@@UAE@XZ ; CDynamicPoolEx<NEffectUpdateDecorator::CTextureAnimationCCWDecorator>::~CDynamicPoolEx<NEffectUpdateDecorator::CTextureAnimationCCWDecorator>
PUBLIC	?Delete@?$CDynamicPoolEx@VCTextureAnimationCCWDecorator@NEffectUpdateDecorator@@@@KAXPAVCTextureAnimationCCWDecorator@NEffectUpdateDecorator@@@Z ; CDynamicPoolEx<NEffectUpdateDecorator::CTextureAnimationCCWDecorator>::Delete
PUBLIC	??1?$CDynamicPoolEx@VCTextureAnimationCWDecorator@NEffectUpdateDecorator@@@@UAE@XZ ; CDynamicPoolEx<NEffectUpdateDecorator::CTextureAnimationCWDecorator>::~CDynamicPoolEx<NEffectUpdateDecorator::CTextureAnimationCWDecorator>
PUBLIC	?Delete@?$CDynamicPoolEx@VCTextureAnimationCWDecorator@NEffectUpdateDecorator@@@@KAXPAVCTextureAnimationCWDecorator@NEffectUpdateDecorator@@@Z ; CDynamicPoolEx<NEffectUpdateDecorator::CTextureAnimationCWDecorator>::Delete
PUBLIC	??1?$CDynamicPoolEx@VCNullDecorator@NEffectUpdateDecorator@@@@UAE@XZ ; CDynamicPoolEx<NEffectUpdateDecorator::CNullDecorator>::~CDynamicPoolEx<NEffectUpdateDecorator::CNullDecorator>
PUBLIC	?Delete@?$CDynamicPoolEx@VCNullDecorator@NEffectUpdateDecorator@@@@KAXPAVCNullDecorator@NEffectUpdateDecorator@@@Z ; CDynamicPoolEx<NEffectUpdateDecorator::CNullDecorator>::Delete
PUBLIC	??1?$CDynamicPoolEx@VCHeaderDecorator@NEffectUpdateDecorator@@@@UAE@XZ ; CDynamicPoolEx<NEffectUpdateDecorator::CHeaderDecorator>::~CDynamicPoolEx<NEffectUpdateDecorator::CHeaderDecorator>
PUBLIC	?Delete@?$CDynamicPoolEx@VCHeaderDecorator@NEffectUpdateDecorator@@@@KAXPAVCHeaderDecorator@NEffectUpdateDecorator@@@Z ; CDynamicPoolEx<NEffectUpdateDecorator::CHeaderDecorator>::Delete
PUBLIC	?ms_singleton@?$CSingleton@VCCameraManager@@@@0PAVCCameraManager@@A ; CSingleton<CCameraManager>::ms_singleton
PUBLIC	?ms_singleton@?$CSingleton@VCPythonGraphic@@@@0PAVCPythonGraphic@@A ; CSingleton<CPythonGraphic>::ms_singleton
PUBLIC	?ms_kPool@?$CPooledObject@VCHeaderDecorator@NEffectUpdateDecorator@@@@1V?$CDynamicPoolEx@VCHeaderDecorator@NEffectUpdateDecorator@@@@A ; CPooledObject<NEffectUpdateDecorator::CHeaderDecorator>::ms_kPool
PUBLIC	?ms_kPool@?$CPooledObject@VCNullDecorator@NEffectUpdateDecorator@@@@1V?$CDynamicPoolEx@VCNullDecorator@NEffectUpdateDecorator@@@@A ; CPooledObject<NEffectUpdateDecorator::CNullDecorator>::ms_kPool
PUBLIC	?ms_kPool@?$CPooledObject@VCTextureAnimationCWDecorator@NEffectUpdateDecorator@@@@1V?$CDynamicPoolEx@VCTextureAnimationCWDecorator@NEffectUpdateDecorator@@@@A ; CPooledObject<NEffectUpdateDecorator::CTextureAnimationCWDecorator>::ms_kPool
PUBLIC	?ms_kPool@?$CPooledObject@VCTextureAnimationCCWDecorator@NEffectUpdateDecorator@@@@1V?$CDynamicPoolEx@VCTextureAnimationCCWDecorator@NEffectUpdateDecorator@@@@A ; CPooledObject<NEffectUpdateDecorator::CTextureAnimationCCWDecorator>::ms_kPool
PUBLIC	?ms_kPool@?$CPooledObject@VCTextureAnimationRandomDecorator@NEffectUpdateDecorator@@@@1V?$CDynamicPoolEx@VCTextureAnimationRandomDecorator@NEffectUpdateDecorator@@@@A ; CPooledObject<NEffectUpdateDecorator::CTextureAnimationRandomDecorator>::ms_kPool
PUBLIC	?ms_kPool@?$CPooledObject@VCAirResistanceDecorator@NEffectUpdateDecorator@@@@1V?$CDynamicPoolEx@VCAirResistanceDecorator@NEffectUpdateDecorator@@@@A ; CPooledObject<NEffectUpdateDecorator::CAirResistanceDecorator>::ms_kPool
PUBLIC	?ms_kPool@?$CPooledObject@VCGravityDecorator@NEffectUpdateDecorator@@@@1V?$CDynamicPoolEx@VCGravityDecorator@NEffectUpdateDecorator@@@@A ; CPooledObject<NEffectUpdateDecorator::CGravityDecorator>::ms_kPool
PUBLIC	?ms_kPool@?$CPooledObject@VCRotationDecorator@NEffectUpdateDecorator@@@@1V?$CDynamicPoolEx@VCRotationDecorator@NEffectUpdateDecorator@@@@A ; CPooledObject<NEffectUpdateDecorator::CRotationDecorator>::ms_kPool
PUBLIC	__real@00000000
PUBLIC	__real@3f000000
PUBLIC	__real@43b40000
PUBLIC	__xmm@80000000800000008000000080000000
EXTRN	??2@YAPAXI@Z:PROC				; operator new
EXTRN	??3@YAXPAX@Z:PROC				; operator delete
EXTRN	??3@YAXPAXI@Z:PROC				; operator delete
EXTRN	_atexit:PROC
EXTRN	__invalid_parameter_noinfo_noreturn:PROC
EXTRN	?SetViewParams@CCamera@@QAEXABUD3DXVECTOR3@@00@Z:PROC ; CCamera::SetViewParams
EXTRN	?GetCurrentCamera@CCameraManager@@QAEPAVCCamera@@XZ:PROC ; CCameraManager::GetCurrentCamera
EXTRN	?SetCurrentCamera@CCameraManager@@QAEXE@Z:PROC	; CCameraManager::SetCurrentCamera
EXTRN	?ResetToPreviousCamera@CCameraManager@@QAEXXZ:PROC ; CCameraManager::ResetToPreviousCamera
EXTRN	?SetPerspective@CGraphicBase@@QAEXMMMM@Z:PROC	; CGraphicBase::SetPerspective
EXTRN	?GetFOV@CGraphicBase@@QBEMXZ:PROC		; CGraphicBase::GetFOV
EXTRN	?GetAspect@CGraphicBase@@QBEMXZ:PROC		; CGraphicBase::GetAspect
EXTRN	?GetNear@CGraphicBase@@QBEMXZ:PROC		; CGraphicBase::GetNear
EXTRN	?GetFar@CGraphicBase@@QBEMXZ:PROC		; CGraphicBase::GetFar
EXTRN	?UpdateViewMatrix@CGraphicBase@@QAEXXZ:PROC	; CGraphicBase::UpdateViewMatrix
EXTRN	?ClearDepthBuffer@CScreen@@QAEXXZ:PROC		; CScreen::ClearDepthBuffer
EXTRN	?PushState@CPythonGraphic@@QAEXXZ:PROC		; CPythonGraphic::PushState
EXTRN	?PopState@CPythonGraphic@@QAEXXZ:PROC		; CPythonGraphic::PopState
EXTRN	?SetInterfaceRenderState@CPythonGraphic@@QAEXXZ:PROC ; CPythonGraphic::SetInterfaceRenderState
EXTRN	?SetGameRenderState@CPythonGraphic@@QAEXXZ:PROC	; CPythonGraphic::SetGameRenderState
EXTRN	?SetOmniLight@CPythonGraphic@@QAEXUD3DXVECTOR3@@@Z:PROC ; CPythonGraphic::SetOmniLight
EXTRN	?SetViewport@CPythonGraphic@@QAEXMMMM@Z:PROC	; CPythonGraphic::SetViewport
EXTRN	?RestoreViewport@CPythonGraphic@@QAEXXZ:PROC	; CPythonGraphic::RestoreViewport
EXTRN	?IsUsingMovingSkill@CActorInstance@@QAEHXZ:PROC	; CActorInstance::IsUsingMovingSkill
EXTRN	??0CAffectFlagContainer@@QAE@XZ:PROC		; CAffectFlagContainer::CAffectFlagContainer
EXTRN	??1CAffectFlagContainer@@QAE@XZ:PROC		; CAffectFlagContainer::~CAffectFlagContainer
EXTRN	??0CInstanceBase@@QAE@XZ:PROC			; CInstanceBase::CInstanceBase
EXTRN	?Create@CInstanceBase@@QAE_NABUSCreateData@1@@Z:PROC ; CInstanceBase::Create
EXTRN	?Destroy@CInstanceBase@@QAEXXZ:PROC		; CInstanceBase::Destroy
EXTRN	?Update@CInstanceBase@@QAEXXZ:PROC		; CInstanceBase::Update
EXTRN	?Transform@CInstanceBase@@QAEXXZ:PROC		; CInstanceBase::Transform
EXTRN	?Deform@CInstanceBase@@QAEXXZ:PROC		; CInstanceBase::Deform
EXTRN	?Render@CInstanceBase@@QAEXXZ:PROC		; CInstanceBase::Render
EXTRN	?SetRace@CInstanceBase@@QAE_NK@Z:PROC		; CInstanceBase::SetRace
EXTRN	?SetArmor@CInstanceBase@@QAEXK@Z:PROC		; CInstanceBase::SetArmor
EXTRN	?SetHair@CInstanceBase@@QAEXK@Z:PROC		; CInstanceBase::SetHair
EXTRN	?SetSash@CInstanceBase@@QAE_NK@Z:PROC		; CInstanceBase::SetSash
EXTRN	?ChangeSash@CInstanceBase@@QAEXK@Z:PROC		; CInstanceBase::ChangeSash
EXTRN	?SetWeapon@CInstanceBase@@QAE_NK@Z:PROC		; CInstanceBase::SetWeapon
EXTRN	?ChangeArmor@CInstanceBase@@QAE_NK@Z:PROC	; CInstanceBase::ChangeArmor
EXTRN	?ChangeWeapon@CInstanceBase@@QAEXK@Z:PROC	; CInstanceBase::ChangeWeapon
EXTRN	?ChangeHair@CInstanceBase@@QAEXK@Z:PROC		; CInstanceBase::ChangeHair
EXTRN	?NEW_SetPixelPosition@CInstanceBase@@QAEXABUD3DXVECTOR3@@@Z:PROC ; CInstanceBase::NEW_SetPixelPosition
EXTRN	?GetRotation@CInstanceBase@@QAEMXZ:PROC		; CInstanceBase::GetRotation
EXTRN	?SetRotation@CInstanceBase@@QAEXM@Z:PROC	; CInstanceBase::SetRotation
EXTRN	?SetMotionMode@CInstanceBase@@QAEXH@Z:PROC	; CInstanceBase::SetMotionMode
EXTRN	?SetLoopMotion@CInstanceBase@@QAEXGMM@Z:PROC	; CInstanceBase::SetLoopMotion
EXTRN	?Refresh@CInstanceBase@@QAEXK_N@Z:PROC		; CInstanceBase::Refresh
EXTRN	?GetGraphicThingInstanceRef@CInstanceBase@@QAEAAVCActorInstance@@XZ:PROC ; CInstanceBase::GetGraphicThingInstanceRef
EXTRN	?SetSkillPreview@CInstanceBase@@QAEXIE@Z:PROC	; CInstanceBase::SetSkillPreview
EXTRN	@__security_check_cookie@4:PROC
EXTRN	___CxxFrameHandler3:PROC
EXTRN	_memset:PROC
EXTRN	___security_cookie:DWORD
EXTRN	__fltused:DWORD
;	COMDAT ?ms_singleton@?$CSingleton@VCCameraManager@@@@0PAVCCameraManager@@A
_BSS	SEGMENT
?ms_singleton@?$CSingleton@VCCameraManager@@@@0PAVCCameraManager@@A DD 01H DUP (?) ; CSingleton<CCameraManager>::ms_singleton
_BSS	ENDS
;	COMDAT ?ms_singleton@?$CSingleton@VCPythonGraphic@@@@0PAVCPythonGraphic@@A
_BSS	SEGMENT
?ms_singleton@?$CSingleton@VCPythonGraphic@@@@0PAVCPythonGraphic@@A DD 01H DUP (?) ; CSingleton<CPythonGraphic>::ms_singleton
_BSS	ENDS
;	COMDAT CRT$XCU
CRT$XCU	SEGMENT
??ms_kPool$initializer$@?$CPooledObject@VCHeaderDecorator@NEffectUpdateDecorator@@@@1P6AXXZA@@3P6AXXZA DD FLAT:??__E?ms_kPool@?$CPooledObject@VCHeaderDecorator@NEffectUpdateDecorator@@@@1V?$CDynamicPoolEx@VCHeaderDecorator@NEffectUpdateDecorator@@@@A@@YAXXZ ; ??ms_kPool$initializer$@?$CPooledObject@VCHeaderDecorator@NEffectUpdateDecorator@@@@1P6AXXZA@@3P6AXXZA
CRT$XCU	ENDS
;	COMDAT __xmm@80000000800000008000000080000000
CONST	SEGMENT
__xmm@80000000800000008000000080000000 DB 00H, 00H, 00H, 080H, 00H, 00H, 00H
	DB	080H, 00H, 00H, 00H, 080H, 00H, 00H, 00H, 080H
CONST	ENDS
;	COMDAT __real@43b40000
CONST	SEGMENT
__real@43b40000 DD 043b40000r			; 360
CONST	ENDS
;	COMDAT __real@3f000000
CONST	SEGMENT
__real@3f000000 DD 03f000000r			; 0.5
CONST	ENDS
;	COMDAT __real@00000000
CONST	SEGMENT
__real@00000000 DD 000000000r			; 0
CONST	ENDS
;	COMDAT ?ms_kPool@?$CPooledObject@VCRotationDecorator@NEffectUpdateDecorator@@@@1V?$CDynamicPoolEx@VCRotationDecorator@NEffectUpdateDecorator@@@@A
_DATA	SEGMENT
?ms_kPool@?$CPooledObject@VCRotationDecorator@NEffectUpdateDecorator@@@@1V?$CDynamicPoolEx@VCRotationDecorator@NEffectUpdateDecorator@@@@A DD FLAT:??_7?$CDynamicPoolEx@VCRotationDecorator@NEffectUpdateDecorator@@@@6B@ ; CPooledObject<NEffectUpdateDecorator::CRotationDecorator>::ms_kPool
	DD	00H
	DD	00H
	DD	00H
	DD	00H
	DD	00H
	DD	00H
	DD	00H
	DD	00H
_DATA	ENDS
;	COMDAT ?ms_kPool@?$CPooledObject@VCGravityDecorator@NEffectUpdateDecorator@@@@1V?$CDynamicPoolEx@VCGravityDecorator@NEffectUpdateDecorator@@@@A
_DATA	SEGMENT
?ms_kPool@?$CPooledObject@VCGravityDecorator@NEffectUpdateDecorator@@@@1V?$CDynamicPoolEx@VCGravityDecorator@NEffectUpdateDecorator@@@@A DD FLAT:??_7?$CDynamicPoolEx@VCGravityDecorator@NEffectUpdateDecorator@@@@6B@ ; CPooledObject<NEffectUpdateDecorator::CGravityDecorator>::ms_kPool
	DD	00H
	DD	00H
	DD	00H
	DD	00H
	DD	00H
	DD	00H
	DD	00H
	DD	00H
_DATA	ENDS
;	COMDAT ?ms_kPool@?$CPooledObject@VCAirResistanceDecorator@NEffectUpdateDecorator@@@@1V?$CDynamicPoolEx@VCAirResistanceDecorator@NEffectUpdateDecorator@@@@A
_DATA	SEGMENT
?ms_kPool@?$CPooledObject@VCAirResistanceDecorator@NEffectUpdateDecorator@@@@1V?$CDynamicPoolEx@VCAirResistanceDecorator@NEffectUpdateDecorator@@@@A DD FLAT:??_7?$CDynamicPoolEx@VCAirResistanceDecorator@NEffectUpdateDecorator@@@@6B@ ; CPooledObject<NEffectUpdateDecorator::CAirResistanceDecorator>::ms_kPool
	DD	00H
	DD	00H
	DD	00H
	DD	00H
	DD	00H
	DD	00H
	DD	00H
	DD	00H
_DATA	ENDS
;	COMDAT ?ms_kPool@?$CPooledObject@VCTextureAnimationRandomDecorator@NEffectUpdateDecorator@@@@1V?$CDynamicPoolEx@VCTextureAnimationRandomDecorator@NEffectUpdateDecorator@@@@A
_DATA	SEGMENT
?ms_kPool@?$CPooledObject@VCTextureAnimationRandomDecorator@NEffectUpdateDecorator@@@@1V?$CDynamicPoolEx@VCTextureAnimationRandomDecorator@NEffectUpdateDecorator@@@@A DD FLAT:??_7?$CDynamicPoolEx@VCTextureAnimationRandomDecorator@NEffectUpdateDecorator@@@@6B@ ; CPooledObject<NEffectUpdateDecorator::CTextureAnimationRandomDecorator>::ms_kPool
	DD	00H
	DD	00H
	DD	00H
	DD	00H
	DD	00H
	DD	00H
	DD	00H
	DD	00H
_DATA	ENDS
;	COMDAT ?ms_kPool@?$CPooledObject@VCTextureAnimationCCWDecorator@NEffectUpdateDecorator@@@@1V?$CDynamicPoolEx@VCTextureAnimationCCWDecorator@NEffectUpdateDecorator@@@@A
_DATA	SEGMENT
?ms_kPool@?$CPooledObject@VCTextureAnimationCCWDecorator@NEffectUpdateDecorator@@@@1V?$CDynamicPoolEx@VCTextureAnimationCCWDecorator@NEffectUpdateDecorator@@@@A DD FLAT:??_7?$CDynamicPoolEx@VCTextureAnimationCCWDecorator@NEffectUpdateDecorator@@@@6B@ ; CPooledObject<NEffectUpdateDecorator::CTextureAnimationCCWDecorator>::ms_kPool
	DD	00H
	DD	00H
	DD	00H
	DD	00H
	DD	00H
	DD	00H
	DD	00H
	DD	00H
_DATA	ENDS
;	COMDAT ?ms_kPool@?$CPooledObject@VCTextureAnimationCWDecorator@NEffectUpdateDecorator@@@@1V?$CDynamicPoolEx@VCTextureAnimationCWDecorator@NEffectUpdateDecorator@@@@A
_DATA	SEGMENT
?ms_kPool@?$CPooledObject@VCTextureAnimationCWDecorator@NEffectUpdateDecorator@@@@1V?$CDynamicPoolEx@VCTextureAnimationCWDecorator@NEffectUpdateDecorator@@@@A DD FLAT:??_7?$CDynamicPoolEx@VCTextureAnimationCWDecorator@NEffectUpdateDecorator@@@@6B@ ; CPooledObject<NEffectUpdateDecorator::CTextureAnimationCWDecorator>::ms_kPool
	DD	00H
	DD	00H
	DD	00H
	DD	00H
	DD	00H
	DD	00H
	DD	00H
	DD	00H
_DATA	ENDS
;	COMDAT ?ms_kPool@?$CPooledObject@VCNullDecorator@NEffectUpdateDecorator@@@@1V?$CDynamicPoolEx@VCNullDecorator@NEffectUpdateDecorator@@@@A
_DATA	SEGMENT
?ms_kPool@?$CPooledObject@VCNullDecorator@NEffectUpdateDecorator@@@@1V?$CDynamicPoolEx@VCNullDecorator@NEffectUpdateDecorator@@@@A DD FLAT:??_7?$CDynamicPoolEx@VCNullDecorator@NEffectUpdateDecorator@@@@6B@ ; CPooledObject<NEffectUpdateDecorator::CNullDecorator>::ms_kPool
	DD	00H
	DD	00H
	DD	00H
	DD	00H
	DD	00H
	DD	00H
	DD	00H
	DD	00H
_DATA	ENDS
;	COMDAT ?ms_kPool@?$CPooledObject@VCHeaderDecorator@NEffectUpdateDecorator@@@@1V?$CDynamicPoolEx@VCHeaderDecorator@NEffectUpdateDecorator@@@@A
_DATA	SEGMENT
?ms_kPool@?$CPooledObject@VCHeaderDecorator@NEffectUpdateDecorator@@@@1V?$CDynamicPoolEx@VCHeaderDecorator@NEffectUpdateDecorator@@@@A DD FLAT:??_7?$CDynamicPoolEx@VCHeaderDecorator@NEffectUpdateDecorator@@@@6B@ ; CPooledObject<NEffectUpdateDecorator::CHeaderDecorator>::ms_kPool
	DD	00H
	DD	00H
	DD	00H
	DD	00H
	DD	00H
	DD	00H
	DD	00H
	DD	00H
_DATA	ENDS
;	COMDAT xdata$x
xdata$x	SEGMENT
__ehfuncinfo$??1?$CDynamicPoolEx@VCHeaderDecorator@NEffectUpdateDecorator@@@@UAE@XZ DD 019930522H
	DD	00H
	DD	00H
	DD	2 DUP(00H)
	DD	2 DUP(00H)
	DD	00H
	DD	05H
xdata$x	ENDS
;	COMDAT xdata$x
xdata$x	SEGMENT
__ehfuncinfo$??1?$CDynamicPoolEx@VCNullDecorator@NEffectUpdateDecorator@@@@UAE@XZ DD 019930522H
	DD	00H
	DD	00H
	DD	2 DUP(00H)
	DD	2 DUP(00H)
	DD	00H
	DD	05H
xdata$x	ENDS
;	COMDAT xdata$x
xdata$x	SEGMENT
__ehfuncinfo$??1?$CDynamicPoolEx@VCTextureAnimationCWDecorator@NEffectUpdateDecorator@@@@UAE@XZ DD 019930522H
	DD	00H
	DD	00H
	DD	2 DUP(00H)
	DD	2 DUP(00H)
	DD	00H
	DD	05H
xdata$x	ENDS
;	COMDAT xdata$x
xdata$x	SEGMENT
__ehfuncinfo$??1?$CDynamicPoolEx@VCTextureAnimationCCWDecorator@NEffectUpdateDecorator@@@@UAE@XZ DD 019930522H
	DD	00H
	DD	00H
	DD	2 DUP(00H)
	DD	2 DUP(00H)
	DD	00H
	DD	05H
xdata$x	ENDS
;	COMDAT xdata$x
xdata$x	SEGMENT
__ehfuncinfo$??1?$CDynamicPoolEx@VCTextureAnimationRandomDecorator@NEffectUpdateDecorator@@@@UAE@XZ DD 019930522H
	DD	00H
	DD	00H
	DD	2 DUP(00H)
	DD	2 DUP(00H)
	DD	00H
	DD	05H
xdata$x	ENDS
;	COMDAT xdata$x
xdata$x	SEGMENT
__ehfuncinfo$??1?$CDynamicPoolEx@VCAirResistanceDecorator@NEffectUpdateDecorator@@@@UAE@XZ DD 019930522H
	DD	00H
	DD	00H
	DD	2 DUP(00H)
	DD	2 DUP(00H)
	DD	00H
	DD	05H
xdata$x	ENDS
;	COMDAT xdata$x
xdata$x	SEGMENT
__ehfuncinfo$??1?$CDynamicPoolEx@VCGravityDecorator@NEffectUpdateDecorator@@@@UAE@XZ DD 019930522H
	DD	00H
	DD	00H
	DD	2 DUP(00H)
	DD	2 DUP(00H)
	DD	00H
	DD	05H
xdata$x	ENDS
;	COMDAT xdata$x
xdata$x	SEGMENT
__ehfuncinfo$??1?$CDynamicPoolEx@VCRotationDecorator@NEffectUpdateDecorator@@@@UAE@XZ DD 019930522H
	DD	00H
	DD	00H
	DD	2 DUP(00H)
	DD	2 DUP(00H)
	DD	00H
	DD	05H
xdata$x	ENDS
;	COMDAT xdata$x
xdata$x	SEGMENT
__unwindtable$?SetRenderTarget@CGraphicRenderTarget@@QAEXI@Z DD 0ffffffffH
	DD	FLAT:__unwindfunclet$?SetRenderTarget@CGraphicRenderTarget@@QAEXI@Z$0
	DD	0ffffffffH
	DD	FLAT:__unwindfunclet$?SetRenderTarget@CGraphicRenderTarget@@QAEXI@Z$1
__ehfuncinfo$?SetRenderTarget@CGraphicRenderTarget@@QAEXI@Z DD 019930522H
	DD	02H
	DD	FLAT:__unwindtable$?SetRenderTarget@CGraphicRenderTarget@@QAEXI@Z
	DD	2 DUP(00H)
	DD	2 DUP(00H)
	DD	00H
	DD	01H
xdata$x	ENDS
;	COMDAT xdata$x
xdata$x	SEGMENT
__ehfuncinfo$??1CGraphicRenderTarget@@QAE@XZ DD 019930522H
	DD	00H
	DD	00H
	DD	2 DUP(00H)
	DD	2 DUP(00H)
	DD	00H
	DD	05H
xdata$x	ENDS
;	COMDAT CRT$XCU
CRT$XCU	SEGMENT
??ms_kPool$initializer$@?$CPooledObject@VCNullDecorator@NEffectUpdateDecorator@@@@1P6AXXZA@@3P6AXXZA DD FLAT:??__E?ms_kPool@?$CPooledObject@VCNullDecorator@NEffectUpdateDecorator@@@@1V?$CDynamicPoolEx@VCNullDecorator@NEffectUpdateDecorator@@@@A@@YAXXZ ; ??ms_kPool$initializer$@?$CPooledObject@VCNullDecorator@NEffectUpdateDecorator@@@@1P6AXXZA@@3P6AXXZA
CRT$XCU	ENDS
;	COMDAT CRT$XCU
CRT$XCU	SEGMENT
??ms_kPool$initializer$@?$CPooledObject@VCTextureAnimationCWDecorator@NEffectUpdateDecorator@@@@1P6AXXZA@@3P6AXXZA DD FLAT:??__E?ms_kPool@?$CPooledObject@VCTextureAnimationCWDecorator@NEffectUpdateDecorator@@@@1V?$CDynamicPoolEx@VCTextureAnimationCWDecorator@NEffectUpdateDecorator@@@@A@@YAXXZ ; ??ms_kPool$initializer$@?$CPooledObject@VCTextureAnimationCWDecorator@NEffectUpdateDecorator@@@@1P6AXXZA@@3P6AXXZA
CRT$XCU	ENDS
;	COMDAT CRT$XCU
CRT$XCU	SEGMENT
??ms_kPool$initializer$@?$CPooledObject@VCTextureAnimationCCWDecorator@NEffectUpdateDecorator@@@@1P6AXXZA@@3P6AXXZA DD FLAT:??__E?ms_kPool@?$CPooledObject@VCTextureAnimationCCWDecorator@NEffectUpdateDecorator@@@@1V?$CDynamicPoolEx@VCTextureAnimationCCWDecorator@NEffectUpdateDecorator@@@@A@@YAXXZ ; ??ms_kPool$initializer$@?$CPooledObject@VCTextureAnimationCCWDecorator@NEffectUpdateDecorator@@@@1P6AXXZA@@3P6AXXZA
CRT$XCU	ENDS
;	COMDAT CRT$XCU
CRT$XCU	SEGMENT
??ms_kPool$initializer$@?$CPooledObject@VCTextureAnimationRandomDecorator@NEffectUpdateDecorator@@@@1P6AXXZA@@3P6AXXZA DD FLAT:??__E?ms_kPool@?$CPooledObject@VCTextureAnimationRandomDecorator@NEffectUpdateDecorator@@@@1V?$CDynamicPoolEx@VCTextureAnimationRandomDecorator@NEffectUpdateDecorator@@@@A@@YAXXZ ; ??ms_kPool$initializer$@?$CPooledObject@VCTextureAnimationRandomDecorator@NEffectUpdateDecorator@@@@1P6AXXZA@@3P6AXXZA
CRT$XCU	ENDS
;	COMDAT CRT$XCU
CRT$XCU	SEGMENT
??ms_kPool$initializer$@?$CPooledObject@VCAirResistanceDecorator@NEffectUpdateDecorator@@@@1P6AXXZA@@3P6AXXZA DD FLAT:??__E?ms_kPool@?$CPooledObject@VCAirResistanceDecorator@NEffectUpdateDecorator@@@@1V?$CDynamicPoolEx@VCAirResistanceDecorator@NEffectUpdateDecorator@@@@A@@YAXXZ ; ??ms_kPool$initializer$@?$CPooledObject@VCAirResistanceDecorator@NEffectUpdateDecorator@@@@1P6AXXZA@@3P6AXXZA
CRT$XCU	ENDS
;	COMDAT CRT$XCU
CRT$XCU	SEGMENT
??ms_kPool$initializer$@?$CPooledObject@VCGravityDecorator@NEffectUpdateDecorator@@@@1P6AXXZA@@3P6AXXZA DD FLAT:??__E?ms_kPool@?$CPooledObject@VCGravityDecorator@NEffectUpdateDecorator@@@@1V?$CDynamicPoolEx@VCGravityDecorator@NEffectUpdateDecorator@@@@A@@YAXXZ ; ??ms_kPool$initializer$@?$CPooledObject@VCGravityDecorator@NEffectUpdateDecorator@@@@1P6AXXZA@@3P6AXXZA
CRT$XCU	ENDS
;	COMDAT CRT$XCU
CRT$XCU	SEGMENT
??ms_kPool$initializer$@?$CPooledObject@VCRotationDecorator@NEffectUpdateDecorator@@@@1P6AXXZA@@3P6AXXZA DD FLAT:??__E?ms_kPool@?$CPooledObject@VCRotationDecorator@NEffectUpdateDecorator@@@@1V?$CDynamicPoolEx@VCRotationDecorator@NEffectUpdateDecorator@@@@A@@YAXXZ ; ??ms_kPool$initializer$@?$CPooledObject@VCRotationDecorator@NEffectUpdateDecorator@@@@1P6AXXZA@@3P6AXXZA
CRT$XCU	ENDS
; Function compile flags: /Ogtp
;	COMDAT ??__F?ms_kPool@?$CPooledObject@VCRotationDecorator@NEffectUpdateDecorator@@@@1V?$CDynamicPoolEx@VCRotationDecorator@NEffectUpdateDecorator@@@@A@@YAXXZ
text$yd	SEGMENT
??__F?ms_kPool@?$CPooledObject@VCRotationDecorator@NEffectUpdateDecorator@@@@1V?$CDynamicPoolEx@VCRotationDecorator@NEffectUpdateDecorator@@@@A@@YAXXZ PROC ; `dynamic atexit destructor for 'CPooledObject<NEffectUpdateDecorator::CRotationDecorator>::ms_kPool'', COMDAT
  00000	b9 00 00 00 00	 mov	 ecx, OFFSET ?ms_kPool@?$CPooledObject@VCRotationDecorator@NEffectUpdateDecorator@@@@1V?$CDynamicPoolEx@VCRotationDecorator@NEffectUpdateDecorator@@@@A ; CPooledObject<NEffectUpdateDecorator::CRotationDecorator>::ms_kPool
  00005	e9 00 00 00 00	 jmp	 ??1?$CDynamicPoolEx@VCRotationDecorator@NEffectUpdateDecorator@@@@UAE@XZ ; CDynamicPoolEx<NEffectUpdateDecorator::CRotationDecorator>::~CDynamicPoolEx<NEffectUpdateDecorator::CRotationDecorator>
??__F?ms_kPool@?$CPooledObject@VCRotationDecorator@NEffectUpdateDecorator@@@@1V?$CDynamicPoolEx@VCRotationDecorator@NEffectUpdateDecorator@@@@A@@YAXXZ ENDP ; `dynamic atexit destructor for 'CPooledObject<NEffectUpdateDecorator::CRotationDecorator>::ms_kPool''
text$yd	ENDS
; Function compile flags: /Ogtp
; File C:\Users\flourine\Desktop\Xantios\client-src\Code\eterlib\Pool.h
;	COMDAT ??__E?ms_kPool@?$CPooledObject@VCRotationDecorator@NEffectUpdateDecorator@@@@1V?$CDynamicPoolEx@VCRotationDecorator@NEffectUpdateDecorator@@@@A@@YAXXZ
text$di	SEGMENT
??__E?ms_kPool@?$CPooledObject@VCRotationDecorator@NEffectUpdateDecorator@@@@1V?$CDynamicPoolEx@VCRotationDecorator@NEffectUpdateDecorator@@@@A@@YAXXZ PROC ; `dynamic initializer for 'CPooledObject<NEffectUpdateDecorator::CRotationDecorator>::ms_kPool'', COMDAT

; 280  : template <class T> CDynamicPoolEx<T> CPooledObject<T>::ms_kPool;

  00000	68 00 00 00 00	 push	 OFFSET ??__F?ms_kPool@?$CPooledObject@VCRotationDecorator@NEffectUpdateDecorator@@@@1V?$CDynamicPoolEx@VCRotationDecorator@NEffectUpdateDecorator@@@@A@@YAXXZ ; `dynamic atexit destructor for 'CPooledObject<NEffectUpdateDecorator::CRotationDecorator>::ms_kPool''
  00005	e8 00 00 00 00	 call	 _atexit
  0000a	59		 pop	 ecx
  0000b	c3		 ret	 0
??__E?ms_kPool@?$CPooledObject@VCRotationDecorator@NEffectUpdateDecorator@@@@1V?$CDynamicPoolEx@VCRotationDecorator@NEffectUpdateDecorator@@@@A@@YAXXZ ENDP ; `dynamic initializer for 'CPooledObject<NEffectUpdateDecorator::CRotationDecorator>::ms_kPool''
text$di	ENDS
; Function compile flags: /Ogtp
;	COMDAT ??__F?ms_kPool@?$CPooledObject@VCGravityDecorator@NEffectUpdateDecorator@@@@1V?$CDynamicPoolEx@VCGravityDecorator@NEffectUpdateDecorator@@@@A@@YAXXZ
text$yd	SEGMENT
??__F?ms_kPool@?$CPooledObject@VCGravityDecorator@NEffectUpdateDecorator@@@@1V?$CDynamicPoolEx@VCGravityDecorator@NEffectUpdateDecorator@@@@A@@YAXXZ PROC ; `dynamic atexit destructor for 'CPooledObject<NEffectUpdateDecorator::CGravityDecorator>::ms_kPool'', COMDAT
  00000	b9 00 00 00 00	 mov	 ecx, OFFSET ?ms_kPool@?$CPooledObject@VCGravityDecorator@NEffectUpdateDecorator@@@@1V?$CDynamicPoolEx@VCGravityDecorator@NEffectUpdateDecorator@@@@A ; CPooledObject<NEffectUpdateDecorator::CGravityDecorator>::ms_kPool
  00005	e9 00 00 00 00	 jmp	 ??1?$CDynamicPoolEx@VCGravityDecorator@NEffectUpdateDecorator@@@@UAE@XZ ; CDynamicPoolEx<NEffectUpdateDecorator::CGravityDecorator>::~CDynamicPoolEx<NEffectUpdateDecorator::CGravityDecorator>
??__F?ms_kPool@?$CPooledObject@VCGravityDecorator@NEffectUpdateDecorator@@@@1V?$CDynamicPoolEx@VCGravityDecorator@NEffectUpdateDecorator@@@@A@@YAXXZ ENDP ; `dynamic atexit destructor for 'CPooledObject<NEffectUpdateDecorator::CGravityDecorator>::ms_kPool''
text$yd	ENDS
; Function compile flags: /Ogtp
; File C:\Users\flourine\Desktop\Xantios\client-src\Code\eterlib\Pool.h
;	COMDAT ??__E?ms_kPool@?$CPooledObject@VCGravityDecorator@NEffectUpdateDecorator@@@@1V?$CDynamicPoolEx@VCGravityDecorator@NEffectUpdateDecorator@@@@A@@YAXXZ
text$di	SEGMENT
??__E?ms_kPool@?$CPooledObject@VCGravityDecorator@NEffectUpdateDecorator@@@@1V?$CDynamicPoolEx@VCGravityDecorator@NEffectUpdateDecorator@@@@A@@YAXXZ PROC ; `dynamic initializer for 'CPooledObject<NEffectUpdateDecorator::CGravityDecorator>::ms_kPool'', COMDAT

; 280  : template <class T> CDynamicPoolEx<T> CPooledObject<T>::ms_kPool;

  00000	68 00 00 00 00	 push	 OFFSET ??__F?ms_kPool@?$CPooledObject@VCGravityDecorator@NEffectUpdateDecorator@@@@1V?$CDynamicPoolEx@VCGravityDecorator@NEffectUpdateDecorator@@@@A@@YAXXZ ; `dynamic atexit destructor for 'CPooledObject<NEffectUpdateDecorator::CGravityDecorator>::ms_kPool''
  00005	e8 00 00 00 00	 call	 _atexit
  0000a	59		 pop	 ecx
  0000b	c3		 ret	 0
??__E?ms_kPool@?$CPooledObject@VCGravityDecorator@NEffectUpdateDecorator@@@@1V?$CDynamicPoolEx@VCGravityDecorator@NEffectUpdateDecorator@@@@A@@YAXXZ ENDP ; `dynamic initializer for 'CPooledObject<NEffectUpdateDecorator::CGravityDecorator>::ms_kPool''
text$di	ENDS
; Function compile flags: /Ogtp
;	COMDAT ??__F?ms_kPool@?$CPooledObject@VCAirResistanceDecorator@NEffectUpdateDecorator@@@@1V?$CDynamicPoolEx@VCAirResistanceDecorator@NEffectUpdateDecorator@@@@A@@YAXXZ
text$yd	SEGMENT
??__F?ms_kPool@?$CPooledObject@VCAirResistanceDecorator@NEffectUpdateDecorator@@@@1V?$CDynamicPoolEx@VCAirResistanceDecorator@NEffectUpdateDecorator@@@@A@@YAXXZ PROC ; `dynamic atexit destructor for 'CPooledObject<NEffectUpdateDecorator::CAirResistanceDecorator>::ms_kPool'', COMDAT
  00000	b9 00 00 00 00	 mov	 ecx, OFFSET ?ms_kPool@?$CPooledObject@VCAirResistanceDecorator@NEffectUpdateDecorator@@@@1V?$CDynamicPoolEx@VCAirResistanceDecorator@NEffectUpdateDecorator@@@@A ; CPooledObject<NEffectUpdateDecorator::CAirResistanceDecorator>::ms_kPool
  00005	e9 00 00 00 00	 jmp	 ??1?$CDynamicPoolEx@VCAirResistanceDecorator@NEffectUpdateDecorator@@@@UAE@XZ ; CDynamicPoolEx<NEffectUpdateDecorator::CAirResistanceDecorator>::~CDynamicPoolEx<NEffectUpdateDecorator::CAirResistanceDecorator>
??__F?ms_kPool@?$CPooledObject@VCAirResistanceDecorator@NEffectUpdateDecorator@@@@1V?$CDynamicPoolEx@VCAirResistanceDecorator@NEffectUpdateDecorator@@@@A@@YAXXZ ENDP ; `dynamic atexit destructor for 'CPooledObject<NEffectUpdateDecorator::CAirResistanceDecorator>::ms_kPool''
text$yd	ENDS
; Function compile flags: /Ogtp
; File C:\Users\flourine\Desktop\Xantios\client-src\Code\eterlib\Pool.h
;	COMDAT ??__E?ms_kPool@?$CPooledObject@VCAirResistanceDecorator@NEffectUpdateDecorator@@@@1V?$CDynamicPoolEx@VCAirResistanceDecorator@NEffectUpdateDecorator@@@@A@@YAXXZ
text$di	SEGMENT
??__E?ms_kPool@?$CPooledObject@VCAirResistanceDecorator@NEffectUpdateDecorator@@@@1V?$CDynamicPoolEx@VCAirResistanceDecorator@NEffectUpdateDecorator@@@@A@@YAXXZ PROC ; `dynamic initializer for 'CPooledObject<NEffectUpdateDecorator::CAirResistanceDecorator>::ms_kPool'', COMDAT

; 280  : template <class T> CDynamicPoolEx<T> CPooledObject<T>::ms_kPool;

  00000	68 00 00 00 00	 push	 OFFSET ??__F?ms_kPool@?$CPooledObject@VCAirResistanceDecorator@NEffectUpdateDecorator@@@@1V?$CDynamicPoolEx@VCAirResistanceDecorator@NEffectUpdateDecorator@@@@A@@YAXXZ ; `dynamic atexit destructor for 'CPooledObject<NEffectUpdateDecorator::CAirResistanceDecorator>::ms_kPool''
  00005	e8 00 00 00 00	 call	 _atexit
  0000a	59		 pop	 ecx
  0000b	c3		 ret	 0
??__E?ms_kPool@?$CPooledObject@VCAirResistanceDecorator@NEffectUpdateDecorator@@@@1V?$CDynamicPoolEx@VCAirResistanceDecorator@NEffectUpdateDecorator@@@@A@@YAXXZ ENDP ; `dynamic initializer for 'CPooledObject<NEffectUpdateDecorator::CAirResistanceDecorator>::ms_kPool''
text$di	ENDS
; Function compile flags: /Ogtp
;	COMDAT ??__F?ms_kPool@?$CPooledObject@VCTextureAnimationRandomDecorator@NEffectUpdateDecorator@@@@1V?$CDynamicPoolEx@VCTextureAnimationRandomDecorator@NEffectUpdateDecorator@@@@A@@YAXXZ
text$yd	SEGMENT
??__F?ms_kPool@?$CPooledObject@VCTextureAnimationRandomDecorator@NEffectUpdateDecorator@@@@1V?$CDynamicPoolEx@VCTextureAnimationRandomDecorator@NEffectUpdateDecorator@@@@A@@YAXXZ PROC ; `dynamic atexit destructor for 'CPooledObject<NEffectUpdateDecorator::CTextureAnimationRandomDecorator>::ms_kPool'', COMDAT
  00000	b9 00 00 00 00	 mov	 ecx, OFFSET ?ms_kPool@?$CPooledObject@VCTextureAnimationRandomDecorator@NEffectUpdateDecorator@@@@1V?$CDynamicPoolEx@VCTextureAnimationRandomDecorator@NEffectUpdateDecorator@@@@A ; CPooledObject<NEffectUpdateDecorator::CTextureAnimationRandomDecorator>::ms_kPool
  00005	e9 00 00 00 00	 jmp	 ??1?$CDynamicPoolEx@VCTextureAnimationRandomDecorator@NEffectUpdateDecorator@@@@UAE@XZ ; CDynamicPoolEx<NEffectUpdateDecorator::CTextureAnimationRandomDecorator>::~CDynamicPoolEx<NEffectUpdateDecorator::CTextureAnimationRandomDecorator>
??__F?ms_kPool@?$CPooledObject@VCTextureAnimationRandomDecorator@NEffectUpdateDecorator@@@@1V?$CDynamicPoolEx@VCTextureAnimationRandomDecorator@NEffectUpdateDecorator@@@@A@@YAXXZ ENDP ; `dynamic atexit destructor for 'CPooledObject<NEffectUpdateDecorator::CTextureAnimationRandomDecorator>::ms_kPool''
text$yd	ENDS
; Function compile flags: /Ogtp
; File C:\Users\flourine\Desktop\Xantios\client-src\Code\eterlib\Pool.h
;	COMDAT ??__E?ms_kPool@?$CPooledObject@VCTextureAnimationRandomDecorator@NEffectUpdateDecorator@@@@1V?$CDynamicPoolEx@VCTextureAnimationRandomDecorator@NEffectUpdateDecorator@@@@A@@YAXXZ
text$di	SEGMENT
??__E?ms_kPool@?$CPooledObject@VCTextureAnimationRandomDecorator@NEffectUpdateDecorator@@@@1V?$CDynamicPoolEx@VCTextureAnimationRandomDecorator@NEffectUpdateDecorator@@@@A@@YAXXZ PROC ; `dynamic initializer for 'CPooledObject<NEffectUpdateDecorator::CTextureAnimationRandomDecorator>::ms_kPool'', COMDAT

; 280  : template <class T> CDynamicPoolEx<T> CPooledObject<T>::ms_kPool;

  00000	68 00 00 00 00	 push	 OFFSET ??__F?ms_kPool@?$CPooledObject@VCTextureAnimationRandomDecorator@NEffectUpdateDecorator@@@@1V?$CDynamicPoolEx@VCTextureAnimationRandomDecorator@NEffectUpdateDecorator@@@@A@@YAXXZ ; `dynamic atexit destructor for 'CPooledObject<NEffectUpdateDecorator::CTextureAnimationRandomDecorator>::ms_kPool''
  00005	e8 00 00 00 00	 call	 _atexit
  0000a	59		 pop	 ecx
  0000b	c3		 ret	 0
??__E?ms_kPool@?$CPooledObject@VCTextureAnimationRandomDecorator@NEffectUpdateDecorator@@@@1V?$CDynamicPoolEx@VCTextureAnimationRandomDecorator@NEffectUpdateDecorator@@@@A@@YAXXZ ENDP ; `dynamic initializer for 'CPooledObject<NEffectUpdateDecorator::CTextureAnimationRandomDecorator>::ms_kPool''
text$di	ENDS
; Function compile flags: /Ogtp
;	COMDAT ??__F?ms_kPool@?$CPooledObject@VCTextureAnimationCCWDecorator@NEffectUpdateDecorator@@@@1V?$CDynamicPoolEx@VCTextureAnimationCCWDecorator@NEffectUpdateDecorator@@@@A@@YAXXZ
text$yd	SEGMENT
??__F?ms_kPool@?$CPooledObject@VCTextureAnimationCCWDecorator@NEffectUpdateDecorator@@@@1V?$CDynamicPoolEx@VCTextureAnimationCCWDecorator@NEffectUpdateDecorator@@@@A@@YAXXZ PROC ; `dynamic atexit destructor for 'CPooledObject<NEffectUpdateDecorator::CTextureAnimationCCWDecorator>::ms_kPool'', COMDAT
  00000	b9 00 00 00 00	 mov	 ecx, OFFSET ?ms_kPool@?$CPooledObject@VCTextureAnimationCCWDecorator@NEffectUpdateDecorator@@@@1V?$CDynamicPoolEx@VCTextureAnimationCCWDecorator@NEffectUpdateDecorator@@@@A ; CPooledObject<NEffectUpdateDecorator::CTextureAnimationCCWDecorator>::ms_kPool
  00005	e9 00 00 00 00	 jmp	 ??1?$CDynamicPoolEx@VCTextureAnimationCCWDecorator@NEffectUpdateDecorator@@@@UAE@XZ ; CDynamicPoolEx<NEffectUpdateDecorator::CTextureAnimationCCWDecorator>::~CDynamicPoolEx<NEffectUpdateDecorator::CTextureAnimationCCWDecorator>
??__F?ms_kPool@?$CPooledObject@VCTextureAnimationCCWDecorator@NEffectUpdateDecorator@@@@1V?$CDynamicPoolEx@VCTextureAnimationCCWDecorator@NEffectUpdateDecorator@@@@A@@YAXXZ ENDP ; `dynamic atexit destructor for 'CPooledObject<NEffectUpdateDecorator::CTextureAnimationCCWDecorator>::ms_kPool''
text$yd	ENDS
; Function compile flags: /Ogtp
; File C:\Users\flourine\Desktop\Xantios\client-src\Code\eterlib\Pool.h
;	COMDAT ??__E?ms_kPool@?$CPooledObject@VCTextureAnimationCCWDecorator@NEffectUpdateDecorator@@@@1V?$CDynamicPoolEx@VCTextureAnimationCCWDecorator@NEffectUpdateDecorator@@@@A@@YAXXZ
text$di	SEGMENT
??__E?ms_kPool@?$CPooledObject@VCTextureAnimationCCWDecorator@NEffectUpdateDecorator@@@@1V?$CDynamicPoolEx@VCTextureAnimationCCWDecorator@NEffectUpdateDecorator@@@@A@@YAXXZ PROC ; `dynamic initializer for 'CPooledObject<NEffectUpdateDecorator::CTextureAnimationCCWDecorator>::ms_kPool'', COMDAT

; 280  : template <class T> CDynamicPoolEx<T> CPooledObject<T>::ms_kPool;

  00000	68 00 00 00 00	 push	 OFFSET ??__F?ms_kPool@?$CPooledObject@VCTextureAnimationCCWDecorator@NEffectUpdateDecorator@@@@1V?$CDynamicPoolEx@VCTextureAnimationCCWDecorator@NEffectUpdateDecorator@@@@A@@YAXXZ ; `dynamic atexit destructor for 'CPooledObject<NEffectUpdateDecorator::CTextureAnimationCCWDecorator>::ms_kPool''
  00005	e8 00 00 00 00	 call	 _atexit
  0000a	59		 pop	 ecx
  0000b	c3		 ret	 0
??__E?ms_kPool@?$CPooledObject@VCTextureAnimationCCWDecorator@NEffectUpdateDecorator@@@@1V?$CDynamicPoolEx@VCTextureAnimationCCWDecorator@NEffectUpdateDecorator@@@@A@@YAXXZ ENDP ; `dynamic initializer for 'CPooledObject<NEffectUpdateDecorator::CTextureAnimationCCWDecorator>::ms_kPool''
text$di	ENDS
; Function compile flags: /Ogtp
;	COMDAT ??__F?ms_kPool@?$CPooledObject@VCTextureAnimationCWDecorator@NEffectUpdateDecorator@@@@1V?$CDynamicPoolEx@VCTextureAnimationCWDecorator@NEffectUpdateDecorator@@@@A@@YAXXZ
text$yd	SEGMENT
??__F?ms_kPool@?$CPooledObject@VCTextureAnimationCWDecorator@NEffectUpdateDecorator@@@@1V?$CDynamicPoolEx@VCTextureAnimationCWDecorator@NEffectUpdateDecorator@@@@A@@YAXXZ PROC ; `dynamic atexit destructor for 'CPooledObject<NEffectUpdateDecorator::CTextureAnimationCWDecorator>::ms_kPool'', COMDAT
  00000	b9 00 00 00 00	 mov	 ecx, OFFSET ?ms_kPool@?$CPooledObject@VCTextureAnimationCWDecorator@NEffectUpdateDecorator@@@@1V?$CDynamicPoolEx@VCTextureAnimationCWDecorator@NEffectUpdateDecorator@@@@A ; CPooledObject<NEffectUpdateDecorator::CTextureAnimationCWDecorator>::ms_kPool
  00005	e9 00 00 00 00	 jmp	 ??1?$CDynamicPoolEx@VCTextureAnimationCWDecorator@NEffectUpdateDecorator@@@@UAE@XZ ; CDynamicPoolEx<NEffectUpdateDecorator::CTextureAnimationCWDecorator>::~CDynamicPoolEx<NEffectUpdateDecorator::CTextureAnimationCWDecorator>
??__F?ms_kPool@?$CPooledObject@VCTextureAnimationCWDecorator@NEffectUpdateDecorator@@@@1V?$CDynamicPoolEx@VCTextureAnimationCWDecorator@NEffectUpdateDecorator@@@@A@@YAXXZ ENDP ; `dynamic atexit destructor for 'CPooledObject<NEffectUpdateDecorator::CTextureAnimationCWDecorator>::ms_kPool''
text$yd	ENDS
; Function compile flags: /Ogtp
; File C:\Users\flourine\Desktop\Xantios\client-src\Code\eterlib\Pool.h
;	COMDAT ??__E?ms_kPool@?$CPooledObject@VCTextureAnimationCWDecorator@NEffectUpdateDecorator@@@@1V?$CDynamicPoolEx@VCTextureAnimationCWDecorator@NEffectUpdateDecorator@@@@A@@YAXXZ
text$di	SEGMENT
??__E?ms_kPool@?$CPooledObject@VCTextureAnimationCWDecorator@NEffectUpdateDecorator@@@@1V?$CDynamicPoolEx@VCTextureAnimationCWDecorator@NEffectUpdateDecorator@@@@A@@YAXXZ PROC ; `dynamic initializer for 'CPooledObject<NEffectUpdateDecorator::CTextureAnimationCWDecorator>::ms_kPool'', COMDAT

; 280  : template <class T> CDynamicPoolEx<T> CPooledObject<T>::ms_kPool;

  00000	68 00 00 00 00	 push	 OFFSET ??__F?ms_kPool@?$CPooledObject@VCTextureAnimationCWDecorator@NEffectUpdateDecorator@@@@1V?$CDynamicPoolEx@VCTextureAnimationCWDecorator@NEffectUpdateDecorator@@@@A@@YAXXZ ; `dynamic atexit destructor for 'CPooledObject<NEffectUpdateDecorator::CTextureAnimationCWDecorator>::ms_kPool''
  00005	e8 00 00 00 00	 call	 _atexit
  0000a	59		 pop	 ecx
  0000b	c3		 ret	 0
??__E?ms_kPool@?$CPooledObject@VCTextureAnimationCWDecorator@NEffectUpdateDecorator@@@@1V?$CDynamicPoolEx@VCTextureAnimationCWDecorator@NEffectUpdateDecorator@@@@A@@YAXXZ ENDP ; `dynamic initializer for 'CPooledObject<NEffectUpdateDecorator::CTextureAnimationCWDecorator>::ms_kPool''
text$di	ENDS
; Function compile flags: /Ogtp
;	COMDAT ??__F?ms_kPool@?$CPooledObject@VCNullDecorator@NEffectUpdateDecorator@@@@1V?$CDynamicPoolEx@VCNullDecorator@NEffectUpdateDecorator@@@@A@@YAXXZ
text$yd	SEGMENT
??__F?ms_kPool@?$CPooledObject@VCNullDecorator@NEffectUpdateDecorator@@@@1V?$CDynamicPoolEx@VCNullDecorator@NEffectUpdateDecorator@@@@A@@YAXXZ PROC ; `dynamic atexit destructor for 'CPooledObject<NEffectUpdateDecorator::CNullDecorator>::ms_kPool'', COMDAT
  00000	b9 00 00 00 00	 mov	 ecx, OFFSET ?ms_kPool@?$CPooledObject@VCNullDecorator@NEffectUpdateDecorator@@@@1V?$CDynamicPoolEx@VCNullDecorator@NEffectUpdateDecorator@@@@A ; CPooledObject<NEffectUpdateDecorator::CNullDecorator>::ms_kPool
  00005	e9 00 00 00 00	 jmp	 ??1?$CDynamicPoolEx@VCNullDecorator@NEffectUpdateDecorator@@@@UAE@XZ ; CDynamicPoolEx<NEffectUpdateDecorator::CNullDecorator>::~CDynamicPoolEx<NEffectUpdateDecorator::CNullDecorator>
??__F?ms_kPool@?$CPooledObject@VCNullDecorator@NEffectUpdateDecorator@@@@1V?$CDynamicPoolEx@VCNullDecorator@NEffectUpdateDecorator@@@@A@@YAXXZ ENDP ; `dynamic atexit destructor for 'CPooledObject<NEffectUpdateDecorator::CNullDecorator>::ms_kPool''
text$yd	ENDS
; Function compile flags: /Ogtp
; File C:\Users\flourine\Desktop\Xantios\client-src\Code\eterlib\Pool.h
;	COMDAT ??__E?ms_kPool@?$CPooledObject@VCNullDecorator@NEffectUpdateDecorator@@@@1V?$CDynamicPoolEx@VCNullDecorator@NEffectUpdateDecorator@@@@A@@YAXXZ
text$di	SEGMENT
??__E?ms_kPool@?$CPooledObject@VCNullDecorator@NEffectUpdateDecorator@@@@1V?$CDynamicPoolEx@VCNullDecorator@NEffectUpdateDecorator@@@@A@@YAXXZ PROC ; `dynamic initializer for 'CPooledObject<NEffectUpdateDecorator::CNullDecorator>::ms_kPool'', COMDAT

; 280  : template <class T> CDynamicPoolEx<T> CPooledObject<T>::ms_kPool;

  00000	68 00 00 00 00	 push	 OFFSET ??__F?ms_kPool@?$CPooledObject@VCNullDecorator@NEffectUpdateDecorator@@@@1V?$CDynamicPoolEx@VCNullDecorator@NEffectUpdateDecorator@@@@A@@YAXXZ ; `dynamic atexit destructor for 'CPooledObject<NEffectUpdateDecorator::CNullDecorator>::ms_kPool''
  00005	e8 00 00 00 00	 call	 _atexit
  0000a	59		 pop	 ecx
  0000b	c3		 ret	 0
??__E?ms_kPool@?$CPooledObject@VCNullDecorator@NEffectUpdateDecorator@@@@1V?$CDynamicPoolEx@VCNullDecorator@NEffectUpdateDecorator@@@@A@@YAXXZ ENDP ; `dynamic initializer for 'CPooledObject<NEffectUpdateDecorator::CNullDecorator>::ms_kPool''
text$di	ENDS
; Function compile flags: /Ogtp
;	COMDAT ??__F?ms_kPool@?$CPooledObject@VCHeaderDecorator@NEffectUpdateDecorator@@@@1V?$CDynamicPoolEx@VCHeaderDecorator@NEffectUpdateDecorator@@@@A@@YAXXZ
text$yd	SEGMENT
??__F?ms_kPool@?$CPooledObject@VCHeaderDecorator@NEffectUpdateDecorator@@@@1V?$CDynamicPoolEx@VCHeaderDecorator@NEffectUpdateDecorator@@@@A@@YAXXZ PROC ; `dynamic atexit destructor for 'CPooledObject<NEffectUpdateDecorator::CHeaderDecorator>::ms_kPool'', COMDAT
  00000	b9 00 00 00 00	 mov	 ecx, OFFSET ?ms_kPool@?$CPooledObject@VCHeaderDecorator@NEffectUpdateDecorator@@@@1V?$CDynamicPoolEx@VCHeaderDecorator@NEffectUpdateDecorator@@@@A ; CPooledObject<NEffectUpdateDecorator::CHeaderDecorator>::ms_kPool
  00005	e9 00 00 00 00	 jmp	 ??1?$CDynamicPoolEx@VCHeaderDecorator@NEffectUpdateDecorator@@@@UAE@XZ ; CDynamicPoolEx<NEffectUpdateDecorator::CHeaderDecorator>::~CDynamicPoolEx<NEffectUpdateDecorator::CHeaderDecorator>
??__F?ms_kPool@?$CPooledObject@VCHeaderDecorator@NEffectUpdateDecorator@@@@1V?$CDynamicPoolEx@VCHeaderDecorator@NEffectUpdateDecorator@@@@A@@YAXXZ ENDP ; `dynamic atexit destructor for 'CPooledObject<NEffectUpdateDecorator::CHeaderDecorator>::ms_kPool''
text$yd	ENDS
; Function compile flags: /Ogtp
; File C:\Users\flourine\Desktop\Xantios\client-src\Code\eterlib\Pool.h
;	COMDAT ??__E?ms_kPool@?$CPooledObject@VCHeaderDecorator@NEffectUpdateDecorator@@@@1V?$CDynamicPoolEx@VCHeaderDecorator@NEffectUpdateDecorator@@@@A@@YAXXZ
text$di	SEGMENT
??__E?ms_kPool@?$CPooledObject@VCHeaderDecorator@NEffectUpdateDecorator@@@@1V?$CDynamicPoolEx@VCHeaderDecorator@NEffectUpdateDecorator@@@@A@@YAXXZ PROC ; `dynamic initializer for 'CPooledObject<NEffectUpdateDecorator::CHeaderDecorator>::ms_kPool'', COMDAT

; 280  : template <class T> CDynamicPoolEx<T> CPooledObject<T>::ms_kPool;

  00000	68 00 00 00 00	 push	 OFFSET ??__F?ms_kPool@?$CPooledObject@VCHeaderDecorator@NEffectUpdateDecorator@@@@1V?$CDynamicPoolEx@VCHeaderDecorator@NEffectUpdateDecorator@@@@A@@YAXXZ ; `dynamic atexit destructor for 'CPooledObject<NEffectUpdateDecorator::CHeaderDecorator>::ms_kPool''
  00005	e8 00 00 00 00	 call	 _atexit
  0000a	59		 pop	 ecx
  0000b	c3		 ret	 0
??__E?ms_kPool@?$CPooledObject@VCHeaderDecorator@NEffectUpdateDecorator@@@@1V?$CDynamicPoolEx@VCHeaderDecorator@NEffectUpdateDecorator@@@@A@@YAXXZ ENDP ; `dynamic initializer for 'CPooledObject<NEffectUpdateDecorator::CHeaderDecorator>::ms_kPool''
text$di	ENDS
; Function compile flags: /Ogtp
;	COMDAT ??_G?$CDynamicPoolEx@VCHeaderDecorator@NEffectUpdateDecorator@@@@UAEPAXI@Z
_TEXT	SEGMENT
___flags$ = 8						; size = 4
??_G?$CDynamicPoolEx@VCHeaderDecorator@NEffectUpdateDecorator@@@@UAEPAXI@Z PROC ; CDynamicPoolEx<NEffectUpdateDecorator::CHeaderDecorator>::`scalar deleting destructor', COMDAT
; _this$ = ecx
  00000	55		 push	 ebp
  00001	8b ec		 mov	 ebp, esp
  00003	56		 push	 esi
  00004	8b f1		 mov	 esi, ecx
  00006	e8 00 00 00 00	 call	 ??1?$CDynamicPoolEx@VCHeaderDecorator@NEffectUpdateDecorator@@@@UAE@XZ ; CDynamicPoolEx<NEffectUpdateDecorator::CHeaderDecorator>::~CDynamicPoolEx<NEffectUpdateDecorator::CHeaderDecorator>
  0000b	f6 45 08 01	 test	 BYTE PTR ___flags$[ebp], 1
  0000f	74 0b		 je	 SHORT $LN4@scalar
  00011	6a 24		 push	 36			; 00000024H
  00013	56		 push	 esi
  00014	e8 00 00 00 00	 call	 ??3@YAXPAXI@Z		; operator delete
  00019	83 c4 08	 add	 esp, 8
$LN4@scalar:
  0001c	8b c6		 mov	 eax, esi
  0001e	5e		 pop	 esi
  0001f	5d		 pop	 ebp
  00020	c2 04 00	 ret	 4
??_G?$CDynamicPoolEx@VCHeaderDecorator@NEffectUpdateDecorator@@@@UAEPAXI@Z ENDP ; CDynamicPoolEx<NEffectUpdateDecorator::CHeaderDecorator>::`scalar deleting destructor'
_TEXT	ENDS
; Function compile flags: /Ogtp
; File C:\Users\flourine\Desktop\Xantios\client-src\Code\eterlib\Pool.h
;	COMDAT ?Delete@?$CDynamicPoolEx@VCHeaderDecorator@NEffectUpdateDecorator@@@@KAXPAVCHeaderDecorator@NEffectUpdateDecorator@@@Z
_TEXT	SEGMENT
_pkData$ = 8						; size = 4
?Delete@?$CDynamicPoolEx@VCHeaderDecorator@NEffectUpdateDecorator@@@@KAXPAVCHeaderDecorator@NEffectUpdateDecorator@@@Z PROC ; CDynamicPoolEx<NEffectUpdateDecorator::CHeaderDecorator>::Delete, COMDAT

; 232  : 		::operator delete (pkData);

  00000	e9 00 00 00 00	 jmp	 ??3@YAXPAX@Z		; operator delete
?Delete@?$CDynamicPoolEx@VCHeaderDecorator@NEffectUpdateDecorator@@@@KAXPAVCHeaderDecorator@NEffectUpdateDecorator@@@Z ENDP ; CDynamicPoolEx<NEffectUpdateDecorator::CHeaderDecorator>::Delete
_TEXT	ENDS
; Function compile flags: /Ogtp
; File C:\Users\flourine\Desktop\Xantios\client-src\Code\eterlib\Pool.h
; File C:\Program Files\Microsoft Visual Studio\2022\Community\VC\Tools\MSVC\14.34.31933\include\vector
; File C:\Program Files\Microsoft Visual Studio\2022\Community\VC\Tools\MSVC\14.34.31933\include\algorithm
; File C:\Users\flourine\Desktop\Xantios\client-src\Code\eterlib\Pool.h
; File C:\Program Files\Microsoft Visual Studio\2022\Community\VC\Tools\MSVC\14.34.31933\include\algorithm
; File C:\Users\flourine\Desktop\Xantios\client-src\Code\eterlib\Pool.h
; File C:\Program Files\Microsoft Visual Studio\2022\Community\VC\Tools\MSVC\14.34.31933\include\algorithm
; File C:\Program Files\Microsoft Visual Studio\2022\Community\VC\Tools\MSVC\14.34.31933\include\vector
; File C:\Program Files\Microsoft Visual Studio\2022\Community\VC\Tools\MSVC\14.34.31933\include\xmemory
; File C:\Program Files\Microsoft Visual Studio\2022\Community\VC\Tools\MSVC\14.34.31933\include\vector
; File C:\Program Files\Microsoft Visual Studio\2022\Community\VC\Tools\MSVC\14.34.31933\include\xmemory
; File C:\Program Files\Microsoft Visual Studio\2022\Community\VC\Tools\MSVC\14.34.31933\include\vector
; File C:\Program Files\Microsoft Visual Studio\2022\Community\VC\Tools\MSVC\14.34.31933\include\xmemory
; File C:\Program Files\Microsoft Visual Studio\2022\Community\VC\Tools\MSVC\14.34.31933\include\vector
; File C:\Program Files\Microsoft Visual Studio\2022\Community\VC\Tools\MSVC\14.34.31933\include\xmemory
; File C:\Program Files\Microsoft Visual Studio\2022\Community\VC\Tools\MSVC\14.34.31933\include\vector
; File C:\Users\flourine\Desktop\Xantios\client-src\Code\eterlib\Pool.h
; File C:\Program Files\Microsoft Visual Studio\2022\Community\VC\Tools\MSVC\14.34.31933\include\xmemory
; File C:\Users\flourine\Desktop\Xantios\client-src\Code\eterlib\Pool.h
;	COMDAT ??1?$CDynamicPoolEx@VCHeaderDecorator@NEffectUpdateDecorator@@@@UAE@XZ
_TEXT	SEGMENT
__$EHRec$ = -12						; size = 12
??1?$CDynamicPoolEx@VCHeaderDecorator@NEffectUpdateDecorator@@@@UAE@XZ PROC ; CDynamicPoolEx<NEffectUpdateDecorator::CHeaderDecorator>::~CDynamicPoolEx<NEffectUpdateDecorator::CHeaderDecorator>, COMDAT
; _this$ = ecx

; 136  : 	{

  00000	55		 push	 ebp
  00001	8b ec		 mov	 ebp, esp
  00003	6a ff		 push	 -1
  00005	68 00 00 00 00	 push	 __ehhandler$??1?$CDynamicPoolEx@VCHeaderDecorator@NEffectUpdateDecorator@@@@UAE@XZ
  0000a	64 a1 00 00 00
	00		 mov	 eax, DWORD PTR fs:0
  00010	50		 push	 eax
  00011	53		 push	 ebx
  00012	56		 push	 esi
  00013	57		 push	 edi
  00014	a1 00 00 00 00	 mov	 eax, DWORD PTR ___security_cookie
  00019	33 c5		 xor	 eax, ebp
  0001b	50		 push	 eax
  0001c	8d 45 f4	 lea	 eax, DWORD PTR __$EHRec$[ebp]
  0001f	64 a3 00 00 00
	00		 mov	 DWORD PTR fs:0, eax
  00025	8b f9		 mov	 edi, ecx
  00027	c7 07 00 00 00
	00		 mov	 DWORD PTR [edi], OFFSET ??_7?$CDynamicPoolEx@VCHeaderDecorator@NEffectUpdateDecorator@@@@6B@
; File C:\Program Files\Microsoft Visual Studio\2022\Community\VC\Tools\MSVC\14.34.31933\include\vector

; 41   :     _CONSTEXPR20 _Vector_const_iterator(_Tptr _Parg, const _Container_base* _Pvector) noexcept : _Ptr(_Parg) {

  0002d	8b 5f 08	 mov	 ebx, DWORD PTR [edi+8]
; File C:\Program Files\Microsoft Visual Studio\2022\Community\VC\Tools\MSVC\14.34.31933\include\algorithm

; 265  :     for (; _UFirst != _ULast; ++_UFirst) {

  00030	8b 77 04	 mov	 esi, DWORD PTR [edi+4]
  00033	3b f3		 cmp	 esi, ebx
  00035	74 11		 je	 SHORT $LN19@CDynamicPo
$LL20@CDynamicPo:
; File C:\Users\flourine\Desktop\Xantios\client-src\Code\eterlib\Pool.h

; 232  : 		::operator delete (pkData);

  00037	ff 36		 push	 DWORD PTR [esi]
  00039	e8 00 00 00 00	 call	 ??3@YAXPAX@Z		; operator delete
; File C:\Program Files\Microsoft Visual Studio\2022\Community\VC\Tools\MSVC\14.34.31933\include\algorithm

; 265  :     for (; _UFirst != _ULast; ++_UFirst) {

  0003e	83 c6 04	 add	 esi, 4
; File C:\Users\flourine\Desktop\Xantios\client-src\Code\eterlib\Pool.h

; 232  : 		::operator delete (pkData);

  00041	83 c4 04	 add	 esp, 4
; File C:\Program Files\Microsoft Visual Studio\2022\Community\VC\Tools\MSVC\14.34.31933\include\algorithm

; 265  :     for (; _UFirst != _ULast; ++_UFirst) {

  00044	3b f3		 cmp	 esi, ebx
  00046	75 ef		 jne	 SHORT $LL20@CDynamicPo
$LN19@CDynamicPo:
; File C:\Program Files\Microsoft Visual Studio\2022\Community\VC\Tools\MSVC\14.34.31933\include\vector

; 1829 :         if (_Myfirst == _Mylast) { // already empty, nothing to do

  00048	8b 47 04	 mov	 eax, DWORD PTR [edi+4]
  0004b	3b 47 08	 cmp	 eax, DWORD PTR [edi+8]
  0004e	74 03		 je	 SHORT $LN26@CDynamicPo

; 1830 :             // This is an optimization for debug mode: we can avoid taking the debug lock to invalidate iterators.
; 1831 :             // Note that when clearing an empty vector, this will preserve past-the-end iterators, which is allowed by
; 1832 :             // N4901 [tab:container.seq.req] "a.clear() [...] may invalidate the past-the-end iterator".
; 1833 :             return;
; 1834 :         }
; 1835 : 
; 1836 :         _My_data._Orphan_all();
; 1837 :         _Destroy_range(_Myfirst, _Mylast, _Getal());
; 1838 :         _ASAN_VECTOR_MODIFY(static_cast<difference_type>(_Myfirst - _Mylast)); // negative when destroying elements
; 1839 :         _Mylast = _Myfirst;

  00050	89 47 08	 mov	 DWORD PTR [edi+8], eax
$LN26@CDynamicPo:

; 1829 :         if (_Myfirst == _Mylast) { // already empty, nothing to do

  00053	8b 47 10	 mov	 eax, DWORD PTR [edi+16]
  00056	3b 47 14	 cmp	 eax, DWORD PTR [edi+20]
  00059	74 03		 je	 SHORT $LN29@CDynamicPo

; 1830 :             // This is an optimization for debug mode: we can avoid taking the debug lock to invalidate iterators.
; 1831 :             // Note that when clearing an empty vector, this will preserve past-the-end iterators, which is allowed by
; 1832 :             // N4901 [tab:container.seq.req] "a.clear() [...] may invalidate the past-the-end iterator".
; 1833 :             return;
; 1834 :         }
; 1835 : 
; 1836 :         _My_data._Orphan_all();
; 1837 :         _Destroy_range(_Myfirst, _Mylast, _Getal());
; 1838 :         _ASAN_VECTOR_MODIFY(static_cast<difference_type>(_Myfirst - _Mylast)); // negative when destroying elements
; 1839 :         _Mylast = _Myfirst;

  0005b	89 47 14	 mov	 DWORD PTR [edi+20], eax
$LN29@CDynamicPo:

; 2107 :         if (_Myfirst) { // destroy and deallocate old array

  0005e	85 c0		 test	 eax, eax
  00060	74 41		 je	 SHORT $LN35@CDynamicPo

; 2108 :             _Destroy_range(_Myfirst, _Mylast, _Al);
; 2109 :             _ASAN_VECTOR_REMOVE;
; 2110 :             _Al.deallocate(_Myfirst, static_cast<size_type>(_Myend - _Myfirst));

  00062	8b 4f 18	 mov	 ecx, DWORD PTR [edi+24]
  00065	2b c8		 sub	 ecx, eax
; File C:\Program Files\Microsoft Visual Studio\2022\Community\VC\Tools\MSVC\14.34.31933\include\xmemory

; 830  :         _Deallocate<_New_alignof<_Ty>>(_Ptr, sizeof(_Ty) * _Count);

  00067	83 e1 fc	 and	 ecx, -4			; fffffffcH

; 251  :         if (_Bytes >= _Big_allocation_threshold) { // boost the alignment of big allocations to help autovectorization

  0006a	81 f9 00 10 00
	00		 cmp	 ecx, 4096		; 00001000H
  00070	72 12		 jb	 SHORT $LN51@CDynamicPo

; 150  :     const uintptr_t _Ptr_container   = _Ptr_user[-1];

  00072	8b 50 fc	 mov	 edx, DWORD PTR [eax-4]
  00075	83 c1 23	 add	 ecx, 35			; 00000023H

; 151  : 
; 152  :     // If the following asserts, it likely means that we are performing
; 153  :     // an aligned delete on memory coming from an unaligned allocation.
; 154  :     _STL_ASSERT(_Ptr_user[-2] == _Big_allocation_sentinel, "invalid argument");
; 155  : 
; 156  :     // Extra paranoia on aligned allocation/deallocation; ensure _Ptr_container is
; 157  :     // in range [_Min_back_shift, _Non_user_size]
; 158  : #ifdef _DEBUG
; 159  :     constexpr uintptr_t _Min_back_shift = 2 * sizeof(void*);
; 160  : #else // ^^^ _DEBUG ^^^ // vvv !_DEBUG vvv
; 161  :     constexpr uintptr_t _Min_back_shift = sizeof(void*);
; 162  : #endif // _DEBUG
; 163  :     const uintptr_t _Back_shift = reinterpret_cast<uintptr_t>(_Ptr) - _Ptr_container;

  00078	2b c2		 sub	 eax, edx

; 164  :     _STL_VERIFY(_Back_shift >= _Min_back_shift && _Back_shift <= _Non_user_size, "invalid argument");

  0007a	83 c0 fc	 add	 eax, -4			; fffffffcH
  0007d	83 f8 1f	 cmp	 eax, 31			; 0000001fH
  00080	77 7b		 ja	 SHORT $LN73@CDynamicPo

; 165  :     _Ptr = reinterpret_cast<void*>(_Ptr_container);

  00082	8b c2		 mov	 eax, edx
$LN51@CDynamicPo:

; 255  :         ::operator delete(_Ptr, _Bytes);

  00084	51		 push	 ecx
  00085	50		 push	 eax
  00086	e8 00 00 00 00	 call	 ??3@YAXPAXI@Z		; operator delete
; File C:\Program Files\Microsoft Visual Studio\2022\Community\VC\Tools\MSVC\14.34.31933\include\vector

; 2112 :             _Myfirst = nullptr;

  0008b	c7 47 10 00 00
	00 00		 mov	 DWORD PTR [edi+16], 0
; File C:\Program Files\Microsoft Visual Studio\2022\Community\VC\Tools\MSVC\14.34.31933\include\xmemory

; 255  :         ::operator delete(_Ptr, _Bytes);

  00092	83 c4 08	 add	 esp, 8
; File C:\Program Files\Microsoft Visual Studio\2022\Community\VC\Tools\MSVC\14.34.31933\include\vector

; 2113 :             _Mylast  = nullptr;

  00095	c7 47 14 00 00
	00 00		 mov	 DWORD PTR [edi+20], 0

; 2114 :             _Myend   = nullptr;

  0009c	c7 47 18 00 00
	00 00		 mov	 DWORD PTR [edi+24], 0
$LN35@CDynamicPo:

; 2107 :         if (_Myfirst) { // destroy and deallocate old array

  000a3	8b 47 04	 mov	 eax, DWORD PTR [edi+4]
  000a6	85 c0		 test	 eax, eax
  000a8	74 41		 je	 SHORT $LN60@CDynamicPo

; 2108 :             _Destroy_range(_Myfirst, _Mylast, _Al);
; 2109 :             _ASAN_VECTOR_REMOVE;
; 2110 :             _Al.deallocate(_Myfirst, static_cast<size_type>(_Myend - _Myfirst));

  000aa	8b 4f 0c	 mov	 ecx, DWORD PTR [edi+12]
  000ad	2b c8		 sub	 ecx, eax
; File C:\Program Files\Microsoft Visual Studio\2022\Community\VC\Tools\MSVC\14.34.31933\include\xmemory

; 830  :         _Deallocate<_New_alignof<_Ty>>(_Ptr, sizeof(_Ty) * _Count);

  000af	83 e1 fc	 and	 ecx, -4			; fffffffcH

; 251  :         if (_Bytes >= _Big_allocation_threshold) { // boost the alignment of big allocations to help autovectorization

  000b2	81 f9 00 10 00
	00		 cmp	 ecx, 4096		; 00001000H
  000b8	72 12		 jb	 SHORT $LN76@CDynamicPo

; 150  :     const uintptr_t _Ptr_container   = _Ptr_user[-1];

  000ba	8b 50 fc	 mov	 edx, DWORD PTR [eax-4]
  000bd	83 c1 23	 add	 ecx, 35			; 00000023H

; 151  : 
; 152  :     // If the following asserts, it likely means that we are performing
; 153  :     // an aligned delete on memory coming from an unaligned allocation.
; 154  :     _STL_ASSERT(_Ptr_user[-2] == _Big_allocation_sentinel, "invalid argument");
; 155  : 
; 156  :     // Extra paranoia on aligned allocation/deallocation; ensure _Ptr_container is
; 157  :     // in range [_Min_back_shift, _Non_user_size]
; 158  : #ifdef _DEBUG
; 159  :     constexpr uintptr_t _Min_back_shift = 2 * sizeof(void*);
; 160  : #else // ^^^ _DEBUG ^^^ // vvv !_DEBUG vvv
; 161  :     constexpr uintptr_t _Min_back_shift = sizeof(void*);
; 162  : #endif // _DEBUG
; 163  :     const uintptr_t _Back_shift = reinterpret_cast<uintptr_t>(_Ptr) - _Ptr_container;

  000c0	2b c2		 sub	 eax, edx

; 164  :     _STL_VERIFY(_Back_shift >= _Min_back_shift && _Back_shift <= _Non_user_size, "invalid argument");

  000c2	83 c0 fc	 add	 eax, -4			; fffffffcH
  000c5	83 f8 1f	 cmp	 eax, 31			; 0000001fH
  000c8	77 33		 ja	 SHORT $LN73@CDynamicPo

; 165  :     _Ptr = reinterpret_cast<void*>(_Ptr_container);

  000ca	8b c2		 mov	 eax, edx
$LN76@CDynamicPo:

; 255  :         ::operator delete(_Ptr, _Bytes);

  000cc	51		 push	 ecx
  000cd	50		 push	 eax
  000ce	e8 00 00 00 00	 call	 ??3@YAXPAXI@Z		; operator delete
; File C:\Program Files\Microsoft Visual Studio\2022\Community\VC\Tools\MSVC\14.34.31933\include\vector

; 2112 :             _Myfirst = nullptr;

  000d3	c7 47 04 00 00
	00 00		 mov	 DWORD PTR [edi+4], 0
; File C:\Program Files\Microsoft Visual Studio\2022\Community\VC\Tools\MSVC\14.34.31933\include\xmemory

; 255  :         ::operator delete(_Ptr, _Bytes);

  000da	83 c4 08	 add	 esp, 8
; File C:\Program Files\Microsoft Visual Studio\2022\Community\VC\Tools\MSVC\14.34.31933\include\vector

; 2113 :             _Mylast  = nullptr;

  000dd	c7 47 08 00 00
	00 00		 mov	 DWORD PTR [edi+8], 0

; 2114 :             _Myend   = nullptr;

  000e4	c7 47 0c 00 00
	00 00		 mov	 DWORD PTR [edi+12], 0
$LN60@CDynamicPo:
; File C:\Users\flourine\Desktop\Xantios\client-src\Code\eterlib\Pool.h

; 146  : 	}

  000eb	8b 4d f4	 mov	 ecx, DWORD PTR __$EHRec$[ebp]
  000ee	64 89 0d 00 00
	00 00		 mov	 DWORD PTR fs:0, ecx
  000f5	59		 pop	 ecx
  000f6	5f		 pop	 edi
  000f7	5e		 pop	 esi
  000f8	5b		 pop	 ebx
  000f9	8b e5		 mov	 esp, ebp
  000fb	5d		 pop	 ebp
  000fc	c3		 ret	 0
$LN73@CDynamicPo:
; File C:\Program Files\Microsoft Visual Studio\2022\Community\VC\Tools\MSVC\14.34.31933\include\xmemory

; 164  :     _STL_VERIFY(_Back_shift >= _Min_back_shift && _Back_shift <= _Non_user_size, "invalid argument");

  000fd	e8 00 00 00 00	 call	 __invalid_parameter_noinfo_noreturn
$LN86@CDynamicPo:
  00102	cc		 int	 3
  00103	cc		 int	 3
  00104	cc		 int	 3
  00105	cc		 int	 3
  00106	cc		 int	 3
  00107	cc		 int	 3
_TEXT	ENDS
;	COMDAT text$x
text$x	SEGMENT
__ehhandler$??1?$CDynamicPoolEx@VCHeaderDecorator@NEffectUpdateDecorator@@@@UAE@XZ:
  00000	90		 npad	 1
  00001	90		 npad	 1
  00002	8b 54 24 08	 mov	 edx, DWORD PTR [esp+8]
  00006	8d 42 0c	 lea	 eax, DWORD PTR [edx+12]
  00009	8b 4a f0	 mov	 ecx, DWORD PTR [edx-16]
  0000c	33 c8		 xor	 ecx, eax
  0000e	e8 00 00 00 00	 call	 @__security_check_cookie@4
  00013	b8 00 00 00 00	 mov	 eax, OFFSET __ehfuncinfo$??1?$CDynamicPoolEx@VCHeaderDecorator@NEffectUpdateDecorator@@@@UAE@XZ
  00018	e9 00 00 00 00	 jmp	 ___CxxFrameHandler3
text$x	ENDS
??1?$CDynamicPoolEx@VCHeaderDecorator@NEffectUpdateDecorator@@@@UAE@XZ ENDP ; CDynamicPoolEx<NEffectUpdateDecorator::CHeaderDecorator>::~CDynamicPoolEx<NEffectUpdateDecorator::CHeaderDecorator>
; Function compile flags: /Ogtp
;	COMDAT ??_G?$CDynamicPoolEx@VCNullDecorator@NEffectUpdateDecorator@@@@UAEPAXI@Z
_TEXT	SEGMENT
___flags$ = 8						; size = 4
??_G?$CDynamicPoolEx@VCNullDecorator@NEffectUpdateDecorator@@@@UAEPAXI@Z PROC ; CDynamicPoolEx<NEffectUpdateDecorator::CNullDecorator>::`scalar deleting destructor', COMDAT
; _this$ = ecx
  00000	55		 push	 ebp
  00001	8b ec		 mov	 ebp, esp
  00003	56		 push	 esi
  00004	8b f1		 mov	 esi, ecx
  00006	e8 00 00 00 00	 call	 ??1?$CDynamicPoolEx@VCNullDecorator@NEffectUpdateDecorator@@@@UAE@XZ ; CDynamicPoolEx<NEffectUpdateDecorator::CNullDecorator>::~CDynamicPoolEx<NEffectUpdateDecorator::CNullDecorator>
  0000b	f6 45 08 01	 test	 BYTE PTR ___flags$[ebp], 1
  0000f	74 0b		 je	 SHORT $LN4@scalar
  00011	6a 24		 push	 36			; 00000024H
  00013	56		 push	 esi
  00014	e8 00 00 00 00	 call	 ??3@YAXPAXI@Z		; operator delete
  00019	83 c4 08	 add	 esp, 8
$LN4@scalar:
  0001c	8b c6		 mov	 eax, esi
  0001e	5e		 pop	 esi
  0001f	5d		 pop	 ebp
  00020	c2 04 00	 ret	 4
??_G?$CDynamicPoolEx@VCNullDecorator@NEffectUpdateDecorator@@@@UAEPAXI@Z ENDP ; CDynamicPoolEx<NEffectUpdateDecorator::CNullDecorator>::`scalar deleting destructor'
_TEXT	ENDS
; Function compile flags: /Ogtp
; File C:\Users\flourine\Desktop\Xantios\client-src\Code\eterlib\Pool.h
;	COMDAT ?Delete@?$CDynamicPoolEx@VCNullDecorator@NEffectUpdateDecorator@@@@KAXPAVCNullDecorator@NEffectUpdateDecorator@@@Z
_TEXT	SEGMENT
_pkData$ = 8						; size = 4
?Delete@?$CDynamicPoolEx@VCNullDecorator@NEffectUpdateDecorator@@@@KAXPAVCNullDecorator@NEffectUpdateDecorator@@@Z PROC ; CDynamicPoolEx<NEffectUpdateDecorator::CNullDecorator>::Delete, COMDAT

; 232  : 		::operator delete (pkData);

  00000	e9 00 00 00 00	 jmp	 ??3@YAXPAX@Z		; operator delete
?Delete@?$CDynamicPoolEx@VCNullDecorator@NEffectUpdateDecorator@@@@KAXPAVCNullDecorator@NEffectUpdateDecorator@@@Z ENDP ; CDynamicPoolEx<NEffectUpdateDecorator::CNullDecorator>::Delete
_TEXT	ENDS
; Function compile flags: /Ogtp
; File C:\Users\flourine\Desktop\Xantios\client-src\Code\eterlib\Pool.h
; File C:\Program Files\Microsoft Visual Studio\2022\Community\VC\Tools\MSVC\14.34.31933\include\vector
; File C:\Program Files\Microsoft Visual Studio\2022\Community\VC\Tools\MSVC\14.34.31933\include\algorithm
; File C:\Users\flourine\Desktop\Xantios\client-src\Code\eterlib\Pool.h
; File C:\Program Files\Microsoft Visual Studio\2022\Community\VC\Tools\MSVC\14.34.31933\include\algorithm
; File C:\Users\flourine\Desktop\Xantios\client-src\Code\eterlib\Pool.h
; File C:\Program Files\Microsoft Visual Studio\2022\Community\VC\Tools\MSVC\14.34.31933\include\algorithm
; File C:\Program Files\Microsoft Visual Studio\2022\Community\VC\Tools\MSVC\14.34.31933\include\vector
; File C:\Program Files\Microsoft Visual Studio\2022\Community\VC\Tools\MSVC\14.34.31933\include\xmemory
; File C:\Program Files\Microsoft Visual Studio\2022\Community\VC\Tools\MSVC\14.34.31933\include\vector
; File C:\Program Files\Microsoft Visual Studio\2022\Community\VC\Tools\MSVC\14.34.31933\include\xmemory
; File C:\Program Files\Microsoft Visual Studio\2022\Community\VC\Tools\MSVC\14.34.31933\include\vector
; File C:\Program Files\Microsoft Visual Studio\2022\Community\VC\Tools\MSVC\14.34.31933\include\xmemory
; File C:\Program Files\Microsoft Visual Studio\2022\Community\VC\Tools\MSVC\14.34.31933\include\vector
; File C:\Program Files\Microsoft Visual Studio\2022\Community\VC\Tools\MSVC\14.34.31933\include\xmemory
; File C:\Program Files\Microsoft Visual Studio\2022\Community\VC\Tools\MSVC\14.34.31933\include\vector
; File C:\Users\flourine\Desktop\Xantios\client-src\Code\eterlib\Pool.h
; File C:\Program Files\Microsoft Visual Studio\2022\Community\VC\Tools\MSVC\14.34.31933\include\xmemory
; File C:\Users\flourine\Desktop\Xantios\client-src\Code\eterlib\Pool.h
;	COMDAT ??1?$CDynamicPoolEx@VCNullDecorator@NEffectUpdateDecorator@@@@UAE@XZ
_TEXT	SEGMENT
__$EHRec$ = -12						; size = 12
??1?$CDynamicPoolEx@VCNullDecorator@NEffectUpdateDecorator@@@@UAE@XZ PROC ; CDynamicPoolEx<NEffectUpdateDecorator::CNullDecorator>::~CDynamicPoolEx<NEffectUpdateDecorator::CNullDecorator>, COMDAT
; _this$ = ecx

; 136  : 	{

  00000	55		 push	 ebp
  00001	8b ec		 mov	 ebp, esp
  00003	6a ff		 push	 -1
  00005	68 00 00 00 00	 push	 __ehhandler$??1?$CDynamicPoolEx@VCNullDecorator@NEffectUpdateDecorator@@@@UAE@XZ
  0000a	64 a1 00 00 00
	00		 mov	 eax, DWORD PTR fs:0
  00010	50		 push	 eax
  00011	53		 push	 ebx
  00012	56		 push	 esi
  00013	57		 push	 edi
  00014	a1 00 00 00 00	 mov	 eax, DWORD PTR ___security_cookie
  00019	33 c5		 xor	 eax, ebp
  0001b	50		 push	 eax
  0001c	8d 45 f4	 lea	 eax, DWORD PTR __$EHRec$[ebp]
  0001f	64 a3 00 00 00
	00		 mov	 DWORD PTR fs:0, eax
  00025	8b f9		 mov	 edi, ecx
  00027	c7 07 00 00 00
	00		 mov	 DWORD PTR [edi], OFFSET ??_7?$CDynamicPoolEx@VCNullDecorator@NEffectUpdateDecorator@@@@6B@
; File C:\Program Files\Microsoft Visual Studio\2022\Community\VC\Tools\MSVC\14.34.31933\include\vector

; 41   :     _CONSTEXPR20 _Vector_const_iterator(_Tptr _Parg, const _Container_base* _Pvector) noexcept : _Ptr(_Parg) {

  0002d	8b 5f 08	 mov	 ebx, DWORD PTR [edi+8]
; File C:\Program Files\Microsoft Visual Studio\2022\Community\VC\Tools\MSVC\14.34.31933\include\algorithm

; 265  :     for (; _UFirst != _ULast; ++_UFirst) {

  00030	8b 77 04	 mov	 esi, DWORD PTR [edi+4]
  00033	3b f3		 cmp	 esi, ebx
  00035	74 11		 je	 SHORT $LN19@CDynamicPo
$LL20@CDynamicPo:
; File C:\Users\flourine\Desktop\Xantios\client-src\Code\eterlib\Pool.h

; 232  : 		::operator delete (pkData);

  00037	ff 36		 push	 DWORD PTR [esi]
  00039	e8 00 00 00 00	 call	 ??3@YAXPAX@Z		; operator delete
; File C:\Program Files\Microsoft Visual Studio\2022\Community\VC\Tools\MSVC\14.34.31933\include\algorithm

; 265  :     for (; _UFirst != _ULast; ++_UFirst) {

  0003e	83 c6 04	 add	 esi, 4
; File C:\Users\flourine\Desktop\Xantios\client-src\Code\eterlib\Pool.h

; 232  : 		::operator delete (pkData);

  00041	83 c4 04	 add	 esp, 4
; File C:\Program Files\Microsoft Visual Studio\2022\Community\VC\Tools\MSVC\14.34.31933\include\algorithm

; 265  :     for (; _UFirst != _ULast; ++_UFirst) {

  00044	3b f3		 cmp	 esi, ebx
  00046	75 ef		 jne	 SHORT $LL20@CDynamicPo
$LN19@CDynamicPo:
; File C:\Program Files\Microsoft Visual Studio\2022\Community\VC\Tools\MSVC\14.34.31933\include\vector

; 1829 :         if (_Myfirst == _Mylast) { // already empty, nothing to do

  00048	8b 47 04	 mov	 eax, DWORD PTR [edi+4]
  0004b	3b 47 08	 cmp	 eax, DWORD PTR [edi+8]
  0004e	74 03		 je	 SHORT $LN26@CDynamicPo

; 1830 :             // This is an optimization for debug mode: we can avoid taking the debug lock to invalidate iterators.
; 1831 :             // Note that when clearing an empty vector, this will preserve past-the-end iterators, which is allowed by
; 1832 :             // N4901 [tab:container.seq.req] "a.clear() [...] may invalidate the past-the-end iterator".
; 1833 :             return;
; 1834 :         }
; 1835 : 
; 1836 :         _My_data._Orphan_all();
; 1837 :         _Destroy_range(_Myfirst, _Mylast, _Getal());
; 1838 :         _ASAN_VECTOR_MODIFY(static_cast<difference_type>(_Myfirst - _Mylast)); // negative when destroying elements
; 1839 :         _Mylast = _Myfirst;

  00050	89 47 08	 mov	 DWORD PTR [edi+8], eax
$LN26@CDynamicPo:

; 1829 :         if (_Myfirst == _Mylast) { // already empty, nothing to do

  00053	8b 47 10	 mov	 eax, DWORD PTR [edi+16]
  00056	3b 47 14	 cmp	 eax, DWORD PTR [edi+20]
  00059	74 03		 je	 SHORT $LN29@CDynamicPo

; 1830 :             // This is an optimization for debug mode: we can avoid taking the debug lock to invalidate iterators.
; 1831 :             // Note that when clearing an empty vector, this will preserve past-the-end iterators, which is allowed by
; 1832 :             // N4901 [tab:container.seq.req] "a.clear() [...] may invalidate the past-the-end iterator".
; 1833 :             return;
; 1834 :         }
; 1835 : 
; 1836 :         _My_data._Orphan_all();
; 1837 :         _Destroy_range(_Myfirst, _Mylast, _Getal());
; 1838 :         _ASAN_VECTOR_MODIFY(static_cast<difference_type>(_Myfirst - _Mylast)); // negative when destroying elements
; 1839 :         _Mylast = _Myfirst;

  0005b	89 47 14	 mov	 DWORD PTR [edi+20], eax
$LN29@CDynamicPo:

; 2107 :         if (_Myfirst) { // destroy and deallocate old array

  0005e	85 c0		 test	 eax, eax
  00060	74 41		 je	 SHORT $LN35@CDynamicPo

; 2108 :             _Destroy_range(_Myfirst, _Mylast, _Al);
; 2109 :             _ASAN_VECTOR_REMOVE;
; 2110 :             _Al.deallocate(_Myfirst, static_cast<size_type>(_Myend - _Myfirst));

  00062	8b 4f 18	 mov	 ecx, DWORD PTR [edi+24]
  00065	2b c8		 sub	 ecx, eax
; File C:\Program Files\Microsoft Visual Studio\2022\Community\VC\Tools\MSVC\14.34.31933\include\xmemory

; 830  :         _Deallocate<_New_alignof<_Ty>>(_Ptr, sizeof(_Ty) * _Count);

  00067	83 e1 fc	 and	 ecx, -4			; fffffffcH

; 251  :         if (_Bytes >= _Big_allocation_threshold) { // boost the alignment of big allocations to help autovectorization

  0006a	81 f9 00 10 00
	00		 cmp	 ecx, 4096		; 00001000H
  00070	72 12		 jb	 SHORT $LN51@CDynamicPo

; 150  :     const uintptr_t _Ptr_container   = _Ptr_user[-1];

  00072	8b 50 fc	 mov	 edx, DWORD PTR [eax-4]
  00075	83 c1 23	 add	 ecx, 35			; 00000023H

; 151  : 
; 152  :     // If the following asserts, it likely means that we are performing
; 153  :     // an aligned delete on memory coming from an unaligned allocation.
; 154  :     _STL_ASSERT(_Ptr_user[-2] == _Big_allocation_sentinel, "invalid argument");
; 155  : 
; 156  :     // Extra paranoia on aligned allocation/deallocation; ensure _Ptr_container is
; 157  :     // in range [_Min_back_shift, _Non_user_size]
; 158  : #ifdef _DEBUG
; 159  :     constexpr uintptr_t _Min_back_shift = 2 * sizeof(void*);
; 160  : #else // ^^^ _DEBUG ^^^ // vvv !_DEBUG vvv
; 161  :     constexpr uintptr_t _Min_back_shift = sizeof(void*);
; 162  : #endif // _DEBUG
; 163  :     const uintptr_t _Back_shift = reinterpret_cast<uintptr_t>(_Ptr) - _Ptr_container;

  00078	2b c2		 sub	 eax, edx

; 164  :     _STL_VERIFY(_Back_shift >= _Min_back_shift && _Back_shift <= _Non_user_size, "invalid argument");

  0007a	83 c0 fc	 add	 eax, -4			; fffffffcH
  0007d	83 f8 1f	 cmp	 eax, 31			; 0000001fH
  00080	77 7b		 ja	 SHORT $LN73@CDynamicPo

; 165  :     _Ptr = reinterpret_cast<void*>(_Ptr_container);

  00082	8b c2		 mov	 eax, edx
$LN51@CDynamicPo:

; 255  :         ::operator delete(_Ptr, _Bytes);

  00084	51		 push	 ecx
  00085	50		 push	 eax
  00086	e8 00 00 00 00	 call	 ??3@YAXPAXI@Z		; operator delete
; File C:\Program Files\Microsoft Visual Studio\2022\Community\VC\Tools\MSVC\14.34.31933\include\vector

; 2112 :             _Myfirst = nullptr;

  0008b	c7 47 10 00 00
	00 00		 mov	 DWORD PTR [edi+16], 0
; File C:\Program Files\Microsoft Visual Studio\2022\Community\VC\Tools\MSVC\14.34.31933\include\xmemory

; 255  :         ::operator delete(_Ptr, _Bytes);

  00092	83 c4 08	 add	 esp, 8
; File C:\Program Files\Microsoft Visual Studio\2022\Community\VC\Tools\MSVC\14.34.31933\include\vector

; 2113 :             _Mylast  = nullptr;

  00095	c7 47 14 00 00
	00 00		 mov	 DWORD PTR [edi+20], 0

; 2114 :             _Myend   = nullptr;

  0009c	c7 47 18 00 00
	00 00		 mov	 DWORD PTR [edi+24], 0
$LN35@CDynamicPo:

; 2107 :         if (_Myfirst) { // destroy and deallocate old array

  000a3	8b 47 04	 mov	 eax, DWORD PTR [edi+4]
  000a6	85 c0		 test	 eax, eax
  000a8	74 41		 je	 SHORT $LN60@CDynamicPo

; 2108 :             _Destroy_range(_Myfirst, _Mylast, _Al);
; 2109 :             _ASAN_VECTOR_REMOVE;
; 2110 :             _Al.deallocate(_Myfirst, static_cast<size_type>(_Myend - _Myfirst));

  000aa	8b 4f 0c	 mov	 ecx, DWORD PTR [edi+12]
  000ad	2b c8		 sub	 ecx, eax
; File C:\Program Files\Microsoft Visual Studio\2022\Community\VC\Tools\MSVC\14.34.31933\include\xmemory

; 830  :         _Deallocate<_New_alignof<_Ty>>(_Ptr, sizeof(_Ty) * _Count);

  000af	83 e1 fc	 and	 ecx, -4			; fffffffcH

; 251  :         if (_Bytes >= _Big_allocation_threshold) { // boost the alignment of big allocations to help autovectorization

  000b2	81 f9 00 10 00
	00		 cmp	 ecx, 4096		; 00001000H
  000b8	72 12		 jb	 SHORT $LN76@CDynamicPo

; 150  :     const uintptr_t _Ptr_container   = _Ptr_user[-1];

  000ba	8b 50 fc	 mov	 edx, DWORD PTR [eax-4]
  000bd	83 c1 23	 add	 ecx, 35			; 00000023H

; 151  : 
; 152  :     // If the following asserts, it likely means that we are performing
; 153  :     // an aligned delete on memory coming from an unaligned allocation.
; 154  :     _STL_ASSERT(_Ptr_user[-2] == _Big_allocation_sentinel, "invalid argument");
; 155  : 
; 156  :     // Extra paranoia on aligned allocation/deallocation; ensure _Ptr_container is
; 157  :     // in range [_Min_back_shift, _Non_user_size]
; 158  : #ifdef _DEBUG
; 159  :     constexpr uintptr_t _Min_back_shift = 2 * sizeof(void*);
; 160  : #else // ^^^ _DEBUG ^^^ // vvv !_DEBUG vvv
; 161  :     constexpr uintptr_t _Min_back_shift = sizeof(void*);
; 162  : #endif // _DEBUG
; 163  :     const uintptr_t _Back_shift = reinterpret_cast<uintptr_t>(_Ptr) - _Ptr_container;

  000c0	2b c2		 sub	 eax, edx

; 164  :     _STL_VERIFY(_Back_shift >= _Min_back_shift && _Back_shift <= _Non_user_size, "invalid argument");

  000c2	83 c0 fc	 add	 eax, -4			; fffffffcH
  000c5	83 f8 1f	 cmp	 eax, 31			; 0000001fH
  000c8	77 33		 ja	 SHORT $LN73@CDynamicPo

; 165  :     _Ptr = reinterpret_cast<void*>(_Ptr_container);

  000ca	8b c2		 mov	 eax, edx
$LN76@CDynamicPo:

; 255  :         ::operator delete(_Ptr, _Bytes);

  000cc	51		 push	 ecx
  000cd	50		 push	 eax
  000ce	e8 00 00 00 00	 call	 ??3@YAXPAXI@Z		; operator delete
; File C:\Program Files\Microsoft Visual Studio\2022\Community\VC\Tools\MSVC\14.34.31933\include\vector

; 2112 :             _Myfirst = nullptr;

  000d3	c7 47 04 00 00
	00 00		 mov	 DWORD PTR [edi+4], 0
; File C:\Program Files\Microsoft Visual Studio\2022\Community\VC\Tools\MSVC\14.34.31933\include\xmemory

; 255  :         ::operator delete(_Ptr, _Bytes);

  000da	83 c4 08	 add	 esp, 8
; File C:\Program Files\Microsoft Visual Studio\2022\Community\VC\Tools\MSVC\14.34.31933\include\vector

; 2113 :             _Mylast  = nullptr;

  000dd	c7 47 08 00 00
	00 00		 mov	 DWORD PTR [edi+8], 0

; 2114 :             _Myend   = nullptr;

  000e4	c7 47 0c 00 00
	00 00		 mov	 DWORD PTR [edi+12], 0
$LN60@CDynamicPo:
; File C:\Users\flourine\Desktop\Xantios\client-src\Code\eterlib\Pool.h

; 146  : 	}

  000eb	8b 4d f4	 mov	 ecx, DWORD PTR __$EHRec$[ebp]
  000ee	64 89 0d 00 00
	00 00		 mov	 DWORD PTR fs:0, ecx
  000f5	59		 pop	 ecx
  000f6	5f		 pop	 edi
  000f7	5e		 pop	 esi
  000f8	5b		 pop	 ebx
  000f9	8b e5		 mov	 esp, ebp
  000fb	5d		 pop	 ebp
  000fc	c3		 ret	 0
$LN73@CDynamicPo:
; File C:\Program Files\Microsoft Visual Studio\2022\Community\VC\Tools\MSVC\14.34.31933\include\xmemory

; 164  :     _STL_VERIFY(_Back_shift >= _Min_back_shift && _Back_shift <= _Non_user_size, "invalid argument");

  000fd	e8 00 00 00 00	 call	 __invalid_parameter_noinfo_noreturn
$LN86@CDynamicPo:
  00102	cc		 int	 3
  00103	cc		 int	 3
  00104	cc		 int	 3
  00105	cc		 int	 3
  00106	cc		 int	 3
  00107	cc		 int	 3
_TEXT	ENDS
;	COMDAT text$x
text$x	SEGMENT
__ehhandler$??1?$CDynamicPoolEx@VCNullDecorator@NEffectUpdateDecorator@@@@UAE@XZ:
  00000	90		 npad	 1
  00001	90		 npad	 1
  00002	8b 54 24 08	 mov	 edx, DWORD PTR [esp+8]
  00006	8d 42 0c	 lea	 eax, DWORD PTR [edx+12]
  00009	8b 4a f0	 mov	 ecx, DWORD PTR [edx-16]
  0000c	33 c8		 xor	 ecx, eax
  0000e	e8 00 00 00 00	 call	 @__security_check_cookie@4
  00013	b8 00 00 00 00	 mov	 eax, OFFSET __ehfuncinfo$??1?$CDynamicPoolEx@VCNullDecorator@NEffectUpdateDecorator@@@@UAE@XZ
  00018	e9 00 00 00 00	 jmp	 ___CxxFrameHandler3
text$x	ENDS
??1?$CDynamicPoolEx@VCNullDecorator@NEffectUpdateDecorator@@@@UAE@XZ ENDP ; CDynamicPoolEx<NEffectUpdateDecorator::CNullDecorator>::~CDynamicPoolEx<NEffectUpdateDecorator::CNullDecorator>
; Function compile flags: /Ogtp
;	COMDAT ??_G?$CDynamicPoolEx@VCTextureAnimationCWDecorator@NEffectUpdateDecorator@@@@UAEPAXI@Z
_TEXT	SEGMENT
___flags$ = 8						; size = 4
??_G?$CDynamicPoolEx@VCTextureAnimationCWDecorator@NEffectUpdateDecorator@@@@UAEPAXI@Z PROC ; CDynamicPoolEx<NEffectUpdateDecorator::CTextureAnimationCWDecorator>::`scalar deleting destructor', COMDAT
; _this$ = ecx
  00000	55		 push	 ebp
  00001	8b ec		 mov	 ebp, esp
  00003	56		 push	 esi
  00004	8b f1		 mov	 esi, ecx
  00006	e8 00 00 00 00	 call	 ??1?$CDynamicPoolEx@VCTextureAnimationCWDecorator@NEffectUpdateDecorator@@@@UAE@XZ ; CDynamicPoolEx<NEffectUpdateDecorator::CTextureAnimationCWDecorator>::~CDynamicPoolEx<NEffectUpdateDecorator::CTextureAnimationCWDecorator>
  0000b	f6 45 08 01	 test	 BYTE PTR ___flags$[ebp], 1
  0000f	74 0b		 je	 SHORT $LN4@scalar
  00011	6a 24		 push	 36			; 00000024H
  00013	56		 push	 esi
  00014	e8 00 00 00 00	 call	 ??3@YAXPAXI@Z		; operator delete
  00019	83 c4 08	 add	 esp, 8
$LN4@scalar:
  0001c	8b c6		 mov	 eax, esi
  0001e	5e		 pop	 esi
  0001f	5d		 pop	 ebp
  00020	c2 04 00	 ret	 4
??_G?$CDynamicPoolEx@VCTextureAnimationCWDecorator@NEffectUpdateDecorator@@@@UAEPAXI@Z ENDP ; CDynamicPoolEx<NEffectUpdateDecorator::CTextureAnimationCWDecorator>::`scalar deleting destructor'
_TEXT	ENDS
; Function compile flags: /Ogtp
; File C:\Users\flourine\Desktop\Xantios\client-src\Code\eterlib\Pool.h
;	COMDAT ?Delete@?$CDynamicPoolEx@VCTextureAnimationCWDecorator@NEffectUpdateDecorator@@@@KAXPAVCTextureAnimationCWDecorator@NEffectUpdateDecorator@@@Z
_TEXT	SEGMENT
_pkData$ = 8						; size = 4
?Delete@?$CDynamicPoolEx@VCTextureAnimationCWDecorator@NEffectUpdateDecorator@@@@KAXPAVCTextureAnimationCWDecorator@NEffectUpdateDecorator@@@Z PROC ; CDynamicPoolEx<NEffectUpdateDecorator::CTextureAnimationCWDecorator>::Delete, COMDAT

; 232  : 		::operator delete (pkData);

  00000	e9 00 00 00 00	 jmp	 ??3@YAXPAX@Z		; operator delete
?Delete@?$CDynamicPoolEx@VCTextureAnimationCWDecorator@NEffectUpdateDecorator@@@@KAXPAVCTextureAnimationCWDecorator@NEffectUpdateDecorator@@@Z ENDP ; CDynamicPoolEx<NEffectUpdateDecorator::CTextureAnimationCWDecorator>::Delete
_TEXT	ENDS
; Function compile flags: /Ogtp
; File C:\Users\flourine\Desktop\Xantios\client-src\Code\eterlib\Pool.h
; File C:\Program Files\Microsoft Visual Studio\2022\Community\VC\Tools\MSVC\14.34.31933\include\vector
; File C:\Program Files\Microsoft Visual Studio\2022\Community\VC\Tools\MSVC\14.34.31933\include\algorithm
; File C:\Users\flourine\Desktop\Xantios\client-src\Code\eterlib\Pool.h
; File C:\Program Files\Microsoft Visual Studio\2022\Community\VC\Tools\MSVC\14.34.31933\include\algorithm
; File C:\Users\flourine\Desktop\Xantios\client-src\Code\eterlib\Pool.h
; File C:\Program Files\Microsoft Visual Studio\2022\Community\VC\Tools\MSVC\14.34.31933\include\algorithm
; File C:\Program Files\Microsoft Visual Studio\2022\Community\VC\Tools\MSVC\14.34.31933\include\vector
; File C:\Program Files\Microsoft Visual Studio\2022\Community\VC\Tools\MSVC\14.34.31933\include\xmemory
; File C:\Program Files\Microsoft Visual Studio\2022\Community\VC\Tools\MSVC\14.34.31933\include\vector
; File C:\Program Files\Microsoft Visual Studio\2022\Community\VC\Tools\MSVC\14.34.31933\include\xmemory
; File C:\Program Files\Microsoft Visual Studio\2022\Community\VC\Tools\MSVC\14.34.31933\include\vector
; File C:\Program Files\Microsoft Visual Studio\2022\Community\VC\Tools\MSVC\14.34.31933\include\xmemory
; File C:\Program Files\Microsoft Visual Studio\2022\Community\VC\Tools\MSVC\14.34.31933\include\vector
; File C:\Program Files\Microsoft Visual Studio\2022\Community\VC\Tools\MSVC\14.34.31933\include\xmemory
; File C:\Program Files\Microsoft Visual Studio\2022\Community\VC\Tools\MSVC\14.34.31933\include\vector
; File C:\Users\flourine\Desktop\Xantios\client-src\Code\eterlib\Pool.h
; File C:\Program Files\Microsoft Visual Studio\2022\Community\VC\Tools\MSVC\14.34.31933\include\xmemory
; File C:\Users\flourine\Desktop\Xantios\client-src\Code\eterlib\Pool.h
;	COMDAT ??1?$CDynamicPoolEx@VCTextureAnimationCWDecorator@NEffectUpdateDecorator@@@@UAE@XZ
_TEXT	SEGMENT
__$EHRec$ = -12						; size = 12
??1?$CDynamicPoolEx@VCTextureAnimationCWDecorator@NEffectUpdateDecorator@@@@UAE@XZ PROC ; CDynamicPoolEx<NEffectUpdateDecorator::CTextureAnimationCWDecorator>::~CDynamicPoolEx<NEffectUpdateDecorator::CTextureAnimationCWDecorator>, COMDAT
; _this$ = ecx

; 136  : 	{

  00000	55		 push	 ebp
  00001	8b ec		 mov	 ebp, esp
  00003	6a ff		 push	 -1
  00005	68 00 00 00 00	 push	 __ehhandler$??1?$CDynamicPoolEx@VCTextureAnimationCWDecorator@NEffectUpdateDecorator@@@@UAE@XZ
  0000a	64 a1 00 00 00
	00		 mov	 eax, DWORD PTR fs:0
  00010	50		 push	 eax
  00011	53		 push	 ebx
  00012	56		 push	 esi
  00013	57		 push	 edi
  00014	a1 00 00 00 00	 mov	 eax, DWORD PTR ___security_cookie
  00019	33 c5		 xor	 eax, ebp
  0001b	50		 push	 eax
  0001c	8d 45 f4	 lea	 eax, DWORD PTR __$EHRec$[ebp]
  0001f	64 a3 00 00 00
	00		 mov	 DWORD PTR fs:0, eax
  00025	8b f9		 mov	 edi, ecx
  00027	c7 07 00 00 00
	00		 mov	 DWORD PTR [edi], OFFSET ??_7?$CDynamicPoolEx@VCTextureAnimationCWDecorator@NEffectUpdateDecorator@@@@6B@
; File C:\Program Files\Microsoft Visual Studio\2022\Community\VC\Tools\MSVC\14.34.31933\include\vector

; 41   :     _CONSTEXPR20 _Vector_const_iterator(_Tptr _Parg, const _Container_base* _Pvector) noexcept : _Ptr(_Parg) {

  0002d	8b 5f 08	 mov	 ebx, DWORD PTR [edi+8]
; File C:\Program Files\Microsoft Visual Studio\2022\Community\VC\Tools\MSVC\14.34.31933\include\algorithm

; 265  :     for (; _UFirst != _ULast; ++_UFirst) {

  00030	8b 77 04	 mov	 esi, DWORD PTR [edi+4]
  00033	3b f3		 cmp	 esi, ebx
  00035	74 11		 je	 SHORT $LN19@CDynamicPo
$LL20@CDynamicPo:
; File C:\Users\flourine\Desktop\Xantios\client-src\Code\eterlib\Pool.h

; 232  : 		::operator delete (pkData);

  00037	ff 36		 push	 DWORD PTR [esi]
  00039	e8 00 00 00 00	 call	 ??3@YAXPAX@Z		; operator delete
; File C:\Program Files\Microsoft Visual Studio\2022\Community\VC\Tools\MSVC\14.34.31933\include\algorithm

; 265  :     for (; _UFirst != _ULast; ++_UFirst) {

  0003e	83 c6 04	 add	 esi, 4
; File C:\Users\flourine\Desktop\Xantios\client-src\Code\eterlib\Pool.h

; 232  : 		::operator delete (pkData);

  00041	83 c4 04	 add	 esp, 4
; File C:\Program Files\Microsoft Visual Studio\2022\Community\VC\Tools\MSVC\14.34.31933\include\algorithm

; 265  :     for (; _UFirst != _ULast; ++_UFirst) {

  00044	3b f3		 cmp	 esi, ebx
  00046	75 ef		 jne	 SHORT $LL20@CDynamicPo
$LN19@CDynamicPo:
; File C:\Program Files\Microsoft Visual Studio\2022\Community\VC\Tools\MSVC\14.34.31933\include\vector

; 1829 :         if (_Myfirst == _Mylast) { // already empty, nothing to do

  00048	8b 47 04	 mov	 eax, DWORD PTR [edi+4]
  0004b	3b 47 08	 cmp	 eax, DWORD PTR [edi+8]
  0004e	74 03		 je	 SHORT $LN26@CDynamicPo

; 1830 :             // This is an optimization for debug mode: we can avoid taking the debug lock to invalidate iterators.
; 1831 :             // Note that when clearing an empty vector, this will preserve past-the-end iterators, which is allowed by
; 1832 :             // N4901 [tab:container.seq.req] "a.clear() [...] may invalidate the past-the-end iterator".
; 1833 :             return;
; 1834 :         }
; 1835 : 
; 1836 :         _My_data._Orphan_all();
; 1837 :         _Destroy_range(_Myfirst, _Mylast, _Getal());
; 1838 :         _ASAN_VECTOR_MODIFY(static_cast<difference_type>(_Myfirst - _Mylast)); // negative when destroying elements
; 1839 :         _Mylast = _Myfirst;

  00050	89 47 08	 mov	 DWORD PTR [edi+8], eax
$LN26@CDynamicPo:

; 1829 :         if (_Myfirst == _Mylast) { // already empty, nothing to do

  00053	8b 47 10	 mov	 eax, DWORD PTR [edi+16]
  00056	3b 47 14	 cmp	 eax, DWORD PTR [edi+20]
  00059	74 03		 je	 SHORT $LN29@CDynamicPo

; 1830 :             // This is an optimization for debug mode: we can avoid taking the debug lock to invalidate iterators.
; 1831 :             // Note that when clearing an empty vector, this will preserve past-the-end iterators, which is allowed by
; 1832 :             // N4901 [tab:container.seq.req] "a.clear() [...] may invalidate the past-the-end iterator".
; 1833 :             return;
; 1834 :         }
; 1835 : 
; 1836 :         _My_data._Orphan_all();
; 1837 :         _Destroy_range(_Myfirst, _Mylast, _Getal());
; 1838 :         _ASAN_VECTOR_MODIFY(static_cast<difference_type>(_Myfirst - _Mylast)); // negative when destroying elements
; 1839 :         _Mylast = _Myfirst;

  0005b	89 47 14	 mov	 DWORD PTR [edi+20], eax
$LN29@CDynamicPo:

; 2107 :         if (_Myfirst) { // destroy and deallocate old array

  0005e	85 c0		 test	 eax, eax
  00060	74 41		 je	 SHORT $LN35@CDynamicPo

; 2108 :             _Destroy_range(_Myfirst, _Mylast, _Al);
; 2109 :             _ASAN_VECTOR_REMOVE;
; 2110 :             _Al.deallocate(_Myfirst, static_cast<size_type>(_Myend - _Myfirst));

  00062	8b 4f 18	 mov	 ecx, DWORD PTR [edi+24]
  00065	2b c8		 sub	 ecx, eax
; File C:\Program Files\Microsoft Visual Studio\2022\Community\VC\Tools\MSVC\14.34.31933\include\xmemory

; 830  :         _Deallocate<_New_alignof<_Ty>>(_Ptr, sizeof(_Ty) * _Count);

  00067	83 e1 fc	 and	 ecx, -4			; fffffffcH

; 251  :         if (_Bytes >= _Big_allocation_threshold) { // boost the alignment of big allocations to help autovectorization

  0006a	81 f9 00 10 00
	00		 cmp	 ecx, 4096		; 00001000H
  00070	72 12		 jb	 SHORT $LN51@CDynamicPo

; 150  :     const uintptr_t _Ptr_container   = _Ptr_user[-1];

  00072	8b 50 fc	 mov	 edx, DWORD PTR [eax-4]
  00075	83 c1 23	 add	 ecx, 35			; 00000023H

; 151  : 
; 152  :     // If the following asserts, it likely means that we are performing
; 153  :     // an aligned delete on memory coming from an unaligned allocation.
; 154  :     _STL_ASSERT(_Ptr_user[-2] == _Big_allocation_sentinel, "invalid argument");
; 155  : 
; 156  :     // Extra paranoia on aligned allocation/deallocation; ensure _Ptr_container is
; 157  :     // in range [_Min_back_shift, _Non_user_size]
; 158  : #ifdef _DEBUG
; 159  :     constexpr uintptr_t _Min_back_shift = 2 * sizeof(void*);
; 160  : #else // ^^^ _DEBUG ^^^ // vvv !_DEBUG vvv
; 161  :     constexpr uintptr_t _Min_back_shift = sizeof(void*);
; 162  : #endif // _DEBUG
; 163  :     const uintptr_t _Back_shift = reinterpret_cast<uintptr_t>(_Ptr) - _Ptr_container;

  00078	2b c2		 sub	 eax, edx

; 164  :     _STL_VERIFY(_Back_shift >= _Min_back_shift && _Back_shift <= _Non_user_size, "invalid argument");

  0007a	83 c0 fc	 add	 eax, -4			; fffffffcH
  0007d	83 f8 1f	 cmp	 eax, 31			; 0000001fH
  00080	77 7b		 ja	 SHORT $LN73@CDynamicPo

; 165  :     _Ptr = reinterpret_cast<void*>(_Ptr_container);

  00082	8b c2		 mov	 eax, edx
$LN51@CDynamicPo:

; 255  :         ::operator delete(_Ptr, _Bytes);

  00084	51		 push	 ecx
  00085	50		 push	 eax
  00086	e8 00 00 00 00	 call	 ??3@YAXPAXI@Z		; operator delete
; File C:\Program Files\Microsoft Visual Studio\2022\Community\VC\Tools\MSVC\14.34.31933\include\vector

; 2112 :             _Myfirst = nullptr;

  0008b	c7 47 10 00 00
	00 00		 mov	 DWORD PTR [edi+16], 0
; File C:\Program Files\Microsoft Visual Studio\2022\Community\VC\Tools\MSVC\14.34.31933\include\xmemory

; 255  :         ::operator delete(_Ptr, _Bytes);

  00092	83 c4 08	 add	 esp, 8
; File C:\Program Files\Microsoft Visual Studio\2022\Community\VC\Tools\MSVC\14.34.31933\include\vector

; 2113 :             _Mylast  = nullptr;

  00095	c7 47 14 00 00
	00 00		 mov	 DWORD PTR [edi+20], 0

; 2114 :             _Myend   = nullptr;

  0009c	c7 47 18 00 00
	00 00		 mov	 DWORD PTR [edi+24], 0
$LN35@CDynamicPo:

; 2107 :         if (_Myfirst) { // destroy and deallocate old array

  000a3	8b 47 04	 mov	 eax, DWORD PTR [edi+4]
  000a6	85 c0		 test	 eax, eax
  000a8	74 41		 je	 SHORT $LN60@CDynamicPo

; 2108 :             _Destroy_range(_Myfirst, _Mylast, _Al);
; 2109 :             _ASAN_VECTOR_REMOVE;
; 2110 :             _Al.deallocate(_Myfirst, static_cast<size_type>(_Myend - _Myfirst));

  000aa	8b 4f 0c	 mov	 ecx, DWORD PTR [edi+12]
  000ad	2b c8		 sub	 ecx, eax
; File C:\Program Files\Microsoft Visual Studio\2022\Community\VC\Tools\MSVC\14.34.31933\include\xmemory

; 830  :         _Deallocate<_New_alignof<_Ty>>(_Ptr, sizeof(_Ty) * _Count);

  000af	83 e1 fc	 and	 ecx, -4			; fffffffcH

; 251  :         if (_Bytes >= _Big_allocation_threshold) { // boost the alignment of big allocations to help autovectorization

  000b2	81 f9 00 10 00
	00		 cmp	 ecx, 4096		; 00001000H
  000b8	72 12		 jb	 SHORT $LN76@CDynamicPo

; 150  :     const uintptr_t _Ptr_container   = _Ptr_user[-1];

  000ba	8b 50 fc	 mov	 edx, DWORD PTR [eax-4]
  000bd	83 c1 23	 add	 ecx, 35			; 00000023H

; 151  : 
; 152  :     // If the following asserts, it likely means that we are performing
; 153  :     // an aligned delete on memory coming from an unaligned allocation.
; 154  :     _STL_ASSERT(_Ptr_user[-2] == _Big_allocation_sentinel, "invalid argument");
; 155  : 
; 156  :     // Extra paranoia on aligned allocation/deallocation; ensure _Ptr_container is
; 157  :     // in range [_Min_back_shift, _Non_user_size]
; 158  : #ifdef _DEBUG
; 159  :     constexpr uintptr_t _Min_back_shift = 2 * sizeof(void*);
; 160  : #else // ^^^ _DEBUG ^^^ // vvv !_DEBUG vvv
; 161  :     constexpr uintptr_t _Min_back_shift = sizeof(void*);
; 162  : #endif // _DEBUG
; 163  :     const uintptr_t _Back_shift = reinterpret_cast<uintptr_t>(_Ptr) - _Ptr_container;

  000c0	2b c2		 sub	 eax, edx

; 164  :     _STL_VERIFY(_Back_shift >= _Min_back_shift && _Back_shift <= _Non_user_size, "invalid argument");

  000c2	83 c0 fc	 add	 eax, -4			; fffffffcH
  000c5	83 f8 1f	 cmp	 eax, 31			; 0000001fH
  000c8	77 33		 ja	 SHORT $LN73@CDynamicPo

; 165  :     _Ptr = reinterpret_cast<void*>(_Ptr_container);

  000ca	8b c2		 mov	 eax, edx
$LN76@CDynamicPo:

; 255  :         ::operator delete(_Ptr, _Bytes);

  000cc	51		 push	 ecx
  000cd	50		 push	 eax
  000ce	e8 00 00 00 00	 call	 ??3@YAXPAXI@Z		; operator delete
; File C:\Program Files\Microsoft Visual Studio\2022\Community\VC\Tools\MSVC\14.34.31933\include\vector

; 2112 :             _Myfirst = nullptr;

  000d3	c7 47 04 00 00
	00 00		 mov	 DWORD PTR [edi+4], 0
; File C:\Program Files\Microsoft Visual Studio\2022\Community\VC\Tools\MSVC\14.34.31933\include\xmemory

; 255  :         ::operator delete(_Ptr, _Bytes);

  000da	83 c4 08	 add	 esp, 8
; File C:\Program Files\Microsoft Visual Studio\2022\Community\VC\Tools\MSVC\14.34.31933\include\vector

; 2113 :             _Mylast  = nullptr;

  000dd	c7 47 08 00 00
	00 00		 mov	 DWORD PTR [edi+8], 0

; 2114 :             _Myend   = nullptr;

  000e4	c7 47 0c 00 00
	00 00		 mov	 DWORD PTR [edi+12], 0
$LN60@CDynamicPo:
; File C:\Users\flourine\Desktop\Xantios\client-src\Code\eterlib\Pool.h

; 146  : 	}

  000eb	8b 4d f4	 mov	 ecx, DWORD PTR __$EHRec$[ebp]
  000ee	64 89 0d 00 00
	00 00		 mov	 DWORD PTR fs:0, ecx
  000f5	59		 pop	 ecx
  000f6	5f		 pop	 edi
  000f7	5e		 pop	 esi
  000f8	5b		 pop	 ebx
  000f9	8b e5		 mov	 esp, ebp
  000fb	5d		 pop	 ebp
  000fc	c3		 ret	 0
$LN73@CDynamicPo:
; File C:\Program Files\Microsoft Visual Studio\2022\Community\VC\Tools\MSVC\14.34.31933\include\xmemory

; 164  :     _STL_VERIFY(_Back_shift >= _Min_back_shift && _Back_shift <= _Non_user_size, "invalid argument");

  000fd	e8 00 00 00 00	 call	 __invalid_parameter_noinfo_noreturn
$LN86@CDynamicPo:
  00102	cc		 int	 3
  00103	cc		 int	 3
  00104	cc		 int	 3
  00105	cc		 int	 3
  00106	cc		 int	 3
  00107	cc		 int	 3
_TEXT	ENDS
;	COMDAT text$x
text$x	SEGMENT
__ehhandler$??1?$CDynamicPoolEx@VCTextureAnimationCWDecorator@NEffectUpdateDecorator@@@@UAE@XZ:
  00000	90		 npad	 1
  00001	90		 npad	 1
  00002	8b 54 24 08	 mov	 edx, DWORD PTR [esp+8]
  00006	8d 42 0c	 lea	 eax, DWORD PTR [edx+12]
  00009	8b 4a f0	 mov	 ecx, DWORD PTR [edx-16]
  0000c	33 c8		 xor	 ecx, eax
  0000e	e8 00 00 00 00	 call	 @__security_check_cookie@4
  00013	b8 00 00 00 00	 mov	 eax, OFFSET __ehfuncinfo$??1?$CDynamicPoolEx@VCTextureAnimationCWDecorator@NEffectUpdateDecorator@@@@UAE@XZ
  00018	e9 00 00 00 00	 jmp	 ___CxxFrameHandler3
text$x	ENDS
??1?$CDynamicPoolEx@VCTextureAnimationCWDecorator@NEffectUpdateDecorator@@@@UAE@XZ ENDP ; CDynamicPoolEx<NEffectUpdateDecorator::CTextureAnimationCWDecorator>::~CDynamicPoolEx<NEffectUpdateDecorator::CTextureAnimationCWDecorator>
; Function compile flags: /Ogtp
;	COMDAT ??_G?$CDynamicPoolEx@VCTextureAnimationCCWDecorator@NEffectUpdateDecorator@@@@UAEPAXI@Z
_TEXT	SEGMENT
___flags$ = 8						; size = 4
??_G?$CDynamicPoolEx@VCTextureAnimationCCWDecorator@NEffectUpdateDecorator@@@@UAEPAXI@Z PROC ; CDynamicPoolEx<NEffectUpdateDecorator::CTextureAnimationCCWDecorator>::`scalar deleting destructor', COMDAT
; _this$ = ecx
  00000	55		 push	 ebp
  00001	8b ec		 mov	 ebp, esp
  00003	56		 push	 esi
  00004	8b f1		 mov	 esi, ecx
  00006	e8 00 00 00 00	 call	 ??1?$CDynamicPoolEx@VCTextureAnimationCCWDecorator@NEffectUpdateDecorator@@@@UAE@XZ ; CDynamicPoolEx<NEffectUpdateDecorator::CTextureAnimationCCWDecorator>::~CDynamicPoolEx<NEffectUpdateDecorator::CTextureAnimationCCWDecorator>
  0000b	f6 45 08 01	 test	 BYTE PTR ___flags$[ebp], 1
  0000f	74 0b		 je	 SHORT $LN4@scalar
  00011	6a 24		 push	 36			; 00000024H
  00013	56		 push	 esi
  00014	e8 00 00 00 00	 call	 ??3@YAXPAXI@Z		; operator delete
  00019	83 c4 08	 add	 esp, 8
$LN4@scalar:
  0001c	8b c6		 mov	 eax, esi
  0001e	5e		 pop	 esi
  0001f	5d		 pop	 ebp
  00020	c2 04 00	 ret	 4
??_G?$CDynamicPoolEx@VCTextureAnimationCCWDecorator@NEffectUpdateDecorator@@@@UAEPAXI@Z ENDP ; CDynamicPoolEx<NEffectUpdateDecorator::CTextureAnimationCCWDecorator>::`scalar deleting destructor'
_TEXT	ENDS
; Function compile flags: /Ogtp
; File C:\Users\flourine\Desktop\Xantios\client-src\Code\eterlib\Pool.h
;	COMDAT ?Delete@?$CDynamicPoolEx@VCTextureAnimationCCWDecorator@NEffectUpdateDecorator@@@@KAXPAVCTextureAnimationCCWDecorator@NEffectUpdateDecorator@@@Z
_TEXT	SEGMENT
_pkData$ = 8						; size = 4
?Delete@?$CDynamicPoolEx@VCTextureAnimationCCWDecorator@NEffectUpdateDecorator@@@@KAXPAVCTextureAnimationCCWDecorator@NEffectUpdateDecorator@@@Z PROC ; CDynamicPoolEx<NEffectUpdateDecorator::CTextureAnimationCCWDecorator>::Delete, COMDAT

; 232  : 		::operator delete (pkData);

  00000	e9 00 00 00 00	 jmp	 ??3@YAXPAX@Z		; operator delete
?Delete@?$CDynamicPoolEx@VCTextureAnimationCCWDecorator@NEffectUpdateDecorator@@@@KAXPAVCTextureAnimationCCWDecorator@NEffectUpdateDecorator@@@Z ENDP ; CDynamicPoolEx<NEffectUpdateDecorator::CTextureAnimationCCWDecorator>::Delete
_TEXT	ENDS
; Function compile flags: /Ogtp
; File C:\Users\flourine\Desktop\Xantios\client-src\Code\eterlib\Pool.h
; File C:\Program Files\Microsoft Visual Studio\2022\Community\VC\Tools\MSVC\14.34.31933\include\vector
; File C:\Program Files\Microsoft Visual Studio\2022\Community\VC\Tools\MSVC\14.34.31933\include\algorithm
; File C:\Users\flourine\Desktop\Xantios\client-src\Code\eterlib\Pool.h
; File C:\Program Files\Microsoft Visual Studio\2022\Community\VC\Tools\MSVC\14.34.31933\include\algorithm
; File C:\Users\flourine\Desktop\Xantios\client-src\Code\eterlib\Pool.h
; File C:\Program Files\Microsoft Visual Studio\2022\Community\VC\Tools\MSVC\14.34.31933\include\algorithm
; File C:\Program Files\Microsoft Visual Studio\2022\Community\VC\Tools\MSVC\14.34.31933\include\vector
; File C:\Program Files\Microsoft Visual Studio\2022\Community\VC\Tools\MSVC\14.34.31933\include\xmemory
; File C:\Program Files\Microsoft Visual Studio\2022\Community\VC\Tools\MSVC\14.34.31933\include\vector
; File C:\Program Files\Microsoft Visual Studio\2022\Community\VC\Tools\MSVC\14.34.31933\include\xmemory
; File C:\Program Files\Microsoft Visual Studio\2022\Community\VC\Tools\MSVC\14.34.31933\include\vector
; File C:\Program Files\Microsoft Visual Studio\2022\Community\VC\Tools\MSVC\14.34.31933\include\xmemory
; File C:\Program Files\Microsoft Visual Studio\2022\Community\VC\Tools\MSVC\14.34.31933\include\vector
; File C:\Program Files\Microsoft Visual Studio\2022\Community\VC\Tools\MSVC\14.34.31933\include\xmemory
; File C:\Program Files\Microsoft Visual Studio\2022\Community\VC\Tools\MSVC\14.34.31933\include\vector
; File C:\Users\flourine\Desktop\Xantios\client-src\Code\eterlib\Pool.h
; File C:\Program Files\Microsoft Visual Studio\2022\Community\VC\Tools\MSVC\14.34.31933\include\xmemory
; File C:\Users\flourine\Desktop\Xantios\client-src\Code\eterlib\Pool.h
;	COMDAT ??1?$CDynamicPoolEx@VCTextureAnimationCCWDecorator@NEffectUpdateDecorator@@@@UAE@XZ
_TEXT	SEGMENT
__$EHRec$ = -12						; size = 12
??1?$CDynamicPoolEx@VCTextureAnimationCCWDecorator@NEffectUpdateDecorator@@@@UAE@XZ PROC ; CDynamicPoolEx<NEffectUpdateDecorator::CTextureAnimationCCWDecorator>::~CDynamicPoolEx<NEffectUpdateDecorator::CTextureAnimationCCWDecorator>, COMDAT
; _this$ = ecx

; 136  : 	{

  00000	55		 push	 ebp
  00001	8b ec		 mov	 ebp, esp
  00003	6a ff		 push	 -1
  00005	68 00 00 00 00	 push	 __ehhandler$??1?$CDynamicPoolEx@VCTextureAnimationCCWDecorator@NEffectUpdateDecorator@@@@UAE@XZ
  0000a	64 a1 00 00 00
	00		 mov	 eax, DWORD PTR fs:0
  00010	50		 push	 eax
  00011	53		 push	 ebx
  00012	56		 push	 esi
  00013	57		 push	 edi
  00014	a1 00 00 00 00	 mov	 eax, DWORD PTR ___security_cookie
  00019	33 c5		 xor	 eax, ebp
  0001b	50		 push	 eax
  0001c	8d 45 f4	 lea	 eax, DWORD PTR __$EHRec$[ebp]
  0001f	64 a3 00 00 00
	00		 mov	 DWORD PTR fs:0, eax
  00025	8b f9		 mov	 edi, ecx
  00027	c7 07 00 00 00
	00		 mov	 DWORD PTR [edi], OFFSET ??_7?$CDynamicPoolEx@VCTextureAnimationCCWDecorator@NEffectUpdateDecorator@@@@6B@
; File C:\Program Files\Microsoft Visual Studio\2022\Community\VC\Tools\MSVC\14.34.31933\include\vector

; 41   :     _CONSTEXPR20 _Vector_const_iterator(_Tptr _Parg, const _Container_base* _Pvector) noexcept : _Ptr(_Parg) {

  0002d	8b 5f 08	 mov	 ebx, DWORD PTR [edi+8]
; File C:\Program Files\Microsoft Visual Studio\2022\Community\VC\Tools\MSVC\14.34.31933\include\algorithm

; 265  :     for (; _UFirst != _ULast; ++_UFirst) {

  00030	8b 77 04	 mov	 esi, DWORD PTR [edi+4]
  00033	3b f3		 cmp	 esi, ebx
  00035	74 11		 je	 SHORT $LN19@CDynamicPo
$LL20@CDynamicPo:
; File C:\Users\flourine\Desktop\Xantios\client-src\Code\eterlib\Pool.h

; 232  : 		::operator delete (pkData);

  00037	ff 36		 push	 DWORD PTR [esi]
  00039	e8 00 00 00 00	 call	 ??3@YAXPAX@Z		; operator delete
; File C:\Program Files\Microsoft Visual Studio\2022\Community\VC\Tools\MSVC\14.34.31933\include\algorithm

; 265  :     for (; _UFirst != _ULast; ++_UFirst) {

  0003e	83 c6 04	 add	 esi, 4
; File C:\Users\flourine\Desktop\Xantios\client-src\Code\eterlib\Pool.h

; 232  : 		::operator delete (pkData);

  00041	83 c4 04	 add	 esp, 4
; File C:\Program Files\Microsoft Visual Studio\2022\Community\VC\Tools\MSVC\14.34.31933\include\algorithm

; 265  :     for (; _UFirst != _ULast; ++_UFirst) {

  00044	3b f3		 cmp	 esi, ebx
  00046	75 ef		 jne	 SHORT $LL20@CDynamicPo
$LN19@CDynamicPo:
; File C:\Program Files\Microsoft Visual Studio\2022\Community\VC\Tools\MSVC\14.34.31933\include\vector

; 1829 :         if (_Myfirst == _Mylast) { // already empty, nothing to do

  00048	8b 47 04	 mov	 eax, DWORD PTR [edi+4]
  0004b	3b 47 08	 cmp	 eax, DWORD PTR [edi+8]
  0004e	74 03		 je	 SHORT $LN26@CDynamicPo

; 1830 :             // This is an optimization for debug mode: we can avoid taking the debug lock to invalidate iterators.
; 1831 :             // Note that when clearing an empty vector, this will preserve past-the-end iterators, which is allowed by
; 1832 :             // N4901 [tab:container.seq.req] "a.clear() [...] may invalidate the past-the-end iterator".
; 1833 :             return;
; 1834 :         }
; 1835 : 
; 1836 :         _My_data._Orphan_all();
; 1837 :         _Destroy_range(_Myfirst, _Mylast, _Getal());
; 1838 :         _ASAN_VECTOR_MODIFY(static_cast<difference_type>(_Myfirst - _Mylast)); // negative when destroying elements
; 1839 :         _Mylast = _Myfirst;

  00050	89 47 08	 mov	 DWORD PTR [edi+8], eax
$LN26@CDynamicPo:

; 1829 :         if (_Myfirst == _Mylast) { // already empty, nothing to do

  00053	8b 47 10	 mov	 eax, DWORD PTR [edi+16]
  00056	3b 47 14	 cmp	 eax, DWORD PTR [edi+20]
  00059	74 03		 je	 SHORT $LN29@CDynamicPo

; 1830 :             // This is an optimization for debug mode: we can avoid taking the debug lock to invalidate iterators.
; 1831 :             // Note that when clearing an empty vector, this will preserve past-the-end iterators, which is allowed by
; 1832 :             // N4901 [tab:container.seq.req] "a.clear() [...] may invalidate the past-the-end iterator".
; 1833 :             return;
; 1834 :         }
; 1835 : 
; 1836 :         _My_data._Orphan_all();
; 1837 :         _Destroy_range(_Myfirst, _Mylast, _Getal());
; 1838 :         _ASAN_VECTOR_MODIFY(static_cast<difference_type>(_Myfirst - _Mylast)); // negative when destroying elements
; 1839 :         _Mylast = _Myfirst;

  0005b	89 47 14	 mov	 DWORD PTR [edi+20], eax
$LN29@CDynamicPo:

; 2107 :         if (_Myfirst) { // destroy and deallocate old array

  0005e	85 c0		 test	 eax, eax
  00060	74 41		 je	 SHORT $LN35@CDynamicPo

; 2108 :             _Destroy_range(_Myfirst, _Mylast, _Al);
; 2109 :             _ASAN_VECTOR_REMOVE;
; 2110 :             _Al.deallocate(_Myfirst, static_cast<size_type>(_Myend - _Myfirst));

  00062	8b 4f 18	 mov	 ecx, DWORD PTR [edi+24]
  00065	2b c8		 sub	 ecx, eax
; File C:\Program Files\Microsoft Visual Studio\2022\Community\VC\Tools\MSVC\14.34.31933\include\xmemory

; 830  :         _Deallocate<_New_alignof<_Ty>>(_Ptr, sizeof(_Ty) * _Count);

  00067	83 e1 fc	 and	 ecx, -4			; fffffffcH

; 251  :         if (_Bytes >= _Big_allocation_threshold) { // boost the alignment of big allocations to help autovectorization

  0006a	81 f9 00 10 00
	00		 cmp	 ecx, 4096		; 00001000H
  00070	72 12		 jb	 SHORT $LN51@CDynamicPo

; 150  :     const uintptr_t _Ptr_container   = _Ptr_user[-1];

  00072	8b 50 fc	 mov	 edx, DWORD PTR [eax-4]
  00075	83 c1 23	 add	 ecx, 35			; 00000023H

; 151  : 
; 152  :     // If the following asserts, it likely means that we are performing
; 153  :     // an aligned delete on memory coming from an unaligned allocation.
; 154  :     _STL_ASSERT(_Ptr_user[-2] == _Big_allocation_sentinel, "invalid argument");
; 155  : 
; 156  :     // Extra paranoia on aligned allocation/deallocation; ensure _Ptr_container is
; 157  :     // in range [_Min_back_shift, _Non_user_size]
; 158  : #ifdef _DEBUG
; 159  :     constexpr uintptr_t _Min_back_shift = 2 * sizeof(void*);
; 160  : #else // ^^^ _DEBUG ^^^ // vvv !_DEBUG vvv
; 161  :     constexpr uintptr_t _Min_back_shift = sizeof(void*);
; 162  : #endif // _DEBUG
; 163  :     const uintptr_t _Back_shift = reinterpret_cast<uintptr_t>(_Ptr) - _Ptr_container;

  00078	2b c2		 sub	 eax, edx

; 164  :     _STL_VERIFY(_Back_shift >= _Min_back_shift && _Back_shift <= _Non_user_size, "invalid argument");

  0007a	83 c0 fc	 add	 eax, -4			; fffffffcH
  0007d	83 f8 1f	 cmp	 eax, 31			; 0000001fH
  00080	77 7b		 ja	 SHORT $LN73@CDynamicPo

; 165  :     _Ptr = reinterpret_cast<void*>(_Ptr_container);

  00082	8b c2		 mov	 eax, edx
$LN51@CDynamicPo:

; 255  :         ::operator delete(_Ptr, _Bytes);

  00084	51		 push	 ecx
  00085	50		 push	 eax
  00086	e8 00 00 00 00	 call	 ??3@YAXPAXI@Z		; operator delete
; File C:\Program Files\Microsoft Visual Studio\2022\Community\VC\Tools\MSVC\14.34.31933\include\vector

; 2112 :             _Myfirst = nullptr;

  0008b	c7 47 10 00 00
	00 00		 mov	 DWORD PTR [edi+16], 0
; File C:\Program Files\Microsoft Visual Studio\2022\Community\VC\Tools\MSVC\14.34.31933\include\xmemory

; 255  :         ::operator delete(_Ptr, _Bytes);

  00092	83 c4 08	 add	 esp, 8
; File C:\Program Files\Microsoft Visual Studio\2022\Community\VC\Tools\MSVC\14.34.31933\include\vector

; 2113 :             _Mylast  = nullptr;

  00095	c7 47 14 00 00
	00 00		 mov	 DWORD PTR [edi+20], 0

; 2114 :             _Myend   = nullptr;

  0009c	c7 47 18 00 00
	00 00		 mov	 DWORD PTR [edi+24], 0
$LN35@CDynamicPo:

; 2107 :         if (_Myfirst) { // destroy and deallocate old array

  000a3	8b 47 04	 mov	 eax, DWORD PTR [edi+4]
  000a6	85 c0		 test	 eax, eax
  000a8	74 41		 je	 SHORT $LN60@CDynamicPo

; 2108 :             _Destroy_range(_Myfirst, _Mylast, _Al);
; 2109 :             _ASAN_VECTOR_REMOVE;
; 2110 :             _Al.deallocate(_Myfirst, static_cast<size_type>(_Myend - _Myfirst));

  000aa	8b 4f 0c	 mov	 ecx, DWORD PTR [edi+12]
  000ad	2b c8		 sub	 ecx, eax
; File C:\Program Files\Microsoft Visual Studio\2022\Community\VC\Tools\MSVC\14.34.31933\include\xmemory

; 830  :         _Deallocate<_New_alignof<_Ty>>(_Ptr, sizeof(_Ty) * _Count);

  000af	83 e1 fc	 and	 ecx, -4			; fffffffcH

; 251  :         if (_Bytes >= _Big_allocation_threshold) { // boost the alignment of big allocations to help autovectorization

  000b2	81 f9 00 10 00
	00		 cmp	 ecx, 4096		; 00001000H
  000b8	72 12		 jb	 SHORT $LN76@CDynamicPo

; 150  :     const uintptr_t _Ptr_container   = _Ptr_user[-1];

  000ba	8b 50 fc	 mov	 edx, DWORD PTR [eax-4]
  000bd	83 c1 23	 add	 ecx, 35			; 00000023H

; 151  : 
; 152  :     // If the following asserts, it likely means that we are performing
; 153  :     // an aligned delete on memory coming from an unaligned allocation.
; 154  :     _STL_ASSERT(_Ptr_user[-2] == _Big_allocation_sentinel, "invalid argument");
; 155  : 
; 156  :     // Extra paranoia on aligned allocation/deallocation; ensure _Ptr_container is
; 157  :     // in range [_Min_back_shift, _Non_user_size]
; 158  : #ifdef _DEBUG
; 159  :     constexpr uintptr_t _Min_back_shift = 2 * sizeof(void*);
; 160  : #else // ^^^ _DEBUG ^^^ // vvv !_DEBUG vvv
; 161  :     constexpr uintptr_t _Min_back_shift = sizeof(void*);
; 162  : #endif // _DEBUG
; 163  :     const uintptr_t _Back_shift = reinterpret_cast<uintptr_t>(_Ptr) - _Ptr_container;

  000c0	2b c2		 sub	 eax, edx

; 164  :     _STL_VERIFY(_Back_shift >= _Min_back_shift && _Back_shift <= _Non_user_size, "invalid argument");

  000c2	83 c0 fc	 add	 eax, -4			; fffffffcH
  000c5	83 f8 1f	 cmp	 eax, 31			; 0000001fH
  000c8	77 33		 ja	 SHORT $LN73@CDynamicPo

; 165  :     _Ptr = reinterpret_cast<void*>(_Ptr_container);

  000ca	8b c2		 mov	 eax, edx
$LN76@CDynamicPo:

; 255  :         ::operator delete(_Ptr, _Bytes);

  000cc	51		 push	 ecx
  000cd	50		 push	 eax
  000ce	e8 00 00 00 00	 call	 ??3@YAXPAXI@Z		; operator delete
; File C:\Program Files\Microsoft Visual Studio\2022\Community\VC\Tools\MSVC\14.34.31933\include\vector

; 2112 :             _Myfirst = nullptr;

  000d3	c7 47 04 00 00
	00 00		 mov	 DWORD PTR [edi+4], 0
; File C:\Program Files\Microsoft Visual Studio\2022\Community\VC\Tools\MSVC\14.34.31933\include\xmemory

; 255  :         ::operator delete(_Ptr, _Bytes);

  000da	83 c4 08	 add	 esp, 8
; File C:\Program Files\Microsoft Visual Studio\2022\Community\VC\Tools\MSVC\14.34.31933\include\vector

; 2113 :             _Mylast  = nullptr;

  000dd	c7 47 08 00 00
	00 00		 mov	 DWORD PTR [edi+8], 0

; 2114 :             _Myend   = nullptr;

  000e4	c7 47 0c 00 00
	00 00		 mov	 DWORD PTR [edi+12], 0
$LN60@CDynamicPo:
; File C:\Users\flourine\Desktop\Xantios\client-src\Code\eterlib\Pool.h

; 146  : 	}

  000eb	8b 4d f4	 mov	 ecx, DWORD PTR __$EHRec$[ebp]
  000ee	64 89 0d 00 00
	00 00		 mov	 DWORD PTR fs:0, ecx
  000f5	59		 pop	 ecx
  000f6	5f		 pop	 edi
  000f7	5e		 pop	 esi
  000f8	5b		 pop	 ebx
  000f9	8b e5		 mov	 esp, ebp
  000fb	5d		 pop	 ebp
  000fc	c3		 ret	 0
$LN73@CDynamicPo:
; File C:\Program Files\Microsoft Visual Studio\2022\Community\VC\Tools\MSVC\14.34.31933\include\xmemory

; 164  :     _STL_VERIFY(_Back_shift >= _Min_back_shift && _Back_shift <= _Non_user_size, "invalid argument");

  000fd	e8 00 00 00 00	 call	 __invalid_parameter_noinfo_noreturn
$LN86@CDynamicPo:
  00102	cc		 int	 3
  00103	cc		 int	 3
  00104	cc		 int	 3
  00105	cc		 int	 3
  00106	cc		 int	 3
  00107	cc		 int	 3
_TEXT	ENDS
;	COMDAT text$x
text$x	SEGMENT
__ehhandler$??1?$CDynamicPoolEx@VCTextureAnimationCCWDecorator@NEffectUpdateDecorator@@@@UAE@XZ:
  00000	90		 npad	 1
  00001	90		 npad	 1
  00002	8b 54 24 08	 mov	 edx, DWORD PTR [esp+8]
  00006	8d 42 0c	 lea	 eax, DWORD PTR [edx+12]
  00009	8b 4a f0	 mov	 ecx, DWORD PTR [edx-16]
  0000c	33 c8		 xor	 ecx, eax
  0000e	e8 00 00 00 00	 call	 @__security_check_cookie@4
  00013	b8 00 00 00 00	 mov	 eax, OFFSET __ehfuncinfo$??1?$CDynamicPoolEx@VCTextureAnimationCCWDecorator@NEffectUpdateDecorator@@@@UAE@XZ
  00018	e9 00 00 00 00	 jmp	 ___CxxFrameHandler3
text$x	ENDS
??1?$CDynamicPoolEx@VCTextureAnimationCCWDecorator@NEffectUpdateDecorator@@@@UAE@XZ ENDP ; CDynamicPoolEx<NEffectUpdateDecorator::CTextureAnimationCCWDecorator>::~CDynamicPoolEx<NEffectUpdateDecorator::CTextureAnimationCCWDecorator>
; Function compile flags: /Ogtp
;	COMDAT ??_G?$CDynamicPoolEx@VCTextureAnimationRandomDecorator@NEffectUpdateDecorator@@@@UAEPAXI@Z
_TEXT	SEGMENT
___flags$ = 8						; size = 4
??_G?$CDynamicPoolEx@VCTextureAnimationRandomDecorator@NEffectUpdateDecorator@@@@UAEPAXI@Z PROC ; CDynamicPoolEx<NEffectUpdateDecorator::CTextureAnimationRandomDecorator>::`scalar deleting destructor', COMDAT
; _this$ = ecx
  00000	55		 push	 ebp
  00001	8b ec		 mov	 ebp, esp
  00003	56		 push	 esi
  00004	8b f1		 mov	 esi, ecx
  00006	e8 00 00 00 00	 call	 ??1?$CDynamicPoolEx@VCTextureAnimationRandomDecorator@NEffectUpdateDecorator@@@@UAE@XZ ; CDynamicPoolEx<NEffectUpdateDecorator::CTextureAnimationRandomDecorator>::~CDynamicPoolEx<NEffectUpdateDecorator::CTextureAnimationRandomDecorator>
  0000b	f6 45 08 01	 test	 BYTE PTR ___flags$[ebp], 1
  0000f	74 0b		 je	 SHORT $LN4@scalar
  00011	6a 24		 push	 36			; 00000024H
  00013	56		 push	 esi
  00014	e8 00 00 00 00	 call	 ??3@YAXPAXI@Z		; operator delete
  00019	83 c4 08	 add	 esp, 8
$LN4@scalar:
  0001c	8b c6		 mov	 eax, esi
  0001e	5e		 pop	 esi
  0001f	5d		 pop	 ebp
  00020	c2 04 00	 ret	 4
??_G?$CDynamicPoolEx@VCTextureAnimationRandomDecorator@NEffectUpdateDecorator@@@@UAEPAXI@Z ENDP ; CDynamicPoolEx<NEffectUpdateDecorator::CTextureAnimationRandomDecorator>::`scalar deleting destructor'
_TEXT	ENDS
; Function compile flags: /Ogtp
; File C:\Users\flourine\Desktop\Xantios\client-src\Code\eterlib\Pool.h
;	COMDAT ?Delete@?$CDynamicPoolEx@VCTextureAnimationRandomDecorator@NEffectUpdateDecorator@@@@KAXPAVCTextureAnimationRandomDecorator@NEffectUpdateDecorator@@@Z
_TEXT	SEGMENT
_pkData$ = 8						; size = 4
?Delete@?$CDynamicPoolEx@VCTextureAnimationRandomDecorator@NEffectUpdateDecorator@@@@KAXPAVCTextureAnimationRandomDecorator@NEffectUpdateDecorator@@@Z PROC ; CDynamicPoolEx<NEffectUpdateDecorator::CTextureAnimationRandomDecorator>::Delete, COMDAT

; 232  : 		::operator delete (pkData);

  00000	e9 00 00 00 00	 jmp	 ??3@YAXPAX@Z		; operator delete
?Delete@?$CDynamicPoolEx@VCTextureAnimationRandomDecorator@NEffectUpdateDecorator@@@@KAXPAVCTextureAnimationRandomDecorator@NEffectUpdateDecorator@@@Z ENDP ; CDynamicPoolEx<NEffectUpdateDecorator::CTextureAnimationRandomDecorator>::Delete
_TEXT	ENDS
; Function compile flags: /Ogtp
; File C:\Users\flourine\Desktop\Xantios\client-src\Code\eterlib\Pool.h
; File C:\Program Files\Microsoft Visual Studio\2022\Community\VC\Tools\MSVC\14.34.31933\include\vector
; File C:\Program Files\Microsoft Visual Studio\2022\Community\VC\Tools\MSVC\14.34.31933\include\algorithm
; File C:\Users\flourine\Desktop\Xantios\client-src\Code\eterlib\Pool.h
; File C:\Program Files\Microsoft Visual Studio\2022\Community\VC\Tools\MSVC\14.34.31933\include\algorithm
; File C:\Users\flourine\Desktop\Xantios\client-src\Code\eterlib\Pool.h
; File C:\Program Files\Microsoft Visual Studio\2022\Community\VC\Tools\MSVC\14.34.31933\include\algorithm
; File C:\Program Files\Microsoft Visual Studio\2022\Community\VC\Tools\MSVC\14.34.31933\include\vector
; File C:\Program Files\Microsoft Visual Studio\2022\Community\VC\Tools\MSVC\14.34.31933\include\xmemory
; File C:\Program Files\Microsoft Visual Studio\2022\Community\VC\Tools\MSVC\14.34.31933\include\vector
; File C:\Program Files\Microsoft Visual Studio\2022\Community\VC\Tools\MSVC\14.34.31933\include\xmemory
; File C:\Program Files\Microsoft Visual Studio\2022\Community\VC\Tools\MSVC\14.34.31933\include\vector
; File C:\Program Files\Microsoft Visual Studio\2022\Community\VC\Tools\MSVC\14.34.31933\include\xmemory
; File C:\Program Files\Microsoft Visual Studio\2022\Community\VC\Tools\MSVC\14.34.31933\include\vector
; File C:\Program Files\Microsoft Visual Studio\2022\Community\VC\Tools\MSVC\14.34.31933\include\xmemory
; File C:\Program Files\Microsoft Visual Studio\2022\Community\VC\Tools\MSVC\14.34.31933\include\vector
; File C:\Users\flourine\Desktop\Xantios\client-src\Code\eterlib\Pool.h
; File C:\Program Files\Microsoft Visual Studio\2022\Community\VC\Tools\MSVC\14.34.31933\include\xmemory
; File C:\Users\flourine\Desktop\Xantios\client-src\Code\eterlib\Pool.h
;	COMDAT ??1?$CDynamicPoolEx@VCTextureAnimationRandomDecorator@NEffectUpdateDecorator@@@@UAE@XZ
_TEXT	SEGMENT
__$EHRec$ = -12						; size = 12
??1?$CDynamicPoolEx@VCTextureAnimationRandomDecorator@NEffectUpdateDecorator@@@@UAE@XZ PROC ; CDynamicPoolEx<NEffectUpdateDecorator::CTextureAnimationRandomDecorator>::~CDynamicPoolEx<NEffectUpdateDecorator::CTextureAnimationRandomDecorator>, COMDAT
; _this$ = ecx

; 136  : 	{

  00000	55		 push	 ebp
  00001	8b ec		 mov	 ebp, esp
  00003	6a ff		 push	 -1
  00005	68 00 00 00 00	 push	 __ehhandler$??1?$CDynamicPoolEx@VCTextureAnimationRandomDecorator@NEffectUpdateDecorator@@@@UAE@XZ
  0000a	64 a1 00 00 00
	00		 mov	 eax, DWORD PTR fs:0
  00010	50		 push	 eax
  00011	53		 push	 ebx
  00012	56		 push	 esi
  00013	57		 push	 edi
  00014	a1 00 00 00 00	 mov	 eax, DWORD PTR ___security_cookie
  00019	33 c5		 xor	 eax, ebp
  0001b	50		 push	 eax
  0001c	8d 45 f4	 lea	 eax, DWORD PTR __$EHRec$[ebp]
  0001f	64 a3 00 00 00
	00		 mov	 DWORD PTR fs:0, eax
  00025	8b f9		 mov	 edi, ecx
  00027	c7 07 00 00 00
	00		 mov	 DWORD PTR [edi], OFFSET ??_7?$CDynamicPoolEx@VCTextureAnimationRandomDecorator@NEffectUpdateDecorator@@@@6B@
; File C:\Program Files\Microsoft Visual Studio\2022\Community\VC\Tools\MSVC\14.34.31933\include\vector

; 41   :     _CONSTEXPR20 _Vector_const_iterator(_Tptr _Parg, const _Container_base* _Pvector) noexcept : _Ptr(_Parg) {

  0002d	8b 5f 08	 mov	 ebx, DWORD PTR [edi+8]
; File C:\Program Files\Microsoft Visual Studio\2022\Community\VC\Tools\MSVC\14.34.31933\include\algorithm

; 265  :     for (; _UFirst != _ULast; ++_UFirst) {

  00030	8b 77 04	 mov	 esi, DWORD PTR [edi+4]
  00033	3b f3		 cmp	 esi, ebx
  00035	74 11		 je	 SHORT $LN19@CDynamicPo
$LL20@CDynamicPo:
; File C:\Users\flourine\Desktop\Xantios\client-src\Code\eterlib\Pool.h

; 232  : 		::operator delete (pkData);

  00037	ff 36		 push	 DWORD PTR [esi]
  00039	e8 00 00 00 00	 call	 ??3@YAXPAX@Z		; operator delete
; File C:\Program Files\Microsoft Visual Studio\2022\Community\VC\Tools\MSVC\14.34.31933\include\algorithm

; 265  :     for (; _UFirst != _ULast; ++_UFirst) {

  0003e	83 c6 04	 add	 esi, 4
; File C:\Users\flourine\Desktop\Xantios\client-src\Code\eterlib\Pool.h

; 232  : 		::operator delete (pkData);

  00041	83 c4 04	 add	 esp, 4
; File C:\Program Files\Microsoft Visual Studio\2022\Community\VC\Tools\MSVC\14.34.31933\include\algorithm

; 265  :     for (; _UFirst != _ULast; ++_UFirst) {

  00044	3b f3		 cmp	 esi, ebx
  00046	75 ef		 jne	 SHORT $LL20@CDynamicPo
$LN19@CDynamicPo:
; File C:\Program Files\Microsoft Visual Studio\2022\Community\VC\Tools\MSVC\14.34.31933\include\vector

; 1829 :         if (_Myfirst == _Mylast) { // already empty, nothing to do

  00048	8b 47 04	 mov	 eax, DWORD PTR [edi+4]
  0004b	3b 47 08	 cmp	 eax, DWORD PTR [edi+8]
  0004e	74 03		 je	 SHORT $LN26@CDynamicPo

; 1830 :             // This is an optimization for debug mode: we can avoid taking the debug lock to invalidate iterators.
; 1831 :             // Note that when clearing an empty vector, this will preserve past-the-end iterators, which is allowed by
; 1832 :             // N4901 [tab:container.seq.req] "a.clear() [...] may invalidate the past-the-end iterator".
; 1833 :             return;
; 1834 :         }
; 1835 : 
; 1836 :         _My_data._Orphan_all();
; 1837 :         _Destroy_range(_Myfirst, _Mylast, _Getal());
; 1838 :         _ASAN_VECTOR_MODIFY(static_cast<difference_type>(_Myfirst - _Mylast)); // negative when destroying elements
; 1839 :         _Mylast = _Myfirst;

  00050	89 47 08	 mov	 DWORD PTR [edi+8], eax
$LN26@CDynamicPo:

; 1829 :         if (_Myfirst == _Mylast) { // already empty, nothing to do

  00053	8b 47 10	 mov	 eax, DWORD PTR [edi+16]
  00056	3b 47 14	 cmp	 eax, DWORD PTR [edi+20]
  00059	74 03		 je	 SHORT $LN29@CDynamicPo

; 1830 :             // This is an optimization for debug mode: we can avoid taking the debug lock to invalidate iterators.
; 1831 :             // Note that when clearing an empty vector, this will preserve past-the-end iterators, which is allowed by
; 1832 :             // N4901 [tab:container.seq.req] "a.clear() [...] may invalidate the past-the-end iterator".
; 1833 :             return;
; 1834 :         }
; 1835 : 
; 1836 :         _My_data._Orphan_all();
; 1837 :         _Destroy_range(_Myfirst, _Mylast, _Getal());
; 1838 :         _ASAN_VECTOR_MODIFY(static_cast<difference_type>(_Myfirst - _Mylast)); // negative when destroying elements
; 1839 :         _Mylast = _Myfirst;

  0005b	89 47 14	 mov	 DWORD PTR [edi+20], eax
$LN29@CDynamicPo:

; 2107 :         if (_Myfirst) { // destroy and deallocate old array

  0005e	85 c0		 test	 eax, eax
  00060	74 41		 je	 SHORT $LN35@CDynamicPo

; 2108 :             _Destroy_range(_Myfirst, _Mylast, _Al);
; 2109 :             _ASAN_VECTOR_REMOVE;
; 2110 :             _Al.deallocate(_Myfirst, static_cast<size_type>(_Myend - _Myfirst));

  00062	8b 4f 18	 mov	 ecx, DWORD PTR [edi+24]
  00065	2b c8		 sub	 ecx, eax
; File C:\Program Files\Microsoft Visual Studio\2022\Community\VC\Tools\MSVC\14.34.31933\include\xmemory

; 830  :         _Deallocate<_New_alignof<_Ty>>(_Ptr, sizeof(_Ty) * _Count);

  00067	83 e1 fc	 and	 ecx, -4			; fffffffcH

; 251  :         if (_Bytes >= _Big_allocation_threshold) { // boost the alignment of big allocations to help autovectorization

  0006a	81 f9 00 10 00
	00		 cmp	 ecx, 4096		; 00001000H
  00070	72 12		 jb	 SHORT $LN51@CDynamicPo

; 150  :     const uintptr_t _Ptr_container   = _Ptr_user[-1];

  00072	8b 50 fc	 mov	 edx, DWORD PTR [eax-4]
  00075	83 c1 23	 add	 ecx, 35			; 00000023H

; 151  : 
; 152  :     // If the following asserts, it likely means that we are performing
; 153  :     // an aligned delete on memory coming from an unaligned allocation.
; 154  :     _STL_ASSERT(_Ptr_user[-2] == _Big_allocation_sentinel, "invalid argument");
; 155  : 
; 156  :     // Extra paranoia on aligned allocation/deallocation; ensure _Ptr_container is
; 157  :     // in range [_Min_back_shift, _Non_user_size]
; 158  : #ifdef _DEBUG
; 159  :     constexpr uintptr_t _Min_back_shift = 2 * sizeof(void*);
; 160  : #else // ^^^ _DEBUG ^^^ // vvv !_DEBUG vvv
; 161  :     constexpr uintptr_t _Min_back_shift = sizeof(void*);
; 162  : #endif // _DEBUG
; 163  :     const uintptr_t _Back_shift = reinterpret_cast<uintptr_t>(_Ptr) - _Ptr_container;

  00078	2b c2		 sub	 eax, edx

; 164  :     _STL_VERIFY(_Back_shift >= _Min_back_shift && _Back_shift <= _Non_user_size, "invalid argument");

  0007a	83 c0 fc	 add	 eax, -4			; fffffffcH
  0007d	83 f8 1f	 cmp	 eax, 31			; 0000001fH
  00080	77 7b		 ja	 SHORT $LN73@CDynamicPo

; 165  :     _Ptr = reinterpret_cast<void*>(_Ptr_container);

  00082	8b c2		 mov	 eax, edx
$LN51@CDynamicPo:

; 255  :         ::operator delete(_Ptr, _Bytes);

  00084	51		 push	 ecx
  00085	50		 push	 eax
  00086	e8 00 00 00 00	 call	 ??3@YAXPAXI@Z		; operator delete
; File C:\Program Files\Microsoft Visual Studio\2022\Community\VC\Tools\MSVC\14.34.31933\include\vector

; 2112 :             _Myfirst = nullptr;

  0008b	c7 47 10 00 00
	00 00		 mov	 DWORD PTR [edi+16], 0
; File C:\Program Files\Microsoft Visual Studio\2022\Community\VC\Tools\MSVC\14.34.31933\include\xmemory

; 255  :         ::operator delete(_Ptr, _Bytes);

  00092	83 c4 08	 add	 esp, 8
; File C:\Program Files\Microsoft Visual Studio\2022\Community\VC\Tools\MSVC\14.34.31933\include\vector

; 2113 :             _Mylast  = nullptr;

  00095	c7 47 14 00 00
	00 00		 mov	 DWORD PTR [edi+20], 0

; 2114 :             _Myend   = nullptr;

  0009c	c7 47 18 00 00
	00 00		 mov	 DWORD PTR [edi+24], 0
$LN35@CDynamicPo:

; 2107 :         if (_Myfirst) { // destroy and deallocate old array

  000a3	8b 47 04	 mov	 eax, DWORD PTR [edi+4]
  000a6	85 c0		 test	 eax, eax
  000a8	74 41		 je	 SHORT $LN60@CDynamicPo

; 2108 :             _Destroy_range(_Myfirst, _Mylast, _Al);
; 2109 :             _ASAN_VECTOR_REMOVE;
; 2110 :             _Al.deallocate(_Myfirst, static_cast<size_type>(_Myend - _Myfirst));

  000aa	8b 4f 0c	 mov	 ecx, DWORD PTR [edi+12]
  000ad	2b c8		 sub	 ecx, eax
; File C:\Program Files\Microsoft Visual Studio\2022\Community\VC\Tools\MSVC\14.34.31933\include\xmemory

; 830  :         _Deallocate<_New_alignof<_Ty>>(_Ptr, sizeof(_Ty) * _Count);

  000af	83 e1 fc	 and	 ecx, -4			; fffffffcH

; 251  :         if (_Bytes >= _Big_allocation_threshold) { // boost the alignment of big allocations to help autovectorization

  000b2	81 f9 00 10 00
	00		 cmp	 ecx, 4096		; 00001000H
  000b8	72 12		 jb	 SHORT $LN76@CDynamicPo

; 150  :     const uintptr_t _Ptr_container   = _Ptr_user[-1];

  000ba	8b 50 fc	 mov	 edx, DWORD PTR [eax-4]
  000bd	83 c1 23	 add	 ecx, 35			; 00000023H

; 151  : 
; 152  :     // If the following asserts, it likely means that we are performing
; 153  :     // an aligned delete on memory coming from an unaligned allocation.
; 154  :     _STL_ASSERT(_Ptr_user[-2] == _Big_allocation_sentinel, "invalid argument");
; 155  : 
; 156  :     // Extra paranoia on aligned allocation/deallocation; ensure _Ptr_container is
; 157  :     // in range [_Min_back_shift, _Non_user_size]
; 158  : #ifdef _DEBUG
; 159  :     constexpr uintptr_t _Min_back_shift = 2 * sizeof(void*);
; 160  : #else // ^^^ _DEBUG ^^^ // vvv !_DEBUG vvv
; 161  :     constexpr uintptr_t _Min_back_shift = sizeof(void*);
; 162  : #endif // _DEBUG
; 163  :     const uintptr_t _Back_shift = reinterpret_cast<uintptr_t>(_Ptr) - _Ptr_container;

  000c0	2b c2		 sub	 eax, edx

; 164  :     _STL_VERIFY(_Back_shift >= _Min_back_shift && _Back_shift <= _Non_user_size, "invalid argument");

  000c2	83 c0 fc	 add	 eax, -4			; fffffffcH
  000c5	83 f8 1f	 cmp	 eax, 31			; 0000001fH
  000c8	77 33		 ja	 SHORT $LN73@CDynamicPo

; 165  :     _Ptr = reinterpret_cast<void*>(_Ptr_container);

  000ca	8b c2		 mov	 eax, edx
$LN76@CDynamicPo:

; 255  :         ::operator delete(_Ptr, _Bytes);

  000cc	51		 push	 ecx
  000cd	50		 push	 eax
  000ce	e8 00 00 00 00	 call	 ??3@YAXPAXI@Z		; operator delete
; File C:\Program Files\Microsoft Visual Studio\2022\Community\VC\Tools\MSVC\14.34.31933\include\vector

; 2112 :             _Myfirst = nullptr;

  000d3	c7 47 04 00 00
	00 00		 mov	 DWORD PTR [edi+4], 0
; File C:\Program Files\Microsoft Visual Studio\2022\Community\VC\Tools\MSVC\14.34.31933\include\xmemory

; 255  :         ::operator delete(_Ptr, _Bytes);

  000da	83 c4 08	 add	 esp, 8
; File C:\Program Files\Microsoft Visual Studio\2022\Community\VC\Tools\MSVC\14.34.31933\include\vector

; 2113 :             _Mylast  = nullptr;

  000dd	c7 47 08 00 00
	00 00		 mov	 DWORD PTR [edi+8], 0

; 2114 :             _Myend   = nullptr;

  000e4	c7 47 0c 00 00
	00 00		 mov	 DWORD PTR [edi+12], 0
$LN60@CDynamicPo:
; File C:\Users\flourine\Desktop\Xantios\client-src\Code\eterlib\Pool.h

; 146  : 	}

  000eb	8b 4d f4	 mov	 ecx, DWORD PTR __$EHRec$[ebp]
  000ee	64 89 0d 00 00
	00 00		 mov	 DWORD PTR fs:0, ecx
  000f5	59		 pop	 ecx
  000f6	5f		 pop	 edi
  000f7	5e		 pop	 esi
  000f8	5b		 pop	 ebx
  000f9	8b e5		 mov	 esp, ebp
  000fb	5d		 pop	 ebp
  000fc	c3		 ret	 0
$LN73@CDynamicPo:
; File C:\Program Files\Microsoft Visual Studio\2022\Community\VC\Tools\MSVC\14.34.31933\include\xmemory

; 164  :     _STL_VERIFY(_Back_shift >= _Min_back_shift && _Back_shift <= _Non_user_size, "invalid argument");

  000fd	e8 00 00 00 00	 call	 __invalid_parameter_noinfo_noreturn
$LN86@CDynamicPo:
  00102	cc		 int	 3
  00103	cc		 int	 3
  00104	cc		 int	 3
  00105	cc		 int	 3
  00106	cc		 int	 3
  00107	cc		 int	 3
_TEXT	ENDS
;	COMDAT text$x
text$x	SEGMENT
__ehhandler$??1?$CDynamicPoolEx@VCTextureAnimationRandomDecorator@NEffectUpdateDecorator@@@@UAE@XZ:
  00000	90		 npad	 1
  00001	90		 npad	 1
  00002	8b 54 24 08	 mov	 edx, DWORD PTR [esp+8]
  00006	8d 42 0c	 lea	 eax, DWORD PTR [edx+12]
  00009	8b 4a f0	 mov	 ecx, DWORD PTR [edx-16]
  0000c	33 c8		 xor	 ecx, eax
  0000e	e8 00 00 00 00	 call	 @__security_check_cookie@4
  00013	b8 00 00 00 00	 mov	 eax, OFFSET __ehfuncinfo$??1?$CDynamicPoolEx@VCTextureAnimationRandomDecorator@NEffectUpdateDecorator@@@@UAE@XZ
  00018	e9 00 00 00 00	 jmp	 ___CxxFrameHandler3
text$x	ENDS
??1?$CDynamicPoolEx@VCTextureAnimationRandomDecorator@NEffectUpdateDecorator@@@@UAE@XZ ENDP ; CDynamicPoolEx<NEffectUpdateDecorator::CTextureAnimationRandomDecorator>::~CDynamicPoolEx<NEffectUpdateDecorator::CTextureAnimationRandomDecorator>
; Function compile flags: /Ogtp
;	COMDAT ??_G?$CDynamicPoolEx@VCAirResistanceDecorator@NEffectUpdateDecorator@@@@UAEPAXI@Z
_TEXT	SEGMENT
___flags$ = 8						; size = 4
??_G?$CDynamicPoolEx@VCAirResistanceDecorator@NEffectUpdateDecorator@@@@UAEPAXI@Z PROC ; CDynamicPoolEx<NEffectUpdateDecorator::CAirResistanceDecorator>::`scalar deleting destructor', COMDAT
; _this$ = ecx
  00000	55		 push	 ebp
  00001	8b ec		 mov	 ebp, esp
  00003	56		 push	 esi
  00004	8b f1		 mov	 esi, ecx
  00006	e8 00 00 00 00	 call	 ??1?$CDynamicPoolEx@VCAirResistanceDecorator@NEffectUpdateDecorator@@@@UAE@XZ ; CDynamicPoolEx<NEffectUpdateDecorator::CAirResistanceDecorator>::~CDynamicPoolEx<NEffectUpdateDecorator::CAirResistanceDecorator>
  0000b	f6 45 08 01	 test	 BYTE PTR ___flags$[ebp], 1
  0000f	74 0b		 je	 SHORT $LN4@scalar
  00011	6a 24		 push	 36			; 00000024H
  00013	56		 push	 esi
  00014	e8 00 00 00 00	 call	 ??3@YAXPAXI@Z		; operator delete
  00019	83 c4 08	 add	 esp, 8
$LN4@scalar:
  0001c	8b c6		 mov	 eax, esi
  0001e	5e		 pop	 esi
  0001f	5d		 pop	 ebp
  00020	c2 04 00	 ret	 4
??_G?$CDynamicPoolEx@VCAirResistanceDecorator@NEffectUpdateDecorator@@@@UAEPAXI@Z ENDP ; CDynamicPoolEx<NEffectUpdateDecorator::CAirResistanceDecorator>::`scalar deleting destructor'
_TEXT	ENDS
; Function compile flags: /Ogtp
; File C:\Users\flourine\Desktop\Xantios\client-src\Code\eterlib\Pool.h
;	COMDAT ?Delete@?$CDynamicPoolEx@VCAirResistanceDecorator@NEffectUpdateDecorator@@@@KAXPAVCAirResistanceDecorator@NEffectUpdateDecorator@@@Z
_TEXT	SEGMENT
_pkData$ = 8						; size = 4
?Delete@?$CDynamicPoolEx@VCAirResistanceDecorator@NEffectUpdateDecorator@@@@KAXPAVCAirResistanceDecorator@NEffectUpdateDecorator@@@Z PROC ; CDynamicPoolEx<NEffectUpdateDecorator::CAirResistanceDecorator>::Delete, COMDAT

; 232  : 		::operator delete (pkData);

  00000	e9 00 00 00 00	 jmp	 ??3@YAXPAX@Z		; operator delete
?Delete@?$CDynamicPoolEx@VCAirResistanceDecorator@NEffectUpdateDecorator@@@@KAXPAVCAirResistanceDecorator@NEffectUpdateDecorator@@@Z ENDP ; CDynamicPoolEx<NEffectUpdateDecorator::CAirResistanceDecorator>::Delete
_TEXT	ENDS
; Function compile flags: /Ogtp
; File C:\Users\flourine\Desktop\Xantios\client-src\Code\eterlib\Pool.h
; File C:\Program Files\Microsoft Visual Studio\2022\Community\VC\Tools\MSVC\14.34.31933\include\vector
; File C:\Program Files\Microsoft Visual Studio\2022\Community\VC\Tools\MSVC\14.34.31933\include\algorithm
; File C:\Users\flourine\Desktop\Xantios\client-src\Code\eterlib\Pool.h
; File C:\Program Files\Microsoft Visual Studio\2022\Community\VC\Tools\MSVC\14.34.31933\include\algorithm
; File C:\Users\flourine\Desktop\Xantios\client-src\Code\eterlib\Pool.h
; File C:\Program Files\Microsoft Visual Studio\2022\Community\VC\Tools\MSVC\14.34.31933\include\algorithm
; File C:\Program Files\Microsoft Visual Studio\2022\Community\VC\Tools\MSVC\14.34.31933\include\vector
; File C:\Program Files\Microsoft Visual Studio\2022\Community\VC\Tools\MSVC\14.34.31933\include\xmemory
; File C:\Program Files\Microsoft Visual Studio\2022\Community\VC\Tools\MSVC\14.34.31933\include\vector
; File C:\Program Files\Microsoft Visual Studio\2022\Community\VC\Tools\MSVC\14.34.31933\include\xmemory
; File C:\Program Files\Microsoft Visual Studio\2022\Community\VC\Tools\MSVC\14.34.31933\include\vector
; File C:\Program Files\Microsoft Visual Studio\2022\Community\VC\Tools\MSVC\14.34.31933\include\xmemory
; File C:\Program Files\Microsoft Visual Studio\2022\Community\VC\Tools\MSVC\14.34.31933\include\vector
; File C:\Program Files\Microsoft Visual Studio\2022\Community\VC\Tools\MSVC\14.34.31933\include\xmemory
; File C:\Program Files\Microsoft Visual Studio\2022\Community\VC\Tools\MSVC\14.34.31933\include\vector
; File C:\Users\flourine\Desktop\Xantios\client-src\Code\eterlib\Pool.h
; File C:\Program Files\Microsoft Visual Studio\2022\Community\VC\Tools\MSVC\14.34.31933\include\xmemory
; File C:\Users\flourine\Desktop\Xantios\client-src\Code\eterlib\Pool.h
;	COMDAT ??1?$CDynamicPoolEx@VCAirResistanceDecorator@NEffectUpdateDecorator@@@@UAE@XZ
_TEXT	SEGMENT
__$EHRec$ = -12						; size = 12
??1?$CDynamicPoolEx@VCAirResistanceDecorator@NEffectUpdateDecorator@@@@UAE@XZ PROC ; CDynamicPoolEx<NEffectUpdateDecorator::CAirResistanceDecorator>::~CDynamicPoolEx<NEffectUpdateDecorator::CAirResistanceDecorator>, COMDAT
; _this$ = ecx

; 136  : 	{

  00000	55		 push	 ebp
  00001	8b ec		 mov	 ebp, esp
  00003	6a ff		 push	 -1
  00005	68 00 00 00 00	 push	 __ehhandler$??1?$CDynamicPoolEx@VCAirResistanceDecorator@NEffectUpdateDecorator@@@@UAE@XZ
  0000a	64 a1 00 00 00
	00		 mov	 eax, DWORD PTR fs:0
  00010	50		 push	 eax
  00011	53		 push	 ebx
  00012	56		 push	 esi
  00013	57		 push	 edi
  00014	a1 00 00 00 00	 mov	 eax, DWORD PTR ___security_cookie
  00019	33 c5		 xor	 eax, ebp
  0001b	50		 push	 eax
  0001c	8d 45 f4	 lea	 eax, DWORD PTR __$EHRec$[ebp]
  0001f	64 a3 00 00 00
	00		 mov	 DWORD PTR fs:0, eax
  00025	8b f9		 mov	 edi, ecx
  00027	c7 07 00 00 00
	00		 mov	 DWORD PTR [edi], OFFSET ??_7?$CDynamicPoolEx@VCAirResistanceDecorator@NEffectUpdateDecorator@@@@6B@
; File C:\Program Files\Microsoft Visual Studio\2022\Community\VC\Tools\MSVC\14.34.31933\include\vector

; 41   :     _CONSTEXPR20 _Vector_const_iterator(_Tptr _Parg, const _Container_base* _Pvector) noexcept : _Ptr(_Parg) {

  0002d	8b 5f 08	 mov	 ebx, DWORD PTR [edi+8]
; File C:\Program Files\Microsoft Visual Studio\2022\Community\VC\Tools\MSVC\14.34.31933\include\algorithm

; 265  :     for (; _UFirst != _ULast; ++_UFirst) {

  00030	8b 77 04	 mov	 esi, DWORD PTR [edi+4]
  00033	3b f3		 cmp	 esi, ebx
  00035	74 11		 je	 SHORT $LN19@CDynamicPo
$LL20@CDynamicPo:
; File C:\Users\flourine\Desktop\Xantios\client-src\Code\eterlib\Pool.h

; 232  : 		::operator delete (pkData);

  00037	ff 36		 push	 DWORD PTR [esi]
  00039	e8 00 00 00 00	 call	 ??3@YAXPAX@Z		; operator delete
; File C:\Program Files\Microsoft Visual Studio\2022\Community\VC\Tools\MSVC\14.34.31933\include\algorithm

; 265  :     for (; _UFirst != _ULast; ++_UFirst) {

  0003e	83 c6 04	 add	 esi, 4
; File C:\Users\flourine\Desktop\Xantios\client-src\Code\eterlib\Pool.h

; 232  : 		::operator delete (pkData);

  00041	83 c4 04	 add	 esp, 4
; File C:\Program Files\Microsoft Visual Studio\2022\Community\VC\Tools\MSVC\14.34.31933\include\algorithm

; 265  :     for (; _UFirst != _ULast; ++_UFirst) {

  00044	3b f3		 cmp	 esi, ebx
  00046	75 ef		 jne	 SHORT $LL20@CDynamicPo
$LN19@CDynamicPo:
; File C:\Program Files\Microsoft Visual Studio\2022\Community\VC\Tools\MSVC\14.34.31933\include\vector

; 1829 :         if (_Myfirst == _Mylast) { // already empty, nothing to do

  00048	8b 47 04	 mov	 eax, DWORD PTR [edi+4]
  0004b	3b 47 08	 cmp	 eax, DWORD PTR [edi+8]
  0004e	74 03		 je	 SHORT $LN26@CDynamicPo

; 1830 :             // This is an optimization for debug mode: we can avoid taking the debug lock to invalidate iterators.
; 1831 :             // Note that when clearing an empty vector, this will preserve past-the-end iterators, which is allowed by
; 1832 :             // N4901 [tab:container.seq.req] "a.clear() [...] may invalidate the past-the-end iterator".
; 1833 :             return;
; 1834 :         }
; 1835 : 
; 1836 :         _My_data._Orphan_all();
; 1837 :         _Destroy_range(_Myfirst, _Mylast, _Getal());
; 1838 :         _ASAN_VECTOR_MODIFY(static_cast<difference_type>(_Myfirst - _Mylast)); // negative when destroying elements
; 1839 :         _Mylast = _Myfirst;

  00050	89 47 08	 mov	 DWORD PTR [edi+8], eax
$LN26@CDynamicPo:

; 1829 :         if (_Myfirst == _Mylast) { // already empty, nothing to do

  00053	8b 47 10	 mov	 eax, DWORD PTR [edi+16]
  00056	3b 47 14	 cmp	 eax, DWORD PTR [edi+20]
  00059	74 03		 je	 SHORT $LN29@CDynamicPo

; 1830 :             // This is an optimization for debug mode: we can avoid taking the debug lock to invalidate iterators.
; 1831 :             // Note that when clearing an empty vector, this will preserve past-the-end iterators, which is allowed by
; 1832 :             // N4901 [tab:container.seq.req] "a.clear() [...] may invalidate the past-the-end iterator".
; 1833 :             return;
; 1834 :         }
; 1835 : 
; 1836 :         _My_data._Orphan_all();
; 1837 :         _Destroy_range(_Myfirst, _Mylast, _Getal());
; 1838 :         _ASAN_VECTOR_MODIFY(static_cast<difference_type>(_Myfirst - _Mylast)); // negative when destroying elements
; 1839 :         _Mylast = _Myfirst;

  0005b	89 47 14	 mov	 DWORD PTR [edi+20], eax
$LN29@CDynamicPo:

; 2107 :         if (_Myfirst) { // destroy and deallocate old array

  0005e	85 c0		 test	 eax, eax
  00060	74 41		 je	 SHORT $LN35@CDynamicPo

; 2108 :             _Destroy_range(_Myfirst, _Mylast, _Al);
; 2109 :             _ASAN_VECTOR_REMOVE;
; 2110 :             _Al.deallocate(_Myfirst, static_cast<size_type>(_Myend - _Myfirst));

  00062	8b 4f 18	 mov	 ecx, DWORD PTR [edi+24]
  00065	2b c8		 sub	 ecx, eax
; File C:\Program Files\Microsoft Visual Studio\2022\Community\VC\Tools\MSVC\14.34.31933\include\xmemory

; 830  :         _Deallocate<_New_alignof<_Ty>>(_Ptr, sizeof(_Ty) * _Count);

  00067	83 e1 fc	 and	 ecx, -4			; fffffffcH

; 251  :         if (_Bytes >= _Big_allocation_threshold) { // boost the alignment of big allocations to help autovectorization

  0006a	81 f9 00 10 00
	00		 cmp	 ecx, 4096		; 00001000H
  00070	72 12		 jb	 SHORT $LN51@CDynamicPo

; 150  :     const uintptr_t _Ptr_container   = _Ptr_user[-1];

  00072	8b 50 fc	 mov	 edx, DWORD PTR [eax-4]
  00075	83 c1 23	 add	 ecx, 35			; 00000023H

; 151  : 
; 152  :     // If the following asserts, it likely means that we are performing
; 153  :     // an aligned delete on memory coming from an unaligned allocation.
; 154  :     _STL_ASSERT(_Ptr_user[-2] == _Big_allocation_sentinel, "invalid argument");
; 155  : 
; 156  :     // Extra paranoia on aligned allocation/deallocation; ensure _Ptr_container is
; 157  :     // in range [_Min_back_shift, _Non_user_size]
; 158  : #ifdef _DEBUG
; 159  :     constexpr uintptr_t _Min_back_shift = 2 * sizeof(void*);
; 160  : #else // ^^^ _DEBUG ^^^ // vvv !_DEBUG vvv
; 161  :     constexpr uintptr_t _Min_back_shift = sizeof(void*);
; 162  : #endif // _DEBUG
; 163  :     const uintptr_t _Back_shift = reinterpret_cast<uintptr_t>(_Ptr) - _Ptr_container;

  00078	2b c2		 sub	 eax, edx

; 164  :     _STL_VERIFY(_Back_shift >= _Min_back_shift && _Back_shift <= _Non_user_size, "invalid argument");

  0007a	83 c0 fc	 add	 eax, -4			; fffffffcH
  0007d	83 f8 1f	 cmp	 eax, 31			; 0000001fH
  00080	77 7b		 ja	 SHORT $LN73@CDynamicPo

; 165  :     _Ptr = reinterpret_cast<void*>(_Ptr_container);

  00082	8b c2		 mov	 eax, edx
$LN51@CDynamicPo:

; 255  :         ::operator delete(_Ptr, _Bytes);

  00084	51		 push	 ecx
  00085	50		 push	 eax
  00086	e8 00 00 00 00	 call	 ??3@YAXPAXI@Z		; operator delete
; File C:\Program Files\Microsoft Visual Studio\2022\Community\VC\Tools\MSVC\14.34.31933\include\vector

; 2112 :             _Myfirst = nullptr;

  0008b	c7 47 10 00 00
	00 00		 mov	 DWORD PTR [edi+16], 0
; File C:\Program Files\Microsoft Visual Studio\2022\Community\VC\Tools\MSVC\14.34.31933\include\xmemory

; 255  :         ::operator delete(_Ptr, _Bytes);

  00092	83 c4 08	 add	 esp, 8
; File C:\Program Files\Microsoft Visual Studio\2022\Community\VC\Tools\MSVC\14.34.31933\include\vector

; 2113 :             _Mylast  = nullptr;

  00095	c7 47 14 00 00
	00 00		 mov	 DWORD PTR [edi+20], 0

; 2114 :             _Myend   = nullptr;

  0009c	c7 47 18 00 00
	00 00		 mov	 DWORD PTR [edi+24], 0
$LN35@CDynamicPo:

; 2107 :         if (_Myfirst) { // destroy and deallocate old array

  000a3	8b 47 04	 mov	 eax, DWORD PTR [edi+4]
  000a6	85 c0		 test	 eax, eax
  000a8	74 41		 je	 SHORT $LN60@CDynamicPo

; 2108 :             _Destroy_range(_Myfirst, _Mylast, _Al);
; 2109 :             _ASAN_VECTOR_REMOVE;
; 2110 :             _Al.deallocate(_Myfirst, static_cast<size_type>(_Myend - _Myfirst));

  000aa	8b 4f 0c	 mov	 ecx, DWORD PTR [edi+12]
  000ad	2b c8		 sub	 ecx, eax
; File C:\Program Files\Microsoft Visual Studio\2022\Community\VC\Tools\MSVC\14.34.31933\include\xmemory

; 830  :         _Deallocate<_New_alignof<_Ty>>(_Ptr, sizeof(_Ty) * _Count);

  000af	83 e1 fc	 and	 ecx, -4			; fffffffcH

; 251  :         if (_Bytes >= _Big_allocation_threshold) { // boost the alignment of big allocations to help autovectorization

  000b2	81 f9 00 10 00
	00		 cmp	 ecx, 4096		; 00001000H
  000b8	72 12		 jb	 SHORT $LN76@CDynamicPo

; 150  :     const uintptr_t _Ptr_container   = _Ptr_user[-1];

  000ba	8b 50 fc	 mov	 edx, DWORD PTR [eax-4]
  000bd	83 c1 23	 add	 ecx, 35			; 00000023H

; 151  : 
; 152  :     // If the following asserts, it likely means that we are performing
; 153  :     // an aligned delete on memory coming from an unaligned allocation.
; 154  :     _STL_ASSERT(_Ptr_user[-2] == _Big_allocation_sentinel, "invalid argument");
; 155  : 
; 156  :     // Extra paranoia on aligned allocation/deallocation; ensure _Ptr_container is
; 157  :     // in range [_Min_back_shift, _Non_user_size]
; 158  : #ifdef _DEBUG
; 159  :     constexpr uintptr_t _Min_back_shift = 2 * sizeof(void*);
; 160  : #else // ^^^ _DEBUG ^^^ // vvv !_DEBUG vvv
; 161  :     constexpr uintptr_t _Min_back_shift = sizeof(void*);
; 162  : #endif // _DEBUG
; 163  :     const uintptr_t _Back_shift = reinterpret_cast<uintptr_t>(_Ptr) - _Ptr_container;

  000c0	2b c2		 sub	 eax, edx

; 164  :     _STL_VERIFY(_Back_shift >= _Min_back_shift && _Back_shift <= _Non_user_size, "invalid argument");

  000c2	83 c0 fc	 add	 eax, -4			; fffffffcH
  000c5	83 f8 1f	 cmp	 eax, 31			; 0000001fH
  000c8	77 33		 ja	 SHORT $LN73@CDynamicPo

; 165  :     _Ptr = reinterpret_cast<void*>(_Ptr_container);

  000ca	8b c2		 mov	 eax, edx
$LN76@CDynamicPo:

; 255  :         ::operator delete(_Ptr, _Bytes);

  000cc	51		 push	 ecx
  000cd	50		 push	 eax
  000ce	e8 00 00 00 00	 call	 ??3@YAXPAXI@Z		; operator delete
; File C:\Program Files\Microsoft Visual Studio\2022\Community\VC\Tools\MSVC\14.34.31933\include\vector

; 2112 :             _Myfirst = nullptr;

  000d3	c7 47 04 00 00
	00 00		 mov	 DWORD PTR [edi+4], 0
; File C:\Program Files\Microsoft Visual Studio\2022\Community\VC\Tools\MSVC\14.34.31933\include\xmemory

; 255  :         ::operator delete(_Ptr, _Bytes);

  000da	83 c4 08	 add	 esp, 8
; File C:\Program Files\Microsoft Visual Studio\2022\Community\VC\Tools\MSVC\14.34.31933\include\vector

; 2113 :             _Mylast  = nullptr;

  000dd	c7 47 08 00 00
	00 00		 mov	 DWORD PTR [edi+8], 0

; 2114 :             _Myend   = nullptr;

  000e4	c7 47 0c 00 00
	00 00		 mov	 DWORD PTR [edi+12], 0
$LN60@CDynamicPo:
; File C:\Users\flourine\Desktop\Xantios\client-src\Code\eterlib\Pool.h

; 146  : 	}

  000eb	8b 4d f4	 mov	 ecx, DWORD PTR __$EHRec$[ebp]
  000ee	64 89 0d 00 00
	00 00		 mov	 DWORD PTR fs:0, ecx
  000f5	59		 pop	 ecx
  000f6	5f		 pop	 edi
  000f7	5e		 pop	 esi
  000f8	5b		 pop	 ebx
  000f9	8b e5		 mov	 esp, ebp
  000fb	5d		 pop	 ebp
  000fc	c3		 ret	 0
$LN73@CDynamicPo:
; File C:\Program Files\Microsoft Visual Studio\2022\Community\VC\Tools\MSVC\14.34.31933\include\xmemory

; 164  :     _STL_VERIFY(_Back_shift >= _Min_back_shift && _Back_shift <= _Non_user_size, "invalid argument");

  000fd	e8 00 00 00 00	 call	 __invalid_parameter_noinfo_noreturn
$LN86@CDynamicPo:
  00102	cc		 int	 3
  00103	cc		 int	 3
  00104	cc		 int	 3
  00105	cc		 int	 3
  00106	cc		 int	 3
  00107	cc		 int	 3
_TEXT	ENDS
;	COMDAT text$x
text$x	SEGMENT
__ehhandler$??1?$CDynamicPoolEx@VCAirResistanceDecorator@NEffectUpdateDecorator@@@@UAE@XZ:
  00000	90		 npad	 1
  00001	90		 npad	 1
  00002	8b 54 24 08	 mov	 edx, DWORD PTR [esp+8]
  00006	8d 42 0c	 lea	 eax, DWORD PTR [edx+12]
  00009	8b 4a f0	 mov	 ecx, DWORD PTR [edx-16]
  0000c	33 c8		 xor	 ecx, eax
  0000e	e8 00 00 00 00	 call	 @__security_check_cookie@4
  00013	b8 00 00 00 00	 mov	 eax, OFFSET __ehfuncinfo$??1?$CDynamicPoolEx@VCAirResistanceDecorator@NEffectUpdateDecorator@@@@UAE@XZ
  00018	e9 00 00 00 00	 jmp	 ___CxxFrameHandler3
text$x	ENDS
??1?$CDynamicPoolEx@VCAirResistanceDecorator@NEffectUpdateDecorator@@@@UAE@XZ ENDP ; CDynamicPoolEx<NEffectUpdateDecorator::CAirResistanceDecorator>::~CDynamicPoolEx<NEffectUpdateDecorator::CAirResistanceDecorator>
; Function compile flags: /Ogtp
;	COMDAT ??_G?$CDynamicPoolEx@VCGravityDecorator@NEffectUpdateDecorator@@@@UAEPAXI@Z
_TEXT	SEGMENT
___flags$ = 8						; size = 4
??_G?$CDynamicPoolEx@VCGravityDecorator@NEffectUpdateDecorator@@@@UAEPAXI@Z PROC ; CDynamicPoolEx<NEffectUpdateDecorator::CGravityDecorator>::`scalar deleting destructor', COMDAT
; _this$ = ecx
  00000	55		 push	 ebp
  00001	8b ec		 mov	 ebp, esp
  00003	56		 push	 esi
  00004	8b f1		 mov	 esi, ecx
  00006	e8 00 00 00 00	 call	 ??1?$CDynamicPoolEx@VCGravityDecorator@NEffectUpdateDecorator@@@@UAE@XZ ; CDynamicPoolEx<NEffectUpdateDecorator::CGravityDecorator>::~CDynamicPoolEx<NEffectUpdateDecorator::CGravityDecorator>
  0000b	f6 45 08 01	 test	 BYTE PTR ___flags$[ebp], 1
  0000f	74 0b		 je	 SHORT $LN4@scalar
  00011	6a 24		 push	 36			; 00000024H
  00013	56		 push	 esi
  00014	e8 00 00 00 00	 call	 ??3@YAXPAXI@Z		; operator delete
  00019	83 c4 08	 add	 esp, 8
$LN4@scalar:
  0001c	8b c6		 mov	 eax, esi
  0001e	5e		 pop	 esi
  0001f	5d		 pop	 ebp
  00020	c2 04 00	 ret	 4
??_G?$CDynamicPoolEx@VCGravityDecorator@NEffectUpdateDecorator@@@@UAEPAXI@Z ENDP ; CDynamicPoolEx<NEffectUpdateDecorator::CGravityDecorator>::`scalar deleting destructor'
_TEXT	ENDS
; Function compile flags: /Ogtp
; File C:\Users\flourine\Desktop\Xantios\client-src\Code\eterlib\Pool.h
;	COMDAT ?Delete@?$CDynamicPoolEx@VCGravityDecorator@NEffectUpdateDecorator@@@@KAXPAVCGravityDecorator@NEffectUpdateDecorator@@@Z
_TEXT	SEGMENT
_pkData$ = 8						; size = 4
?Delete@?$CDynamicPoolEx@VCGravityDecorator@NEffectUpdateDecorator@@@@KAXPAVCGravityDecorator@NEffectUpdateDecorator@@@Z PROC ; CDynamicPoolEx<NEffectUpdateDecorator::CGravityDecorator>::Delete, COMDAT

; 232  : 		::operator delete (pkData);

  00000	e9 00 00 00 00	 jmp	 ??3@YAXPAX@Z		; operator delete
?Delete@?$CDynamicPoolEx@VCGravityDecorator@NEffectUpdateDecorator@@@@KAXPAVCGravityDecorator@NEffectUpdateDecorator@@@Z ENDP ; CDynamicPoolEx<NEffectUpdateDecorator::CGravityDecorator>::Delete
_TEXT	ENDS
; Function compile flags: /Ogtp
; File C:\Users\flourine\Desktop\Xantios\client-src\Code\eterlib\Pool.h
; File C:\Program Files\Microsoft Visual Studio\2022\Community\VC\Tools\MSVC\14.34.31933\include\vector
; File C:\Program Files\Microsoft Visual Studio\2022\Community\VC\Tools\MSVC\14.34.31933\include\algorithm
; File C:\Users\flourine\Desktop\Xantios\client-src\Code\eterlib\Pool.h
; File C:\Program Files\Microsoft Visual Studio\2022\Community\VC\Tools\MSVC\14.34.31933\include\algorithm
; File C:\Users\flourine\Desktop\Xantios\client-src\Code\eterlib\Pool.h
; File C:\Program Files\Microsoft Visual Studio\2022\Community\VC\Tools\MSVC\14.34.31933\include\algorithm
; File C:\Program Files\Microsoft Visual Studio\2022\Community\VC\Tools\MSVC\14.34.31933\include\vector
; File C:\Program Files\Microsoft Visual Studio\2022\Community\VC\Tools\MSVC\14.34.31933\include\xmemory
; File C:\Program Files\Microsoft Visual Studio\2022\Community\VC\Tools\MSVC\14.34.31933\include\vector
; File C:\Program Files\Microsoft Visual Studio\2022\Community\VC\Tools\MSVC\14.34.31933\include\xmemory
; File C:\Program Files\Microsoft Visual Studio\2022\Community\VC\Tools\MSVC\14.34.31933\include\vector
; File C:\Program Files\Microsoft Visual Studio\2022\Community\VC\Tools\MSVC\14.34.31933\include\xmemory
; File C:\Program Files\Microsoft Visual Studio\2022\Community\VC\Tools\MSVC\14.34.31933\include\vector
; File C:\Program Files\Microsoft Visual Studio\2022\Community\VC\Tools\MSVC\14.34.31933\include\xmemory
; File C:\Program Files\Microsoft Visual Studio\2022\Community\VC\Tools\MSVC\14.34.31933\include\vector
; File C:\Users\flourine\Desktop\Xantios\client-src\Code\eterlib\Pool.h
; File C:\Program Files\Microsoft Visual Studio\2022\Community\VC\Tools\MSVC\14.34.31933\include\xmemory
; File C:\Users\flourine\Desktop\Xantios\client-src\Code\eterlib\Pool.h
;	COMDAT ??1?$CDynamicPoolEx@VCGravityDecorator@NEffectUpdateDecorator@@@@UAE@XZ
_TEXT	SEGMENT
__$EHRec$ = -12						; size = 12
??1?$CDynamicPoolEx@VCGravityDecorator@NEffectUpdateDecorator@@@@UAE@XZ PROC ; CDynamicPoolEx<NEffectUpdateDecorator::CGravityDecorator>::~CDynamicPoolEx<NEffectUpdateDecorator::CGravityDecorator>, COMDAT
; _this$ = ecx

; 136  : 	{

  00000	55		 push	 ebp
  00001	8b ec		 mov	 ebp, esp
  00003	6a ff		 push	 -1
  00005	68 00 00 00 00	 push	 __ehhandler$??1?$CDynamicPoolEx@VCGravityDecorator@NEffectUpdateDecorator@@@@UAE@XZ
  0000a	64 a1 00 00 00
	00		 mov	 eax, DWORD PTR fs:0
  00010	50		 push	 eax
  00011	53		 push	 ebx
  00012	56		 push	 esi
  00013	57		 push	 edi
  00014	a1 00 00 00 00	 mov	 eax, DWORD PTR ___security_cookie
  00019	33 c5		 xor	 eax, ebp
  0001b	50		 push	 eax
  0001c	8d 45 f4	 lea	 eax, DWORD PTR __$EHRec$[ebp]
  0001f	64 a3 00 00 00
	00		 mov	 DWORD PTR fs:0, eax
  00025	8b f9		 mov	 edi, ecx
  00027	c7 07 00 00 00
	00		 mov	 DWORD PTR [edi], OFFSET ??_7?$CDynamicPoolEx@VCGravityDecorator@NEffectUpdateDecorator@@@@6B@
; File C:\Program Files\Microsoft Visual Studio\2022\Community\VC\Tools\MSVC\14.34.31933\include\vector

; 41   :     _CONSTEXPR20 _Vector_const_iterator(_Tptr _Parg, const _Container_base* _Pvector) noexcept : _Ptr(_Parg) {

  0002d	8b 5f 08	 mov	 ebx, DWORD PTR [edi+8]
; File C:\Program Files\Microsoft Visual Studio\2022\Community\VC\Tools\MSVC\14.34.31933\include\algorithm

; 265  :     for (; _UFirst != _ULast; ++_UFirst) {

  00030	8b 77 04	 mov	 esi, DWORD PTR [edi+4]
  00033	3b f3		 cmp	 esi, ebx
  00035	74 11		 je	 SHORT $LN19@CDynamicPo
$LL20@CDynamicPo:
; File C:\Users\flourine\Desktop\Xantios\client-src\Code\eterlib\Pool.h

; 232  : 		::operator delete (pkData);

  00037	ff 36		 push	 DWORD PTR [esi]
  00039	e8 00 00 00 00	 call	 ??3@YAXPAX@Z		; operator delete
; File C:\Program Files\Microsoft Visual Studio\2022\Community\VC\Tools\MSVC\14.34.31933\include\algorithm

; 265  :     for (; _UFirst != _ULast; ++_UFirst) {

  0003e	83 c6 04	 add	 esi, 4
; File C:\Users\flourine\Desktop\Xantios\client-src\Code\eterlib\Pool.h

; 232  : 		::operator delete (pkData);

  00041	83 c4 04	 add	 esp, 4
; File C:\Program Files\Microsoft Visual Studio\2022\Community\VC\Tools\MSVC\14.34.31933\include\algorithm

; 265  :     for (; _UFirst != _ULast; ++_UFirst) {

  00044	3b f3		 cmp	 esi, ebx
  00046	75 ef		 jne	 SHORT $LL20@CDynamicPo
$LN19@CDynamicPo:
; File C:\Program Files\Microsoft Visual Studio\2022\Community\VC\Tools\MSVC\14.34.31933\include\vector

; 1829 :         if (_Myfirst == _Mylast) { // already empty, nothing to do

  00048	8b 47 04	 mov	 eax, DWORD PTR [edi+4]
  0004b	3b 47 08	 cmp	 eax, DWORD PTR [edi+8]
  0004e	74 03		 je	 SHORT $LN26@CDynamicPo

; 1830 :             // This is an optimization for debug mode: we can avoid taking the debug lock to invalidate iterators.
; 1831 :             // Note that when clearing an empty vector, this will preserve past-the-end iterators, which is allowed by
; 1832 :             // N4901 [tab:container.seq.req] "a.clear() [...] may invalidate the past-the-end iterator".
; 1833 :             return;
; 1834 :         }
; 1835 : 
; 1836 :         _My_data._Orphan_all();
; 1837 :         _Destroy_range(_Myfirst, _Mylast, _Getal());
; 1838 :         _ASAN_VECTOR_MODIFY(static_cast<difference_type>(_Myfirst - _Mylast)); // negative when destroying elements
; 1839 :         _Mylast = _Myfirst;

  00050	89 47 08	 mov	 DWORD PTR [edi+8], eax
$LN26@CDynamicPo:

; 1829 :         if (_Myfirst == _Mylast) { // already empty, nothing to do

  00053	8b 47 10	 mov	 eax, DWORD PTR [edi+16]
  00056	3b 47 14	 cmp	 eax, DWORD PTR [edi+20]
  00059	74 03		 je	 SHORT $LN29@CDynamicPo

; 1830 :             // This is an optimization for debug mode: we can avoid taking the debug lock to invalidate iterators.
; 1831 :             // Note that when clearing an empty vector, this will preserve past-the-end iterators, which is allowed by
; 1832 :             // N4901 [tab:container.seq.req] "a.clear() [...] may invalidate the past-the-end iterator".
; 1833 :             return;
; 1834 :         }
; 1835 : 
; 1836 :         _My_data._Orphan_all();
; 1837 :         _Destroy_range(_Myfirst, _Mylast, _Getal());
; 1838 :         _ASAN_VECTOR_MODIFY(static_cast<difference_type>(_Myfirst - _Mylast)); // negative when destroying elements
; 1839 :         _Mylast = _Myfirst;

  0005b	89 47 14	 mov	 DWORD PTR [edi+20], eax
$LN29@CDynamicPo:

; 2107 :         if (_Myfirst) { // destroy and deallocate old array

  0005e	85 c0		 test	 eax, eax
  00060	74 41		 je	 SHORT $LN35@CDynamicPo

; 2108 :             _Destroy_range(_Myfirst, _Mylast, _Al);
; 2109 :             _ASAN_VECTOR_REMOVE;
; 2110 :             _Al.deallocate(_Myfirst, static_cast<size_type>(_Myend - _Myfirst));

  00062	8b 4f 18	 mov	 ecx, DWORD PTR [edi+24]
  00065	2b c8		 sub	 ecx, eax
; File C:\Program Files\Microsoft Visual Studio\2022\Community\VC\Tools\MSVC\14.34.31933\include\xmemory

; 830  :         _Deallocate<_New_alignof<_Ty>>(_Ptr, sizeof(_Ty) * _Count);

  00067	83 e1 fc	 and	 ecx, -4			; fffffffcH

; 251  :         if (_Bytes >= _Big_allocation_threshold) { // boost the alignment of big allocations to help autovectorization

  0006a	81 f9 00 10 00
	00		 cmp	 ecx, 4096		; 00001000H
  00070	72 12		 jb	 SHORT $LN51@CDynamicPo

; 150  :     const uintptr_t _Ptr_container   = _Ptr_user[-1];

  00072	8b 50 fc	 mov	 edx, DWORD PTR [eax-4]
  00075	83 c1 23	 add	 ecx, 35			; 00000023H

; 151  : 
; 152  :     // If the following asserts, it likely means that we are performing
; 153  :     // an aligned delete on memory coming from an unaligned allocation.
; 154  :     _STL_ASSERT(_Ptr_user[-2] == _Big_allocation_sentinel, "invalid argument");
; 155  : 
; 156  :     // Extra paranoia on aligned allocation/deallocation; ensure _Ptr_container is
; 157  :     // in range [_Min_back_shift, _Non_user_size]
; 158  : #ifdef _DEBUG
; 159  :     constexpr uintptr_t _Min_back_shift = 2 * sizeof(void*);
; 160  : #else // ^^^ _DEBUG ^^^ // vvv !_DEBUG vvv
; 161  :     constexpr uintptr_t _Min_back_shift = sizeof(void*);
; 162  : #endif // _DEBUG
; 163  :     const uintptr_t _Back_shift = reinterpret_cast<uintptr_t>(_Ptr) - _Ptr_container;

  00078	2b c2		 sub	 eax, edx

; 164  :     _STL_VERIFY(_Back_shift >= _Min_back_shift && _Back_shift <= _Non_user_size, "invalid argument");

  0007a	83 c0 fc	 add	 eax, -4			; fffffffcH
  0007d	83 f8 1f	 cmp	 eax, 31			; 0000001fH
  00080	77 7b		 ja	 SHORT $LN73@CDynamicPo

; 165  :     _Ptr = reinterpret_cast<void*>(_Ptr_container);

  00082	8b c2		 mov	 eax, edx
$LN51@CDynamicPo:

; 255  :         ::operator delete(_Ptr, _Bytes);

  00084	51		 push	 ecx
  00085	50		 push	 eax
  00086	e8 00 00 00 00	 call	 ??3@YAXPAXI@Z		; operator delete
; File C:\Program Files\Microsoft Visual Studio\2022\Community\VC\Tools\MSVC\14.34.31933\include\vector

; 2112 :             _Myfirst = nullptr;

  0008b	c7 47 10 00 00
	00 00		 mov	 DWORD PTR [edi+16], 0
; File C:\Program Files\Microsoft Visual Studio\2022\Community\VC\Tools\MSVC\14.34.31933\include\xmemory

; 255  :         ::operator delete(_Ptr, _Bytes);

  00092	83 c4 08	 add	 esp, 8
; File C:\Program Files\Microsoft Visual Studio\2022\Community\VC\Tools\MSVC\14.34.31933\include\vector

; 2113 :             _Mylast  = nullptr;

  00095	c7 47 14 00 00
	00 00		 mov	 DWORD PTR [edi+20], 0

; 2114 :             _Myend   = nullptr;

  0009c	c7 47 18 00 00
	00 00		 mov	 DWORD PTR [edi+24], 0
$LN35@CDynamicPo:

; 2107 :         if (_Myfirst) { // destroy and deallocate old array

  000a3	8b 47 04	 mov	 eax, DWORD PTR [edi+4]
  000a6	85 c0		 test	 eax, eax
  000a8	74 41		 je	 SHORT $LN60@CDynamicPo

; 2108 :             _Destroy_range(_Myfirst, _Mylast, _Al);
; 2109 :             _ASAN_VECTOR_REMOVE;
; 2110 :             _Al.deallocate(_Myfirst, static_cast<size_type>(_Myend - _Myfirst));

  000aa	8b 4f 0c	 mov	 ecx, DWORD PTR [edi+12]
  000ad	2b c8		 sub	 ecx, eax
; File C:\Program Files\Microsoft Visual Studio\2022\Community\VC\Tools\MSVC\14.34.31933\include\xmemory

; 830  :         _Deallocate<_New_alignof<_Ty>>(_Ptr, sizeof(_Ty) * _Count);

  000af	83 e1 fc	 and	 ecx, -4			; fffffffcH

; 251  :         if (_Bytes >= _Big_allocation_threshold) { // boost the alignment of big allocations to help autovectorization

  000b2	81 f9 00 10 00
	00		 cmp	 ecx, 4096		; 00001000H
  000b8	72 12		 jb	 SHORT $LN76@CDynamicPo

; 150  :     const uintptr_t _Ptr_container   = _Ptr_user[-1];

  000ba	8b 50 fc	 mov	 edx, DWORD PTR [eax-4]
  000bd	83 c1 23	 add	 ecx, 35			; 00000023H

; 151  : 
; 152  :     // If the following asserts, it likely means that we are performing
; 153  :     // an aligned delete on memory coming from an unaligned allocation.
; 154  :     _STL_ASSERT(_Ptr_user[-2] == _Big_allocation_sentinel, "invalid argument");
; 155  : 
; 156  :     // Extra paranoia on aligned allocation/deallocation; ensure _Ptr_container is
; 157  :     // in range [_Min_back_shift, _Non_user_size]
; 158  : #ifdef _DEBUG
; 159  :     constexpr uintptr_t _Min_back_shift = 2 * sizeof(void*);
; 160  : #else // ^^^ _DEBUG ^^^ // vvv !_DEBUG vvv
; 161  :     constexpr uintptr_t _Min_back_shift = sizeof(void*);
; 162  : #endif // _DEBUG
; 163  :     const uintptr_t _Back_shift = reinterpret_cast<uintptr_t>(_Ptr) - _Ptr_container;

  000c0	2b c2		 sub	 eax, edx

; 164  :     _STL_VERIFY(_Back_shift >= _Min_back_shift && _Back_shift <= _Non_user_size, "invalid argument");

  000c2	83 c0 fc	 add	 eax, -4			; fffffffcH
  000c5	83 f8 1f	 cmp	 eax, 31			; 0000001fH
  000c8	77 33		 ja	 SHORT $LN73@CDynamicPo

; 165  :     _Ptr = reinterpret_cast<void*>(_Ptr_container);

  000ca	8b c2		 mov	 eax, edx
$LN76@CDynamicPo:

; 255  :         ::operator delete(_Ptr, _Bytes);

  000cc	51		 push	 ecx
  000cd	50		 push	 eax
  000ce	e8 00 00 00 00	 call	 ??3@YAXPAXI@Z		; operator delete
; File C:\Program Files\Microsoft Visual Studio\2022\Community\VC\Tools\MSVC\14.34.31933\include\vector

; 2112 :             _Myfirst = nullptr;

  000d3	c7 47 04 00 00
	00 00		 mov	 DWORD PTR [edi+4], 0
; File C:\Program Files\Microsoft Visual Studio\2022\Community\VC\Tools\MSVC\14.34.31933\include\xmemory

; 255  :         ::operator delete(_Ptr, _Bytes);

  000da	83 c4 08	 add	 esp, 8
; File C:\Program Files\Microsoft Visual Studio\2022\Community\VC\Tools\MSVC\14.34.31933\include\vector

; 2113 :             _Mylast  = nullptr;

  000dd	c7 47 08 00 00
	00 00		 mov	 DWORD PTR [edi+8], 0

; 2114 :             _Myend   = nullptr;

  000e4	c7 47 0c 00 00
	00 00		 mov	 DWORD PTR [edi+12], 0
$LN60@CDynamicPo:
; File C:\Users\flourine\Desktop\Xantios\client-src\Code\eterlib\Pool.h

; 146  : 	}

  000eb	8b 4d f4	 mov	 ecx, DWORD PTR __$EHRec$[ebp]
  000ee	64 89 0d 00 00
	00 00		 mov	 DWORD PTR fs:0, ecx
  000f5	59		 pop	 ecx
  000f6	5f		 pop	 edi
  000f7	5e		 pop	 esi
  000f8	5b		 pop	 ebx
  000f9	8b e5		 mov	 esp, ebp
  000fb	5d		 pop	 ebp
  000fc	c3		 ret	 0
$LN73@CDynamicPo:
; File C:\Program Files\Microsoft Visual Studio\2022\Community\VC\Tools\MSVC\14.34.31933\include\xmemory

; 164  :     _STL_VERIFY(_Back_shift >= _Min_back_shift && _Back_shift <= _Non_user_size, "invalid argument");

  000fd	e8 00 00 00 00	 call	 __invalid_parameter_noinfo_noreturn
$LN86@CDynamicPo:
  00102	cc		 int	 3
  00103	cc		 int	 3
  00104	cc		 int	 3
  00105	cc		 int	 3
  00106	cc		 int	 3
  00107	cc		 int	 3
_TEXT	ENDS
;	COMDAT text$x
text$x	SEGMENT
__ehhandler$??1?$CDynamicPoolEx@VCGravityDecorator@NEffectUpdateDecorator@@@@UAE@XZ:
  00000	90		 npad	 1
  00001	90		 npad	 1
  00002	8b 54 24 08	 mov	 edx, DWORD PTR [esp+8]
  00006	8d 42 0c	 lea	 eax, DWORD PTR [edx+12]
  00009	8b 4a f0	 mov	 ecx, DWORD PTR [edx-16]
  0000c	33 c8		 xor	 ecx, eax
  0000e	e8 00 00 00 00	 call	 @__security_check_cookie@4
  00013	b8 00 00 00 00	 mov	 eax, OFFSET __ehfuncinfo$??1?$CDynamicPoolEx@VCGravityDecorator@NEffectUpdateDecorator@@@@UAE@XZ
  00018	e9 00 00 00 00	 jmp	 ___CxxFrameHandler3
text$x	ENDS
??1?$CDynamicPoolEx@VCGravityDecorator@NEffectUpdateDecorator@@@@UAE@XZ ENDP ; CDynamicPoolEx<NEffectUpdateDecorator::CGravityDecorator>::~CDynamicPoolEx<NEffectUpdateDecorator::CGravityDecorator>
; Function compile flags: /Ogtp
;	COMDAT ??_G?$CDynamicPoolEx@VCRotationDecorator@NEffectUpdateDecorator@@@@UAEPAXI@Z
_TEXT	SEGMENT
___flags$ = 8						; size = 4
??_G?$CDynamicPoolEx@VCRotationDecorator@NEffectUpdateDecorator@@@@UAEPAXI@Z PROC ; CDynamicPoolEx<NEffectUpdateDecorator::CRotationDecorator>::`scalar deleting destructor', COMDAT
; _this$ = ecx
  00000	55		 push	 ebp
  00001	8b ec		 mov	 ebp, esp
  00003	56		 push	 esi
  00004	8b f1		 mov	 esi, ecx
  00006	e8 00 00 00 00	 call	 ??1?$CDynamicPoolEx@VCRotationDecorator@NEffectUpdateDecorator@@@@UAE@XZ ; CDynamicPoolEx<NEffectUpdateDecorator::CRotationDecorator>::~CDynamicPoolEx<NEffectUpdateDecorator::CRotationDecorator>
  0000b	f6 45 08 01	 test	 BYTE PTR ___flags$[ebp], 1
  0000f	74 0b		 je	 SHORT $LN4@scalar
  00011	6a 24		 push	 36			; 00000024H
  00013	56		 push	 esi
  00014	e8 00 00 00 00	 call	 ??3@YAXPAXI@Z		; operator delete
  00019	83 c4 08	 add	 esp, 8
$LN4@scalar:
  0001c	8b c6		 mov	 eax, esi
  0001e	5e		 pop	 esi
  0001f	5d		 pop	 ebp
  00020	c2 04 00	 ret	 4
??_G?$CDynamicPoolEx@VCRotationDecorator@NEffectUpdateDecorator@@@@UAEPAXI@Z ENDP ; CDynamicPoolEx<NEffectUpdateDecorator::CRotationDecorator>::`scalar deleting destructor'
_TEXT	ENDS
; Function compile flags: /Ogtp
; File C:\Users\flourine\Desktop\Xantios\client-src\Code\eterlib\Pool.h
;	COMDAT ?Delete@?$CDynamicPoolEx@VCRotationDecorator@NEffectUpdateDecorator@@@@KAXPAVCRotationDecorator@NEffectUpdateDecorator@@@Z
_TEXT	SEGMENT
_pkData$ = 8						; size = 4
?Delete@?$CDynamicPoolEx@VCRotationDecorator@NEffectUpdateDecorator@@@@KAXPAVCRotationDecorator@NEffectUpdateDecorator@@@Z PROC ; CDynamicPoolEx<NEffectUpdateDecorator::CRotationDecorator>::Delete, COMDAT

; 232  : 		::operator delete (pkData);

  00000	e9 00 00 00 00	 jmp	 ??3@YAXPAX@Z		; operator delete
?Delete@?$CDynamicPoolEx@VCRotationDecorator@NEffectUpdateDecorator@@@@KAXPAVCRotationDecorator@NEffectUpdateDecorator@@@Z ENDP ; CDynamicPoolEx<NEffectUpdateDecorator::CRotationDecorator>::Delete
_TEXT	ENDS
; Function compile flags: /Ogtp
; File C:\Users\flourine\Desktop\Xantios\client-src\Code\eterlib\Pool.h
; File C:\Program Files\Microsoft Visual Studio\2022\Community\VC\Tools\MSVC\14.34.31933\include\vector
; File C:\Program Files\Microsoft Visual Studio\2022\Community\VC\Tools\MSVC\14.34.31933\include\algorithm
; File C:\Users\flourine\Desktop\Xantios\client-src\Code\eterlib\Pool.h
; File C:\Program Files\Microsoft Visual Studio\2022\Community\VC\Tools\MSVC\14.34.31933\include\algorithm
; File C:\Users\flourine\Desktop\Xantios\client-src\Code\eterlib\Pool.h
; File C:\Program Files\Microsoft Visual Studio\2022\Community\VC\Tools\MSVC\14.34.31933\include\algorithm
; File C:\Program Files\Microsoft Visual Studio\2022\Community\VC\Tools\MSVC\14.34.31933\include\vector
; File C:\Program Files\Microsoft Visual Studio\2022\Community\VC\Tools\MSVC\14.34.31933\include\xmemory
; File C:\Program Files\Microsoft Visual Studio\2022\Community\VC\Tools\MSVC\14.34.31933\include\vector
; File C:\Program Files\Microsoft Visual Studio\2022\Community\VC\Tools\MSVC\14.34.31933\include\xmemory
; File C:\Program Files\Microsoft Visual Studio\2022\Community\VC\Tools\MSVC\14.34.31933\include\vector
; File C:\Program Files\Microsoft Visual Studio\2022\Community\VC\Tools\MSVC\14.34.31933\include\xmemory
; File C:\Program Files\Microsoft Visual Studio\2022\Community\VC\Tools\MSVC\14.34.31933\include\vector
; File C:\Program Files\Microsoft Visual Studio\2022\Community\VC\Tools\MSVC\14.34.31933\include\xmemory
; File C:\Program Files\Microsoft Visual Studio\2022\Community\VC\Tools\MSVC\14.34.31933\include\vector
; File C:\Users\flourine\Desktop\Xantios\client-src\Code\eterlib\Pool.h
; File C:\Program Files\Microsoft Visual Studio\2022\Community\VC\Tools\MSVC\14.34.31933\include\xmemory
; File C:\Users\flourine\Desktop\Xantios\client-src\Code\eterlib\Pool.h
;	COMDAT ??1?$CDynamicPoolEx@VCRotationDecorator@NEffectUpdateDecorator@@@@UAE@XZ
_TEXT	SEGMENT
__$EHRec$ = -12						; size = 12
??1?$CDynamicPoolEx@VCRotationDecorator@NEffectUpdateDecorator@@@@UAE@XZ PROC ; CDynamicPoolEx<NEffectUpdateDecorator::CRotationDecorator>::~CDynamicPoolEx<NEffectUpdateDecorator::CRotationDecorator>, COMDAT
; _this$ = ecx

; 136  : 	{

  00000	55		 push	 ebp
  00001	8b ec		 mov	 ebp, esp
  00003	6a ff		 push	 -1
  00005	68 00 00 00 00	 push	 __ehhandler$??1?$CDynamicPoolEx@VCRotationDecorator@NEffectUpdateDecorator@@@@UAE@XZ
  0000a	64 a1 00 00 00
	00		 mov	 eax, DWORD PTR fs:0
  00010	50		 push	 eax
  00011	53		 push	 ebx
  00012	56		 push	 esi
  00013	57		 push	 edi
  00014	a1 00 00 00 00	 mov	 eax, DWORD PTR ___security_cookie
  00019	33 c5		 xor	 eax, ebp
  0001b	50		 push	 eax
  0001c	8d 45 f4	 lea	 eax, DWORD PTR __$EHRec$[ebp]
  0001f	64 a3 00 00 00
	00		 mov	 DWORD PTR fs:0, eax
  00025	8b f9		 mov	 edi, ecx
  00027	c7 07 00 00 00
	00		 mov	 DWORD PTR [edi], OFFSET ??_7?$CDynamicPoolEx@VCRotationDecorator@NEffectUpdateDecorator@@@@6B@
; File C:\Program Files\Microsoft Visual Studio\2022\Community\VC\Tools\MSVC\14.34.31933\include\vector

; 41   :     _CONSTEXPR20 _Vector_const_iterator(_Tptr _Parg, const _Container_base* _Pvector) noexcept : _Ptr(_Parg) {

  0002d	8b 5f 08	 mov	 ebx, DWORD PTR [edi+8]
; File C:\Program Files\Microsoft Visual Studio\2022\Community\VC\Tools\MSVC\14.34.31933\include\algorithm

; 265  :     for (; _UFirst != _ULast; ++_UFirst) {

  00030	8b 77 04	 mov	 esi, DWORD PTR [edi+4]
  00033	3b f3		 cmp	 esi, ebx
  00035	74 11		 je	 SHORT $LN19@CDynamicPo
$LL20@CDynamicPo:
; File C:\Users\flourine\Desktop\Xantios\client-src\Code\eterlib\Pool.h

; 232  : 		::operator delete (pkData);

  00037	ff 36		 push	 DWORD PTR [esi]
  00039	e8 00 00 00 00	 call	 ??3@YAXPAX@Z		; operator delete
; File C:\Program Files\Microsoft Visual Studio\2022\Community\VC\Tools\MSVC\14.34.31933\include\algorithm

; 265  :     for (; _UFirst != _ULast; ++_UFirst) {

  0003e	83 c6 04	 add	 esi, 4
; File C:\Users\flourine\Desktop\Xantios\client-src\Code\eterlib\Pool.h

; 232  : 		::operator delete (pkData);

  00041	83 c4 04	 add	 esp, 4
; File C:\Program Files\Microsoft Visual Studio\2022\Community\VC\Tools\MSVC\14.34.31933\include\algorithm

; 265  :     for (; _UFirst != _ULast; ++_UFirst) {

  00044	3b f3		 cmp	 esi, ebx
  00046	75 ef		 jne	 SHORT $LL20@CDynamicPo
$LN19@CDynamicPo:
; File C:\Program Files\Microsoft Visual Studio\2022\Community\VC\Tools\MSVC\14.34.31933\include\vector

; 1829 :         if (_Myfirst == _Mylast) { // already empty, nothing to do

  00048	8b 47 04	 mov	 eax, DWORD PTR [edi+4]
  0004b	3b 47 08	 cmp	 eax, DWORD PTR [edi+8]
  0004e	74 03		 je	 SHORT $LN26@CDynamicPo

; 1830 :             // This is an optimization for debug mode: we can avoid taking the debug lock to invalidate iterators.
; 1831 :             // Note that when clearing an empty vector, this will preserve past-the-end iterators, which is allowed by
; 1832 :             // N4901 [tab:container.seq.req] "a.clear() [...] may invalidate the past-the-end iterator".
; 1833 :             return;
; 1834 :         }
; 1835 : 
; 1836 :         _My_data._Orphan_all();
; 1837 :         _Destroy_range(_Myfirst, _Mylast, _Getal());
; 1838 :         _ASAN_VECTOR_MODIFY(static_cast<difference_type>(_Myfirst - _Mylast)); // negative when destroying elements
; 1839 :         _Mylast = _Myfirst;

  00050	89 47 08	 mov	 DWORD PTR [edi+8], eax
$LN26@CDynamicPo:

; 1829 :         if (_Myfirst == _Mylast) { // already empty, nothing to do

  00053	8b 47 10	 mov	 eax, DWORD PTR [edi+16]
  00056	3b 47 14	 cmp	 eax, DWORD PTR [edi+20]
  00059	74 03		 je	 SHORT $LN29@CDynamicPo

; 1830 :             // This is an optimization for debug mode: we can avoid taking the debug lock to invalidate iterators.
; 1831 :             // Note that when clearing an empty vector, this will preserve past-the-end iterators, which is allowed by
; 1832 :             // N4901 [tab:container.seq.req] "a.clear() [...] may invalidate the past-the-end iterator".
; 1833 :             return;
; 1834 :         }
; 1835 : 
; 1836 :         _My_data._Orphan_all();
; 1837 :         _Destroy_range(_Myfirst, _Mylast, _Getal());
; 1838 :         _ASAN_VECTOR_MODIFY(static_cast<difference_type>(_Myfirst - _Mylast)); // negative when destroying elements
; 1839 :         _Mylast = _Myfirst;

  0005b	89 47 14	 mov	 DWORD PTR [edi+20], eax
$LN29@CDynamicPo:

; 2107 :         if (_Myfirst) { // destroy and deallocate old array

  0005e	85 c0		 test	 eax, eax
  00060	74 41		 je	 SHORT $LN35@CDynamicPo

; 2108 :             _Destroy_range(_Myfirst, _Mylast, _Al);
; 2109 :             _ASAN_VECTOR_REMOVE;
; 2110 :             _Al.deallocate(_Myfirst, static_cast<size_type>(_Myend - _Myfirst));

  00062	8b 4f 18	 mov	 ecx, DWORD PTR [edi+24]
  00065	2b c8		 sub	 ecx, eax
; File C:\Program Files\Microsoft Visual Studio\2022\Community\VC\Tools\MSVC\14.34.31933\include\xmemory

; 830  :         _Deallocate<_New_alignof<_Ty>>(_Ptr, sizeof(_Ty) * _Count);

  00067	83 e1 fc	 and	 ecx, -4			; fffffffcH

; 251  :         if (_Bytes >= _Big_allocation_threshold) { // boost the alignment of big allocations to help autovectorization

  0006a	81 f9 00 10 00
	00		 cmp	 ecx, 4096		; 00001000H
  00070	72 12		 jb	 SHORT $LN51@CDynamicPo

; 150  :     const uintptr_t _Ptr_container   = _Ptr_user[-1];

  00072	8b 50 fc	 mov	 edx, DWORD PTR [eax-4]
  00075	83 c1 23	 add	 ecx, 35			; 00000023H

; 151  : 
; 152  :     // If the following asserts, it likely means that we are performing
; 153  :     // an aligned delete on memory coming from an unaligned allocation.
; 154  :     _STL_ASSERT(_Ptr_user[-2] == _Big_allocation_sentinel, "invalid argument");
; 155  : 
; 156  :     // Extra paranoia on aligned allocation/deallocation; ensure _Ptr_container is
; 157  :     // in range [_Min_back_shift, _Non_user_size]
; 158  : #ifdef _DEBUG
; 159  :     constexpr uintptr_t _Min_back_shift = 2 * sizeof(void*);
; 160  : #else // ^^^ _DEBUG ^^^ // vvv !_DEBUG vvv
; 161  :     constexpr uintptr_t _Min_back_shift = sizeof(void*);
; 162  : #endif // _DEBUG
; 163  :     const uintptr_t _Back_shift = reinterpret_cast<uintptr_t>(_Ptr) - _Ptr_container;

  00078	2b c2		 sub	 eax, edx

; 164  :     _STL_VERIFY(_Back_shift >= _Min_back_shift && _Back_shift <= _Non_user_size, "invalid argument");

  0007a	83 c0 fc	 add	 eax, -4			; fffffffcH
  0007d	83 f8 1f	 cmp	 eax, 31			; 0000001fH
  00080	77 7b		 ja	 SHORT $LN73@CDynamicPo

; 165  :     _Ptr = reinterpret_cast<void*>(_Ptr_container);

  00082	8b c2		 mov	 eax, edx
$LN51@CDynamicPo:

; 255  :         ::operator delete(_Ptr, _Bytes);

  00084	51		 push	 ecx
  00085	50		 push	 eax
  00086	e8 00 00 00 00	 call	 ??3@YAXPAXI@Z		; operator delete
; File C:\Program Files\Microsoft Visual Studio\2022\Community\VC\Tools\MSVC\14.34.31933\include\vector

; 2112 :             _Myfirst = nullptr;

  0008b	c7 47 10 00 00
	00 00		 mov	 DWORD PTR [edi+16], 0
; File C:\Program Files\Microsoft Visual Studio\2022\Community\VC\Tools\MSVC\14.34.31933\include\xmemory

; 255  :         ::operator delete(_Ptr, _Bytes);

  00092	83 c4 08	 add	 esp, 8
; File C:\Program Files\Microsoft Visual Studio\2022\Community\VC\Tools\MSVC\14.34.31933\include\vector

; 2113 :             _Mylast  = nullptr;

  00095	c7 47 14 00 00
	00 00		 mov	 DWORD PTR [edi+20], 0

; 2114 :             _Myend   = nullptr;

  0009c	c7 47 18 00 00
	00 00		 mov	 DWORD PTR [edi+24], 0
$LN35@CDynamicPo:

; 2107 :         if (_Myfirst) { // destroy and deallocate old array

  000a3	8b 47 04	 mov	 eax, DWORD PTR [edi+4]
  000a6	85 c0		 test	 eax, eax
  000a8	74 41		 je	 SHORT $LN60@CDynamicPo

; 2108 :             _Destroy_range(_Myfirst, _Mylast, _Al);
; 2109 :             _ASAN_VECTOR_REMOVE;
; 2110 :             _Al.deallocate(_Myfirst, static_cast<size_type>(_Myend - _Myfirst));

  000aa	8b 4f 0c	 mov	 ecx, DWORD PTR [edi+12]
  000ad	2b c8		 sub	 ecx, eax
; File C:\Program Files\Microsoft Visual Studio\2022\Community\VC\Tools\MSVC\14.34.31933\include\xmemory

; 830  :         _Deallocate<_New_alignof<_Ty>>(_Ptr, sizeof(_Ty) * _Count);

  000af	83 e1 fc	 and	 ecx, -4			; fffffffcH

; 251  :         if (_Bytes >= _Big_allocation_threshold) { // boost the alignment of big allocations to help autovectorization

  000b2	81 f9 00 10 00
	00		 cmp	 ecx, 4096		; 00001000H
  000b8	72 12		 jb	 SHORT $LN76@CDynamicPo

; 150  :     const uintptr_t _Ptr_container   = _Ptr_user[-1];

  000ba	8b 50 fc	 mov	 edx, DWORD PTR [eax-4]
  000bd	83 c1 23	 add	 ecx, 35			; 00000023H

; 151  : 
; 152  :     // If the following asserts, it likely means that we are performing
; 153  :     // an aligned delete on memory coming from an unaligned allocation.
; 154  :     _STL_ASSERT(_Ptr_user[-2] == _Big_allocation_sentinel, "invalid argument");
; 155  : 
; 156  :     // Extra paranoia on aligned allocation/deallocation; ensure _Ptr_container is
; 157  :     // in range [_Min_back_shift, _Non_user_size]
; 158  : #ifdef _DEBUG
; 159  :     constexpr uintptr_t _Min_back_shift = 2 * sizeof(void*);
; 160  : #else // ^^^ _DEBUG ^^^ // vvv !_DEBUG vvv
; 161  :     constexpr uintptr_t _Min_back_shift = sizeof(void*);
; 162  : #endif // _DEBUG
; 163  :     const uintptr_t _Back_shift = reinterpret_cast<uintptr_t>(_Ptr) - _Ptr_container;

  000c0	2b c2		 sub	 eax, edx

; 164  :     _STL_VERIFY(_Back_shift >= _Min_back_shift && _Back_shift <= _Non_user_size, "invalid argument");

  000c2	83 c0 fc	 add	 eax, -4			; fffffffcH
  000c5	83 f8 1f	 cmp	 eax, 31			; 0000001fH
  000c8	77 33		 ja	 SHORT $LN73@CDynamicPo

; 165  :     _Ptr = reinterpret_cast<void*>(_Ptr_container);

  000ca	8b c2		 mov	 eax, edx
$LN76@CDynamicPo:

; 255  :         ::operator delete(_Ptr, _Bytes);

  000cc	51		 push	 ecx
  000cd	50		 push	 eax
  000ce	e8 00 00 00 00	 call	 ??3@YAXPAXI@Z		; operator delete
; File C:\Program Files\Microsoft Visual Studio\2022\Community\VC\Tools\MSVC\14.34.31933\include\vector

; 2112 :             _Myfirst = nullptr;

  000d3	c7 47 04 00 00
	00 00		 mov	 DWORD PTR [edi+4], 0
; File C:\Program Files\Microsoft Visual Studio\2022\Community\VC\Tools\MSVC\14.34.31933\include\xmemory

; 255  :         ::operator delete(_Ptr, _Bytes);

  000da	83 c4 08	 add	 esp, 8
; File C:\Program Files\Microsoft Visual Studio\2022\Community\VC\Tools\MSVC\14.34.31933\include\vector

; 2113 :             _Mylast  = nullptr;

  000dd	c7 47 08 00 00
	00 00		 mov	 DWORD PTR [edi+8], 0

; 2114 :             _Myend   = nullptr;

  000e4	c7 47 0c 00 00
	00 00		 mov	 DWORD PTR [edi+12], 0
$LN60@CDynamicPo:
; File C:\Users\flourine\Desktop\Xantios\client-src\Code\eterlib\Pool.h

; 146  : 	}

  000eb	8b 4d f4	 mov	 ecx, DWORD PTR __$EHRec$[ebp]
  000ee	64 89 0d 00 00
	00 00		 mov	 DWORD PTR fs:0, ecx
  000f5	59		 pop	 ecx
  000f6	5f		 pop	 edi
  000f7	5e		 pop	 esi
  000f8	5b		 pop	 ebx
  000f9	8b e5		 mov	 esp, ebp
  000fb	5d		 pop	 ebp
  000fc	c3		 ret	 0
$LN73@CDynamicPo:
; File C:\Program Files\Microsoft Visual Studio\2022\Community\VC\Tools\MSVC\14.34.31933\include\xmemory

; 164  :     _STL_VERIFY(_Back_shift >= _Min_back_shift && _Back_shift <= _Non_user_size, "invalid argument");

  000fd	e8 00 00 00 00	 call	 __invalid_parameter_noinfo_noreturn
$LN86@CDynamicPo:
  00102	cc		 int	 3
  00103	cc		 int	 3
  00104	cc		 int	 3
  00105	cc		 int	 3
  00106	cc		 int	 3
  00107	cc		 int	 3
_TEXT	ENDS
;	COMDAT text$x
text$x	SEGMENT
__ehhandler$??1?$CDynamicPoolEx@VCRotationDecorator@NEffectUpdateDecorator@@@@UAE@XZ:
  00000	90		 npad	 1
  00001	90		 npad	 1
  00002	8b 54 24 08	 mov	 edx, DWORD PTR [esp+8]
  00006	8d 42 0c	 lea	 eax, DWORD PTR [edx+12]
  00009	8b 4a f0	 mov	 ecx, DWORD PTR [edx-16]
  0000c	33 c8		 xor	 ecx, eax
  0000e	e8 00 00 00 00	 call	 @__security_check_cookie@4
  00013	b8 00 00 00 00	 mov	 eax, OFFSET __ehfuncinfo$??1?$CDynamicPoolEx@VCRotationDecorator@NEffectUpdateDecorator@@@@UAE@XZ
  00018	e9 00 00 00 00	 jmp	 ___CxxFrameHandler3
text$x	ENDS
??1?$CDynamicPoolEx@VCRotationDecorator@NEffectUpdateDecorator@@@@UAE@XZ ENDP ; CDynamicPoolEx<NEffectUpdateDecorator::CRotationDecorator>::~CDynamicPoolEx<NEffectUpdateDecorator::CRotationDecorator>
; Function compile flags: /Ogtp
; File C:\Program Files\Microsoft Visual Studio\2022\Community\VC\Tools\MSVC\14.34.31933\include\xstring
; File C:\Program Files\Microsoft Visual Studio\2022\Community\VC\Tools\MSVC\14.34.31933\include\xmemory
; File C:\Program Files\Microsoft Visual Studio\2022\Community\VC\Tools\MSVC\14.34.31933\include\xstring
; File C:\Program Files\Microsoft Visual Studio\2022\Community\VC\Tools\MSVC\14.34.31933\include\xmemory
; File C:\Program Files\Microsoft Visual Studio\2022\Community\VC\Tools\MSVC\14.34.31933\include\xstring
; File C:\Program Files\Microsoft Visual Studio\2022\Community\VC\Tools\MSVC\14.34.31933\include\xmemory
;	COMDAT ??1SCreateData@CInstanceBase@@QAE@XZ
_TEXT	SEGMENT
??1SCreateData@CInstanceBase@@QAE@XZ PROC		; CInstanceBase::SCreateData::~SCreateData, COMDAT
; _this$ = ecx
; File C:\Program Files\Microsoft Visual Studio\2022\Community\VC\Tools\MSVC\14.34.31933\include\xstring

; 2301 :         return _BUF_SIZE <= _Myres;

  00000	56		 push	 esi
  00001	8b f1		 mov	 esi, ecx
  00003	8b 4e 70	 mov	 ecx, DWORD PTR [esi+112]
  00006	83 f9 10	 cmp	 ecx, 16			; 00000010H

; 5011 :         if (_My_data._Large_string_engaged()) {

  00009	72 28		 jb	 SHORT $LN15@SCreateDat
; File C:\Program Files\Microsoft Visual Studio\2022\Community\VC\Tools\MSVC\14.34.31933\include\xmemory

; 830  :         _Deallocate<_New_alignof<_Ty>>(_Ptr, sizeof(_Ty) * _Count);

  0000b	8b 46 5c	 mov	 eax, DWORD PTR [esi+92]
; File C:\Program Files\Microsoft Visual Studio\2022\Community\VC\Tools\MSVC\14.34.31933\include\xstring

; 5016 :             _Al.deallocate(_Ptr, _My_data._Myres + 1);

  0000e	41		 inc	 ecx
; File C:\Program Files\Microsoft Visual Studio\2022\Community\VC\Tools\MSVC\14.34.31933\include\xmemory

; 251  :         if (_Bytes >= _Big_allocation_threshold) { // boost the alignment of big allocations to help autovectorization

  0000f	81 f9 00 10 00
	00		 cmp	 ecx, 4096		; 00001000H
  00015	72 12		 jb	 SHORT $LN25@SCreateDat

; 150  :     const uintptr_t _Ptr_container   = _Ptr_user[-1];

  00017	8b 50 fc	 mov	 edx, DWORD PTR [eax-4]
  0001a	83 c1 23	 add	 ecx, 35			; 00000023H

; 151  : 
; 152  :     // If the following asserts, it likely means that we are performing
; 153  :     // an aligned delete on memory coming from an unaligned allocation.
; 154  :     _STL_ASSERT(_Ptr_user[-2] == _Big_allocation_sentinel, "invalid argument");
; 155  : 
; 156  :     // Extra paranoia on aligned allocation/deallocation; ensure _Ptr_container is
; 157  :     // in range [_Min_back_shift, _Non_user_size]
; 158  : #ifdef _DEBUG
; 159  :     constexpr uintptr_t _Min_back_shift = 2 * sizeof(void*);
; 160  : #else // ^^^ _DEBUG ^^^ // vvv !_DEBUG vvv
; 161  :     constexpr uintptr_t _Min_back_shift = sizeof(void*);
; 162  : #endif // _DEBUG
; 163  :     const uintptr_t _Back_shift = reinterpret_cast<uintptr_t>(_Ptr) - _Ptr_container;

  0001d	2b c2		 sub	 eax, edx

; 164  :     _STL_VERIFY(_Back_shift >= _Min_back_shift && _Back_shift <= _Non_user_size, "invalid argument");

  0001f	83 c0 fc	 add	 eax, -4			; fffffffcH
  00022	83 f8 1f	 cmp	 eax, 31			; 0000001fH
  00025	77 27		 ja	 SHORT $LN22@SCreateDat

; 165  :     _Ptr = reinterpret_cast<void*>(_Ptr_container);

  00027	8b c2		 mov	 eax, edx
$LN25@SCreateDat:

; 255  :         ::operator delete(_Ptr, _Bytes);

  00029	51		 push	 ecx
  0002a	50		 push	 eax
  0002b	e8 00 00 00 00	 call	 ??3@YAXPAXI@Z		; operator delete
  00030	83 c4 08	 add	 esp, 8
$LN15@SCreateDat:
; File C:\Program Files\Microsoft Visual Studio\2022\Community\VC\Tools\MSVC\14.34.31933\include\xstring

; 5019 :         _My_data._Mysize = 0;

  00033	c7 46 6c 00 00
	00 00		 mov	 DWORD PTR [esi+108], 0
  0003a	8d 4e 53	 lea	 ecx, DWORD PTR [esi+83]

; 5020 :         _My_data._Myres  = _BUF_SIZE - 1;

  0003d	c7 46 70 0f 00
	00 00		 mov	 DWORD PTR [esi+112], 15	; 0000000fH

; 5021 :         // the _Traits::assign is last so the codegen doesn't think the char write can alias this
; 5022 :         _Traits::assign(_My_data._Bx._Buf[0], _Elem());

  00044	c6 46 5c 00	 mov	 BYTE PTR [esi+92], 0
  00048	5e		 pop	 esi
  00049	e9 00 00 00 00	 jmp	 ??1CAffectFlagContainer@@QAE@XZ ; CAffectFlagContainer::~CAffectFlagContainer
$LN22@SCreateDat:
; File C:\Program Files\Microsoft Visual Studio\2022\Community\VC\Tools\MSVC\14.34.31933\include\xmemory

; 164  :     _STL_VERIFY(_Back_shift >= _Min_back_shift && _Back_shift <= _Non_user_size, "invalid argument");

  0004e	e8 00 00 00 00	 call	 __invalid_parameter_noinfo_noreturn
$LN31@SCreateDat:
  00053	cc		 int	 3
??1SCreateData@CInstanceBase@@QAE@XZ ENDP		; CInstanceBase::SCreateData::~SCreateData
_TEXT	ENDS
; Function compile flags: /Ogtp
; File C:\Users\flourine\Desktop\Xantios\client-src\Code\EterLib\GrpRenderTarget.cpp
;	COMDAT ?Destroy@CGraphicRenderTarget@@QAEXXZ
_TEXT	SEGMENT
?Destroy@CGraphicRenderTarget@@QAEXXZ PROC		; CGraphicRenderTarget::Destroy, COMDAT
; _this$ = ecx

; 285  : {

  00000	56		 push	 esi
  00001	8b f1		 mov	 esi, ecx

; 286  : 	if (created_)

  00003	80 7e 06 00	 cmp	 BYTE PTR [esi+6], 0
  00007	74 1d		 je	 SHORT $LN2@Destroy

; 287  : 	{
; 288  : 		created_ = false;
; 289  : 
; 290  : 		model_->Destroy();

  00009	8b 0e		 mov	 ecx, DWORD PTR [esi]
  0000b	c6 46 06 00	 mov	 BYTE PTR [esi+6], 0
  0000f	e8 00 00 00 00	 call	 ?Destroy@CInstanceBase@@QAEXXZ ; CInstanceBase::Destroy

; 291  : 		delete model_;

  00014	8b 0e		 mov	 ecx, DWORD PTR [esi]
  00016	85 c9		 test	 ecx, ecx
  00018	74 06		 je	 SHORT $LN4@Destroy
  0001a	8b 01		 mov	 eax, DWORD PTR [ecx]
  0001c	6a 01		 push	 1
  0001e	ff 10		 call	 DWORD PTR [eax]
$LN4@Destroy:

; 292  : 
; 293  : 		model_ = NULL;

  00020	c7 06 00 00 00
	00		 mov	 DWORD PTR [esi], 0
$LN2@Destroy:
  00026	5e		 pop	 esi

; 294  : 	}
; 295  : }

  00027	c3		 ret	 0
?Destroy@CGraphicRenderTarget@@QAEXXZ ENDP		; CGraphicRenderTarget::Destroy
_TEXT	ENDS
; Function compile flags: /Ogtp
; File C:\Users\flourine\Desktop\Xantios\client-src\Code\EterLib\GrpRenderTarget.cpp
; File C:\Users\flourine\Desktop\Xantios\client-src\extern\include\directX\d3dx9math.inl
; File C:\Users\flourine\Desktop\Xantios\client-src\Code\EterLib\GrpRenderTarget.cpp
; File C:\Users\flourine\Desktop\Xantios\client-src\extern\include\directX\d3dx9math.inl
; File C:\Users\flourine\Desktop\Xantios\client-src\Code\EterLib\GrpRenderTarget.cpp
; File C:\Users\flourine\Desktop\Xantios\client-src\extern\include\directX\d3dx9math.inl
; File C:\Users\flourine\Desktop\Xantios\client-src\Code\EterLib\GrpRenderTarget.cpp
; File C:\Users\flourine\Desktop\Xantios\client-src\extern\include\directX\d3dx9math.inl
; File C:\Users\flourine\Desktop\Xantios\client-src\Code\EterLib\GrpRenderTarget.cpp
;	COMDAT ?Render@CGraphicRenderTarget@@QAEXMMMM@Z
_TEXT	SEGMENT
_fov$ = -60						; size = 4
_aspect$ = -56						; size = 4
_nearY$ = -52						; size = 4
_farY$ = -48						; size = 4
_this$GSCopy$1$ = -44					; size = 4
$T1 = -40						; size = 12
$T2 = -28						; size = 12
$T3 = -16						; size = 12
__$ArrayPad$ = -4					; size = 4
_x$ = 8							; size = 4
_y$ = 12						; size = 4
_width$ = 16						; size = 4
_height$ = 20						; size = 4
?Render@CGraphicRenderTarget@@QAEXMMMM@Z PROC		; CGraphicRenderTarget::Render, COMDAT
; _this$ = ecx

; 215  : {

  00000	55		 push	 ebp
  00001	8b ec		 mov	 ebp, esp
  00003	83 ec 3c	 sub	 esp, 60			; 0000003cH
  00006	a1 00 00 00 00	 mov	 eax, DWORD PTR ___security_cookie
  0000b	33 c5		 xor	 eax, ebp
  0000d	89 45 fc	 mov	 DWORD PTR __$ArrayPad$[ebp], eax
  00010	8b c1		 mov	 eax, ecx
  00012	56		 push	 esi
  00013	57		 push	 edi
  00014	89 45 d4	 mov	 DWORD PTR _this$GSCopy$1$[ebp], eax

; 216  : 	// TODO: Fix off screen rendering.
; 217  : 	//       The model can be cutted so only the part on screen
; 218  : 	//       should be rendered. Another option (dirtier) to
; 219  : 	//       make the rendering work flawless is to allow off
; 220  : 	//       off screen rendering.
; 221  : 
; 222  : 	if (!created_)

  00017	80 78 06 00	 cmp	 BYTE PTR [eax+6], 0
  0001b	0f 84 b2 01 00
	00		 je	 $LN1@Render

; 223  : 	{
; 224  : 		return;
; 225  : 	}
; 226  : 
; 227  : 	auto& graphic = CPythonGraphic::Instance();

  00021	8b 3d 00 00 00
	00		 mov	 edi, DWORD PTR ?ms_singleton@?$CSingleton@VCPythonGraphic@@@@0PAVCPythonGraphic@@A ; CSingleton<CPythonGraphic>::ms_singleton

; 228  : 	//auto& application = CPythonApplication::Instance();
; 229  : 	auto& camera = CCameraManager::Instance();
; 230  : 
; 231  : 	graphic.ClearDepthBuffer();

  00027	8b cf		 mov	 ecx, edi
  00029	8b 35 00 00 00
	00		 mov	 esi, DWORD PTR ?ms_singleton@?$CSingleton@VCCameraManager@@@@0PAVCCameraManager@@A ; CSingleton<CCameraManager>::ms_singleton
  0002f	e8 00 00 00 00	 call	 ?ClearDepthBuffer@CScreen@@QAEXXZ ; CScreen::ClearDepthBuffer

; 232  : 
; 233  : 	float fov = graphic.GetFOV(),

  00034	8b cf		 mov	 ecx, edi
  00036	e8 00 00 00 00	 call	 ?GetFOV@CGraphicBase@@QBEMXZ ; CGraphicBase::GetFOV
  0003b	d9 5d c4	 fstp	 DWORD PTR _fov$[ebp]

; 234  : 		  aspect = graphic.GetAspect(),

  0003e	8b cf		 mov	 ecx, edi
  00040	e8 00 00 00 00	 call	 ?GetAspect@CGraphicBase@@QBEMXZ ; CGraphicBase::GetAspect
  00045	d9 5d c8	 fstp	 DWORD PTR _aspect$[ebp]

; 235  : 		  nearY = graphic.GetNear(),

  00048	8b cf		 mov	 ecx, edi
  0004a	e8 00 00 00 00	 call	 ?GetNear@CGraphicBase@@QBEMXZ ; CGraphicBase::GetNear
  0004f	d9 5d cc	 fstp	 DWORD PTR _nearY$[ebp]

; 236  : 		  farY = graphic.GetFar();

  00052	8b cf		 mov	 ecx, edi
  00054	e8 00 00 00 00	 call	 ?GetFar@CGraphicBase@@QBEMXZ ; CGraphicBase::GetFar

; 237  : 
; 238  : 	graphic.SetGameRenderState();

  00059	8b cf		 mov	 ecx, edi
  0005b	d9 5d d0	 fstp	 DWORD PTR _farY$[ebp]
  0005e	e8 00 00 00 00	 call	 ?SetGameRenderState@CPythonGraphic@@QAEXXZ ; CPythonGraphic::SetGameRenderState

; 239  : 	graphic.PushState();

  00063	8b cf		 mov	 ecx, edi
  00065	e8 00 00 00 00	 call	 ?PushState@CPythonGraphic@@QAEXXZ ; CPythonGraphic::PushState

; 240  : 	graphic.SetOmniLight(light_position_);

  0006a	8b 45 d4	 mov	 eax, DWORD PTR _this$GSCopy$1$[ebp]
  0006d	83 ec 0c	 sub	 esp, 12			; 0000000cH
  00070	8b cc		 mov	 ecx, esp
  00072	f3 0f 7e 40 0c	 movq	 xmm0, QWORD PTR [eax+12]
  00077	8b 40 14	 mov	 eax, DWORD PTR [eax+20]
  0007a	66 0f d6 01	 movq	 QWORD PTR [ecx], xmm0
  0007e	89 41 08	 mov	 DWORD PTR [ecx+8], eax
  00081	8b cf		 mov	 ecx, edi
  00083	e8 00 00 00 00	 call	 ?SetOmniLight@CPythonGraphic@@QAEXUD3DXVECTOR3@@@Z ; CPythonGraphic::SetOmniLight

; 241  : 
; 242  : 	camera.SetCurrentCamera(CCameraManager::RENDER_TARGET_CAMERA);

  00088	6a 04		 push	 4
  0008a	8b ce		 mov	 ecx, esi
  0008c	e8 00 00 00 00	 call	 ?SetCurrentCamera@CCameraManager@@QAEXE@Z ; CCameraManager::SetCurrentCamera

; 243  : 
; 244  : 	graphic.SetViewport(x, y, width, height);

  00091	f3 0f 10 45 14	 movss	 xmm0, DWORD PTR _height$[ebp]
  00096	83 ec 10	 sub	 esp, 16			; 00000010H
  00099	8b cf		 mov	 ecx, edi
  0009b	f3 0f 11 44 24
	0c		 movss	 DWORD PTR [esp+12], xmm0
  000a1	f3 0f 10 45 10	 movss	 xmm0, DWORD PTR _width$[ebp]
  000a6	f3 0f 11 44 24
	08		 movss	 DWORD PTR [esp+8], xmm0
  000ac	f3 0f 10 45 0c	 movss	 xmm0, DWORD PTR _y$[ebp]
  000b1	f3 0f 11 44 24
	04		 movss	 DWORD PTR [esp+4], xmm0
  000b7	f3 0f 10 45 08	 movss	 xmm0, DWORD PTR _x$[ebp]
  000bc	f3 0f 11 04 24	 movss	 DWORD PTR [esp], xmm0
  000c1	e8 00 00 00 00	 call	 ?SetViewport@CPythonGraphic@@QAEXMMMM@Z ; CPythonGraphic::SetViewport

; 246  : 	camera.GetCurrentCamera()->SetViewParams(

  000c6	8b ce		 mov	 ecx, esi
  000c8	e8 00 00 00 00	 call	 ?GetCurrentCamera@CCameraManager@@QAEPAVCCamera@@XZ ; CCameraManager::GetCurrentCamera
  000cd	8b 4d d4	 mov	 ecx, DWORD PTR _this$GSCopy$1$[ebp]
; File C:\Users\flourine\Desktop\Xantios\client-src\extern\include\directX\d3dx9math.inl

; 304  :     x = fx;

  000d0	c7 45 f0 00 00
	00 00		 mov	 DWORD PTR $T3[ebp], 0

; 305  :     y = fy;

  000d7	c7 45 f4 00 00
	00 00		 mov	 DWORD PTR $T3[ebp+4], 0

; 306  :     z = fz;

  000de	c7 45 f8 00 00
	80 3f		 mov	 DWORD PTR $T3[ebp+8], 1065353216 ; 3f800000H
; File C:\Users\flourine\Desktop\Xantios\client-src\Code\EterLib\GrpRenderTarget.cpp

; 246  : 	camera.GetCurrentCamera()->SetViewParams(

  000e5	f3 0f 10 41 08	 movss	 xmm0, DWORD PTR [ecx+8]
  000ea	8d 4d f0	 lea	 ecx, DWORD PTR $T3[ebp]
  000ed	0f 57 05 00 00
	00 00		 xorps	 xmm0, DWORD PTR __xmm@80000000800000008000000080000000
  000f4	51		 push	 ecx
  000f5	8d 4d e4	 lea	 ecx, DWORD PTR $T2[ebp]
; File C:\Users\flourine\Desktop\Xantios\client-src\extern\include\directX\d3dx9math.inl

; 304  :     x = fx;

  000f8	c7 45 e4 00 00
	00 00		 mov	 DWORD PTR $T2[ebp], 0
; File C:\Users\flourine\Desktop\Xantios\client-src\Code\EterLib\GrpRenderTarget.cpp

; 246  : 	camera.GetCurrentCamera()->SetViewParams(

  000ff	51		 push	 ecx
  00100	8d 4d d8	 lea	 ecx, DWORD PTR $T1[ebp]
; File C:\Users\flourine\Desktop\Xantios\client-src\extern\include\directX\d3dx9math.inl

; 305  :     y = fy;

  00103	c7 45 e8 00 00
	00 00		 mov	 DWORD PTR $T2[ebp+4], 0
; File C:\Users\flourine\Desktop\Xantios\client-src\Code\EterLib\GrpRenderTarget.cpp

; 246  : 	camera.GetCurrentCamera()->SetViewParams(

  0010a	51		 push	 ecx
  0010b	8b c8		 mov	 ecx, eax
; File C:\Users\flourine\Desktop\Xantios\client-src\extern\include\directX\d3dx9math.inl

; 306  :     z = fz;

  0010d	c7 45 ec 00 00
	be 42		 mov	 DWORD PTR $T2[ebp+8], 1119748096 ; 42be0000H

; 304  :     x = fx;

  00114	c7 45 d8 00 00
	00 00		 mov	 DWORD PTR $T1[ebp], 0

; 305  :     y = fy;

  0011b	f3 0f 11 45 dc	 movss	 DWORD PTR $T1[ebp+4], xmm0

; 306  :     z = fz;

  00120	c7 45 e0 00 00
	16 44		 mov	 DWORD PTR $T1[ebp+8], 1142292480 ; 44160000H
; File C:\Users\flourine\Desktop\Xantios\client-src\Code\EterLib\GrpRenderTarget.cpp

; 246  : 	camera.GetCurrentCamera()->SetViewParams(

  00127	e8 00 00 00 00	 call	 ?SetViewParams@CCamera@@QAEXABUD3DXVECTOR3@@00@Z ; CCamera::SetViewParams

; 247  : 		D3DXVECTOR3(0.0f, -cam_distance_, 600.0f),
; 248  : 		D3DXVECTOR3(0.0f, 0.0f, 95.0f),
; 249  : 		D3DXVECTOR3(0.0f, 0.0f, 1.0f)
; 250  : 	);
; 251  : 
; 252  : 	graphic.UpdateViewMatrix();

  0012c	8b cf		 mov	 ecx, edi
  0012e	e8 00 00 00 00	 call	 ?UpdateViewMatrix@CGraphicBase@@QAEXXZ ; CGraphicBase::UpdateViewMatrix

; 253  : 	graphic.SetPerspective(10.0f, width / height, 1000.0f, 3000.0f);

  00133	f3 0f 10 45 10	 movss	 xmm0, DWORD PTR _width$[ebp]
  00138	83 ec 10	 sub	 esp, 16			; 00000010H
  0013b	f3 0f 5e 45 14	 divss	 xmm0, DWORD PTR _height$[ebp]
  00140	8b cf		 mov	 ecx, edi
  00142	c7 44 24 0c 00
	80 3b 45	 mov	 DWORD PTR [esp+12], 1161527296 ; 453b8000H
  0014a	c7 44 24 08 00
	00 7a 44	 mov	 DWORD PTR [esp+8], 1148846080 ; 447a0000H
  00152	f3 0f 11 44 24
	04		 movss	 DWORD PTR [esp+4], xmm0
  00158	c7 04 24 00 00
	20 41		 mov	 DWORD PTR [esp], 1092616192 ; 41200000H
  0015f	e8 00 00 00 00	 call	 ?SetPerspective@CGraphicBase@@QAEXMMMM@Z ; CGraphicBase::SetPerspective

; 254  : 
; 255  : 	model_->Transform();

  00164	8b 45 d4	 mov	 eax, DWORD PTR _this$GSCopy$1$[ebp]
  00167	8b 08		 mov	 ecx, DWORD PTR [eax]
  00169	e8 00 00 00 00	 call	 ?Transform@CInstanceBase@@QAEXXZ ; CInstanceBase::Transform

; 256  : 	model_->Deform();

  0016e	8b 45 d4	 mov	 eax, DWORD PTR _this$GSCopy$1$[ebp]
  00171	8b 08		 mov	 ecx, DWORD PTR [eax]
  00173	e8 00 00 00 00	 call	 ?Deform@CInstanceBase@@QAEXXZ ; CInstanceBase::Deform

; 257  : 	model_->Render();

  00178	8b 45 d4	 mov	 eax, DWORD PTR _this$GSCopy$1$[ebp]
  0017b	8b 08		 mov	 ecx, DWORD PTR [eax]
  0017d	e8 00 00 00 00	 call	 ?Render@CInstanceBase@@QAEXXZ ; CInstanceBase::Render

; 258  : 
; 259  : 	/*
; 260  : 	for (auto& effectInfo : model_->GetGraphicThingInstancePtr()->GetAttachedAffectList())
; 261  : 	{
; 262  : 		auto effect = CEffectManager::Instance().GetEffectInstance(effectInfo.dwEffectIndex);
; 263  : 		if (!effect)
; 264  : 		{
; 265  : 			TraceError("cannot get effect by %u", effectInfo.dwEffectIndex);
; 266  : 			continue;
; 267  : 		}
; 268  : 
; 269  : 		effect->Update();
; 270  : 		effect->Transform();
; 271  : 		effect->Deform();
; 272  : 		effect->Render();
; 273  : 	}
; 274  : 	*/
; 275  : 
; 276  : 	camera.ResetToPreviousCamera();

  00182	8b ce		 mov	 ecx, esi
  00184	e8 00 00 00 00	 call	 ?ResetToPreviousCamera@CCameraManager@@QAEXXZ ; CCameraManager::ResetToPreviousCamera

; 277  : 
; 278  : 	graphic.RestoreViewport();

  00189	8b cf		 mov	 ecx, edi
  0018b	e8 00 00 00 00	 call	 ?RestoreViewport@CPythonGraphic@@QAEXXZ ; CPythonGraphic::RestoreViewport

; 279  : 	graphic.PopState();

  00190	8b cf		 mov	 ecx, edi
  00192	e8 00 00 00 00	 call	 ?PopState@CPythonGraphic@@QAEXXZ ; CPythonGraphic::PopState

; 280  : 	graphic.SetPerspective(fov, aspect, nearY, farY);

  00197	f3 0f 10 45 d0	 movss	 xmm0, DWORD PTR _farY$[ebp]
  0019c	83 ec 10	 sub	 esp, 16			; 00000010H
  0019f	8b cf		 mov	 ecx, edi
  001a1	f3 0f 11 44 24
	0c		 movss	 DWORD PTR [esp+12], xmm0
  001a7	f3 0f 10 45 cc	 movss	 xmm0, DWORD PTR _nearY$[ebp]
  001ac	f3 0f 11 44 24
	08		 movss	 DWORD PTR [esp+8], xmm0
  001b2	f3 0f 10 45 c8	 movss	 xmm0, DWORD PTR _aspect$[ebp]
  001b7	f3 0f 11 44 24
	04		 movss	 DWORD PTR [esp+4], xmm0
  001bd	f3 0f 10 45 c4	 movss	 xmm0, DWORD PTR _fov$[ebp]
  001c2	f3 0f 11 04 24	 movss	 DWORD PTR [esp], xmm0
  001c7	e8 00 00 00 00	 call	 ?SetPerspective@CGraphicBase@@QAEXMMMM@Z ; CGraphicBase::SetPerspective

; 281  : 	graphic.SetInterfaceRenderState();

  001cc	8b cf		 mov	 ecx, edi
  001ce	e8 00 00 00 00	 call	 ?SetInterfaceRenderState@CPythonGraphic@@QAEXXZ ; CPythonGraphic::SetInterfaceRenderState
$LN1@Render:

; 282  : }

  001d3	8b 4d fc	 mov	 ecx, DWORD PTR __$ArrayPad$[ebp]
  001d6	5f		 pop	 edi
  001d7	33 cd		 xor	 ecx, ebp
  001d9	5e		 pop	 esi
  001da	e8 00 00 00 00	 call	 @__security_check_cookie@4
  001df	8b e5		 mov	 esp, ebp
  001e1	5d		 pop	 ebp
  001e2	c2 10 00	 ret	 16			; 00000010H
?Render@CGraphicRenderTarget@@QAEXMMMM@Z ENDP		; CGraphicRenderTarget::Render
_TEXT	ENDS
; Function compile flags: /Ogtp
; File C:\Users\flourine\Desktop\Xantios\client-src\Code\EterLib\GrpRenderTarget.cpp
; File C:\Users\flourine\Desktop\Xantios\client-src\extern\include\directX\d3dx9math.inl
; File C:\Users\flourine\Desktop\Xantios\client-src\Code\EterLib\GrpRenderTarget.cpp
;	COMDAT ?Update@CGraphicRenderTarget@@QAEXXZ
_TEXT	SEGMENT
_rotation$1 = -20					; size = 4
$T2 = -16						; size = 12
__$ArrayPad$ = -4					; size = 4
?Update@CGraphicRenderTarget@@QAEXXZ PROC		; CGraphicRenderTarget::Update, COMDAT
; _this$ = ecx

; 185  : {

  00000	55		 push	 ebp
  00001	8b ec		 mov	 ebp, esp
  00003	83 ec 14	 sub	 esp, 20			; 00000014H
  00006	a1 00 00 00 00	 mov	 eax, DWORD PTR ___security_cookie
  0000b	33 c5		 xor	 eax, ebp
  0000d	89 45 fc	 mov	 DWORD PTR __$ArrayPad$[ebp], eax
  00010	56		 push	 esi
  00011	8b f1		 mov	 esi, ecx

; 186  : 	if (!created_ || (!rotation_ && !motion_))

  00013	80 7e 06 00	 cmp	 BYTE PTR [esi+6], 0
  00017	74 73		 je	 SHORT $LN3@Update
  00019	80 7e 04 00	 cmp	 BYTE PTR [esi+4], 0
  0001d	75 08		 jne	 SHORT $LN12@Update
  0001f	80 7e 05 00	 cmp	 BYTE PTR [esi+5], 0
  00023	74 67		 je	 SHORT $LN3@Update

; 187  : 	{
; 188  : 		return;
; 189  : 	}
; 190  : 
; 191  : 	if (rotation_)

  00025	eb 32		 jmp	 SHORT $LN4@Update
$LN12@Update:

; 192  : 	{
; 193  : 		float rotation = model_->GetRotation() - 0.5f;

  00027	8b 0e		 mov	 ecx, DWORD PTR [esi]
  00029	e8 00 00 00 00	 call	 ?GetRotation@CInstanceBase@@QAEMXZ ; CInstanceBase::GetRotation
  0002e	d8 25 00 00 00
	00		 fsub	 DWORD PTR __real@3f000000
  00034	0f 57 c9	 xorps	 xmm1, xmm1
  00037	d9 5d ec	 fstp	 DWORD PTR _rotation$1[ebp]

; 194  : 		if (rotation <= 0.0f)

  0003a	f3 0f 10 45 ec	 movss	 xmm0, DWORD PTR _rotation$1[ebp]
  0003f	0f 2f c8	 comiss	 xmm1, xmm0
  00042	72 08		 jb	 SHORT $LN5@Update

; 195  : 		{
; 196  : 			rotation = 360.0f;

  00044	f3 0f 10 05 00
	00 00 00	 movss	 xmm0, DWORD PTR __real@43b40000
$LN5@Update:

; 197  : 		}
; 198  : 
; 199  : 		model_->SetRotation(rotation);

  0004c	51		 push	 ecx
  0004d	8b 0e		 mov	 ecx, DWORD PTR [esi]
  0004f	f3 0f 11 04 24	 movss	 DWORD PTR [esp], xmm0
  00054	e8 00 00 00 00	 call	 ?SetRotation@CInstanceBase@@QAEXM@Z ; CInstanceBase::SetRotation
$LN4@Update:

; 200  : 	}
; 201  : 
; 202  : 	if (motion_)

  00059	80 7e 05 00	 cmp	 BYTE PTR [esi+5], 0
  0005d	74 26		 je	 SHORT $LN7@Update

; 203  : 	{
; 204  : 		if (!model_->GetGraphicThingInstanceRef().IsUsingMovingSkill())

  0005f	8b 0e		 mov	 ecx, DWORD PTR [esi]
  00061	e8 00 00 00 00	 call	 ?GetGraphicThingInstanceRef@CInstanceBase@@QAEAAVCActorInstance@@XZ ; CInstanceBase::GetGraphicThingInstanceRef
  00066	8b c8		 mov	 ecx, eax
  00068	e8 00 00 00 00	 call	 ?IsUsingMovingSkill@CActorInstance@@QAEHXZ ; CActorInstance::IsUsingMovingSkill
  0006d	85 c0		 test	 eax, eax
  0006f	75 14		 jne	 SHORT $LN7@Update

; 206  : 			model_->NEW_SetPixelPosition(TPixelPosition(0.0f, 0.0f, 0.0f));

  00071	8b 0e		 mov	 ecx, DWORD PTR [esi]
; File C:\Users\flourine\Desktop\Xantios\client-src\extern\include\directX\d3dx9math.inl

; 304  :     x = fx;

  00073	89 45 f0	 mov	 DWORD PTR $T2[ebp], eax

; 305  :     y = fy;

  00076	89 45 f4	 mov	 DWORD PTR $T2[ebp+4], eax

; 306  :     z = fz;

  00079	89 45 f8	 mov	 DWORD PTR $T2[ebp+8], eax
; File C:\Users\flourine\Desktop\Xantios\client-src\Code\EterLib\GrpRenderTarget.cpp

; 206  : 			model_->NEW_SetPixelPosition(TPixelPosition(0.0f, 0.0f, 0.0f));

  0007c	8d 45 f0	 lea	 eax, DWORD PTR $T2[ebp]
  0007f	50		 push	 eax
  00080	e8 00 00 00 00	 call	 ?NEW_SetPixelPosition@CInstanceBase@@QAEXABUD3DXVECTOR3@@@Z ; CInstanceBase::NEW_SetPixelPosition
$LN7@Update:

; 207  : 			//motion_ = false;
; 208  : 		}
; 209  : 	}
; 210  : 
; 211  : 	model_->Update();

  00085	8b 0e		 mov	 ecx, DWORD PTR [esi]
  00087	e8 00 00 00 00	 call	 ?Update@CInstanceBase@@QAEXXZ ; CInstanceBase::Update
$LN3@Update:

; 212  : }

  0008c	8b 4d fc	 mov	 ecx, DWORD PTR __$ArrayPad$[ebp]
  0008f	33 cd		 xor	 ecx, ebp
  00091	5e		 pop	 esi
  00092	e8 00 00 00 00	 call	 @__security_check_cookie@4
  00097	8b e5		 mov	 esp, ebp
  00099	5d		 pop	 ebp
  0009a	c3		 ret	 0
?Update@CGraphicRenderTarget@@QAEXXZ ENDP		; CGraphicRenderTarget::Update
_TEXT	ENDS
; Function compile flags: /Ogtp
; File C:\Users\flourine\Desktop\Xantios\client-src\Code\EterLib\GrpRenderTarget.cpp
;	COMDAT ?SetRotationMode@CGraphicRenderTarget@@QAEX_N@Z
_TEXT	SEGMENT
_enable$ = 8						; size = 1
?SetRotationMode@CGraphicRenderTarget@@QAEX_N@Z PROC	; CGraphicRenderTarget::SetRotationMode, COMDAT
; _this$ = ecx

; 180  : {

  00000	55		 push	 ebp
  00001	8b ec		 mov	 ebp, esp

; 181  : 	rotation_ = enable;

  00003	8a 45 08	 mov	 al, BYTE PTR _enable$[ebp]
  00006	88 41 04	 mov	 BYTE PTR [ecx+4], al

; 182  : }

  00009	5d		 pop	 ebp
  0000a	c2 04 00	 ret	 4
?SetRotationMode@CGraphicRenderTarget@@QAEX_N@Z ENDP	; CGraphicRenderTarget::SetRotationMode
_TEXT	ENDS
; Function compile flags: /Ogtp
; File C:\Users\flourine\Desktop\Xantios\client-src\Code\EterLib\GrpRenderTarget.cpp
;	COMDAT ?GetRotation@CGraphicRenderTarget@@QAEMXZ
_TEXT	SEGMENT
?GetRotation@CGraphicRenderTarget@@QAEMXZ PROC		; CGraphicRenderTarget::GetRotation, COMDAT
; _this$ = ecx

; 171  : 	if (created_)

  00000	80 79 06 00	 cmp	 BYTE PTR [ecx+6], 0
  00004	74 07		 je	 SHORT $LN2@GetRotatio

; 172  : 	{
; 173  : 		return model_->GetRotation();

  00006	8b 09		 mov	 ecx, DWORD PTR [ecx]
  00008	e9 00 00 00 00	 jmp	 ?GetRotation@CInstanceBase@@QAEMXZ ; CInstanceBase::GetRotation
$LN2@GetRotatio:

; 174  : 	}
; 175  : 
; 176  : 	return 0.0f;

  0000d	d9 ee		 fldz

; 177  : }

  0000f	c3		 ret	 0
?GetRotation@CGraphicRenderTarget@@QAEMXZ ENDP		; CGraphicRenderTarget::GetRotation
_TEXT	ENDS
; Function compile flags: /Ogtp
; File C:\Users\flourine\Desktop\Xantios\client-src\Code\EterLib\GrpRenderTarget.cpp
;	COMDAT ?SetRotation@CGraphicRenderTarget@@QAEXM@Z
_TEXT	SEGMENT
_rotation$ = 8						; size = 4
?SetRotation@CGraphicRenderTarget@@QAEXM@Z PROC		; CGraphicRenderTarget::SetRotation, COMDAT
; _this$ = ecx

; 161  : {

  00000	55		 push	 ebp
  00001	8b ec		 mov	 ebp, esp
  00003	56		 push	 esi
  00004	8b f1		 mov	 esi, ecx

; 162  : 	if (created_)

  00006	80 7e 06 00	 cmp	 BYTE PTR [esi+6], 0
  0000a	74 19		 je	 SHORT $LN2@SetRotatio

; 163  : 	{
; 164  : 		model_->SetRotation(rotation);

  0000c	f3 0f 10 45 08	 movss	 xmm0, DWORD PTR _rotation$[ebp]
  00011	51		 push	 ecx
  00012	8b 0e		 mov	 ecx, DWORD PTR [esi]
  00014	f3 0f 11 04 24	 movss	 DWORD PTR [esp], xmm0
  00019	e8 00 00 00 00	 call	 ?SetRotation@CInstanceBase@@QAEXM@Z ; CInstanceBase::SetRotation

; 165  : 		model_->Update();

  0001e	8b 0e		 mov	 ecx, DWORD PTR [esi]
  00020	e8 00 00 00 00	 call	 ?Update@CInstanceBase@@QAEXXZ ; CInstanceBase::Update
$LN2@SetRotatio:
  00025	5e		 pop	 esi

; 166  : 	}
; 167  : }

  00026	5d		 pop	 ebp
  00027	c2 04 00	 ret	 4
?SetRotation@CGraphicRenderTarget@@QAEXM@Z ENDP		; CGraphicRenderTarget::SetRotation
_TEXT	ENDS
; Function compile flags: /Ogtp
; File C:\Users\flourine\Desktop\Xantios\client-src\Code\EterLib\GrpRenderTarget.cpp
;	COMDAT ?GetRenderDistance@CGraphicRenderTarget@@QAEMXZ
_TEXT	SEGMENT
?GetRenderDistance@CGraphicRenderTarget@@QAEMXZ PROC	; CGraphicRenderTarget::GetRenderDistance, COMDAT
; _this$ = ecx

; 147  : 	return cam_distance_;

  00000	d9 41 08	 fld	 DWORD PTR [ecx+8]

; 148  : }

  00003	c3		 ret	 0
?GetRenderDistance@CGraphicRenderTarget@@QAEMXZ ENDP	; CGraphicRenderTarget::GetRenderDistance
_TEXT	ENDS
; Function compile flags: /Ogtp
; File C:\Users\flourine\Desktop\Xantios\client-src\Code\EterLib\GrpRenderTarget.cpp
;	COMDAT ?SetRenderDistance@CGraphicRenderTarget@@QAEXM@Z
_TEXT	SEGMENT
_distance$ = 8						; size = 4
?SetRenderDistance@CGraphicRenderTarget@@QAEXM@Z PROC	; CGraphicRenderTarget::SetRenderDistance, COMDAT
; _this$ = ecx

; 141  : {

  00000	55		 push	 ebp
  00001	8b ec		 mov	 ebp, esp

; 142  : 	cam_distance_ = distance;

  00003	f3 0f 10 45 08	 movss	 xmm0, DWORD PTR _distance$[ebp]
  00008	f3 0f 11 41 08	 movss	 DWORD PTR [ecx+8], xmm0

; 143  : }

  0000d	5d		 pop	 ebp
  0000e	c2 04 00	 ret	 4
?SetRenderDistance@CGraphicRenderTarget@@QAEXM@Z ENDP	; CGraphicRenderTarget::SetRenderDistance
_TEXT	ENDS
; Function compile flags: /Ogtp
; File C:\Users\flourine\Desktop\Xantios\client-src\Code\EterLib\GrpRenderTarget.cpp
;	COMDAT ?GetLightPosition@CGraphicRenderTarget@@QBEABUD3DXVECTOR3@@XZ
_TEXT	SEGMENT
?GetLightPosition@CGraphicRenderTarget@@QBEABUD3DXVECTOR3@@XZ PROC ; CGraphicRenderTarget::GetLightPosition, COMDAT
; _this$ = ecx

; 157  : 	return light_position_;

  00000	8d 41 0c	 lea	 eax, DWORD PTR [ecx+12]

; 158  : }

  00003	c3		 ret	 0
?GetLightPosition@CGraphicRenderTarget@@QBEABUD3DXVECTOR3@@XZ ENDP ; CGraphicRenderTarget::GetLightPosition
_TEXT	ENDS
; Function compile flags: /Ogtp
; File C:\Users\flourine\Desktop\Xantios\client-src\Code\EterLib\GrpRenderTarget.cpp
;	COMDAT ?SetLightPosition@CGraphicRenderTarget@@QAEXUD3DXVECTOR3@@@Z
_TEXT	SEGMENT
_light_position$ = 8					; size = 12
?SetLightPosition@CGraphicRenderTarget@@QAEXUD3DXVECTOR3@@@Z PROC ; CGraphicRenderTarget::SetLightPosition, COMDAT
; _this$ = ecx

; 151  : {

  00000	55		 push	 ebp
  00001	8b ec		 mov	 ebp, esp

; 152  : 	light_position_ = light_position;

  00003	f3 0f 7e 45 08	 movq	 xmm0, QWORD PTR _light_position$[ebp]
  00008	8b 45 10	 mov	 eax, DWORD PTR _light_position$[ebp+8]
  0000b	66 0f d6 41 0c	 movq	 QWORD PTR [ecx+12], xmm0
  00010	89 41 14	 mov	 DWORD PTR [ecx+20], eax

; 153  : }

  00013	5d		 pop	 ebp
  00014	c2 0c 00	 ret	 12			; 0000000cH
?SetLightPosition@CGraphicRenderTarget@@QAEXUD3DXVECTOR3@@@Z ENDP ; CGraphicRenderTarget::SetLightPosition
_TEXT	ENDS
; Function compile flags: /Ogtp
; File C:\Users\flourine\Desktop\Xantios\client-src\Code\EterLib\GrpRenderTarget.cpp
;	COMDAT ?SetRendererMotion@CGraphicRenderTarget@@QAEXI@Z
_TEXT	SEGMENT
_vnum$ = 8						; size = 4
?SetRendererMotion@CGraphicRenderTarget@@QAEXI@Z PROC	; CGraphicRenderTarget::SetRendererMotion, COMDAT
; _this$ = ecx

; 131  : {

  00000	55		 push	 ebp
  00001	8b ec		 mov	 ebp, esp
  00003	56		 push	 esi
  00004	8b f1		 mov	 esi, ecx

; 132  : 	if (created_)

  00006	80 7e 06 00	 cmp	 BYTE PTR [esi+6], 0
  0000a	74 17		 je	 SHORT $LN2@SetRendere

; 133  : 	{
; 134  : 		model_->SetSkillPreview(vnum, vnum);

  0000c	8b 45 08	 mov	 eax, DWORD PTR _vnum$[ebp]
  0000f	8b 0e		 mov	 ecx, DWORD PTR [esi]
  00011	50		 push	 eax
  00012	50		 push	 eax
  00013	e8 00 00 00 00	 call	 ?SetSkillPreview@CInstanceBase@@QAEXIE@Z ; CInstanceBase::SetSkillPreview

; 135  : 		motion_ = true;
; 136  : 		model_->Update();

  00018	8b 0e		 mov	 ecx, DWORD PTR [esi]
  0001a	c6 46 05 01	 mov	 BYTE PTR [esi+5], 1
  0001e	e8 00 00 00 00	 call	 ?Update@CInstanceBase@@QAEXXZ ; CInstanceBase::Update
$LN2@SetRendere:
  00023	5e		 pop	 esi

; 137  : 	}
; 138  : }

  00024	5d		 pop	 ebp
  00025	c2 04 00	 ret	 4
?SetRendererMotion@CGraphicRenderTarget@@QAEXI@Z ENDP	; CGraphicRenderTarget::SetRendererMotion
_TEXT	ENDS
; Function compile flags: /Ogtp
; File C:\Users\flourine\Desktop\Xantios\client-src\Code\EterLib\GrpRenderTarget.cpp
;	COMDAT ?SetRenderSash@CGraphicRenderTarget@@QAEXI@Z
_TEXT	SEGMENT
_vnum$ = 8						; size = 4
?SetRenderSash@CGraphicRenderTarget@@QAEXI@Z PROC	; CGraphicRenderTarget::SetRenderSash, COMDAT
; _this$ = ecx

; 112  : {

  00000	55		 push	 ebp
  00001	8b ec		 mov	 ebp, esp

; 113  : 	if (created_)

  00003	80 79 06 00	 cmp	 BYTE PTR [ecx+6], 0
  00007	74 08		 je	 SHORT $LN2@SetRenderS

; 114  : 	{
; 115  : 		model_->ChangeSash(vnum);

  00009	8b 09		 mov	 ecx, DWORD PTR [ecx]

; 116  : 	}
; 117  : }

  0000b	5d		 pop	 ebp

; 114  : 	{
; 115  : 		model_->ChangeSash(vnum);

  0000c	e9 00 00 00 00	 jmp	 ?ChangeSash@CInstanceBase@@QAEXK@Z ; CInstanceBase::ChangeSash
$LN2@SetRenderS:

; 116  : 	}
; 117  : }

  00011	5d		 pop	 ebp
  00012	c2 04 00	 ret	 4
?SetRenderSash@CGraphicRenderTarget@@QAEXI@Z ENDP	; CGraphicRenderTarget::SetRenderSash
_TEXT	ENDS
; Function compile flags: /Ogtp
; File C:\Users\flourine\Desktop\Xantios\client-src\Code\EterLib\GrpRenderTarget.cpp
;	COMDAT ?SetRenderWeapon@CGraphicRenderTarget@@QAEXI@Z
_TEXT	SEGMENT
_vnum$ = 8						; size = 4
?SetRenderWeapon@CGraphicRenderTarget@@QAEXI@Z PROC	; CGraphicRenderTarget::SetRenderWeapon, COMDAT
; _this$ = ecx

; 103  : {

  00000	55		 push	 ebp
  00001	8b ec		 mov	 ebp, esp

; 104  : 	if (created_)

  00003	80 79 06 00	 cmp	 BYTE PTR [ecx+6], 0
  00007	74 08		 je	 SHORT $LN2@SetRenderW

; 105  : 	{
; 106  : 		model_->ChangeWeapon(vnum);

  00009	8b 09		 mov	 ecx, DWORD PTR [ecx]

; 107  : 	}
; 108  : }

  0000b	5d		 pop	 ebp

; 105  : 	{
; 106  : 		model_->ChangeWeapon(vnum);

  0000c	e9 00 00 00 00	 jmp	 ?ChangeWeapon@CInstanceBase@@QAEXK@Z ; CInstanceBase::ChangeWeapon
$LN2@SetRenderW:

; 107  : 	}
; 108  : }

  00011	5d		 pop	 ebp
  00012	c2 04 00	 ret	 4
?SetRenderWeapon@CGraphicRenderTarget@@QAEXI@Z ENDP	; CGraphicRenderTarget::SetRenderWeapon
_TEXT	ENDS
; Function compile flags: /Ogtp
; File C:\Users\flourine\Desktop\Xantios\client-src\Code\EterLib\GrpRenderTarget.cpp
;	COMDAT ?SetRenderArmor@CGraphicRenderTarget@@QAEXI@Z
_TEXT	SEGMENT
_vnum$ = 8						; size = 4
?SetRenderArmor@CGraphicRenderTarget@@QAEXI@Z PROC	; CGraphicRenderTarget::SetRenderArmor, COMDAT
; _this$ = ecx

; 95   : {

  00000	55		 push	 ebp
  00001	8b ec		 mov	 ebp, esp

; 96   : 	if (created_)

  00003	80 79 06 00	 cmp	 BYTE PTR [ecx+6], 0
  00007	74 08		 je	 SHORT $LN2@SetRenderA

; 97   : 	{
; 98   : 		model_->ChangeArmor(vnum);

  00009	8b 09		 mov	 ecx, DWORD PTR [ecx]

; 99   : 	}
; 100  : }

  0000b	5d		 pop	 ebp

; 97   : 	{
; 98   : 		model_->ChangeArmor(vnum);

  0000c	e9 00 00 00 00	 jmp	 ?ChangeArmor@CInstanceBase@@QAE_NK@Z ; CInstanceBase::ChangeArmor
$LN2@SetRenderA:

; 99   : 	}
; 100  : }

  00011	5d		 pop	 ebp
  00012	c2 04 00	 ret	 4
?SetRenderArmor@CGraphicRenderTarget@@QAEXI@Z ENDP	; CGraphicRenderTarget::SetRenderArmor
_TEXT	ENDS
; Function compile flags: /Ogtp
; File C:\Users\flourine\Desktop\Xantios\client-src\Code\EterLib\GrpRenderTarget.cpp
;	COMDAT ?SetRenderHair@CGraphicRenderTarget@@QAEXI@Z
_TEXT	SEGMENT
_vnum$ = 8						; size = 4
?SetRenderHair@CGraphicRenderTarget@@QAEXI@Z PROC	; CGraphicRenderTarget::SetRenderHair, COMDAT
; _this$ = ecx

; 87   : {

  00000	55		 push	 ebp
  00001	8b ec		 mov	 ebp, esp

; 88   : 	if (created_)

  00003	80 79 06 00	 cmp	 BYTE PTR [ecx+6], 0
  00007	74 08		 je	 SHORT $LN2@SetRenderH

; 89   : 	{
; 90   : 		model_->ChangeHair(vnum);

  00009	8b 09		 mov	 ecx, DWORD PTR [ecx]

; 91   : 	}
; 92   : }

  0000b	5d		 pop	 ebp

; 89   : 	{
; 90   : 		model_->ChangeHair(vnum);

  0000c	e9 00 00 00 00	 jmp	 ?ChangeHair@CInstanceBase@@QAEXK@Z ; CInstanceBase::ChangeHair
$LN2@SetRenderH:

; 91   : 	}
; 92   : }

  00011	5d		 pop	 ebp
  00012	c2 04 00	 ret	 4
?SetRenderHair@CGraphicRenderTarget@@QAEXI@Z ENDP	; CGraphicRenderTarget::SetRenderHair
_TEXT	ENDS
; Function compile flags: /Ogtp
; File C:\Users\flourine\Desktop\Xantios\client-src\Code\EterLib\GrpRenderTarget.cpp
; File C:\Users\flourine\Desktop\Xantios\client-src\extern\include\directX\d3dx9math.inl
; File C:\Users\flourine\Desktop\Xantios\client-src\Code\EterLib\GrpRenderTarget.cpp
; File C:\Users\flourine\Desktop\Xantios\client-src\extern\include\directX\d3dx9math.inl
; File C:\Users\flourine\Desktop\Xantios\client-src\Code\EterLib\GrpRenderTarget.cpp
; File C:\Program Files\Microsoft Visual Studio\2022\Community\VC\Tools\MSVC\14.34.31933\include\xstring
; File C:\Users\flourine\Desktop\Xantios\client-src\Code\EterLib\GrpRenderTarget.cpp
; File C:\Program Files\Microsoft Visual Studio\2022\Community\VC\Tools\MSVC\14.34.31933\include\xstring
; File C:\Program Files\Microsoft Visual Studio\2022\Community\VC\Tools\MSVC\14.34.31933\include\xmemory
; File C:\Program Files\Microsoft Visual Studio\2022\Community\VC\Tools\MSVC\14.34.31933\include\xstring
; File C:\Program Files\Microsoft Visual Studio\2022\Community\VC\Tools\MSVC\14.34.31933\include\xmemory
; File C:\Program Files\Microsoft Visual Studio\2022\Community\VC\Tools\MSVC\14.34.31933\include\xstring
; File C:\Users\flourine\Desktop\Xantios\client-src\Code\EterLib\GrpRenderTarget.cpp
; File C:\Program Files\Microsoft Visual Studio\2022\Community\VC\Tools\MSVC\14.34.31933\include\xmemory
; File C:\Users\flourine\Desktop\Xantios\client-src\Code\EterLib\GrpRenderTarget.cpp
;	COMDAT ?SetRenderTarget@CGraphicRenderTarget@@QAEXI@Z
_TEXT	SEGMENT
$T2 = -152						; size = 4
_createData$3 = -148					; size = 120
$T4 = -28						; size = 12
__$ArrayPad$ = -16					; size = 4
__$EHRec$ = -12						; size = 12
_race$ = 8						; size = 4
?SetRenderTarget@CGraphicRenderTarget@@QAEXI@Z PROC	; CGraphicRenderTarget::SetRenderTarget, COMDAT
; _this$ = ecx

; 38   : {

  00000	55		 push	 ebp
  00001	8b ec		 mov	 ebp, esp
  00003	6a ff		 push	 -1
  00005	68 00 00 00 00	 push	 __ehhandler$?SetRenderTarget@CGraphicRenderTarget@@QAEXI@Z
  0000a	64 a1 00 00 00
	00		 mov	 eax, DWORD PTR fs:0
  00010	50		 push	 eax
  00011	81 ec 8c 00 00
	00		 sub	 esp, 140		; 0000008cH
  00017	a1 00 00 00 00	 mov	 eax, DWORD PTR ___security_cookie
  0001c	33 c5		 xor	 eax, ebp
  0001e	89 45 f0	 mov	 DWORD PTR __$ArrayPad$[ebp], eax
  00021	56		 push	 esi
  00022	57		 push	 edi
  00023	50		 push	 eax
  00024	8d 45 f4	 lea	 eax, DWORD PTR __$EHRec$[ebp]
  00027	64 a3 00 00 00
	00		 mov	 DWORD PTR fs:0, eax
  0002d	8b f1		 mov	 esi, ecx

; 39   : 	if (!model_)

  0002f	83 3e 00	 cmp	 DWORD PTR [esi], 0
  00032	8b 7d 08	 mov	 edi, DWORD PTR _race$[ebp]
  00035	0f 85 fb 00 00
	00		 jne	 $LN64@SetRenderT

; 40   : 	{
; 41   : 		model_ = new CInstanceBase();

  0003b	68 e0 07 00 00	 push	 2016			; 000007e0H
  00040	e8 00 00 00 00	 call	 ??2@YAPAXI@Z		; operator new
  00045	83 c4 04	 add	 esp, 4
  00048	89 85 68 ff ff
	ff		 mov	 DWORD PTR $T2[ebp], eax
  0004e	c7 45 fc 00 00
	00 00		 mov	 DWORD PTR __$EHRec$[ebp+8], 0
  00055	85 c0		 test	 eax, eax
  00057	74 09		 je	 SHORT $LN7@SetRenderT
  00059	8b c8		 mov	 ecx, eax
  0005b	e8 00 00 00 00	 call	 ??0CInstanceBase@@QAE@XZ ; CInstanceBase::CInstanceBase
  00060	eb 02		 jmp	 SHORT $LN8@SetRenderT
$LN7@SetRenderT:
  00062	33 c0		 xor	 eax, eax
$LN8@SetRenderT:
  00064	8d 4d bf	 lea	 ecx, DWORD PTR _createData$3[ebp+83]
  00067	c7 45 fc ff ff
	ff ff		 mov	 DWORD PTR __$EHRec$[ebp+8], -1
  0006e	89 06		 mov	 DWORD PTR [esi], eax
  00070	e8 00 00 00 00	 call	 ??0CAffectFlagContainer@@QAE@XZ ; CAffectFlagContainer::CAffectFlagContainer

; 42   : 
; 43   : 		CInstanceBase::SCreateData createData;
; 44   : 		memset(&createData, 0, sizeof(createData));

  00075	6a 78		 push	 120			; 00000078H
  00077	8d 85 6c ff ff
	ff		 lea	 eax, DWORD PTR _createData$3[ebp]
  0007d	c7 45 fc 01 00
	00 00		 mov	 DWORD PTR __$EHRec$[ebp+8], 1
  00084	6a 00		 push	 0
  00086	50		 push	 eax
  00087	e8 00 00 00 00	 call	 _memset

; 45   : 
; 46   : 		createData.m_dwRace = race;
; 47   : 		createData.m_bType = CActorInstance::TYPE_RENDER_TARGET;
; 48   : 
; 49   : 		if (model_->Create(createData))

  0008c	8b 0e		 mov	 ecx, DWORD PTR [esi]
  0008e	8d 85 6c ff ff
	ff		 lea	 eax, DWORD PTR _createData$3[ebp]
  00094	83 c4 0c	 add	 esp, 12			; 0000000cH
  00097	89 7d 84	 mov	 DWORD PTR _createData$3[ebp+24], edi
  0009a	c6 85 6c ff ff
	ff 0c		 mov	 BYTE PTR _createData$3[ebp], 12 ; 0000000cH
  000a1	50		 push	 eax
  000a2	e8 00 00 00 00	 call	 ?Create@CInstanceBase@@QAE_NABUSCreateData@1@@Z ; CInstanceBase::Create
  000a7	8b 0e		 mov	 ecx, DWORD PTR [esi]
  000a9	84 c0		 test	 al, al
  000ab	74 24		 je	 SHORT $LN3@SetRenderT

; 51   : 			model_->NEW_SetPixelPosition(TPixelPosition(0.0f, 0.0f, 0.0f));

  000ad	8d 45 e4	 lea	 eax, DWORD PTR $T4[ebp]
; File C:\Users\flourine\Desktop\Xantios\client-src\extern\include\directX\d3dx9math.inl

; 304  :     x = fx;

  000b0	c7 45 e4 00 00
	00 00		 mov	 DWORD PTR $T4[ebp], 0
; File C:\Users\flourine\Desktop\Xantios\client-src\Code\EterLib\GrpRenderTarget.cpp

; 51   : 			model_->NEW_SetPixelPosition(TPixelPosition(0.0f, 0.0f, 0.0f));

  000b7	50		 push	 eax
; File C:\Users\flourine\Desktop\Xantios\client-src\extern\include\directX\d3dx9math.inl

; 305  :     y = fy;

  000b8	c7 45 e8 00 00
	00 00		 mov	 DWORD PTR $T4[ebp+4], 0

; 306  :     z = fz;

  000bf	c7 45 ec 00 00
	00 00		 mov	 DWORD PTR $T4[ebp+8], 0
; File C:\Users\flourine\Desktop\Xantios\client-src\Code\EterLib\GrpRenderTarget.cpp

; 51   : 			model_->NEW_SetPixelPosition(TPixelPosition(0.0f, 0.0f, 0.0f));

  000c6	e8 00 00 00 00	 call	 ?NEW_SetPixelPosition@CInstanceBase@@QAEXABUD3DXVECTOR3@@@Z ; CInstanceBase::NEW_SetPixelPosition

; 52   : 
; 53   : 			created_ = true;

  000cb	c6 46 06 01	 mov	 BYTE PTR [esi+6], 1

; 54   : 		}

  000cf	eb 10		 jmp	 SHORT $LN4@SetRenderT
$LN3@SetRenderT:

; 55   : 		else
; 56   : 		{
; 57   : 			delete model_;

  000d1	85 c9		 test	 ecx, ecx
  000d3	74 06		 je	 SHORT $LN9@SetRenderT
  000d5	8b 01		 mov	 eax, DWORD PTR [ecx]
  000d7	6a 01		 push	 1
  000d9	ff 10		 call	 DWORD PTR [eax]
$LN9@SetRenderT:

; 58   : 			model_ = NULL;

  000db	c7 06 00 00 00
	00		 mov	 DWORD PTR [esi], 0
$LN4@SetRenderT:
; File C:\Program Files\Microsoft Visual Studio\2022\Community\VC\Tools\MSVC\14.34.31933\include\xstring

; 2301 :         return _BUF_SIZE <= _Myres;

  000e1	8b 4d dc	 mov	 ecx, DWORD PTR _createData$3[ebp+112]
; File C:\Users\flourine\Desktop\Xantios\client-src\Code\EterLib\GrpRenderTarget.cpp

; 60   : 	}

  000e4	c7 45 fc ff ff
	ff ff		 mov	 DWORD PTR __$EHRec$[ebp+8], -1
; File C:\Program Files\Microsoft Visual Studio\2022\Community\VC\Tools\MSVC\14.34.31933\include\xstring

; 2301 :         return _BUF_SIZE <= _Myres;

  000eb	83 f9 10	 cmp	 ecx, 16			; 00000010H

; 5011 :         if (_My_data._Large_string_engaged()) {

  000ee	72 2c		 jb	 SHORT $LN45@SetRenderT
; File C:\Program Files\Microsoft Visual Studio\2022\Community\VC\Tools\MSVC\14.34.31933\include\xmemory

; 830  :         _Deallocate<_New_alignof<_Ty>>(_Ptr, sizeof(_Ty) * _Count);

  000f0	8b 55 c8	 mov	 edx, DWORD PTR _createData$3[ebp+92]
; File C:\Program Files\Microsoft Visual Studio\2022\Community\VC\Tools\MSVC\14.34.31933\include\xstring

; 5016 :             _Al.deallocate(_Ptr, _My_data._Myres + 1);

  000f3	41		 inc	 ecx
; File C:\Program Files\Microsoft Visual Studio\2022\Community\VC\Tools\MSVC\14.34.31933\include\xmemory

; 830  :         _Deallocate<_New_alignof<_Ty>>(_Ptr, sizeof(_Ty) * _Count);

  000f4	8b c2		 mov	 eax, edx

; 251  :         if (_Bytes >= _Big_allocation_threshold) { // boost the alignment of big allocations to help autovectorization

  000f6	81 f9 00 10 00
	00		 cmp	 ecx, 4096		; 00001000H
  000fc	72 14		 jb	 SHORT $LN55@SetRenderT

; 150  :     const uintptr_t _Ptr_container   = _Ptr_user[-1];

  000fe	8b 50 fc	 mov	 edx, DWORD PTR [eax-4]
  00101	83 c1 23	 add	 ecx, 35			; 00000023H
  00104	2b c2		 sub	 eax, edx

; 164  :     _STL_VERIFY(_Back_shift >= _Min_back_shift && _Back_shift <= _Non_user_size, "invalid argument");

  00106	83 c0 fc	 add	 eax, -4			; fffffffcH
  00109	83 f8 1f	 cmp	 eax, 31			; 0000001fH
  0010c	0f 87 b8 00 00
	00		 ja	 $LN68@SetRenderT
$LN55@SetRenderT:

; 255  :         ::operator delete(_Ptr, _Bytes);

  00112	51		 push	 ecx
  00113	52		 push	 edx
  00114	e8 00 00 00 00	 call	 ??3@YAXPAXI@Z		; operator delete
  00119	83 c4 08	 add	 esp, 8
$LN45@SetRenderT:
  0011c	8d 4d bf	 lea	 ecx, DWORD PTR _createData$3[ebp+83]
; File C:\Program Files\Microsoft Visual Studio\2022\Community\VC\Tools\MSVC\14.34.31933\include\xstring

; 5019 :         _My_data._Mysize = 0;

  0011f	c7 45 d8 00 00
	00 00		 mov	 DWORD PTR _createData$3[ebp+108], 0

; 5020 :         _My_data._Myres  = _BUF_SIZE - 1;

  00126	c7 45 dc 0f 00
	00 00		 mov	 DWORD PTR _createData$3[ebp+112], 15 ; 0000000fH

; 5021 :         // the _Traits::assign is last so the codegen doesn't think the char write can alias this
; 5022 :         _Traits::assign(_My_data._Bx._Buf[0], _Elem());

  0012d	c6 45 c8 00	 mov	 BYTE PTR _createData$3[ebp+92], 0
  00131	e8 00 00 00 00	 call	 ??1CAffectFlagContainer@@QAE@XZ ; CAffectFlagContainer::~CAffectFlagContainer
$LN64@SetRenderT:
; File C:\Users\flourine\Desktop\Xantios\client-src\Code\EterLib\GrpRenderTarget.cpp

; 62   : 	if (created_)

  00136	80 7e 06 00	 cmp	 BYTE PTR [esi+6], 0
  0013a	74 71		 je	 SHORT $LN5@SetRenderT

; 63   : 	{
; 64   : 		model_->SetRace(race);

  0013c	8b 0e		 mov	 ecx, DWORD PTR [esi]
  0013e	57		 push	 edi
  0013f	e8 00 00 00 00	 call	 ?SetRace@CInstanceBase@@QAE_NK@Z ; CInstanceBase::SetRace

; 65   : 		model_->SetRotation(0.0f);

  00144	51		 push	 ecx
  00145	8b 0e		 mov	 ecx, DWORD PTR [esi]
  00147	c7 04 24 00 00
	00 00		 mov	 DWORD PTR [esp], 0
  0014e	e8 00 00 00 00	 call	 ?SetRotation@CInstanceBase@@QAEXM@Z ; CInstanceBase::SetRotation

; 66   : 		model_->SetArmor(0);

  00153	8b 0e		 mov	 ecx, DWORD PTR [esi]
  00155	6a 00		 push	 0
  00157	e8 00 00 00 00	 call	 ?SetArmor@CInstanceBase@@QAEXK@Z ; CInstanceBase::SetArmor

; 67   : 		model_->SetHair(0);

  0015c	8b 0e		 mov	 ecx, DWORD PTR [esi]
  0015e	6a 00		 push	 0
  00160	e8 00 00 00 00	 call	 ?SetHair@CInstanceBase@@QAEXK@Z ; CInstanceBase::SetHair

; 68   : 		model_->SetWeapon(0);

  00165	8b 0e		 mov	 ecx, DWORD PTR [esi]
  00167	6a 00		 push	 0
  00169	e8 00 00 00 00	 call	 ?SetWeapon@CInstanceBase@@QAE_NK@Z ; CInstanceBase::SetWeapon

; 69   : #ifdef ENABLE_SASH_COSTUME_SYSTEM
; 70   : 		model_->SetSash(0);

  0016e	8b 0e		 mov	 ecx, DWORD PTR [esi]
  00170	6a 00		 push	 0
  00172	e8 00 00 00 00	 call	 ?SetSash@CInstanceBase@@QAE_NK@Z ; CInstanceBase::SetSash

; 71   : #endif
; 72   : 
; 73   : 		/*
; 74   : 		DWORD flags[TOGGLE_SHINING_FLAG_32CNT];
; 75   : 		ZeroMemory(flags, sizeof(flags));
; 76   : 		model_->SetToggleShiningFlag(flags);
; 77   : 		*/
