; Listing generated by Microsoft (R) Optimizing Compiler Version 19.34.31942.0 

	TITLE	C:\Users\flourine\Desktop\Xantios\client-src\Code\EterLib\Distribute\GrpShadowTexture.obj
	.686P
	.XMM
	include listing.inc
	.model	flat

INCLUDELIB LIBCMT
INCLUDELIB OLDNAMES

PUBLIC	??_H@YGXPAXIIP6EPAX0@Z@Z			; `vector constructor iterator'
PUBLIC	??0D3DXMATRIX@@QAE@XZ				; D3DXMATRIX::D3DXMATRIX
PUBLIC	??0CGraphicShadowTexture@@QAE@XZ		; CGraphicShadowTexture::CGraphicShadowTexture
PUBLIC	??1CGraphicShadowTexture@@UAE@XZ		; CGraphicShadowTexture::~CGraphicShadowTexture
PUBLIC	?Destroy@CGraphicShadowTexture@@QAEXXZ		; CGraphicShadowTexture::Destroy
PUBLIC	?Create@CGraphicShadowTexture@@QAE_NHH@Z	; CGraphicShadowTexture::Create
PUBLIC	?Begin@CGraphicShadowTexture@@QAEXXZ		; CGraphicShadowTexture::Begin
PUBLIC	?End@CGraphicShadowTexture@@QAEXXZ		; CGraphicShadowTexture::End
PUBLIC	?Set@CGraphicShadowTexture@@QBEXH@Z		; CGraphicShadowTexture::Set
PUBLIC	?GetLightVPMatrixReference@CGraphicShadowTexture@@QBEABUD3DXMATRIX@@XZ ; CGraphicShadowTexture::GetLightVPMatrixReference
PUBLIC	?GetD3DTexture@CGraphicShadowTexture@@QBEPAUIDirect3DTexture9@@XZ ; CGraphicShadowTexture::GetD3DTexture
PUBLIC	?Initialize@CGraphicShadowTexture@@IAEXXZ	; CGraphicShadowTexture::Initialize
PUBLIC	??_GCGraphicShadowTexture@@UAEPAXI@Z		; CGraphicShadowTexture::`scalar deleting destructor'
PUBLIC	??_7CGraphicShadowTexture@@6B@			; CGraphicShadowTexture::`vftable'
PUBLIC	?ms_singleton@?$CSingleton@VCStateManager@@@@0PAVCStateManager@@A ; CSingleton<CStateManager>::ms_singleton
PUBLIC	??_R4CGraphicShadowTexture@@6B@			; CGraphicShadowTexture::`RTTI Complete Object Locator'
PUBLIC	??_R0?AVCGraphicShadowTexture@@@8		; CGraphicShadowTexture `RTTI Type Descriptor'
PUBLIC	??_R3CGraphicShadowTexture@@8			; CGraphicShadowTexture::`RTTI Class Hierarchy Descriptor'
PUBLIC	??_R2CGraphicShadowTexture@@8			; CGraphicShadowTexture::`RTTI Base Class Array'
PUBLIC	??_R1A@?0A@EA@CGraphicShadowTexture@@8		; CGraphicShadowTexture::`RTTI Base Class Descriptor at (0,-1,0,64)'
PUBLIC	??_R1A@?0A@EA@CGraphicTexture@@8		; CGraphicTexture::`RTTI Base Class Descriptor at (0,-1,0,64)'
PUBLIC	??_R0?AVCGraphicTexture@@@8			; CGraphicTexture `RTTI Type Descriptor'
PUBLIC	??_R3CGraphicTexture@@8				; CGraphicTexture::`RTTI Class Hierarchy Descriptor'
PUBLIC	??_R2CGraphicTexture@@8				; CGraphicTexture::`RTTI Base Class Array'
PUBLIC	??_R1A@?0A@EA@CGraphicBase@@8			; CGraphicBase::`RTTI Base Class Descriptor at (0,-1,0,64)'
PUBLIC	??_R0?AVCGraphicBase@@@8			; CGraphicBase `RTTI Type Descriptor'
PUBLIC	??_R3CGraphicBase@@8				; CGraphicBase::`RTTI Class Hierarchy Descriptor'
PUBLIC	??_R2CGraphicBase@@8				; CGraphicBase::`RTTI Base Class Array'
EXTRN	??3@YAXPAXI@Z:PROC				; operator delete
EXTRN	_D3DXMatrixMultiply@12:PROC
EXTRN	?IsEmpty@CGraphicTexture@@UBE_NXZ:PROC		; CGraphicTexture::IsEmpty
EXTRN	??0CGraphicTexture@@IAE@XZ:PROC			; CGraphicTexture::CGraphicTexture
EXTRN	??1CGraphicTexture@@MAE@XZ:PROC			; CGraphicTexture::~CGraphicTexture
EXTRN	?Destroy@CGraphicTexture@@IAEXXZ:PROC		; CGraphicTexture::Destroy
EXTRN	?Initialize@CGraphicTexture@@IAEXXZ:PROC	; CGraphicTexture::Initialize
EXTRN	??_ECGraphicShadowTexture@@UAEPAXI@Z:PROC	; CGraphicShadowTexture::`vector deleting destructor'
EXTRN	?SaveRenderState@CStateManager@@QAEXW4_D3DRENDERSTATETYPE@@K@Z:PROC ; CStateManager::SaveRenderState
EXTRN	?RestoreRenderState@CStateManager@@QAEXW4_D3DRENDERSTATETYPE@@@Z:PROC ; CStateManager::RestoreRenderState
EXTRN	?SetTexture@CStateManager@@QAEXKPAUIDirect3DBaseTexture9@@@Z:PROC ; CStateManager::SetTexture
EXTRN	?SaveTextureStageState@CStateManager@@QAEXKW4_D3DTEXTURESTAGESTATETYPE@@K@Z:PROC ; CStateManager::SaveTextureStageState
EXTRN	?RestoreTextureStageState@CStateManager@@QAEXKW4_D3DTEXTURESTAGESTATETYPE@@@Z:PROC ; CStateManager::RestoreTextureStageState
EXTRN	?SaveSamplerState@CStateManager@@QAEXKW4_D3DSAMPLERSTATETYPE@@K@Z:PROC ; CStateManager::SaveSamplerState
EXTRN	?RestoreSamplerState@CStateManager@@QAEXKW4_D3DSAMPLERSTATETYPE@@@Z:PROC ; CStateManager::RestoreSamplerState
EXTRN	@__security_check_cookie@4:PROC
EXTRN	___CxxFrameHandler3:PROC
EXTRN	??_7type_info@@6B@:QWORD			; type_info::`vftable'
EXTRN	?ms_matView@CGraphicBase@@1UD3DXMATRIX@@A:ZWORD	; CGraphicBase::ms_matView
EXTRN	?ms_matProj@CGraphicBase@@1UD3DXMATRIX@@A:ZWORD	; CGraphicBase::ms_matProj
EXTRN	?ms_lpd3dDevice@CGraphicBase@@1PAUIDirect3DDevice9@@A:DWORD ; CGraphicBase::ms_lpd3dDevice
EXTRN	___security_cookie:DWORD
EXTRN	__fltused:DWORD
;	COMDAT ?ms_singleton@?$CSingleton@VCStateManager@@@@0PAVCStateManager@@A
_BSS	SEGMENT
?ms_singleton@?$CSingleton@VCStateManager@@@@0PAVCStateManager@@A DD 01H DUP (?) ; CSingleton<CStateManager>::ms_singleton
_BSS	ENDS
;	COMDAT ??_R2CGraphicBase@@8
rdata$r	SEGMENT
??_R2CGraphicBase@@8 DD FLAT:??_R1A@?0A@EA@CGraphicBase@@8 ; CGraphicBase::`RTTI Base Class Array'
rdata$r	ENDS
;	COMDAT ??_R3CGraphicBase@@8
rdata$r	SEGMENT
??_R3CGraphicBase@@8 DD 00H				; CGraphicBase::`RTTI Class Hierarchy Descriptor'
	DD	00H
	DD	01H
	DD	FLAT:??_R2CGraphicBase@@8
rdata$r	ENDS
;	COMDAT ??_R0?AVCGraphicBase@@@8
data$rs	SEGMENT
??_R0?AVCGraphicBase@@@8 DD FLAT:??_7type_info@@6B@	; CGraphicBase `RTTI Type Descriptor'
	DD	00H
	DB	'.?AVCGraphicBase@@', 00H
data$rs	ENDS
;	COMDAT ??_R1A@?0A@EA@CGraphicBase@@8
rdata$r	SEGMENT
??_R1A@?0A@EA@CGraphicBase@@8 DD FLAT:??_R0?AVCGraphicBase@@@8 ; CGraphicBase::`RTTI Base Class Descriptor at (0,-1,0,64)'
	DD	00H
	DD	00H
	DD	0ffffffffH
	DD	00H
	DD	040H
	DD	FLAT:??_R3CGraphicBase@@8
rdata$r	ENDS
;	COMDAT ??_R2CGraphicTexture@@8
rdata$r	SEGMENT
??_R2CGraphicTexture@@8 DD FLAT:??_R1A@?0A@EA@CGraphicTexture@@8 ; CGraphicTexture::`RTTI Base Class Array'
	DD	FLAT:??_R1A@?0A@EA@CGraphicBase@@8
rdata$r	ENDS
;	COMDAT ??_R3CGraphicTexture@@8
rdata$r	SEGMENT
??_R3CGraphicTexture@@8 DD 00H				; CGraphicTexture::`RTTI Class Hierarchy Descriptor'
	DD	00H
	DD	02H
	DD	FLAT:??_R2CGraphicTexture@@8
rdata$r	ENDS
;	COMDAT ??_R0?AVCGraphicTexture@@@8
data$rs	SEGMENT
??_R0?AVCGraphicTexture@@@8 DD FLAT:??_7type_info@@6B@	; CGraphicTexture `RTTI Type Descriptor'
	DD	00H
	DB	'.?AVCGraphicTexture@@', 00H
data$rs	ENDS
;	COMDAT ??_R1A@?0A@EA@CGraphicTexture@@8
rdata$r	SEGMENT
??_R1A@?0A@EA@CGraphicTexture@@8 DD FLAT:??_R0?AVCGraphicTexture@@@8 ; CGraphicTexture::`RTTI Base Class Descriptor at (0,-1,0,64)'
	DD	01H
	DD	00H
	DD	0ffffffffH
	DD	00H
	DD	040H
	DD	FLAT:??_R3CGraphicTexture@@8
rdata$r	ENDS
;	COMDAT ??_R1A@?0A@EA@CGraphicShadowTexture@@8
rdata$r	SEGMENT
??_R1A@?0A@EA@CGraphicShadowTexture@@8 DD FLAT:??_R0?AVCGraphicShadowTexture@@@8 ; CGraphicShadowTexture::`RTTI Base Class Descriptor at (0,-1,0,64)'
	DD	02H
	DD	00H
	DD	0ffffffffH
	DD	00H
	DD	040H
	DD	FLAT:??_R3CGraphicShadowTexture@@8
rdata$r	ENDS
;	COMDAT ??_R2CGraphicShadowTexture@@8
rdata$r	SEGMENT
??_R2CGraphicShadowTexture@@8 DD FLAT:??_R1A@?0A@EA@CGraphicShadowTexture@@8 ; CGraphicShadowTexture::`RTTI Base Class Array'
	DD	FLAT:??_R1A@?0A@EA@CGraphicTexture@@8
	DD	FLAT:??_R1A@?0A@EA@CGraphicBase@@8
rdata$r	ENDS
;	COMDAT ??_R3CGraphicShadowTexture@@8
rdata$r	SEGMENT
??_R3CGraphicShadowTexture@@8 DD 00H			; CGraphicShadowTexture::`RTTI Class Hierarchy Descriptor'
	DD	00H
	DD	03H
	DD	FLAT:??_R2CGraphicShadowTexture@@8
rdata$r	ENDS
;	COMDAT ??_R0?AVCGraphicShadowTexture@@@8
data$rs	SEGMENT
??_R0?AVCGraphicShadowTexture@@@8 DD FLAT:??_7type_info@@6B@ ; CGraphicShadowTexture `RTTI Type Descriptor'
	DD	00H
	DB	'.?AVCGraphicShadowTexture@@', 00H
data$rs	ENDS
;	COMDAT ??_R4CGraphicShadowTexture@@6B@
rdata$r	SEGMENT
??_R4CGraphicShadowTexture@@6B@ DD 00H			; CGraphicShadowTexture::`RTTI Complete Object Locator'
	DD	00H
	DD	00H
	DD	FLAT:??_R0?AVCGraphicShadowTexture@@@8
	DD	FLAT:??_R3CGraphicShadowTexture@@8
rdata$r	ENDS
;	COMDAT ??_7CGraphicShadowTexture@@6B@
CONST	SEGMENT
??_7CGraphicShadowTexture@@6B@ DD FLAT:??_R4CGraphicShadowTexture@@6B@ ; CGraphicShadowTexture::`vftable'
	DD	FLAT:??_ECGraphicShadowTexture@@UAEPAXI@Z
	DD	FLAT:?IsEmpty@CGraphicTexture@@UBE_NXZ
CONST	ENDS
;	COMDAT xdata$x
xdata$x	SEGMENT
__ehfuncinfo$??1CGraphicShadowTexture@@UAE@XZ DD 019930522H
	DD	00H
	DD	00H
	DD	2 DUP(00H)
	DD	2 DUP(00H)
	DD	00H
	DD	05H
xdata$x	ENDS
;	COMDAT xdata$x
xdata$x	SEGMENT
__unwindtable$??0CGraphicShadowTexture@@QAE@XZ DD 0ffffffffH
	DD	FLAT:__unwindfunclet$??0CGraphicShadowTexture@@QAE@XZ$0
__ehfuncinfo$??0CGraphicShadowTexture@@QAE@XZ DD 019930522H
	DD	01H
	DD	FLAT:__unwindtable$??0CGraphicShadowTexture@@QAE@XZ
	DD	2 DUP(00H)
	DD	2 DUP(00H)
	DD	00H
	DD	01H
xdata$x	ENDS
; Function compile flags: /Ogtp
;	COMDAT ??_GCGraphicShadowTexture@@UAEPAXI@Z
_TEXT	SEGMENT
___flags$ = 8						; size = 4
??_GCGraphicShadowTexture@@UAEPAXI@Z PROC		; CGraphicShadowTexture::`scalar deleting destructor', COMDAT
; _this$ = ecx
  00000	55		 push	 ebp
  00001	8b ec		 mov	 ebp, esp
  00003	56		 push	 esi
  00004	8b f1		 mov	 esi, ecx
  00006	e8 00 00 00 00	 call	 ??1CGraphicShadowTexture@@UAE@XZ ; CGraphicShadowTexture::~CGraphicShadowTexture
  0000b	f6 45 08 01	 test	 BYTE PTR ___flags$[ebp], 1
  0000f	74 0e		 je	 SHORT $LN4@scalar
  00011	68 80 00 00 00	 push	 128			; 00000080H
  00016	56		 push	 esi
  00017	e8 00 00 00 00	 call	 ??3@YAXPAXI@Z		; operator delete
  0001c	83 c4 08	 add	 esp, 8
$LN4@scalar:
  0001f	8b c6		 mov	 eax, esi
  00021	5e		 pop	 esi
  00022	5d		 pop	 ebp
  00023	c2 04 00	 ret	 4
??_GCGraphicShadowTexture@@UAEPAXI@Z ENDP		; CGraphicShadowTexture::`scalar deleting destructor'
_TEXT	ENDS
; Function compile flags: /Ogtp
; File C:\Users\flourine\Desktop\Xantios\client-src\Code\EterLib\GrpShadowTexture.cpp
;	COMDAT ?Initialize@CGraphicShadowTexture@@IAEXXZ
_TEXT	SEGMENT
?Initialize@CGraphicShadowTexture@@IAEXXZ PROC		; CGraphicShadowTexture::Initialize, COMDAT
; _this$ = ecx

; 175  : {

  00000	56		 push	 esi
  00001	8b f1		 mov	 esi, ecx

; 176  : 	CGraphicTexture::Initialize();

  00003	e8 00 00 00 00	 call	 ?Initialize@CGraphicTexture@@IAEXXZ ; CGraphicTexture::Initialize

; 177  : 
; 178  : 	m_lpd3dShadowSurface = NULL;

  00008	c7 46 70 00 00
	00 00		 mov	 DWORD PTR [esi+112], 0

; 179  : 	m_lpd3dDepthSurface = NULL;	

  0000f	c7 46 74 00 00
	00 00		 mov	 DWORD PTR [esi+116], 0

; 180  : 	m_lpd3dOldBackBufferSurface = NULL;

  00016	c7 46 78 00 00
	00 00		 mov	 DWORD PTR [esi+120], 0

; 181  : 	m_lpd3dOldDepthBufferSurface = NULL;

  0001d	c7 46 7c 00 00
	00 00		 mov	 DWORD PTR [esi+124], 0

; 182  : 	m_lpd3dShadowTexture = NULL;

  00024	c7 46 6c 00 00
	00 00		 mov	 DWORD PTR [esi+108], 0
  0002b	5e		 pop	 esi

; 183  : }

  0002c	c3		 ret	 0
?Initialize@CGraphicShadowTexture@@IAEXXZ ENDP		; CGraphicShadowTexture::Initialize
_TEXT	ENDS
; Function compile flags: /Ogtp
; File C:\Users\flourine\Desktop\Xantios\client-src\Code\EterLib\GrpShadowTexture.cpp
;	COMDAT ?GetD3DTexture@CGraphicShadowTexture@@QBEPAUIDirect3DTexture9@@XZ
_TEXT	SEGMENT
?GetD3DTexture@CGraphicShadowTexture@@QBEPAUIDirect3DTexture9@@XZ PROC ; CGraphicShadowTexture::GetD3DTexture, COMDAT
; _this$ = ecx

; 62   : 	return m_lpd3dShadowTexture;

  00000	8b 41 6c	 mov	 eax, DWORD PTR [ecx+108]

; 63   : }

  00003	c3		 ret	 0
?GetD3DTexture@CGraphicShadowTexture@@QBEPAUIDirect3DTexture9@@XZ ENDP ; CGraphicShadowTexture::GetD3DTexture
_TEXT	ENDS
; Function compile flags: /Ogtp
; File C:\Users\flourine\Desktop\Xantios\client-src\Code\EterLib\GrpShadowTexture.cpp
;	COMDAT ?GetLightVPMatrixReference@CGraphicShadowTexture@@QBEABUD3DXMATRIX@@XZ
_TEXT	SEGMENT
?GetLightVPMatrixReference@CGraphicShadowTexture@@QBEABUD3DXMATRIX@@XZ PROC ; CGraphicShadowTexture::GetLightVPMatrixReference, COMDAT
; _this$ = ecx

; 57   : 	return m_d3dLightVPMatrix;

  00000	8d 41 14	 lea	 eax, DWORD PTR [ecx+20]

; 58   : }

  00003	c3		 ret	 0
?GetLightVPMatrixReference@CGraphicShadowTexture@@QBEABUD3DXMATRIX@@XZ ENDP ; CGraphicShadowTexture::GetLightVPMatrixReference
_TEXT	ENDS
; Function compile flags: /Ogtp
; File C:\Users\flourine\Desktop\Xantios\client-src\Code\EterLib\GrpShadowTexture.cpp
;	COMDAT ?Set@CGraphicShadowTexture@@QBEXH@Z
_TEXT	SEGMENT
_stage$ = 8						; size = 4
?Set@CGraphicShadowTexture@@QBEXH@Z PROC		; CGraphicShadowTexture::Set, COMDAT
; _this$ = ecx

; 51   : {

  00000	55		 push	 ebp
  00001	8b ec		 mov	 ebp, esp

; 52   : 	STATEMANAGER.SetTexture(stage, m_lpd3dShadowTexture);

  00003	ff 71 6c	 push	 DWORD PTR [ecx+108]
  00006	8b 0d 00 00 00
	00		 mov	 ecx, DWORD PTR ?ms_singleton@?$CSingleton@VCStateManager@@@@0PAVCStateManager@@A ; CSingleton<CStateManager>::ms_singleton
  0000c	ff 75 08	 push	 DWORD PTR _stage$[ebp]
  0000f	e8 00 00 00 00	 call	 ?SetTexture@CStateManager@@QAEXKPAUIDirect3DBaseTexture9@@@Z ; CStateManager::SetTexture

; 53   : }

  00014	5d		 pop	 ebp
  00015	c2 04 00	 ret	 4
?Set@CGraphicShadowTexture@@QBEXH@Z ENDP		; CGraphicShadowTexture::Set
_TEXT	ENDS
; Function compile flags: /Ogtp
; File C:\Users\flourine\Desktop\Xantios\client-src\Code\EterLib\GrpShadowTexture.cpp
;	COMDAT ?End@CGraphicShadowTexture@@QAEXXZ
_TEXT	SEGMENT
?End@CGraphicShadowTexture@@QAEXXZ PROC			; CGraphicShadowTexture::End, COMDAT
; _this$ = ecx

; 126  : 	assert(m_lpd3dOldBackBufferSurface != NULL);
; 127  : 	assert(m_lpd3dOldDepthBufferSurface != NULL);
; 128  : 
; 129  : 	ms_lpd3dDevice->EndScene();

  00000	a1 00 00 00 00	 mov	 eax, DWORD PTR ?ms_lpd3dDevice@CGraphicBase@@1PAUIDirect3DDevice9@@A ; CGraphicBase::ms_lpd3dDevice
  00005	56		 push	 esi
  00006	50		 push	 eax
  00007	8b f1		 mov	 esi, ecx
  00009	8b 10		 mov	 edx, DWORD PTR [eax]
  0000b	ff 92 a8 00 00
	00		 call	 DWORD PTR [edx+168]

; 130  : 
; 131  : 	ms_lpd3dDevice->SetRenderTarget(0, m_lpd3dOldBackBufferSurface);

  00011	a1 00 00 00 00	 mov	 eax, DWORD PTR ?ms_lpd3dDevice@CGraphicBase@@1PAUIDirect3DDevice9@@A ; CGraphicBase::ms_lpd3dDevice
  00016	ff 76 78	 push	 DWORD PTR [esi+120]
  00019	6a 00		 push	 0
  0001b	8b 08		 mov	 ecx, DWORD PTR [eax]
  0001d	50		 push	 eax
  0001e	ff 91 94 00 00
	00		 call	 DWORD PTR [ecx+148]

; 132  : 	ms_lpd3dDevice->SetDepthStencilSurface(m_lpd3dOldDepthBufferSurface);

  00024	a1 00 00 00 00	 mov	 eax, DWORD PTR ?ms_lpd3dDevice@CGraphicBase@@1PAUIDirect3DDevice9@@A ; CGraphicBase::ms_lpd3dDevice
  00029	ff 76 7c	 push	 DWORD PTR [esi+124]
  0002c	50		 push	 eax
  0002d	8b 08		 mov	 ecx, DWORD PTR [eax]
  0002f	ff 91 9c 00 00
	00		 call	 DWORD PTR [ecx+156]

; 133  : 	ms_lpd3dDevice->SetViewport(&m_d3dOldViewport);

  00035	8b 0d 00 00 00
	00		 mov	 ecx, DWORD PTR ?ms_lpd3dDevice@CGraphicBase@@1PAUIDirect3DDevice9@@A ; CGraphicBase::ms_lpd3dDevice
  0003b	8d 46 54	 lea	 eax, DWORD PTR [esi+84]
  0003e	50		 push	 eax
  0003f	51		 push	 ecx
  00040	8b 11		 mov	 edx, DWORD PTR [ecx]
  00042	ff 92 bc 00 00
	00		 call	 DWORD PTR [edx+188]

; 134  : 
; 135  : 	m_lpd3dOldBackBufferSurface->Release();

  00048	8b 46 78	 mov	 eax, DWORD PTR [esi+120]
  0004b	50		 push	 eax
  0004c	8b 08		 mov	 ecx, DWORD PTR [eax]
  0004e	ff 51 08	 call	 DWORD PTR [ecx+8]

; 136  : 	m_lpd3dOldDepthBufferSurface->Release();

  00051	8b 46 7c	 mov	 eax, DWORD PTR [esi+124]
  00054	50		 push	 eax
  00055	8b 08		 mov	 ecx, DWORD PTR [eax]
  00057	ff 51 08	 call	 DWORD PTR [ecx+8]

; 137  : 
; 138  : 	m_lpd3dOldBackBufferSurface = NULL;

  0005a	c7 46 78 00 00
	00 00		 mov	 DWORD PTR [esi+120], 0

; 139  : 	m_lpd3dOldDepthBufferSurface = NULL;

  00061	c7 46 7c 00 00
	00 00		 mov	 DWORD PTR [esi+124], 0

; 140  : 
; 141  : 	STATEMANAGER.RestoreRenderState(D3DRS_CULLMODE);

  00068	8b 0d 00 00 00
	00		 mov	 ecx, DWORD PTR ?ms_singleton@?$CSingleton@VCStateManager@@@@0PAVCStateManager@@A ; CSingleton<CStateManager>::ms_singleton
  0006e	6a 16		 push	 22			; 00000016H
  00070	e8 00 00 00 00	 call	 ?RestoreRenderState@CStateManager@@QAEXW4_D3DRENDERSTATETYPE@@@Z ; CStateManager::RestoreRenderState

; 142  : 	STATEMANAGER.RestoreRenderState(D3DRS_ZFUNC);

  00075	8b 0d 00 00 00
	00		 mov	 ecx, DWORD PTR ?ms_singleton@?$CSingleton@VCStateManager@@@@0PAVCStateManager@@A ; CSingleton<CStateManager>::ms_singleton
  0007b	6a 17		 push	 23			; 00000017H
  0007d	e8 00 00 00 00	 call	 ?RestoreRenderState@CStateManager@@QAEXW4_D3DRENDERSTATETYPE@@@Z ; CStateManager::RestoreRenderState

; 143  : 	STATEMANAGER.RestoreRenderState(D3DRS_ALPHABLENDENABLE);

  00082	8b 0d 00 00 00
	00		 mov	 ecx, DWORD PTR ?ms_singleton@?$CSingleton@VCStateManager@@@@0PAVCStateManager@@A ; CSingleton<CStateManager>::ms_singleton
  00088	6a 1b		 push	 27			; 0000001bH
  0008a	e8 00 00 00 00	 call	 ?RestoreRenderState@CStateManager@@QAEXW4_D3DRENDERSTATETYPE@@@Z ; CStateManager::RestoreRenderState

; 144  : 	STATEMANAGER.RestoreRenderState(D3DRS_ALPHATESTENABLE);

  0008f	8b 0d 00 00 00
	00		 mov	 ecx, DWORD PTR ?ms_singleton@?$CSingleton@VCStateManager@@@@0PAVCStateManager@@A ; CSingleton<CStateManager>::ms_singleton
  00095	6a 0f		 push	 15			; 0000000fH
  00097	e8 00 00 00 00	 call	 ?RestoreRenderState@CStateManager@@QAEXW4_D3DRENDERSTATETYPE@@@Z ; CStateManager::RestoreRenderState

; 145  : 	STATEMANAGER.RestoreRenderState(D3DRS_TEXTUREFACTOR);

  0009c	8b 0d 00 00 00
	00		 mov	 ecx, DWORD PTR ?ms_singleton@?$CSingleton@VCStateManager@@@@0PAVCStateManager@@A ; CSingleton<CStateManager>::ms_singleton
  000a2	6a 3c		 push	 60			; 0000003cH
  000a4	e8 00 00 00 00	 call	 ?RestoreRenderState@CStateManager@@QAEXW4_D3DRENDERSTATETYPE@@@Z ; CStateManager::RestoreRenderState

; 146  : 
; 147  : 	STATEMANAGER.RestoreTextureStageState(0, D3DTSS_COLORARG1);

  000a9	8b 0d 00 00 00
	00		 mov	 ecx, DWORD PTR ?ms_singleton@?$CSingleton@VCStateManager@@@@0PAVCStateManager@@A ; CSingleton<CStateManager>::ms_singleton
  000af	6a 02		 push	 2
  000b1	6a 00		 push	 0
  000b3	e8 00 00 00 00	 call	 ?RestoreTextureStageState@CStateManager@@QAEXKW4_D3DTEXTURESTAGESTATETYPE@@@Z ; CStateManager::RestoreTextureStageState

; 148  : 	STATEMANAGER.RestoreTextureStageState(0, D3DTSS_COLORARG2);

  000b8	8b 0d 00 00 00
	00		 mov	 ecx, DWORD PTR ?ms_singleton@?$CSingleton@VCStateManager@@@@0PAVCStateManager@@A ; CSingleton<CStateManager>::ms_singleton
  000be	6a 03		 push	 3
  000c0	6a 00		 push	 0
  000c2	e8 00 00 00 00	 call	 ?RestoreTextureStageState@CStateManager@@QAEXKW4_D3DTEXTURESTAGESTATETYPE@@@Z ; CStateManager::RestoreTextureStageState

; 149  : 	STATEMANAGER.RestoreTextureStageState(0, D3DTSS_COLOROP);

  000c7	8b 0d 00 00 00
	00		 mov	 ecx, DWORD PTR ?ms_singleton@?$CSingleton@VCStateManager@@@@0PAVCStateManager@@A ; CSingleton<CStateManager>::ms_singleton
  000cd	6a 01		 push	 1
  000cf	6a 00		 push	 0
  000d1	e8 00 00 00 00	 call	 ?RestoreTextureStageState@CStateManager@@QAEXKW4_D3DTEXTURESTAGESTATETYPE@@@Z ; CStateManager::RestoreTextureStageState

; 150  : 	STATEMANAGER.RestoreTextureStageState(0, D3DTSS_ALPHAARG1);

  000d6	8b 0d 00 00 00
	00		 mov	 ecx, DWORD PTR ?ms_singleton@?$CSingleton@VCStateManager@@@@0PAVCStateManager@@A ; CSingleton<CStateManager>::ms_singleton
  000dc	6a 05		 push	 5
  000de	6a 00		 push	 0
  000e0	e8 00 00 00 00	 call	 ?RestoreTextureStageState@CStateManager@@QAEXKW4_D3DTEXTURESTAGESTATETYPE@@@Z ; CStateManager::RestoreTextureStageState

; 151  : 	STATEMANAGER.RestoreTextureStageState(0, D3DTSS_ALPHAARG2);

  000e5	8b 0d 00 00 00
	00		 mov	 ecx, DWORD PTR ?ms_singleton@?$CSingleton@VCStateManager@@@@0PAVCStateManager@@A ; CSingleton<CStateManager>::ms_singleton
  000eb	6a 06		 push	 6
  000ed	6a 00		 push	 0
  000ef	e8 00 00 00 00	 call	 ?RestoreTextureStageState@CStateManager@@QAEXKW4_D3DTEXTURESTAGESTATETYPE@@@Z ; CStateManager::RestoreTextureStageState

; 152  : 	STATEMANAGER.RestoreTextureStageState(0, D3DTSS_ALPHAOP);

  000f4	8b 0d 00 00 00
	00		 mov	 ecx, DWORD PTR ?ms_singleton@?$CSingleton@VCStateManager@@@@0PAVCStateManager@@A ; CSingleton<CStateManager>::ms_singleton
  000fa	6a 04		 push	 4
  000fc	6a 00		 push	 0
  000fe	e8 00 00 00 00	 call	 ?RestoreTextureStageState@CStateManager@@QAEXKW4_D3DTEXTURESTAGESTATETYPE@@@Z ; CStateManager::RestoreTextureStageState

; 153  : 
; 154  : 	STATEMANAGER.RestoreSamplerState(0, D3DSAMP_MINFILTER);

  00103	8b 0d 00 00 00
	00		 mov	 ecx, DWORD PTR ?ms_singleton@?$CSingleton@VCStateManager@@@@0PAVCStateManager@@A ; CSingleton<CStateManager>::ms_singleton
  00109	6a 06		 push	 6
  0010b	6a 00		 push	 0
  0010d	e8 00 00 00 00	 call	 ?RestoreSamplerState@CStateManager@@QAEXKW4_D3DSAMPLERSTATETYPE@@@Z ; CStateManager::RestoreSamplerState

; 155  : 	STATEMANAGER.RestoreSamplerState(0, D3DSAMP_MAGFILTER);

  00112	8b 0d 00 00 00
	00		 mov	 ecx, DWORD PTR ?ms_singleton@?$CSingleton@VCStateManager@@@@0PAVCStateManager@@A ; CSingleton<CStateManager>::ms_singleton
  00118	6a 05		 push	 5
  0011a	6a 00		 push	 0
  0011c	e8 00 00 00 00	 call	 ?RestoreSamplerState@CStateManager@@QAEXKW4_D3DSAMPLERSTATETYPE@@@Z ; CStateManager::RestoreSamplerState

; 156  : 	STATEMANAGER.RestoreSamplerState(0, D3DSAMP_MIPFILTER);

  00121	6a 07		 push	 7
  00123	8b 0d 00 00 00
	00		 mov	 ecx, DWORD PTR ?ms_singleton@?$CSingleton@VCStateManager@@@@0PAVCStateManager@@A ; CSingleton<CStateManager>::ms_singleton
  00129	6a 00		 push	 0
  0012b	e8 00 00 00 00	 call	 ?RestoreSamplerState@CStateManager@@QAEXKW4_D3DSAMPLERSTATETYPE@@@Z ; CStateManager::RestoreSamplerState

; 157  : 	STATEMANAGER.RestoreSamplerState(0, D3DSAMP_ADDRESSU);

  00130	8b 0d 00 00 00
	00		 mov	 ecx, DWORD PTR ?ms_singleton@?$CSingleton@VCStateManager@@@@0PAVCStateManager@@A ; CSingleton<CStateManager>::ms_singleton
  00136	6a 01		 push	 1
  00138	6a 00		 push	 0
  0013a	e8 00 00 00 00	 call	 ?RestoreSamplerState@CStateManager@@QAEXKW4_D3DSAMPLERSTATETYPE@@@Z ; CStateManager::RestoreSamplerState

; 158  : 	STATEMANAGER.RestoreSamplerState(0, D3DSAMP_ADDRESSV);

  0013f	8b 0d 00 00 00
	00		 mov	 ecx, DWORD PTR ?ms_singleton@?$CSingleton@VCStateManager@@@@0PAVCStateManager@@A ; CSingleton<CStateManager>::ms_singleton
  00145	6a 02		 push	 2
  00147	6a 00		 push	 0
  00149	e8 00 00 00 00	 call	 ?RestoreSamplerState@CStateManager@@QAEXKW4_D3DSAMPLERSTATETYPE@@@Z ; CStateManager::RestoreSamplerState

; 159  : 
; 160  : 	STATEMANAGER.RestoreTextureStageState(1, D3DTSS_COLORARG1);

  0014e	8b 0d 00 00 00
	00		 mov	 ecx, DWORD PTR ?ms_singleton@?$CSingleton@VCStateManager@@@@0PAVCStateManager@@A ; CSingleton<CStateManager>::ms_singleton
  00154	6a 02		 push	 2
  00156	6a 01		 push	 1
  00158	e8 00 00 00 00	 call	 ?RestoreTextureStageState@CStateManager@@QAEXKW4_D3DTEXTURESTAGESTATETYPE@@@Z ; CStateManager::RestoreTextureStageState

; 161  : 	STATEMANAGER.RestoreTextureStageState(1, D3DTSS_COLORARG2);

  0015d	8b 0d 00 00 00
	00		 mov	 ecx, DWORD PTR ?ms_singleton@?$CSingleton@VCStateManager@@@@0PAVCStateManager@@A ; CSingleton<CStateManager>::ms_singleton
  00163	6a 03		 push	 3
  00165	6a 01		 push	 1
  00167	e8 00 00 00 00	 call	 ?RestoreTextureStageState@CStateManager@@QAEXKW4_D3DTEXTURESTAGESTATETYPE@@@Z ; CStateManager::RestoreTextureStageState

; 162  : 	STATEMANAGER.RestoreTextureStageState(1, D3DTSS_COLOROP);

  0016c	8b 0d 00 00 00
	00		 mov	 ecx, DWORD PTR ?ms_singleton@?$CSingleton@VCStateManager@@@@0PAVCStateManager@@A ; CSingleton<CStateManager>::ms_singleton
  00172	6a 01		 push	 1
  00174	6a 01		 push	 1
  00176	e8 00 00 00 00	 call	 ?RestoreTextureStageState@CStateManager@@QAEXKW4_D3DTEXTURESTAGESTATETYPE@@@Z ; CStateManager::RestoreTextureStageState

; 163  : 	STATEMANAGER.RestoreTextureStageState(1, D3DTSS_ALPHAARG1);

  0017b	8b 0d 00 00 00
	00		 mov	 ecx, DWORD PTR ?ms_singleton@?$CSingleton@VCStateManager@@@@0PAVCStateManager@@A ; CSingleton<CStateManager>::ms_singleton
  00181	6a 05		 push	 5
  00183	6a 01		 push	 1
  00185	e8 00 00 00 00	 call	 ?RestoreTextureStageState@CStateManager@@QAEXKW4_D3DTEXTURESTAGESTATETYPE@@@Z ; CStateManager::RestoreTextureStageState

; 164  : 	STATEMANAGER.RestoreTextureStageState(1, D3DTSS_ALPHAARG2);

  0018a	8b 0d 00 00 00
	00		 mov	 ecx, DWORD PTR ?ms_singleton@?$CSingleton@VCStateManager@@@@0PAVCStateManager@@A ; CSingleton<CStateManager>::ms_singleton
  00190	6a 06		 push	 6
  00192	6a 01		 push	 1
  00194	e8 00 00 00 00	 call	 ?RestoreTextureStageState@CStateManager@@QAEXKW4_D3DTEXTURESTAGESTATETYPE@@@Z ; CStateManager::RestoreTextureStageState

; 165  : 	STATEMANAGER.RestoreTextureStageState(1, D3DTSS_ALPHAOP);

  00199	8b 0d 00 00 00
	00		 mov	 ecx, DWORD PTR ?ms_singleton@?$CSingleton@VCStateManager@@@@0PAVCStateManager@@A ; CSingleton<CStateManager>::ms_singleton
  0019f	6a 04		 push	 4
  001a1	6a 01		 push	 1
  001a3	e8 00 00 00 00	 call	 ?RestoreTextureStageState@CStateManager@@QAEXKW4_D3DTEXTURESTAGESTATETYPE@@@Z ; CStateManager::RestoreTextureStageState

; 166  : 
; 167  : 	STATEMANAGER.RestoreSamplerState(1, D3DSAMP_MINFILTER);

  001a8	8b 0d 00 00 00
	00		 mov	 ecx, DWORD PTR ?ms_singleton@?$CSingleton@VCStateManager@@@@0PAVCStateManager@@A ; CSingleton<CStateManager>::ms_singleton
  001ae	6a 06		 push	 6
  001b0	6a 01		 push	 1
  001b2	e8 00 00 00 00	 call	 ?RestoreSamplerState@CStateManager@@QAEXKW4_D3DSAMPLERSTATETYPE@@@Z ; CStateManager::RestoreSamplerState

; 168  : 	STATEMANAGER.RestoreSamplerState(1, D3DSAMP_MAGFILTER);

  001b7	8b 0d 00 00 00
	00		 mov	 ecx, DWORD PTR ?ms_singleton@?$CSingleton@VCStateManager@@@@0PAVCStateManager@@A ; CSingleton<CStateManager>::ms_singleton
  001bd	6a 05		 push	 5
  001bf	6a 01		 push	 1
  001c1	e8 00 00 00 00	 call	 ?RestoreSamplerState@CStateManager@@QAEXKW4_D3DSAMPLERSTATETYPE@@@Z ; CStateManager::RestoreSamplerState

; 169  : 	STATEMANAGER.RestoreSamplerState(1, D3DSAMP_MIPFILTER);

  001c6	8b 0d 00 00 00
	00		 mov	 ecx, DWORD PTR ?ms_singleton@?$CSingleton@VCStateManager@@@@0PAVCStateManager@@A ; CSingleton<CStateManager>::ms_singleton
  001cc	6a 07		 push	 7
  001ce	6a 01		 push	 1
  001d0	e8 00 00 00 00	 call	 ?RestoreSamplerState@CStateManager@@QAEXKW4_D3DSAMPLERSTATETYPE@@@Z ; CStateManager::RestoreSamplerState

; 170  : 	STATEMANAGER.RestoreSamplerState(1, D3DSAMP_ADDRESSU);

  001d5	8b 0d 00 00 00
	00		 mov	 ecx, DWORD PTR ?ms_singleton@?$CSingleton@VCStateManager@@@@0PAVCStateManager@@A ; CSingleton<CStateManager>::ms_singleton
  001db	6a 01		 push	 1
  001dd	6a 01		 push	 1
  001df	e8 00 00 00 00	 call	 ?RestoreSamplerState@CStateManager@@QAEXKW4_D3DSAMPLERSTATETYPE@@@Z ; CStateManager::RestoreSamplerState

; 171  : 	STATEMANAGER.RestoreSamplerState(1, D3DSAMP_ADDRESSV);

  001e4	8b 0d 00 00 00
	00		 mov	 ecx, DWORD PTR ?ms_singleton@?$CSingleton@VCStateManager@@@@0PAVCStateManager@@A ; CSingleton<CStateManager>::ms_singleton
  001ea	6a 02		 push	 2
  001ec	6a 01		 push	 1
  001ee	e8 00 00 00 00	 call	 ?RestoreSamplerState@CStateManager@@QAEXKW4_D3DSAMPLERSTATETYPE@@@Z ; CStateManager::RestoreSamplerState
  001f3	5e		 pop	 esi

; 172  : }

  001f4	c3		 ret	 0
?End@CGraphicShadowTexture@@QAEXXZ ENDP			; CGraphicShadowTexture::End
_TEXT	ENDS
; Function compile flags: /Ogtp
; File C:\Users\flourine\Desktop\Xantios\client-src\Code\EterLib\GrpShadowTexture.cpp
;	COMDAT ?Begin@CGraphicShadowTexture@@QAEXXZ
_TEXT	SEGMENT
_d3dViewport$ = -28					; size = 24
__$ArrayPad$ = -4					; size = 4
?Begin@CGraphicShadowTexture@@QAEXXZ PROC		; CGraphicShadowTexture::Begin, COMDAT
; _this$ = ecx

; 66   : {

  00000	55		 push	 ebp
  00001	8b ec		 mov	 ebp, esp
  00003	83 ec 1c	 sub	 esp, 28			; 0000001cH
  00006	a1 00 00 00 00	 mov	 eax, DWORD PTR ___security_cookie
  0000b	33 c5		 xor	 eax, ebp
  0000d	89 45 fc	 mov	 DWORD PTR __$ArrayPad$[ebp], eax
  00010	56		 push	 esi
  00011	8b f1		 mov	 esi, ecx

; 67   : 	D3DXMatrixMultiply(&m_d3dLightVPMatrix, &ms_matView, &ms_matProj);

  00013	68 00 00 00 00	 push	 OFFSET ?ms_matProj@CGraphicBase@@1UD3DXMATRIX@@A ; CGraphicBase::ms_matProj
  00018	68 00 00 00 00	 push	 OFFSET ?ms_matView@CGraphicBase@@1UD3DXMATRIX@@A ; CGraphicBase::ms_matView
  0001d	8d 46 14	 lea	 eax, DWORD PTR [esi+20]
  00020	50		 push	 eax
  00021	e8 00 00 00 00	 call	 _D3DXMatrixMultiply@12

; 68   : 
; 69   : 	ms_lpd3dDevice->GetRenderTarget(0, &m_lpd3dOldBackBufferSurface);

  00026	8b 15 00 00 00
	00		 mov	 edx, DWORD PTR ?ms_lpd3dDevice@CGraphicBase@@1PAUIDirect3DDevice9@@A ; CGraphicBase::ms_lpd3dDevice
  0002c	8d 46 78	 lea	 eax, DWORD PTR [esi+120]
  0002f	50		 push	 eax
  00030	6a 00		 push	 0
  00032	52		 push	 edx
  00033	8b 0a		 mov	 ecx, DWORD PTR [edx]
  00035	ff 91 98 00 00
	00		 call	 DWORD PTR [ecx+152]

; 70   : 	ms_lpd3dDevice->GetDepthStencilSurface(&m_lpd3dOldDepthBufferSurface);

  0003b	8b 0d 00 00 00
	00		 mov	 ecx, DWORD PTR ?ms_lpd3dDevice@CGraphicBase@@1PAUIDirect3DDevice9@@A ; CGraphicBase::ms_lpd3dDevice
  00041	8d 46 7c	 lea	 eax, DWORD PTR [esi+124]
  00044	50		 push	 eax
  00045	51		 push	 ecx
  00046	8b 11		 mov	 edx, DWORD PTR [ecx]
  00048	ff 92 a0 00 00
	00		 call	 DWORD PTR [edx+160]

; 71   : 	ms_lpd3dDevice->GetViewport(&m_d3dOldViewport);

  0004e	8b 0d 00 00 00
	00		 mov	 ecx, DWORD PTR ?ms_lpd3dDevice@CGraphicBase@@1PAUIDirect3DDevice9@@A ; CGraphicBase::ms_lpd3dDevice
  00054	8d 46 54	 lea	 eax, DWORD PTR [esi+84]
  00057	50		 push	 eax
  00058	51		 push	 ecx
  00059	8b 11		 mov	 edx, DWORD PTR [ecx]
  0005b	ff 92 c0 00 00
	00		 call	 DWORD PTR [edx+192]

; 72   : 
; 73   : 	ms_lpd3dDevice->GetRenderTarget(0, &m_lpd3dShadowSurface);

  00061	8b 0d 00 00 00
	00		 mov	 ecx, DWORD PTR ?ms_lpd3dDevice@CGraphicBase@@1PAUIDirect3DDevice9@@A ; CGraphicBase::ms_lpd3dDevice
  00067	8d 46 70	 lea	 eax, DWORD PTR [esi+112]
  0006a	50		 push	 eax
  0006b	6a 00		 push	 0
  0006d	51		 push	 ecx
  0006e	8b 11		 mov	 edx, DWORD PTR [ecx]
  00070	ff 92 98 00 00
	00		 call	 DWORD PTR [edx+152]

; 74   : 	ms_lpd3dDevice->GetDepthStencilSurface(&m_lpd3dDepthSurface);

  00076	8b 0d 00 00 00
	00		 mov	 ecx, DWORD PTR ?ms_lpd3dDevice@CGraphicBase@@1PAUIDirect3DDevice9@@A ; CGraphicBase::ms_lpd3dDevice
  0007c	8d 46 74	 lea	 eax, DWORD PTR [esi+116]
  0007f	50		 push	 eax
  00080	51		 push	 ecx
  00081	8b 11		 mov	 edx, DWORD PTR [ecx]
  00083	ff 92 a0 00 00
	00		 call	 DWORD PTR [edx+160]

; 75   : 
; 76   : 	D3DVIEWPORT9 d3dViewport;
; 77   : 	d3dViewport.MinZ = 0.0f;
; 78   : 	d3dViewport.MaxZ = 1.0f;
; 79   : 	d3dViewport.X = 0;
; 80   : 	d3dViewport.Y = 0;
; 81   : 	d3dViewport.Width = m_width;

  00089	8b 46 08	 mov	 eax, DWORD PTR [esi+8]

; 82   : 	d3dViewport.Height = m_height;
; 83   : 
; 84   : 	ms_lpd3dDevice->SetViewport(&d3dViewport);

  0008c	8d 55 e4	 lea	 edx, DWORD PTR _d3dViewport$[ebp]
  0008f	89 45 ec	 mov	 DWORD PTR _d3dViewport$[ebp+8], eax
  00092	8b 46 0c	 mov	 eax, DWORD PTR [esi+12]
  00095	89 45 f0	 mov	 DWORD PTR _d3dViewport$[ebp+12], eax
  00098	a1 00 00 00 00	 mov	 eax, DWORD PTR ?ms_lpd3dDevice@CGraphicBase@@1PAUIDirect3DDevice9@@A ; CGraphicBase::ms_lpd3dDevice
  0009d	c7 45 f4 00 00
	00 00		 mov	 DWORD PTR _d3dViewport$[ebp+16], 0
  000a4	c7 45 f8 00 00
	80 3f		 mov	 DWORD PTR _d3dViewport$[ebp+20], 1065353216 ; 3f800000H
  000ab	c7 45 e4 00 00
	00 00		 mov	 DWORD PTR _d3dViewport$[ebp], 0
  000b2	c7 45 e8 00 00
	00 00		 mov	 DWORD PTR _d3dViewport$[ebp+4], 0
  000b9	8b 08		 mov	 ecx, DWORD PTR [eax]
  000bb	52		 push	 edx
  000bc	50		 push	 eax
  000bd	ff 91 bc 00 00
	00		 call	 DWORD PTR [ecx+188]

; 85   : 	ms_lpd3dDevice->BeginScene();

  000c3	a1 00 00 00 00	 mov	 eax, DWORD PTR ?ms_lpd3dDevice@CGraphicBase@@1PAUIDirect3DDevice9@@A ; CGraphicBase::ms_lpd3dDevice
  000c8	50		 push	 eax
  000c9	8b 08		 mov	 ecx, DWORD PTR [eax]
  000cb	ff 91 a4 00 00
	00		 call	 DWORD PTR [ecx+164]

; 86   : 
; 87   : 	ms_lpd3dDevice->Clear(0, nullptr, D3DCLEAR_TARGET | D3DCLEAR_ZBUFFER, 0, 1.0f, 0);

  000d1	a1 00 00 00 00	 mov	 eax, DWORD PTR ?ms_lpd3dDevice@CGraphicBase@@1PAUIDirect3DDevice9@@A ; CGraphicBase::ms_lpd3dDevice
  000d6	6a 00		 push	 0
  000d8	8b 08		 mov	 ecx, DWORD PTR [eax]
  000da	51		 push	 ecx
  000db	c7 04 24 00 00
	80 3f		 mov	 DWORD PTR [esp], 1065353216 ; 3f800000H
  000e2	6a 00		 push	 0
  000e4	6a 03		 push	 3
  000e6	6a 00		 push	 0
  000e8	6a 00		 push	 0
  000ea	50		 push	 eax
  000eb	ff 91 ac 00 00
	00		 call	 DWORD PTR [ecx+172]

; 88   : 
; 89   : 	STATEMANAGER.SaveRenderState(D3DRS_CULLMODE, D3DCULL_NONE);

  000f1	8b 0d 00 00 00
	00		 mov	 ecx, DWORD PTR ?ms_singleton@?$CSingleton@VCStateManager@@@@0PAVCStateManager@@A ; CSingleton<CStateManager>::ms_singleton
  000f7	6a 01		 push	 1
  000f9	6a 16		 push	 22			; 00000016H
  000fb	e8 00 00 00 00	 call	 ?SaveRenderState@CStateManager@@QAEXW4_D3DRENDERSTATETYPE@@K@Z ; CStateManager::SaveRenderState

; 90   : 	STATEMANAGER.SaveRenderState(D3DRS_ZFUNC, D3DCMP_LESSEQUAL);

  00100	8b 0d 00 00 00
	00		 mov	 ecx, DWORD PTR ?ms_singleton@?$CSingleton@VCStateManager@@@@0PAVCStateManager@@A ; CSingleton<CStateManager>::ms_singleton
  00106	6a 04		 push	 4
  00108	6a 17		 push	 23			; 00000017H
  0010a	e8 00 00 00 00	 call	 ?SaveRenderState@CStateManager@@QAEXW4_D3DRENDERSTATETYPE@@K@Z ; CStateManager::SaveRenderState

; 91   : 	STATEMANAGER.SaveRenderState(D3DRS_ALPHABLENDENABLE, true);

  0010f	8b 0d 00 00 00
	00		 mov	 ecx, DWORD PTR ?ms_singleton@?$CSingleton@VCStateManager@@@@0PAVCStateManager@@A ; CSingleton<CStateManager>::ms_singleton
  00115	6a 01		 push	 1
  00117	6a 1b		 push	 27			; 0000001bH
  00119	e8 00 00 00 00	 call	 ?SaveRenderState@CStateManager@@QAEXW4_D3DRENDERSTATETYPE@@K@Z ; CStateManager::SaveRenderState

; 92   : 	STATEMANAGER.SaveRenderState(D3DRS_ALPHATESTENABLE, true);

  0011e	6a 01		 push	 1
  00120	8b 0d 00 00 00
	00		 mov	 ecx, DWORD PTR ?ms_singleton@?$CSingleton@VCStateManager@@@@0PAVCStateManager@@A ; CSingleton<CStateManager>::ms_singleton
  00126	6a 0f		 push	 15			; 0000000fH
  00128	e8 00 00 00 00	 call	 ?SaveRenderState@CStateManager@@QAEXW4_D3DRENDERSTATETYPE@@K@Z ; CStateManager::SaveRenderState

; 93   : 	STATEMANAGER.SaveRenderState(D3DRS_TEXTUREFACTOR, 0xbb000000);

  0012d	8b 0d 00 00 00
	00		 mov	 ecx, DWORD PTR ?ms_singleton@?$CSingleton@VCStateManager@@@@0PAVCStateManager@@A ; CSingleton<CStateManager>::ms_singleton
  00133	68 00 00 00 bb	 push	 -1157627904		; bb000000H
  00138	6a 3c		 push	 60			; 0000003cH
  0013a	e8 00 00 00 00	 call	 ?SaveRenderState@CStateManager@@QAEXW4_D3DRENDERSTATETYPE@@K@Z ; CStateManager::SaveRenderState

; 94   : 
; 95   : 	STATEMANAGER.SetTexture(0, m_lpd3dShadowTexture);

  0013f	ff 76 6c	 push	 DWORD PTR [esi+108]
  00142	8b 0d 00 00 00
	00		 mov	 ecx, DWORD PTR ?ms_singleton@?$CSingleton@VCStateManager@@@@0PAVCStateManager@@A ; CSingleton<CStateManager>::ms_singleton
  00148	6a 00		 push	 0
  0014a	e8 00 00 00 00	 call	 ?SetTexture@CStateManager@@QAEXKPAUIDirect3DBaseTexture9@@@Z ; CStateManager::SetTexture

; 96   : 	STATEMANAGER.SaveTextureStageState(0, D3DTSS_COLORARG1, D3DTA_TFACTOR);

  0014f	8b 0d 00 00 00
	00		 mov	 ecx, DWORD PTR ?ms_singleton@?$CSingleton@VCStateManager@@@@0PAVCStateManager@@A ; CSingleton<CStateManager>::ms_singleton
  00155	6a 03		 push	 3
  00157	6a 02		 push	 2
  00159	6a 00		 push	 0
  0015b	e8 00 00 00 00	 call	 ?SaveTextureStageState@CStateManager@@QAEXKW4_D3DTEXTURESTAGESTATETYPE@@K@Z ; CStateManager::SaveTextureStageState

; 97   : 	STATEMANAGER.SaveTextureStageState(0, D3DTSS_COLORARG2, D3DTA_TEXTURE);

  00160	8b 0d 00 00 00
	00		 mov	 ecx, DWORD PTR ?ms_singleton@?$CSingleton@VCStateManager@@@@0PAVCStateManager@@A ; CSingleton<CStateManager>::ms_singleton
  00166	6a 02		 push	 2
  00168	6a 03		 push	 3
  0016a	6a 00		 push	 0
  0016c	e8 00 00 00 00	 call	 ?SaveTextureStageState@CStateManager@@QAEXKW4_D3DTEXTURESTAGESTATETYPE@@K@Z ; CStateManager::SaveTextureStageState

; 98   : 	STATEMANAGER.SaveTextureStageState(0, D3DTSS_COLOROP, D3DTOP_MODULATE);

  00171	8b 0d 00 00 00
	00		 mov	 ecx, DWORD PTR ?ms_singleton@?$CSingleton@VCStateManager@@@@0PAVCStateManager@@A ; CSingleton<CStateManager>::ms_singleton
  00177	6a 04		 push	 4
  00179	6a 01		 push	 1
  0017b	6a 00		 push	 0
  0017d	e8 00 00 00 00	 call	 ?SaveTextureStageState@CStateManager@@QAEXKW4_D3DTEXTURESTAGESTATETYPE@@K@Z ; CStateManager::SaveTextureStageState

; 99   : 	STATEMANAGER.SaveTextureStageState(0, D3DTSS_ALPHAARG1, D3DTA_TFACTOR);

  00182	8b 0d 00 00 00
	00		 mov	 ecx, DWORD PTR ?ms_singleton@?$CSingleton@VCStateManager@@@@0PAVCStateManager@@A ; CSingleton<CStateManager>::ms_singleton
  00188	6a 03		 push	 3
  0018a	6a 05		 push	 5
  0018c	6a 00		 push	 0
  0018e	e8 00 00 00 00	 call	 ?SaveTextureStageState@CStateManager@@QAEXKW4_D3DTEXTURESTAGESTATETYPE@@K@Z ; CStateManager::SaveTextureStageState

; 100  : 	STATEMANAGER.SaveTextureStageState(0, D3DTSS_ALPHAARG2, D3DTA_TEXTURE);

  00193	8b 0d 00 00 00
	00		 mov	 ecx, DWORD PTR ?ms_singleton@?$CSingleton@VCStateManager@@@@0PAVCStateManager@@A ; CSingleton<CStateManager>::ms_singleton
  00199	6a 02		 push	 2
  0019b	6a 06		 push	 6
  0019d	6a 00		 push	 0
  0019f	e8 00 00 00 00	 call	 ?SaveTextureStageState@CStateManager@@QAEXKW4_D3DTEXTURESTAGESTATETYPE@@K@Z ; CStateManager::SaveTextureStageState

; 101  : 	STATEMANAGER.SaveTextureStageState(0, D3DTSS_ALPHAOP, D3DTOP_MODULATE);

  001a4	8b 0d 00 00 00
	00		 mov	 ecx, DWORD PTR ?ms_singleton@?$CSingleton@VCStateManager@@@@0PAVCStateManager@@A ; CSingleton<CStateManager>::ms_singleton
  001aa	6a 04		 push	 4
  001ac	6a 04		 push	 4
  001ae	6a 00		 push	 0
  001b0	e8 00 00 00 00	 call	 ?SaveTextureStageState@CStateManager@@QAEXKW4_D3DTEXTURESTAGESTATETYPE@@K@Z ; CStateManager::SaveTextureStageState

; 102  : 
; 103  : 	STATEMANAGER.SaveSamplerState(0, D3DSAMP_MINFILTER, D3DTEXF_POINT);

  001b5	8b 0d 00 00 00
	00		 mov	 ecx, DWORD PTR ?ms_singleton@?$CSingleton@VCStateManager@@@@0PAVCStateManager@@A ; CSingleton<CStateManager>::ms_singleton
  001bb	6a 01		 push	 1
  001bd	6a 06		 push	 6
  001bf	6a 00		 push	 0
  001c1	e8 00 00 00 00	 call	 ?SaveSamplerState@CStateManager@@QAEXKW4_D3DSAMPLERSTATETYPE@@K@Z ; CStateManager::SaveSamplerState

; 104  : 	STATEMANAGER.SaveSamplerState(0, D3DSAMP_MAGFILTER, D3DTEXF_POINT);

  001c6	8b 0d 00 00 00
	00		 mov	 ecx, DWORD PTR ?ms_singleton@?$CSingleton@VCStateManager@@@@0PAVCStateManager@@A ; CSingleton<CStateManager>::ms_singleton
  001cc	6a 01		 push	 1
  001ce	6a 05		 push	 5
  001d0	6a 00		 push	 0
  001d2	e8 00 00 00 00	 call	 ?SaveSamplerState@CStateManager@@QAEXKW4_D3DSAMPLERSTATETYPE@@K@Z ; CStateManager::SaveSamplerState

; 105  : 	STATEMANAGER.SaveSamplerState(0, D3DSAMP_MIPFILTER, D3DTEXF_POINT);

  001d7	8b 0d 00 00 00
	00		 mov	 ecx, DWORD PTR ?ms_singleton@?$CSingleton@VCStateManager@@@@0PAVCStateManager@@A ; CSingleton<CStateManager>::ms_singleton
  001dd	6a 01		 push	 1
  001df	6a 07		 push	 7
  001e1	6a 00		 push	 0
  001e3	e8 00 00 00 00	 call	 ?SaveSamplerState@CStateManager@@QAEXKW4_D3DSAMPLERSTATETYPE@@K@Z ; CStateManager::SaveSamplerState

; 106  : 	STATEMANAGER.SaveSamplerState(0, D3DSAMP_ADDRESSU, D3DTADDRESS_CLAMP);

  001e8	8b 0d 00 00 00
	00		 mov	 ecx, DWORD PTR ?ms_singleton@?$CSingleton@VCStateManager@@@@0PAVCStateManager@@A ; CSingleton<CStateManager>::ms_singleton
  001ee	6a 03		 push	 3
  001f0	6a 01		 push	 1
  001f2	6a 00		 push	 0
  001f4	e8 00 00 00 00	 call	 ?SaveSamplerState@CStateManager@@QAEXKW4_D3DSAMPLERSTATETYPE@@K@Z ; CStateManager::SaveSamplerState

; 107  : 	STATEMANAGER.SaveSamplerState(0, D3DSAMP_ADDRESSV, D3DTADDRESS_CLAMP);

  001f9	8b 0d 00 00 00
	00		 mov	 ecx, DWORD PTR ?ms_singleton@?$CSingleton@VCStateManager@@@@0PAVCStateManager@@A ; CSingleton<CStateManager>::ms_singleton
  001ff	6a 03		 push	 3
  00201	6a 02		 push	 2
  00203	6a 00		 push	 0
  00205	e8 00 00 00 00	 call	 ?SaveSamplerState@CStateManager@@QAEXKW4_D3DSAMPLERSTATETYPE@@K@Z ; CStateManager::SaveSamplerState

; 108  : 
; 109  : 	STATEMANAGER.SetTexture(1, nullptr);

  0020a	8b 0d 00 00 00
	00		 mov	 ecx, DWORD PTR ?ms_singleton@?$CSingleton@VCStateManager@@@@0PAVCStateManager@@A ; CSingleton<CStateManager>::ms_singleton
  00210	6a 00		 push	 0
  00212	6a 01		 push	 1
  00214	e8 00 00 00 00	 call	 ?SetTexture@CStateManager@@QAEXKPAUIDirect3DBaseTexture9@@@Z ; CStateManager::SetTexture

; 110  : 	STATEMANAGER.SaveTextureStageState(1, D3DTSS_COLORARG1, D3DTA_CURRENT);

  00219	8b 0d 00 00 00
	00		 mov	 ecx, DWORD PTR ?ms_singleton@?$CSingleton@VCStateManager@@@@0PAVCStateManager@@A ; CSingleton<CStateManager>::ms_singleton
  0021f	6a 01		 push	 1
  00221	6a 02		 push	 2
  00223	6a 01		 push	 1
  00225	e8 00 00 00 00	 call	 ?SaveTextureStageState@CStateManager@@QAEXKW4_D3DTEXTURESTAGESTATETYPE@@K@Z ; CStateManager::SaveTextureStageState

; 111  : 	STATEMANAGER.SaveTextureStageState(1, D3DTSS_COLORARG2, D3DTA_TEXTURE);

  0022a	8b 0d 00 00 00
	00		 mov	 ecx, DWORD PTR ?ms_singleton@?$CSingleton@VCStateManager@@@@0PAVCStateManager@@A ; CSingleton<CStateManager>::ms_singleton
  00230	6a 02		 push	 2
  00232	6a 03		 push	 3
  00234	6a 01		 push	 1
  00236	e8 00 00 00 00	 call	 ?SaveTextureStageState@CStateManager@@QAEXKW4_D3DTEXTURESTAGESTATETYPE@@K@Z ; CStateManager::SaveTextureStageState

; 112  : 	STATEMANAGER.SaveTextureStageState(1, D3DTSS_COLOROP, D3DTOP_SELECTARG1);

  0023b	6a 02		 push	 2
  0023d	8b 0d 00 00 00
	00		 mov	 ecx, DWORD PTR ?ms_singleton@?$CSingleton@VCStateManager@@@@0PAVCStateManager@@A ; CSingleton<CStateManager>::ms_singleton
  00243	6a 01		 push	 1
  00245	6a 01		 push	 1
  00247	e8 00 00 00 00	 call	 ?SaveTextureStageState@CStateManager@@QAEXKW4_D3DTEXTURESTAGESTATETYPE@@K@Z ; CStateManager::SaveTextureStageState

; 113  : 	STATEMANAGER.SaveTextureStageState(1, D3DTSS_ALPHAARG1, D3DTA_CURRENT);

  0024c	8b 0d 00 00 00
	00		 mov	 ecx, DWORD PTR ?ms_singleton@?$CSingleton@VCStateManager@@@@0PAVCStateManager@@A ; CSingleton<CStateManager>::ms_singleton
  00252	6a 01		 push	 1
  00254	6a 05		 push	 5
  00256	6a 01		 push	 1
  00258	e8 00 00 00 00	 call	 ?SaveTextureStageState@CStateManager@@QAEXKW4_D3DTEXTURESTAGESTATETYPE@@K@Z ; CStateManager::SaveTextureStageState

; 114  : 	STATEMANAGER.SaveTextureStageState(1, D3DTSS_ALPHAARG2, D3DTA_TEXTURE);

  0025d	8b 0d 00 00 00
	00		 mov	 ecx, DWORD PTR ?ms_singleton@?$CSingleton@VCStateManager@@@@0PAVCStateManager@@A ; CSingleton<CStateManager>::ms_singleton
  00263	6a 02		 push	 2
  00265	6a 06		 push	 6
  00267	6a 01		 push	 1
  00269	e8 00 00 00 00	 call	 ?SaveTextureStageState@CStateManager@@QAEXKW4_D3DTEXTURESTAGESTATETYPE@@K@Z ; CStateManager::SaveTextureStageState

; 115  : 	STATEMANAGER.SaveTextureStageState(1, D3DTSS_ALPHAOP, D3DTOP_SELECTARG1);

  0026e	8b 0d 00 00 00
	00		 mov	 ecx, DWORD PTR ?ms_singleton@?$CSingleton@VCStateManager@@@@0PAVCStateManager@@A ; CSingleton<CStateManager>::ms_singleton
  00274	6a 02		 push	 2
  00276	6a 04		 push	 4
  00278	6a 01		 push	 1
  0027a	e8 00 00 00 00	 call	 ?SaveTextureStageState@CStateManager@@QAEXKW4_D3DTEXTURESTAGESTATETYPE@@K@Z ; CStateManager::SaveTextureStageState

; 116  : 
; 117  : 	STATEMANAGER.SaveSamplerState(1, D3DSAMP_MINFILTER, D3DTEXF_POINT);

  0027f	8b 0d 00 00 00
	00		 mov	 ecx, DWORD PTR ?ms_singleton@?$CSingleton@VCStateManager@@@@0PAVCStateManager@@A ; CSingleton<CStateManager>::ms_singleton
  00285	6a 01		 push	 1
  00287	6a 06		 push	 6
  00289	6a 01		 push	 1
  0028b	e8 00 00 00 00	 call	 ?SaveSamplerState@CStateManager@@QAEXKW4_D3DSAMPLERSTATETYPE@@K@Z ; CStateManager::SaveSamplerState

; 118  : 	STATEMANAGER.SaveSamplerState(1, D3DSAMP_MAGFILTER, D3DTEXF_POINT);

  00290	8b 0d 00 00 00
	00		 mov	 ecx, DWORD PTR ?ms_singleton@?$CSingleton@VCStateManager@@@@0PAVCStateManager@@A ; CSingleton<CStateManager>::ms_singleton
  00296	6a 01		 push	 1
  00298	6a 05		 push	 5
  0029a	6a 01		 push	 1
  0029c	e8 00 00 00 00	 call	 ?SaveSamplerState@CStateManager@@QAEXKW4_D3DSAMPLERSTATETYPE@@K@Z ; CStateManager::SaveSamplerState

; 119  : 	STATEMANAGER.SaveSamplerState(1, D3DSAMP_MIPFILTER, D3DTEXF_POINT);

  002a1	8b 0d 00 00 00
	00		 mov	 ecx, DWORD PTR ?ms_singleton@?$CSingleton@VCStateManager@@@@0PAVCStateManager@@A ; CSingleton<CStateManager>::ms_singleton
  002a7	6a 01		 push	 1
  002a9	6a 07		 push	 7
  002ab	6a 01		 push	 1
  002ad	e8 00 00 00 00	 call	 ?SaveSamplerState@CStateManager@@QAEXKW4_D3DSAMPLERSTATETYPE@@K@Z ; CStateManager::SaveSamplerState

; 120  : 	STATEMANAGER.SaveSamplerState(1, D3DSAMP_ADDRESSU, D3DTADDRESS_CLAMP);

  002b2	8b 0d 00 00 00
	00		 mov	 ecx, DWORD PTR ?ms_singleton@?$CSingleton@VCStateManager@@@@0PAVCStateManager@@A ; CSingleton<CStateManager>::ms_singleton
  002b8	6a 03		 push	 3
  002ba	6a 01		 push	 1
  002bc	6a 01		 push	 1
  002be	e8 00 00 00 00	 call	 ?SaveSamplerState@CStateManager@@QAEXKW4_D3DSAMPLERSTATETYPE@@K@Z ; CStateManager::SaveSamplerState

; 121  : 	STATEMANAGER.SaveSamplerState(1, D3DSAMP_ADDRESSV, D3DTADDRESS_CLAMP);

  002c3	8b 0d 00 00 00
	00		 mov	 ecx, DWORD PTR ?ms_singleton@?$CSingleton@VCStateManager@@@@0PAVCStateManager@@A ; CSingleton<CStateManager>::ms_singleton
  002c9	6a 03		 push	 3
  002cb	6a 02		 push	 2
  002cd	6a 01		 push	 1
  002cf	e8 00 00 00 00	 call	 ?SaveSamplerState@CStateManager@@QAEXKW4_D3DSAMPLERSTATETYPE@@K@Z ; CStateManager::SaveSamplerState

; 122  : }

  002d4	8b 4d fc	 mov	 ecx, DWORD PTR __$ArrayPad$[ebp]
  002d7	33 cd		 xor	 ecx, ebp
  002d9	5e		 pop	 esi
  002da	e8 00 00 00 00	 call	 @__security_check_cookie@4
  002df	8b e5		 mov	 esp, ebp
  002e1	5d		 pop	 ebp
  002e2	c3		 ret	 0
?Begin@CGraphicShadowTexture@@QAEXXZ ENDP		; CGraphicShadowTexture::Begin
_TEXT	ENDS
; Function compile flags: /Ogtp
; File C:\Users\flourine\Desktop\Xantios\client-src\Code\EterLib\GrpShadowTexture.cpp
;	COMDAT ?Create@CGraphicShadowTexture@@QAE_NHH@Z
_TEXT	SEGMENT
_width$ = 8						; size = 4
_height$ = 12						; size = 4
?Create@CGraphicShadowTexture@@QAE_NHH@Z PROC		; CGraphicShadowTexture::Create, COMDAT
; _this$ = ecx

; 32   : {

  00000	55		 push	 ebp
  00001	8b ec		 mov	 ebp, esp
  00003	53		 push	 ebx
  00004	56		 push	 esi
  00005	57		 push	 edi
  00006	8b f9		 mov	 edi, ecx

; 33   : 	Destroy();

  00008	e8 00 00 00 00	 call	 ?Destroy@CGraphicShadowTexture@@QAEXXZ ; CGraphicShadowTexture::Destroy

; 34   : 
; 35   : 	m_width = width;
; 36   : 	m_height = height;

  0000d	8b 4d 0c	 mov	 ecx, DWORD PTR _height$[ebp]

; 37   : 
; 38   : 	if (FAILED(ms_lpd3dDevice->CreateTexture(m_width, m_height, 1, D3DUSAGE_RENDERTARGET, D3DFMT_A8R8G8B8, D3DPOOL_DEFAULT, &m_lpd3dShadowTexture, NULL)))

  00010	8d 5f 6c	 lea	 ebx, DWORD PTR [edi+108]
  00013	8b 75 08	 mov	 esi, DWORD PTR _width$[ebp]
  00016	6a 00		 push	 0
  00018	53		 push	 ebx
  00019	6a 00		 push	 0
  0001b	6a 15		 push	 21			; 00000015H
  0001d	6a 01		 push	 1
  0001f	89 77 08	 mov	 DWORD PTR [edi+8], esi
  00022	89 4f 0c	 mov	 DWORD PTR [edi+12], ecx
  00025	8b 15 00 00 00
	00		 mov	 edx, DWORD PTR ?ms_lpd3dDevice@CGraphicBase@@1PAUIDirect3DDevice9@@A ; CGraphicBase::ms_lpd3dDevice
  0002b	6a 01		 push	 1
  0002d	51		 push	 ecx
  0002e	56		 push	 esi
  0002f	8b 02		 mov	 eax, DWORD PTR [edx]
  00031	52		 push	 edx
  00032	ff 50 5c	 call	 DWORD PTR [eax+92]
  00035	85 c0		 test	 eax, eax
  00037	78 42		 js	 SHORT $LN6@Create

; 39   : 		return false;
; 40   : 
; 41   : 	if (FAILED(m_lpd3dShadowTexture->GetSurfaceLevel(0, &m_lpd3dShadowSurface)))

  00039	8b 13		 mov	 edx, DWORD PTR [ebx]
  0003b	8b 02		 mov	 eax, DWORD PTR [edx]
  0003d	8b 48 48	 mov	 ecx, DWORD PTR [eax+72]
  00040	8d 47 70	 lea	 eax, DWORD PTR [edi+112]
  00043	50		 push	 eax
  00044	6a 00		 push	 0
  00046	52		 push	 edx
  00047	ff d1		 call	 ecx
  00049	85 c0		 test	 eax, eax
  0004b	78 2e		 js	 SHORT $LN6@Create

; 42   : 		return false;
; 43   : 
; 44   : 	if (FAILED(ms_lpd3dDevice->CreateDepthStencilSurface(m_width, m_height, D3DFMT_R32F, D3DMULTISAMPLE_NONE, 0, false, &m_lpd3dDepthSurface, NULL)))

  0004d	8b 15 00 00 00
	00		 mov	 edx, DWORD PTR ?ms_lpd3dDevice@CGraphicBase@@1PAUIDirect3DDevice9@@A ; CGraphicBase::ms_lpd3dDevice
  00053	6a 00		 push	 0
  00055	8b 02		 mov	 eax, DWORD PTR [edx]
  00057	8b 48 74	 mov	 ecx, DWORD PTR [eax+116]
  0005a	8d 47 74	 lea	 eax, DWORD PTR [edi+116]
  0005d	50		 push	 eax
  0005e	6a 00		 push	 0
  00060	6a 00		 push	 0
  00062	6a 00		 push	 0
  00064	6a 72		 push	 114			; 00000072H
  00066	ff 77 0c	 push	 DWORD PTR [edi+12]
  00069	ff 77 08	 push	 DWORD PTR [edi+8]
  0006c	52		 push	 edx
  0006d	ff d1		 call	 ecx
  0006f	5f		 pop	 edi
  00070	85 c0		 test	 eax, eax

; 45   : 		return false;
; 46   : 
; 47   : 	return true;
; 48   : }

  00072	5e		 pop	 esi
  00073	0f 99 c0	 setns	 al
  00076	5b		 pop	 ebx
  00077	5d		 pop	 ebp
  00078	c2 08 00	 ret	 8
$LN6@Create:
  0007b	5f		 pop	 edi
  0007c	5e		 pop	 esi
  0007d	32 c0		 xor	 al, al
  0007f	5b		 pop	 ebx
  00080	5d		 pop	 ebp
  00081	c2 08 00	 ret	 8
?Create@CGraphicShadowTexture@@QAE_NHH@Z ENDP		; CGraphicShadowTexture::Create
_TEXT	ENDS
; Function compile flags: /Ogtp
; File C:\Users\flourine\Desktop\Xantios\client-src\Code\EterLib\GrpShadowTexture.cpp
;	COMDAT ?Destroy@CGraphicShadowTexture@@QAEXXZ
_TEXT	SEGMENT
?Destroy@CGraphicShadowTexture@@QAEXXZ PROC		; CGraphicShadowTexture::Destroy, COMDAT
; _this$ = ecx

; 7    : {	

  00000	56		 push	 esi
  00001	8b f1		 mov	 esi, ecx

; 8    : 	CGraphicTexture::Destroy();

  00003	e8 00 00 00 00	 call	 ?Destroy@CGraphicTexture@@IAEXXZ ; CGraphicTexture::Destroy

; 9    : 
; 10   : 	if (m_lpd3dShadowSurface)

  00008	8b 4e 70	 mov	 ecx, DWORD PTR [esi+112]
  0000b	85 c9		 test	 ecx, ecx
  0000d	74 0d		 je	 SHORT $LN2@Destroy

; 11   : 	{
; 12   : 		m_lpd3dShadowSurface->Release();

  0000f	8b 01		 mov	 eax, DWORD PTR [ecx]
  00011	51		 push	 ecx
  00012	ff 50 08	 call	 DWORD PTR [eax+8]

; 13   : 		m_lpd3dShadowSurface = NULL;

  00015	c7 46 70 00 00
	00 00		 mov	 DWORD PTR [esi+112], 0
$LN2@Destroy:

; 14   : 	}
; 15   : 
; 16   : 	if (m_lpd3dDepthSurface)

  0001c	8b 4e 74	 mov	 ecx, DWORD PTR [esi+116]
  0001f	85 c9		 test	 ecx, ecx
  00021	74 0d		 je	 SHORT $LN3@Destroy

; 17   : 	{
; 18   : 		m_lpd3dDepthSurface->Release();

  00023	8b 01		 mov	 eax, DWORD PTR [ecx]
  00025	51		 push	 ecx
  00026	ff 50 08	 call	 DWORD PTR [eax+8]

; 19   : 		m_lpd3dDepthSurface = NULL;

  00029	c7 46 74 00 00
	00 00		 mov	 DWORD PTR [esi+116], 0
$LN3@Destroy:

; 20   : 	}
; 21   : 
; 22   : 	if (m_lpd3dShadowTexture)

  00030	8b 4e 6c	 mov	 ecx, DWORD PTR [esi+108]
  00033	85 c9		 test	 ecx, ecx
  00035	74 0d		 je	 SHORT $LN4@Destroy

; 23   : 	{
; 24   : 		m_lpd3dShadowTexture->Release();

  00037	8b 01		 mov	 eax, DWORD PTR [ecx]
  00039	51		 push	 ecx
  0003a	ff 50 08	 call	 DWORD PTR [eax+8]

; 25   : 		m_lpd3dShadowTexture = NULL;

  0003d	c7 46 6c 00 00
	00 00		 mov	 DWORD PTR [esi+108], 0
$LN4@Destroy:

; 26   : 	}
; 27   : 
; 28   : 	Initialize();

  00044	8b ce		 mov	 ecx, esi
  00046	5e		 pop	 esi
  00047	e9 00 00 00 00	 jmp	 ?Initialize@CGraphicShadowTexture@@IAEXXZ ; CGraphicShadowTexture::Initialize
?Destroy@CGraphicShadowTexture@@QAEXXZ ENDP		; CGraphicShadowTexture::Destroy
_TEXT	ENDS
; Function compile flags: /Ogtp
; File C:\Users\flourine\Desktop\Xantios\client-src\Code\EterLib\GrpShadowTexture.cpp
;	COMDAT ??1CGraphicShadowTexture@@UAE@XZ
_TEXT	SEGMENT
__$EHRec$ = -12						; size = 12
??1CGraphicShadowTexture@@UAE@XZ PROC			; CGraphicShadowTexture::~CGraphicShadowTexture, COMDAT
; _this$ = ecx

; 191  : {

  00000	55		 push	 ebp
  00001	8b ec		 mov	 ebp, esp
  00003	6a ff		 push	 -1
  00005	68 00 00 00 00	 push	 __ehhandler$??1CGraphicShadowTexture@@UAE@XZ
  0000a	64 a1 00 00 00
	00		 mov	 eax, DWORD PTR fs:0
  00010	50		 push	 eax
  00011	56		 push	 esi
  00012	a1 00 00 00 00	 mov	 eax, DWORD PTR ___security_cookie
  00017	33 c5		 xor	 eax, ebp
  00019	50		 push	 eax
  0001a	8d 45 f4	 lea	 eax, DWORD PTR __$EHRec$[ebp]
  0001d	64 a3 00 00 00
	00		 mov	 DWORD PTR fs:0, eax
  00023	8b f1		 mov	 esi, ecx
  00025	c7 06 00 00 00
	00		 mov	 DWORD PTR [esi], OFFSET ??_7CGraphicShadowTexture@@6B@

; 192  : 	Destroy();

  0002b	e8 00 00 00 00	 call	 ?Destroy@CGraphicShadowTexture@@QAEXXZ ; CGraphicShadowTexture::Destroy

; 193  : }

  00030	8b ce		 mov	 ecx, esi
  00032	e8 00 00 00 00	 call	 ??1CGraphicTexture@@MAE@XZ ; CGraphicTexture::~CGraphicTexture
  00037	8b 4d f4	 mov	 ecx, DWORD PTR __$EHRec$[ebp]
  0003a	64 89 0d 00 00
	00 00		 mov	 DWORD PTR fs:0, ecx
  00041	59		 pop	 ecx
  00042	5e		 pop	 esi
  00043	8b e5		 mov	 esp, ebp
  00045	5d		 pop	 ebp
  00046	c3		 ret	 0
  00047	cc		 int	 3
  00048	cc		 int	 3
  00049	cc		 int	 3
  0004a	cc		 int	 3
  0004b	cc		 int	 3
_TEXT	ENDS
;	COMDAT text$x
text$x	SEGMENT
__ehhandler$??1CGraphicShadowTexture@@UAE@XZ:
  00000	90		 npad	 1
  00001	90		 npad	 1
  00002	8b 54 24 08	 mov	 edx, DWORD PTR [esp+8]
  00006	8d 42 0c	 lea	 eax, DWORD PTR [edx+12]
  00009	8b 4a f8	 mov	 ecx, DWORD PTR [edx-8]
  0000c	33 c8		 xor	 ecx, eax
  0000e	e8 00 00 00 00	 call	 @__security_check_cookie@4
  00013	b8 00 00 00 00	 mov	 eax, OFFSET __ehfuncinfo$??1CGraphicShadowTexture@@UAE@XZ
  00018	e9 00 00 00 00	 jmp	 ___CxxFrameHandler3
text$x	ENDS
??1CGraphicShadowTexture@@UAE@XZ ENDP			; CGraphicShadowTexture::~CGraphicShadowTexture
; Function compile flags: /Ogtp
; File C:\Users\flourine\Desktop\Xantios\client-src\Code\EterLib\GrpShadowTexture.cpp
;	COMDAT ??0CGraphicShadowTexture@@QAE@XZ
_TEXT	SEGMENT
_this$ = -16						; size = 4
__$EHRec$ = -12						; size = 12
??0CGraphicShadowTexture@@QAE@XZ PROC			; CGraphicShadowTexture::CGraphicShadowTexture, COMDAT
; _this$ = ecx

; 186  : {

  00000	55		 push	 ebp
  00001	8b ec		 mov	 ebp, esp
  00003	6a ff		 push	 -1
  00005	68 00 00 00 00	 push	 __ehhandler$??0CGraphicShadowTexture@@QAE@XZ
  0000a	64 a1 00 00 00
	00		 mov	 eax, DWORD PTR fs:0
  00010	50		 push	 eax
  00011	51		 push	 ecx
  00012	56		 push	 esi
  00013	a1 00 00 00 00	 mov	 eax, DWORD PTR ___security_cookie
  00018	33 c5		 xor	 eax, ebp
  0001a	50		 push	 eax
  0001b	8d 45 f4	 lea	 eax, DWORD PTR __$EHRec$[ebp]
  0001e	64 a3 00 00 00
	00		 mov	 DWORD PTR fs:0, eax
  00024	8b f1		 mov	 esi, ecx
  00026	89 75 f0	 mov	 DWORD PTR _this$[ebp], esi
  00029	e8 00 00 00 00	 call	 ??0CGraphicTexture@@IAE@XZ ; CGraphicTexture::CGraphicTexture

; 187  : 	Initialize();

  0002e	8b ce		 mov	 ecx, esi
  00030	c7 45 fc 00 00
	00 00		 mov	 DWORD PTR __$EHRec$[ebp+8], 0
  00037	c7 06 00 00 00
	00		 mov	 DWORD PTR [esi], OFFSET ??_7CGraphicShadowTexture@@6B@
  0003d	e8 00 00 00 00	 call	 ?Initialize@CGraphicShadowTexture@@IAEXXZ ; CGraphicShadowTexture::Initialize

; 188  : }

  00042	8b c6		 mov	 eax, esi
  00044	8b 4d f4	 mov	 ecx, DWORD PTR __$EHRec$[ebp]
  00047	64 89 0d 00 00
	00 00		 mov	 DWORD PTR fs:0, ecx
  0004e	59		 pop	 ecx
  0004f	5e		 pop	 esi
  00050	8b e5		 mov	 esp, ebp
  00052	5d		 pop	 ebp
  00053	c3		 ret	 0
_TEXT	ENDS
;	COMDAT text$x
text$x	SEGMENT
__unwindfunclet$??0CGraphicShadowTexture@@QAE@XZ$0:
  00000	8b 4d f0	 mov	 ecx, DWORD PTR _this$[ebp]
  00003	e9 00 00 00 00	 jmp	 ??1CGraphicTexture@@MAE@XZ ; CGraphicTexture::~CGraphicTexture
  00008	cc		 int	 3
  00009	cc		 int	 3
  0000a	cc		 int	 3
  0000b	cc		 int	 3
  0000c	cc		 int	 3
__ehhandler$??0CGraphicShadowTexture@@QAE@XZ:
  0000d	90		 npad	 1
  0000e	90		 npad	 1
  0000f	8b 54 24 08	 mov	 edx, DWORD PTR [esp+8]
  00013	8d 42 0c	 lea	 eax, DWORD PTR [edx+12]
  00016	8b 4a f4	 mov	 ecx, DWORD PTR [edx-12]
  00019	33 c8		 xor	 ecx, eax
  0001b	e8 00 00 00 00	 call	 @__security_check_cookie@4
  00020	b8 00 00 00 00	 mov	 eax, OFFSET __ehfuncinfo$??0CGraphicShadowTexture@@QAE@XZ
  00025	e9 00 00 00 00	 jmp	 ___CxxFrameHandler3
text$x	ENDS
??0CGraphicShadowTexture@@QAE@XZ ENDP			; CGraphicShadowTexture::CGraphicShadowTexture
; Function compile flags: /Ogtp
; File C:\Users\flourine\Desktop\Xantios\client-src\extern\include\directX\d3dx9math.h
;	COMDAT ??0D3DXMATRIX@@QAE@XZ
_TEXT	SEGMENT
??0D3DXMATRIX@@QAE@XZ PROC				; D3DXMATRIX::D3DXMATRIX, COMDAT
; _this$ = ecx

; 315  :     D3DXMATRIX() {};

  00000	8b c1		 mov	 eax, ecx
  00002	c3		 ret	 0
??0D3DXMATRIX@@QAE@XZ ENDP				; D3DXMATRIX::D3DXMATRIX
_TEXT	ENDS
; Function compile flags: /Ogtp
;	COMDAT ??_H@YGXPAXIIP6EPAX0@Z@Z
_TEXT	SEGMENT
___t$ = 8						; size = 4
___s$ = 12						; size = 4
___n$ = 16						; size = 4
___f$ = 20						; size = 4
??_H@YGXPAXIIP6EPAX0@Z@Z PROC				; `vector constructor iterator', COMDAT
  00000	55		 push	 ebp
  00001	8b ec		 mov	 ebp, esp
  00003	56		 push	 esi
  00004	8b 75 10	 mov	 esi, DWORD PTR ___n$[ebp]
  00007	85 f6		 test	 esi, esi
  00009	74 16		 je	 SHORT $LN6@vector
  0000b	53		 push	 ebx
  0000c	8b 5d 14	 mov	 ebx, DWORD PTR ___f$[ebp]
  0000f	57		 push	 edi
  00010	8b 7d 08	 mov	 edi, DWORD PTR ___t$[ebp]
$LL2@vector:
  00013	8b cf		 mov	 ecx, edi
  00015	ff d3		 call	 ebx
  00017	03 7d 0c	 add	 edi, DWORD PTR ___s$[ebp]
  0001a	83 ee 01	 sub	 esi, 1
  0001d	75 f4		 jne	 SHORT $LL2@vector
  0001f	5f		 pop	 edi
  00020	5b		 pop	 ebx
$LN6@vector:
  00021	5e		 pop	 esi
  00022	5d		 pop	 ebp
  00023	c2 10 00	 ret	 16			; 00000010H
??_H@YGXPAXIIP6EPAX0@Z@Z ENDP				; `vector constructor iterator'
_TEXT	ENDS
END
