; Listing generated by Microsoft (R) Optimizing Compiler Version 19.34.31942.0 

	TITLE	C:\Users\flourine\Desktop\Xantios\client-src\Code\EterLib\Distribute\GrpWikiRenderTargetTexture.obj
	.686P
	.XMM
	include listing.inc
	.model	flat

INCLUDELIB LIBCMT
INCLUDELIB OLDNAMES

PUBLIC	??_H@YGXPAXIIP6EPAX0@Z@Z			; `vector constructor iterator'
PUBLIC	??0SPDTVertex@@QAE@XZ				; SPDTVertex::SPDTVertex
PUBLIC	??0CGraphicWikiRenderTargetTexture@@QAE@XZ	; CGraphicWikiRenderTargetTexture::CGraphicWikiRenderTargetTexture
PUBLIC	??1CGraphicWikiRenderTargetTexture@@UAE@XZ	; CGraphicWikiRenderTargetTexture::~CGraphicWikiRenderTargetTexture
PUBLIC	?Create@CGraphicWikiRenderTargetTexture@@QAE_NHHW4_D3DFORMAT@@0@Z ; CGraphicWikiRenderTargetTexture::Create
PUBLIC	?CreateTextures@CGraphicWikiRenderTargetTexture@@QAEXXZ ; CGraphicWikiRenderTargetTexture::CreateTextures
PUBLIC	?CreateRenderTexture@CGraphicWikiRenderTargetTexture@@QAE_NHHW4_D3DFORMAT@@@Z ; CGraphicWikiRenderTargetTexture::CreateRenderTexture
PUBLIC	?ReleaseTextures@CGraphicWikiRenderTargetTexture@@QAEXXZ ; CGraphicWikiRenderTargetTexture::ReleaseTextures
PUBLIC	?GetD3DRenderTargetTexture@CGraphicWikiRenderTargetTexture@@QBEPAUIDirect3DTexture9@@XZ ; CGraphicWikiRenderTargetTexture::GetD3DRenderTargetTexture
PUBLIC	?CreateRenderDepthStencil@CGraphicWikiRenderTargetTexture@@QAE_NHHW4_D3DFORMAT@@@Z ; CGraphicWikiRenderTargetTexture::CreateRenderDepthStencil
PUBLIC	?SetRenderTarget@CGraphicWikiRenderTargetTexture@@QAEXXZ ; CGraphicWikiRenderTargetTexture::SetRenderTarget
PUBLIC	?ResetRenderTarget@CGraphicWikiRenderTargetTexture@@QAEXXZ ; CGraphicWikiRenderTargetTexture::ResetRenderTarget
PUBLIC	?SetRenderingRect@CGraphicWikiRenderTargetTexture@@QAEXPAUtagRECT@@@Z ; CGraphicWikiRenderTargetTexture::SetRenderingRect
PUBLIC	?GetRenderingRect@CGraphicWikiRenderTargetTexture@@QAEPAUtagRECT@@XZ ; CGraphicWikiRenderTargetTexture::GetRenderingRect
PUBLIC	?SetRenderingBox@CGraphicWikiRenderTargetTexture@@QAEXPAUtagRECT@@@Z ; CGraphicWikiRenderTargetTexture::SetRenderingBox
PUBLIC	?GetRenderingBox@CGraphicWikiRenderTargetTexture@@QAEPAUtagRECT@@XZ ; CGraphicWikiRenderTargetTexture::GetRenderingBox
PUBLIC	?Clear@CGraphicWikiRenderTargetTexture@@SAXXZ	; CGraphicWikiRenderTargetTexture::Clear
PUBLIC	?Render@CGraphicWikiRenderTargetTexture@@QBEXXZ	; CGraphicWikiRenderTargetTexture::Render
PUBLIC	?Reset@CGraphicWikiRenderTargetTexture@@IAEXXZ	; CGraphicWikiRenderTargetTexture::Reset
PUBLIC	??_GCGraphicWikiRenderTargetTexture@@UAEPAXI@Z	; CGraphicWikiRenderTargetTexture::`scalar deleting destructor'
PUBLIC	?ms_singleton@?$CSingleton@VCStateManager@@@@0PAVCStateManager@@A ; CSingleton<CStateManager>::ms_singleton
PUBLIC	??_7CGraphicWikiRenderTargetTexture@@6B@	; CGraphicWikiRenderTargetTexture::`vftable'
PUBLIC	??_R4CGraphicWikiRenderTargetTexture@@6B@	; CGraphicWikiRenderTargetTexture::`RTTI Complete Object Locator'
PUBLIC	??_R0?AVCGraphicWikiRenderTargetTexture@@@8	; CGraphicWikiRenderTargetTexture `RTTI Type Descriptor'
PUBLIC	??_R3CGraphicWikiRenderTargetTexture@@8		; CGraphicWikiRenderTargetTexture::`RTTI Class Hierarchy Descriptor'
PUBLIC	??_R2CGraphicWikiRenderTargetTexture@@8		; CGraphicWikiRenderTargetTexture::`RTTI Base Class Array'
PUBLIC	??_R1A@?0A@EA@CGraphicWikiRenderTargetTexture@@8 ; CGraphicWikiRenderTargetTexture::`RTTI Base Class Descriptor at (0,-1,0,64)'
PUBLIC	??_R1A@?0A@EA@CGraphicTexture@@8		; CGraphicTexture::`RTTI Base Class Descriptor at (0,-1,0,64)'
PUBLIC	??_R0?AVCGraphicTexture@@@8			; CGraphicTexture `RTTI Type Descriptor'
PUBLIC	??_R3CGraphicTexture@@8				; CGraphicTexture::`RTTI Class Hierarchy Descriptor'
PUBLIC	??_R2CGraphicTexture@@8				; CGraphicTexture::`RTTI Base Class Array'
PUBLIC	??_R1A@?0A@EA@CGraphicBase@@8			; CGraphicBase::`RTTI Base Class Descriptor at (0,-1,0,64)'
PUBLIC	??_R0?AVCGraphicBase@@@8			; CGraphicBase `RTTI Type Descriptor'
PUBLIC	??_R3CGraphicBase@@8				; CGraphicBase::`RTTI Class Hierarchy Descriptor'
PUBLIC	??_R2CGraphicBase@@8				; CGraphicBase::`RTTI Base Class Array'
PUBLIC	__real@3f000000
PUBLIC	__real@3f800000
EXTRN	??3@YAXPAXI@Z:PROC				; operator delete
EXTRN	?SetTexture@CStateManager@@QAEXKPAUIDirect3DBaseTexture9@@@Z:PROC ; CStateManager::SetTexture
EXTRN	?SetFVF@CStateManager@@QAEXK@Z:PROC		; CStateManager::SetFVF
EXTRN	?DrawIndexedPrimitive@CStateManager@@QAEJW4_D3DPRIMITIVETYPE@@IIIIH@Z:PROC ; CStateManager::DrawIndexedPrimitive
EXTRN	?SetDefaultIndexBuffer@CGraphicBase@@SAXI@Z:PROC ; CGraphicBase::SetDefaultIndexBuffer
EXTRN	?SetPDTStream@CGraphicBase@@SA_NPAUSPDTVertex@@I@Z:PROC ; CGraphicBase::SetPDTStream
EXTRN	?IsEmpty@CGraphicTexture@@UBE_NXZ:PROC		; CGraphicTexture::IsEmpty
EXTRN	??0CGraphicTexture@@IAE@XZ:PROC			; CGraphicTexture::CGraphicTexture
EXTRN	??1CGraphicTexture@@MAE@XZ:PROC			; CGraphicTexture::~CGraphicTexture
EXTRN	?Destroy@CGraphicTexture@@IAEXXZ:PROC		; CGraphicTexture::Destroy
EXTRN	?Initialize@CGraphicTexture@@IAEXXZ:PROC	; CGraphicTexture::Initialize
EXTRN	??_ECGraphicWikiRenderTargetTexture@@UAEPAXI@Z:PROC ; CGraphicWikiRenderTargetTexture::`vector deleting destructor'
EXTRN	@__security_check_cookie@4:PROC
EXTRN	___CxxFrameHandler3:PROC
EXTRN	??_7type_info@@6B@:QWORD			; type_info::`vftable'
EXTRN	?ms_lpd3dDevice@CGraphicBase@@1PAUIDirect3DDevice9@@A:DWORD ; CGraphicBase::ms_lpd3dDevice
EXTRN	___security_cookie:DWORD
EXTRN	__fltused:DWORD
;	COMDAT ?ms_singleton@?$CSingleton@VCStateManager@@@@0PAVCStateManager@@A
_BSS	SEGMENT
?ms_singleton@?$CSingleton@VCStateManager@@@@0PAVCStateManager@@A DD 01H DUP (?) ; CSingleton<CStateManager>::ms_singleton
_BSS	ENDS
;	COMDAT __real@3f800000
CONST	SEGMENT
__real@3f800000 DD 03f800000r			; 1
CONST	ENDS
;	COMDAT __real@3f000000
CONST	SEGMENT
__real@3f000000 DD 03f000000r			; 0.5
CONST	ENDS
;	COMDAT ??_R2CGraphicBase@@8
rdata$r	SEGMENT
??_R2CGraphicBase@@8 DD FLAT:??_R1A@?0A@EA@CGraphicBase@@8 ; CGraphicBase::`RTTI Base Class Array'
rdata$r	ENDS
;	COMDAT ??_R3CGraphicBase@@8
rdata$r	SEGMENT
??_R3CGraphicBase@@8 DD 00H				; CGraphicBase::`RTTI Class Hierarchy Descriptor'
	DD	00H
	DD	01H
	DD	FLAT:??_R2CGraphicBase@@8
rdata$r	ENDS
;	COMDAT ??_R0?AVCGraphicBase@@@8
data$rs	SEGMENT
??_R0?AVCGraphicBase@@@8 DD FLAT:??_7type_info@@6B@	; CGraphicBase `RTTI Type Descriptor'
	DD	00H
	DB	'.?AVCGraphicBase@@', 00H
data$rs	ENDS
;	COMDAT ??_R1A@?0A@EA@CGraphicBase@@8
rdata$r	SEGMENT
??_R1A@?0A@EA@CGraphicBase@@8 DD FLAT:??_R0?AVCGraphicBase@@@8 ; CGraphicBase::`RTTI Base Class Descriptor at (0,-1,0,64)'
	DD	00H
	DD	00H
	DD	0ffffffffH
	DD	00H
	DD	040H
	DD	FLAT:??_R3CGraphicBase@@8
rdata$r	ENDS
;	COMDAT ??_R2CGraphicTexture@@8
rdata$r	SEGMENT
??_R2CGraphicTexture@@8 DD FLAT:??_R1A@?0A@EA@CGraphicTexture@@8 ; CGraphicTexture::`RTTI Base Class Array'
	DD	FLAT:??_R1A@?0A@EA@CGraphicBase@@8
rdata$r	ENDS
;	COMDAT ??_R3CGraphicTexture@@8
rdata$r	SEGMENT
??_R3CGraphicTexture@@8 DD 00H				; CGraphicTexture::`RTTI Class Hierarchy Descriptor'
	DD	00H
	DD	02H
	DD	FLAT:??_R2CGraphicTexture@@8
rdata$r	ENDS
;	COMDAT ??_R0?AVCGraphicTexture@@@8
data$rs	SEGMENT
??_R0?AVCGraphicTexture@@@8 DD FLAT:??_7type_info@@6B@	; CGraphicTexture `RTTI Type Descriptor'
	DD	00H
	DB	'.?AVCGraphicTexture@@', 00H
data$rs	ENDS
;	COMDAT ??_R1A@?0A@EA@CGraphicTexture@@8
rdata$r	SEGMENT
??_R1A@?0A@EA@CGraphicTexture@@8 DD FLAT:??_R0?AVCGraphicTexture@@@8 ; CGraphicTexture::`RTTI Base Class Descriptor at (0,-1,0,64)'
	DD	01H
	DD	00H
	DD	0ffffffffH
	DD	00H
	DD	040H
	DD	FLAT:??_R3CGraphicTexture@@8
rdata$r	ENDS
;	COMDAT ??_R1A@?0A@EA@CGraphicWikiRenderTargetTexture@@8
rdata$r	SEGMENT
??_R1A@?0A@EA@CGraphicWikiRenderTargetTexture@@8 DD FLAT:??_R0?AVCGraphicWikiRenderTargetTexture@@@8 ; CGraphicWikiRenderTargetTexture::`RTTI Base Class Descriptor at (0,-1,0,64)'
	DD	02H
	DD	00H
	DD	0ffffffffH
	DD	00H
	DD	040H
	DD	FLAT:??_R3CGraphicWikiRenderTargetTexture@@8
rdata$r	ENDS
;	COMDAT ??_R2CGraphicWikiRenderTargetTexture@@8
rdata$r	SEGMENT
??_R2CGraphicWikiRenderTargetTexture@@8 DD FLAT:??_R1A@?0A@EA@CGraphicWikiRenderTargetTexture@@8 ; CGraphicWikiRenderTargetTexture::`RTTI Base Class Array'
	DD	FLAT:??_R1A@?0A@EA@CGraphicTexture@@8
	DD	FLAT:??_R1A@?0A@EA@CGraphicBase@@8
rdata$r	ENDS
;	COMDAT ??_R3CGraphicWikiRenderTargetTexture@@8
rdata$r	SEGMENT
??_R3CGraphicWikiRenderTargetTexture@@8 DD 00H		; CGraphicWikiRenderTargetTexture::`RTTI Class Hierarchy Descriptor'
	DD	00H
	DD	03H
	DD	FLAT:??_R2CGraphicWikiRenderTargetTexture@@8
rdata$r	ENDS
;	COMDAT ??_R0?AVCGraphicWikiRenderTargetTexture@@@8
data$rs	SEGMENT
??_R0?AVCGraphicWikiRenderTargetTexture@@@8 DD FLAT:??_7type_info@@6B@ ; CGraphicWikiRenderTargetTexture `RTTI Type Descriptor'
	DD	00H
	DB	'.?AVCGraphicWikiRenderTargetTexture@@', 00H
data$rs	ENDS
;	COMDAT ??_R4CGraphicWikiRenderTargetTexture@@6B@
rdata$r	SEGMENT
??_R4CGraphicWikiRenderTargetTexture@@6B@ DD 00H	; CGraphicWikiRenderTargetTexture::`RTTI Complete Object Locator'
	DD	00H
	DD	00H
	DD	FLAT:??_R0?AVCGraphicWikiRenderTargetTexture@@@8
	DD	FLAT:??_R3CGraphicWikiRenderTargetTexture@@8
rdata$r	ENDS
;	COMDAT ??_7CGraphicWikiRenderTargetTexture@@6B@
CONST	SEGMENT
??_7CGraphicWikiRenderTargetTexture@@6B@ DD FLAT:??_R4CGraphicWikiRenderTargetTexture@@6B@ ; CGraphicWikiRenderTargetTexture::`vftable'
	DD	FLAT:??_ECGraphicWikiRenderTargetTexture@@UAEPAXI@Z
	DD	FLAT:?IsEmpty@CGraphicTexture@@UBE_NXZ
CONST	ENDS
;	COMDAT xdata$x
xdata$x	SEGMENT
__ehfuncinfo$??1CGraphicWikiRenderTargetTexture@@UAE@XZ DD 019930522H
	DD	00H
	DD	00H
	DD	2 DUP(00H)
	DD	2 DUP(00H)
	DD	00H
	DD	05H
xdata$x	ENDS
;	COMDAT xdata$x
xdata$x	SEGMENT
__unwindtable$??0CGraphicWikiRenderTargetTexture@@QAE@XZ DD 0ffffffffH
	DD	FLAT:__unwindfunclet$??0CGraphicWikiRenderTargetTexture@@QAE@XZ$0
__ehfuncinfo$??0CGraphicWikiRenderTargetTexture@@QAE@XZ DD 019930522H
	DD	01H
	DD	FLAT:__unwindtable$??0CGraphicWikiRenderTargetTexture@@QAE@XZ
	DD	2 DUP(00H)
	DD	2 DUP(00H)
	DD	00H
	DD	01H
xdata$x	ENDS
; Function compile flags: /Ogtp
;	COMDAT ??_GCGraphicWikiRenderTargetTexture@@UAEPAXI@Z
_TEXT	SEGMENT
___flags$ = 8						; size = 4
??_GCGraphicWikiRenderTargetTexture@@UAEPAXI@Z PROC	; CGraphicWikiRenderTargetTexture::`scalar deleting destructor', COMDAT
; _this$ = ecx
  00000	55		 push	 ebp
  00001	8b ec		 mov	 ebp, esp
  00003	56		 push	 esi
  00004	8b f1		 mov	 esi, ecx
  00006	e8 00 00 00 00	 call	 ??1CGraphicWikiRenderTargetTexture@@UAE@XZ ; CGraphicWikiRenderTargetTexture::~CGraphicWikiRenderTargetTexture
  0000b	f6 45 08 01	 test	 BYTE PTR ___flags$[ebp], 1
  0000f	74 0b		 je	 SHORT $LN4@scalar
  00011	6a 50		 push	 80			; 00000050H
  00013	56		 push	 esi
  00014	e8 00 00 00 00	 call	 ??3@YAXPAXI@Z		; operator delete
  00019	83 c4 08	 add	 esp, 8
$LN4@scalar:
  0001c	8b c6		 mov	 eax, esi
  0001e	5e		 pop	 esi
  0001f	5d		 pop	 ebp
  00020	c2 04 00	 ret	 4
??_GCGraphicWikiRenderTargetTexture@@UAEPAXI@Z ENDP	; CGraphicWikiRenderTargetTexture::`scalar deleting destructor'
_TEXT	ENDS
; Function compile flags: /Ogtp
; File C:\Users\flourine\Desktop\Xantios\client-src\Code\EterLib\GrpWikiRenderTargetTexture.cpp
;	COMDAT ?Reset@CGraphicWikiRenderTargetTexture@@IAEXXZ
_TEXT	SEGMENT
?Reset@CGraphicWikiRenderTargetTexture@@IAEXXZ PROC	; CGraphicWikiRenderTargetTexture::Reset, COMDAT
; _this$ = ecx

; 187  : {

  00000	56		 push	 esi
  00001	8b f1		 mov	 esi, ecx

; 188  : 	Destroy();

  00003	e8 00 00 00 00	 call	 ?Destroy@CGraphicTexture@@IAEXXZ ; CGraphicTexture::Destroy

; 189  : 	ReleaseTextures();

  00008	8b ce		 mov	 ecx, esi
  0000a	e8 00 00 00 00	 call	 ?ReleaseTextures@CGraphicWikiRenderTargetTexture@@QAEXXZ ; CGraphicWikiRenderTargetTexture::ReleaseTextures

; 190  : 
; 191  : 	m_d3dFormat = D3DFMT_UNKNOWN;

  0000f	c7 46 28 00 00
	00 00		 mov	 DWORD PTR [esi+40], 0

; 192  : 	m_depthStencilFormat = D3DFMT_UNKNOWN;

  00016	c7 46 2c 00 00
	00 00		 mov	 DWORD PTR [esi+44], 0
  0001d	5e		 pop	 esi

; 193  : }

  0001e	c3		 ret	 0
?Reset@CGraphicWikiRenderTargetTexture@@IAEXXZ ENDP	; CGraphicWikiRenderTargetTexture::Reset
_TEXT	ENDS
; Function compile flags: /Ogtp
; File C:\Users\flourine\Desktop\Xantios\client-src\Code\EterLib\GrpWikiRenderTargetTexture.cpp
; File C:\Users\flourine\Desktop\Xantios\client-src\extern\include\directX\d3dx9math.inl
; File C:\Users\flourine\Desktop\Xantios\client-src\Code\EterLib\GrpWikiRenderTargetTexture.cpp
; File C:\Users\flourine\Desktop\Xantios\client-src\extern\include\directX\d3dx9math.inl
; File C:\Users\flourine\Desktop\Xantios\client-src\Code\EterLib\GrpWikiRenderTargetTexture.cpp
; File C:\Users\flourine\Desktop\Xantios\client-src\extern\include\directX\d3dx9math.inl
; File C:\Users\flourine\Desktop\Xantios\client-src\Code\EterLib\GrpWikiRenderTargetTexture.cpp
; File C:\Users\flourine\Desktop\Xantios\client-src\extern\include\directX\d3dx9math.inl
; File C:\Users\flourine\Desktop\Xantios\client-src\Code\EterLib\GrpWikiRenderTargetTexture.cpp
;	COMDAT ?Render@CGraphicWikiRenderTargetTexture@@QBEXXZ
_TEXT	SEGMENT
tv637 = -160						; size = 16
tv638 = -144						; size = 16
tv634 = -128						; size = 4
$T5 = -124						; size = 12
$T6 = -124						; size = 12
$T7 = -124						; size = 12
$T8 = -124						; size = 12
_su$1$ = -112						; size = 4
_this$GSCopy$1$ = -108					; size = 4
_pVertices$ = -104					; size = 96
__$ArrayPad$ = -4					; size = 4
?Render@CGraphicWikiRenderTargetTexture@@QBEXXZ PROC	; CGraphicWikiRenderTargetTexture::Render, COMDAT
; _this$ = ecx

; 140  : {

  00000	53		 push	 ebx
  00001	8b dc		 mov	 ebx, esp
  00003	83 ec 08	 sub	 esp, 8
  00006	83 e4 f0	 and	 esp, -16		; fffffff0H
  00009	83 c4 04	 add	 esp, 4
  0000c	55		 push	 ebp
  0000d	8b 6b 04	 mov	 ebp, DWORD PTR [ebx+4]
  00010	89 6c 24 04	 mov	 DWORD PTR [esp+4], ebp
  00014	8b ec		 mov	 ebp, esp
  00016	81 ec a8 00 00
	00		 sub	 esp, 168		; 000000a8H
  0001c	a1 00 00 00 00	 mov	 eax, DWORD PTR ___security_cookie
  00021	33 c5		 xor	 eax, ebp
  00023	89 45 fc	 mov	 DWORD PTR __$ArrayPad$[ebp], eax

; 141  : 	const float sx = static_cast<float>(m_renderRect.left) - 0.5f + static_cast<float>(m_renderBox.left);

  00026	f3 0f 10 25 00
	00 00 00	 movss	 xmm4, DWORD PTR __real@3f000000
  0002e	8b c1		 mov	 eax, ecx
  00030	56		 push	 esi
  00031	57		 push	 edi
  00032	89 45 94	 mov	 DWORD PTR _this$GSCopy$1$[ebp], eax
  00035	66 0f 6e 40 30	 movd	 xmm0, DWORD PTR [eax+48]
  0003a	66 0f 6e 50 40	 movd	 xmm2, DWORD PTR [eax+64]

; 142  : 	const float sy = static_cast<float>(m_renderRect.top) - 0.5f + static_cast<float>(m_renderBox.top);
; 143  : 	const float ex = static_cast<float>(m_renderRect.left) + (static_cast<float>(m_renderRect.right) - static_cast<float>(m_renderRect.left)) - 0.5f - static_cast<float>(m_renderBox.right);

  0003f	8b 70 38	 mov	 esi, DWORD PTR [eax+56]
  00042	0f 5b c0	 cvtdq2ps xmm0, xmm0
  00045	8b 48 48	 mov	 ecx, DWORD PTR [eax+72]
  00048	8b 78 34	 mov	 edi, DWORD PTR [eax+52]

; 144  : 	const float ey = static_cast<float>(m_renderRect.top) + (static_cast<float>(m_renderRect.bottom) - static_cast<float>(m_renderRect.top)) - 0.5f - static_cast<float>(m_renderBox.bottom);

  0004b	8b 50 3c	 mov	 edx, DWORD PTR [eax+60]
  0004e	89 7d 80	 mov	 DWORD PTR tv634[ebp], edi
  00051	0f 5b d2	 cvtdq2ps xmm2, xmm2
; File C:\Users\flourine\Desktop\Xantios\client-src\extern\include\directX\d3dx9math.inl

; 306  :     z = fz;

  00054	c7 45 8c 00 00
	00 00		 mov	 DWORD PTR $T8[ebp+8], 0
; File C:\Users\flourine\Desktop\Xantios\client-src\Code\EterLib\GrpWikiRenderTargetTexture.cpp

; 157  : 	pVertices[0].diffuse = 0xffffffff;

  0005b	c7 45 a4 ff ff
	ff ff		 mov	 DWORD PTR _pVertices$[ebp+12], -1
  00062	0f 28 c8	 movaps	 xmm1, xmm0
  00065	66 0f 6e 70 44	 movd	 xmm6, DWORD PTR [eax+68]
  0006a	f3 0f 5c cc	 subss	 xmm1, xmm4
  0006e	8b 40 4c	 mov	 eax, DWORD PTR [eax+76]
  00071	66 0f 6e df	 movd	 xmm3, edi
  00075	0f 5b db	 cvtdq2ps xmm3, xmm3
  00078	8b 7d 94	 mov	 edi, DWORD PTR _this$GSCopy$1$[ebp]
  0007b	f3 0f 58 ca	 addss	 xmm1, xmm2
  0007f	66 0f 6e d6	 movd	 xmm2, esi
  00083	0f 5b d2	 cvtdq2ps xmm2, xmm2
  00086	2b f1		 sub	 esi, ecx
  00088	0f 28 eb	 movaps	 xmm5, xmm3
  0008b	f3 0f 5c d0	 subss	 xmm2, xmm0
  0008f	0f 11 8d 70 ff
	ff ff		 movups	 XMMWORD PTR tv638[ebp], xmm1
  00096	0f 5b f6	 cvtdq2ps xmm6, xmm6
  00099	0f 28 ca	 movaps	 xmm1, xmm2
  0009c	f3 0f 5c ec	 subss	 xmm5, xmm4
  000a0	f3 0f 58 c8	 addss	 xmm1, xmm0
  000a4	66 0f 6e c1	 movd	 xmm0, ecx
  000a8	0f 5b c0	 cvtdq2ps xmm0, xmm0
  000ab	8b cf		 mov	 ecx, edi
  000ad	f3 0f 5c cc	 subss	 xmm1, xmm4
  000b1	2b 71 30	 sub	 esi, DWORD PTR [ecx+48]
  000b4	f3 0f 58 ee	 addss	 xmm5, xmm6
  000b8	f3 0f 5c c8	 subss	 xmm1, xmm0
  000bc	66 0f 6e c0	 movd	 xmm0, eax
  000c0	0f 5b c0	 cvtdq2ps xmm0, xmm0
  000c3	0f 29 8d 60 ff
	ff ff		 movaps	 XMMWORD PTR tv637[ebp], xmm1
  000ca	66 0f 6e ca	 movd	 xmm1, edx
  000ce	2b d0		 sub	 edx, eax
  000d0	0f 5b c9	 cvtdq2ps xmm1, xmm1
  000d3	2b 55 80	 sub	 edx, DWORD PTR tv634[ebp]
  000d6	8b 45 8c	 mov	 eax, DWORD PTR $T8[ebp+8]
  000d9	89 45 a0	 mov	 DWORD PTR _pVertices$[ebp+8], eax
; File C:\Users\flourine\Desktop\Xantios\client-src\extern\include\directX\d3dx9math.inl

; 306  :     z = fz;

  000dc	c7 45 8c 00 00
	00 00		 mov	 DWORD PTR $T7[ebp+8], 0
; File C:\Users\flourine\Desktop\Xantios\client-src\Code\EterLib\GrpWikiRenderTargetTexture.cpp

; 144  : 	const float ey = static_cast<float>(m_renderRect.top) + (static_cast<float>(m_renderRect.bottom) - static_cast<float>(m_renderRect.top)) - 0.5f - static_cast<float>(m_renderBox.bottom);

  000e3	f3 0f 5c cb	 subss	 xmm1, xmm3
  000e7	0f 28 f9	 movaps	 xmm7, xmm1
  000ea	f3 0f 58 fb	 addss	 xmm7, xmm3

; 145  : 
; 146  : 	const float texReverseWidth = 1.0f / (static_cast<float>(m_renderRect.right) - static_cast<float>(m_renderRect.left));

  000ee	f3 0f 10 1d 00
	00 00 00	 movss	 xmm3, DWORD PTR __real@3f800000
  000f6	f3 0f 5c fc	 subss	 xmm7, xmm4

; 147  : 	const float texReverseHeight = 1.0f / (static_cast<float>(m_renderRect.bottom) - static_cast<float>(m_renderRect.top));
; 148  : 
; 149  : 	const float su = m_renderBox.left * texReverseWidth;
; 150  : 	const float sv = m_renderBox.top * texReverseHeight;
; 151  : 	const float eu = ((m_renderRect.right - m_renderRect.left) - m_renderBox.right) * texReverseWidth;
; 152  : 	const float ev = ((m_renderRect.bottom - m_renderRect.top) - m_renderBox.bottom) * texReverseHeight;
; 153  : 
; 154  : 	TPDTVertex pVertices[4];
; 155  : 	pVertices[0].position = TPosition(sx, sy, 0.0f);

  000fa	0f 10 a5 70 ff
	ff ff		 movups	 xmm4, XMMWORD PTR tv638[ebp]
  00101	f3 0f 5c f8	 subss	 xmm7, xmm0
  00105	0f 28 c3	 movaps	 xmm0, xmm3
  00108	f3 0f 5e c2	 divss	 xmm0, xmm2
  0010c	f3 0f 5e d9	 divss	 xmm3, xmm1
  00110	66 0f 6e 4f 40	 movd	 xmm1, DWORD PTR [edi+64]
  00115	0f 5b c9	 cvtdq2ps xmm1, xmm1
  00118	66 0f 6e d6	 movd	 xmm2, esi
  0011c	f3 0f 59 c8	 mulss	 xmm1, xmm0
  00120	0f 5b d2	 cvtdq2ps xmm2, xmm2
  00123	f3 0f 11 4d 90	 movss	 DWORD PTR _su$1$[ebp], xmm1
  00128	f3 0f 59 d0	 mulss	 xmm2, xmm0
  0012c	0f 28 c4	 movaps	 xmm0, xmm4
  0012f	66 0f 6e ca	 movd	 xmm1, edx
  00133	0f 5b c9	 cvtdq2ps xmm1, xmm1
  00136	0f 14 c5	 unpcklps xmm0, xmm5
  00139	66 0f d6 45 98	 movq	 QWORD PTR _pVertices$[ebp], xmm0

; 156  : 	pVertices[0].texCoord = TTextureCoordinate(su, sv);

  0013e	f3 0f 10 45 90	 movss	 xmm0, DWORD PTR _su$1$[ebp]
  00143	f3 0f 59 f3	 mulss	 xmm6, xmm3
  00147	f3 0f 59 cb	 mulss	 xmm1, xmm3

; 158  : 
; 159  : 	pVertices[1].position = TPosition(ex, sy, 0.0f);

  0014b	0f 28 9d 60 ff
	ff ff		 movaps	 xmm3, XMMWORD PTR tv637[ebp]
  00152	f3 0f 11 45 a8	 movss	 DWORD PTR _pVertices$[ebp+16], xmm0
  00157	0f 28 c3	 movaps	 xmm0, xmm3
  0015a	f3 0f 11 75 ac	 movss	 DWORD PTR _pVertices$[ebp+20], xmm6
  0015f	0f 14 c5	 unpcklps xmm0, xmm5
  00162	8b 45 8c	 mov	 eax, DWORD PTR $T7[ebp+8]
  00165	89 45 b8	 mov	 DWORD PTR _pVertices$[ebp+32], eax
; File C:\Users\flourine\Desktop\Xantios\client-src\extern\include\directX\d3dx9math.inl

; 306  :     z = fz;

  00168	c7 45 8c 00 00
	00 00		 mov	 DWORD PTR $T6[ebp+8], 0
; File C:\Users\flourine\Desktop\Xantios\client-src\Code\EterLib\GrpWikiRenderTargetTexture.cpp

; 163  : 	pVertices[2].position = TPosition(sx, ey, 0.0f);

  0016f	8b 45 8c	 mov	 eax, DWORD PTR $T6[ebp+8]
  00172	89 45 d0	 mov	 DWORD PTR _pVertices$[ebp+56], eax
; File C:\Users\flourine\Desktop\Xantios\client-src\extern\include\directX\d3dx9math.inl

; 306  :     z = fz;

  00175	c7 45 8c 00 00
	00 00		 mov	 DWORD PTR $T5[ebp+8], 0
; File C:\Users\flourine\Desktop\Xantios\client-src\Code\EterLib\GrpWikiRenderTargetTexture.cpp

; 167  : 	pVertices[3].position = TPosition(ex, ey, 0.0f);

  0017c	8b 45 8c	 mov	 eax, DWORD PTR $T5[ebp+8]
  0017f	89 45 e8	 mov	 DWORD PTR _pVertices$[ebp+80], eax

; 168  : 	pVertices[3].texCoord = TTextureCoordinate(eu, ev);
; 169  : 	pVertices[3].diffuse = 0xffffffff;
; 170  : 
; 171  : 	if (SetPDTStream(pVertices, 4))

  00182	8d 45 98	 lea	 eax, DWORD PTR _pVertices$[ebp]
  00185	66 0f d6 45 b0	 movq	 QWORD PTR _pVertices$[ebp+24], xmm0
  0018a	f3 0f 10 45 90	 movss	 xmm0, DWORD PTR _su$1$[ebp]
  0018f	0f 14 e7	 unpcklps xmm4, xmm7
  00192	0f 14 df	 unpcklps xmm3, xmm7
  00195	6a 04		 push	 4
  00197	50		 push	 eax
  00198	f3 0f 11 55 c0	 movss	 DWORD PTR _pVertices$[ebp+40], xmm2
  0019d	f3 0f 11 75 c4	 movss	 DWORD PTR _pVertices$[ebp+44], xmm6
  001a2	c7 45 bc ff ff
	ff ff		 mov	 DWORD PTR _pVertices$[ebp+36], -1
  001a9	66 0f d6 65 c8	 movq	 QWORD PTR _pVertices$[ebp+48], xmm4
  001ae	f3 0f 11 45 d8	 movss	 DWORD PTR _pVertices$[ebp+64], xmm0
  001b3	f3 0f 11 4d dc	 movss	 DWORD PTR _pVertices$[ebp+68], xmm1
  001b8	c7 45 d4 ff ff
	ff ff		 mov	 DWORD PTR _pVertices$[ebp+60], -1
  001bf	66 0f d6 5d e0	 movq	 QWORD PTR _pVertices$[ebp+72], xmm3
  001c4	f3 0f 11 55 f0	 movss	 DWORD PTR _pVertices$[ebp+88], xmm2
  001c9	f3 0f 11 4d f4	 movss	 DWORD PTR _pVertices$[ebp+92], xmm1
  001ce	c7 45 ec ff ff
	ff ff		 mov	 DWORD PTR _pVertices$[ebp+84], -1
  001d5	e8 00 00 00 00	 call	 ?SetPDTStream@CGraphicBase@@SA_NPAUSPDTVertex@@I@Z ; CGraphicBase::SetPDTStream
  001da	83 c4 08	 add	 esp, 8
  001dd	84 c0		 test	 al, al
  001df	74 55		 je	 SHORT $LN2@Render

; 172  : 	{
; 173  : 		CGraphicBase::SetDefaultIndexBuffer(CGraphicBase::DEFAULT_IB_FILL_RECT);

  001e1	6a 05		 push	 5
  001e3	e8 00 00 00 00	 call	 ?SetDefaultIndexBuffer@CGraphicBase@@SAXI@Z ; CGraphicBase::SetDefaultIndexBuffer
  001e8	83 c4 04	 add	 esp, 4

; 174  : 
; 175  : 		STATEMANAGER.SetTexture(0, GetD3DRenderTargetTexture());

  001eb	8b cf		 mov	 ecx, edi
  001ed	e8 00 00 00 00	 call	 ?GetD3DRenderTargetTexture@CGraphicWikiRenderTargetTexture@@QBEPAUIDirect3DTexture9@@XZ ; CGraphicWikiRenderTargetTexture::GetD3DRenderTargetTexture
  001f2	8b 0d 00 00 00
	00		 mov	 ecx, DWORD PTR ?ms_singleton@?$CSingleton@VCStateManager@@@@0PAVCStateManager@@A ; CSingleton<CStateManager>::ms_singleton
  001f8	50		 push	 eax
  001f9	6a 00		 push	 0
  001fb	e8 00 00 00 00	 call	 ?SetTexture@CStateManager@@QAEXKPAUIDirect3DBaseTexture9@@@Z ; CStateManager::SetTexture

; 176  : 		STATEMANAGER.SetTexture(1, NULL);

  00200	8b 0d 00 00 00
	00		 mov	 ecx, DWORD PTR ?ms_singleton@?$CSingleton@VCStateManager@@@@0PAVCStateManager@@A ; CSingleton<CStateManager>::ms_singleton
  00206	6a 00		 push	 0
  00208	6a 01		 push	 1
  0020a	e8 00 00 00 00	 call	 ?SetTexture@CStateManager@@QAEXKPAUIDirect3DBaseTexture9@@@Z ; CStateManager::SetTexture

; 177  : 		STATEMANAGER.SetFVF(D3DFVF_XYZ | D3DFVF_TEX1 | D3DFVF_DIFFUSE);

  0020f	8b 0d 00 00 00
	00		 mov	 ecx, DWORD PTR ?ms_singleton@?$CSingleton@VCStateManager@@@@0PAVCStateManager@@A ; CSingleton<CStateManager>::ms_singleton
  00215	68 42 01 00 00	 push	 322			; 00000142H
  0021a	e8 00 00 00 00	 call	 ?SetFVF@CStateManager@@QAEXK@Z ; CStateManager::SetFVF

; 178  : 		STATEMANAGER.DrawIndexedPrimitive(D3DPT_TRIANGLELIST, 0, 4, 0, 2);

  0021f	8b 0d 00 00 00
	00		 mov	 ecx, DWORD PTR ?ms_singleton@?$CSingleton@VCStateManager@@@@0PAVCStateManager@@A ; CSingleton<CStateManager>::ms_singleton
  00225	6a 00		 push	 0
  00227	6a 02		 push	 2
  00229	6a 00		 push	 0
  0022b	6a 04		 push	 4
  0022d	6a 00		 push	 0
  0022f	6a 04		 push	 4
  00231	e8 00 00 00 00	 call	 ?DrawIndexedPrimitive@CStateManager@@QAEJW4_D3DPRIMITIVETYPE@@IIIIH@Z ; CStateManager::DrawIndexedPrimitive
$LN2@Render:

; 179  : 	}
; 180  : }

  00236	8b 4d fc	 mov	 ecx, DWORD PTR __$ArrayPad$[ebp]
  00239	5f		 pop	 edi
  0023a	33 cd		 xor	 ecx, ebp
  0023c	5e		 pop	 esi
  0023d	e8 00 00 00 00	 call	 @__security_check_cookie@4
  00242	8b e5		 mov	 esp, ebp
  00244	5d		 pop	 ebp
  00245	8b e3		 mov	 esp, ebx
  00247	5b		 pop	 ebx
  00248	c3		 ret	 0
?Render@CGraphicWikiRenderTargetTexture@@QBEXXZ ENDP	; CGraphicWikiRenderTargetTexture::Render
_TEXT	ENDS
; Function compile flags: /Ogtp
; File C:\Users\flourine\Desktop\Xantios\client-src\Code\EterLib\GrpWikiRenderTargetTexture.cpp
;	COMDAT ?Clear@CGraphicWikiRenderTargetTexture@@SAXXZ
_TEXT	SEGMENT
?Clear@CGraphicWikiRenderTargetTexture@@SAXXZ PROC	; CGraphicWikiRenderTargetTexture::Clear, COMDAT

; 136  : 	ms_lpd3dDevice->Clear(0, nullptr, D3DCLEAR_TARGET | D3DCLEAR_ZBUFFER, D3DCOLOR_ARGB(0, 0, 0, 0), 1.0f, 0);

  00000	a1 00 00 00 00	 mov	 eax, DWORD PTR ?ms_lpd3dDevice@CGraphicBase@@1PAUIDirect3DDevice9@@A ; CGraphicBase::ms_lpd3dDevice
  00005	6a 00		 push	 0
  00007	8b 08		 mov	 ecx, DWORD PTR [eax]
  00009	51		 push	 ecx
  0000a	c7 04 24 00 00
	80 3f		 mov	 DWORD PTR [esp], 1065353216 ; 3f800000H
  00011	6a 00		 push	 0
  00013	6a 03		 push	 3
  00015	6a 00		 push	 0
  00017	6a 00		 push	 0
  00019	50		 push	 eax
  0001a	ff 91 ac 00 00
	00		 call	 DWORD PTR [ecx+172]

; 137  : }

  00020	c3		 ret	 0
?Clear@CGraphicWikiRenderTargetTexture@@SAXXZ ENDP	; CGraphicWikiRenderTargetTexture::Clear
_TEXT	ENDS
; Function compile flags: /Ogtp
; File C:\Users\flourine\Desktop\Xantios\client-src\Code\EterLib\GrpWikiRenderTargetTexture.cpp
;	COMDAT ?GetRenderingBox@CGraphicWikiRenderTargetTexture@@QAEPAUtagRECT@@XZ
_TEXT	SEGMENT
?GetRenderingBox@CGraphicWikiRenderTargetTexture@@QAEPAUtagRECT@@XZ PROC ; CGraphicWikiRenderTargetTexture::GetRenderingBox, COMDAT
; _this$ = ecx

; 131  : 	return &m_renderBox;

  00000	8d 41 40	 lea	 eax, DWORD PTR [ecx+64]

; 132  : }

  00003	c3		 ret	 0
?GetRenderingBox@CGraphicWikiRenderTargetTexture@@QAEPAUtagRECT@@XZ ENDP ; CGraphicWikiRenderTargetTexture::GetRenderingBox
_TEXT	ENDS
; Function compile flags: /Ogtp
; File C:\Users\flourine\Desktop\Xantios\client-src\Code\EterLib\GrpWikiRenderTargetTexture.cpp
;	COMDAT ?SetRenderingBox@CGraphicWikiRenderTargetTexture@@QAEXPAUtagRECT@@@Z
_TEXT	SEGMENT
_renderBox$ = 8						; size = 4
?SetRenderingBox@CGraphicWikiRenderTargetTexture@@QAEXPAUtagRECT@@@Z PROC ; CGraphicWikiRenderTargetTexture::SetRenderingBox, COMDAT
; _this$ = ecx

; 125  : {

  00000	55		 push	 ebp
  00001	8b ec		 mov	 ebp, esp

; 126  : 	m_renderBox = *renderBox;

  00003	8b 45 08	 mov	 eax, DWORD PTR _renderBox$[ebp]
  00006	0f 10 00	 movups	 xmm0, XMMWORD PTR [eax]
  00009	0f 11 41 40	 movups	 XMMWORD PTR [ecx+64], xmm0

; 127  : }

  0000d	5d		 pop	 ebp
  0000e	c2 04 00	 ret	 4
?SetRenderingBox@CGraphicWikiRenderTargetTexture@@QAEXPAUtagRECT@@@Z ENDP ; CGraphicWikiRenderTargetTexture::SetRenderingBox
_TEXT	ENDS
; Function compile flags: /Ogtp
; File C:\Users\flourine\Desktop\Xantios\client-src\Code\EterLib\GrpWikiRenderTargetTexture.cpp
;	COMDAT ?GetRenderingRect@CGraphicWikiRenderTargetTexture@@QAEPAUtagRECT@@XZ
_TEXT	SEGMENT
?GetRenderingRect@CGraphicWikiRenderTargetTexture@@QAEPAUtagRECT@@XZ PROC ; CGraphicWikiRenderTargetTexture::GetRenderingRect, COMDAT
; _this$ = ecx

; 121  : 	return &m_renderRect;

  00000	8d 41 30	 lea	 eax, DWORD PTR [ecx+48]

; 122  : }

  00003	c3		 ret	 0
?GetRenderingRect@CGraphicWikiRenderTargetTexture@@QAEPAUtagRECT@@XZ ENDP ; CGraphicWikiRenderTargetTexture::GetRenderingRect
_TEXT	ENDS
; Function compile flags: /Ogtp
; File C:\Users\flourine\Desktop\Xantios\client-src\Code\EterLib\GrpWikiRenderTargetTexture.cpp
;	COMDAT ?SetRenderingRect@CGraphicWikiRenderTargetTexture@@QAEXPAUtagRECT@@@Z
_TEXT	SEGMENT
_rect$ = 8						; size = 4
?SetRenderingRect@CGraphicWikiRenderTargetTexture@@QAEXPAUtagRECT@@@Z PROC ; CGraphicWikiRenderTargetTexture::SetRenderingRect, COMDAT
; _this$ = ecx

; 115  : {

  00000	55		 push	 ebp
  00001	8b ec		 mov	 ebp, esp

; 116  : 	m_renderRect = *rect;

  00003	8b 45 08	 mov	 eax, DWORD PTR _rect$[ebp]
  00006	0f 10 00	 movups	 xmm0, XMMWORD PTR [eax]
  00009	0f 11 41 30	 movups	 XMMWORD PTR [ecx+48], xmm0

; 117  : }

  0000d	5d		 pop	 ebp
  0000e	c2 04 00	 ret	 4
?SetRenderingRect@CGraphicWikiRenderTargetTexture@@QAEXPAUtagRECT@@@Z ENDP ; CGraphicWikiRenderTargetTexture::SetRenderingRect
_TEXT	ENDS
; Function compile flags: /Ogtp
; File C:\Users\flourine\Desktop\Xantios\client-src\Code\EterLib\GrpWikiRenderTargetTexture.cpp
; File C:\Users\flourine\Desktop\Xantios\client-src\Code\EterBase\Stl.h
; File C:\Users\flourine\Desktop\Xantios\client-src\Code\EterLib\GrpWikiRenderTargetTexture.cpp
;	COMDAT ?ResetRenderTarget@CGraphicWikiRenderTargetTexture@@QAEXXZ
_TEXT	SEGMENT
?ResetRenderTarget@CGraphicWikiRenderTargetTexture@@QAEXXZ PROC ; CGraphicWikiRenderTargetTexture::ResetRenderTarget, COMDAT
; _this$ = ecx

; 106  : 	ms_lpd3dDevice->SetRenderTarget(0, m_lpd3dOriginalRenderTarget);

  00000	a1 00 00 00 00	 mov	 eax, DWORD PTR ?ms_lpd3dDevice@CGraphicBase@@1PAUIDirect3DDevice9@@A ; CGraphicBase::ms_lpd3dDevice
  00005	56		 push	 esi
  00006	8b f1		 mov	 esi, ecx
  00008	8b 10		 mov	 edx, DWORD PTR [eax]
  0000a	ff 76 20	 push	 DWORD PTR [esi+32]
  0000d	6a 00		 push	 0
  0000f	50		 push	 eax
  00010	ff 92 94 00 00
	00		 call	 DWORD PTR [edx+148]

; 107  : 	ms_lpd3dDevice->SetDepthStencilSurface(m_lpd3dOldDepthBufferSurface);

  00016	a1 00 00 00 00	 mov	 eax, DWORD PTR ?ms_lpd3dDevice@CGraphicBase@@1PAUIDirect3DDevice9@@A ; CGraphicBase::ms_lpd3dDevice
  0001b	ff 76 24	 push	 DWORD PTR [esi+36]
  0001e	50		 push	 eax
  0001f	8b 08		 mov	 ecx, DWORD PTR [eax]
  00021	ff 91 9c 00 00
	00		 call	 DWORD PTR [ecx+156]
; File C:\Users\flourine\Desktop\Xantios\client-src\Code\EterBase\Stl.h

; 86   : 	if (!rpObject)

  00027	8b 4e 20	 mov	 ecx, DWORD PTR [esi+32]
  0002a	85 c9		 test	 ecx, ecx
  0002c	74 0d		 je	 SHORT $LN3@ResetRende

; 87   : 		return;
; 88   : 
; 89   : 	rpObject->Release();

  0002e	8b 01		 mov	 eax, DWORD PTR [ecx]
  00030	51		 push	 ecx
  00031	ff 50 08	 call	 DWORD PTR [eax+8]

; 90   : 	rpObject = NULL;

  00034	c7 46 20 00 00
	00 00		 mov	 DWORD PTR [esi+32], 0
$LN3@ResetRende:

; 86   : 	if (!rpObject)

  0003b	8b 4e 24	 mov	 ecx, DWORD PTR [esi+36]
  0003e	85 c9		 test	 ecx, ecx
  00040	74 0d		 je	 SHORT $LN6@ResetRende

; 87   : 		return;
; 88   : 
; 89   : 	rpObject->Release();

  00042	8b 01		 mov	 eax, DWORD PTR [ecx]
  00044	51		 push	 ecx
  00045	ff 50 08	 call	 DWORD PTR [eax+8]

; 90   : 	rpObject = NULL;

  00048	c7 46 24 00 00
	00 00		 mov	 DWORD PTR [esi+36], 0
$LN6@ResetRende:
  0004f	5e		 pop	 esi
; File C:\Users\flourine\Desktop\Xantios\client-src\Code\EterLib\GrpWikiRenderTargetTexture.cpp

; 112  : }

  00050	c3		 ret	 0
?ResetRenderTarget@CGraphicWikiRenderTargetTexture@@QAEXXZ ENDP ; CGraphicWikiRenderTargetTexture::ResetRenderTarget
_TEXT	ENDS
; Function compile flags: /Ogtp
; File C:\Users\flourine\Desktop\Xantios\client-src\Code\EterLib\GrpWikiRenderTargetTexture.cpp
;	COMDAT ?SetRenderTarget@CGraphicWikiRenderTargetTexture@@QAEXXZ
_TEXT	SEGMENT
?SetRenderTarget@CGraphicWikiRenderTargetTexture@@QAEXXZ PROC ; CGraphicWikiRenderTargetTexture::SetRenderTarget, COMDAT
; _this$ = ecx

; 96   : 	ms_lpd3dDevice->GetRenderTarget(0, &m_lpd3dOriginalRenderTarget);

  00000	8b 15 00 00 00
	00		 mov	 edx, DWORD PTR ?ms_lpd3dDevice@CGraphicBase@@1PAUIDirect3DDevice9@@A ; CGraphicBase::ms_lpd3dDevice
  00006	56		 push	 esi
  00007	57		 push	 edi
  00008	8b f9		 mov	 edi, ecx
  0000a	8b 32		 mov	 esi, DWORD PTR [edx]
  0000c	8d 47 20	 lea	 eax, DWORD PTR [edi+32]
  0000f	50		 push	 eax
  00010	6a 00		 push	 0
  00012	52		 push	 edx
  00013	ff 96 98 00 00
	00		 call	 DWORD PTR [esi+152]

; 97   : 	ms_lpd3dDevice->GetDepthStencilSurface(&m_lpd3dOldDepthBufferSurface);

  00019	8b 0d 00 00 00
	00		 mov	 ecx, DWORD PTR ?ms_lpd3dDevice@CGraphicBase@@1PAUIDirect3DDevice9@@A ; CGraphicBase::ms_lpd3dDevice
  0001f	8d 47 24	 lea	 eax, DWORD PTR [edi+36]
  00022	50		 push	 eax
  00023	51		 push	 ecx
  00024	8b 11		 mov	 edx, DWORD PTR [ecx]
  00026	ff 92 a0 00 00
	00		 call	 DWORD PTR [edx+160]

; 98   : 
; 99   : 	ms_lpd3dDevice->SetRenderTarget(0, m_lpd3dRenderTargetSurface);

  0002c	a1 00 00 00 00	 mov	 eax, DWORD PTR ?ms_lpd3dDevice@CGraphicBase@@1PAUIDirect3DDevice9@@A ; CGraphicBase::ms_lpd3dDevice
  00031	ff 77 18	 push	 DWORD PTR [edi+24]
  00034	6a 00		 push	 0
  00036	8b 08		 mov	 ecx, DWORD PTR [eax]
  00038	50		 push	 eax
  00039	ff 91 94 00 00
	00		 call	 DWORD PTR [ecx+148]

; 100  : 	ms_lpd3dDevice->SetDepthStencilSurface(m_lpd3dDepthSurface);

  0003f	a1 00 00 00 00	 mov	 eax, DWORD PTR ?ms_lpd3dDevice@CGraphicBase@@1PAUIDirect3DDevice9@@A ; CGraphicBase::ms_lpd3dDevice
  00044	ff 77 1c	 push	 DWORD PTR [edi+28]
  00047	50		 push	 eax
  00048	8b 08		 mov	 ecx, DWORD PTR [eax]
  0004a	ff 91 9c 00 00
	00		 call	 DWORD PTR [ecx+156]
  00050	5f		 pop	 edi
  00051	5e		 pop	 esi

; 101  : 
; 102  : }

  00052	c3		 ret	 0
?SetRenderTarget@CGraphicWikiRenderTargetTexture@@QAEXXZ ENDP ; CGraphicWikiRenderTargetTexture::SetRenderTarget
_TEXT	ENDS
; Function compile flags: /Ogtp
; File C:\Users\flourine\Desktop\Xantios\client-src\Code\EterLib\GrpWikiRenderTargetTexture.cpp
;	COMDAT ?CreateRenderDepthStencil@CGraphicWikiRenderTargetTexture@@QAE_NHHW4_D3DFORMAT@@@Z
_TEXT	SEGMENT
_width$ = 8						; size = 4
_height$ = 12						; size = 4
_format$ = 16						; size = 4
?CreateRenderDepthStencil@CGraphicWikiRenderTargetTexture@@QAE_NHHW4_D3DFORMAT@@@Z PROC ; CGraphicWikiRenderTargetTexture::CreateRenderDepthStencil, COMDAT
; _this$ = ecx

; 88   : {

  00000	55		 push	 ebp
  00001	8b ec		 mov	 ebp, esp

; 89   : 	m_depthStencilFormat = format;

  00003	8b 55 10	 mov	 edx, DWORD PTR _format$[ebp]
  00006	56		 push	 esi
  00007	57		 push	 edi
  00008	89 51 2c	 mov	 DWORD PTR [ecx+44], edx

; 90   : 
; 91   : 	return (ms_lpd3dDevice->CreateDepthStencilSurface(width, height, m_depthStencilFormat, D3DMULTISAMPLE_NONE, 0, false, &m_lpd3dDepthSurface, nullptr)) == D3D_OK;

  0000b	8b 3d 00 00 00
	00		 mov	 edi, DWORD PTR ?ms_lpd3dDevice@CGraphicBase@@1PAUIDirect3DDevice9@@A ; CGraphicBase::ms_lpd3dDevice
  00011	6a 00		 push	 0
  00013	8b 07		 mov	 eax, DWORD PTR [edi]
  00015	8b 70 74	 mov	 esi, DWORD PTR [eax+116]
  00018	8d 41 1c	 lea	 eax, DWORD PTR [ecx+28]
  0001b	50		 push	 eax
  0001c	6a 00		 push	 0
  0001e	6a 00		 push	 0
  00020	6a 00		 push	 0
  00022	52		 push	 edx
  00023	ff 75 0c	 push	 DWORD PTR _height$[ebp]
  00026	ff 75 08	 push	 DWORD PTR _width$[ebp]
  00029	57		 push	 edi
  0002a	ff d6		 call	 esi
  0002c	85 c0		 test	 eax, eax
  0002e	5f		 pop	 edi
  0002f	0f 94 c0	 sete	 al
  00032	5e		 pop	 esi

; 92   : }

  00033	5d		 pop	 ebp
  00034	c2 0c 00	 ret	 12			; 0000000cH
?CreateRenderDepthStencil@CGraphicWikiRenderTargetTexture@@QAE_NHHW4_D3DFORMAT@@@Z ENDP ; CGraphicWikiRenderTargetTexture::CreateRenderDepthStencil
_TEXT	ENDS
; Function compile flags: /Ogtp
; File C:\Users\flourine\Desktop\Xantios\client-src\Code\EterLib\GrpWikiRenderTargetTexture.cpp
;	COMDAT ?GetD3DRenderTargetTexture@CGraphicWikiRenderTargetTexture@@QBEPAUIDirect3DTexture9@@XZ
_TEXT	SEGMENT
?GetD3DRenderTargetTexture@CGraphicWikiRenderTargetTexture@@QBEPAUIDirect3DTexture9@@XZ PROC ; CGraphicWikiRenderTargetTexture::GetD3DRenderTargetTexture, COMDAT
; _this$ = ecx

; 84   : 	return m_lpd3dRenderTexture;

  00000	8b 41 14	 mov	 eax, DWORD PTR [ecx+20]

; 85   : }

  00003	c3		 ret	 0
?GetD3DRenderTargetTexture@CGraphicWikiRenderTargetTexture@@QBEPAUIDirect3DTexture9@@XZ ENDP ; CGraphicWikiRenderTargetTexture::GetD3DRenderTargetTexture
_TEXT	ENDS
; Function compile flags: /Ogtp
; File C:\Users\flourine\Desktop\Xantios\client-src\Code\EterLib\GrpWikiRenderTargetTexture.cpp
;	COMDAT ?ReleaseTextures@CGraphicWikiRenderTargetTexture@@QAEXXZ
_TEXT	SEGMENT
?ReleaseTextures@CGraphicWikiRenderTargetTexture@@QAEXXZ PROC ; CGraphicWikiRenderTargetTexture::ReleaseTextures, COMDAT
; _this$ = ecx

; 70   : {

  00000	56		 push	 esi
  00001	8b f1		 mov	 esi, ecx

; 71   : 	SAFE_RELEASE(m_lpd3dRenderTexture);

  00003	8b 4e 14	 mov	 ecx, DWORD PTR [esi+20]
  00006	85 c9		 test	 ecx, ecx
  00008	74 0d		 je	 SHORT $LN2@ReleaseTex
  0000a	8b 01		 mov	 eax, DWORD PTR [ecx]
  0000c	51		 push	 ecx
  0000d	ff 50 08	 call	 DWORD PTR [eax+8]
  00010	c7 46 14 00 00
	00 00		 mov	 DWORD PTR [esi+20], 0
$LN2@ReleaseTex:

; 72   : 	SAFE_RELEASE(m_lpd3dRenderTargetSurface);

  00017	8b 4e 18	 mov	 ecx, DWORD PTR [esi+24]
  0001a	85 c9		 test	 ecx, ecx
  0001c	74 0d		 je	 SHORT $LN3@ReleaseTex
  0001e	8b 01		 mov	 eax, DWORD PTR [ecx]
  00020	51		 push	 ecx
  00021	ff 50 08	 call	 DWORD PTR [eax+8]
  00024	c7 46 18 00 00
	00 00		 mov	 DWORD PTR [esi+24], 0
$LN3@ReleaseTex:

; 73   : 	SAFE_RELEASE(m_lpd3dDepthSurface);

  0002b	8b 4e 1c	 mov	 ecx, DWORD PTR [esi+28]
  0002e	85 c9		 test	 ecx, ecx
  00030	74 0d		 je	 SHORT $LN5@ReleaseTex
  00032	8b 01		 mov	 eax, DWORD PTR [ecx]
  00034	51		 push	 ecx
  00035	ff 50 08	 call	 DWORD PTR [eax+8]
  00038	c7 46 1c 00 00
	00 00		 mov	 DWORD PTR [esi+28], 0
$LN5@ReleaseTex:

; 74   : 	SAFE_RELEASE(m_lpd3dDepthSurface);
; 75   : 	SAFE_RELEASE(m_lpd3dOriginalRenderTarget);

  0003f	8b 4e 20	 mov	 ecx, DWORD PTR [esi+32]
  00042	85 c9		 test	 ecx, ecx
  00044	74 0d		 je	 SHORT $LN6@ReleaseTex
  00046	8b 01		 mov	 eax, DWORD PTR [ecx]
  00048	51		 push	 ecx
  00049	ff 50 08	 call	 DWORD PTR [eax+8]
  0004c	c7 46 20 00 00
	00 00		 mov	 DWORD PTR [esi+32], 0
$LN6@ReleaseTex:

; 76   : 	SAFE_RELEASE(m_lpd3dOldDepthBufferSurface);

  00053	8b 4e 24	 mov	 ecx, DWORD PTR [esi+36]
  00056	85 c9		 test	 ecx, ecx
  00058	74 0d		 je	 SHORT $LN7@ReleaseTex
  0005a	8b 01		 mov	 eax, DWORD PTR [ecx]
  0005c	51		 push	 ecx
  0005d	ff 50 08	 call	 DWORD PTR [eax+8]
  00060	c7 46 24 00 00
	00 00		 mov	 DWORD PTR [esi+36], 0
$LN7@ReleaseTex:

; 77   : 
; 78   : 	memset(&m_renderRect, 0, sizeof(m_renderRect));
; 79   : 	memset(&m_renderBox, 0, sizeof(m_renderBox));

  00067	0f 57 c0	 xorps	 xmm0, xmm0
  0006a	0f 11 46 30	 movups	 XMMWORD PTR [esi+48], xmm0
  0006e	0f 11 46 40	 movups	 XMMWORD PTR [esi+64], xmm0
  00072	5e		 pop	 esi

; 80   : }

  00073	c3		 ret	 0
?ReleaseTextures@CGraphicWikiRenderTargetTexture@@QAEXXZ ENDP ; CGraphicWikiRenderTargetTexture::ReleaseTextures
_TEXT	ENDS
; Function compile flags: /Ogtp
; File C:\Users\flourine\Desktop\Xantios\client-src\Code\EterLib\GrpWikiRenderTargetTexture.cpp
;	COMDAT ?CreateRenderTexture@CGraphicWikiRenderTargetTexture@@QAE_NHHW4_D3DFORMAT@@@Z
_TEXT	SEGMENT
_width$ = 8						; size = 4
_height$ = 12						; size = 4
_format$ = 16						; size = 4
?CreateRenderTexture@CGraphicWikiRenderTargetTexture@@QAE_NHHW4_D3DFORMAT@@@Z PROC ; CGraphicWikiRenderTargetTexture::CreateRenderTexture, COMDAT
; _this$ = ecx

; 53   : {

  00000	55		 push	 ebp
  00001	8b ec		 mov	 ebp, esp

; 54   : 	m_d3dFormat = format;

  00003	8b 55 10	 mov	 edx, DWORD PTR _format$[ebp]
  00006	53		 push	 ebx
  00007	56		 push	 esi
  00008	57		 push	 edi

; 55   : 
; 56   : 	if (FAILED(ms_lpd3dDevice->CreateTexture(width, height, 1, D3DUSAGE_RENDERTARGET, m_d3dFormat, D3DPOOL_DEFAULT, &m_lpd3dRenderTexture, NULL)))

  00009	6a 00		 push	 0
  0000b	8b f9		 mov	 edi, ecx
  0000d	8d 5f 14	 lea	 ebx, DWORD PTR [edi+20]
  00010	89 57 28	 mov	 DWORD PTR [edi+40], edx
  00013	8b 35 00 00 00
	00		 mov	 esi, DWORD PTR ?ms_lpd3dDevice@CGraphicBase@@1PAUIDirect3DDevice9@@A ; CGraphicBase::ms_lpd3dDevice
  00019	53		 push	 ebx
  0001a	6a 00		 push	 0
  0001c	52		 push	 edx
  0001d	8b 06		 mov	 eax, DWORD PTR [esi]
  0001f	6a 01		 push	 1
  00021	6a 01		 push	 1
  00023	ff 75 0c	 push	 DWORD PTR _height$[ebp]
  00026	ff 75 08	 push	 DWORD PTR _width$[ebp]
  00029	56		 push	 esi
  0002a	ff 50 5c	 call	 DWORD PTR [eax+92]
  0002d	85 c0		 test	 eax, eax
  0002f	78 1c		 js	 SHORT $LN5@CreateRend

; 57   : 	{
; 58   : 		return false;
; 59   : 	}
; 60   : 
; 61   : 	if (FAILED(m_lpd3dRenderTexture->GetSurfaceLevel(0, &m_lpd3dRenderTargetSurface)))

  00031	8b 13		 mov	 edx, DWORD PTR [ebx]
  00033	8b 02		 mov	 eax, DWORD PTR [edx]
  00035	8b 48 48	 mov	 ecx, DWORD PTR [eax+72]
  00038	8d 47 18	 lea	 eax, DWORD PTR [edi+24]
  0003b	50		 push	 eax
  0003c	6a 00		 push	 0
  0003e	52		 push	 edx
  0003f	ff d1		 call	 ecx
  00041	5f		 pop	 edi
  00042	85 c0		 test	 eax, eax

; 62   : 	{
; 63   : 		return false;
; 64   : 	}
; 65   : 
; 66   : 	return true;
; 67   : }

  00044	5e		 pop	 esi
  00045	0f 99 c0	 setns	 al
  00048	5b		 pop	 ebx
  00049	5d		 pop	 ebp
  0004a	c2 0c 00	 ret	 12			; 0000000cH
$LN5@CreateRend:
  0004d	5f		 pop	 edi
  0004e	5e		 pop	 esi
  0004f	32 c0		 xor	 al, al
  00051	5b		 pop	 ebx
  00052	5d		 pop	 ebp
  00053	c2 0c 00	 ret	 12			; 0000000cH
?CreateRenderTexture@CGraphicWikiRenderTargetTexture@@QAE_NHHW4_D3DFORMAT@@@Z ENDP ; CGraphicWikiRenderTargetTexture::CreateRenderTexture
_TEXT	ENDS
; Function compile flags: /Ogtp
; File C:\Users\flourine\Desktop\Xantios\client-src\Code\EterLib\GrpWikiRenderTargetTexture.cpp
;	COMDAT ?CreateTextures@CGraphicWikiRenderTargetTexture@@QAEXXZ
_TEXT	SEGMENT
?CreateTextures@CGraphicWikiRenderTargetTexture@@QAEXXZ PROC ; CGraphicWikiRenderTargetTexture::CreateTextures, COMDAT
; _this$ = ecx

; 45   : {

  00000	56		 push	 esi
  00001	8b f1		 mov	 esi, ecx

; 46   : 	if (CreateRenderTexture(m_width, m_height, m_d3dFormat))

  00003	ff 76 28	 push	 DWORD PTR [esi+40]
  00006	ff 76 0c	 push	 DWORD PTR [esi+12]
  00009	ff 76 08	 push	 DWORD PTR [esi+8]
  0000c	e8 00 00 00 00	 call	 ?CreateRenderTexture@CGraphicWikiRenderTargetTexture@@QAE_NHHW4_D3DFORMAT@@@Z ; CGraphicWikiRenderTargetTexture::CreateRenderTexture
  00011	84 c0		 test	 al, al
  00013	74 10		 je	 SHORT $LN2@CreateText

; 47   : 	{
; 48   : 		CreateRenderDepthStencil(m_width, m_height, m_depthStencilFormat);

  00015	ff 76 2c	 push	 DWORD PTR [esi+44]
  00018	8b ce		 mov	 ecx, esi
  0001a	ff 76 0c	 push	 DWORD PTR [esi+12]
  0001d	ff 76 08	 push	 DWORD PTR [esi+8]
  00020	e8 00 00 00 00	 call	 ?CreateRenderDepthStencil@CGraphicWikiRenderTargetTexture@@QAE_NHHW4_D3DFORMAT@@@Z ; CGraphicWikiRenderTargetTexture::CreateRenderDepthStencil
$LN2@CreateText:

; 49   : 	}
; 50   : }

  00025	5e		 pop	 esi
  00026	c3		 ret	 0
?CreateTextures@CGraphicWikiRenderTargetTexture@@QAEXXZ ENDP ; CGraphicWikiRenderTargetTexture::CreateTextures
_TEXT	ENDS
; Function compile flags: /Ogtp
; File C:\Users\flourine\Desktop\Xantios\client-src\Code\EterLib\GrpWikiRenderTargetTexture.cpp
;	COMDAT ?Create@CGraphicWikiRenderTargetTexture@@QAE_NHHW4_D3DFORMAT@@0@Z
_TEXT	SEGMENT
_width$ = 8						; size = 4
_height$ = 12						; size = 4
_texFormat$ = 16					; size = 4
_depthFormat$ = 20					; size = 4
?Create@CGraphicWikiRenderTargetTexture@@QAE_NHHW4_D3DFORMAT@@0@Z PROC ; CGraphicWikiRenderTargetTexture::Create, COMDAT
; _this$ = ecx

; 25   : {

  00000	55		 push	 ebp
  00001	8b ec		 mov	 ebp, esp
  00003	53		 push	 ebx
  00004	56		 push	 esi
  00005	57		 push	 edi
  00006	8b f1		 mov	 esi, ecx

; 26   : 	Reset();

  00008	e8 00 00 00 00	 call	 ?Reset@CGraphicWikiRenderTargetTexture@@IAEXXZ ; CGraphicWikiRenderTargetTexture::Reset

; 27   : 
; 28   : 	m_height = height;
; 29   : 	m_width = width;
; 30   : 
; 31   : 	if (!CreateRenderTexture(width, height, texFormat))

  0000d	ff 75 10	 push	 DWORD PTR _texFormat$[ebp]
  00010	8b 7d 0c	 mov	 edi, DWORD PTR _height$[ebp]
  00013	8b ce		 mov	 ecx, esi
  00015	8b 5d 08	 mov	 ebx, DWORD PTR _width$[ebp]
  00018	57		 push	 edi
  00019	53		 push	 ebx
  0001a	89 7e 0c	 mov	 DWORD PTR [esi+12], edi
  0001d	89 5e 08	 mov	 DWORD PTR [esi+8], ebx
  00020	e8 00 00 00 00	 call	 ?CreateRenderTexture@CGraphicWikiRenderTargetTexture@@QAE_NHHW4_D3DFORMAT@@@Z ; CGraphicWikiRenderTargetTexture::CreateRenderTexture
  00025	84 c0		 test	 al, al
  00027	74 18		 je	 SHORT $LN5@Create

; 32   : 	{
; 33   : 		return false;
; 34   : 	}
; 35   : 
; 36   : 	if (!CreateRenderDepthStencil(width, height, depthFormat))

  00029	ff 75 14	 push	 DWORD PTR _depthFormat$[ebp]
  0002c	8b ce		 mov	 ecx, esi
  0002e	57		 push	 edi
  0002f	53		 push	 ebx
  00030	e8 00 00 00 00	 call	 ?CreateRenderDepthStencil@CGraphicWikiRenderTargetTexture@@QAE_NHHW4_D3DFORMAT@@@Z ; CGraphicWikiRenderTargetTexture::CreateRenderDepthStencil
  00035	5f		 pop	 edi
  00036	84 c0		 test	 al, al

; 37   : 	{
; 38   : 		return false;
; 39   : 	}
; 40   : 
; 41   : 	return true;
; 42   : }

  00038	5e		 pop	 esi
  00039	0f 95 c0	 setne	 al
  0003c	5b		 pop	 ebx
  0003d	5d		 pop	 ebp
  0003e	c2 10 00	 ret	 16			; 00000010H
$LN5@Create:
  00041	5f		 pop	 edi
  00042	5e		 pop	 esi
  00043	32 c0		 xor	 al, al
  00045	5b		 pop	 ebx
  00046	5d		 pop	 ebp
  00047	c2 10 00	 ret	 16			; 00000010H
?Create@CGraphicWikiRenderTargetTexture@@QAE_NHHW4_D3DFORMAT@@0@Z ENDP ; CGraphicWikiRenderTargetTexture::Create
_TEXT	ENDS
; Function compile flags: /Ogtp
; File C:\Users\flourine\Desktop\Xantios\client-src\Code\EterLib\GrpWikiRenderTargetTexture.cpp
;	COMDAT ??1CGraphicWikiRenderTargetTexture@@UAE@XZ
_TEXT	SEGMENT
__$EHRec$ = -12						; size = 12
??1CGraphicWikiRenderTargetTexture@@UAE@XZ PROC		; CGraphicWikiRenderTargetTexture::~CGraphicWikiRenderTargetTexture, COMDAT
; _this$ = ecx

; 9    : CGraphicWikiRenderTargetTexture::~CGraphicWikiRenderTargetTexture() { Reset(); }

  00000	55		 push	 ebp
  00001	8b ec		 mov	 ebp, esp
  00003	6a ff		 push	 -1
  00005	68 00 00 00 00	 push	 __ehhandler$??1CGraphicWikiRenderTargetTexture@@UAE@XZ
  0000a	64 a1 00 00 00
	00		 mov	 eax, DWORD PTR fs:0
  00010	50		 push	 eax
  00011	56		 push	 esi
  00012	a1 00 00 00 00	 mov	 eax, DWORD PTR ___security_cookie
  00017	33 c5		 xor	 eax, ebp
  00019	50		 push	 eax
  0001a	8d 45 f4	 lea	 eax, DWORD PTR __$EHRec$[ebp]
  0001d	64 a3 00 00 00
	00		 mov	 DWORD PTR fs:0, eax
  00023	8b f1		 mov	 esi, ecx
  00025	c7 06 00 00 00
	00		 mov	 DWORD PTR [esi], OFFSET ??_7CGraphicWikiRenderTargetTexture@@6B@
  0002b	e8 00 00 00 00	 call	 ?Reset@CGraphicWikiRenderTargetTexture@@IAEXXZ ; CGraphicWikiRenderTargetTexture::Reset
  00030	8b ce		 mov	 ecx, esi
  00032	e8 00 00 00 00	 call	 ??1CGraphicTexture@@MAE@XZ ; CGraphicTexture::~CGraphicTexture
  00037	8b 4d f4	 mov	 ecx, DWORD PTR __$EHRec$[ebp]
  0003a	64 89 0d 00 00
	00 00		 mov	 DWORD PTR fs:0, ecx
  00041	59		 pop	 ecx
  00042	5e		 pop	 esi
  00043	8b e5		 mov	 esp, ebp
  00045	5d		 pop	 ebp
  00046	c3		 ret	 0
  00047	cc		 int	 3
  00048	cc		 int	 3
  00049	cc		 int	 3
  0004a	cc		 int	 3
  0004b	cc		 int	 3
_TEXT	ENDS
;	COMDAT text$x
text$x	SEGMENT
__ehhandler$??1CGraphicWikiRenderTargetTexture@@UAE@XZ:
  00000	90		 npad	 1
  00001	90		 npad	 1
  00002	8b 54 24 08	 mov	 edx, DWORD PTR [esp+8]
  00006	8d 42 0c	 lea	 eax, DWORD PTR [edx+12]
  00009	8b 4a f8	 mov	 ecx, DWORD PTR [edx-8]
  0000c	33 c8		 xor	 ecx, eax
  0000e	e8 00 00 00 00	 call	 @__security_check_cookie@4
  00013	b8 00 00 00 00	 mov	 eax, OFFSET __ehfuncinfo$??1CGraphicWikiRenderTargetTexture@@UAE@XZ
  00018	e9 00 00 00 00	 jmp	 ___CxxFrameHandler3
text$x	ENDS
??1CGraphicWikiRenderTargetTexture@@UAE@XZ ENDP		; CGraphicWikiRenderTargetTexture::~CGraphicWikiRenderTargetTexture
; Function compile flags: /Ogtp
; File C:\Users\flourine\Desktop\Xantios\client-src\Code\EterLib\GrpWikiRenderTargetTexture.cpp
; File C:\Users\flourine\Desktop\Xantios\client-src\Code\EterLib\GrpWikiRenderTargetTexture.h
; File C:\Users\flourine\Desktop\Xantios\client-src\Code\EterLib\GrpWikiRenderTargetTexture.cpp
;	COMDAT ??0CGraphicWikiRenderTargetTexture@@QAE@XZ
_TEXT	SEGMENT
_this$ = -16						; size = 4
__$EHRec$ = -12						; size = 12
??0CGraphicWikiRenderTargetTexture@@QAE@XZ PROC		; CGraphicWikiRenderTargetTexture::CGraphicWikiRenderTargetTexture, COMDAT
; _this$ = ecx

; 13   : {

  00000	55		 push	 ebp
  00001	8b ec		 mov	 ebp, esp
  00003	6a ff		 push	 -1
  00005	68 00 00 00 00	 push	 __ehhandler$??0CGraphicWikiRenderTargetTexture@@QAE@XZ
  0000a	64 a1 00 00 00
	00		 mov	 eax, DWORD PTR fs:0
  00010	50		 push	 eax
  00011	51		 push	 ecx
  00012	56		 push	 esi
  00013	a1 00 00 00 00	 mov	 eax, DWORD PTR ___security_cookie
  00018	33 c5		 xor	 eax, ebp
  0001a	50		 push	 eax
  0001b	8d 45 f4	 lea	 eax, DWORD PTR __$EHRec$[ebp]
  0001e	64 a3 00 00 00
	00		 mov	 DWORD PTR fs:0, eax
  00024	8b f1		 mov	 esi, ecx
  00026	89 75 f0	 mov	 DWORD PTR _this$[ebp], esi
  00029	e8 00 00 00 00	 call	 ??0CGraphicTexture@@IAE@XZ ; CGraphicTexture::CGraphicTexture
  0002e	0f 57 c0	 xorps	 xmm0, xmm0
  00031	c7 06 00 00 00
	00		 mov	 DWORD PTR [esi], OFFSET ??_7CGraphicWikiRenderTargetTexture@@6B@
; File C:\Users\flourine\Desktop\Xantios\client-src\Code\EterLib\GrpWikiRenderTargetTexture.h

; 37   : 	LPDIRECT3DTEXTURE9	m_lpd3dRenderTexture{};

  00037	c7 46 14 00 00
	00 00		 mov	 DWORD PTR [esi+20], 0
; File C:\Users\flourine\Desktop\Xantios\client-src\Code\EterLib\GrpWikiRenderTargetTexture.cpp

; 14   : 	Initialize();

  0003e	8b ce		 mov	 ecx, esi
  00040	c7 46 18 00 00
	00 00		 mov	 DWORD PTR [esi+24], 0
  00047	c7 46 1c 00 00
	00 00		 mov	 DWORD PTR [esi+28], 0
  0004e	c7 46 20 00 00
	00 00		 mov	 DWORD PTR [esi+32], 0
  00055	c7 46 24 00 00
	00 00		 mov	 DWORD PTR [esi+36], 0
  0005c	c7 46 28 00 00
	00 00		 mov	 DWORD PTR [esi+40], 0
  00063	c7 46 2c 00 00
	00 00		 mov	 DWORD PTR [esi+44], 0
  0006a	0f 11 46 30	 movups	 XMMWORD PTR [esi+48], xmm0
  0006e	c7 45 fc 00 00
	00 00		 mov	 DWORD PTR __$EHRec$[ebp+8], 0
  00075	0f 11 46 40	 movups	 XMMWORD PTR [esi+64], xmm0
  00079	e8 00 00 00 00	 call	 ?Initialize@CGraphicTexture@@IAEXXZ ; CGraphicTexture::Initialize
  0007e	0f 57 c0	 xorps	 xmm0, xmm0

; 15   : 
; 16   : 	memset(&m_renderRect, 0, sizeof(m_renderRect));
; 17   : 	memset(&m_renderBox, 0, sizeof(m_renderBox));
; 18   : }

  00081	8b c6		 mov	 eax, esi
  00083	0f 11 46 30	 movups	 XMMWORD PTR [esi+48], xmm0
  00087	0f 11 46 40	 movups	 XMMWORD PTR [esi+64], xmm0
  0008b	8b 4d f4	 mov	 ecx, DWORD PTR __$EHRec$[ebp]
  0008e	64 89 0d 00 00
	00 00		 mov	 DWORD PTR fs:0, ecx
  00095	59		 pop	 ecx
  00096	5e		 pop	 esi
  00097	8b e5		 mov	 esp, ebp
  00099	5d		 pop	 ebp
  0009a	c3		 ret	 0
_TEXT	ENDS
;	COMDAT text$x
text$x	SEGMENT
__unwindfunclet$??0CGraphicWikiRenderTargetTexture@@QAE@XZ$0:
  00000	8b 4d f0	 mov	 ecx, DWORD PTR _this$[ebp]
  00003	e9 00 00 00 00	 jmp	 ??1CGraphicTexture@@MAE@XZ ; CGraphicTexture::~CGraphicTexture
  00008	cc		 int	 3
  00009	cc		 int	 3
  0000a	cc		 int	 3
  0000b	cc		 int	 3
  0000c	cc		 int	 3
__ehhandler$??0CGraphicWikiRenderTargetTexture@@QAE@XZ:
  0000d	90		 npad	 1
  0000e	90		 npad	 1
  0000f	8b 54 24 08	 mov	 edx, DWORD PTR [esp+8]
  00013	8d 42 0c	 lea	 eax, DWORD PTR [edx+12]
  00016	8b 4a f4	 mov	 ecx, DWORD PTR [edx-12]
  00019	33 c8		 xor	 ecx, eax
  0001b	e8 00 00 00 00	 call	 @__security_check_cookie@4
  00020	b8 00 00 00 00	 mov	 eax, OFFSET __ehfuncinfo$??0CGraphicWikiRenderTargetTexture@@QAE@XZ
  00025	e9 00 00 00 00	 jmp	 ___CxxFrameHandler3
text$x	ENDS
??0CGraphicWikiRenderTargetTexture@@QAE@XZ ENDP		; CGraphicWikiRenderTargetTexture::CGraphicWikiRenderTargetTexture
; Function compile flags: /Ogtp
;	COMDAT ??0SPDTVertex@@QAE@XZ
_TEXT	SEGMENT
??0SPDTVertex@@QAE@XZ PROC				; SPDTVertex::SPDTVertex, COMDAT
; _this$ = ecx
  00000	8b c1		 mov	 eax, ecx
  00002	c3		 ret	 0
??0SPDTVertex@@QAE@XZ ENDP				; SPDTVertex::SPDTVertex
_TEXT	ENDS
; Function compile flags: /Ogtp
;	COMDAT ??_H@YGXPAXIIP6EPAX0@Z@Z
_TEXT	SEGMENT
___t$ = 8						; size = 4
___s$ = 12						; size = 4
___n$ = 16						; size = 4
___f$ = 20						; size = 4
??_H@YGXPAXIIP6EPAX0@Z@Z PROC				; `vector constructor iterator', COMDAT
  00000	55		 push	 ebp
  00001	8b ec		 mov	 ebp, esp
  00003	56		 push	 esi
  00004	8b 75 10	 mov	 esi, DWORD PTR ___n$[ebp]
  00007	85 f6		 test	 esi, esi
  00009	74 16		 je	 SHORT $LN6@vector
  0000b	53		 push	 ebx
  0000c	8b 5d 14	 mov	 ebx, DWORD PTR ___f$[ebp]
  0000f	57		 push	 edi
  00010	8b 7d 08	 mov	 edi, DWORD PTR ___t$[ebp]
$LL2@vector:
  00013	8b cf		 mov	 ecx, edi
  00015	ff d3		 call	 ebx
  00017	03 7d 0c	 add	 edi, DWORD PTR ___s$[ebp]
  0001a	83 ee 01	 sub	 esi, 1
  0001d	75 f4		 jne	 SHORT $LL2@vector
  0001f	5f		 pop	 edi
  00020	5b		 pop	 ebx
$LN6@vector:
  00021	5e		 pop	 esi
  00022	5d		 pop	 ebp
  00023	c2 10 00	 ret	 16			; 00000010H
??_H@YGXPAXIIP6EPAX0@Z@Z ENDP				; `vector constructor iterator'
_TEXT	ENDS
END
