; Listing generated by Microsoft (R) Optimizing Compiler Version 19.34.31942.0 

	TITLE	C:\Users\flourine\Desktop\Xantios\client-src\Code\EterLib\Distribute\SkyBox.obj
	.686P
	.XMM
	include listing.inc
	.model	flat

INCLUDELIB LIBCMT
INCLUDELIB OLDNAMES

PUBLIC	??_H@YGXPAXIIP6EPAX0@Z@Z			; `vector constructor iterator'
PUBLIC	??0exception@std@@QAE@ABV01@@Z			; std::exception::exception
PUBLIC	??1exception@std@@UAE@XZ			; std::exception::~exception
PUBLIC	?what@exception@std@@UBEPBDXZ			; std::exception::what
PUBLIC	??_Gexception@std@@UAEPAXI@Z			; std::exception::`scalar deleting destructor'
PUBLIC	??0bad_alloc@std@@QAE@ABV01@@Z			; std::bad_alloc::bad_alloc
PUBLIC	??_Gbad_alloc@std@@UAEPAXI@Z			; std::bad_alloc::`scalar deleting destructor'
PUBLIC	??0bad_array_new_length@std@@QAE@XZ		; std::bad_array_new_length::bad_array_new_length
PUBLIC	??1bad_array_new_length@std@@UAE@XZ		; std::bad_array_new_length::~bad_array_new_length
PUBLIC	??0bad_array_new_length@std@@QAE@ABV01@@Z	; std::bad_array_new_length::bad_array_new_length
PUBLIC	??_Gbad_array_new_length@std@@UAEPAXI@Z		; std::bad_array_new_length::`scalar deleting destructor'
PUBLIC	?_Throw_bad_array_new_length@std@@YAXXZ		; std::_Throw_bad_array_new_length
PUBLIC	?_Xlen_string@std@@YAXXZ			; std::_Xlen_string
PUBLIC	??0?$basic_string@DU?$char_traits@D@std@@V?$allocator@D@2@@std@@QAE@ABV01@@Z ; std::basic_string<char,std::char_traits<char>,std::allocator<char> >::basic_string<char,std::char_traits<char>,std::allocator<char> >
PUBLIC	??0?$basic_string@DU?$char_traits@D@std@@V?$allocator@D@2@@std@@QAE@QBD@Z ; std::basic_string<char,std::char_traits<char>,std::allocator<char> >::basic_string<char,std::char_traits<char>,std::allocator<char> >
PUBLIC	??1?$basic_string@DU?$char_traits@D@std@@V?$allocator@D@2@@std@@QAE@XZ ; std::basic_string<char,std::char_traits<char>,std::allocator<char> >::~basic_string<char,std::char_traits<char>,std::allocator<char> >
PUBLIC	??4?$basic_string@DU?$char_traits@D@std@@V?$allocator@D@2@@std@@QAEAAV01@QBD@Z ; std::basic_string<char,std::char_traits<char>,std::allocator<char> >::operator=
PUBLIC	??0D3DXVECTOR2@@QAE@XZ				; D3DXVECTOR2::D3DXVECTOR2
PUBLIC	??0D3DXVECTOR3@@QAE@XZ				; D3DXVECTOR3::D3DXVECTOR3
PUBLIC	??0D3DXMATRIX@@QAE@XZ				; D3DXMATRIX::D3DXMATRIX
PUBLIC	?_Throw_tree_length_error@std@@YAXXZ		; std::_Throw_tree_length_error
PUBLIC	??$_Allocate_manually_vector_aligned@U_Default_allocate_traits@std@@@std@@YAPAXI@Z ; std::_Allocate_manually_vector_aligned<std::_Default_allocate_traits>
PUBLIC	??0SPDTVertex@@QAE@XZ				; SPDTVertex::SPDTVertex
PUBLIC	??0CSkyObjectQuad@@QAE@XZ			; CSkyObjectQuad::CSkyObjectQuad
PUBLIC	??1CSkyObjectQuad@@UAE@XZ			; CSkyObjectQuad::~CSkyObjectQuad
PUBLIC	?Clear@CSkyObjectQuad@@QAEXABEABM111@Z		; CSkyObjectQuad::Clear
PUBLIC	?SetSrcColor@CSkyObjectQuad@@QAEXABEABM111@Z	; CSkyObjectQuad::SetSrcColor
PUBLIC	?SetTransition@CSkyObjectQuad@@QAEXABEABM111K@Z	; CSkyObjectQuad::SetTransition
PUBLIC	?SetVertex@CSkyObjectQuad@@QAEXABEABUSPDTVertex@@@Z ; CSkyObjectQuad::SetVertex
PUBLIC	?StartTransition@CSkyObjectQuad@@QAEXXZ		; CSkyObjectQuad::StartTransition
PUBLIC	?Update@CSkyObjectQuad@@QAE_NXZ			; CSkyObjectQuad::Update
PUBLIC	?Render@CSkyObjectQuad@@QAEXXZ			; CSkyObjectQuad::Render
PUBLIC	??_GCSkyObjectQuad@@UAEPAXI@Z			; CSkyObjectQuad::`scalar deleting destructor'
PUBLIC	??0CSkyObject@@QAE@XZ				; CSkyObject::CSkyObject
PUBLIC	??1CSkyObject@@UAE@XZ				; CSkyObject::~CSkyObject
PUBLIC	?Destroy@CSkyObject@@UAEXXZ			; CSkyObject::Destroy
PUBLIC	?Render@CSkyObject@@UAEXXZ			; CSkyObject::Render
PUBLIC	?Update@CSkyObject@@UAEXXZ			; CSkyObject::Update
PUBLIC	?StartTransition@CSkyObject@@UAEXXZ		; CSkyObject::StartTransition
PUBLIC	?GenerateTexture@CSkyObject@@IAEPAVCGraphicImageInstance@@PBD@Z ; CSkyObject::GenerateTexture
PUBLIC	?DeleteTexture@CSkyObject@@IAEXPAVCGraphicImageInstance@@@Z ; CSkyObject::DeleteTexture
PUBLIC	?deallocate@?$allocator@VCSkyObjectQuad@@@std@@QAEXQAVCSkyObjectQuad@@I@Z ; std::allocator<CSkyObjectQuad>::deallocate
PUBLIC	??1?$vector@VCSkyObjectQuad@@V?$allocator@VCSkyObjectQuad@@@std@@@std@@QAE@XZ ; std::vector<CSkyObjectQuad,std::allocator<CSkyObjectQuad> >::~vector<CSkyObjectQuad,std::allocator<CSkyObjectQuad> >
PUBLIC	?resize@?$vector@VCSkyObjectQuad@@V?$allocator@VCSkyObjectQuad@@@std@@@std@@QAEXI@Z ; std::vector<CSkyObjectQuad,std::allocator<CSkyObjectQuad> >::resize
PUBLIC	?_Xlength@?$vector@VCSkyObjectQuad@@V?$allocator@VCSkyObjectQuad@@@std@@@std@@CAXXZ ; std::vector<CSkyObjectQuad,std::allocator<CSkyObjectQuad> >::_Xlength
PUBLIC	?_Xrange@?$vector@VCSkyObjectQuad@@V?$allocator@VCSkyObjectQuad@@@std@@@std@@CAXXZ ; std::vector<CSkyObjectQuad,std::allocator<CSkyObjectQuad> >::_Xrange
PUBLIC	?StartTransition@SSkyObjectFace@CSkyObject@@QAEXXZ ; CSkyObject::SSkyObjectFace::StartTransition
PUBLIC	?Update@SSkyObjectFace@CSkyObject@@QAE_NXZ	; CSkyObject::SSkyObjectFace::Update
PUBLIC	?Render@SSkyObjectFace@CSkyObject@@QAEXXZ	; CSkyObject::SSkyObjectFace::Render
PUBLIC	??0SSkyObjectFace@CSkyObject@@QAE@XZ		; CSkyObject::SSkyObjectFace::SSkyObjectFace
PUBLIC	??1SSkyObjectFace@CSkyObject@@QAE@XZ		; CSkyObject::SSkyObjectFace::~SSkyObjectFace
PUBLIC	?_Insert_node@?$_Tree_val@U?$_Tree_simple_types@U?$pair@$$CBV?$basic_string@DU?$char_traits@D@std@@V?$allocator@D@2@@std@@PAVCGraphicImageInstance@@@std@@@std@@@std@@QAEPAU?$_Tree_node@U?$pair@$$CBV?$basic_string@DU?$char_traits@D@std@@V?$allocator@D@2@@std@@PAVCGraphicImageInstance@@@std@@PAX@2@U?$_Tree_id@PAU?$_Tree_node@U?$pair@$$CBV?$basic_string@DU?$char_traits@D@std@@V?$allocator@D@2@@std@@PAVCGraphicImageInstance@@@std@@PAX@std@@@2@QAU32@@Z ; std::_Tree_val<std::_Tree_simple_types<std::pair<std::basic_string<char,std::char_traits<char>,std::allocator<char> > const ,CGraphicImageInstance *> > >::_Insert_node
PUBLIC	??A?$map@V?$basic_string@DU?$char_traits@D@std@@V?$allocator@D@2@@std@@PAVCGraphicImageInstance@@U?$less@V?$basic_string@DU?$char_traits@D@std@@V?$allocator@D@2@@std@@@2@V?$allocator@U?$pair@$$CBV?$basic_string@DU?$char_traits@D@std@@V?$allocator@D@2@@std@@PAVCGraphicImageInstance@@@std@@@2@@std@@QAEAAPAVCGraphicImageInstance@@ABV?$basic_string@DU?$char_traits@D@std@@V?$allocator@D@2@@1@@Z ; std::map<std::basic_string<char,std::char_traits<char>,std::allocator<char> >,CGraphicImageInstance *,std::less<std::basic_string<char,std::char_traits<char>,std::allocator<char> > >,std::allocator<std::pair<std::basic_string<char,std::char_traits<char>,std::allocator<char> > const ,CGraphicImageInstance *> > >::operator[]
PUBLIC	??1?$map@V?$basic_string@DU?$char_traits@D@std@@V?$allocator@D@2@@std@@PAVCGraphicImageInstance@@U?$less@V?$basic_string@DU?$char_traits@D@std@@V?$allocator@D@2@@std@@@2@V?$allocator@U?$pair@$$CBV?$basic_string@DU?$char_traits@D@std@@V?$allocator@D@2@@std@@PAVCGraphicImageInstance@@@std@@@2@@std@@QAE@XZ ; std::map<std::basic_string<char,std::char_traits<char>,std::allocator<char> >,CGraphicImageInstance *,std::less<std::basic_string<char,std::char_traits<char>,std::allocator<char> > >,std::allocator<std::pair<std::basic_string<char,std::char_traits<char>,std::allocator<char> > const ,CGraphicImageInstance *> > >::~map<std::basic_string<char,std::char_traits<char>,std::allocator<char> >,CGraphicImageInstance *,std::less<std::basic_string<char,std::char_traits<char>,std::allocator<char> > >,std::allocator<std::pair<std::basic_string<char,std::char_traits<char>,std::allocator<char> > const ,CGraphicImageInstance *> > >
PUBLIC	??_GCSkyObject@@UAEPAXI@Z			; CSkyObject::`scalar deleting destructor'
PUBLIC	??0CSkyBox@@QAE@XZ				; CSkyBox::CSkyBox
PUBLIC	??1CSkyBox@@UAE@XZ				; CSkyBox::~CSkyBox
PUBLIC	?Update@CSkyBox@@UAEXXZ				; CSkyBox::Update
PUBLIC	?Render@CSkyBox@@UAEXXZ				; CSkyBox::Render
PUBLIC	?RenderCloud@CSkyBox@@QAEXXZ			; CSkyBox::RenderCloud
PUBLIC	?Destroy@CSkyBox@@UAEXXZ			; CSkyBox::Destroy
PUBLIC	?Unload@CSkyBox@@QAEXXZ				; CSkyBox::Unload
PUBLIC	?SetSkyBoxScale@CSkyBox@@QAEXABUD3DXVECTOR3@@@Z	; CSkyBox::SetSkyBoxScale
PUBLIC	?SetGradientLevel@CSkyBox@@QAEXEE@Z		; CSkyBox::SetGradientLevel
PUBLIC	?SetFaceTexture@CSkyBox@@QAEXPBDH@Z		; CSkyBox::SetFaceTexture
PUBLIC	?SetCloudTexture@CSkyBox@@QAEXPBD@Z		; CSkyBox::SetCloudTexture
PUBLIC	?SetCloudScale@CSkyBox@@QAEXABUD3DXVECTOR2@@@Z	; CSkyBox::SetCloudScale
PUBLIC	?SetCloudHeight@CSkyBox@@QAEXM@Z		; CSkyBox::SetCloudHeight
PUBLIC	?SetCloudTextureScale@CSkyBox@@QAEXABUD3DXVECTOR2@@@Z ; CSkyBox::SetCloudTextureScale
PUBLIC	?SetCloudScrollSpeed@CSkyBox@@QAEXABUD3DXVECTOR2@@@Z ; CSkyBox::SetCloudScrollSpeed
PUBLIC	?SetCloudColor@CSkyBox@@QAEXABUTGradientColor@@0ABK@Z ; CSkyBox::SetCloudColor
PUBLIC	?Refresh@CSkyBox@@QAEXXZ			; CSkyBox::Refresh
PUBLIC	?SetSkyColor@CSkyBox@@QAEXABV?$vector@UTGradientColor@@V?$allocator@UTGradientColor@@@std@@@std@@0J@Z ; CSkyBox::SetSkyColor
PUBLIC	?StartTransition@CSkyBox@@UAEXXZ		; CSkyBox::StartTransition
PUBLIC	?SetSkyObjectQuadVertical@CSkyBox@@IAEXPAV?$vector@VCSkyObjectQuad@@V?$allocator@VCSkyObjectQuad@@@std@@@std@@PBUD3DXVECTOR2@@@Z ; CSkyBox::SetSkyObjectQuadVertical
PUBLIC	?SetSkyObjectQuadHorizon@CSkyBox@@IAEXPAV?$vector@VCSkyObjectQuad@@V?$allocator@VCSkyObjectQuad@@@std@@@std@@PBUD3DXVECTOR3@@@Z ; CSkyBox::SetSkyObjectQuadHorizon
PUBLIC	??_GCSkyBox@@UAEPAXI@Z				; CSkyBox::`scalar deleting destructor'
PUBLIC	??1?$pair@$$CBV?$basic_string@DU?$char_traits@D@std@@V?$allocator@D@2@@std@@PAVCGraphicImageInstance@@@std@@QAE@XZ ; std::pair<std::basic_string<char,std::char_traits<char>,std::allocator<char> > const ,CGraphicImageInstance *>::~pair<std::basic_string<char,std::char_traits<char>,std::allocator<char> > const ,CGraphicImageInstance *>
PUBLIC	??$insert@$0A@$0A@@?$_Tree@V?$_Tmap_traits@V?$basic_string@DU?$char_traits@D@std@@V?$allocator@D@2@@std@@PAVCGraphicImageInstance@@U?$less@V?$basic_string@DU?$char_traits@D@std@@V?$allocator@D@2@@std@@@2@V?$allocator@U?$pair@$$CBV?$basic_string@DU?$char_traits@D@std@@V?$allocator@D@2@@std@@PAVCGraphicImageInstance@@@std@@@2@$0A@@std@@@std@@QAE?AU?$pair@V?$_Tree_iterator@V?$_Tree_val@U?$_Tree_simple_types@U?$pair@$$CBV?$basic_string@DU?$char_traits@D@std@@V?$allocator@D@2@@std@@PAVCGraphicImageInstance@@@std@@@std@@@std@@@std@@_N@1@$$QAU?$pair@$$CBV?$basic_string@DU?$char_traits@D@std@@V?$allocator@D@2@@std@@PAVCGraphicImageInstance@@@1@@Z ; std::_Tree<std::_Tmap_traits<std::basic_string<char,std::char_traits<char>,std::allocator<char> >,CGraphicImageInstance *,std::less<std::basic_string<char,std::char_traits<char>,std::allocator<char> > >,std::allocator<std::pair<std::basic_string<char,std::char_traits<char>,std::allocator<char> > const ,CGraphicImageInstance *> >,0> >::insert<0,0>
PUBLIC	??$_Erase_tree@V?$allocator@U?$_Tree_node@U?$pair@$$CBV?$basic_string@DU?$char_traits@D@std@@V?$allocator@D@2@@std@@PAVCGraphicImageInstance@@@std@@PAX@std@@@std@@@?$_Tree_val@U?$_Tree_simple_types@U?$pair@$$CBV?$basic_string@DU?$char_traits@D@std@@V?$allocator@D@2@@std@@PAVCGraphicImageInstance@@@std@@@std@@@std@@QAEXAAV?$allocator@U?$_Tree_node@U?$pair@$$CBV?$basic_string@DU?$char_traits@D@std@@V?$allocator@D@2@@std@@PAVCGraphicImageInstance@@@std@@PAX@std@@@1@PAU?$_Tree_node@U?$pair@$$CBV?$basic_string@DU?$char_traits@D@std@@V?$allocator@D@2@@std@@PAVCGraphicImageInstance@@@std@@PAX@1@@Z ; std::_Tree_val<std::_Tree_simple_types<std::pair<std::basic_string<char,std::char_traits<char>,std::allocator<char> > const ,CGraphicImageInstance *> > >::_Erase_tree<std::allocator<std::_Tree_node<std::pair<std::basic_string<char,std::char_traits<char>,std::allocator<char> > const ,CGraphicImageInstance *>,void *> > >
PUBLIC	??$_Destroy_range@V?$allocator@VCSkyObjectQuad@@@std@@@std@@YAXPAVCSkyObjectQuad@@QAV1@AAV?$allocator@VCSkyObjectQuad@@@0@@Z ; std::_Destroy_range<std::allocator<CSkyObjectQuad> >
PUBLIC	??$_Find_lower_bound@V?$basic_string@DU?$char_traits@D@std@@V?$allocator@D@2@@std@@@?$_Tree@V?$_Tmap_traits@V?$basic_string@DU?$char_traits@D@std@@V?$allocator@D@2@@std@@PAVCGraphicImageInstance@@U?$less@V?$basic_string@DU?$char_traits@D@std@@V?$allocator@D@2@@std@@@2@V?$allocator@U?$pair@$$CBV?$basic_string@DU?$char_traits@D@std@@V?$allocator@D@2@@std@@PAVCGraphicImageInstance@@@std@@@2@$0A@@std@@@std@@IBE?AU?$_Tree_find_result@PAU?$_Tree_node@U?$pair@$$CBV?$basic_string@DU?$char_traits@D@std@@V?$allocator@D@2@@std@@PAVCGraphicImageInstance@@@std@@PAX@std@@@1@ABV?$basic_string@DU?$char_traits@D@std@@V?$allocator@D@2@@1@@Z ; std::_Tree<std::_Tmap_traits<std::basic_string<char,std::char_traits<char>,std::allocator<char> >,CGraphicImageInstance *,std::less<std::basic_string<char,std::char_traits<char>,std::allocator<char> > >,std::allocator<std::pair<std::basic_string<char,std::char_traits<char>,std::allocator<char> > const ,CGraphicImageInstance *> >,0> >::_Find_lower_bound<std::basic_string<char,std::char_traits<char>,std::allocator<char> > >
PUBLIC	??1?$_Alloc_construct_ptr@V?$allocator@U?$_Tree_node@U?$pair@$$CBV?$basic_string@DU?$char_traits@D@std@@V?$allocator@D@2@@std@@PAVCGraphicImageInstance@@@std@@PAX@std@@@std@@@std@@QAE@XZ ; std::_Alloc_construct_ptr<std::allocator<std::_Tree_node<std::pair<std::basic_string<char,std::char_traits<char>,std::allocator<char> > const ,CGraphicImageInstance *>,void *> > >::~_Alloc_construct_ptr<std::allocator<std::_Tree_node<std::pair<std::basic_string<char,std::char_traits<char>,std::allocator<char> > const ,CGraphicImageInstance *>,void *> > >
PUBLIC	??1?$_Tree_temp_node_alloc@V?$allocator@U?$_Tree_node@U?$pair@$$CBV?$basic_string@DU?$char_traits@D@std@@V?$allocator@D@2@@std@@PAVCGraphicImageInstance@@@std@@PAX@std@@@std@@@std@@QAE@XZ ; std::_Tree_temp_node_alloc<std::allocator<std::_Tree_node<std::pair<std::basic_string<char,std::char_traits<char>,std::allocator<char> > const ,CGraphicImageInstance *>,void *> > >::~_Tree_temp_node_alloc<std::allocator<std::_Tree_node<std::pair<std::basic_string<char,std::char_traits<char>,std::allocator<char> > const ,CGraphicImageInstance *>,void *> > >
PUBLIC	??$_Resize_reallocate@U_Value_init_tag@std@@@?$vector@VCSkyObjectQuad@@V?$allocator@VCSkyObjectQuad@@@std@@@std@@AAEXIABU_Value_init_tag@1@@Z ; std::vector<CSkyObjectQuad,std::allocator<CSkyObjectQuad> >::_Resize_reallocate<std::_Value_init_tag>
PUBLIC	??$_Uninitialized_value_construct_n@V?$allocator@VCSkyObjectQuad@@@std@@@std@@YAPAVCSkyObjectQuad@@PAV1@IAAV?$allocator@VCSkyObjectQuad@@@0@@Z ; std::_Uninitialized_value_construct_n<std::allocator<CSkyObjectQuad> >
PUBLIC	??$?MDU?$char_traits@D@std@@V?$allocator@D@1@@std@@YA_NABV?$basic_string@DU?$char_traits@D@std@@V?$allocator@D@2@@0@0@Z ; std::operator<<char,std::char_traits<char>,std::allocator<char> >
PUBLIC	??1?$_Uninitialized_backout_al@V?$allocator@VCSkyObjectQuad@@@std@@@std@@QAE@XZ ; std::_Uninitialized_backout_al<std::allocator<CSkyObjectQuad> >::~_Uninitialized_backout_al<std::allocator<CSkyObjectQuad> >
PUBLIC	??_7exception@std@@6B@				; std::exception::`vftable'
PUBLIC	??_C@_0BC@EOODALEL@Unknown?5exception@		; `string'
PUBLIC	??_7bad_alloc@std@@6B@				; std::bad_alloc::`vftable'
PUBLIC	??_7bad_array_new_length@std@@6B@		; std::bad_array_new_length::`vftable'
PUBLIC	??_C@_0BF@KINCDENJ@bad?5array?5new?5length@	; `string'
PUBLIC	__TI3?AVbad_array_new_length@std@@
PUBLIC	__CTA3?AVbad_array_new_length@std@@
PUBLIC	??_R0?AVbad_array_new_length@std@@@8		; std::bad_array_new_length `RTTI Type Descriptor'
PUBLIC	__CT??_R0?AVbad_array_new_length@std@@@8??0bad_array_new_length@std@@QAE@ABV01@@Z12
PUBLIC	??_R0?AVbad_alloc@std@@@8			; std::bad_alloc `RTTI Type Descriptor'
PUBLIC	__CT??_R0?AVbad_alloc@std@@@8??0bad_alloc@std@@QAE@ABV01@@Z12
PUBLIC	??_R0?AVexception@std@@@8			; std::exception `RTTI Type Descriptor'
PUBLIC	__CT??_R0?AVexception@std@@@8??0exception@std@@QAE@ABV01@@Z12
PUBLIC	??_C@_0BA@JFNIOLAK@string?5too?5long@		; `string'
PUBLIC	??_C@_0BB@GCADKGJO@map?1set?5too?5long@		; `string'
PUBLIC	??_R4exception@std@@6B@				; std::exception::`RTTI Complete Object Locator'
PUBLIC	??_R3exception@std@@8				; std::exception::`RTTI Class Hierarchy Descriptor'
PUBLIC	??_R2exception@std@@8				; std::exception::`RTTI Base Class Array'
PUBLIC	??_R1A@?0A@EA@exception@std@@8			; std::exception::`RTTI Base Class Descriptor at (0,-1,0,64)'
PUBLIC	??_R4bad_alloc@std@@6B@				; std::bad_alloc::`RTTI Complete Object Locator'
PUBLIC	??_R3bad_alloc@std@@8				; std::bad_alloc::`RTTI Class Hierarchy Descriptor'
PUBLIC	??_R2bad_alloc@std@@8				; std::bad_alloc::`RTTI Base Class Array'
PUBLIC	??_R1A@?0A@EA@bad_alloc@std@@8			; std::bad_alloc::`RTTI Base Class Descriptor at (0,-1,0,64)'
PUBLIC	??_R4bad_array_new_length@std@@6B@		; std::bad_array_new_length::`RTTI Complete Object Locator'
PUBLIC	??_R3bad_array_new_length@std@@8		; std::bad_array_new_length::`RTTI Class Hierarchy Descriptor'
PUBLIC	??_R2bad_array_new_length@std@@8		; std::bad_array_new_length::`RTTI Base Class Array'
PUBLIC	??_R1A@?0A@EA@bad_array_new_length@std@@8	; std::bad_array_new_length::`RTTI Base Class Descriptor at (0,-1,0,64)'
PUBLIC	??_7CSkyObjectQuad@@6B@				; CSkyObjectQuad::`vftable'
PUBLIC	??_7CSkyObject@@6B@				; CSkyObject::`vftable'
PUBLIC	??_7CSkyBox@@6B@				; CSkyBox::`vftable'
PUBLIC	?ms_singleton@?$CSingleton@VCCameraManager@@@@0PAVCCameraManager@@A ; CSingleton<CCameraManager>::ms_singleton
PUBLIC	?ms_singleton@?$CSingleton@VCStateManager@@@@0PAVCStateManager@@A ; CSingleton<CStateManager>::ms_singleton
PUBLIC	?ms_singleton@?$CSingleton@VCResourceManager@@@@0PAVCResourceManager@@A ; CSingleton<CResourceManager>::ms_singleton
PUBLIC	?ms_singleton@?$CSingleton@VCTimer@@@@0PAVCTimer@@A ; CSingleton<CTimer>::ms_singleton
PUBLIC	??_C@_05HJNNLMDJ@front@				; `string'
PUBLIC	??_C@_04JFCNHLLM@back@				; `string'
PUBLIC	??_C@_04GOOOJOPP@left@				; `string'
PUBLIC	??_C@_05DHJDAOHK@right@				; `string'
PUBLIC	??_C@_03FGFCOCMD@top@				; `string'
PUBLIC	??_C@_06PMMPCIPB@bottom@			; `string'
PUBLIC	??_C@_0BJ@DHFDPMIM@invalid?5vector?5subscript@	; `string'
PUBLIC	??_C@_0BA@FOIKENOD@vector?5too?5long@		; `string'
PUBLIC	??_R4CSkyObjectQuad@@6B@			; CSkyObjectQuad::`RTTI Complete Object Locator'
PUBLIC	??_R0?AVCSkyObjectQuad@@@8			; CSkyObjectQuad `RTTI Type Descriptor'
PUBLIC	??_R3CSkyObjectQuad@@8				; CSkyObjectQuad::`RTTI Class Hierarchy Descriptor'
PUBLIC	??_R2CSkyObjectQuad@@8				; CSkyObjectQuad::`RTTI Base Class Array'
PUBLIC	??_R1A@?0A@EA@CSkyObjectQuad@@8			; CSkyObjectQuad::`RTTI Base Class Descriptor at (0,-1,0,64)'
PUBLIC	??_R4CSkyObject@@6B@				; CSkyObject::`RTTI Complete Object Locator'
PUBLIC	??_R0?AVCSkyObject@@@8				; CSkyObject `RTTI Type Descriptor'
PUBLIC	??_R3CSkyObject@@8				; CSkyObject::`RTTI Class Hierarchy Descriptor'
PUBLIC	??_R2CSkyObject@@8				; CSkyObject::`RTTI Base Class Array'
PUBLIC	??_R1A@?0A@EA@CSkyObject@@8			; CSkyObject::`RTTI Base Class Descriptor at (0,-1,0,64)'
PUBLIC	??_R1A@?0A@EA@CScreen@@8			; CScreen::`RTTI Base Class Descriptor at (0,-1,0,64)'
PUBLIC	??_R0?AVCScreen@@@8				; CScreen `RTTI Type Descriptor'
PUBLIC	??_R3CScreen@@8					; CScreen::`RTTI Class Hierarchy Descriptor'
PUBLIC	??_R2CScreen@@8					; CScreen::`RTTI Base Class Array'
PUBLIC	??_R1A@?0A@EA@CGraphicCollisionObject@@8	; CGraphicCollisionObject::`RTTI Base Class Descriptor at (0,-1,0,64)'
PUBLIC	??_R0?AVCGraphicCollisionObject@@@8		; CGraphicCollisionObject `RTTI Type Descriptor'
PUBLIC	??_R3CGraphicCollisionObject@@8			; CGraphicCollisionObject::`RTTI Class Hierarchy Descriptor'
PUBLIC	??_R2CGraphicCollisionObject@@8			; CGraphicCollisionObject::`RTTI Base Class Array'
PUBLIC	??_R1A@?0A@EA@CGraphicBase@@8			; CGraphicBase::`RTTI Base Class Descriptor at (0,-1,0,64)'
PUBLIC	??_R0?AVCGraphicBase@@@8			; CGraphicBase `RTTI Type Descriptor'
PUBLIC	??_R3CGraphicBase@@8				; CGraphicBase::`RTTI Class Hierarchy Descriptor'
PUBLIC	??_R2CGraphicBase@@8				; CGraphicBase::`RTTI Base Class Array'
PUBLIC	??_R4CSkyBox@@6B@				; CSkyBox::`RTTI Complete Object Locator'
PUBLIC	??_R0?AVCSkyBox@@@8				; CSkyBox `RTTI Type Descriptor'
PUBLIC	??_R3CSkyBox@@8					; CSkyBox::`RTTI Class Hierarchy Descriptor'
PUBLIC	??_R2CSkyBox@@8					; CSkyBox::`RTTI Base Class Array'
PUBLIC	??_R1A@?0A@EA@CSkyBox@@8			; CSkyBox::`RTTI Base Class Descriptor at (0,-1,0,64)'
PUBLIC	__real@3a83126f
PUBLIC	__real@3f000000
PUBLIC	__real@3f800000
PUBLIC	__real@bf800000
PUBLIC	__xmm@3f8000003f8000003f800000bf800000
PUBLIC	__xmm@3f800000bf800000bf800000bf800000
PUBLIC	__xmm@41f00000000000000000000000000000
PUBLIC	__xmm@80000000800000008000000080000000
PUBLIC	__xmm@bf8000003f8000003f8000003f800000
PUBLIC	__xmm@bf800000bf800000bf8000003f800000
EXTRN	??_L@YGXPAXIIP6EX0@Z1@Z:PROC			; `eh vector constructor iterator'
EXTRN	??_M@YGXPAXIIP6EX0@Z@Z:PROC			; `eh vector destructor iterator'
EXTRN	__purecall:PROC
EXTRN	??2@YAPAXI@Z:PROC				; operator new
EXTRN	??3@YAXPAXI@Z:PROC				; operator delete
EXTRN	__invalid_parameter_noinfo_noreturn:PROC
EXTRN	___std_exception_copy:PROC
EXTRN	___std_exception_destroy:PROC
EXTRN	??_Eexception@std@@UAEPAXI@Z:PROC		; std::exception::`vector deleting destructor'
EXTRN	??_Ebad_alloc@std@@UAEPAXI@Z:PROC		; std::bad_alloc::`vector deleting destructor'
EXTRN	??_Ebad_array_new_length@std@@UAEPAXI@Z:PROC	; std::bad_array_new_length::`vector deleting destructor'
EXTRN	?_Xlength_error@std@@YAXPBD@Z:PROC		; std::_Xlength_error
EXTRN	?_Xout_of_range@std@@YAXPBD@Z:PROC		; std::_Xout_of_range
EXTRN	_D3DXMatrixScaling@16:PROC
EXTRN	_D3DXMatrixPerspectiveFovRH@20:PROC
EXTRN	?SetPDTStream@CGraphicBase@@SA_NPAUSPDTVertex@@I@Z:PROC ; CGraphicBase::SetPDTStream
EXTRN	??0CScreen@@QAE@XZ:PROC				; CScreen::CScreen
EXTRN	??1CScreen@@UAE@XZ:PROC				; CScreen::~CScreen
EXTRN	?IsType@CResource@@QAE_NK@Z:PROC		; CResource::IsType
EXTRN	?GetD3DTexture@CGraphicTexture@@QBEPAUIDirect3DTexture9@@XZ:PROC ; CGraphicTexture::GetD3DTexture
EXTRN	?Type@CGraphicImage@@SAKXZ:PROC			; CGraphicImage::Type
EXTRN	??0CGraphicImageInstance@@QAE@XZ:PROC		; CGraphicImageInstance::CGraphicImageInstance
EXTRN	??1CGraphicImageInstance@@UAE@XZ:PROC		; CGraphicImageInstance::~CGraphicImageInstance
EXTRN	?SetImagePointer@CGraphicImageInstance@@QAEXPAVCGraphicImage@@@Z:PROC ; CGraphicImageInstance::SetImagePointer
EXTRN	?GetTexturePointer@CGraphicImageInstance@@QAEPAVCGraphicTexture@@XZ:PROC ; CGraphicImageInstance::GetTexturePointer
EXTRN	?GetTextureReference@CGraphicImageInstance@@QBEABVCGraphicTexture@@XZ:PROC ; CGraphicImageInstance::GetTextureReference
EXTRN	?New@CGraphicImageInstance@@SAPAV1@XZ:PROC	; CGraphicImageInstance::New
EXTRN	?Delete@CGraphicImageInstance@@SAXPAV1@@Z:PROC	; CGraphicImageInstance::Delete
EXTRN	??0CColorTransitionHelper@@QAE@XZ:PROC		; CColorTransitionHelper::CColorTransitionHelper
EXTRN	??1CColorTransitionHelper@@QAE@XZ:PROC		; CColorTransitionHelper::~CColorTransitionHelper
EXTRN	?Clear@CColorTransitionHelper@@QAEXABM000@Z:PROC ; CColorTransitionHelper::Clear
EXTRN	?SetSrcColor@CColorTransitionHelper@@QAEXABM000@Z:PROC ; CColorTransitionHelper::SetSrcColor
EXTRN	?SetTransition@CColorTransitionHelper@@QAEXABM000ABK@Z:PROC ; CColorTransitionHelper::SetTransition
EXTRN	?GetCurColor@CColorTransitionHelper@@QAEABKXZ:PROC ; CColorTransitionHelper::GetCurColor
EXTRN	?StartTransition@CColorTransitionHelper@@QAEXXZ:PROC ; CColorTransitionHelper::StartTransition
EXTRN	?Update@CColorTransitionHelper@@QAE_NXZ:PROC	; CColorTransitionHelper::Update
EXTRN	??_ECSkyObjectQuad@@UAEPAXI@Z:PROC		; CSkyObjectQuad::`vector deleting destructor'
EXTRN	??_ECSkyObject@@UAEPAXI@Z:PROC			; CSkyObject::`vector deleting destructor'
EXTRN	??_ECSkyBox@@UAEPAXI@Z:PROC			; CSkyBox::`vector deleting destructor'
EXTRN	?GetCurrentCamera@CCameraManager@@QAEPAVCCamera@@XZ:PROC ; CCameraManager::GetCurrentCamera
EXTRN	?SaveRenderState@CStateManager@@QAEXW4_D3DRENDERSTATETYPE@@K@Z:PROC ; CStateManager::SaveRenderState
EXTRN	?RestoreRenderState@CStateManager@@QAEXW4_D3DRENDERSTATETYPE@@@Z:PROC ; CStateManager::RestoreRenderState
EXTRN	?SetTexture@CStateManager@@QAEXKPAUIDirect3DBaseTexture9@@@Z:PROC ; CStateManager::SetTexture
EXTRN	?SaveTextureStageState@CStateManager@@QAEXKW4_D3DTEXTURESTAGESTATETYPE@@K@Z:PROC ; CStateManager::SaveTextureStageState
EXTRN	?RestoreTextureStageState@CStateManager@@QAEXKW4_D3DTEXTURESTAGESTATETYPE@@@Z:PROC ; CStateManager::RestoreTextureStageState
EXTRN	?SetTextureStageState@CStateManager@@QAEXKW4_D3DTEXTURESTAGESTATETYPE@@K@Z:PROC ; CStateManager::SetTextureStageState
EXTRN	?SaveSamplerState@CStateManager@@QAEXKW4_D3DSAMPLERSTATETYPE@@K@Z:PROC ; CStateManager::SaveSamplerState
EXTRN	?RestoreSamplerState@CStateManager@@QAEXKW4_D3DSAMPLERSTATETYPE@@@Z:PROC ; CStateManager::RestoreSamplerState
EXTRN	?SetFVF@CStateManager@@QAEXK@Z:PROC		; CStateManager::SetFVF
EXTRN	?SaveTransform@CStateManager@@QAEXW4_D3DTRANSFORMSTATETYPE@@PBU_D3DMATRIX@@@Z:PROC ; CStateManager::SaveTransform
EXTRN	?RestoreTransform@CStateManager@@QAEXW4_D3DTRANSFORMSTATETYPE@@@Z:PROC ; CStateManager::RestoreTransform
EXTRN	?SetTransform@CStateManager@@QAEXW4_D3DTRANSFORMSTATETYPE@@PBU_D3DMATRIX@@@Z:PROC ; CStateManager::SetTransform
EXTRN	?DrawPrimitive@CStateManager@@QAEJW4_D3DPRIMITIVETYPE@@II@Z:PROC ; CStateManager::DrawPrimitive
EXTRN	?GetResourcePointer@CResourceManager@@QAEPAVCResource@@PBD@Z:PROC ; CResourceManager::GetResourcePointer
EXTRN	?GetCurrentMillisecond@CTimer@@QAEKXZ:PROC	; CTimer::GetCurrentMillisecond
EXTRN	@__security_check_cookie@4:PROC
EXTRN	__CxxThrowException@8:PROC
EXTRN	___CxxFrameHandler3:PROC
EXTRN	_memcpy:PROC
EXTRN	_memmove:PROC
EXTRN	_memset:PROC
EXTRN	??_7type_info@@6B@:QWORD			; type_info::`vftable'
EXTRN	___security_cookie:DWORD
EXTRN	__fltused:DWORD
;	COMDAT ?ms_singleton@?$CSingleton@VCCameraManager@@@@0PAVCCameraManager@@A
_BSS	SEGMENT
?ms_singleton@?$CSingleton@VCCameraManager@@@@0PAVCCameraManager@@A DD 01H DUP (?) ; CSingleton<CCameraManager>::ms_singleton
_BSS	ENDS
;	COMDAT ?ms_singleton@?$CSingleton@VCStateManager@@@@0PAVCStateManager@@A
_BSS	SEGMENT
?ms_singleton@?$CSingleton@VCStateManager@@@@0PAVCStateManager@@A DD 01H DUP (?) ; CSingleton<CStateManager>::ms_singleton
_BSS	ENDS
;	COMDAT ?ms_singleton@?$CSingleton@VCResourceManager@@@@0PAVCResourceManager@@A
_BSS	SEGMENT
?ms_singleton@?$CSingleton@VCResourceManager@@@@0PAVCResourceManager@@A DD 01H DUP (?) ; CSingleton<CResourceManager>::ms_singleton
_BSS	ENDS
;	COMDAT ?ms_singleton@?$CSingleton@VCTimer@@@@0PAVCTimer@@A
_BSS	SEGMENT
?ms_singleton@?$CSingleton@VCTimer@@@@0PAVCTimer@@A DD 01H DUP (?) ; CSingleton<CTimer>::ms_singleton
_BSS	ENDS
;	COMDAT __xmm@bf800000bf800000bf8000003f800000
CONST	SEGMENT
__xmm@bf800000bf800000bf8000003f800000 DB 00H, 00H, 080H, '?', 00H, 00H, 080H
	DB	0bfH, 00H, 00H, 080H, 0bfH, 00H, 00H, 080H, 0bfH
CONST	ENDS
;	COMDAT __xmm@bf8000003f8000003f8000003f800000
CONST	SEGMENT
__xmm@bf8000003f8000003f8000003f800000 DB 00H, 00H, 080H, '?', 00H, 00H, 080H
	DB	'?', 00H, 00H, 080H, '?', 00H, 00H, 080H, 0bfH
CONST	ENDS
;	COMDAT __xmm@80000000800000008000000080000000
CONST	SEGMENT
__xmm@80000000800000008000000080000000 DB 00H, 00H, 00H, 080H, 00H, 00H, 00H
	DB	080H, 00H, 00H, 00H, 080H, 00H, 00H, 00H, 080H
CONST	ENDS
;	COMDAT __xmm@41f00000000000000000000000000000
CONST	SEGMENT
__xmm@41f00000000000000000000000000000 DB 00H, 00H, 00H, 00H, 00H, 00H, 00H
	DB	00H, 00H, 00H, 00H, 00H, 00H, 00H, 0f0H, 'A'
CONST	ENDS
;	COMDAT __xmm@3f800000bf800000bf800000bf800000
CONST	SEGMENT
__xmm@3f800000bf800000bf800000bf800000 DB 00H, 00H, 080H, 0bfH, 00H, 00H, 080H
	DB	0bfH, 00H, 00H, 080H, 0bfH, 00H, 00H, 080H, '?'
CONST	ENDS
;	COMDAT __xmm@3f8000003f8000003f800000bf800000
CONST	SEGMENT
__xmm@3f8000003f8000003f800000bf800000 DB 00H, 00H, 080H, 0bfH, 00H, 00H, 080H
	DB	'?', 00H, 00H, 080H, '?', 00H, 00H, 080H, '?'
CONST	ENDS
;	COMDAT __real@bf800000
CONST	SEGMENT
__real@bf800000 DD 0bf800000r			; -1
CONST	ENDS
;	COMDAT __real@3f800000
CONST	SEGMENT
__real@3f800000 DD 03f800000r			; 1
CONST	ENDS
;	COMDAT __real@3f000000
CONST	SEGMENT
__real@3f000000 DD 03f000000r			; 0.5
CONST	ENDS
;	COMDAT __real@3a83126f
CONST	SEGMENT
__real@3a83126f DD 03a83126fr			; 0.001
CONST	ENDS
;	COMDAT ??_R1A@?0A@EA@CSkyBox@@8
rdata$r	SEGMENT
??_R1A@?0A@EA@CSkyBox@@8 DD FLAT:??_R0?AVCSkyBox@@@8	; CSkyBox::`RTTI Base Class Descriptor at (0,-1,0,64)'
	DD	04H
	DD	00H
	DD	0ffffffffH
	DD	00H
	DD	040H
	DD	FLAT:??_R3CSkyBox@@8
rdata$r	ENDS
;	COMDAT ??_R2CSkyBox@@8
rdata$r	SEGMENT
??_R2CSkyBox@@8 DD FLAT:??_R1A@?0A@EA@CSkyBox@@8	; CSkyBox::`RTTI Base Class Array'
	DD	FLAT:??_R1A@?0A@EA@CSkyObject@@8
	DD	FLAT:??_R1A@?0A@EA@CScreen@@8
	DD	FLAT:??_R1A@?0A@EA@CGraphicCollisionObject@@8
	DD	FLAT:??_R1A@?0A@EA@CGraphicBase@@8
rdata$r	ENDS
;	COMDAT ??_R3CSkyBox@@8
rdata$r	SEGMENT
??_R3CSkyBox@@8 DD 00H					; CSkyBox::`RTTI Class Hierarchy Descriptor'
	DD	00H
	DD	05H
	DD	FLAT:??_R2CSkyBox@@8
rdata$r	ENDS
;	COMDAT ??_R0?AVCSkyBox@@@8
data$rs	SEGMENT
??_R0?AVCSkyBox@@@8 DD FLAT:??_7type_info@@6B@		; CSkyBox `RTTI Type Descriptor'
	DD	00H
	DB	'.?AVCSkyBox@@', 00H
data$rs	ENDS
;	COMDAT ??_R4CSkyBox@@6B@
rdata$r	SEGMENT
??_R4CSkyBox@@6B@ DD 00H				; CSkyBox::`RTTI Complete Object Locator'
	DD	00H
	DD	00H
	DD	FLAT:??_R0?AVCSkyBox@@@8
	DD	FLAT:??_R3CSkyBox@@8
rdata$r	ENDS
;	COMDAT ??_R2CGraphicBase@@8
rdata$r	SEGMENT
??_R2CGraphicBase@@8 DD FLAT:??_R1A@?0A@EA@CGraphicBase@@8 ; CGraphicBase::`RTTI Base Class Array'
rdata$r	ENDS
;	COMDAT ??_R3CGraphicBase@@8
rdata$r	SEGMENT
??_R3CGraphicBase@@8 DD 00H				; CGraphicBase::`RTTI Class Hierarchy Descriptor'
	DD	00H
	DD	01H
	DD	FLAT:??_R2CGraphicBase@@8
rdata$r	ENDS
;	COMDAT ??_R0?AVCGraphicBase@@@8
data$rs	SEGMENT
??_R0?AVCGraphicBase@@@8 DD FLAT:??_7type_info@@6B@	; CGraphicBase `RTTI Type Descriptor'
	DD	00H
	DB	'.?AVCGraphicBase@@', 00H
data$rs	ENDS
;	COMDAT ??_R1A@?0A@EA@CGraphicBase@@8
rdata$r	SEGMENT
??_R1A@?0A@EA@CGraphicBase@@8 DD FLAT:??_R0?AVCGraphicBase@@@8 ; CGraphicBase::`RTTI Base Class Descriptor at (0,-1,0,64)'
	DD	00H
	DD	00H
	DD	0ffffffffH
	DD	00H
	DD	040H
	DD	FLAT:??_R3CGraphicBase@@8
rdata$r	ENDS
;	COMDAT ??_R2CGraphicCollisionObject@@8
rdata$r	SEGMENT
??_R2CGraphicCollisionObject@@8 DD FLAT:??_R1A@?0A@EA@CGraphicCollisionObject@@8 ; CGraphicCollisionObject::`RTTI Base Class Array'
	DD	FLAT:??_R1A@?0A@EA@CGraphicBase@@8
rdata$r	ENDS
;	COMDAT ??_R3CGraphicCollisionObject@@8
rdata$r	SEGMENT
??_R3CGraphicCollisionObject@@8 DD 00H			; CGraphicCollisionObject::`RTTI Class Hierarchy Descriptor'
	DD	00H
	DD	02H
	DD	FLAT:??_R2CGraphicCollisionObject@@8
rdata$r	ENDS
;	COMDAT ??_R0?AVCGraphicCollisionObject@@@8
data$rs	SEGMENT
??_R0?AVCGraphicCollisionObject@@@8 DD FLAT:??_7type_info@@6B@ ; CGraphicCollisionObject `RTTI Type Descriptor'
	DD	00H
	DB	'.?AVCGraphicCollisionObject@@', 00H
data$rs	ENDS
;	COMDAT ??_R1A@?0A@EA@CGraphicCollisionObject@@8
rdata$r	SEGMENT
??_R1A@?0A@EA@CGraphicCollisionObject@@8 DD FLAT:??_R0?AVCGraphicCollisionObject@@@8 ; CGraphicCollisionObject::`RTTI Base Class Descriptor at (0,-1,0,64)'
	DD	01H
	DD	00H
	DD	0ffffffffH
	DD	00H
	DD	040H
	DD	FLAT:??_R3CGraphicCollisionObject@@8
rdata$r	ENDS
;	COMDAT ??_R2CScreen@@8
rdata$r	SEGMENT
??_R2CScreen@@8 DD FLAT:??_R1A@?0A@EA@CScreen@@8	; CScreen::`RTTI Base Class Array'
	DD	FLAT:??_R1A@?0A@EA@CGraphicCollisionObject@@8
	DD	FLAT:??_R1A@?0A@EA@CGraphicBase@@8
rdata$r	ENDS
;	COMDAT ??_R3CScreen@@8
rdata$r	SEGMENT
??_R3CScreen@@8 DD 00H					; CScreen::`RTTI Class Hierarchy Descriptor'
	DD	00H
	DD	03H
	DD	FLAT:??_R2CScreen@@8
rdata$r	ENDS
;	COMDAT ??_R0?AVCScreen@@@8
data$rs	SEGMENT
??_R0?AVCScreen@@@8 DD FLAT:??_7type_info@@6B@		; CScreen `RTTI Type Descriptor'
	DD	00H
	DB	'.?AVCScreen@@', 00H
data$rs	ENDS
;	COMDAT ??_R1A@?0A@EA@CScreen@@8
rdata$r	SEGMENT
??_R1A@?0A@EA@CScreen@@8 DD FLAT:??_R0?AVCScreen@@@8	; CScreen::`RTTI Base Class Descriptor at (0,-1,0,64)'
	DD	02H
	DD	00H
	DD	0ffffffffH
	DD	00H
	DD	040H
	DD	FLAT:??_R3CScreen@@8
rdata$r	ENDS
;	COMDAT ??_R1A@?0A@EA@CSkyObject@@8
rdata$r	SEGMENT
??_R1A@?0A@EA@CSkyObject@@8 DD FLAT:??_R0?AVCSkyObject@@@8 ; CSkyObject::`RTTI Base Class Descriptor at (0,-1,0,64)'
	DD	03H
	DD	00H
	DD	0ffffffffH
	DD	00H
	DD	040H
	DD	FLAT:??_R3CSkyObject@@8
rdata$r	ENDS
;	COMDAT ??_R2CSkyObject@@8
rdata$r	SEGMENT
??_R2CSkyObject@@8 DD FLAT:??_R1A@?0A@EA@CSkyObject@@8	; CSkyObject::`RTTI Base Class Array'
	DD	FLAT:??_R1A@?0A@EA@CScreen@@8
	DD	FLAT:??_R1A@?0A@EA@CGraphicCollisionObject@@8
	DD	FLAT:??_R1A@?0A@EA@CGraphicBase@@8
rdata$r	ENDS
;	COMDAT ??_R3CSkyObject@@8
rdata$r	SEGMENT
??_R3CSkyObject@@8 DD 00H				; CSkyObject::`RTTI Class Hierarchy Descriptor'
	DD	00H
	DD	04H
	DD	FLAT:??_R2CSkyObject@@8
rdata$r	ENDS
;	COMDAT ??_R0?AVCSkyObject@@@8
data$rs	SEGMENT
??_R0?AVCSkyObject@@@8 DD FLAT:??_7type_info@@6B@	; CSkyObject `RTTI Type Descriptor'
	DD	00H
	DB	'.?AVCSkyObject@@', 00H
data$rs	ENDS
;	COMDAT ??_R4CSkyObject@@6B@
rdata$r	SEGMENT
??_R4CSkyObject@@6B@ DD 00H				; CSkyObject::`RTTI Complete Object Locator'
	DD	00H
	DD	00H
	DD	FLAT:??_R0?AVCSkyObject@@@8
	DD	FLAT:??_R3CSkyObject@@8
rdata$r	ENDS
;	COMDAT ??_R1A@?0A@EA@CSkyObjectQuad@@8
rdata$r	SEGMENT
??_R1A@?0A@EA@CSkyObjectQuad@@8 DD FLAT:??_R0?AVCSkyObjectQuad@@@8 ; CSkyObjectQuad::`RTTI Base Class Descriptor at (0,-1,0,64)'
	DD	00H
	DD	00H
	DD	0ffffffffH
	DD	00H
	DD	040H
	DD	FLAT:??_R3CSkyObjectQuad@@8
rdata$r	ENDS
;	COMDAT ??_R2CSkyObjectQuad@@8
rdata$r	SEGMENT
??_R2CSkyObjectQuad@@8 DD FLAT:??_R1A@?0A@EA@CSkyObjectQuad@@8 ; CSkyObjectQuad::`RTTI Base Class Array'
rdata$r	ENDS
;	COMDAT ??_R3CSkyObjectQuad@@8
rdata$r	SEGMENT
??_R3CSkyObjectQuad@@8 DD 00H				; CSkyObjectQuad::`RTTI Class Hierarchy Descriptor'
	DD	00H
	DD	01H
	DD	FLAT:??_R2CSkyObjectQuad@@8
rdata$r	ENDS
;	COMDAT ??_R0?AVCSkyObjectQuad@@@8
data$rs	SEGMENT
??_R0?AVCSkyObjectQuad@@@8 DD FLAT:??_7type_info@@6B@	; CSkyObjectQuad `RTTI Type Descriptor'
	DD	00H
	DB	'.?AVCSkyObjectQuad@@', 00H
data$rs	ENDS
;	COMDAT ??_R4CSkyObjectQuad@@6B@
rdata$r	SEGMENT
??_R4CSkyObjectQuad@@6B@ DD 00H				; CSkyObjectQuad::`RTTI Complete Object Locator'
	DD	00H
	DD	00H
	DD	FLAT:??_R0?AVCSkyObjectQuad@@@8
	DD	FLAT:??_R3CSkyObjectQuad@@8
rdata$r	ENDS
;	COMDAT ??_C@_0BA@FOIKENOD@vector?5too?5long@
CONST	SEGMENT
??_C@_0BA@FOIKENOD@vector?5too?5long@ DB 'vector too long', 00H ; `string'
CONST	ENDS
;	COMDAT ??_C@_0BJ@DHFDPMIM@invalid?5vector?5subscript@
CONST	SEGMENT
??_C@_0BJ@DHFDPMIM@invalid?5vector?5subscript@ DB 'invalid vector subscri'
	DB	'pt', 00H					; `string'
CONST	ENDS
;	COMDAT ??_C@_06PMMPCIPB@bottom@
CONST	SEGMENT
??_C@_06PMMPCIPB@bottom@ DB 'bottom', 00H		; `string'
CONST	ENDS
;	COMDAT ??_C@_03FGFCOCMD@top@
CONST	SEGMENT
??_C@_03FGFCOCMD@top@ DB 'top', 00H			; `string'
CONST	ENDS
;	COMDAT ??_C@_05DHJDAOHK@right@
CONST	SEGMENT
??_C@_05DHJDAOHK@right@ DB 'right', 00H			; `string'
CONST	ENDS
;	COMDAT ??_C@_04GOOOJOPP@left@
CONST	SEGMENT
??_C@_04GOOOJOPP@left@ DB 'left', 00H			; `string'
CONST	ENDS
;	COMDAT ??_C@_04JFCNHLLM@back@
CONST	SEGMENT
??_C@_04JFCNHLLM@back@ DB 'back', 00H			; `string'
CONST	ENDS
;	COMDAT ??_C@_05HJNNLMDJ@front@
CONST	SEGMENT
??_C@_05HJNNLMDJ@front@ DB 'front', 00H			; `string'
CONST	ENDS
;	COMDAT ??_7CSkyBox@@6B@
CONST	SEGMENT
??_7CSkyBox@@6B@ DD FLAT:??_R4CSkyBox@@6B@		; CSkyBox::`vftable'
	DD	FLAT:??_ECSkyBox@@UAEPAXI@Z
	DD	FLAT:?Destroy@CSkyBox@@UAEXXZ
	DD	FLAT:?Render@CSkyBox@@UAEXXZ
	DD	FLAT:?Update@CSkyBox@@UAEXXZ
	DD	FLAT:?StartTransition@CSkyBox@@UAEXXZ
CONST	ENDS
;	COMDAT ??_7CSkyObject@@6B@
CONST	SEGMENT
??_7CSkyObject@@6B@ DD FLAT:??_R4CSkyObject@@6B@	; CSkyObject::`vftable'
	DD	FLAT:??_ECSkyObject@@UAEPAXI@Z
	DD	FLAT:__purecall
	DD	FLAT:__purecall
	DD	FLAT:__purecall
	DD	FLAT:?StartTransition@CSkyObject@@UAEXXZ
CONST	ENDS
;	COMDAT ??_7CSkyObjectQuad@@6B@
CONST	SEGMENT
??_7CSkyObjectQuad@@6B@ DD FLAT:??_R4CSkyObjectQuad@@6B@ ; CSkyObjectQuad::`vftable'
	DD	FLAT:??_ECSkyObjectQuad@@UAEPAXI@Z
CONST	ENDS
;	COMDAT ??_R1A@?0A@EA@bad_array_new_length@std@@8
rdata$r	SEGMENT
??_R1A@?0A@EA@bad_array_new_length@std@@8 DD FLAT:??_R0?AVbad_array_new_length@std@@@8 ; std::bad_array_new_length::`RTTI Base Class Descriptor at (0,-1,0,64)'
	DD	02H
	DD	00H
	DD	0ffffffffH
	DD	00H
	DD	040H
	DD	FLAT:??_R3bad_array_new_length@std@@8
rdata$r	ENDS
;	COMDAT ??_R2bad_array_new_length@std@@8
rdata$r	SEGMENT
??_R2bad_array_new_length@std@@8 DD FLAT:??_R1A@?0A@EA@bad_array_new_length@std@@8 ; std::bad_array_new_length::`RTTI Base Class Array'
	DD	FLAT:??_R1A@?0A@EA@bad_alloc@std@@8
	DD	FLAT:??_R1A@?0A@EA@exception@std@@8
rdata$r	ENDS
;	COMDAT ??_R3bad_array_new_length@std@@8
rdata$r	SEGMENT
??_R3bad_array_new_length@std@@8 DD 00H			; std::bad_array_new_length::`RTTI Class Hierarchy Descriptor'
	DD	00H
	DD	03H
	DD	FLAT:??_R2bad_array_new_length@std@@8
rdata$r	ENDS
;	COMDAT ??_R4bad_array_new_length@std@@6B@
rdata$r	SEGMENT
??_R4bad_array_new_length@std@@6B@ DD 00H		; std::bad_array_new_length::`RTTI Complete Object Locator'
	DD	00H
	DD	00H
	DD	FLAT:??_R0?AVbad_array_new_length@std@@@8
	DD	FLAT:??_R3bad_array_new_length@std@@8
rdata$r	ENDS
;	COMDAT ??_R1A@?0A@EA@bad_alloc@std@@8
rdata$r	SEGMENT
??_R1A@?0A@EA@bad_alloc@std@@8 DD FLAT:??_R0?AVbad_alloc@std@@@8 ; std::bad_alloc::`RTTI Base Class Descriptor at (0,-1,0,64)'
	DD	01H
	DD	00H
	DD	0ffffffffH
	DD	00H
	DD	040H
	DD	FLAT:??_R3bad_alloc@std@@8
rdata$r	ENDS
;	COMDAT ??_R2bad_alloc@std@@8
rdata$r	SEGMENT
??_R2bad_alloc@std@@8 DD FLAT:??_R1A@?0A@EA@bad_alloc@std@@8 ; std::bad_alloc::`RTTI Base Class Array'
	DD	FLAT:??_R1A@?0A@EA@exception@std@@8
rdata$r	ENDS
;	COMDAT ??_R3bad_alloc@std@@8
rdata$r	SEGMENT
??_R3bad_alloc@std@@8 DD 00H				; std::bad_alloc::`RTTI Class Hierarchy Descriptor'
	DD	00H
	DD	02H
	DD	FLAT:??_R2bad_alloc@std@@8
rdata$r	ENDS
;	COMDAT ??_R4bad_alloc@std@@6B@
rdata$r	SEGMENT
??_R4bad_alloc@std@@6B@ DD 00H				; std::bad_alloc::`RTTI Complete Object Locator'
	DD	00H
	DD	00H
	DD	FLAT:??_R0?AVbad_alloc@std@@@8
	DD	FLAT:??_R3bad_alloc@std@@8
rdata$r	ENDS
;	COMDAT ??_R1A@?0A@EA@exception@std@@8
rdata$r	SEGMENT
??_R1A@?0A@EA@exception@std@@8 DD FLAT:??_R0?AVexception@std@@@8 ; std::exception::`RTTI Base Class Descriptor at (0,-1,0,64)'
	DD	00H
	DD	00H
	DD	0ffffffffH
	DD	00H
	DD	040H
	DD	FLAT:??_R3exception@std@@8
rdata$r	ENDS
;	COMDAT ??_R2exception@std@@8
rdata$r	SEGMENT
??_R2exception@std@@8 DD FLAT:??_R1A@?0A@EA@exception@std@@8 ; std::exception::`RTTI Base Class Array'
rdata$r	ENDS
;	COMDAT ??_R3exception@std@@8
rdata$r	SEGMENT
??_R3exception@std@@8 DD 00H				; std::exception::`RTTI Class Hierarchy Descriptor'
	DD	00H
	DD	01H
	DD	FLAT:??_R2exception@std@@8
rdata$r	ENDS
;	COMDAT ??_R4exception@std@@6B@
rdata$r	SEGMENT
??_R4exception@std@@6B@ DD 00H				; std::exception::`RTTI Complete Object Locator'
	DD	00H
	DD	00H
	DD	FLAT:??_R0?AVexception@std@@@8
	DD	FLAT:??_R3exception@std@@8
rdata$r	ENDS
;	COMDAT ??_C@_0BB@GCADKGJO@map?1set?5too?5long@
CONST	SEGMENT
??_C@_0BB@GCADKGJO@map?1set?5too?5long@ DB 'map/set too long', 00H ; `string'
CONST	ENDS
;	COMDAT ??_C@_0BA@JFNIOLAK@string?5too?5long@
CONST	SEGMENT
??_C@_0BA@JFNIOLAK@string?5too?5long@ DB 'string too long', 00H ; `string'
CONST	ENDS
;	COMDAT __CT??_R0?AVexception@std@@@8??0exception@std@@QAE@ABV01@@Z12
xdata$x	SEGMENT
__CT??_R0?AVexception@std@@@8??0exception@std@@QAE@ABV01@@Z12 DD 00H
	DD	FLAT:??_R0?AVexception@std@@@8
	DD	00H
	DD	0ffffffffH
	ORG $+4
	DD	0cH
	DD	FLAT:??0exception@std@@QAE@ABV01@@Z
xdata$x	ENDS
;	COMDAT ??_R0?AVexception@std@@@8
data$r	SEGMENT
??_R0?AVexception@std@@@8 DD FLAT:??_7type_info@@6B@	; std::exception `RTTI Type Descriptor'
	DD	00H
	DB	'.?AVexception@std@@', 00H
data$r	ENDS
;	COMDAT __CT??_R0?AVbad_alloc@std@@@8??0bad_alloc@std@@QAE@ABV01@@Z12
xdata$x	SEGMENT
__CT??_R0?AVbad_alloc@std@@@8??0bad_alloc@std@@QAE@ABV01@@Z12 DD 010H
	DD	FLAT:??_R0?AVbad_alloc@std@@@8
	DD	00H
	DD	0ffffffffH
	ORG $+4
	DD	0cH
	DD	FLAT:??0bad_alloc@std@@QAE@ABV01@@Z
xdata$x	ENDS
;	COMDAT ??_R0?AVbad_alloc@std@@@8
data$r	SEGMENT
??_R0?AVbad_alloc@std@@@8 DD FLAT:??_7type_info@@6B@	; std::bad_alloc `RTTI Type Descriptor'
	DD	00H
	DB	'.?AVbad_alloc@std@@', 00H
data$r	ENDS
;	COMDAT __CT??_R0?AVbad_array_new_length@std@@@8??0bad_array_new_length@std@@QAE@ABV01@@Z12
xdata$x	SEGMENT
__CT??_R0?AVbad_array_new_length@std@@@8??0bad_array_new_length@std@@QAE@ABV01@@Z12 DD 00H
	DD	FLAT:??_R0?AVbad_array_new_length@std@@@8
	DD	00H
	DD	0ffffffffH
	ORG $+4
	DD	0cH
	DD	FLAT:??0bad_array_new_length@std@@QAE@ABV01@@Z
xdata$x	ENDS
;	COMDAT ??_R0?AVbad_array_new_length@std@@@8
data$r	SEGMENT
??_R0?AVbad_array_new_length@std@@@8 DD FLAT:??_7type_info@@6B@ ; std::bad_array_new_length `RTTI Type Descriptor'
	DD	00H
	DB	'.?AVbad_array_new_length@std@@', 00H
data$r	ENDS
;	COMDAT __CTA3?AVbad_array_new_length@std@@
xdata$x	SEGMENT
__CTA3?AVbad_array_new_length@std@@ DD 03H
	DD	FLAT:__CT??_R0?AVbad_array_new_length@std@@@8??0bad_array_new_length@std@@QAE@ABV01@@Z12
	DD	FLAT:__CT??_R0?AVbad_alloc@std@@@8??0bad_alloc@std@@QAE@ABV01@@Z12
	DD	FLAT:__CT??_R0?AVexception@std@@@8??0exception@std@@QAE@ABV01@@Z12
xdata$x	ENDS
;	COMDAT __TI3?AVbad_array_new_length@std@@
xdata$x	SEGMENT
__TI3?AVbad_array_new_length@std@@ DD 00H
	DD	FLAT:??1bad_array_new_length@std@@UAE@XZ
	DD	00H
	DD	FLAT:__CTA3?AVbad_array_new_length@std@@
xdata$x	ENDS
;	COMDAT ??_C@_0BF@KINCDENJ@bad?5array?5new?5length@
CONST	SEGMENT
??_C@_0BF@KINCDENJ@bad?5array?5new?5length@ DB 'bad array new length', 00H ; `string'
CONST	ENDS
;	COMDAT ??_7bad_array_new_length@std@@6B@
CONST	SEGMENT
??_7bad_array_new_length@std@@6B@ DD FLAT:??_R4bad_array_new_length@std@@6B@ ; std::bad_array_new_length::`vftable'
	DD	FLAT:??_Ebad_array_new_length@std@@UAEPAXI@Z
	DD	FLAT:?what@exception@std@@UBEPBDXZ
CONST	ENDS
;	COMDAT ??_7bad_alloc@std@@6B@
CONST	SEGMENT
??_7bad_alloc@std@@6B@ DD FLAT:??_R4bad_alloc@std@@6B@	; std::bad_alloc::`vftable'
	DD	FLAT:??_Ebad_alloc@std@@UAEPAXI@Z
	DD	FLAT:?what@exception@std@@UBEPBDXZ
CONST	ENDS
;	COMDAT ??_C@_0BC@EOODALEL@Unknown?5exception@
CONST	SEGMENT
??_C@_0BC@EOODALEL@Unknown?5exception@ DB 'Unknown exception', 00H ; `string'
CONST	ENDS
;	COMDAT ??_7exception@std@@6B@
CONST	SEGMENT
??_7exception@std@@6B@ DD FLAT:??_R4exception@std@@6B@	; std::exception::`vftable'
	DD	FLAT:??_Eexception@std@@UAEPAXI@Z
	DD	FLAT:?what@exception@std@@UBEPBDXZ
CONST	ENDS
;	COMDAT xdata$x
xdata$x	SEGMENT
__unwindtable$??$?0U?$pair@$$CBV?$basic_string@DU?$char_traits@D@std@@V?$allocator@D@2@@std@@PAVCGraphicImageInstance@@@std@@@?$_Tree_temp_node@V?$allocator@U?$_Tree_node@U?$pair@$$CBV?$basic_string@DU?$char_traits@D@std@@V?$allocator@D@2@@std@@PAVCGraphicImageInstance@@@std@@PAX@std@@@std@@@std@@QAE@AAV?$allocator@U?$_Tree_node@U?$pair@$$CBV?$basic_string@DU?$char_traits@D@std@@V?$allocator@D@2@@std@@PAVCGraphicImageInstance@@@std@@PAX@std@@@1@PAU?$_Tree_node@U?$pair@$$CBV?$basic_string@DU?$char_traits@D@std@@V?$allocator@D@2@@std@@PAVCGraphicImageInstance@@@std@@PAX@1@$$QAU?$pair@$$CBV?$basic_string@DU?$char_traits@D@std@@V?$allocator@D@2@@std@@PAVCGraphicImageInstance@@@1@@Z DD 0ffffffffH
	DD	FLAT:__unwindfunclet$??$?0U?$pair@$$CBV?$basic_string@DU?$char_traits@D@std@@V?$allocator@D@2@@std@@PAVCGraphicImageInstance@@@std@@@?$_Tree_temp_node@V?$allocator@U?$_Tree_node@U?$pair@$$CBV?$basic_string@DU?$char_traits@D@std@@V?$allocator@D@2@@std@@PAVCGraphicImageInstance@@@std@@PAX@std@@@std@@@std@@QAE@AAV?$allocator@U?$_Tree_node@U?$pair@$$CBV?$basic_string@DU?$char_traits@D@std@@V?$allocator@D@2@@std@@PAVCGraphicImageInstance@@@std@@PAX@std@@@1@PAU?$_Tree_node@U?$pair@$$CBV?$basic_string@DU?$char_traits@D@std@@V?$allocator@D@2@@std@@PAVCGraphicImageInstance@@@std@@PAX@1@$$QAU?$pair@$$CBV?$basic_string@DU?$char_traits@D@std@@V?$allocator@D@2@@std@@PAVCGraphicImageInstance@@@1@@Z$1
	DD	0ffffffffH
	DD	FLAT:__unwindfunclet$??$?0U?$pair@$$CBV?$basic_string@DU?$char_traits@D@std@@V?$allocator@D@2@@std@@PAVCGraphicImageInstance@@@std@@@?$_Tree_temp_node@V?$allocator@U?$_Tree_node@U?$pair@$$CBV?$basic_string@DU?$char_traits@D@std@@V?$allocator@D@2@@std@@PAVCGraphicImageInstance@@@std@@PAX@std@@@std@@@std@@QAE@AAV?$allocator@U?$_Tree_node@U?$pair@$$CBV?$basic_string@DU?$char_traits@D@std@@V?$allocator@D@2@@std@@PAVCGraphicImageInstance@@@std@@PAX@std@@@1@PAU?$_Tree_node@U?$pair@$$CBV?$basic_string@DU?$char_traits@D@std@@V?$allocator@D@2@@std@@PAVCGraphicImageInstance@@@std@@PAX@1@$$QAU?$pair@$$CBV?$basic_string@DU?$char_traits@D@std@@V?$allocator@D@2@@std@@PAVCGraphicImageInstance@@@1@@Z$0
__ehfuncinfo$??$?0U?$pair@$$CBV?$basic_string@DU?$char_traits@D@std@@V?$allocator@D@2@@std@@PAVCGraphicImageInstance@@@std@@@?$_Tree_temp_node@V?$allocator@U?$_Tree_node@U?$pair@$$CBV?$basic_string@DU?$char_traits@D@std@@V?$allocator@D@2@@std@@PAVCGraphicImageInstance@@@std@@PAX@std@@@std@@@std@@QAE@AAV?$allocator@U?$_Tree_node@U?$pair@$$CBV?$basic_string@DU?$char_traits@D@std@@V?$allocator@D@2@@std@@PAVCGraphicImageInstance@@@std@@PAX@std@@@1@PAU?$_Tree_node@U?$pair@$$CBV?$basic_string@DU?$char_traits@D@std@@V?$allocator@D@2@@std@@PAVCGraphicImageInstance@@@std@@PAX@1@$$QAU?$pair@$$CBV?$basic_string@DU?$char_traits@D@std@@V?$allocator@D@2@@std@@PAVCGraphicImageInstance@@@1@@Z DD 019930522H
	DD	02H
	DD	FLAT:__unwindtable$??$?0U?$pair@$$CBV?$basic_string@DU?$char_traits@D@std@@V?$allocator@D@2@@std@@PAVCGraphicImageInstance@@@std@@@?$_Tree_temp_node@V?$allocator@U?$_Tree_node@U?$pair@$$CBV?$basic_string@DU?$char_traits@D@std@@V?$allocator@D@2@@std@@PAVCGraphicImageInstance@@@std@@PAX@std@@@std@@@std@@QAE@AAV?$allocator@U?$_Tree_node@U?$pair@$$CBV?$basic_string@DU?$char_traits@D@std@@V?$allocator@D@2@@std@@PAVCGraphicImageInstance@@@std@@PAX@std@@@1@PAU?$_Tree_node@U?$pair@$$CBV?$basic_string@DU?$char_traits@D@std@@V?$allocator@D@2@@std@@PAVCGraphicImageInstance@@@std@@PAX@1@$$QAU?$pair@$$CBV?$basic_string@DU?$char_traits@D@std@@V?$allocator@D@2@@std@@PAVCGraphicImageInstance@@@1@@Z
	DD	2 DUP(00H)
	DD	2 DUP(00H)
	DD	00H
	DD	01H
xdata$x	ENDS
;	COMDAT xdata$x
xdata$x	SEGMENT
__unwindtable$??$_Uninitialized_value_construct_n@V?$allocator@VCSkyObjectQuad@@@std@@@std@@YAPAVCSkyObjectQuad@@PAV1@IAAV?$allocator@VCSkyObjectQuad@@@0@@Z DD 0ffffffffH
	DD	FLAT:__unwindfunclet$??$_Uninitialized_value_construct_n@V?$allocator@VCSkyObjectQuad@@@std@@@std@@YAPAVCSkyObjectQuad@@PAV1@IAAV?$allocator@VCSkyObjectQuad@@@0@@Z$0
__ehfuncinfo$??$_Uninitialized_value_construct_n@V?$allocator@VCSkyObjectQuad@@@std@@@std@@YAPAVCSkyObjectQuad@@PAV1@IAAV?$allocator@VCSkyObjectQuad@@@0@@Z DD 019930522H
	DD	01H
	DD	FLAT:__unwindtable$??$_Uninitialized_value_construct_n@V?$allocator@VCSkyObjectQuad@@@std@@@std@@YAPAVCSkyObjectQuad@@PAV1@IAAV?$allocator@VCSkyObjectQuad@@@0@@Z
	DD	2 DUP(00H)
	DD	2 DUP(00H)
	DD	00H
	DD	01H
xdata$x	ENDS
;	COMDAT xdata$x
xdata$x	SEGMENT
__catchsym$??$_Resize_reallocate@U_Value_init_tag@std@@@?$vector@VCSkyObjectQuad@@V?$allocator@VCSkyObjectQuad@@@std@@@std@@AAEXIABU_Value_init_tag@1@@Z$3 DD 040H
	DD	00H
	DD	00H
	DD	FLAT:__catch$??$_Resize_reallocate@U_Value_init_tag@std@@@?$vector@VCSkyObjectQuad@@V?$allocator@VCSkyObjectQuad@@@std@@@std@@AAEXIABU_Value_init_tag@1@@Z$0
__tryblocktable$??$_Resize_reallocate@U_Value_init_tag@std@@@?$vector@VCSkyObjectQuad@@V?$allocator@VCSkyObjectQuad@@@std@@@std@@AAEXIABU_Value_init_tag@1@@Z DD 00H
	DD	01H
	DD	02H
	DD	01H
	DD	FLAT:__catchsym$??$_Resize_reallocate@U_Value_init_tag@std@@@?$vector@VCSkyObjectQuad@@V?$allocator@VCSkyObjectQuad@@@std@@@std@@AAEXIABU_Value_init_tag@1@@Z$3
__unwindtable$??$_Resize_reallocate@U_Value_init_tag@std@@@?$vector@VCSkyObjectQuad@@V?$allocator@VCSkyObjectQuad@@@std@@@std@@AAEXIABU_Value_init_tag@1@@Z DD 0ffffffffH
	DD	00H
	DD	00H
	DD	FLAT:__unwindfunclet$??$_Resize_reallocate@U_Value_init_tag@std@@@?$vector@VCSkyObjectQuad@@V?$allocator@VCSkyObjectQuad@@@std@@@std@@AAEXIABU_Value_init_tag@1@@Z$2
	DD	0ffffffffH
	DD	00H
__ehfuncinfo$??$_Resize_reallocate@U_Value_init_tag@std@@@?$vector@VCSkyObjectQuad@@V?$allocator@VCSkyObjectQuad@@@std@@@std@@AAEXIABU_Value_init_tag@1@@Z DD 019930522H
	DD	03H
	DD	FLAT:__unwindtable$??$_Resize_reallocate@U_Value_init_tag@std@@@?$vector@VCSkyObjectQuad@@V?$allocator@VCSkyObjectQuad@@@std@@@std@@AAEXIABU_Value_init_tag@1@@Z
	DD	01H
	DD	FLAT:__tryblocktable$??$_Resize_reallocate@U_Value_init_tag@std@@@?$vector@VCSkyObjectQuad@@V?$allocator@VCSkyObjectQuad@@@std@@@std@@AAEXIABU_Value_init_tag@1@@Z
	DD	2 DUP(00H)
	DD	00H
	DD	01H
xdata$x	ENDS
;	COMDAT xdata$x
xdata$x	SEGMENT
__unwindtable$??$?0ABUpiecewise_construct_t@std@@V?$tuple@ABV?$basic_string@DU?$char_traits@D@std@@V?$allocator@D@2@@std@@@1@V?$tuple@$$V@1@@?$_Tree_temp_node@V?$allocator@U?$_Tree_node@U?$pair@$$CBV?$basic_string@DU?$char_traits@D@std@@V?$allocator@D@2@@std@@PAVCGraphicImageInstance@@@std@@PAX@std@@@std@@@std@@QAE@AAV?$allocator@U?$_Tree_node@U?$pair@$$CBV?$basic_string@DU?$char_traits@D@std@@V?$allocator@D@2@@std@@PAVCGraphicImageInstance@@@std@@PAX@std@@@1@PAU?$_Tree_node@U?$pair@$$CBV?$basic_string@DU?$char_traits@D@std@@V?$allocator@D@2@@std@@PAVCGraphicImageInstance@@@std@@PAX@1@ABUpiecewise_construct_t@1@$$QAV?$tuple@ABV?$basic_string@DU?$char_traits@D@std@@V?$allocator@D@2@@std@@@1@$$QAV?$tuple@$$V@1@@Z DD 0ffffffffH
	DD	FLAT:__unwindfunclet$??$?0ABUpiecewise_construct_t@std@@V?$tuple@ABV?$basic_string@DU?$char_traits@D@std@@V?$allocator@D@2@@std@@@1@V?$tuple@$$V@1@@?$_Tree_temp_node@V?$allocator@U?$_Tree_node@U?$pair@$$CBV?$basic_string@DU?$char_traits@D@std@@V?$allocator@D@2@@std@@PAVCGraphicImageInstance@@@std@@PAX@std@@@std@@@std@@QAE@AAV?$allocator@U?$_Tree_node@U?$pair@$$CBV?$basic_string@DU?$char_traits@D@std@@V?$allocator@D@2@@std@@PAVCGraphicImageInstance@@@std@@PAX@std@@@1@PAU?$_Tree_node@U?$pair@$$CBV?$basic_string@DU?$char_traits@D@std@@V?$allocator@D@2@@std@@PAVCGraphicImageInstance@@@std@@PAX@1@ABUpiecewise_construct_t@1@$$QAV?$tuple@ABV?$basic_string@DU?$char_traits@D@std@@V?$allocator@D@2@@std@@@1@$$QAV?$tuple@$$V@1@@Z$1
	DD	0ffffffffH
	DD	FLAT:__unwindfunclet$??$?0ABUpiecewise_construct_t@std@@V?$tuple@ABV?$basic_string@DU?$char_traits@D@std@@V?$allocator@D@2@@std@@@1@V?$tuple@$$V@1@@?$_Tree_temp_node@V?$allocator@U?$_Tree_node@U?$pair@$$CBV?$basic_string@DU?$char_traits@D@std@@V?$allocator@D@2@@std@@PAVCGraphicImageInstance@@@std@@PAX@std@@@std@@@std@@QAE@AAV?$allocator@U?$_Tree_node@U?$pair@$$CBV?$basic_string@DU?$char_traits@D@std@@V?$allocator@D@2@@std@@PAVCGraphicImageInstance@@@std@@PAX@std@@@1@PAU?$_Tree_node@U?$pair@$$CBV?$basic_string@DU?$char_traits@D@std@@V?$allocator@D@2@@std@@PAVCGraphicImageInstance@@@std@@PAX@1@ABUpiecewise_construct_t@1@$$QAV?$tuple@ABV?$basic_string@DU?$char_traits@D@std@@V?$allocator@D@2@@std@@@1@$$QAV?$tuple@$$V@1@@Z$0
__ehfuncinfo$??$?0ABUpiecewise_construct_t@std@@V?$tuple@ABV?$basic_string@DU?$char_traits@D@std@@V?$allocator@D@2@@std@@@1@V?$tuple@$$V@1@@?$_Tree_temp_node@V?$allocator@U?$_Tree_node@U?$pair@$$CBV?$basic_string@DU?$char_traits@D@std@@V?$allocator@D@2@@std@@PAVCGraphicImageInstance@@@std@@PAX@std@@@std@@@std@@QAE@AAV?$allocator@U?$_Tree_node@U?$pair@$$CBV?$basic_string@DU?$char_traits@D@std@@V?$allocator@D@2@@std@@PAVCGraphicImageInstance@@@std@@PAX@std@@@1@PAU?$_Tree_node@U?$pair@$$CBV?$basic_string@DU?$char_traits@D@std@@V?$allocator@D@2@@std@@PAVCGraphicImageInstance@@@std@@PAX@1@ABUpiecewise_construct_t@1@$$QAV?$tuple@ABV?$basic_string@DU?$char_traits@D@std@@V?$allocator@D@2@@std@@@1@$$QAV?$tuple@$$V@1@@Z DD 019930522H
	DD	02H
	DD	FLAT:__unwindtable$??$?0ABUpiecewise_construct_t@std@@V?$tuple@ABV?$basic_string@DU?$char_traits@D@std@@V?$allocator@D@2@@std@@@1@V?$tuple@$$V@1@@?$_Tree_temp_node@V?$allocator@U?$_Tree_node@U?$pair@$$CBV?$basic_string@DU?$char_traits@D@std@@V?$allocator@D@2@@std@@PAVCGraphicImageInstance@@@std@@PAX@std@@@std@@@std@@QAE@AAV?$allocator@U?$_Tree_node@U?$pair@$$CBV?$basic_string@DU?$char_traits@D@std@@V?$allocator@D@2@@std@@PAVCGraphicImageInstance@@@std@@PAX@std@@@1@PAU?$_Tree_node@U?$pair@$$CBV?$basic_string@DU?$char_traits@D@std@@V?$allocator@D@2@@std@@PAVCGraphicImageInstance@@@std@@PAX@1@ABUpiecewise_construct_t@1@$$QAV?$tuple@ABV?$basic_string@DU?$char_traits@D@std@@V?$allocator@D@2@@std@@@1@$$QAV?$tuple@$$V@1@@Z
	DD	2 DUP(00H)
	DD	2 DUP(00H)
	DD	00H
	DD	01H
xdata$x	ENDS
;	COMDAT xdata$x
xdata$x	SEGMENT
__unwindtable$??0?$_Tree_temp_node_alloc@V?$allocator@U?$_Tree_node@U?$pair@$$CBV?$basic_string@DU?$char_traits@D@std@@V?$allocator@D@2@@std@@PAVCGraphicImageInstance@@@std@@PAX@std@@@std@@@std@@QAE@AAV?$allocator@U?$_Tree_node@U?$pair@$$CBV?$basic_string@DU?$char_traits@D@std@@V?$allocator@D@2@@std@@PAVCGraphicImageInstance@@@std@@PAX@std@@@1@@Z DD 0ffffffffH
	DD	FLAT:__unwindfunclet$??0?$_Tree_temp_node_alloc@V?$allocator@U?$_Tree_node@U?$pair@$$CBV?$basic_string@DU?$char_traits@D@std@@V?$allocator@D@2@@std@@PAVCGraphicImageInstance@@@std@@PAX@std@@@std@@@std@@QAE@AAV?$allocator@U?$_Tree_node@U?$pair@$$CBV?$basic_string@DU?$char_traits@D@std@@V?$allocator@D@2@@std@@PAVCGraphicImageInstance@@@std@@PAX@std@@@1@@Z$0
__ehfuncinfo$??0?$_Tree_temp_node_alloc@V?$allocator@U?$_Tree_node@U?$pair@$$CBV?$basic_string@DU?$char_traits@D@std@@V?$allocator@D@2@@std@@PAVCGraphicImageInstance@@@std@@PAX@std@@@std@@@std@@QAE@AAV?$allocator@U?$_Tree_node@U?$pair@$$CBV?$basic_string@DU?$char_traits@D@std@@V?$allocator@D@2@@std@@PAVCGraphicImageInstance@@@std@@PAX@std@@@1@@Z DD 019930522H
	DD	01H
	DD	FLAT:__unwindtable$??0?$_Tree_temp_node_alloc@V?$allocator@U?$_Tree_node@U?$pair@$$CBV?$basic_string@DU?$char_traits@D@std@@V?$allocator@D@2@@std@@PAVCGraphicImageInstance@@@std@@PAX@std@@@std@@@std@@QAE@AAV?$allocator@U?$_Tree_node@U?$pair@$$CBV?$basic_string@DU?$char_traits@D@std@@V?$allocator@D@2@@std@@PAVCGraphicImageInstance@@@std@@PAX@std@@@1@@Z
	DD	2 DUP(00H)
	DD	2 DUP(00H)
	DD	00H
	DD	01H
xdata$x	ENDS
;	COMDAT xdata$x
xdata$x	SEGMENT
__unwindtable$??$_Emplace@U?$pair@$$CBV?$basic_string@DU?$char_traits@D@std@@V?$allocator@D@2@@std@@PAVCGraphicImageInstance@@@std@@@?$_Tree@V?$_Tmap_traits@V?$basic_string@DU?$char_traits@D@std@@V?$allocator@D@2@@std@@PAVCGraphicImageInstance@@U?$less@V?$basic_string@DU?$char_traits@D@std@@V?$allocator@D@2@@std@@@2@V?$allocator@U?$pair@$$CBV?$basic_string@DU?$char_traits@D@std@@V?$allocator@D@2@@std@@PAVCGraphicImageInstance@@@std@@@2@$0A@@std@@@std@@IAE?AU?$pair@PAU?$_Tree_node@U?$pair@$$CBV?$basic_string@DU?$char_traits@D@std@@V?$allocator@D@2@@std@@PAVCGraphicImageInstance@@@std@@PAX@std@@_N@1@$$QAU?$pair@$$CBV?$basic_string@DU?$char_traits@D@std@@V?$allocator@D@2@@std@@PAVCGraphicImageInstance@@@1@@Z DD 0ffffffffH
	DD	FLAT:__unwindfunclet$??$_Emplace@U?$pair@$$CBV?$basic_string@DU?$char_traits@D@std@@V?$allocator@D@2@@std@@PAVCGraphicImageInstance@@@std@@@?$_Tree@V?$_Tmap_traits@V?$basic_string@DU?$char_traits@D@std@@V?$allocator@D@2@@std@@PAVCGraphicImageInstance@@U?$less@V?$basic_string@DU?$char_traits@D@std@@V?$allocator@D@2@@std@@@2@V?$allocator@U?$pair@$$CBV?$basic_string@DU?$char_traits@D@std@@V?$allocator@D@2@@std@@PAVCGraphicImageInstance@@@std@@@2@$0A@@std@@@std@@IAE?AU?$pair@PAU?$_Tree_node@U?$pair@$$CBV?$basic_string@DU?$char_traits@D@std@@V?$allocator@D@2@@std@@PAVCGraphicImageInstance@@@std@@PAX@std@@_N@1@$$QAU?$pair@$$CBV?$basic_string@DU?$char_traits@D@std@@V?$allocator@D@2@@std@@PAVCGraphicImageInstance@@@1@@Z$2
	DD	0ffffffffH
	DD	FLAT:__unwindfunclet$??$_Emplace@U?$pair@$$CBV?$basic_string@DU?$char_traits@D@std@@V?$allocator@D@2@@std@@PAVCGraphicImageInstance@@@std@@@?$_Tree@V?$_Tmap_traits@V?$basic_string@DU?$char_traits@D@std@@V?$allocator@D@2@@std@@PAVCGraphicImageInstance@@U?$less@V?$basic_string@DU?$char_traits@D@std@@V?$allocator@D@2@@std@@@2@V?$allocator@U?$pair@$$CBV?$basic_string@DU?$char_traits@D@std@@V?$allocator@D@2@@std@@PAVCGraphicImageInstance@@@std@@@2@$0A@@std@@@std@@IAE?AU?$pair@PAU?$_Tree_node@U?$pair@$$CBV?$basic_string@DU?$char_traits@D@std@@V?$allocator@D@2@@std@@PAVCGraphicImageInstance@@@std@@PAX@std@@_N@1@$$QAU?$pair@$$CBV?$basic_string@DU?$char_traits@D@std@@V?$allocator@D@2@@std@@PAVCGraphicImageInstance@@@1@@Z$1
__ehfuncinfo$??$_Emplace@U?$pair@$$CBV?$basic_string@DU?$char_traits@D@std@@V?$allocator@D@2@@std@@PAVCGraphicImageInstance@@@std@@@?$_Tree@V?$_Tmap_traits@V?$basic_string@DU?$char_traits@D@std@@V?$allocator@D@2@@std@@PAVCGraphicImageInstance@@U?$less@V?$basic_string@DU?$char_traits@D@std@@V?$allocator@D@2@@std@@@2@V?$allocator@U?$pair@$$CBV?$basic_string@DU?$char_traits@D@std@@V?$allocator@D@2@@std@@PAVCGraphicImageInstance@@@std@@@2@$0A@@std@@@std@@IAE?AU?$pair@PAU?$_Tree_node@U?$pair@$$CBV?$basic_string@DU?$char_traits@D@std@@V?$allocator@D@2@@std@@PAVCGraphicImageInstance@@@std@@PAX@std@@_N@1@$$QAU?$pair@$$CBV?$basic_string@DU?$char_traits@D@std@@V?$allocator@D@2@@std@@PAVCGraphicImageInstance@@@1@@Z DD 019930522H
	DD	02H
	DD	FLAT:__unwindtable$??$_Emplace@U?$pair@$$CBV?$basic_string@DU?$char_traits@D@std@@V?$allocator@D@2@@std@@PAVCGraphicImageInstance@@@std@@@?$_Tree@V?$_Tmap_traits@V?$basic_string@DU?$char_traits@D@std@@V?$allocator@D@2@@std@@PAVCGraphicImageInstance@@U?$less@V?$basic_string@DU?$char_traits@D@std@@V?$allocator@D@2@@std@@@2@V?$allocator@U?$pair@$$CBV?$basic_string@DU?$char_traits@D@std@@V?$allocator@D@2@@std@@PAVCGraphicImageInstance@@@std@@@2@$0A@@std@@@std@@IAE?AU?$pair@PAU?$_Tree_node@U?$pair@$$CBV?$basic_string@DU?$char_traits@D@std@@V?$allocator@D@2@@std@@PAVCGraphicImageInstance@@@std@@PAX@std@@_N@1@$$QAU?$pair@$$CBV?$basic_string@DU?$char_traits@D@std@@V?$allocator@D@2@@std@@PAVCGraphicImageInstance@@@1@@Z
	DD	2 DUP(00H)
	DD	2 DUP(00H)
	DD	00H
	DD	01H
xdata$x	ENDS
;	COMDAT xdata$x
xdata$x	SEGMENT
__unwindtable$??$_Try_emplace@ABV?$basic_string@DU?$char_traits@D@std@@V?$allocator@D@2@@std@@$$V@?$map@V?$basic_string@DU?$char_traits@D@std@@V?$allocator@D@2@@std@@PAVCGraphicImageInstance@@U?$less@V?$basic_string@DU?$char_traits@D@std@@V?$allocator@D@2@@std@@@2@V?$allocator@U?$pair@$$CBV?$basic_string@DU?$char_traits@D@std@@V?$allocator@D@2@@std@@PAVCGraphicImageInstance@@@std@@@2@@std@@AAE?AU?$pair@PAU?$_Tree_node@U?$pair@$$CBV?$basic_string@DU?$char_traits@D@std@@V?$allocator@D@2@@std@@PAVCGraphicImageInstance@@@std@@PAX@std@@_N@1@ABV?$basic_string@DU?$char_traits@D@std@@V?$allocator@D@2@@1@@Z DD 0ffffffffH
	DD	FLAT:__unwindfunclet$??$_Try_emplace@ABV?$basic_string@DU?$char_traits@D@std@@V?$allocator@D@2@@std@@$$V@?$map@V?$basic_string@DU?$char_traits@D@std@@V?$allocator@D@2@@std@@PAVCGraphicImageInstance@@U?$less@V?$basic_string@DU?$char_traits@D@std@@V?$allocator@D@2@@std@@@2@V?$allocator@U?$pair@$$CBV?$basic_string@DU?$char_traits@D@std@@V?$allocator@D@2@@std@@PAVCGraphicImageInstance@@@std@@@2@@std@@AAE?AU?$pair@PAU?$_Tree_node@U?$pair@$$CBV?$basic_string@DU?$char_traits@D@std@@V?$allocator@D@2@@std@@PAVCGraphicImageInstance@@@std@@PAX@std@@_N@1@ABV?$basic_string@DU?$char_traits@D@std@@V?$allocator@D@2@@1@@Z$2
	DD	0ffffffffH
	DD	FLAT:__unwindfunclet$??$_Try_emplace@ABV?$basic_string@DU?$char_traits@D@std@@V?$allocator@D@2@@std@@$$V@?$map@V?$basic_string@DU?$char_traits@D@std@@V?$allocator@D@2@@std@@PAVCGraphicImageInstance@@U?$less@V?$basic_string@DU?$char_traits@D@std@@V?$allocator@D@2@@std@@@2@V?$allocator@U?$pair@$$CBV?$basic_string@DU?$char_traits@D@std@@V?$allocator@D@2@@std@@PAVCGraphicImageInstance@@@std@@@2@@std@@AAE?AU?$pair@PAU?$_Tree_node@U?$pair@$$CBV?$basic_string@DU?$char_traits@D@std@@V?$allocator@D@2@@std@@PAVCGraphicImageInstance@@@std@@PAX@std@@_N@1@ABV?$basic_string@DU?$char_traits@D@std@@V?$allocator@D@2@@1@@Z$1
__ehfuncinfo$??$_Try_emplace@ABV?$basic_string@DU?$char_traits@D@std@@V?$allocator@D@2@@std@@$$V@?$map@V?$basic_string@DU?$char_traits@D@std@@V?$allocator@D@2@@std@@PAVCGraphicImageInstance@@U?$less@V?$basic_string@DU?$char_traits@D@std@@V?$allocator@D@2@@std@@@2@V?$allocator@U?$pair@$$CBV?$basic_string@DU?$char_traits@D@std@@V?$allocator@D@2@@std@@PAVCGraphicImageInstance@@@std@@@2@@std@@AAE?AU?$pair@PAU?$_Tree_node@U?$pair@$$CBV?$basic_string@DU?$char_traits@D@std@@V?$allocator@D@2@@std@@PAVCGraphicImageInstance@@@std@@PAX@std@@_N@1@ABV?$basic_string@DU?$char_traits@D@std@@V?$allocator@D@2@@1@@Z DD 019930522H
	DD	02H
	DD	FLAT:__unwindtable$??$_Try_emplace@ABV?$basic_string@DU?$char_traits@D@std@@V?$allocator@D@2@@std@@$$V@?$map@V?$basic_string@DU?$char_traits@D@std@@V?$allocator@D@2@@std@@PAVCGraphicImageInstance@@U?$less@V?$basic_string@DU?$char_traits@D@std@@V?$allocator@D@2@@std@@@2@V?$allocator@U?$pair@$$CBV?$basic_string@DU?$char_traits@D@std@@V?$allocator@D@2@@std@@PAVCGraphicImageInstance@@@std@@@2@@std@@AAE?AU?$pair@PAU?$_Tree_node@U?$pair@$$CBV?$basic_string@DU?$char_traits@D@std@@V?$allocator@D@2@@std@@PAVCGraphicImageInstance@@@std@@PAX@std@@_N@1@ABV?$basic_string@DU?$char_traits@D@std@@V?$allocator@D@2@@1@@Z
	DD	2 DUP(00H)
	DD	2 DUP(00H)
	DD	00H
	DD	01H
xdata$x	ENDS
;	COMDAT xdata$x
xdata$x	SEGMENT
__unwindtable$??$insert@$0A@$0A@@?$_Tree@V?$_Tmap_traits@V?$basic_string@DU?$char_traits@D@std@@V?$allocator@D@2@@std@@PAVCGraphicImageInstance@@U?$less@V?$basic_string@DU?$char_traits@D@std@@V?$allocator@D@2@@std@@@2@V?$allocator@U?$pair@$$CBV?$basic_string@DU?$char_traits@D@std@@V?$allocator@D@2@@std@@PAVCGraphicImageInstance@@@std@@@2@$0A@@std@@@std@@QAE?AU?$pair@V?$_Tree_iterator@V?$_Tree_val@U?$_Tree_simple_types@U?$pair@$$CBV?$basic_string@DU?$char_traits@D@std@@V?$allocator@D@2@@std@@PAVCGraphicImageInstance@@@std@@@std@@@std@@@std@@_N@1@$$QAU?$pair@$$CBV?$basic_string@DU?$char_traits@D@std@@V?$allocator@D@2@@std@@PAVCGraphicImageInstance@@@1@@Z DD 0ffffffffH
	DD	FLAT:__unwindfunclet$??$insert@$0A@$0A@@?$_Tree@V?$_Tmap_traits@V?$basic_string@DU?$char_traits@D@std@@V?$allocator@D@2@@std@@PAVCGraphicImageInstance@@U?$less@V?$basic_string@DU?$char_traits@D@std@@V?$allocator@D@2@@std@@@2@V?$allocator@U?$pair@$$CBV?$basic_string@DU?$char_traits@D@std@@V?$allocator@D@2@@std@@PAVCGraphicImageInstance@@@std@@@2@$0A@@std@@@std@@QAE?AU?$pair@V?$_Tree_iterator@V?$_Tree_val@U?$_Tree_simple_types@U?$pair@$$CBV?$basic_string@DU?$char_traits@D@std@@V?$allocator@D@2@@std@@PAVCGraphicImageInstance@@@std@@@std@@@std@@@std@@_N@1@$$QAU?$pair@$$CBV?$basic_string@DU?$char_traits@D@std@@V?$allocator@D@2@@std@@PAVCGraphicImageInstance@@@1@@Z$2
	DD	0ffffffffH
	DD	FLAT:__unwindfunclet$??$insert@$0A@$0A@@?$_Tree@V?$_Tmap_traits@V?$basic_string@DU?$char_traits@D@std@@V?$allocator@D@2@@std@@PAVCGraphicImageInstance@@U?$less@V?$basic_string@DU?$char_traits@D@std@@V?$allocator@D@2@@std@@@2@V?$allocator@U?$pair@$$CBV?$basic_string@DU?$char_traits@D@std@@V?$allocator@D@2@@std@@PAVCGraphicImageInstance@@@std@@@2@$0A@@std@@@std@@QAE?AU?$pair@V?$_Tree_iterator@V?$_Tree_val@U?$_Tree_simple_types@U?$pair@$$CBV?$basic_string@DU?$char_traits@D@std@@V?$allocator@D@2@@std@@PAVCGraphicImageInstance@@@std@@@std@@@std@@@std@@_N@1@$$QAU?$pair@$$CBV?$basic_string@DU?$char_traits@D@std@@V?$allocator@D@2@@std@@PAVCGraphicImageInstance@@@1@@Z$1
__ehfuncinfo$??$insert@$0A@$0A@@?$_Tree@V?$_Tmap_traits@V?$basic_string@DU?$char_traits@D@std@@V?$allocator@D@2@@std@@PAVCGraphicImageInstance@@U?$less@V?$basic_string@DU?$char_traits@D@std@@V?$allocator@D@2@@std@@@2@V?$allocator@U?$pair@$$CBV?$basic_string@DU?$char_traits@D@std@@V?$allocator@D@2@@std@@PAVCGraphicImageInstance@@@std@@@2@$0A@@std@@@std@@QAE?AU?$pair@V?$_Tree_iterator@V?$_Tree_val@U?$_Tree_simple_types@U?$pair@$$CBV?$basic_string@DU?$char_traits@D@std@@V?$allocator@D@2@@std@@PAVCGraphicImageInstance@@@std@@@std@@@std@@@std@@_N@1@$$QAU?$pair@$$CBV?$basic_string@DU?$char_traits@D@std@@V?$allocator@D@2@@std@@PAVCGraphicImageInstance@@@1@@Z DD 019930522H
	DD	02H
	DD	FLAT:__unwindtable$??$insert@$0A@$0A@@?$_Tree@V?$_Tmap_traits@V?$basic_string@DU?$char_traits@D@std@@V?$allocator@D@2@@std@@PAVCGraphicImageInstance@@U?$less@V?$basic_string@DU?$char_traits@D@std@@V?$allocator@D@2@@std@@@2@V?$allocator@U?$pair@$$CBV?$basic_string@DU?$char_traits@D@std@@V?$allocator@D@2@@std@@PAVCGraphicImageInstance@@@std@@@2@$0A@@std@@@std@@QAE?AU?$pair@V?$_Tree_iterator@V?$_Tree_val@U?$_Tree_simple_types@U?$pair@$$CBV?$basic_string@DU?$char_traits@D@std@@V?$allocator@D@2@@std@@PAVCGraphicImageInstance@@@std@@@std@@@std@@@std@@_N@1@$$QAU?$pair@$$CBV?$basic_string@DU?$char_traits@D@std@@V?$allocator@D@2@@std@@PAVCGraphicImageInstance@@@1@@Z
	DD	2 DUP(00H)
	DD	2 DUP(00H)
	DD	00H
	DD	01H
xdata$x	ENDS
;	COMDAT xdata$x
xdata$x	SEGMENT
__unwindtable$?SetCloudTexture@CSkyBox@@QAEXPBD@Z DD 0ffffffffH
	DD	FLAT:__unwindfunclet$?SetCloudTexture@CSkyBox@@QAEXPBD@Z$1
__ehfuncinfo$?SetCloudTexture@CSkyBox@@QAEXPBD@Z DD 019930522H
	DD	01H
	DD	FLAT:__unwindtable$?SetCloudTexture@CSkyBox@@QAEXPBD@Z
	DD	2 DUP(00H)
	DD	2 DUP(00H)
	DD	00H
	DD	01H
xdata$x	ENDS
;	COMDAT xdata$x
xdata$x	SEGMENT
__unwindtable$?SetFaceTexture@CSkyBox@@QAEXPBDH@Z DD 0ffffffffH
	DD	FLAT:__unwindfunclet$?SetFaceTexture@CSkyBox@@QAEXPBDH@Z$1
__ehfuncinfo$?SetFaceTexture@CSkyBox@@QAEXPBDH@Z DD 019930522H
	DD	01H
	DD	FLAT:__unwindtable$?SetFaceTexture@CSkyBox@@QAEXPBDH@Z
	DD	2 DUP(00H)
	DD	2 DUP(00H)
	DD	00H
	DD	01H
xdata$x	ENDS
;	COMDAT xdata$x
xdata$x	SEGMENT
__unwindtable$?Render@CSkyBox@@UAEXXZ DD 0ffffffffH
	DD	FLAT:__unwindfunclet$?Render@CSkyBox@@UAEXXZ$2
	DD	0ffffffffH
	DD	FLAT:__unwindfunclet$?Render@CSkyBox@@UAEXXZ$1
__ehfuncinfo$?Render@CSkyBox@@UAEXXZ DD 019930522H
	DD	02H
	DD	FLAT:__unwindtable$?Render@CSkyBox@@UAEXXZ
	DD	2 DUP(00H)
	DD	2 DUP(00H)
	DD	00H
	DD	01H
xdata$x	ENDS
;	COMDAT xdata$x
xdata$x	SEGMENT
__ehfuncinfo$??1CSkyBox@@UAE@XZ DD 019930522H
	DD	00H
	DD	00H
	DD	2 DUP(00H)
	DD	2 DUP(00H)
	DD	00H
	DD	05H
xdata$x	ENDS
;	COMDAT xdata$x
xdata$x	SEGMENT
__unwindtable$??0CSkyBox@@QAE@XZ DD 0ffffffffH
	DD	FLAT:__unwindfunclet$??0CSkyBox@@QAE@XZ$0
__ehfuncinfo$??0CSkyBox@@QAE@XZ DD 019930522H
	DD	01H
	DD	FLAT:__unwindtable$??0CSkyBox@@QAE@XZ
	DD	2 DUP(00H)
	DD	2 DUP(00H)
	DD	00H
	DD	01H
xdata$x	ENDS
;	COMDAT xdata$x
xdata$x	SEGMENT
__unwindtable$??A?$map@V?$basic_string@DU?$char_traits@D@std@@V?$allocator@D@2@@std@@PAVCGraphicImageInstance@@U?$less@V?$basic_string@DU?$char_traits@D@std@@V?$allocator@D@2@@std@@@2@V?$allocator@U?$pair@$$CBV?$basic_string@DU?$char_traits@D@std@@V?$allocator@D@2@@std@@PAVCGraphicImageInstance@@@std@@@2@@std@@QAEAAPAVCGraphicImageInstance@@ABV?$basic_string@DU?$char_traits@D@std@@V?$allocator@D@2@@1@@Z DD 0ffffffffH
	DD	FLAT:__unwindfunclet$??A?$map@V?$basic_string@DU?$char_traits@D@std@@V?$allocator@D@2@@std@@PAVCGraphicImageInstance@@U?$less@V?$basic_string@DU?$char_traits@D@std@@V?$allocator@D@2@@std@@@2@V?$allocator@U?$pair@$$CBV?$basic_string@DU?$char_traits@D@std@@V?$allocator@D@2@@std@@PAVCGraphicImageInstance@@@std@@@2@@std@@QAEAAPAVCGraphicImageInstance@@ABV?$basic_string@DU?$char_traits@D@std@@V?$allocator@D@2@@1@@Z$2
	DD	0ffffffffH
	DD	FLAT:__unwindfunclet$??A?$map@V?$basic_string@DU?$char_traits@D@std@@V?$allocator@D@2@@std@@PAVCGraphicImageInstance@@U?$less@V?$basic_string@DU?$char_traits@D@std@@V?$allocator@D@2@@std@@@2@V?$allocator@U?$pair@$$CBV?$basic_string@DU?$char_traits@D@std@@V?$allocator@D@2@@std@@PAVCGraphicImageInstance@@@std@@@2@@std@@QAEAAPAVCGraphicImageInstance@@ABV?$basic_string@DU?$char_traits@D@std@@V?$allocator@D@2@@1@@Z$1
__ehfuncinfo$??A?$map@V?$basic_string@DU?$char_traits@D@std@@V?$allocator@D@2@@std@@PAVCGraphicImageInstance@@U?$less@V?$basic_string@DU?$char_traits@D@std@@V?$allocator@D@2@@std@@@2@V?$allocator@U?$pair@$$CBV?$basic_string@DU?$char_traits@D@std@@V?$allocator@D@2@@std@@PAVCGraphicImageInstance@@@std@@@2@@std@@QAEAAPAVCGraphicImageInstance@@ABV?$basic_string@DU?$char_traits@D@std@@V?$allocator@D@2@@1@@Z DD 019930522H
	DD	02H
	DD	FLAT:__unwindtable$??A?$map@V?$basic_string@DU?$char_traits@D@std@@V?$allocator@D@2@@std@@PAVCGraphicImageInstance@@U?$less@V?$basic_string@DU?$char_traits@D@std@@V?$allocator@D@2@@std@@@2@V?$allocator@U?$pair@$$CBV?$basic_string@DU?$char_traits@D@std@@V?$allocator@D@2@@std@@PAVCGraphicImageInstance@@@std@@@2@@std@@QAEAAPAVCGraphicImageInstance@@ABV?$basic_string@DU?$char_traits@D@std@@V?$allocator@D@2@@1@@Z
	DD	2 DUP(00H)
	DD	2 DUP(00H)
	DD	00H
	DD	01H
xdata$x	ENDS
;	COMDAT xdata$x
xdata$x	SEGMENT
__ehfuncinfo$??0CSkyObject@@QAE@XZ DD 019930522H
	DD	05H
	DD	FLAT:__unwindtable$??0CSkyObject@@QAE@XZ
	DD	2 DUP(00H)
	DD	2 DUP(00H)
	DD	00H
	DD	01H
__unwindtable$??0CSkyObject@@QAE@XZ DD 0ffffffffH
	DD	FLAT:__unwindfunclet$??0CSkyObject@@QAE@XZ$0
	DD	00H
	DD	FLAT:__unwindfunclet$??0CSkyObject@@QAE@XZ$1
	DD	01H
	DD	FLAT:__unwindfunclet$??0CSkyObject@@QAE@XZ$2
	DD	02H
	DD	FLAT:__unwindfunclet$??0CSkyObject@@QAE@XZ$3
	DD	03H
	DD	FLAT:__unwindfunclet$??0CSkyObject@@QAE@XZ$4
xdata$x	ENDS
;	COMDAT xdata$x
xdata$x	SEGMENT
__ehfuncinfo$??1CSkyObjectQuad@@UAE@XZ DD 019930522H
	DD	00H
	DD	00H
	DD	2 DUP(00H)
	DD	2 DUP(00H)
	DD	00H
	DD	05H
xdata$x	ENDS
; Function compile flags: /Ogtp
; File C:\Program Files\Microsoft Visual Studio\2022\Community\VC\Tools\MSVC\14.34.31933\include\xmemory
;	COMDAT ??1?$_Uninitialized_backout_al@V?$allocator@VCSkyObjectQuad@@@std@@@std@@QAE@XZ
_TEXT	SEGMENT
??1?$_Uninitialized_backout_al@V?$allocator@VCSkyObjectQuad@@@std@@@std@@QAE@XZ PROC ; std::_Uninitialized_backout_al<std::allocator<CSkyObjectQuad> >::~_Uninitialized_backout_al<std::allocator<CSkyObjectQuad> >, COMDAT
; _this$ = ecx

; 1657 :     _CONSTEXPR20 ~_Uninitialized_backout_al() {

  00000	56		 push	 esi

; 1658 :         _Destroy_range(_First, _Last, _Al);

  00001	8b 31		 mov	 esi, DWORD PTR [ecx]
  00003	57		 push	 edi
  00004	8b 79 04	 mov	 edi, DWORD PTR [ecx+4]

; 947  :         for (; _First != _Last; ++_First) {

  00007	3b f7		 cmp	 esi, edi
  00009	74 17		 je	 SHORT $LN5@Uninitiali
  0000b	0f 1f 44 00 00	 npad	 5
$LL6@Uninitiali:

; 689  :         _Ptr->~_Uty();

  00010	8b 06		 mov	 eax, DWORD PTR [esi]
  00012	8b ce		 mov	 ecx, esi
  00014	6a 00		 push	 0
  00016	ff 10		 call	 DWORD PTR [eax]

; 947  :         for (; _First != _Last; ++_First) {

  00018	81 c6 2c 01 00
	00		 add	 esi, 300		; 0000012cH
  0001e	3b f7		 cmp	 esi, edi
  00020	75 ee		 jne	 SHORT $LL6@Uninitiali
$LN5@Uninitiali:
  00022	5f		 pop	 edi

; 1659 :     }

  00023	5e		 pop	 esi
  00024	c3		 ret	 0
??1?$_Uninitialized_backout_al@V?$allocator@VCSkyObjectQuad@@@std@@@std@@QAE@XZ ENDP ; std::_Uninitialized_backout_al<std::allocator<CSkyObjectQuad> >::~_Uninitialized_backout_al<std::allocator<CSkyObjectQuad> >
_TEXT	ENDS
; Function compile flags: /Ogtp
; File C:\Program Files\Microsoft Visual Studio\2022\Community\VC\Tools\MSVC\14.34.31933\include\xstring
; File C:\Program Files\Microsoft Visual Studio\2022\Community\VC\Tools\MSVC\14.34.31933\include\utility
; File C:\Program Files\Microsoft Visual Studio\2022\Community\VC\Tools\MSVC\14.34.31933\include\xstring
;	COMDAT ??$?MDU?$char_traits@D@std@@V?$allocator@D@1@@std@@YA_NABV?$basic_string@DU?$char_traits@D@std@@V?$allocator@D@2@@0@0@Z
_TEXT	SEGMENT
__Left$ = 8						; size = 4
__Right$ = 12						; size = 4
??$?MDU?$char_traits@D@std@@V?$allocator@D@1@@std@@YA_NABV?$basic_string@DU?$char_traits@D@std@@V?$allocator@D@2@@0@0@Z PROC ; std::operator<<char,std::char_traits<char>,std::allocator<char> >, COMDAT

; 5234 :     const basic_string<_Elem, _Traits, _Alloc>& _Left, const basic_string<_Elem, _Traits, _Alloc>& _Right) noexcept {

  00000	55		 push	 ebp
  00001	8b ec		 mov	 ebp, esp

; 4795 :         return _Traits_compare<_Traits>(_Mypair._Myval2._Myptr(), _Mypair._Myval2._Mysize,

  00003	8b 4d 0c	 mov	 ecx, DWORD PTR __Right$[ebp]

; 5234 :     const basic_string<_Elem, _Traits, _Alloc>& _Left, const basic_string<_Elem, _Traits, _Alloc>& _Right) noexcept {

  00006	53		 push	 ebx
  00007	57		 push	 edi

; 2301 :         return _BUF_SIZE <= _Myres;

  00008	83 79 14 10	 cmp	 DWORD PTR [ecx+20], 16	; 00000010H

; 4795 :         return _Traits_compare<_Traits>(_Mypair._Myval2._Myptr(), _Mypair._Myval2._Mysize,

  0000c	8b 79 10	 mov	 edi, DWORD PTR [ecx+16]

; 2293 :         if (_Large_string_engaged()) {

  0000f	72 02		 jb	 SHORT $LN6@operator

; 2294 :             _Result = _Unfancy(_Bx._Ptr);

  00011	8b 09		 mov	 ecx, DWORD PTR [ecx]
$LN6@operator:

; 4795 :         return _Traits_compare<_Traits>(_Mypair._Myval2._Myptr(), _Mypair._Myval2._Mysize,

  00013	8b 55 08	 mov	 edx, DWORD PTR __Left$[ebp]

; 2301 :         return _BUF_SIZE <= _Myres;

  00016	83 7a 14 10	 cmp	 DWORD PTR [edx+20], 16	; 00000010H

; 4795 :         return _Traits_compare<_Traits>(_Mypair._Myval2._Myptr(), _Mypair._Myval2._Mysize,

  0001a	8b 5a 10	 mov	 ebx, DWORD PTR [edx+16]

; 2293 :         if (_Large_string_engaged()) {

  0001d	72 02		 jb	 SHORT $LN11@operator

; 2294 :             _Result = _Unfancy(_Bx._Ptr);

  0001f	8b 12		 mov	 edx, DWORD PTR [edx]
$LN11@operator:
  00021	56		 push	 esi
; File C:\Program Files\Microsoft Visual Studio\2022\Community\VC\Tools\MSVC\14.34.31933\include\utility

; 66   :     return _Right < _Left ? _Right : _Left;

  00022	3b fb		 cmp	 edi, ebx
  00024	8b f3		 mov	 esi, ebx
  00026	0f 42 f7	 cmovb	 esi, edi
; File C:\Program Files\Microsoft Visual Studio\2022\Community\VC\Tools\MSVC\14.34.31933\include\xstring

; 395  :         return __builtin_memcmp(_First1, _First2, _Count);

  00029	83 ee 04	 sub	 esi, 4
  0002c	72 13		 jb	 SHORT $LN26@operator
  0002e	66 90		 npad	 2
$LL27@operator:
  00030	8b 02		 mov	 eax, DWORD PTR [edx]
  00032	3b 01		 cmp	 eax, DWORD PTR [ecx]
  00034	75 10		 jne	 SHORT $LN25@operator
  00036	83 c2 04	 add	 edx, 4
  00039	83 c1 04	 add	 ecx, 4
  0003c	83 ee 04	 sub	 esi, 4
  0003f	73 ef		 jae	 SHORT $LL27@operator
$LN26@operator:
  00041	83 fe fc	 cmp	 esi, -4			; fffffffcH
  00044	74 34		 je	 SHORT $LN24@operator
$LN25@operator:
  00046	8a 02		 mov	 al, BYTE PTR [edx]
  00048	3a 01		 cmp	 al, BYTE PTR [ecx]
  0004a	75 27		 jne	 SHORT $LN28@operator
  0004c	83 fe fd	 cmp	 esi, -3			; fffffffdH
  0004f	74 29		 je	 SHORT $LN24@operator
  00051	8a 42 01	 mov	 al, BYTE PTR [edx+1]
  00054	3a 41 01	 cmp	 al, BYTE PTR [ecx+1]
  00057	75 1a		 jne	 SHORT $LN28@operator
  00059	83 fe fe	 cmp	 esi, -2			; fffffffeH
  0005c	74 1c		 je	 SHORT $LN24@operator
  0005e	8a 42 02	 mov	 al, BYTE PTR [edx+2]
  00061	3a 41 02	 cmp	 al, BYTE PTR [ecx+2]
  00064	75 0d		 jne	 SHORT $LN28@operator
  00066	83 fe ff	 cmp	 esi, -1
  00069	74 0f		 je	 SHORT $LN24@operator
  0006b	8a 42 03	 mov	 al, BYTE PTR [edx+3]
  0006e	3a 41 03	 cmp	 al, BYTE PTR [ecx+3]
  00071	74 07		 je	 SHORT $LN24@operator
$LN28@operator:
  00073	1b c0		 sbb	 eax, eax
  00075	83 c8 01	 or	 eax, 1
  00078	eb 02		 jmp	 SHORT $LN29@operator
$LN24@operator:
  0007a	33 c0		 xor	 eax, eax
$LN29@operator:
  0007c	5e		 pop	 esi

; 604  :     if (_Ans != 0) {

  0007d	85 c0		 test	 eax, eax
  0007f	75 12		 jne	 SHORT $LN18@operator

; 605  :         return _Ans;
; 606  :     }
; 607  : 
; 608  :     if (_Left_size < _Right_size) {

  00081	3b fb		 cmp	 edi, ebx
  00083	76 0a		 jbe	 SHORT $LN30@operator

; 609  :         return -1;

  00085	83 c8 ff	 or	 eax, -1

; 5235 :     return _Left.compare(_Right) < 0;

  00088	5f		 pop	 edi
  00089	c1 e8 1f	 shr	 eax, 31			; 0000001fH
  0008c	5b		 pop	 ebx

; 5236 : }

  0008d	5d		 pop	 ebp
  0008e	c3		 ret	 0
$LN30@operator:

; 612  :     if (_Left_size > _Right_size) {

  0008f	1b c0		 sbb	 eax, eax
  00091	f7 d8		 neg	 eax
$LN18@operator:

; 5235 :     return _Left.compare(_Right) < 0;

  00093	5f		 pop	 edi
  00094	c1 e8 1f	 shr	 eax, 31			; 0000001fH
  00097	5b		 pop	 ebx

; 5236 : }

  00098	5d		 pop	 ebp
  00099	c3		 ret	 0
??$?MDU?$char_traits@D@std@@V?$allocator@D@1@@std@@YA_NABV?$basic_string@DU?$char_traits@D@std@@V?$allocator@D@2@@0@0@Z ENDP ; std::operator<<char,std::char_traits<char>,std::allocator<char> >
_TEXT	ENDS
; Function compile flags: /Ogtp
; File C:\Program Files\Microsoft Visual Studio\2022\Community\VC\Tools\MSVC\14.34.31933\include\xmemory
;	COMDAT ??$_Uninitialized_value_construct_n@V?$allocator@VCSkyObjectQuad@@@std@@@std@@YAPAVCSkyObjectQuad@@PAV1@IAAV?$allocator@VCSkyObjectQuad@@@0@@Z
_TEXT	SEGMENT
__Backout$ = -24					; size = 12
__$EHRec$ = -12						; size = 12
__First$ = 8						; size = 4
__Count$ = 12						; size = 4
__Al$ = 16						; size = 4
??$_Uninitialized_value_construct_n@V?$allocator@VCSkyObjectQuad@@@std@@@std@@YAPAVCSkyObjectQuad@@PAV1@IAAV?$allocator@VCSkyObjectQuad@@@0@@Z PROC ; std::_Uninitialized_value_construct_n<std::allocator<CSkyObjectQuad> >, COMDAT

; 1887 :     _Alloc_ptr_t<_Alloc> _First, _Alloc_size_t<_Alloc> _Count, _Alloc& _Al) {

  00000	55		 push	 ebp
  00001	8b ec		 mov	 ebp, esp
  00003	6a ff		 push	 -1
  00005	68 00 00 00 00	 push	 __ehhandler$??$_Uninitialized_value_construct_n@V?$allocator@VCSkyObjectQuad@@@std@@@std@@YAPAVCSkyObjectQuad@@PAV1@IAAV?$allocator@VCSkyObjectQuad@@@0@@Z
  0000a	64 a1 00 00 00
	00		 mov	 eax, DWORD PTR fs:0
  00010	50		 push	 eax
  00011	83 ec 0c	 sub	 esp, 12			; 0000000cH
  00014	56		 push	 esi
  00015	57		 push	 edi
  00016	a1 00 00 00 00	 mov	 eax, DWORD PTR ___security_cookie
  0001b	33 c5		 xor	 eax, ebp
  0001d	50		 push	 eax
  0001e	8d 45 f4	 lea	 eax, DWORD PTR __$EHRec$[ebp]
  00021	64 a3 00 00 00
	00		 mov	 DWORD PTR fs:0, eax

; 1652 :     _CONSTEXPR20 _Uninitialized_backout_al(pointer _Dest, _Alloc& _Al_) : _First(_Dest), _Last(_Dest), _Al(_Al_) {}

  00027	8b 75 08	 mov	 esi, DWORD PTR __First$[ebp]
  0002a	8b 45 10	 mov	 eax, DWORD PTR __Al$[ebp]
  0002d	89 75 e8	 mov	 DWORD PTR __Backout$[ebp], esi
  00030	89 75 ec	 mov	 DWORD PTR __Backout$[ebp+4], esi
  00033	89 45 f0	 mov	 DWORD PTR __Backout$[ebp+8], eax

; 1888 :     // value-initialize _Count objects to raw _First, using _Al
; 1889 :     using _Ptrty = typename _Alloc::value_type*;
; 1890 :     if constexpr (_Use_memset_value_construct_v<_Ptrty> && _Uses_default_construct<_Alloc, _Ptrty>::value) {
; 1891 : #if _HAS_CXX20
; 1892 :         if (!_STD is_constant_evaluated())
; 1893 : #endif // _HAS_CXX20
; 1894 :         {
; 1895 :             auto _PFirst = _Unfancy(_First);
; 1896 :             _Zero_range(_PFirst, _PFirst + _Count);
; 1897 :             return _First + _Count;
; 1898 :         }
; 1899 :     }
; 1900 : 
; 1901 :     _Uninitialized_backout_al<_Alloc> _Backout{_First, _Al};
; 1902 :     for (; 0 < _Count; --_Count) {

  00036	8b 7d 0c	 mov	 edi, DWORD PTR __Count$[ebp]
  00039	c7 45 fc 00 00
	00 00		 mov	 DWORD PTR __$EHRec$[ebp+8], 0
  00040	85 ff		 test	 edi, edi
  00042	74 15		 je	 SHORT $LN32@Uninitiali
$LL4@Uninitiali:

; 680  :             ::new (_Voidify_iter(_Ptr)) _Objty(_STD forward<_Types>(_Args)...);

  00044	8b ce		 mov	 ecx, esi
  00046	e8 00 00 00 00	 call	 ??0CSkyObjectQuad@@QAE@XZ ; CSkyObjectQuad::CSkyObjectQuad

; 1664 :         ++_Last;

  0004b	81 c6 2c 01 00
	00		 add	 esi, 300		; 0000012cH
  00051	89 75 ec	 mov	 DWORD PTR __Backout$[ebp+4], esi

; 1888 :     // value-initialize _Count objects to raw _First, using _Al
; 1889 :     using _Ptrty = typename _Alloc::value_type*;
; 1890 :     if constexpr (_Use_memset_value_construct_v<_Ptrty> && _Uses_default_construct<_Alloc, _Ptrty>::value) {
; 1891 : #if _HAS_CXX20
; 1892 :         if (!_STD is_constant_evaluated())
; 1893 : #endif // _HAS_CXX20
; 1894 :         {
; 1895 :             auto _PFirst = _Unfancy(_First);
; 1896 :             _Zero_range(_PFirst, _PFirst + _Count);
; 1897 :             return _First + _Count;
; 1898 :         }
; 1899 :     }
; 1900 : 
; 1901 :     _Uninitialized_backout_al<_Alloc> _Backout{_First, _Al};
; 1902 :     for (; 0 < _Count; --_Count) {

  00054	83 ef 01	 sub	 edi, 1
  00057	75 eb		 jne	 SHORT $LL4@Uninitiali
$LN32@Uninitiali:

; 1903 :         _Backout._Emplace_back();
; 1904 :     }
; 1905 : 
; 1906 :     return _Backout._Release();
; 1907 : }

  00059	8b c6		 mov	 eax, esi
  0005b	8b 4d f4	 mov	 ecx, DWORD PTR __$EHRec$[ebp]
  0005e	64 89 0d 00 00
	00 00		 mov	 DWORD PTR fs:0, ecx
  00065	59		 pop	 ecx
  00066	5f		 pop	 edi
  00067	5e		 pop	 esi
  00068	8b e5		 mov	 esp, ebp
  0006a	5d		 pop	 ebp
  0006b	c3		 ret	 0
_TEXT	ENDS
;	COMDAT text$x
text$x	SEGMENT
__unwindfunclet$??$_Uninitialized_value_construct_n@V?$allocator@VCSkyObjectQuad@@@std@@@std@@YAPAVCSkyObjectQuad@@PAV1@IAAV?$allocator@VCSkyObjectQuad@@@0@@Z$0:
  00000	8d 4d e8	 lea	 ecx, DWORD PTR __Backout$[ebp]
  00003	e9 00 00 00 00	 jmp	 ??1?$_Uninitialized_backout_al@V?$allocator@VCSkyObjectQuad@@@std@@@std@@QAE@XZ ; std::_Uninitialized_backout_al<std::allocator<CSkyObjectQuad> >::~_Uninitialized_backout_al<std::allocator<CSkyObjectQuad> >
  00008	cc		 int	 3
  00009	cc		 int	 3
  0000a	cc		 int	 3
  0000b	cc		 int	 3
  0000c	cc		 int	 3
__ehhandler$??$_Uninitialized_value_construct_n@V?$allocator@VCSkyObjectQuad@@@std@@@std@@YAPAVCSkyObjectQuad@@PAV1@IAAV?$allocator@VCSkyObjectQuad@@@0@@Z:
  0000d	90		 npad	 1
  0000e	90		 npad	 1
  0000f	8b 54 24 08	 mov	 edx, DWORD PTR [esp+8]
  00013	8d 42 0c	 lea	 eax, DWORD PTR [edx+12]
  00016	8b 4a e8	 mov	 ecx, DWORD PTR [edx-24]
  00019	33 c8		 xor	 ecx, eax
  0001b	e8 00 00 00 00	 call	 @__security_check_cookie@4
  00020	b8 00 00 00 00	 mov	 eax, OFFSET __ehfuncinfo$??$_Uninitialized_value_construct_n@V?$allocator@VCSkyObjectQuad@@@std@@@std@@YAPAVCSkyObjectQuad@@PAV1@IAAV?$allocator@VCSkyObjectQuad@@@0@@Z
  00025	e9 00 00 00 00	 jmp	 ___CxxFrameHandler3
text$x	ENDS
??$_Uninitialized_value_construct_n@V?$allocator@VCSkyObjectQuad@@@std@@@std@@YAPAVCSkyObjectQuad@@PAV1@IAAV?$allocator@VCSkyObjectQuad@@@0@@Z ENDP ; std::_Uninitialized_value_construct_n<std::allocator<CSkyObjectQuad> >
; Function compile flags: /Ogtp
; File C:\Program Files\Microsoft Visual Studio\2022\Community\VC\Tools\MSVC\14.34.31933\include\vector
; File C:\Program Files\Microsoft Visual Studio\2022\Community\VC\Tools\MSVC\14.34.31933\include\xmemory
; File C:\Program Files\Microsoft Visual Studio\2022\Community\VC\Tools\MSVC\14.34.31933\include\vector
; File C:\Program Files\Microsoft Visual Studio\2022\Community\VC\Tools\MSVC\14.34.31933\include\xmemory
; File C:\Program Files\Microsoft Visual Studio\2022\Community\VC\Tools\MSVC\14.34.31933\include\vector
; File C:\Program Files\Microsoft Visual Studio\2022\Community\VC\Tools\MSVC\14.34.31933\include\xmemory
; File C:\Program Files\Microsoft Visual Studio\2022\Community\VC\Tools\MSVC\14.34.31933\include\vector
; File C:\Program Files\Microsoft Visual Studio\2022\Community\VC\Tools\MSVC\14.34.31933\include\xmemory
; File C:\Program Files\Microsoft Visual Studio\2022\Community\VC\Tools\MSVC\14.34.31933\include\vector
; File C:\Program Files\Microsoft Visual Studio\2022\Community\VC\Tools\MSVC\14.34.31933\include\xmemory
; File C:\Program Files\Microsoft Visual Studio\2022\Community\VC\Tools\MSVC\14.34.31933\include\vector
; File C:\Program Files\Microsoft Visual Studio\2022\Community\VC\Tools\MSVC\14.34.31933\include\xmemory
; File C:\Program Files\Microsoft Visual Studio\2022\Community\VC\Tools\MSVC\14.34.31933\include\vector
; File C:\Program Files\Microsoft Visual Studio\2022\Community\VC\Tools\MSVC\14.34.31933\include\xmemory
; File C:\Program Files\Microsoft Visual Studio\2022\Community\VC\Tools\MSVC\14.34.31933\include\vector
; File C:\Program Files\Microsoft Visual Studio\2022\Community\VC\Tools\MSVC\14.34.31933\include\xmemory
; File C:\Program Files\Microsoft Visual Studio\2022\Community\VC\Tools\MSVC\14.34.31933\include\vector
; File C:\Program Files\Microsoft Visual Studio\2022\Community\VC\Tools\MSVC\14.34.31933\include\xmemory
; File C:\Program Files\Microsoft Visual Studio\2022\Community\VC\Tools\MSVC\14.34.31933\include\vector
; File C:\Program Files\Microsoft Visual Studio\2022\Community\VC\Tools\MSVC\14.34.31933\include\xmemory
; File C:\Program Files\Microsoft Visual Studio\2022\Community\VC\Tools\MSVC\14.34.31933\include\vector
; File C:\Program Files\Microsoft Visual Studio\2022\Community\VC\Tools\MSVC\14.34.31933\include\xmemory
; File C:\Program Files\Microsoft Visual Studio\2022\Community\VC\Tools\MSVC\14.34.31933\include\vector
; File C:\Program Files\Microsoft Visual Studio\2022\Community\VC\Tools\MSVC\14.34.31933\include\xmemory
; File C:\Program Files\Microsoft Visual Studio\2022\Community\VC\Tools\MSVC\14.34.31933\include\vector
; File C:\Program Files\Microsoft Visual Studio\2022\Community\VC\Tools\MSVC\14.34.31933\include\xmemory
; File C:\Program Files\Microsoft Visual Studio\2022\Community\VC\Tools\MSVC\14.34.31933\include\vector
;	COMDAT ??$_Resize_reallocate@U_Value_init_tag@std@@@?$vector@VCSkyObjectQuad@@V?$allocator@VCSkyObjectQuad@@@std@@@std@@AAEXIABU_Value_init_tag@1@@Z
_TEXT	SEGMENT
__Backout$3 = -60					; size = 12
__ULast$1$ = -48					; size = 4
__Newvec$ = -48						; size = 4
__Appended_first$ = -44					; size = 4
__Al$ = -40						; size = 4
__Oldsize$1$ = -36					; size = 4
__Appended_last$ = -36					; size = 4
tv724 = -32						; size = 4
__Myfirst$1$ = -28					; size = 4
__Newvec$1$ = -24					; size = 4
__First$1$ = -20					; size = 4
tv716 = -20						; size = 4
__Newcapacity$ = -20					; size = 4
__$EHRec$ = -16						; size = 16
__Newsize$ = 8						; size = 4
__Val$ = 12						; size = 4
??$_Resize_reallocate@U_Value_init_tag@std@@@?$vector@VCSkyObjectQuad@@V?$allocator@VCSkyObjectQuad@@@std@@@std@@AAEXIABU_Value_init_tag@1@@Z PROC ; std::vector<CSkyObjectQuad,std::allocator<CSkyObjectQuad> >::_Resize_reallocate<std::_Value_init_tag>, COMDAT
; _this$ = ecx

; 1574 :     _CONSTEXPR20 void _Resize_reallocate(const size_type _Newsize, const _Ty2& _Val) {

  00000	55		 push	 ebp
  00001	8b ec		 mov	 ebp, esp
  00003	6a ff		 push	 -1
  00005	68 00 00 00 00	 push	 __ehhandler$??$_Resize_reallocate@U_Value_init_tag@std@@@?$vector@VCSkyObjectQuad@@V?$allocator@VCSkyObjectQuad@@@std@@@std@@AAEXIABU_Value_init_tag@1@@Z
  0000a	64 a1 00 00 00
	00		 mov	 eax, DWORD PTR fs:0
  00010	50		 push	 eax
  00011	83 ec 30	 sub	 esp, 48			; 00000030H
  00014	53		 push	 ebx
  00015	56		 push	 esi
  00016	57		 push	 edi
  00017	a1 00 00 00 00	 mov	 eax, DWORD PTR ___security_cookie
  0001c	33 c5		 xor	 eax, ebp
  0001e	50		 push	 eax
  0001f	8d 45 f4	 lea	 eax, DWORD PTR __$EHRec$[ebp+4]
  00022	64 a3 00 00 00
	00		 mov	 DWORD PTR fs:0, eax
  00028	89 65 f0	 mov	 DWORD PTR __$EHRec$[ebp], esp
  0002b	8b f9		 mov	 edi, ecx
  0002d	89 7d e4	 mov	 DWORD PTR __Myfirst$1$[ebp], edi

; 1575 :         if (_Newsize > max_size()) {

  00030	81 7d 08 0d 74
	da 00		 cmp	 DWORD PTR __Newsize$[ebp], 14316557 ; 00da740dH
  00037	0f 87 2e 02 00
	00		 ja	 $LN128@Resize_rea

; 1577 :         }
; 1578 : 
; 1579 :         auto& _Al         = _Getal();
; 1580 :         auto& _My_data    = _Mypair._Myval2;
; 1581 :         pointer& _Myfirst = _My_data._Myfirst;
; 1582 :         pointer& _Mylast  = _My_data._Mylast;
; 1583 : 
; 1584 :         const auto _Oldsize          = static_cast<size_type>(_Mylast - _Myfirst);

  0003d	8b 4f 04	 mov	 ecx, DWORD PTR [edi+4]
  00040	b8 b5 81 4e 1b	 mov	 eax, 458129845		; 1b4e81b5H
  00045	2b 0f		 sub	 ecx, DWORD PTR [edi]
  00047	f7 e9		 imul	 ecx

; 1942 :         return static_cast<size_type>(_My_data._Myend - _My_data._Myfirst);

  00049	8b 4f 08	 mov	 ecx, DWORD PTR [edi+8]
  0004c	2b 0f		 sub	 ecx, DWORD PTR [edi]

; 1577 :         }
; 1578 : 
; 1579 :         auto& _Al         = _Getal();
; 1580 :         auto& _My_data    = _Mypair._Myval2;
; 1581 :         pointer& _Myfirst = _My_data._Myfirst;
; 1582 :         pointer& _Mylast  = _My_data._Mylast;
; 1583 : 
; 1584 :         const auto _Oldsize          = static_cast<size_type>(_Mylast - _Myfirst);

  0004e	c1 fa 05	 sar	 edx, 5
  00051	8b c2		 mov	 eax, edx
  00053	89 7d d8	 mov	 DWORD PTR __Al$[ebp], edi
  00056	c1 e8 1f	 shr	 eax, 31			; 0000001fH
  00059	03 c2		 add	 eax, edx
  0005b	89 45 dc	 mov	 DWORD PTR __Oldsize$1$[ebp], eax

; 1942 :         return static_cast<size_type>(_My_data._Myend - _My_data._Myfirst);

  0005e	b8 b5 81 4e 1b	 mov	 eax, 458129845		; 1b4e81b5H
  00063	f7 e9		 imul	 ecx

; 2029 :         if (_Oldcapacity > _Max - _Oldcapacity / 2) {

  00065	b8 0d 74 da 00	 mov	 eax, 14316557		; 00da740dH

; 1942 :         return static_cast<size_type>(_My_data._Myend - _My_data._Myfirst);

  0006a	c1 fa 05	 sar	 edx, 5
  0006d	8b ca		 mov	 ecx, edx
  0006f	c1 e9 1f	 shr	 ecx, 31			; 0000001fH
  00072	03 ca		 add	 ecx, edx

; 2029 :         if (_Oldcapacity > _Max - _Oldcapacity / 2) {

  00074	8b d1		 mov	 edx, ecx
  00076	d1 ea		 shr	 edx, 1
  00078	2b c2		 sub	 eax, edx
  0007a	3b c8		 cmp	 ecx, eax
  0007c	76 1f		 jbe	 SHORT $LN10@Resize_rea

; 2030 :             return _Max; // geometric growth would overflow

  0007e	b8 3c ff ff ff	 mov	 eax, -196		; ffffff3cH
  00083	c7 45 ec 0d 74
	da 00		 mov	 DWORD PTR __Newcapacity$[ebp], 14316557 ; 00da740dH
; File C:\Program Files\Microsoft Visual Studio\2022\Community\VC\Tools\MSVC\14.34.31933\include\xmemory

; 229  :             return _Allocate_manually_vector_aligned<_Traits>(_Bytes);

  0008a	50		 push	 eax
; File C:\Program Files\Microsoft Visual Studio\2022\Community\VC\Tools\MSVC\14.34.31933\include\vector

; 2030 :             return _Max; // geometric growth would overflow

  0008b	89 45 e0	 mov	 DWORD PTR tv724[ebp], eax
; File C:\Program Files\Microsoft Visual Studio\2022\Community\VC\Tools\MSVC\14.34.31933\include\xmemory

; 229  :             return _Allocate_manually_vector_aligned<_Traits>(_Bytes);

  0008e	e8 00 00 00 00	 call	 ??$_Allocate_manually_vector_aligned@U_Default_allocate_traits@std@@@std@@YAPAXI@Z ; std::_Allocate_manually_vector_aligned<std::_Default_allocate_traits>
  00093	8b 55 08	 mov	 edx, DWORD PTR __Newsize$[ebp]
  00096	83 c4 04	 add	 esp, 4
  00099	8b c8		 mov	 ecx, eax
  0009b	eb 5c		 jmp	 SHORT $LN126@Resize_rea
$LN10@Resize_rea:
; File C:\Program Files\Microsoft Visual Studio\2022\Community\VC\Tools\MSVC\14.34.31933\include\vector

; 2033 :         const size_type _Geometric = _Oldcapacity + _Oldcapacity / 2;

  0009d	8d 34 0a	 lea	 esi, DWORD PTR [edx+ecx]

; 2034 : 
; 2035 :         if (_Geometric < _Newsize) {

  000a0	8b 55 08	 mov	 edx, DWORD PTR __Newsize$[ebp]
  000a3	3b f2		 cmp	 esi, edx
  000a5	73 25		 jae	 SHORT $LN11@Resize_rea

; 2036 :             return _Newsize; // geometric growth would be insufficient

  000a7	8b f2		 mov	 esi, edx
$LN122@Resize_rea:
; File C:\Program Files\Microsoft Visual Studio\2022\Community\VC\Tools\MSVC\14.34.31933\include\xmemory

; 65   :     return _Count * _Ty_size;

  000a9	69 c6 2c 01 00
	00		 imul	 eax, esi, 300
  000af	89 75 ec	 mov	 DWORD PTR __Newcapacity$[ebp], esi
  000b2	89 45 e0	 mov	 DWORD PTR tv724[ebp], eax

; 228  :         if (_Bytes >= _Big_allocation_threshold) { // boost the alignment of big allocations to help autovectorization

  000b5	3d 00 10 00 00	 cmp	 eax, 4096		; 00001000H
  000ba	72 1e		 jb	 SHORT $LN22@Resize_rea

; 229  :             return _Allocate_manually_vector_aligned<_Traits>(_Bytes);

  000bc	50		 push	 eax
  000bd	e8 00 00 00 00	 call	 ??$_Allocate_manually_vector_aligned@U_Default_allocate_traits@std@@@std@@YAPAXI@Z ; std::_Allocate_manually_vector_aligned<std::_Default_allocate_traits>
  000c2	8b 55 08	 mov	 edx, DWORD PTR __Newsize$[ebp]
  000c5	83 c4 04	 add	 esp, 4
  000c8	8b c8		 mov	 ecx, eax
  000ca	eb 2d		 jmp	 SHORT $LN126@Resize_rea
$LN11@Resize_rea:

; 60   :         if (_Count > _Max_possible) {

  000cc	81 fe 0d 74 da
	00		 cmp	 esi, 14316557		; 00da740dH
  000d2	0f 87 98 01 00
	00		 ja	 $LN129@Resize_rea
  000d8	eb cf		 jmp	 SHORT $LN122@Resize_rea
$LN22@Resize_rea:

; 234  :     if (_Bytes != 0) {

  000da	85 c0		 test	 eax, eax
  000dc	74 16		 je	 SHORT $LN23@Resize_rea

; 77   :         return ::operator new(_Bytes);

  000de	50		 push	 eax
  000df	e8 00 00 00 00	 call	 ??2@YAPAXI@Z		; operator new

; 235  :         return _Traits::_Allocate(_Bytes);

  000e4	8b 55 08	 mov	 edx, DWORD PTR __Newsize$[ebp]

; 77   :         return ::operator new(_Bytes);

  000e7	83 c4 04	 add	 esp, 4

; 235  :         return _Traits::_Allocate(_Bytes);

  000ea	8b c8		 mov	 ecx, eax
  000ec	89 45 e8	 mov	 DWORD PTR __Newvec$1$[ebp], eax
  000ef	89 75 ec	 mov	 DWORD PTR __Newcapacity$[ebp], esi
  000f2	eb 08		 jmp	 SHORT $LN21@Resize_rea
$LN23@Resize_rea:

; 236  :     }
; 237  : 
; 238  :     return nullptr;

  000f4	33 c9		 xor	 ecx, ecx
  000f6	89 75 ec	 mov	 DWORD PTR __Newcapacity$[ebp], esi
$LN126@Resize_rea:

; 835  :         return static_cast<_Ty*>(_Allocate<_New_alignof<_Ty>>(_Get_size_of_n<sizeof(_Ty)>(_Count)));

  000f9	89 4d e8	 mov	 DWORD PTR __Newvec$1$[ebp], ecx
$LN21@Resize_rea:
; File C:\Program Files\Microsoft Visual Studio\2022\Community\VC\Tools\MSVC\14.34.31933\include\vector

; 1588 :         const pointer _Appended_first = _Newvec + _Oldsize;

  000fc	8b 45 dc	 mov	 eax, DWORD PTR __Oldsize$1$[ebp]

; 1592 :         if constexpr (is_same_v<_Ty2, _Ty>) {
; 1593 :             _Appended_last = _Uninitialized_fill_n(_Appended_first, _Newsize - _Oldsize, _Val, _Al);
; 1594 :         } else {
; 1595 :             _STL_INTERNAL_STATIC_ASSERT(is_same_v<_Ty2, _Value_init_tag>);
; 1596 :             _Appended_last = _Uninitialized_value_construct_n(_Appended_first, _Newsize - _Oldsize, _Al);

  000ff	8b fa		 mov	 edi, edx
  00101	69 f0 2c 01 00
	00		 imul	 esi, eax, 300
; File C:\Program Files\Microsoft Visual Studio\2022\Community\VC\Tools\MSVC\14.34.31933\include\xmemory

; 835  :         return static_cast<_Ty*>(_Allocate<_New_alignof<_Ty>>(_Get_size_of_n<sizeof(_Ty)>(_Count)));

  00107	89 4d d0	 mov	 DWORD PTR __Newvec$[ebp], ecx
; File C:\Program Files\Microsoft Visual Studio\2022\Community\VC\Tools\MSVC\14.34.31933\include\vector

; 1591 :         _TRY_BEGIN

  0010a	c7 45 fc 00 00
	00 00		 mov	 DWORD PTR __$EHRec$[ebp+12], 0
  00111	03 f1		 add	 esi, ecx

; 1592 :         if constexpr (is_same_v<_Ty2, _Ty>) {
; 1593 :             _Appended_last = _Uninitialized_fill_n(_Appended_first, _Newsize - _Oldsize, _Val, _Al);
; 1594 :         } else {
; 1595 :             _STL_INTERNAL_STATIC_ASSERT(is_same_v<_Ty2, _Value_init_tag>);
; 1596 :             _Appended_last = _Uninitialized_value_construct_n(_Appended_first, _Newsize - _Oldsize, _Al);

  00113	2b f8		 sub	 edi, eax
; File C:\Program Files\Microsoft Visual Studio\2022\Community\VC\Tools\MSVC\14.34.31933\include\xmemory

; 1652 :     _CONSTEXPR20 _Uninitialized_backout_al(pointer _Dest, _Alloc& _Al_) : _First(_Dest), _Last(_Dest), _Al(_Al_) {}

  00115	8b 45 e4	 mov	 eax, DWORD PTR __Myfirst$1$[ebp]
; File C:\Program Files\Microsoft Visual Studio\2022\Community\VC\Tools\MSVC\14.34.31933\include\vector

; 1588 :         const pointer _Appended_first = _Newvec + _Oldsize;

  00118	89 75 d4	 mov	 DWORD PTR __Appended_first$[ebp], esi

; 1589 :         pointer _Appended_last        = _Appended_first;

  0011b	89 75 dc	 mov	 DWORD PTR __Appended_last$[ebp], esi
; File C:\Program Files\Microsoft Visual Studio\2022\Community\VC\Tools\MSVC\14.34.31933\include\xmemory

; 1652 :     _CONSTEXPR20 _Uninitialized_backout_al(pointer _Dest, _Alloc& _Al_) : _First(_Dest), _Last(_Dest), _Al(_Al_) {}

  0011e	89 75 c4	 mov	 DWORD PTR __Backout$3[ebp], esi
  00121	89 75 c8	 mov	 DWORD PTR __Backout$3[ebp+4], esi
  00124	89 45 cc	 mov	 DWORD PTR __Backout$3[ebp+8], eax

; 1901 :     _Uninitialized_backout_al<_Alloc> _Backout{_First, _Al};

  00127	c6 45 fc 01	 mov	 BYTE PTR __$EHRec$[ebp+12], 1
  0012b	0f 1f 44 00 00	 npad	 5
$LL31@Resize_rea:

; 1902 :     for (; 0 < _Count; --_Count) {

  00130	85 ff		 test	 edi, edi
  00132	74 13		 je	 SHORT $LN30@Resize_rea

; 680  :             ::new (_Voidify_iter(_Ptr)) _Objty(_STD forward<_Types>(_Args)...);

  00134	8b ce		 mov	 ecx, esi
  00136	e8 00 00 00 00	 call	 ??0CSkyObjectQuad@@QAE@XZ ; CSkyObjectQuad::CSkyObjectQuad

; 1664 :         ++_Last;

  0013b	81 c6 2c 01 00
	00		 add	 esi, 300		; 0000012cH

; 1902 :     for (; 0 < _Count; --_Count) {

  00141	4f		 dec	 edi

; 1664 :         ++_Last;

  00142	89 75 c8	 mov	 DWORD PTR __Backout$3[ebp+4], esi

; 1902 :     for (; 0 < _Count; --_Count) {

  00145	eb e9		 jmp	 SHORT $LL31@Resize_rea
$LN30@Resize_rea:
; File C:\Program Files\Microsoft Visual Studio\2022\Community\VC\Tools\MSVC\14.34.31933\include\vector

; 1600 :             _Uninitialized_move(_Myfirst, _Mylast, _Newvec, _Al);

  00147	8b 75 e4	 mov	 esi, DWORD PTR __Myfirst$1$[ebp]
  0014a	8b 06		 mov	 eax, DWORD PTR [esi]
; File C:\Program Files\Microsoft Visual Studio\2022\Community\VC\Tools\MSVC\14.34.31933\include\xmemory

; 1793 :     const auto _ULast = _Get_unwrapped(_Last);

  0014c	8b 4e 04	 mov	 ecx, DWORD PTR [esi+4]
; File C:\Program Files\Microsoft Visual Studio\2022\Community\VC\Tools\MSVC\14.34.31933\include\vector

; 1600 :             _Uninitialized_move(_Myfirst, _Mylast, _Newvec, _Al);

  0014f	89 45 ec	 mov	 DWORD PTR __First$1$[ebp], eax
; File C:\Program Files\Microsoft Visual Studio\2022\Community\VC\Tools\MSVC\14.34.31933\include\xmemory

; 1793 :     const auto _ULast = _Get_unwrapped(_Last);

  00152	89 4d d0	 mov	 DWORD PTR __ULast$1$[ebp], ecx

; 1806 :     for (; _UFirst != _ULast; ++_UFirst) {

  00155	3b c1		 cmp	 eax, ecx
  00157	74 76		 je	 SHORT $LN53@Resize_rea
; File C:\Program Files\Microsoft Visual Studio\2022\Community\VC\Tools\MSVC\14.34.31933\include\vector

; 1600 :             _Uninitialized_move(_Myfirst, _Mylast, _Newvec, _Al);

  00159	8b 7d e8	 mov	 edi, DWORD PTR __Newvec$1$[ebp]
  0015c	83 c7 64	 add	 edi, 100		; 00000064H
  0015f	89 7d ec	 mov	 DWORD PTR tv716[ebp], edi
$LL54@Resize_rea:
  00162	c7 47 9c 00 00
	00 00		 mov	 DWORD PTR [edi-100], OFFSET ??_7CSkyObjectQuad@@6B@
  00169	8d 70 6c	 lea	 esi, DWORD PTR [eax+108]
  0016c	0f 10 40 04	 movups	 xmm0, XMMWORD PTR [eax+4]
  00170	0f 11 47 a0	 movups	 XMMWORD PTR [edi-96], xmm0
  00174	0f 10 40 14	 movups	 xmm0, XMMWORD PTR [eax+20]
  00178	0f 11 47 b0	 movups	 XMMWORD PTR [edi-80], xmm0
  0017c	0f 10 40 24	 movups	 xmm0, XMMWORD PTR [eax+36]
  00180	0f 11 47 c0	 movups	 XMMWORD PTR [edi-64], xmm0
  00184	0f 10 40 34	 movups	 xmm0, XMMWORD PTR [eax+52]
  00188	0f 11 47 d0	 movups	 XMMWORD PTR [edi-48], xmm0
  0018c	0f 10 40 44	 movups	 xmm0, XMMWORD PTR [eax+68]
  00190	0f 11 47 e0	 movups	 XMMWORD PTR [edi-32], xmm0
  00194	0f 10 40 54	 movups	 xmm0, XMMWORD PTR [eax+84]
  00198	0f 11 47 f0	 movups	 XMMWORD PTR [edi-16], xmm0
  0019c	8b 48 64	 mov	 ecx, DWORD PTR [eax+100]
  0019f	8b 50 68	 mov	 edx, DWORD PTR [eax+104]
; File C:\Program Files\Microsoft Visual Studio\2022\Community\VC\Tools\MSVC\14.34.31933\include\xmemory

; 1806 :     for (; _UFirst != _ULast; ++_UFirst) {

  001a2	05 2c 01 00 00	 add	 eax, 300		; 0000012cH
  001a7	89 0f		 mov	 DWORD PTR [edi], ecx
  001a9	b9 30 00 00 00	 mov	 ecx, 48			; 00000030H
  001ae	89 57 04	 mov	 DWORD PTR [edi+4], edx
  001b1	83 c7 08	 add	 edi, 8
  001b4	f3 a5		 rep movsd

; 1664 :         ++_Last;

  001b6	8b 7d ec	 mov	 edi, DWORD PTR tv716[ebp]
  001b9	81 c7 2c 01 00
	00		 add	 edi, 300		; 0000012cH
  001bf	89 7d ec	 mov	 DWORD PTR tv716[ebp], edi

; 1806 :     for (; _UFirst != _ULast; ++_UFirst) {

  001c2	3b 45 d0	 cmp	 eax, DWORD PTR __ULast$1$[ebp]
  001c5	75 9b		 jne	 SHORT $LL54@Resize_rea
  001c7	8b 75 e4	 mov	 esi, DWORD PTR __Myfirst$1$[ebp]
  001ca	8b 06		 mov	 eax, DWORD PTR [esi]
  001cc	89 45 ec	 mov	 DWORD PTR __First$1$[ebp], eax
$LN53@Resize_rea:
; File C:\Program Files\Microsoft Visual Studio\2022\Community\VC\Tools\MSVC\14.34.31933\include\vector

; 2086 :         if (_Myfirst) { // destroy and deallocate old array

  001cf	85 c0		 test	 eax, eax
  001d1	74 66		 je	 SHORT $LN89@Resize_rea

; 2087 :             _Destroy_range(_Myfirst, _Mylast, _Al);

  001d3	8b 7e 04	 mov	 edi, DWORD PTR [esi+4]
; File C:\Program Files\Microsoft Visual Studio\2022\Community\VC\Tools\MSVC\14.34.31933\include\xmemory

; 947  :         for (; _First != _Last; ++_First) {

  001d6	3b c7		 cmp	 eax, edi
  001d8	74 1d		 je	 SHORT $LN80@Resize_rea
  001da	66 0f 1f 44 00
	00		 npad	 6
$LL81@Resize_rea:

; 689  :         _Ptr->~_Uty();

  001e0	8b 10		 mov	 edx, DWORD PTR [eax]
  001e2	8b c8		 mov	 ecx, eax
  001e4	6a 00		 push	 0
  001e6	ff 12		 call	 DWORD PTR [edx]

; 947  :         for (; _First != _Last; ++_First) {

  001e8	8b 45 ec	 mov	 eax, DWORD PTR __First$1$[ebp]
  001eb	05 2c 01 00 00	 add	 eax, 300		; 0000012cH
  001f0	89 45 ec	 mov	 DWORD PTR __First$1$[ebp], eax
  001f3	3b c7		 cmp	 eax, edi
  001f5	75 e9		 jne	 SHORT $LL81@Resize_rea
$LN80@Resize_rea:
; File C:\Program Files\Microsoft Visual Studio\2022\Community\VC\Tools\MSVC\14.34.31933\include\vector

; 2089 :             _Al.deallocate(_Myfirst, static_cast<size_type>(_Myend - _Myfirst));

  001f7	8b 4e 08	 mov	 ecx, DWORD PTR [esi+8]
  001fa	b8 b5 81 4e 1b	 mov	 eax, 458129845		; 1b4e81b5H
  001ff	8b 3e		 mov	 edi, DWORD PTR [esi]
  00201	2b cf		 sub	 ecx, edi
  00203	f7 e9		 imul	 ecx
  00205	c1 fa 05	 sar	 edx, 5
  00208	8b c2		 mov	 eax, edx
  0020a	c1 e8 1f	 shr	 eax, 31			; 0000001fH
  0020d	03 c2		 add	 eax, edx
; File C:\Program Files\Microsoft Visual Studio\2022\Community\VC\Tools\MSVC\14.34.31933\include\xmemory

; 830  :         _Deallocate<_New_alignof<_Ty>>(_Ptr, sizeof(_Ty) * _Count);

  0020f	69 c8 2c 01 00
	00		 imul	 ecx, eax, 300

; 251  :         if (_Bytes >= _Big_allocation_threshold) { // boost the alignment of big allocations to help autovectorization

  00215	81 f9 00 10 00
	00		 cmp	 ecx, 4096		; 00001000H
  0021b	72 12		 jb	 SHORT $LN99@Resize_rea

; 150  :     const uintptr_t _Ptr_container   = _Ptr_user[-1];

  0021d	8b 57 fc	 mov	 edx, DWORD PTR [edi-4]
  00220	83 c1 23	 add	 ecx, 35			; 00000023H

; 151  : 
; 152  :     // If the following asserts, it likely means that we are performing
; 153  :     // an aligned delete on memory coming from an unaligned allocation.
; 154  :     _STL_ASSERT(_Ptr_user[-2] == _Big_allocation_sentinel, "invalid argument");
; 155  : 
; 156  :     // Extra paranoia on aligned allocation/deallocation; ensure _Ptr_container is
; 157  :     // in range [_Min_back_shift, _Non_user_size]
; 158  : #ifdef _DEBUG
; 159  :     constexpr uintptr_t _Min_back_shift = 2 * sizeof(void*);
; 160  : #else // ^^^ _DEBUG ^^^ // vvv !_DEBUG vvv
; 161  :     constexpr uintptr_t _Min_back_shift = sizeof(void*);
; 162  : #endif // _DEBUG
; 163  :     const uintptr_t _Back_shift = reinterpret_cast<uintptr_t>(_Ptr) - _Ptr_container;

  00223	2b fa		 sub	 edi, edx

; 164  :     _STL_VERIFY(_Back_shift >= _Min_back_shift && _Back_shift <= _Non_user_size, "invalid argument");

  00225	8d 47 fc	 lea	 eax, DWORD PTR [edi-4]
  00228	83 f8 1f	 cmp	 eax, 31			; 0000001fH
  0022b	77 39		 ja	 SHORT $LN96@Resize_rea

; 165  :     _Ptr = reinterpret_cast<void*>(_Ptr_container);

  0022d	8b fa		 mov	 edi, edx
$LN99@Resize_rea:

; 255  :         ::operator delete(_Ptr, _Bytes);

  0022f	51		 push	 ecx
  00230	57		 push	 edi
  00231	e8 00 00 00 00	 call	 ??3@YAXPAXI@Z		; operator delete
  00236	83 c4 08	 add	 esp, 8
$LN89@Resize_rea:
; File C:\Program Files\Microsoft Visual Studio\2022\Community\VC\Tools\MSVC\14.34.31933\include\vector

; 2093 :         _Mylast  = _Newvec + _Newsize;

  00239	69 45 08 2c 01
	00 00		 imul	 eax, DWORD PTR __Newsize$[ebp], 300
  00240	8b 4d e8	 mov	 ecx, DWORD PTR __Newvec$1$[ebp]
  00243	89 0e		 mov	 DWORD PTR [esi], ecx
  00245	03 c1		 add	 eax, ecx
  00247	89 46 04	 mov	 DWORD PTR [esi+4], eax

; 2094 :         _Myend   = _Newvec + _Newcapacity;

  0024a	8b 45 e0	 mov	 eax, DWORD PTR tv724[ebp]
  0024d	03 c1		 add	 eax, ecx
  0024f	89 46 08	 mov	 DWORD PTR [esi+8], eax

; 1608 :         _CATCH_END
; 1609 : 
; 1610 :         _Change_array(_Newvec, _Newsize, _Newcapacity);
; 1611 :     }

  00252	8b 4d f4	 mov	 ecx, DWORD PTR __$EHRec$[ebp+4]
  00255	64 89 0d 00 00
	00 00		 mov	 DWORD PTR fs:0, ecx
  0025c	59		 pop	 ecx
  0025d	5f		 pop	 edi
  0025e	5e		 pop	 esi
  0025f	5b		 pop	 ebx
  00260	8b e5		 mov	 esp, ebp
  00262	5d		 pop	 ebp
  00263	c2 08 00	 ret	 8
$LN96@Resize_rea:
; File C:\Program Files\Microsoft Visual Studio\2022\Community\VC\Tools\MSVC\14.34.31933\include\xmemory

; 164  :     _STL_VERIFY(_Back_shift >= _Min_back_shift && _Back_shift <= _Non_user_size, "invalid argument");

  00266	e8 00 00 00 00	 call	 __invalid_parameter_noinfo_noreturn
$LN128@Resize_rea:
; File C:\Program Files\Microsoft Visual Studio\2022\Community\VC\Tools\MSVC\14.34.31933\include\vector

; 1576 :             _Xlength();

  0026b	e8 00 00 00 00	 call	 ?_Xlength@?$vector@VCSkyObjectQuad@@V?$allocator@VCSkyObjectQuad@@@std@@@std@@CAXXZ ; std::vector<CSkyObjectQuad,std::allocator<CSkyObjectQuad> >::_Xlength
$LN129@Resize_rea:
; File C:\Program Files\Microsoft Visual Studio\2022\Community\VC\Tools\MSVC\14.34.31933\include\xmemory

; 61   :             _Throw_bad_array_new_length(); // multiply overflow

  00270	e8 00 00 00 00	 call	 ?_Throw_bad_array_new_length@std@@YAXXZ ; std::_Throw_bad_array_new_length
__catch$??$_Resize_reallocate@U_Value_init_tag@std@@@?$vector@VCSkyObjectQuad@@V?$allocator@VCSkyObjectQuad@@@std@@@std@@AAEXIABU_Value_init_tag@1@@Z$0:
; File C:\Program Files\Microsoft Visual Studio\2022\Community\VC\Tools\MSVC\14.34.31933\include\vector

; 1605 :         _Destroy_range(_Appended_first, _Appended_last, _Al);

  00275	8b 75 d8	 mov	 esi, DWORD PTR __Al$[ebp]
  00278	56		 push	 esi
  00279	ff 75 dc	 push	 DWORD PTR __Appended_last$[ebp]
  0027c	ff 75 d4	 push	 DWORD PTR __Appended_first$[ebp]
  0027f	e8 00 00 00 00	 call	 ??$_Destroy_range@V?$allocator@VCSkyObjectQuad@@@std@@@std@@YAXPAVCSkyObjectQuad@@QAV1@AAV?$allocator@VCSkyObjectQuad@@@0@@Z ; std::_Destroy_range<std::allocator<CSkyObjectQuad> >
  00284	83 c4 0c	 add	 esp, 12			; 0000000cH

; 1606 :         _Al.deallocate(_Newvec, _Newcapacity);

  00287	8b ce		 mov	 ecx, esi
  00289	ff 75 ec	 push	 DWORD PTR __Newcapacity$[ebp]
  0028c	ff 75 d0	 push	 DWORD PTR __Newvec$[ebp]
  0028f	e8 00 00 00 00	 call	 ?deallocate@?$allocator@VCSkyObjectQuad@@@std@@QAEXQAVCSkyObjectQuad@@I@Z ; std::allocator<CSkyObjectQuad>::deallocate

; 1607 :         _RERAISE;

  00294	6a 00		 push	 0
  00296	6a 00		 push	 0
  00298	e8 00 00 00 00	 call	 __CxxThrowException@8
$LN125@Resize_rea:
  0029d	cc		 int	 3
_TEXT	ENDS
;	COMDAT text$x
text$x	SEGMENT
__unwindfunclet$??$_Resize_reallocate@U_Value_init_tag@std@@@?$vector@VCSkyObjectQuad@@V?$allocator@VCSkyObjectQuad@@@std@@@std@@AAEXIABU_Value_init_tag@1@@Z$2:
  00000	8d 4d c4	 lea	 ecx, DWORD PTR __Backout$3[ebp]
  00003	e9 00 00 00 00	 jmp	 ??1?$_Uninitialized_backout_al@V?$allocator@VCSkyObjectQuad@@@std@@@std@@QAE@XZ ; std::_Uninitialized_backout_al<std::allocator<CSkyObjectQuad> >::~_Uninitialized_backout_al<std::allocator<CSkyObjectQuad> >
  00008	cc		 int	 3
  00009	cc		 int	 3
  0000a	cc		 int	 3
  0000b	cc		 int	 3
  0000c	cc		 int	 3
__ehhandler$??$_Resize_reallocate@U_Value_init_tag@std@@@?$vector@VCSkyObjectQuad@@V?$allocator@VCSkyObjectQuad@@@std@@@std@@AAEXIABU_Value_init_tag@1@@Z:
  0000d	90		 npad	 1
  0000e	90		 npad	 1
  0000f	8b 54 24 08	 mov	 edx, DWORD PTR [esp+8]
  00013	8d 42 0c	 lea	 eax, DWORD PTR [edx+12]
  00016	8b 4a c0	 mov	 ecx, DWORD PTR [edx-64]
  00019	33 c8		 xor	 ecx, eax
  0001b	e8 00 00 00 00	 call	 @__security_check_cookie@4
  00020	b8 00 00 00 00	 mov	 eax, OFFSET __ehfuncinfo$??$_Resize_reallocate@U_Value_init_tag@std@@@?$vector@VCSkyObjectQuad@@V?$allocator@VCSkyObjectQuad@@@std@@@std@@AAEXIABU_Value_init_tag@1@@Z
  00025	e9 00 00 00 00	 jmp	 ___CxxFrameHandler3
text$x	ENDS
??$_Resize_reallocate@U_Value_init_tag@std@@@?$vector@VCSkyObjectQuad@@V?$allocator@VCSkyObjectQuad@@@std@@@std@@AAEXIABU_Value_init_tag@1@@Z ENDP ; std::vector<CSkyObjectQuad,std::allocator<CSkyObjectQuad> >::_Resize_reallocate<std::_Value_init_tag>
; Function compile flags: /Ogtp
; File C:\Program Files\Microsoft Visual Studio\2022\Community\VC\Tools\MSVC\14.34.31933\include\xmemory
;	COMDAT ??1?$_Tree_temp_node_alloc@V?$allocator@U?$_Tree_node@U?$pair@$$CBV?$basic_string@DU?$char_traits@D@std@@V?$allocator@D@2@@std@@PAVCGraphicImageInstance@@@std@@PAX@std@@@std@@@std@@QAE@XZ
_TEXT	SEGMENT
??1?$_Tree_temp_node_alloc@V?$allocator@U?$_Tree_node@U?$pair@$$CBV?$basic_string@DU?$char_traits@D@std@@V?$allocator@D@2@@std@@PAVCGraphicImageInstance@@@std@@PAX@std@@@std@@@std@@QAE@XZ PROC ; std::_Tree_temp_node_alloc<std::allocator<std::_Tree_node<std::pair<std::basic_string<char,std::char_traits<char>,std::allocator<char> > const ,CGraphicImageInstance *>,void *> > >::~_Tree_temp_node_alloc<std::allocator<std::_Tree_node<std::pair<std::basic_string<char,std::char_traits<char>,std::allocator<char> > const ,CGraphicImageInstance *>,void *> > >, COMDAT
; _this$ = ecx

; 1017 :         if (_Ptr) {

  00000	8b 41 04	 mov	 eax, DWORD PTR [ecx+4]
  00003	85 c0		 test	 eax, eax
  00005	74 0b		 je	 SHORT $LN10@Tree_temp_

; 255  :         ::operator delete(_Ptr, _Bytes);

  00007	6a 2c		 push	 44			; 0000002cH
  00009	50		 push	 eax
  0000a	e8 00 00 00 00	 call	 ??3@YAXPAXI@Z		; operator delete
  0000f	83 c4 08	 add	 esp, 8
$LN10@Tree_temp_:
  00012	c3		 ret	 0
??1?$_Tree_temp_node_alloc@V?$allocator@U?$_Tree_node@U?$pair@$$CBV?$basic_string@DU?$char_traits@D@std@@V?$allocator@D@2@@std@@PAVCGraphicImageInstance@@@std@@PAX@std@@@std@@@std@@QAE@XZ ENDP ; std::_Tree_temp_node_alloc<std::allocator<std::_Tree_node<std::pair<std::basic_string<char,std::char_traits<char>,std::allocator<char> > const ,CGraphicImageInstance *>,void *> > >::~_Tree_temp_node_alloc<std::allocator<std::_Tree_node<std::pair<std::basic_string<char,std::char_traits<char>,std::allocator<char> > const ,CGraphicImageInstance *>,void *> > >
_TEXT	ENDS
; Function compile flags: /Ogtp
; File C:\Program Files\Microsoft Visual Studio\2022\Community\VC\Tools\MSVC\14.34.31933\include\xmemory
;	COMDAT ??1?$_Alloc_construct_ptr@V?$allocator@U?$_Tree_node@U?$pair@$$CBV?$basic_string@DU?$char_traits@D@std@@V?$allocator@D@2@@std@@PAVCGraphicImageInstance@@@std@@PAX@std@@@std@@@std@@QAE@XZ
_TEXT	SEGMENT
??1?$_Alloc_construct_ptr@V?$allocator@U?$_Tree_node@U?$pair@$$CBV?$basic_string@DU?$char_traits@D@std@@V?$allocator@D@2@@std@@PAVCGraphicImageInstance@@@std@@PAX@std@@@std@@@std@@QAE@XZ PROC ; std::_Alloc_construct_ptr<std::allocator<std::_Tree_node<std::pair<std::basic_string<char,std::char_traits<char>,std::allocator<char> > const ,CGraphicImageInstance *>,void *> > >::~_Alloc_construct_ptr<std::allocator<std::_Tree_node<std::pair<std::basic_string<char,std::char_traits<char>,std::allocator<char> > const ,CGraphicImageInstance *>,void *> > >, COMDAT
; _this$ = ecx

; 1017 :         if (_Ptr) {

  00000	8b 41 04	 mov	 eax, DWORD PTR [ecx+4]
  00003	85 c0		 test	 eax, eax
  00005	74 0b		 je	 SHORT $LN8@Alloc_cons

; 255  :         ::operator delete(_Ptr, _Bytes);

  00007	6a 2c		 push	 44			; 0000002cH
  00009	50		 push	 eax
  0000a	e8 00 00 00 00	 call	 ??3@YAXPAXI@Z		; operator delete
  0000f	83 c4 08	 add	 esp, 8
$LN8@Alloc_cons:

; 1018 :             _Al.deallocate(_Ptr, 1);
; 1019 :         }
; 1020 :     }

  00012	c3		 ret	 0
??1?$_Alloc_construct_ptr@V?$allocator@U?$_Tree_node@U?$pair@$$CBV?$basic_string@DU?$char_traits@D@std@@V?$allocator@D@2@@std@@PAVCGraphicImageInstance@@@std@@PAX@std@@@std@@@std@@QAE@XZ ENDP ; std::_Alloc_construct_ptr<std::allocator<std::_Tree_node<std::pair<std::basic_string<char,std::char_traits<char>,std::allocator<char> > const ,CGraphicImageInstance *>,void *> > >::~_Alloc_construct_ptr<std::allocator<std::_Tree_node<std::pair<std::basic_string<char,std::char_traits<char>,std::allocator<char> > const ,CGraphicImageInstance *>,void *> > >
_TEXT	ENDS
; Function compile flags: /Ogtp
; File C:\Program Files\Microsoft Visual Studio\2022\Community\VC\Tools\MSVC\14.34.31933\include\xtree
; File C:\Program Files\Microsoft Visual Studio\2022\Community\VC\Tools\MSVC\14.34.31933\include\xstddef
; File C:\Program Files\Microsoft Visual Studio\2022\Community\VC\Tools\MSVC\14.34.31933\include\xtree
;	COMDAT ??$_Find_lower_bound@V?$basic_string@DU?$char_traits@D@std@@V?$allocator@D@2@@std@@@?$_Tree@V?$_Tmap_traits@V?$basic_string@DU?$char_traits@D@std@@V?$allocator@D@2@@std@@PAVCGraphicImageInstance@@U?$less@V?$basic_string@DU?$char_traits@D@std@@V?$allocator@D@2@@std@@@2@V?$allocator@U?$pair@$$CBV?$basic_string@DU?$char_traits@D@std@@V?$allocator@D@2@@std@@PAVCGraphicImageInstance@@@std@@@2@$0A@@std@@@std@@IBE?AU?$_Tree_find_result@PAU?$_Tree_node@U?$pair@$$CBV?$basic_string@DU?$char_traits@D@std@@V?$allocator@D@2@@std@@PAVCGraphicImageInstance@@@std@@PAX@std@@@1@ABV?$basic_string@DU?$char_traits@D@std@@V?$allocator@D@2@@1@@Z
_TEXT	SEGMENT
___$ReturnUdt$ = 8					; size = 4
__Keyval$ = 12						; size = 4
??$_Find_lower_bound@V?$basic_string@DU?$char_traits@D@std@@V?$allocator@D@2@@std@@@?$_Tree@V?$_Tmap_traits@V?$basic_string@DU?$char_traits@D@std@@V?$allocator@D@2@@std@@PAVCGraphicImageInstance@@U?$less@V?$basic_string@DU?$char_traits@D@std@@V?$allocator@D@2@@std@@@2@V?$allocator@U?$pair@$$CBV?$basic_string@DU?$char_traits@D@std@@V?$allocator@D@2@@std@@PAVCGraphicImageInstance@@@std@@@2@$0A@@std@@@std@@IBE?AU?$_Tree_find_result@PAU?$_Tree_node@U?$pair@$$CBV?$basic_string@DU?$char_traits@D@std@@V?$allocator@D@2@@std@@PAVCGraphicImageInstance@@@std@@PAX@std@@@1@ABV?$basic_string@DU?$char_traits@D@std@@V?$allocator@D@2@@1@@Z PROC ; std::_Tree<std::_Tmap_traits<std::basic_string<char,std::char_traits<char>,std::allocator<char> >,CGraphicImageInstance *,std::less<std::basic_string<char,std::char_traits<char>,std::allocator<char> > >,std::allocator<std::pair<std::basic_string<char,std::char_traits<char>,std::allocator<char> > const ,CGraphicImageInstance *> >,0> >::_Find_lower_bound<std::basic_string<char,std::char_traits<char>,std::allocator<char> > >, COMDAT
; _this$ = ecx

; 1609 :     _Tree_find_result<_Nodeptr> _Find_lower_bound(const _Keyty& _Keyval) const {

  00000	55		 push	 ebp
  00001	8b ec		 mov	 ebp, esp

; 1610 :         const auto _Scary = _Get_scary();
; 1611 :         _Tree_find_result<_Nodeptr> _Result{{_Scary->_Myhead->_Parent, _Tree_child::_Right}, _Scary->_Myhead};

  00003	8b 01		 mov	 eax, DWORD PTR [ecx]
  00005	56		 push	 esi
  00006	57		 push	 edi
  00007	8b 7d 08	 mov	 edi, DWORD PTR ___$ReturnUdt$[ebp]
  0000a	8b 70 04	 mov	 esi, DWORD PTR [eax+4]
  0000d	89 37		 mov	 DWORD PTR [edi], esi

; 1612 :         _Nodeptr _Trynode = _Result._Location._Parent;
; 1613 :         while (!_Trynode->_Isnil) {

  0000f	80 7e 0d 00	 cmp	 BYTE PTR [esi+13], 0
  00013	c7 47 04 00 00
	00 00		 mov	 DWORD PTR [edi+4], 0
  0001a	89 47 08	 mov	 DWORD PTR [edi+8], eax
  0001d	75 32		 jne	 SHORT $LN12@Find_lower
  0001f	53		 push	 ebx
  00020	8b 5d 0c	 mov	 ebx, DWORD PTR __Keyval$[ebp]
$LL2@Find_lower:

; 1615 :             if (_DEBUG_LT_PRED(_Getcomp(), _Traits::_Kfn(_Trynode->_Myval), _Keyval)) {

  00023	8d 46 10	 lea	 eax, DWORD PTR [esi+16]
  00026	89 37		 mov	 DWORD PTR [edi], esi
; File C:\Program Files\Microsoft Visual Studio\2022\Community\VC\Tools\MSVC\14.34.31933\include\xstddef

; 143  :         return _Left < _Right;

  00028	53		 push	 ebx
  00029	50		 push	 eax
  0002a	e8 00 00 00 00	 call	 ??$?MDU?$char_traits@D@std@@V?$allocator@D@1@@std@@YA_NABV?$basic_string@DU?$char_traits@D@std@@V?$allocator@D@2@@0@0@Z ; std::operator<<char,std::char_traits<char>,std::allocator<char> >
  0002f	83 c4 08	 add	 esp, 8
; File C:\Program Files\Microsoft Visual Studio\2022\Community\VC\Tools\MSVC\14.34.31933\include\xtree

; 1615 :             if (_DEBUG_LT_PRED(_Getcomp(), _Traits::_Kfn(_Trynode->_Myval), _Keyval)) {

  00032	84 c0		 test	 al, al
  00034	74 07		 je	 SHORT $LN4@Find_lower

; 1616 :                 _Result._Location._Child = _Tree_child::_Right;
; 1617 :                 _Trynode                 = _Trynode->_Right;

  00036	8b 76 08	 mov	 esi, DWORD PTR [esi+8]
  00039	33 c0		 xor	 eax, eax

; 1618 :             } else {

  0003b	eb 0a		 jmp	 SHORT $LN5@Find_lower
$LN4@Find_lower:

; 1619 :                 _Result._Location._Child = _Tree_child::_Left;
; 1620 :                 _Result._Bound           = _Trynode;

  0003d	89 77 08	 mov	 DWORD PTR [edi+8], esi

; 1621 :                 _Trynode                 = _Trynode->_Left;

  00040	b8 01 00 00 00	 mov	 eax, 1
  00045	8b 36		 mov	 esi, DWORD PTR [esi]
$LN5@Find_lower:

; 1612 :         _Nodeptr _Trynode = _Result._Location._Parent;
; 1613 :         while (!_Trynode->_Isnil) {

  00047	89 47 04	 mov	 DWORD PTR [edi+4], eax
  0004a	80 7e 0d 00	 cmp	 BYTE PTR [esi+13], 0
  0004e	74 d3		 je	 SHORT $LL2@Find_lower

; 1622 :             }
; 1623 :         }
; 1624 : 
; 1625 :         return _Result;

  00050	5b		 pop	 ebx
$LN12@Find_lower:

; 1626 :     }

  00051	8b c7		 mov	 eax, edi
  00053	5f		 pop	 edi
  00054	5e		 pop	 esi
  00055	5d		 pop	 ebp
  00056	c2 08 00	 ret	 8
??$_Find_lower_bound@V?$basic_string@DU?$char_traits@D@std@@V?$allocator@D@2@@std@@@?$_Tree@V?$_Tmap_traits@V?$basic_string@DU?$char_traits@D@std@@V?$allocator@D@2@@std@@PAVCGraphicImageInstance@@U?$less@V?$basic_string@DU?$char_traits@D@std@@V?$allocator@D@2@@std@@@2@V?$allocator@U?$pair@$$CBV?$basic_string@DU?$char_traits@D@std@@V?$allocator@D@2@@std@@PAVCGraphicImageInstance@@@std@@@2@$0A@@std@@@std@@IBE?AU?$_Tree_find_result@PAU?$_Tree_node@U?$pair@$$CBV?$basic_string@DU?$char_traits@D@std@@V?$allocator@D@2@@std@@PAVCGraphicImageInstance@@@std@@PAX@std@@@1@ABV?$basic_string@DU?$char_traits@D@std@@V?$allocator@D@2@@1@@Z ENDP ; std::_Tree<std::_Tmap_traits<std::basic_string<char,std::char_traits<char>,std::allocator<char> >,CGraphicImageInstance *,std::less<std::basic_string<char,std::char_traits<char>,std::allocator<char> > >,std::allocator<std::pair<std::basic_string<char,std::char_traits<char>,std::allocator<char> > const ,CGraphicImageInstance *> >,0> >::_Find_lower_bound<std::basic_string<char,std::char_traits<char>,std::allocator<char> > >
_TEXT	ENDS
; Function compile flags: /Ogtp
; File C:\Program Files\Microsoft Visual Studio\2022\Community\VC\Tools\MSVC\14.34.31933\include\xmemory
;	COMDAT ??$_Destroy_range@V?$allocator@VCSkyObjectQuad@@@std@@@std@@YAXPAVCSkyObjectQuad@@QAV1@AAV?$allocator@VCSkyObjectQuad@@@0@@Z
_TEXT	SEGMENT
__First$ = 8						; size = 4
__Last$ = 12						; size = 4
__Al$ = 16						; size = 4
??$_Destroy_range@V?$allocator@VCSkyObjectQuad@@@std@@@std@@YAXPAVCSkyObjectQuad@@QAV1@AAV?$allocator@VCSkyObjectQuad@@@0@@Z PROC ; std::_Destroy_range<std::allocator<CSkyObjectQuad> >, COMDAT

; 943  : _CONSTEXPR20 void _Destroy_range(_Alloc_ptr_t<_Alloc> _First, const _Alloc_ptr_t<_Alloc> _Last, _Alloc& _Al) noexcept {

  00000	55		 push	 ebp
  00001	8b ec		 mov	 ebp, esp
  00003	56		 push	 esi

; 944  :     // note that this is an optimization for debug mode codegen; in release mode the BE removes all of this
; 945  :     using _Ty = typename _Alloc::value_type;
; 946  :     if constexpr (!conjunction_v<is_trivially_destructible<_Ty>, _Uses_default_destroy<_Alloc, _Ty*>>) {
; 947  :         for (; _First != _Last; ++_First) {

  00004	8b 75 08	 mov	 esi, DWORD PTR __First$[ebp]
  00007	57		 push	 edi
  00008	8b 7d 0c	 mov	 edi, DWORD PTR __Last$[ebp]
  0000b	3b f7		 cmp	 esi, edi
  0000d	74 13		 je	 SHORT $LN3@Destroy_ra
  0000f	90		 npad	 1
$LL4@Destroy_ra:

; 689  :         _Ptr->~_Uty();

  00010	8b 06		 mov	 eax, DWORD PTR [esi]
  00012	8b ce		 mov	 ecx, esi
  00014	6a 00		 push	 0
  00016	ff 10		 call	 DWORD PTR [eax]

; 944  :     // note that this is an optimization for debug mode codegen; in release mode the BE removes all of this
; 945  :     using _Ty = typename _Alloc::value_type;
; 946  :     if constexpr (!conjunction_v<is_trivially_destructible<_Ty>, _Uses_default_destroy<_Alloc, _Ty*>>) {
; 947  :         for (; _First != _Last; ++_First) {

  00018	81 c6 2c 01 00
	00		 add	 esi, 300		; 0000012cH
  0001e	3b f7		 cmp	 esi, edi
  00020	75 ee		 jne	 SHORT $LL4@Destroy_ra
$LN3@Destroy_ra:
  00022	5f		 pop	 edi

; 948  :             allocator_traits<_Alloc>::destroy(_Al, _Unfancy(_First));
; 949  :         }
; 950  :     }
; 951  : }

  00023	5e		 pop	 esi
  00024	5d		 pop	 ebp
  00025	c3		 ret	 0
??$_Destroy_range@V?$allocator@VCSkyObjectQuad@@@std@@@std@@YAXPAVCSkyObjectQuad@@QAV1@AAV?$allocator@VCSkyObjectQuad@@@0@@Z ENDP ; std::_Destroy_range<std::allocator<CSkyObjectQuad> >
_TEXT	ENDS
; Function compile flags: /Ogtp
; File C:\Program Files\Microsoft Visual Studio\2022\Community\VC\Tools\MSVC\14.34.31933\include\xtree
; File C:\Program Files\Microsoft Visual Studio\2022\Community\VC\Tools\MSVC\14.34.31933\include\utility
; File C:\Program Files\Microsoft Visual Studio\2022\Community\VC\Tools\MSVC\14.34.31933\include\xstring
; File C:\Program Files\Microsoft Visual Studio\2022\Community\VC\Tools\MSVC\14.34.31933\include\xmemory
; File C:\Program Files\Microsoft Visual Studio\2022\Community\VC\Tools\MSVC\14.34.31933\include\xstring
; File C:\Program Files\Microsoft Visual Studio\2022\Community\VC\Tools\MSVC\14.34.31933\include\xmemory
; File C:\Program Files\Microsoft Visual Studio\2022\Community\VC\Tools\MSVC\14.34.31933\include\xstring
; File C:\Program Files\Microsoft Visual Studio\2022\Community\VC\Tools\MSVC\14.34.31933\include\xmemory
; File C:\Program Files\Microsoft Visual Studio\2022\Community\VC\Tools\MSVC\14.34.31933\include\xtree
; File C:\Program Files\Microsoft Visual Studio\2022\Community\VC\Tools\MSVC\14.34.31933\include\xmemory
; File C:\Program Files\Microsoft Visual Studio\2022\Community\VC\Tools\MSVC\14.34.31933\include\xtree
;	COMDAT ??$_Erase_tree@V?$allocator@U?$_Tree_node@U?$pair@$$CBV?$basic_string@DU?$char_traits@D@std@@V?$allocator@D@2@@std@@PAVCGraphicImageInstance@@@std@@PAX@std@@@std@@@?$_Tree_val@U?$_Tree_simple_types@U?$pair@$$CBV?$basic_string@DU?$char_traits@D@std@@V?$allocator@D@2@@std@@PAVCGraphicImageInstance@@@std@@@std@@@std@@QAEXAAV?$allocator@U?$_Tree_node@U?$pair@$$CBV?$basic_string@DU?$char_traits@D@std@@V?$allocator@D@2@@std@@PAVCGraphicImageInstance@@@std@@PAX@std@@@1@PAU?$_Tree_node@U?$pair@$$CBV?$basic_string@DU?$char_traits@D@std@@V?$allocator@D@2@@std@@PAVCGraphicImageInstance@@@std@@PAX@1@@Z
_TEXT	SEGMENT
_this$1$ = -4						; size = 4
__Al$ = 8						; size = 4
__Rootnode$ = 12					; size = 4
??$_Erase_tree@V?$allocator@U?$_Tree_node@U?$pair@$$CBV?$basic_string@DU?$char_traits@D@std@@V?$allocator@D@2@@std@@PAVCGraphicImageInstance@@@std@@PAX@std@@@std@@@?$_Tree_val@U?$_Tree_simple_types@U?$pair@$$CBV?$basic_string@DU?$char_traits@D@std@@V?$allocator@D@2@@std@@PAVCGraphicImageInstance@@@std@@@std@@@std@@QAEXAAV?$allocator@U?$_Tree_node@U?$pair@$$CBV?$basic_string@DU?$char_traits@D@std@@V?$allocator@D@2@@std@@PAVCGraphicImageInstance@@@std@@PAX@std@@@1@PAU?$_Tree_node@U?$pair@$$CBV?$basic_string@DU?$char_traits@D@std@@V?$allocator@D@2@@std@@PAVCGraphicImageInstance@@@std@@PAX@1@@Z PROC ; std::_Tree_val<std::_Tree_simple_types<std::pair<std::basic_string<char,std::char_traits<char>,std::allocator<char> > const ,CGraphicImageInstance *> > >::_Erase_tree<std::allocator<std::_Tree_node<std::pair<std::basic_string<char,std::char_traits<char>,std::allocator<char> > const ,CGraphicImageInstance *>,void *> > >, COMDAT
; _this$ = ecx

; 744  :     void _Erase_tree(_Alnode& _Al, _Nodeptr _Rootnode) noexcept {

  00000	55		 push	 ebp
  00001	8b ec		 mov	 ebp, esp
  00003	51		 push	 ecx
  00004	57		 push	 edi

; 745  :         while (!_Rootnode->_Isnil) { // free subtrees, then node

  00005	8b 7d 0c	 mov	 edi, DWORD PTR __Rootnode$[ebp]
  00008	8b c1		 mov	 eax, ecx
  0000a	89 45 fc	 mov	 DWORD PTR _this$1$[ebp], eax
  0000d	80 7f 0d 00	 cmp	 BYTE PTR [edi+13], 0
  00011	75 6e		 jne	 SHORT $LN73@Erase_tree
  00013	53		 push	 ebx
  00014	8b 5d 08	 mov	 ebx, DWORD PTR __Al$[ebp]
  00017	56		 push	 esi
$LL2@Erase_tree:

; 746  :             _Erase_tree(_Al, _Rootnode->_Right);

  00018	ff 77 08	 push	 DWORD PTR [edi+8]
  0001b	8b c8		 mov	 ecx, eax
  0001d	53		 push	 ebx
  0001e	e8 00 00 00 00	 call	 ??$_Erase_tree@V?$allocator@U?$_Tree_node@U?$pair@$$CBV?$basic_string@DU?$char_traits@D@std@@V?$allocator@D@2@@std@@PAVCGraphicImageInstance@@@std@@PAX@std@@@std@@@?$_Tree_val@U?$_Tree_simple_types@U?$pair@$$CBV?$basic_string@DU?$char_traits@D@std@@V?$allocator@D@2@@std@@PAVCGraphicImageInstance@@@std@@@std@@@std@@QAEXAAV?$allocator@U?$_Tree_node@U?$pair@$$CBV?$basic_string@DU?$char_traits@D@std@@V?$allocator@D@2@@std@@PAVCGraphicImageInstance@@@std@@PAX@std@@@1@PAU?$_Tree_node@U?$pair@$$CBV?$basic_string@DU?$char_traits@D@std@@V?$allocator@D@2@@std@@PAVCGraphicImageInstance@@@std@@PAX@1@@Z ; std::_Tree_val<std::_Tree_simple_types<std::pair<std::basic_string<char,std::char_traits<char>,std::allocator<char> > const ,CGraphicImageInstance *> > >::_Erase_tree<std::allocator<std::_Tree_node<std::pair<std::basic_string<char,std::char_traits<char>,std::allocator<char> > const ,CGraphicImageInstance *>,void *> > >
; File C:\Program Files\Microsoft Visual Studio\2022\Community\VC\Tools\MSVC\14.34.31933\include\utility

; 653  :     _Ty _Old_val = static_cast<_Ty&&>(_Val);

  00023	8b f7		 mov	 esi, edi

; 654  :     _Val         = static_cast<_Other&&>(_New_val);

  00025	8b 3f		 mov	 edi, DWORD PTR [edi]
; File C:\Program Files\Microsoft Visual Studio\2022\Community\VC\Tools\MSVC\14.34.31933\include\xstring

; 2301 :         return _BUF_SIZE <= _Myres;

  00027	8b 4e 24	 mov	 ecx, DWORD PTR [esi+36]
  0002a	83 f9 10	 cmp	 ecx, 16			; 00000010H

; 5011 :         if (_My_data._Large_string_engaged()) {

  0002d	72 28		 jb	 SHORT $LN29@Erase_tree
; File C:\Program Files\Microsoft Visual Studio\2022\Community\VC\Tools\MSVC\14.34.31933\include\xmemory

; 830  :         _Deallocate<_New_alignof<_Ty>>(_Ptr, sizeof(_Ty) * _Count);

  0002f	8b 46 10	 mov	 eax, DWORD PTR [esi+16]
; File C:\Program Files\Microsoft Visual Studio\2022\Community\VC\Tools\MSVC\14.34.31933\include\xstring

; 5016 :             _Al.deallocate(_Ptr, _My_data._Myres + 1);

  00032	41		 inc	 ecx
; File C:\Program Files\Microsoft Visual Studio\2022\Community\VC\Tools\MSVC\14.34.31933\include\xmemory

; 251  :         if (_Bytes >= _Big_allocation_threshold) { // boost the alignment of big allocations to help autovectorization

  00033	81 f9 00 10 00
	00		 cmp	 ecx, 4096		; 00001000H
  00039	72 12		 jb	 SHORT $LN39@Erase_tree

; 150  :     const uintptr_t _Ptr_container   = _Ptr_user[-1];

  0003b	8b 50 fc	 mov	 edx, DWORD PTR [eax-4]
  0003e	83 c1 23	 add	 ecx, 35			; 00000023H

; 151  : 
; 152  :     // If the following asserts, it likely means that we are performing
; 153  :     // an aligned delete on memory coming from an unaligned allocation.
; 154  :     _STL_ASSERT(_Ptr_user[-2] == _Big_allocation_sentinel, "invalid argument");
; 155  : 
; 156  :     // Extra paranoia on aligned allocation/deallocation; ensure _Ptr_container is
; 157  :     // in range [_Min_back_shift, _Non_user_size]
; 158  : #ifdef _DEBUG
; 159  :     constexpr uintptr_t _Min_back_shift = 2 * sizeof(void*);
; 160  : #else // ^^^ _DEBUG ^^^ // vvv !_DEBUG vvv
; 161  :     constexpr uintptr_t _Min_back_shift = sizeof(void*);
; 162  : #endif // _DEBUG
; 163  :     const uintptr_t _Back_shift = reinterpret_cast<uintptr_t>(_Ptr) - _Ptr_container;

  00041	2b c2		 sub	 eax, edx

; 164  :     _STL_VERIFY(_Back_shift >= _Min_back_shift && _Back_shift <= _Non_user_size, "invalid argument");

  00043	83 c0 fc	 add	 eax, -4			; fffffffcH
  00046	83 f8 1f	 cmp	 eax, 31			; 0000001fH
  00049	77 3d		 ja	 SHORT $LN36@Erase_tree

; 165  :     _Ptr = reinterpret_cast<void*>(_Ptr_container);

  0004b	8b c2		 mov	 eax, edx
$LN39@Erase_tree:

; 255  :         ::operator delete(_Ptr, _Bytes);

  0004d	51		 push	 ecx
  0004e	50		 push	 eax
  0004f	e8 00 00 00 00	 call	 ??3@YAXPAXI@Z		; operator delete
  00054	83 c4 08	 add	 esp, 8
$LN29@Erase_tree:
  00057	6a 2c		 push	 44			; 0000002cH
  00059	56		 push	 esi
; File C:\Program Files\Microsoft Visual Studio\2022\Community\VC\Tools\MSVC\14.34.31933\include\xstring

; 5019 :         _My_data._Mysize = 0;

  0005a	c7 46 20 00 00
	00 00		 mov	 DWORD PTR [esi+32], 0

; 5020 :         _My_data._Myres  = _BUF_SIZE - 1;

  00061	c7 46 24 0f 00
	00 00		 mov	 DWORD PTR [esi+36], 15	; 0000000fH

; 5021 :         // the _Traits::assign is last so the codegen doesn't think the char write can alias this
; 5022 :         _Traits::assign(_My_data._Bx._Buf[0], _Elem());

  00068	c6 46 10 00	 mov	 BYTE PTR [esi+16], 0
; File C:\Program Files\Microsoft Visual Studio\2022\Community\VC\Tools\MSVC\14.34.31933\include\xmemory

; 255  :         ::operator delete(_Ptr, _Bytes);

  0006c	e8 00 00 00 00	 call	 ??3@YAXPAXI@Z		; operator delete
  00071	83 c4 08	 add	 esp, 8
; File C:\Program Files\Microsoft Visual Studio\2022\Community\VC\Tools\MSVC\14.34.31933\include\xtree

; 745  :         while (!_Rootnode->_Isnil) { // free subtrees, then node

  00074	80 7f 0d 00	 cmp	 BYTE PTR [edi+13], 0
  00078	75 05		 jne	 SHORT $LN75@Erase_tree
  0007a	8b 45 fc	 mov	 eax, DWORD PTR _this$1$[ebp]
  0007d	eb 99		 jmp	 SHORT $LL2@Erase_tree
$LN75@Erase_tree:
  0007f	5e		 pop	 esi
  00080	5b		 pop	 ebx
$LN73@Erase_tree:
  00081	5f		 pop	 edi

; 749  :     }

  00082	8b e5		 mov	 esp, ebp
  00084	5d		 pop	 ebp
  00085	c2 08 00	 ret	 8
$LN36@Erase_tree:
; File C:\Program Files\Microsoft Visual Studio\2022\Community\VC\Tools\MSVC\14.34.31933\include\xmemory

; 164  :     _STL_VERIFY(_Back_shift >= _Min_back_shift && _Back_shift <= _Non_user_size, "invalid argument");

  00088	e8 00 00 00 00	 call	 __invalid_parameter_noinfo_noreturn
$LN76@Erase_tree:
  0008d	cc		 int	 3
??$_Erase_tree@V?$allocator@U?$_Tree_node@U?$pair@$$CBV?$basic_string@DU?$char_traits@D@std@@V?$allocator@D@2@@std@@PAVCGraphicImageInstance@@@std@@PAX@std@@@std@@@?$_Tree_val@U?$_Tree_simple_types@U?$pair@$$CBV?$basic_string@DU?$char_traits@D@std@@V?$allocator@D@2@@std@@PAVCGraphicImageInstance@@@std@@@std@@@std@@QAEXAAV?$allocator@U?$_Tree_node@U?$pair@$$CBV?$basic_string@DU?$char_traits@D@std@@V?$allocator@D@2@@std@@PAVCGraphicImageInstance@@@std@@PAX@std@@@1@PAU?$_Tree_node@U?$pair@$$CBV?$basic_string@DU?$char_traits@D@std@@V?$allocator@D@2@@std@@PAVCGraphicImageInstance@@@std@@PAX@1@@Z ENDP ; std::_Tree_val<std::_Tree_simple_types<std::pair<std::basic_string<char,std::char_traits<char>,std::allocator<char> > const ,CGraphicImageInstance *> > >::_Erase_tree<std::allocator<std::_Tree_node<std::pair<std::basic_string<char,std::char_traits<char>,std::allocator<char> > const ,CGraphicImageInstance *>,void *> > >
_TEXT	ENDS
; Function compile flags: /Ogtp
; File C:\Program Files\Microsoft Visual Studio\2022\Community\VC\Tools\MSVC\14.34.31933\include\xtree
; File C:\Program Files\Microsoft Visual Studio\2022\Community\VC\Tools\MSVC\14.34.31933\include\xstddef
; File C:\Program Files\Microsoft Visual Studio\2022\Community\VC\Tools\MSVC\14.34.31933\include\xtree
; File C:\Program Files\Microsoft Visual Studio\2022\Community\VC\Tools\MSVC\14.34.31933\include\utility
; File C:\Program Files\Microsoft Visual Studio\2022\Community\VC\Tools\MSVC\14.34.31933\include\xtree
; File C:\Program Files\Microsoft Visual Studio\2022\Community\VC\Tools\MSVC\14.34.31933\include\xmemory
; File C:\Program Files\Microsoft Visual Studio\2022\Community\VC\Tools\MSVC\14.34.31933\include\xtree
; File C:\Program Files\Microsoft Visual Studio\2022\Community\VC\Tools\MSVC\14.34.31933\include\xmemory
; File C:\Program Files\Microsoft Visual Studio\2022\Community\VC\Tools\MSVC\14.34.31933\include\utility
; File C:\Program Files\Microsoft Visual Studio\2022\Community\VC\Tools\MSVC\14.34.31933\include\xtree
; File C:\Program Files\Microsoft Visual Studio\2022\Community\VC\Tools\MSVC\14.34.31933\include\utility
; File C:\Program Files\Microsoft Visual Studio\2022\Community\VC\Tools\MSVC\14.34.31933\include\xtree
; File C:\Program Files\Microsoft Visual Studio\2022\Community\VC\Tools\MSVC\14.34.31933\include\utility
; File C:\Program Files\Microsoft Visual Studio\2022\Community\VC\Tools\MSVC\14.34.31933\include\xtree
; File C:\Program Files\Microsoft Visual Studio\2022\Community\VC\Tools\MSVC\14.34.31933\include\utility
; File C:\Program Files\Microsoft Visual Studio\2022\Community\VC\Tools\MSVC\14.34.31933\include\xtree
; File C:\Program Files\Microsoft Visual Studio\2022\Community\VC\Tools\MSVC\14.34.31933\include\utility
; File C:\Program Files\Microsoft Visual Studio\2022\Community\VC\Tools\MSVC\14.34.31933\include\xtree
;	COMDAT ??$insert@$0A@$0A@@?$_Tree@V?$_Tmap_traits@V?$basic_string@DU?$char_traits@D@std@@V?$allocator@D@2@@std@@PAVCGraphicImageInstance@@U?$less@V?$basic_string@DU?$char_traits@D@std@@V?$allocator@D@2@@std@@@2@V?$allocator@U?$pair@$$CBV?$basic_string@DU?$char_traits@D@std@@V?$allocator@D@2@@std@@PAVCGraphicImageInstance@@@std@@@2@$0A@@std@@@std@@QAE?AU?$pair@V?$_Tree_iterator@V?$_Tree_val@U?$_Tree_simple_types@U?$pair@$$CBV?$basic_string@DU?$char_traits@D@std@@V?$allocator@D@2@@std@@PAVCGraphicImageInstance@@@std@@@std@@@std@@@std@@_N@1@$$QAU?$pair@$$CBV?$basic_string@DU?$char_traits@D@std@@V?$allocator@D@2@@std@@PAVCGraphicImageInstance@@@1@@Z
_TEXT	SEGMENT
__Loc$2 = -40						; size = 12
$T3 = -28						; size = 12
$T4 = -24						; size = 8
_this$1$ = -16						; size = 4
__$EHRec$ = -12						; size = 12
___$ReturnUdt$ = 8					; size = 4
__Val$ = 12						; size = 4
??$insert@$0A@$0A@@?$_Tree@V?$_Tmap_traits@V?$basic_string@DU?$char_traits@D@std@@V?$allocator@D@2@@std@@PAVCGraphicImageInstance@@U?$less@V?$basic_string@DU?$char_traits@D@std@@V?$allocator@D@2@@std@@@2@V?$allocator@U?$pair@$$CBV?$basic_string@DU?$char_traits@D@std@@V?$allocator@D@2@@std@@PAVCGraphicImageInstance@@@std@@@2@$0A@@std@@@std@@QAE?AU?$pair@V?$_Tree_iterator@V?$_Tree_val@U?$_Tree_simple_types@U?$pair@$$CBV?$basic_string@DU?$char_traits@D@std@@V?$allocator@D@2@@std@@PAVCGraphicImageInstance@@@std@@@std@@@std@@@std@@_N@1@$$QAU?$pair@$$CBV?$basic_string@DU?$char_traits@D@std@@V?$allocator@D@2@@std@@PAVCGraphicImageInstance@@@1@@Z PROC ; std::_Tree<std::_Tmap_traits<std::basic_string<char,std::char_traits<char>,std::allocator<char> >,CGraphicImageInstance *,std::less<std::basic_string<char,std::char_traits<char>,std::allocator<char> > >,std::allocator<std::pair<std::basic_string<char,std::char_traits<char>,std::allocator<char> > const ,CGraphicImageInstance *> >,0> >::insert<0,0>, COMDAT
; _this$ = ecx

; 1229 :     pair<iterator, bool> insert(value_type&& _Val) {

  00000	55		 push	 ebp
  00001	8b ec		 mov	 ebp, esp
  00003	6a ff		 push	 -1
  00005	68 00 00 00 00	 push	 __ehhandler$??$insert@$0A@$0A@@?$_Tree@V?$_Tmap_traits@V?$basic_string@DU?$char_traits@D@std@@V?$allocator@D@2@@std@@PAVCGraphicImageInstance@@U?$less@V?$basic_string@DU?$char_traits@D@std@@V?$allocator@D@2@@std@@@2@V?$allocator@U?$pair@$$CBV?$basic_string@DU?$char_traits@D@std@@V?$allocator@D@2@@std@@PAVCGraphicImageInstance@@@std@@@2@$0A@@std@@@std@@QAE?AU?$pair@V?$_Tree_iterator@V?$_Tree_val@U?$_Tree_simple_types@U?$pair@$$CBV?$basic_string@DU?$char_traits@D@std@@V?$allocator@D@2@@std@@PAVCGraphicImageInstance@@@std@@@std@@@std@@@std@@_N@1@$$QAU?$pair@$$CBV?$basic_string@DU?$char_traits@D@std@@V?$allocator@D@2@@std@@PAVCGraphicImageInstance@@@1@@Z
  0000a	64 a1 00 00 00
	00		 mov	 eax, DWORD PTR fs:0
  00010	50		 push	 eax
  00011	83 ec 1c	 sub	 esp, 28			; 0000001cH
  00014	53		 push	 ebx
  00015	56		 push	 esi
  00016	57		 push	 edi
  00017	a1 00 00 00 00	 mov	 eax, DWORD PTR ___security_cookie
  0001c	33 c5		 xor	 eax, ebp
  0001e	50		 push	 eax
  0001f	8d 45 f4	 lea	 eax, DWORD PTR __$EHRec$[ebp]
  00022	64 a3 00 00 00
	00		 mov	 DWORD PTR fs:0, eax
  00028	8b f9		 mov	 edi, ecx
  0002a	89 7d f0	 mov	 DWORD PTR _this$1$[ebp], edi

; 1001 :             _Loc                = _Find_lower_bound(_Keyval);

  0002d	8b 5d 0c	 mov	 ebx, DWORD PTR __Val$[ebp]
  00030	8d 45 e4	 lea	 eax, DWORD PTR $T3[ebp]
  00033	53		 push	 ebx
  00034	50		 push	 eax
  00035	e8 00 00 00 00	 call	 ??$_Find_lower_bound@V?$basic_string@DU?$char_traits@D@std@@V?$allocator@D@2@@std@@@?$_Tree@V?$_Tmap_traits@V?$basic_string@DU?$char_traits@D@std@@V?$allocator@D@2@@std@@PAVCGraphicImageInstance@@U?$less@V?$basic_string@DU?$char_traits@D@std@@V?$allocator@D@2@@std@@@2@V?$allocator@U?$pair@$$CBV?$basic_string@DU?$char_traits@D@std@@V?$allocator@D@2@@std@@PAVCGraphicImageInstance@@@std@@@2@$0A@@std@@@std@@IBE?AU?$_Tree_find_result@PAU?$_Tree_node@U?$pair@$$CBV?$basic_string@DU?$char_traits@D@std@@V?$allocator@D@2@@std@@PAVCGraphicImageInstance@@@std@@PAX@std@@@1@ABV?$basic_string@DU?$char_traits@D@std@@V?$allocator@D@2@@1@@Z ; std::_Tree<std::_Tmap_traits<std::basic_string<char,std::char_traits<char>,std::allocator<char> >,CGraphicImageInstance *,std::less<std::basic_string<char,std::char_traits<char>,std::allocator<char> > >,std::allocator<std::pair<std::basic_string<char,std::char_traits<char>,std::allocator<char> > const ,CGraphicImageInstance *> >,0> >::_Find_lower_bound<std::basic_string<char,std::char_traits<char>,std::allocator<char> > >
  0003a	8b 70 08	 mov	 esi, DWORD PTR [eax+8]
  0003d	f3 0f 7e 00	 movq	 xmm0, QWORD PTR [eax]
  00041	66 0f d6 45 d8	 movq	 QWORD PTR __Loc$2[ebp], xmm0

; 1605 :         return !_Bound->_Isnil && !_DEBUG_LT_PRED(_Getcomp(), _Keyval, _Traits::_Kfn(_Bound->_Myval));

  00046	80 7e 0d 00	 cmp	 BYTE PTR [esi+13], 0
  0004a	75 15		 jne	 SHORT $LN4@insert
  0004c	8d 46 10	 lea	 eax, DWORD PTR [esi+16]
; File C:\Program Files\Microsoft Visual Studio\2022\Community\VC\Tools\MSVC\14.34.31933\include\xstddef

; 143  :         return _Left < _Right;

  0004f	50		 push	 eax
  00050	53		 push	 ebx
  00051	e8 00 00 00 00	 call	 ??$?MDU?$char_traits@D@std@@V?$allocator@D@1@@std@@YA_NABV?$basic_string@DU?$char_traits@D@std@@V?$allocator@D@2@@0@0@Z ; std::operator<<char,std::char_traits<char>,std::allocator<char> >
  00056	83 c4 08	 add	 esp, 8
; File C:\Program Files\Microsoft Visual Studio\2022\Community\VC\Tools\MSVC\14.34.31933\include\xtree

; 1605 :         return !_Bound->_Isnil && !_DEBUG_LT_PRED(_Getcomp(), _Keyval, _Traits::_Kfn(_Bound->_Myval));

  00059	84 c0		 test	 al, al
  0005b	75 04		 jne	 SHORT $LN4@insert
; File C:\Program Files\Microsoft Visual Studio\2022\Community\VC\Tools\MSVC\14.34.31933\include\utility

; 172  :         : first(_STD forward<_Other1>(_Val1)), second(_STD forward<_Other2>(_Val2)) {

  0005d	32 c9		 xor	 cl, cl
; File C:\Program Files\Microsoft Visual Studio\2022\Community\VC\Tools\MSVC\14.34.31933\include\xtree

; 1003 :                 return {_Loc._Bound, false};

  0005f	eb 67		 jmp	 SHORT $LN84@insert
$LN4@insert:

; 1629 :         if (max_size() == _Get_scary()->_Mysize) {

  00061	81 7f 04 5d 74
	d1 05		 cmp	 DWORD PTR [edi+4], 97612893 ; 05d1745dH
  00068	74 7a		 je	 SHORT $LN99@insert

; 1007 :             _Inserted = _Tree_temp_node<_Alnode>(_Getal(), _Scary->_Myhead, _STD forward<_Valtys>(_Vals)...)._Release();

  0006a	8b 1f		 mov	 ebx, DWORD PTR [edi]
; File C:\Program Files\Microsoft Visual Studio\2022\Community\VC\Tools\MSVC\14.34.31933\include\xmemory

; 1005 :     _CONSTEXPR20 explicit _Alloc_construct_ptr(_Alloc& _Al_) : _Al(_Al_), _Ptr(nullptr) {}

  0006c	89 7d e8	 mov	 DWORD PTR $T4[ebp], edi

; 77   :         return ::operator new(_Bytes);

  0006f	6a 2c		 push	 44			; 0000002cH
; File C:\Program Files\Microsoft Visual Studio\2022\Community\VC\Tools\MSVC\14.34.31933\include\xtree

; 785  :     explicit _Tree_temp_node_alloc(_Alnode& _Al_) : _Alloc_construct_ptr<_Alnode>(_Al_) {

  00071	c7 45 fc 00 00
	00 00		 mov	 DWORD PTR __$EHRec$[ebp+8], 0
; File C:\Program Files\Microsoft Visual Studio\2022\Community\VC\Tools\MSVC\14.34.31933\include\xmemory

; 1012 :         _Ptr = nullptr; // if allocate throws, prevents double-free

  00078	c7 45 ec 00 00
	00 00		 mov	 DWORD PTR $T4[ebp+4], 0

; 77   :         return ::operator new(_Bytes);

  0007f	e8 00 00 00 00	 call	 ??2@YAPAXI@Z		; operator new

; 235  :         return _Traits::_Allocate(_Bytes);

  00084	8b f8		 mov	 edi, eax

; 77   :         return ::operator new(_Bytes);

  00086	83 c4 04	 add	 esp, 4

; 1013 :         _Ptr = _Al.allocate(1);

  00089	89 7d ec	 mov	 DWORD PTR $T4[ebp+4], edi
; File C:\Program Files\Microsoft Visual Studio\2022\Community\VC\Tools\MSVC\14.34.31933\include\utility

; 176  :     pair(pair&&)      = default;

  0008c	ff 75 0c	 push	 DWORD PTR __Val$[ebp]
  0008f	8d 4f 10	 lea	 ecx, DWORD PTR [edi+16]
; File C:\Program Files\Microsoft Visual Studio\2022\Community\VC\Tools\MSVC\14.34.31933\include\xtree

; 806  :         : _Tree_temp_node_alloc<_Alnode>(_Al_) {

  00092	c7 45 fc 01 00
	00 00		 mov	 DWORD PTR __$EHRec$[ebp+8], 1
; File C:\Program Files\Microsoft Visual Studio\2022\Community\VC\Tools\MSVC\14.34.31933\include\utility

; 176  :     pair(pair&&)      = default;

  00099	e8 00 00 00 00	 call	 ??0?$basic_string@DU?$char_traits@D@std@@V?$allocator@D@2@@std@@QAE@ABV01@@Z ; std::basic_string<char,std::char_traits<char>,std::allocator<char> >::basic_string<char,std::char_traits<char>,std::allocator<char> >
  0009e	8b 45 0c	 mov	 eax, DWORD PTR __Val$[ebp]
; File C:\Program Files\Microsoft Visual Studio\2022\Community\VC\Tools\MSVC\14.34.31933\include\xtree

; 1026 :         return {_Scary->_Insert_node(_Loc._Location, _Inserted), true};

  000a1	57		 push	 edi
  000a2	ff 75 dc	 push	 DWORD PTR __Loc$2[ebp+4]
; File C:\Program Files\Microsoft Visual Studio\2022\Community\VC\Tools\MSVC\14.34.31933\include\utility

; 176  :     pair(pair&&)      = default;

  000a5	8b 48 18	 mov	 ecx, DWORD PTR [eax+24]
; File C:\Program Files\Microsoft Visual Studio\2022\Community\VC\Tools\MSVC\14.34.31933\include\xtree

; 1026 :         return {_Scary->_Insert_node(_Loc._Location, _Inserted), true};

  000a8	ff 75 d8	 push	 DWORD PTR __Loc$2[ebp]
; File C:\Program Files\Microsoft Visual Studio\2022\Community\VC\Tools\MSVC\14.34.31933\include\utility

; 176  :     pair(pair&&)      = default;

  000ab	89 4f 28	 mov	 DWORD PTR [edi+40], ecx
; File C:\Program Files\Microsoft Visual Studio\2022\Community\VC\Tools\MSVC\14.34.31933\include\xtree

; 1026 :         return {_Scary->_Insert_node(_Loc._Location, _Inserted), true};

  000ae	8b 4d f0	 mov	 ecx, DWORD PTR _this$1$[ebp]

; 808  :         _Construct_in_place(this->_Ptr->_Left, _Myhead);

  000b1	89 1f		 mov	 DWORD PTR [edi], ebx

; 809  :         _Construct_in_place(this->_Ptr->_Parent, _Myhead);

  000b3	89 5f 04	 mov	 DWORD PTR [edi+4], ebx

; 810  :         _Construct_in_place(this->_Ptr->_Right, _Myhead);

  000b6	89 5f 08	 mov	 DWORD PTR [edi+8], ebx

; 811  :         this->_Ptr->_Color = _Red;

  000b9	66 c7 47 0c 00
	00		 mov	 WORD PTR [edi+12], 0

; 1026 :         return {_Scary->_Insert_node(_Loc._Location, _Inserted), true};

  000bf	e8 00 00 00 00	 call	 ?_Insert_node@?$_Tree_val@U?$_Tree_simple_types@U?$pair@$$CBV?$basic_string@DU?$char_traits@D@std@@V?$allocator@D@2@@std@@PAVCGraphicImageInstance@@@std@@@std@@@std@@QAEPAU?$_Tree_node@U?$pair@$$CBV?$basic_string@DU?$char_traits@D@std@@V?$allocator@D@2@@std@@PAVCGraphicImageInstance@@@std@@PAX@2@U?$_Tree_id@PAU?$_Tree_node@U?$pair@$$CBV?$basic_string@DU?$char_traits@D@std@@V?$allocator@D@2@@std@@PAVCGraphicImageInstance@@@std@@PAX@std@@@2@QAU32@@Z ; std::_Tree_val<std::_Tree_simple_types<std::pair<std::basic_string<char,std::char_traits<char>,std::allocator<char> > const ,CGraphicImageInstance *> > >::_Insert_node
; File C:\Program Files\Microsoft Visual Studio\2022\Community\VC\Tools\MSVC\14.34.31933\include\utility

; 172  :         : first(_STD forward<_Other1>(_Val1)), second(_STD forward<_Other2>(_Val2)) {

  000c4	8b f0		 mov	 esi, eax
  000c6	b1 01		 mov	 cl, 1
$LN84@insert:
  000c8	8b 45 08	 mov	 eax, DWORD PTR ___$ReturnUdt$[ebp]
  000cb	89 30		 mov	 DWORD PTR [eax], esi
  000cd	88 48 04	 mov	 BYTE PTR [eax+4], cl
; File C:\Program Files\Microsoft Visual Studio\2022\Community\VC\Tools\MSVC\14.34.31933\include\xtree

; 1232 :     }

  000d0	8b 4d f4	 mov	 ecx, DWORD PTR __$EHRec$[ebp]
  000d3	64 89 0d 00 00
	00 00		 mov	 DWORD PTR fs:0, ecx
  000da	59		 pop	 ecx
  000db	5f		 pop	 edi
  000dc	5e		 pop	 esi
  000dd	5b		 pop	 ebx
  000de	8b e5		 mov	 esp, ebp
  000e0	5d		 pop	 ebp
  000e1	c2 08 00	 ret	 8
$LN99@insert:

; 1630 :             _Throw_tree_length_error();

  000e4	e8 00 00 00 00	 call	 ?_Throw_tree_length_error@std@@YAXXZ ; std::_Throw_tree_length_error
$LN97@insert:
  000e9	cc		 int	 3
_TEXT	ENDS
;	COMDAT text$x
text$x	SEGMENT
__unwindfunclet$??$insert@$0A@$0A@@?$_Tree@V?$_Tmap_traits@V?$basic_string@DU?$char_traits@D@std@@V?$allocator@D@2@@std@@PAVCGraphicImageInstance@@U?$less@V?$basic_string@DU?$char_traits@D@std@@V?$allocator@D@2@@std@@@2@V?$allocator@U?$pair@$$CBV?$basic_string@DU?$char_traits@D@std@@V?$allocator@D@2@@std@@PAVCGraphicImageInstance@@@std@@@2@$0A@@std@@@std@@QAE?AU?$pair@V?$_Tree_iterator@V?$_Tree_val@U?$_Tree_simple_types@U?$pair@$$CBV?$basic_string@DU?$char_traits@D@std@@V?$allocator@D@2@@std@@PAVCGraphicImageInstance@@@std@@@std@@@std@@@std@@_N@1@$$QAU?$pair@$$CBV?$basic_string@DU?$char_traits@D@std@@V?$allocator@D@2@@std@@PAVCGraphicImageInstance@@@1@@Z$2:
  00000	8d 4d e8	 lea	 ecx, DWORD PTR $T4[ebp]
  00003	e9 00 00 00 00	 jmp	 ??1?$_Alloc_construct_ptr@V?$allocator@U?$_Tree_node@U?$pair@$$CBV?$basic_string@DU?$char_traits@D@std@@V?$allocator@D@2@@std@@PAVCGraphicImageInstance@@@std@@PAX@std@@@std@@@std@@QAE@XZ ; std::_Alloc_construct_ptr<std::allocator<std::_Tree_node<std::pair<std::basic_string<char,std::char_traits<char>,std::allocator<char> > const ,CGraphicImageInstance *>,void *> > >::~_Alloc_construct_ptr<std::allocator<std::_Tree_node<std::pair<std::basic_string<char,std::char_traits<char>,std::allocator<char> > const ,CGraphicImageInstance *>,void *> > >
__unwindfunclet$??$insert@$0A@$0A@@?$_Tree@V?$_Tmap_traits@V?$basic_string@DU?$char_traits@D@std@@V?$allocator@D@2@@std@@PAVCGraphicImageInstance@@U?$less@V?$basic_string@DU?$char_traits@D@std@@V?$allocator@D@2@@std@@@2@V?$allocator@U?$pair@$$CBV?$basic_string@DU?$char_traits@D@std@@V?$allocator@D@2@@std@@PAVCGraphicImageInstance@@@std@@@2@$0A@@std@@@std@@QAE?AU?$pair@V?$_Tree_iterator@V?$_Tree_val@U?$_Tree_simple_types@U?$pair@$$CBV?$basic_string@DU?$char_traits@D@std@@V?$allocator@D@2@@std@@PAVCGraphicImageInstance@@@std@@@std@@@std@@@std@@_N@1@$$QAU?$pair@$$CBV?$basic_string@DU?$char_traits@D@std@@V?$allocator@D@2@@std@@PAVCGraphicImageInstance@@@1@@Z$1:
  00008	8d 4d e8	 lea	 ecx, DWORD PTR $T4[ebp]
  0000b	e9 00 00 00 00	 jmp	 ??1?$_Tree_temp_node_alloc@V?$allocator@U?$_Tree_node@U?$pair@$$CBV?$basic_string@DU?$char_traits@D@std@@V?$allocator@D@2@@std@@PAVCGraphicImageInstance@@@std@@PAX@std@@@std@@@std@@QAE@XZ
  00010	cc		 int	 3
  00011	cc		 int	 3
  00012	cc		 int	 3
  00013	cc		 int	 3
  00014	cc		 int	 3
__ehhandler$??$insert@$0A@$0A@@?$_Tree@V?$_Tmap_traits@V?$basic_string@DU?$char_traits@D@std@@V?$allocator@D@2@@std@@PAVCGraphicImageInstance@@U?$less@V?$basic_string@DU?$char_traits@D@std@@V?$allocator@D@2@@std@@@2@V?$allocator@U?$pair@$$CBV?$basic_string@DU?$char_traits@D@std@@V?$allocator@D@2@@std@@PAVCGraphicImageInstance@@@std@@@2@$0A@@std@@@std@@QAE?AU?$pair@V?$_Tree_iterator@V?$_Tree_val@U?$_Tree_simple_types@U?$pair@$$CBV?$basic_string@DU?$char_traits@D@std@@V?$allocator@D@2@@std@@PAVCGraphicImageInstance@@@std@@@std@@@std@@@std@@_N@1@$$QAU?$pair@$$CBV?$basic_string@DU?$char_traits@D@std@@V?$allocator@D@2@@std@@PAVCGraphicImageInstance@@@1@@Z:
  00015	90		 npad	 1
  00016	90		 npad	 1
  00017	8b 54 24 08	 mov	 edx, DWORD PTR [esp+8]
  0001b	8d 42 0c	 lea	 eax, DWORD PTR [edx+12]
  0001e	8b 4a d4	 mov	 ecx, DWORD PTR [edx-44]
  00021	33 c8		 xor	 ecx, eax
  00023	e8 00 00 00 00	 call	 @__security_check_cookie@4
  00028	b8 00 00 00 00	 mov	 eax, OFFSET __ehfuncinfo$??$insert@$0A@$0A@@?$_Tree@V?$_Tmap_traits@V?$basic_string@DU?$char_traits@D@std@@V?$allocator@D@2@@std@@PAVCGraphicImageInstance@@U?$less@V?$basic_string@DU?$char_traits@D@std@@V?$allocator@D@2@@std@@@2@V?$allocator@U?$pair@$$CBV?$basic_string@DU?$char_traits@D@std@@V?$allocator@D@2@@std@@PAVCGraphicImageInstance@@@std@@@2@$0A@@std@@@std@@QAE?AU?$pair@V?$_Tree_iterator@V?$_Tree_val@U?$_Tree_simple_types@U?$pair@$$CBV?$basic_string@DU?$char_traits@D@std@@V?$allocator@D@2@@std@@PAVCGraphicImageInstance@@@std@@@std@@@std@@@std@@_N@1@$$QAU?$pair@$$CBV?$basic_string@DU?$char_traits@D@std@@V?$allocator@D@2@@std@@PAVCGraphicImageInstance@@@1@@Z
  0002d	e9 00 00 00 00	 jmp	 ___CxxFrameHandler3
text$x	ENDS
??$insert@$0A@$0A@@?$_Tree@V?$_Tmap_traits@V?$basic_string@DU?$char_traits@D@std@@V?$allocator@D@2@@std@@PAVCGraphicImageInstance@@U?$less@V?$basic_string@DU?$char_traits@D@std@@V?$allocator@D@2@@std@@@2@V?$allocator@U?$pair@$$CBV?$basic_string@DU?$char_traits@D@std@@V?$allocator@D@2@@std@@PAVCGraphicImageInstance@@@std@@@2@$0A@@std@@@std@@QAE?AU?$pair@V?$_Tree_iterator@V?$_Tree_val@U?$_Tree_simple_types@U?$pair@$$CBV?$basic_string@DU?$char_traits@D@std@@V?$allocator@D@2@@std@@PAVCGraphicImageInstance@@@std@@@std@@@std@@@std@@_N@1@$$QAU?$pair@$$CBV?$basic_string@DU?$char_traits@D@std@@V?$allocator@D@2@@std@@PAVCGraphicImageInstance@@@1@@Z ENDP ; std::_Tree<std::_Tmap_traits<std::basic_string<char,std::char_traits<char>,std::allocator<char> >,CGraphicImageInstance *,std::less<std::basic_string<char,std::char_traits<char>,std::allocator<char> > >,std::allocator<std::pair<std::basic_string<char,std::char_traits<char>,std::allocator<char> > const ,CGraphicImageInstance *> >,0> >::insert<0,0>
; Function compile flags: /Ogtp
; File C:\Program Files\Microsoft Visual Studio\2022\Community\VC\Tools\MSVC\14.34.31933\include\xstring
; File C:\Program Files\Microsoft Visual Studio\2022\Community\VC\Tools\MSVC\14.34.31933\include\xmemory
; File C:\Program Files\Microsoft Visual Studio\2022\Community\VC\Tools\MSVC\14.34.31933\include\xstring
; File C:\Program Files\Microsoft Visual Studio\2022\Community\VC\Tools\MSVC\14.34.31933\include\xmemory
; File C:\Program Files\Microsoft Visual Studio\2022\Community\VC\Tools\MSVC\14.34.31933\include\xstring
; File C:\Program Files\Microsoft Visual Studio\2022\Community\VC\Tools\MSVC\14.34.31933\include\xmemory
;	COMDAT ??1?$pair@$$CBV?$basic_string@DU?$char_traits@D@std@@V?$allocator@D@2@@std@@PAVCGraphicImageInstance@@@std@@QAE@XZ
_TEXT	SEGMENT
??1?$pair@$$CBV?$basic_string@DU?$char_traits@D@std@@V?$allocator@D@2@@std@@PAVCGraphicImageInstance@@@std@@QAE@XZ PROC ; std::pair<std::basic_string<char,std::char_traits<char>,std::allocator<char> > const ,CGraphicImageInstance *>::~pair<std::basic_string<char,std::char_traits<char>,std::allocator<char> > const ,CGraphicImageInstance *>, COMDAT
; _this$ = ecx
; File C:\Program Files\Microsoft Visual Studio\2022\Community\VC\Tools\MSVC\14.34.31933\include\xstring

; 2301 :         return _BUF_SIZE <= _Myres;

  00000	56		 push	 esi
  00001	8b f1		 mov	 esi, ecx
  00003	8b 4e 14	 mov	 ecx, DWORD PTR [esi+20]
  00006	83 f9 10	 cmp	 ecx, 16			; 00000010H

; 5011 :         if (_My_data._Large_string_engaged()) {

  00009	72 27		 jb	 SHORT $LN15@pair
; File C:\Program Files\Microsoft Visual Studio\2022\Community\VC\Tools\MSVC\14.34.31933\include\xmemory

; 830  :         _Deallocate<_New_alignof<_Ty>>(_Ptr, sizeof(_Ty) * _Count);

  0000b	8b 06		 mov	 eax, DWORD PTR [esi]
; File C:\Program Files\Microsoft Visual Studio\2022\Community\VC\Tools\MSVC\14.34.31933\include\xstring

; 5016 :             _Al.deallocate(_Ptr, _My_data._Myres + 1);

  0000d	41		 inc	 ecx
; File C:\Program Files\Microsoft Visual Studio\2022\Community\VC\Tools\MSVC\14.34.31933\include\xmemory

; 251  :         if (_Bytes >= _Big_allocation_threshold) { // boost the alignment of big allocations to help autovectorization

  0000e	81 f9 00 10 00
	00		 cmp	 ecx, 4096		; 00001000H
  00014	72 12		 jb	 SHORT $LN25@pair

; 150  :     const uintptr_t _Ptr_container   = _Ptr_user[-1];

  00016	8b 50 fc	 mov	 edx, DWORD PTR [eax-4]
  00019	83 c1 23	 add	 ecx, 35			; 00000023H

; 151  : 
; 152  :     // If the following asserts, it likely means that we are performing
; 153  :     // an aligned delete on memory coming from an unaligned allocation.
; 154  :     _STL_ASSERT(_Ptr_user[-2] == _Big_allocation_sentinel, "invalid argument");
; 155  : 
; 156  :     // Extra paranoia on aligned allocation/deallocation; ensure _Ptr_container is
; 157  :     // in range [_Min_back_shift, _Non_user_size]
; 158  : #ifdef _DEBUG
; 159  :     constexpr uintptr_t _Min_back_shift = 2 * sizeof(void*);
; 160  : #else // ^^^ _DEBUG ^^^ // vvv !_DEBUG vvv
; 161  :     constexpr uintptr_t _Min_back_shift = sizeof(void*);
; 162  : #endif // _DEBUG
; 163  :     const uintptr_t _Back_shift = reinterpret_cast<uintptr_t>(_Ptr) - _Ptr_container;

  0001c	2b c2		 sub	 eax, edx

; 164  :     _STL_VERIFY(_Back_shift >= _Min_back_shift && _Back_shift <= _Non_user_size, "invalid argument");

  0001e	83 c0 fc	 add	 eax, -4			; fffffffcH
  00021	83 f8 1f	 cmp	 eax, 31			; 0000001fH
  00024	77 1f		 ja	 SHORT $LN22@pair

; 165  :     _Ptr = reinterpret_cast<void*>(_Ptr_container);

  00026	8b c2		 mov	 eax, edx
$LN25@pair:

; 255  :         ::operator delete(_Ptr, _Bytes);

  00028	51		 push	 ecx
  00029	50		 push	 eax
  0002a	e8 00 00 00 00	 call	 ??3@YAXPAXI@Z		; operator delete
  0002f	83 c4 08	 add	 esp, 8
$LN15@pair:
; File C:\Program Files\Microsoft Visual Studio\2022\Community\VC\Tools\MSVC\14.34.31933\include\xstring

; 5019 :         _My_data._Mysize = 0;

  00032	c7 46 10 00 00
	00 00		 mov	 DWORD PTR [esi+16], 0

; 5020 :         _My_data._Myres  = _BUF_SIZE - 1;

  00039	c7 46 14 0f 00
	00 00		 mov	 DWORD PTR [esi+20], 15	; 0000000fH

; 5021 :         // the _Traits::assign is last so the codegen doesn't think the char write can alias this
; 5022 :         _Traits::assign(_My_data._Bx._Buf[0], _Elem());

  00040	c6 06 00	 mov	 BYTE PTR [esi], 0
  00043	5e		 pop	 esi
  00044	c3		 ret	 0
$LN22@pair:
; File C:\Program Files\Microsoft Visual Studio\2022\Community\VC\Tools\MSVC\14.34.31933\include\xmemory

; 164  :     _STL_VERIFY(_Back_shift >= _Min_back_shift && _Back_shift <= _Non_user_size, "invalid argument");

  00045	e8 00 00 00 00	 call	 __invalid_parameter_noinfo_noreturn
$LN31@pair:
  0004a	cc		 int	 3
??1?$pair@$$CBV?$basic_string@DU?$char_traits@D@std@@V?$allocator@D@2@@std@@PAVCGraphicImageInstance@@@std@@QAE@XZ ENDP ; std::pair<std::basic_string<char,std::char_traits<char>,std::allocator<char> > const ,CGraphicImageInstance *>::~pair<std::basic_string<char,std::char_traits<char>,std::allocator<char> > const ,CGraphicImageInstance *>
_TEXT	ENDS
; Function compile flags: /Ogtp
;	COMDAT ??_GCSkyBox@@UAEPAXI@Z
_TEXT	SEGMENT
___flags$ = 8						; size = 4
??_GCSkyBox@@UAEPAXI@Z PROC				; CSkyBox::`scalar deleting destructor', COMDAT
; _this$ = ecx
  00000	55		 push	 ebp
  00001	8b ec		 mov	 ebp, esp
  00003	56		 push	 esi
  00004	8b f1		 mov	 esi, ecx
  00006	e8 00 00 00 00	 call	 ??1CSkyBox@@UAE@XZ	; CSkyBox::~CSkyBox
  0000b	f6 45 08 01	 test	 BYTE PTR ___flags$[ebp], 1
  0000f	74 0e		 je	 SHORT $LN4@scalar
  00011	68 88 03 00 00	 push	 904			; 00000388H
  00016	56		 push	 esi
  00017	e8 00 00 00 00	 call	 ??3@YAXPAXI@Z		; operator delete
  0001c	83 c4 08	 add	 esp, 8
$LN4@scalar:
  0001f	8b c6		 mov	 eax, esi
  00021	5e		 pop	 esi
  00022	5d		 pop	 ebp
  00023	c2 04 00	 ret	 4
??_GCSkyBox@@UAEPAXI@Z ENDP				; CSkyBox::`scalar deleting destructor'
_TEXT	ENDS
; Function compile flags: /Ogtp
; File C:\Users\flourine\Desktop\Xantios\client-src\Code\EterLib\SkyBox.cpp
; File C:\Program Files\Microsoft Visual Studio\2022\Community\VC\Tools\MSVC\14.34.31933\include\vector
; File C:\Program Files\Microsoft Visual Studio\2022\Community\VC\Tools\MSVC\14.34.31933\include\xmemory
; File C:\Program Files\Microsoft Visual Studio\2022\Community\VC\Tools\MSVC\14.34.31933\include\vector
; File C:\Users\flourine\Desktop\Xantios\client-src\Code\EterLib\SkyBox.cpp
; File C:\Program Files\Microsoft Visual Studio\2022\Community\VC\Tools\MSVC\14.34.31933\include\vector
; File C:\Users\flourine\Desktop\Xantios\client-src\Code\EterLib\SkyBox.cpp
; File C:\Program Files\Microsoft Visual Studio\2022\Community\VC\Tools\MSVC\14.34.31933\include\vector
; File C:\Users\flourine\Desktop\Xantios\client-src\Code\EterLib\SkyBox.cpp
;	COMDAT ?SetSkyObjectQuadHorizon@CSkyBox@@IAEXPAV?$vector@VCSkyObjectQuad@@V?$allocator@VCSkyObjectQuad@@@std@@@std@@PBUD3DXVECTOR3@@@Z
_TEXT	SEGMENT
_aPDTVertex$ = -24					; size = 24
_pSkyObjectQuadVector$ = 8				; size = 4
$T1 = 11						; size = 1
$T2 = 11						; size = 1
$T3 = 11						; size = 1
$T4 = 11						; size = 1
_c_pv3QuadPoints$ = 12					; size = 4
?SetSkyObjectQuadHorizon@CSkyBox@@IAEXPAV?$vector@VCSkyObjectQuad@@V?$allocator@VCSkyObjectQuad@@@std@@@std@@PBUD3DXVECTOR3@@@Z PROC ; CSkyBox::SetSkyObjectQuadHorizon, COMDAT
; _this$ = ecx

; 429  : {

  00000	55		 push	 ebp
  00001	8b ec		 mov	 ebp, esp
  00003	83 ec 18	 sub	 esp, 24			; 00000018H
  00006	53		 push	 ebx
  00007	56		 push	 esi
  00008	57		 push	 edi
; File C:\Program Files\Microsoft Visual Studio\2022\Community\VC\Tools\MSVC\14.34.31933\include\vector

; 1827 :         pointer& _Mylast  = _My_data._Mylast;

  00009	8b 7d 08	 mov	 edi, DWORD PTR _pSkyObjectQuadVector$[ebp]

; 1828 : 
; 1829 :         if (_Myfirst == _Mylast) { // already empty, nothing to do

  0000c	8b 37		 mov	 esi, DWORD PTR [edi]
  0000e	8b 5f 04	 mov	 ebx, DWORD PTR [edi+4]
  00011	3b f3		 cmp	 esi, ebx
  00013	74 17		 je	 SHORT $LN3@SetSkyObje
$LL9@SetSkyObje:
; File C:\Program Files\Microsoft Visual Studio\2022\Community\VC\Tools\MSVC\14.34.31933\include\xmemory

; 689  :         _Ptr->~_Uty();

  00015	8b 06		 mov	 eax, DWORD PTR [esi]
  00017	8b ce		 mov	 ecx, esi
  00019	6a 00		 push	 0
  0001b	ff 10		 call	 DWORD PTR [eax]

; 947  :         for (; _First != _Last; ++_First) {

  0001d	81 c6 2c 01 00
	00		 add	 esi, 300		; 0000012cH
  00023	3b f3		 cmp	 esi, ebx
  00025	75 ee		 jne	 SHORT $LL9@SetSkyObje
; File C:\Program Files\Microsoft Visual Studio\2022\Community\VC\Tools\MSVC\14.34.31933\include\vector

; 1839 :         _Mylast = _Myfirst;

  00027	8b 07		 mov	 eax, DWORD PTR [edi]
  00029	89 47 04	 mov	 DWORD PTR [edi+4], eax
$LN3@SetSkyObje:
; File C:\Users\flourine\Desktop\Xantios\client-src\Code\EterLib\SkyBox.cpp

; 431  : 	pSkyObjectQuadVector->resize(1);

  0002c	6a 01		 push	 1
  0002e	8b cf		 mov	 ecx, edi
  00030	e8 00 00 00 00	 call	 ?resize@?$vector@VCSkyObjectQuad@@V?$allocator@VCSkyObjectQuad@@@std@@@std@@QAEXI@Z ; std::vector<CSkyObjectQuad,std::allocator<CSkyObjectQuad> >::resize
; File C:\Program Files\Microsoft Visual Studio\2022\Community\VC\Tools\MSVC\14.34.31933\include\vector

; 1967 :         if (static_cast<size_type>(_My_data._Mylast - _My_data._Myfirst) <= _Pos) {

  00035	8b 4f 04	 mov	 ecx, DWORD PTR [edi+4]
  00038	b8 b5 81 4e 1b	 mov	 eax, 458129845		; 1b4e81b5H
  0003d	8b 1f		 mov	 ebx, DWORD PTR [edi]
  0003f	2b cb		 sub	 ecx, ebx
  00041	f7 e9		 imul	 ecx
  00043	c1 fa 05	 sar	 edx, 5
  00046	8b c2		 mov	 eax, edx
  00048	c1 e8 1f	 shr	 eax, 31			; 0000001fH
  0004b	03 c2		 add	 eax, edx
  0004d	0f 84 c1 00 00
	00		 je	 $LN23@SetSkyObje
; File C:\Users\flourine\Desktop\Xantios\client-src\Code\EterLib\SkyBox.cpp

; 438  : 	rSkyObjectQuad.SetVertex(0, aPDTVertex);

  00053	8b 75 0c	 mov	 esi, DWORD PTR _c_pv3QuadPoints$[ebp]
  00056	8b cb		 mov	 ecx, ebx
  00058	c7 45 f8 00 00
	00 00		 mov	 DWORD PTR _aPDTVertex$[ebp+16], 0
  0005f	c7 45 fc 00 00
	80 3f		 mov	 DWORD PTR _aPDTVertex$[ebp+20], 1065353216 ; 3f800000H
  00066	c6 45 0b 00	 mov	 BYTE PTR $T4[ebp], 0
  0006a	8b 46 08	 mov	 eax, DWORD PTR [esi+8]
  0006d	f3 0f 7e 06	 movq	 xmm0, QWORD PTR [esi]
  00071	89 45 f0	 mov	 DWORD PTR _aPDTVertex$[ebp+8], eax
  00074	8d 45 e8	 lea	 eax, DWORD PTR _aPDTVertex$[ebp]
  00077	50		 push	 eax
  00078	8d 45 0b	 lea	 eax, DWORD PTR $T4[ebp]
  0007b	66 0f d6 45 e8	 movq	 QWORD PTR _aPDTVertex$[ebp], xmm0
  00080	50		 push	 eax
  00081	e8 00 00 00 00	 call	 ?SetVertex@CSkyObjectQuad@@QAEXABEABUSPDTVertex@@@Z ; CSkyObjectQuad::SetVertex

; 439  : 
; 440  : 	aPDTVertex.position		= c_pv3QuadPoints[1];

  00086	8b 46 14	 mov	 eax, DWORD PTR [esi+20]

; 441  : 	aPDTVertex.texCoord.x	= 0.0f;
; 442  : 	aPDTVertex.texCoord.y	= 0.0f;
; 443  : 	rSkyObjectQuad.SetVertex(1, aPDTVertex);

  00089	8b cb		 mov	 ecx, ebx
  0008b	f3 0f 7e 46 0c	 movq	 xmm0, QWORD PTR [esi+12]
  00090	89 45 f0	 mov	 DWORD PTR _aPDTVertex$[ebp+8], eax
  00093	8d 45 e8	 lea	 eax, DWORD PTR _aPDTVertex$[ebp]
  00096	50		 push	 eax
  00097	8d 45 0b	 lea	 eax, DWORD PTR $T3[ebp]
  0009a	66 0f d6 45 e8	 movq	 QWORD PTR _aPDTVertex$[ebp], xmm0
  0009f	50		 push	 eax
  000a0	c7 45 fc 00 00
	00 00		 mov	 DWORD PTR _aPDTVertex$[ebp+20], 0
  000a7	c6 45 0b 01	 mov	 BYTE PTR $T3[ebp], 1
  000ab	e8 00 00 00 00	 call	 ?SetVertex@CSkyObjectQuad@@QAEXABEABUSPDTVertex@@@Z ; CSkyObjectQuad::SetVertex

; 444  : 
; 445  : 	aPDTVertex.position		= c_pv3QuadPoints[2];

  000b0	8b 46 20	 mov	 eax, DWORD PTR [esi+32]

; 446  : 	aPDTVertex.texCoord.x	= 1.0f;
; 447  : 	aPDTVertex.texCoord.y	= 1.0f;
; 448  : 	rSkyObjectQuad.SetVertex(2, aPDTVertex);

  000b3	8b cb		 mov	 ecx, ebx
  000b5	f3 0f 7e 46 18	 movq	 xmm0, QWORD PTR [esi+24]
  000ba	89 45 f0	 mov	 DWORD PTR _aPDTVertex$[ebp+8], eax
  000bd	8d 45 e8	 lea	 eax, DWORD PTR _aPDTVertex$[ebp]
  000c0	50		 push	 eax
  000c1	8d 45 0b	 lea	 eax, DWORD PTR $T2[ebp]
  000c4	66 0f d6 45 e8	 movq	 QWORD PTR _aPDTVertex$[ebp], xmm0
  000c9	50		 push	 eax
  000ca	c7 45 f8 00 00
	80 3f		 mov	 DWORD PTR _aPDTVertex$[ebp+16], 1065353216 ; 3f800000H
  000d1	c7 45 fc 00 00
	80 3f		 mov	 DWORD PTR _aPDTVertex$[ebp+20], 1065353216 ; 3f800000H
  000d8	c6 45 0b 02	 mov	 BYTE PTR $T2[ebp], 2
  000dc	e8 00 00 00 00	 call	 ?SetVertex@CSkyObjectQuad@@QAEXABEABUSPDTVertex@@@Z ; CSkyObjectQuad::SetVertex

; 449  : 
; 450  : 	aPDTVertex.position		= c_pv3QuadPoints[3];

  000e1	8b 46 2c	 mov	 eax, DWORD PTR [esi+44]

; 451  : 	aPDTVertex.texCoord.x	= 1.0f;
; 452  : 	aPDTVertex.texCoord.y	= 0.0f;
; 453  : 	rSkyObjectQuad.SetVertex(3, aPDTVertex);

  000e4	8b cb		 mov	 ecx, ebx
  000e6	f3 0f 7e 46 24	 movq	 xmm0, QWORD PTR [esi+36]
  000eb	89 45 f0	 mov	 DWORD PTR _aPDTVertex$[ebp+8], eax
  000ee	8d 45 e8	 lea	 eax, DWORD PTR _aPDTVertex$[ebp]
  000f1	50		 push	 eax
  000f2	8d 45 0b	 lea	 eax, DWORD PTR $T1[ebp]
  000f5	66 0f d6 45 e8	 movq	 QWORD PTR _aPDTVertex$[ebp], xmm0
  000fa	50		 push	 eax
  000fb	c7 45 fc 00 00
	00 00		 mov	 DWORD PTR _aPDTVertex$[ebp+20], 0
  00102	c6 45 0b 03	 mov	 BYTE PTR $T1[ebp], 3
  00106	e8 00 00 00 00	 call	 ?SetVertex@CSkyObjectQuad@@QAEXABEABUSPDTVertex@@@Z ; CSkyObjectQuad::SetVertex
  0010b	5f		 pop	 edi
  0010c	5e		 pop	 esi
  0010d	5b		 pop	 ebx

; 454  : }

  0010e	8b e5		 mov	 esp, ebp
  00110	5d		 pop	 ebp
  00111	c2 08 00	 ret	 8
$LN23@SetSkyObje:
; File C:\Program Files\Microsoft Visual Studio\2022\Community\VC\Tools\MSVC\14.34.31933\include\vector

; 1968 :             _Xrange();

  00114	e8 00 00 00 00	 call	 ?_Xrange@?$vector@VCSkyObjectQuad@@V?$allocator@VCSkyObjectQuad@@@std@@@std@@CAXXZ ; std::vector<CSkyObjectQuad,std::allocator<CSkyObjectQuad> >::_Xrange
$LN21@SetSkyObje:
  00119	cc		 int	 3
?SetSkyObjectQuadHorizon@CSkyBox@@IAEXPAV?$vector@VCSkyObjectQuad@@V?$allocator@VCSkyObjectQuad@@@std@@@std@@PBUD3DXVECTOR3@@@Z ENDP ; CSkyBox::SetSkyObjectQuadHorizon
_TEXT	ENDS
; Function compile flags: /Ogtp
; File C:\Users\flourine\Desktop\Xantios\client-src\Code\EterLib\SkyBox.cpp
; File C:\Program Files\Microsoft Visual Studio\2022\Community\VC\Tools\MSVC\14.34.31933\include\vector
; File C:\Users\flourine\Desktop\Xantios\client-src\Code\EterLib\SkyBox.cpp
; File C:\Program Files\Microsoft Visual Studio\2022\Community\VC\Tools\MSVC\14.34.31933\include\vector
; File C:\Program Files\Microsoft Visual Studio\2022\Community\VC\Tools\MSVC\14.34.31933\include\xmemory
; File C:\Program Files\Microsoft Visual Studio\2022\Community\VC\Tools\MSVC\14.34.31933\include\vector
; File C:\Users\flourine\Desktop\Xantios\client-src\Code\EterLib\SkyBox.cpp
; File C:\Program Files\Microsoft Visual Studio\2022\Community\VC\Tools\MSVC\14.34.31933\include\vector
; File C:\Users\flourine\Desktop\Xantios\client-src\Code\EterLib\SkyBox.cpp
; File C:\Program Files\Microsoft Visual Studio\2022\Community\VC\Tools\MSVC\14.34.31933\include\vector
; File C:\Users\flourine\Desktop\Xantios\client-src\Code\EterLib\SkyBox.cpp
; File C:\Program Files\Microsoft Visual Studio\2022\Community\VC\Tools\MSVC\14.34.31933\include\vector
; File C:\Users\flourine\Desktop\Xantios\client-src\Code\EterLib\SkyBox.cpp
; File C:\Program Files\Microsoft Visual Studio\2022\Community\VC\Tools\MSVC\14.34.31933\include\vector
; File C:\Users\flourine\Desktop\Xantios\client-src\Code\EterLib\SkyBox.cpp
; File C:\Program Files\Microsoft Visual Studio\2022\Community\VC\Tools\MSVC\14.34.31933\include\vector
; File C:\Users\flourine\Desktop\Xantios\client-src\Code\EterLib\SkyBox.cpp
; File C:\Program Files\Microsoft Visual Studio\2022\Community\VC\Tools\MSVC\14.34.31933\include\vector
; File C:\Users\flourine\Desktop\Xantios\client-src\Code\EterLib\SkyBox.cpp
; File C:\Program Files\Microsoft Visual Studio\2022\Community\VC\Tools\MSVC\14.34.31933\include\vector
; File C:\Users\flourine\Desktop\Xantios\client-src\Code\EterLib\SkyBox.cpp
; File C:\Program Files\Microsoft Visual Studio\2022\Community\VC\Tools\MSVC\14.34.31933\include\vector
; File C:\Users\flourine\Desktop\Xantios\client-src\Code\EterLib\SkyBox.cpp
; File C:\Program Files\Microsoft Visual Studio\2022\Community\VC\Tools\MSVC\14.34.31933\include\vector
; File C:\Users\flourine\Desktop\Xantios\client-src\Code\EterLib\SkyBox.cpp
; File C:\Program Files\Microsoft Visual Studio\2022\Community\VC\Tools\MSVC\14.34.31933\include\vector
; File C:\Users\flourine\Desktop\Xantios\client-src\Code\EterLib\SkyBox.cpp
; File C:\Program Files\Microsoft Visual Studio\2022\Community\VC\Tools\MSVC\14.34.31933\include\vector
; File C:\Users\flourine\Desktop\Xantios\client-src\Code\EterLib\SkyBox.cpp
;	COMDAT ?SetSkyObjectQuadVertical@CSkyBox@@IAEXPAV?$vector@VCSkyObjectQuad@@V?$allocator@VCSkyObjectQuad@@@std@@@std@@PBUD3DXVECTOR2@@@Z
_TEXT	SEGMENT
_aPDTVertex$ = -48					; size = 24
tv797 = -24						; size = 4
tv787 = -20						; size = 4
$T1 = -16						; size = 4
$T2 = -16						; size = 4
_rSkyObjectQuad$1$ = -16				; size = 4
_rSkyObjectQuad$1$ = -16				; size = 4
_dwIndex$1$ = -12					; size = 4
_this$1$ = -8						; size = 4
$T3 = -2						; size = 1
$T4 = -2						; size = 1
$T5 = -2						; size = 1
$T6 = -2						; size = 1
$T7 = -2						; size = 1
$T8 = -2						; size = 1
$T9 = -2						; size = 1
$T10 = -2						; size = 1
$T11 = -2						; size = 1
$T12 = -2						; size = 1
_ucY$2$ = -1						; size = 1
_ucY$1$ = -1						; size = 1
_pSkyObjectQuadVector$ = 8				; size = 4
_c_pv2QuadPoints$ = 12					; size = 4
?SetSkyObjectQuadVertical@CSkyBox@@IAEXPAV?$vector@VCSkyObjectQuad@@V?$allocator@VCSkyObjectQuad@@@std@@@std@@PBUD3DXVECTOR2@@@Z PROC ; CSkyBox::SetSkyObjectQuadVertical, COMDAT
; _this$ = ecx

; 347  : {

  00000	55		 push	 ebp
  00001	8b ec		 mov	 ebp, esp
  00003	83 ec 30	 sub	 esp, 48			; 00000030H
; File C:\Program Files\Microsoft Visual Studio\2022\Community\VC\Tools\MSVC\14.34.31933\include\vector

; 1829 :         if (_Myfirst == _Mylast) { // already empty, nothing to do

  00006	8b 45 08	 mov	 eax, DWORD PTR _pSkyObjectQuadVector$[ebp]
; File C:\Users\flourine\Desktop\Xantios\client-src\Code\EterLib\SkyBox.cpp

; 347  : {

  00009	8b d1		 mov	 edx, ecx
  0000b	56		 push	 esi
  0000c	57		 push	 edi

; 348  : 	TPDTVertex aPDTVertex;
; 349  : 
; 350  : 	DWORD dwIndex = 0;

  0000d	33 ff		 xor	 edi, edi
  0000f	89 55 f8	 mov	 DWORD PTR _this$1$[ebp], edx
; File C:\Program Files\Microsoft Visual Studio\2022\Community\VC\Tools\MSVC\14.34.31933\include\vector

; 1829 :         if (_Myfirst == _Mylast) { // already empty, nothing to do

  00012	8b 30		 mov	 esi, DWORD PTR [eax]
  00014	8b 40 04	 mov	 eax, DWORD PTR [eax+4]
  00017	3b f0		 cmp	 esi, eax
  00019	74 26		 je	 SHORT $LN41@SetSkyObje
  0001b	8b f8		 mov	 edi, eax
  0001d	0f 1f 00	 npad	 3
$LL22@SetSkyObje:
; File C:\Program Files\Microsoft Visual Studio\2022\Community\VC\Tools\MSVC\14.34.31933\include\xmemory

; 689  :         _Ptr->~_Uty();

  00020	8b 06		 mov	 eax, DWORD PTR [esi]
  00022	8b ce		 mov	 ecx, esi
  00024	6a 00		 push	 0
  00026	ff 10		 call	 DWORD PTR [eax]

; 947  :         for (; _First != _Last; ++_First) {

  00028	81 c6 2c 01 00
	00		 add	 esi, 300		; 0000012cH
  0002e	3b f7		 cmp	 esi, edi
  00030	75 ee		 jne	 SHORT $LL22@SetSkyObje
; File C:\Program Files\Microsoft Visual Studio\2022\Community\VC\Tools\MSVC\14.34.31933\include\vector

; 1839 :         _Mylast = _Myfirst;

  00032	8b 75 08	 mov	 esi, DWORD PTR _pSkyObjectQuadVector$[ebp]
  00035	33 ff		 xor	 edi, edi
  00037	8b 55 f8	 mov	 edx, DWORD PTR _this$1$[ebp]
  0003a	8b 06		 mov	 eax, DWORD PTR [esi]
  0003c	89 46 04	 mov	 DWORD PTR [esi+4], eax
  0003f	eb 03		 jmp	 SHORT $LN16@SetSkyObje
$LN41@SetSkyObje:

; 1829 :         if (_Myfirst == _Mylast) { // already empty, nothing to do

  00041	8b 75 08	 mov	 esi, DWORD PTR _pSkyObjectQuadVector$[ebp]
$LN16@SetSkyObje:
; File C:\Users\flourine\Desktop\Xantios\client-src\Code\EterLib\SkyBox.cpp

; 353  : 	pSkyObjectQuadVector->resize(m_ucVirticalGradientLevelUpper + m_ucVirticalGradientLevelLower);

  00044	0f b6 8a 1d 02
	00 00		 movzx	 ecx, BYTE PTR [edx+541]
  0004b	0f b6 82 1c 02
	00 00		 movzx	 eax, BYTE PTR [edx+540]
  00052	03 c8		 add	 ecx, eax
  00054	51		 push	 ecx
  00055	8b ce		 mov	 ecx, esi
  00057	e8 00 00 00 00	 call	 ?resize@?$vector@VCSkyObjectQuad@@V?$allocator@VCSkyObjectQuad@@@std@@@std@@QAEXI@Z ; std::vector<CSkyObjectQuad,std::allocator<CSkyObjectQuad> >::resize

; 354  : 
; 355  : 	unsigned char ucY;
; 356  : 	for (ucY = 0; ucY < m_ucVirticalGradientLevelUpper; ++ucY)

  0005c	8b 45 f8	 mov	 eax, DWORD PTR _this$1$[ebp]
  0005f	f3 0f 10 1d 00
	00 00 00	 movss	 xmm3, DWORD PTR __real@3f000000
  00067	c6 45 ff 00	 mov	 BYTE PTR _ucY$1$[ebp], 0
  0006b	8a 88 1c 02 00
	00		 mov	 cl, BYTE PTR [eax+540]
  00071	88 4d fe	 mov	 BYTE PTR $T3[ebp], cl
  00074	84 c9		 test	 cl, cl
  00076	0f 84 fd 01 00
	00		 je	 $LN40@SetSkyObje
  0007c	0f 1f 40 00	 npad	 4
$LL4@SetSkyObje:
; File C:\Program Files\Microsoft Visual Studio\2022\Community\VC\Tools\MSVC\14.34.31933\include\vector

; 1967 :         if (static_cast<size_type>(_My_data._Mylast - _My_data._Myfirst) <= _Pos) {

  00080	8b 4e 04	 mov	 ecx, DWORD PTR [esi+4]
  00083	b8 b5 81 4e 1b	 mov	 eax, 458129845		; 1b4e81b5H
; File C:\Users\flourine\Desktop\Xantios\client-src\Code\EterLib\SkyBox.cpp

; 358  : 		CSkyObjectQuad & rSkyObjectQuad = pSkyObjectQuadVector->at(dwIndex++);

  00088	89 7d f0	 mov	 DWORD PTR $T2[ebp], edi
  0008b	47		 inc	 edi
  0008c	89 7d f4	 mov	 DWORD PTR _dwIndex$1$[ebp], edi
; File C:\Program Files\Microsoft Visual Studio\2022\Community\VC\Tools\MSVC\14.34.31933\include\vector

; 1967 :         if (static_cast<size_type>(_My_data._Mylast - _My_data._Myfirst) <= _Pos) {

  0008f	8b 3e		 mov	 edi, DWORD PTR [esi]
  00091	2b cf		 sub	 ecx, edi
  00093	f7 e9		 imul	 ecx
  00095	8b 4d f0	 mov	 ecx, DWORD PTR $T2[ebp]
  00098	c1 fa 05	 sar	 edx, 5
  0009b	8b c2		 mov	 eax, edx
  0009d	c1 e8 1f	 shr	 eax, 31			; 0000001fH
  000a0	03 c2		 add	 eax, edx
  000a2	3b c1		 cmp	 eax, ecx
  000a4	0f 86 4c 04 00
	00		 jbe	 $LN30@SetSkyObje
; File C:\Users\flourine\Desktop\Xantios\client-src\Code\EterLib\SkyBox.cpp

; 360  : 		aPDTVertex.position.x = c_pv2QuadPoints[0].x;

  000aa	8b 45 0c	 mov	 eax, DWORD PTR _c_pv2QuadPoints$[ebp]
; File C:\Program Files\Microsoft Visual Studio\2022\Community\VC\Tools\MSVC\14.34.31933\include\vector

; 1971 :         return _My_data._Myfirst[_Pos];

  000ad	69 c9 2c 01 00
	00		 imul	 ecx, ecx, 300
; File C:\Users\flourine\Desktop\Xantios\client-src\Code\EterLib\SkyBox.cpp

; 363  : 		aPDTVertex.texCoord.x = 0.0f;

  000b3	c7 45 e0 00 00
	00 00		 mov	 DWORD PTR _aPDTVertex$[ebp+16], 0
  000ba	f3 0f 10 00	 movss	 xmm0, DWORD PTR [eax]
  000be	f3 0f 11 45 d0	 movss	 DWORD PTR _aPDTVertex$[ebp], xmm0
  000c3	f3 0f 10 40 04	 movss	 xmm0, DWORD PTR [eax+4]
; File C:\Program Files\Microsoft Visual Studio\2022\Community\VC\Tools\MSVC\14.34.31933\include\vector

; 1971 :         return _My_data._Myfirst[_Pos];

  000c8	03 cf		 add	 ecx, edi
; File C:\Users\flourine\Desktop\Xantios\client-src\Code\EterLib\SkyBox.cpp

; 362  : 		aPDTVertex.position.z = 1.0f - (float)(ucY + 1) / (float)(m_ucVirticalGradientLevelUpper);

  000ca	0f b6 7d ff	 movzx	 edi, BYTE PTR _ucY$1$[ebp]
  000ce	0f b6 45 fe	 movzx	 eax, BYTE PTR $T3[ebp]
  000d2	f3 0f 11 45 d4	 movss	 DWORD PTR _aPDTVertex$[ebp+4], xmm0
; File C:\Program Files\Microsoft Visual Studio\2022\Community\VC\Tools\MSVC\14.34.31933\include\vector

; 1971 :         return _My_data._Myfirst[_Pos];

  000d7	89 4d f0	 mov	 DWORD PTR _rSkyObjectQuad$1$[ebp], ecx
; File C:\Users\flourine\Desktop\Xantios\client-src\Code\EterLib\SkyBox.cpp

; 362  : 		aPDTVertex.position.z = 1.0f - (float)(ucY + 1) / (float)(m_ucVirticalGradientLevelUpper);

  000da	8d 77 01	 lea	 esi, DWORD PTR [edi+1]

; 364  : 		aPDTVertex.texCoord.y = (float)(ucY + 1) / (float)(m_ucVirticalGradientLevelUpper) * 0.5f;
; 365  : 		rSkyObjectQuad.SetVertex(0, aPDTVertex);

  000dd	c6 45 fe 00	 mov	 BYTE PTR $T12[ebp], 0
  000e1	66 0f 6e c0	 movd	 xmm0, eax
  000e5	8d 45 d0	 lea	 eax, DWORD PTR _aPDTVertex$[ebp]
  000e8	66 0f 6e ce	 movd	 xmm1, esi
  000ec	0f 5b c0	 cvtdq2ps xmm0, xmm0
  000ef	50		 push	 eax
  000f0	8d 45 fe	 lea	 eax, DWORD PTR $T12[ebp]
  000f3	50		 push	 eax
  000f4	0f 5b c9	 cvtdq2ps xmm1, xmm1
  000f7	f3 0f 5e c8	 divss	 xmm1, xmm0
  000fb	f3 0f 10 05 00
	00 00 00	 movss	 xmm0, DWORD PTR __real@3f800000
  00103	f3 0f 5c c1	 subss	 xmm0, xmm1
  00107	f3 0f 59 cb	 mulss	 xmm1, xmm3
  0010b	f3 0f 11 4d e4	 movss	 DWORD PTR _aPDTVertex$[ebp+20], xmm1
  00110	f3 0f 11 45 d8	 movss	 DWORD PTR _aPDTVertex$[ebp+8], xmm0
  00115	e8 00 00 00 00	 call	 ?SetVertex@CSkyObjectQuad@@QAEXABEABUSPDTVertex@@@Z ; CSkyObjectQuad::SetVertex

; 366  : 		aPDTVertex.position.x = c_pv2QuadPoints[0].x;

  0011a	8b 45 0c	 mov	 eax, DWORD PTR _c_pv2QuadPoints$[ebp]
  0011d	66 0f 6e cf	 movd	 xmm1, edi

; 367  : 		aPDTVertex.position.y = c_pv2QuadPoints[0].y;
; 368  : 		aPDTVertex.position.z = 1.0f - (float)(ucY) / (float)(m_ucVirticalGradientLevelUpper);

  00121	0f 5b c9	 cvtdq2ps xmm1, xmm1

; 369  : 		aPDTVertex.texCoord.x = 0.0f;
; 370  : 		aPDTVertex.texCoord.y = (float)(ucY) / (float)(m_ucVirticalGradientLevelUpper) * 0.5f;
; 371  : 		rSkyObjectQuad.SetVertex(1, aPDTVertex);

  00124	8b 4d f0	 mov	 ecx, DWORD PTR _rSkyObjectQuad$1$[ebp]
  00127	c6 45 fe 01	 mov	 BYTE PTR $T11[ebp], 1
  0012b	f3 0f 10 00	 movss	 xmm0, DWORD PTR [eax]
  0012f	f3 0f 11 45 d0	 movss	 DWORD PTR _aPDTVertex$[ebp], xmm0
  00134	f3 0f 10 40 04	 movss	 xmm0, DWORD PTR [eax+4]
  00139	8b 45 f8	 mov	 eax, DWORD PTR _this$1$[ebp]
  0013c	f3 0f 11 45 d4	 movss	 DWORD PTR _aPDTVertex$[ebp+4], xmm0
  00141	0f b6 80 1c 02
	00 00		 movzx	 eax, BYTE PTR [eax+540]
  00148	66 0f 6e c0	 movd	 xmm0, eax
  0014c	8d 45 d0	 lea	 eax, DWORD PTR _aPDTVertex$[ebp]
  0014f	0f 5b c0	 cvtdq2ps xmm0, xmm0
  00152	50		 push	 eax
  00153	8d 45 fe	 lea	 eax, DWORD PTR $T11[ebp]
  00156	50		 push	 eax
  00157	f3 0f 5e c8	 divss	 xmm1, xmm0
  0015b	f3 0f 10 05 00
	00 00 00	 movss	 xmm0, DWORD PTR __real@3f800000
  00163	f3 0f 5c c1	 subss	 xmm0, xmm1
  00167	f3 0f 59 0d 00
	00 00 00	 mulss	 xmm1, DWORD PTR __real@3f000000
  0016f	f3 0f 11 4d e4	 movss	 DWORD PTR _aPDTVertex$[ebp+20], xmm1
  00174	f3 0f 11 45 d8	 movss	 DWORD PTR _aPDTVertex$[ebp+8], xmm0
  00179	e8 00 00 00 00	 call	 ?SetVertex@CSkyObjectQuad@@QAEXABEABUSPDTVertex@@@Z ; CSkyObjectQuad::SetVertex

; 372  : 		aPDTVertex.position.x = c_pv2QuadPoints[1].x;

  0017e	8b 45 0c	 mov	 eax, DWORD PTR _c_pv2QuadPoints$[ebp]
  00181	66 0f 6e ce	 movd	 xmm1, esi

; 373  : 		aPDTVertex.position.y = c_pv2QuadPoints[1].y;
; 374  : 		aPDTVertex.position.z = 1.0f - (float)(ucY + 1) / (float)(m_ucVirticalGradientLevelUpper);

  00185	0f 5b c9	 cvtdq2ps xmm1, xmm1

; 375  : 		aPDTVertex.texCoord.x = 1.0f;
; 376  : 		aPDTVertex.texCoord.y = (float)(ucY + 1) / (float)(m_ucVirticalGradientLevelUpper) * 0.5f;
; 377  : 		rSkyObjectQuad.SetVertex(2, aPDTVertex);

  00188	8b 4d f0	 mov	 ecx, DWORD PTR _rSkyObjectQuad$1$[ebp]
  0018b	c7 45 e0 00 00
	80 3f		 mov	 DWORD PTR _aPDTVertex$[ebp+16], 1065353216 ; 3f800000H
  00192	c6 45 fe 02	 mov	 BYTE PTR $T10[ebp], 2
  00196	f3 0f 10 40 08	 movss	 xmm0, DWORD PTR [eax+8]
  0019b	f3 0f 11 45 d0	 movss	 DWORD PTR _aPDTVertex$[ebp], xmm0
  001a0	f3 0f 10 40 0c	 movss	 xmm0, DWORD PTR [eax+12]
  001a5	8b 45 f8	 mov	 eax, DWORD PTR _this$1$[ebp]
  001a8	f3 0f 11 45 d4	 movss	 DWORD PTR _aPDTVertex$[ebp+4], xmm0
  001ad	0f b6 80 1c 02
	00 00		 movzx	 eax, BYTE PTR [eax+540]
  001b4	66 0f 6e c0	 movd	 xmm0, eax
  001b8	8d 45 d0	 lea	 eax, DWORD PTR _aPDTVertex$[ebp]
  001bb	0f 5b c0	 cvtdq2ps xmm0, xmm0
  001be	50		 push	 eax
  001bf	8d 45 fe	 lea	 eax, DWORD PTR $T10[ebp]
  001c2	50		 push	 eax
  001c3	f3 0f 5e c8	 divss	 xmm1, xmm0
  001c7	f3 0f 10 05 00
	00 00 00	 movss	 xmm0, DWORD PTR __real@3f800000
  001cf	f3 0f 5c c1	 subss	 xmm0, xmm1
  001d3	f3 0f 59 0d 00
	00 00 00	 mulss	 xmm1, DWORD PTR __real@3f000000
  001db	f3 0f 11 4d e4	 movss	 DWORD PTR _aPDTVertex$[ebp+20], xmm1
  001e0	f3 0f 11 45 d8	 movss	 DWORD PTR _aPDTVertex$[ebp+8], xmm0
  001e5	e8 00 00 00 00	 call	 ?SetVertex@CSkyObjectQuad@@QAEXABEABUSPDTVertex@@@Z ; CSkyObjectQuad::SetVertex

; 378  : 		aPDTVertex.position.x = c_pv2QuadPoints[1].x;

  001ea	8b 45 0c	 mov	 eax, DWORD PTR _c_pv2QuadPoints$[ebp]
  001ed	f3 0f 10 40 08	 movss	 xmm0, DWORD PTR [eax+8]
  001f2	f3 0f 11 45 d0	 movss	 DWORD PTR _aPDTVertex$[ebp], xmm0

; 379  : 		aPDTVertex.position.y = c_pv2QuadPoints[1].y;

  001f7	f3 0f 10 40 0c	 movss	 xmm0, DWORD PTR [eax+12]

; 380  : 		aPDTVertex.position.z = 1.0f - (float)(ucY) / (float)(m_ucVirticalGradientLevelUpper);

  001fc	8b 45 f8	 mov	 eax, DWORD PTR _this$1$[ebp]
  001ff	f3 0f 11 45 d4	 movss	 DWORD PTR _aPDTVertex$[ebp+4], xmm0
  00204	66 0f 6e cf	 movd	 xmm1, edi
  00208	0f 5b c9	 cvtdq2ps xmm1, xmm1
  0020b	0f b6 80 1c 02
	00 00		 movzx	 eax, BYTE PTR [eax+540]

; 381  : 		aPDTVertex.texCoord.x = 1.0f;
; 382  : 		aPDTVertex.texCoord.y = (float)(ucY) / (float)(m_ucVirticalGradientLevelUpper) * 0.5f;
; 383  : 		rSkyObjectQuad.SetVertex(3, aPDTVertex);

  00212	8b 4d f0	 mov	 ecx, DWORD PTR _rSkyObjectQuad$1$[ebp]
  00215	c6 45 fe 03	 mov	 BYTE PTR $T9[ebp], 3
  00219	66 0f 6e c0	 movd	 xmm0, eax
  0021d	8d 45 d0	 lea	 eax, DWORD PTR _aPDTVertex$[ebp]
  00220	0f 5b c0	 cvtdq2ps xmm0, xmm0
  00223	50		 push	 eax
  00224	8d 45 fe	 lea	 eax, DWORD PTR $T9[ebp]
  00227	50		 push	 eax
  00228	f3 0f 5e c8	 divss	 xmm1, xmm0
  0022c	f3 0f 10 05 00
	00 00 00	 movss	 xmm0, DWORD PTR __real@3f800000
  00234	f3 0f 5c c1	 subss	 xmm0, xmm1
  00238	f3 0f 59 0d 00
	00 00 00	 mulss	 xmm1, DWORD PTR __real@3f000000
  00240	f3 0f 11 4d e4	 movss	 DWORD PTR _aPDTVertex$[ebp+20], xmm1
  00245	f3 0f 11 45 d8	 movss	 DWORD PTR _aPDTVertex$[ebp+8], xmm0
  0024a	e8 00 00 00 00	 call	 ?SetVertex@CSkyObjectQuad@@QAEXABEABUSPDTVertex@@@Z ; CSkyObjectQuad::SetVertex
  0024f	8b 45 f8	 mov	 eax, DWORD PTR _this$1$[ebp]
  00252	8a 4d ff	 mov	 cl, BYTE PTR _ucY$1$[ebp]
  00255	f3 0f 10 1d 00
	00 00 00	 movss	 xmm3, DWORD PTR __real@3f000000
  0025d	fe c1		 inc	 cl
  0025f	8b 7d f4	 mov	 edi, DWORD PTR _dwIndex$1$[ebp]
  00262	8a 90 1c 02 00
	00		 mov	 dl, BYTE PTR [eax+540]
  00268	8b 75 08	 mov	 esi, DWORD PTR _pSkyObjectQuadVector$[ebp]
  0026b	88 4d ff	 mov	 BYTE PTR _ucY$1$[ebp], cl
  0026e	88 55 fe	 mov	 BYTE PTR $T3[ebp], dl
  00271	3a ca		 cmp	 cl, dl
  00273	0f 82 07 fe ff
	ff		 jb	 $LL4@SetSkyObje
$LN40@SetSkyObje:

; 384  : 	}
; 385  : 	for (ucY = 0; ucY < m_ucVirticalGradientLevelLower; ++ucY)

  00279	8a 80 1d 02 00
	00		 mov	 al, BYTE PTR [eax+541]
  0027f	c6 45 ff 00	 mov	 BYTE PTR _ucY$2$[ebp], 0
  00283	88 45 fe	 mov	 BYTE PTR $T4[ebp], al
  00286	84 c0		 test	 al, al
  00288	0f 84 60 02 00
	00		 je	 $LN6@SetSkyObje
  0028e	66 90		 npad	 2
$LL7@SetSkyObje:
; File C:\Program Files\Microsoft Visual Studio\2022\Community\VC\Tools\MSVC\14.34.31933\include\vector

; 1967 :         if (static_cast<size_type>(_My_data._Mylast - _My_data._Myfirst) <= _Pos) {

  00290	8b 4e 04	 mov	 ecx, DWORD PTR [esi+4]
  00293	b8 b5 81 4e 1b	 mov	 eax, 458129845		; 1b4e81b5H
; File C:\Users\flourine\Desktop\Xantios\client-src\Code\EterLib\SkyBox.cpp

; 387  : 		CSkyObjectQuad & rSkyObjectQuad = pSkyObjectQuadVector->at(dwIndex++);

  00298	89 7d f0	 mov	 DWORD PTR $T1[ebp], edi
  0029b	47		 inc	 edi
  0029c	89 7d f4	 mov	 DWORD PTR _dwIndex$1$[ebp], edi
; File C:\Program Files\Microsoft Visual Studio\2022\Community\VC\Tools\MSVC\14.34.31933\include\vector

; 1967 :         if (static_cast<size_type>(_My_data._Mylast - _My_data._Myfirst) <= _Pos) {

  0029f	8b 3e		 mov	 edi, DWORD PTR [esi]
  002a1	2b cf		 sub	 ecx, edi
  002a3	f7 e9		 imul	 ecx
  002a5	8b 4d f0	 mov	 ecx, DWORD PTR $T1[ebp]
  002a8	c1 fa 05	 sar	 edx, 5
  002ab	8b c2		 mov	 eax, edx
  002ad	c1 e8 1f	 shr	 eax, 31			; 0000001fH
  002b0	03 c2		 add	 eax, edx
  002b2	3b c1		 cmp	 eax, ecx
  002b4	0f 86 3c 02 00
	00		 jbe	 $LN30@SetSkyObje
; File C:\Users\flourine\Desktop\Xantios\client-src\Code\EterLib\SkyBox.cpp

; 389  : 		aPDTVertex.position.x = c_pv2QuadPoints[0].x;

  002ba	8b 45 0c	 mov	 eax, DWORD PTR _c_pv2QuadPoints$[ebp]
; File C:\Program Files\Microsoft Visual Studio\2022\Community\VC\Tools\MSVC\14.34.31933\include\vector

; 1971 :         return _My_data._Myfirst[_Pos];

  002bd	69 c9 2c 01 00
	00		 imul	 ecx, ecx, 300
; File C:\Users\flourine\Desktop\Xantios\client-src\Code\EterLib\SkyBox.cpp

; 392  : 		aPDTVertex.texCoord.x = 0.0f;

  002c3	c7 45 e0 00 00
	00 00		 mov	 DWORD PTR _aPDTVertex$[ebp+16], 0
  002ca	f3 0f 10 00	 movss	 xmm0, DWORD PTR [eax]
  002ce	f3 0f 11 45 d0	 movss	 DWORD PTR _aPDTVertex$[ebp], xmm0
  002d3	f3 0f 10 40 04	 movss	 xmm0, DWORD PTR [eax+4]
; File C:\Program Files\Microsoft Visual Studio\2022\Community\VC\Tools\MSVC\14.34.31933\include\vector

; 1971 :         return _My_data._Myfirst[_Pos];

  002d8	03 cf		 add	 ecx, edi
; File C:\Users\flourine\Desktop\Xantios\client-src\Code\EterLib\SkyBox.cpp

; 391  : 		aPDTVertex.position.z = -(float)(ucY + 1) / (float)(m_ucVirticalGradientLevelLower);

  002da	0f b6 7d ff	 movzx	 edi, BYTE PTR _ucY$2$[ebp]
  002de	0f b6 45 fe	 movzx	 eax, BYTE PTR $T4[ebp]
  002e2	f3 0f 11 45 d4	 movss	 DWORD PTR _aPDTVertex$[ebp+4], xmm0
; File C:\Program Files\Microsoft Visual Studio\2022\Community\VC\Tools\MSVC\14.34.31933\include\vector

; 1971 :         return _My_data._Myfirst[_Pos];

  002e7	89 4d f0	 mov	 DWORD PTR _rSkyObjectQuad$1$[ebp], ecx
; File C:\Users\flourine\Desktop\Xantios\client-src\Code\EterLib\SkyBox.cpp

; 391  : 		aPDTVertex.position.z = -(float)(ucY + 1) / (float)(m_ucVirticalGradientLevelLower);

  002ea	8d 77 01	 lea	 esi, DWORD PTR [edi+1]

; 393  : 		aPDTVertex.texCoord.y = 0.5f + (float)(ucY + 1) / (float)(m_ucVirticalGradientLevelUpper) * 0.5f;
; 394  : 		rSkyObjectQuad.SetVertex(0, aPDTVertex);

  002ed	c6 45 fe 00	 mov	 BYTE PTR $T8[ebp], 0
  002f1	66 0f 6e d6	 movd	 xmm2, esi
  002f5	0f 5b d2	 cvtdq2ps xmm2, xmm2
  002f8	66 0f 6e c0	 movd	 xmm0, eax
  002fc	8b 45 f8	 mov	 eax, DWORD PTR _this$1$[ebp]
  002ff	0f 28 ca	 movaps	 xmm1, xmm2
  00302	0f 57 0d 00 00
	00 00		 xorps	 xmm1, DWORD PTR __xmm@80000000800000008000000080000000
  00309	0f 5b c0	 cvtdq2ps xmm0, xmm0
  0030c	0f b6 80 1c 02
	00 00		 movzx	 eax, BYTE PTR [eax+540]
  00313	f3 0f 11 4d ec	 movss	 DWORD PTR tv787[ebp], xmm1
  00318	f3 0f 5e c8	 divss	 xmm1, xmm0
  0031c	66 0f 6e c0	 movd	 xmm0, eax
  00320	8d 45 d0	 lea	 eax, DWORD PTR _aPDTVertex$[ebp]
  00323	0f 5b c0	 cvtdq2ps xmm0, xmm0
  00326	50		 push	 eax
  00327	8d 45 fe	 lea	 eax, DWORD PTR $T8[ebp]
  0032a	50		 push	 eax
  0032b	f3 0f 11 4d d8	 movss	 DWORD PTR _aPDTVertex$[ebp+8], xmm1
  00330	0f 28 ca	 movaps	 xmm1, xmm2
  00333	f3 0f 5e c8	 divss	 xmm1, xmm0
  00337	f3 0f 59 cb	 mulss	 xmm1, xmm3
  0033b	f3 0f 58 cb	 addss	 xmm1, xmm3
  0033f	f3 0f 11 4d e4	 movss	 DWORD PTR _aPDTVertex$[ebp+20], xmm1
  00344	e8 00 00 00 00	 call	 ?SetVertex@CSkyObjectQuad@@QAEXABEABUSPDTVertex@@@Z ; CSkyObjectQuad::SetVertex

; 395  : 		aPDTVertex.position.x = c_pv2QuadPoints[0].x;

  00349	8b 45 0c	 mov	 eax, DWORD PTR _c_pv2QuadPoints$[ebp]

; 396  : 		aPDTVertex.position.y = c_pv2QuadPoints[0].y;
; 397  : 		aPDTVertex.position.z = -(float)(ucY) / (float)(m_ucVirticalGradientLevelLower);

  0034c	8b 4d f8	 mov	 ecx, DWORD PTR _this$1$[ebp]
  0034f	66 0f 6e d7	 movd	 xmm2, edi
  00353	0f 5b d2	 cvtdq2ps xmm2, xmm2

; 398  : 		aPDTVertex.texCoord.x = 0.0f;
; 399  : 		aPDTVertex.texCoord.y = 0.5f + (float)(ucY) / (float)(m_ucVirticalGradientLevelUpper) * 0.5f;
; 400  : 		rSkyObjectQuad.SetVertex(1, aPDTVertex);

  00356	c6 45 fe 01	 mov	 BYTE PTR $T7[ebp], 1
  0035a	f3 0f 10 00	 movss	 xmm0, DWORD PTR [eax]
  0035e	f3 0f 11 45 d0	 movss	 DWORD PTR _aPDTVertex$[ebp], xmm0
  00363	0f 28 ca	 movaps	 xmm1, xmm2
  00366	f3 0f 10 40 04	 movss	 xmm0, DWORD PTR [eax+4]
  0036b	0f b6 81 1d 02
	00 00		 movzx	 eax, BYTE PTR [ecx+541]
  00372	0f 57 0d 00 00
	00 00		 xorps	 xmm1, DWORD PTR __xmm@80000000800000008000000080000000
  00379	f3 0f 11 45 d4	 movss	 DWORD PTR _aPDTVertex$[ebp+4], xmm0
  0037e	f3 0f 11 4d e8	 movss	 DWORD PTR tv797[ebp], xmm1
  00383	66 0f 6e c0	 movd	 xmm0, eax
  00387	0f b6 81 1c 02
	00 00		 movzx	 eax, BYTE PTR [ecx+540]
  0038e	0f 5b c0	 cvtdq2ps xmm0, xmm0
  00391	8b 4d f0	 mov	 ecx, DWORD PTR _rSkyObjectQuad$1$[ebp]
  00394	f3 0f 5e c8	 divss	 xmm1, xmm0
  00398	66 0f 6e c0	 movd	 xmm0, eax
  0039c	8d 45 d0	 lea	 eax, DWORD PTR _aPDTVertex$[ebp]
  0039f	0f 5b c0	 cvtdq2ps xmm0, xmm0
  003a2	50		 push	 eax
  003a3	8d 45 fe	 lea	 eax, DWORD PTR $T7[ebp]
  003a6	50		 push	 eax
  003a7	f3 0f 11 4d d8	 movss	 DWORD PTR _aPDTVertex$[ebp+8], xmm1
  003ac	0f 28 ca	 movaps	 xmm1, xmm2
  003af	f3 0f 5e c8	 divss	 xmm1, xmm0
  003b3	f3 0f 59 0d 00
	00 00 00	 mulss	 xmm1, DWORD PTR __real@3f000000
  003bb	f3 0f 58 0d 00
	00 00 00	 addss	 xmm1, DWORD PTR __real@3f000000
  003c3	f3 0f 11 4d e4	 movss	 DWORD PTR _aPDTVertex$[ebp+20], xmm1
  003c8	e8 00 00 00 00	 call	 ?SetVertex@CSkyObjectQuad@@QAEXABEABUSPDTVertex@@@Z ; CSkyObjectQuad::SetVertex

; 401  : 		aPDTVertex.position.x = c_pv2QuadPoints[1].x;

  003cd	8b 45 0c	 mov	 eax, DWORD PTR _c_pv2QuadPoints$[ebp]

; 402  : 		aPDTVertex.position.y = c_pv2QuadPoints[1].y;
; 403  : 		aPDTVertex.position.z = -(float)(ucY + 1) / (float)(m_ucVirticalGradientLevelLower);

  003d0	8b 4d f8	 mov	 ecx, DWORD PTR _this$1$[ebp]
  003d3	f3 0f 10 4d ec	 movss	 xmm1, DWORD PTR tv787[ebp]

; 404  : 		aPDTVertex.texCoord.x = 1.0f;

  003d8	c7 45 e0 00 00
	80 3f		 mov	 DWORD PTR _aPDTVertex$[ebp+16], 1065353216 ; 3f800000H
  003df	f3 0f 10 40 08	 movss	 xmm0, DWORD PTR [eax+8]
  003e4	f3 0f 11 45 d0	 movss	 DWORD PTR _aPDTVertex$[ebp], xmm0
  003e9	f3 0f 10 40 0c	 movss	 xmm0, DWORD PTR [eax+12]
  003ee	0f b6 81 1d 02
	00 00		 movzx	 eax, BYTE PTR [ecx+541]
  003f5	f3 0f 11 45 d4	 movss	 DWORD PTR _aPDTVertex$[ebp+4], xmm0
  003fa	66 0f 6e c0	 movd	 xmm0, eax
  003fe	0f 5b c0	 cvtdq2ps xmm0, xmm0

; 405  : 		aPDTVertex.texCoord.y = 0.5f + (float)(ucY + 1) / (float)(m_ucVirticalGradientLevelUpper) * 0.5f;

  00401	0f b6 81 1c 02
	00 00		 movzx	 eax, BYTE PTR [ecx+540]
  00408	f3 0f 5e c8	 divss	 xmm1, xmm0
  0040c	f3 0f 11 4d d8	 movss	 DWORD PTR _aPDTVertex$[ebp+8], xmm1

; 406  : 		rSkyObjectQuad.SetVertex(2, aPDTVertex);

  00411	66 0f 6e c0	 movd	 xmm0, eax
  00415	8d 45 d0	 lea	 eax, DWORD PTR _aPDTVertex$[ebp]
  00418	66 0f 6e ce	 movd	 xmm1, esi
  0041c	0f 5b c9	 cvtdq2ps xmm1, xmm1
  0041f	8b 4d f0	 mov	 ecx, DWORD PTR _rSkyObjectQuad$1$[ebp]
  00422	50		 push	 eax
  00423	8d 45 fe	 lea	 eax, DWORD PTR $T6[ebp]
  00426	c6 45 fe 02	 mov	 BYTE PTR $T6[ebp], 2
  0042a	50		 push	 eax
  0042b	0f 5b c0	 cvtdq2ps xmm0, xmm0
  0042e	f3 0f 5e c8	 divss	 xmm1, xmm0
  00432	f3 0f 59 0d 00
	00 00 00	 mulss	 xmm1, DWORD PTR __real@3f000000
  0043a	f3 0f 58 0d 00
	00 00 00	 addss	 xmm1, DWORD PTR __real@3f000000
  00442	f3 0f 11 4d e4	 movss	 DWORD PTR _aPDTVertex$[ebp+20], xmm1
  00447	e8 00 00 00 00	 call	 ?SetVertex@CSkyObjectQuad@@QAEXABEABUSPDTVertex@@@Z ; CSkyObjectQuad::SetVertex

; 407  : 		aPDTVertex.position.x = c_pv2QuadPoints[1].x;

  0044c	8b 45 0c	 mov	 eax, DWORD PTR _c_pv2QuadPoints$[ebp]

; 408  : 		aPDTVertex.position.y = c_pv2QuadPoints[1].y;
; 409  : 		aPDTVertex.position.z = -(float)(ucY) / (float)(m_ucVirticalGradientLevelLower);

  0044f	8b 4d f8	 mov	 ecx, DWORD PTR _this$1$[ebp]
  00452	f3 0f 10 4d e8	 movss	 xmm1, DWORD PTR tv797[ebp]

; 410  : 		aPDTVertex.texCoord.x = 1.0f;
; 411  : 		aPDTVertex.texCoord.y = 0.5f + (float)(ucY) / (float)(m_ucVirticalGradientLevelUpper) * 0.5f;
; 412  : 		rSkyObjectQuad.SetVertex(3, aPDTVertex);

  00457	c6 45 fe 03	 mov	 BYTE PTR $T5[ebp], 3
  0045b	f3 0f 10 40 08	 movss	 xmm0, DWORD PTR [eax+8]
  00460	f3 0f 11 45 d0	 movss	 DWORD PTR _aPDTVertex$[ebp], xmm0
  00465	f3 0f 10 40 0c	 movss	 xmm0, DWORD PTR [eax+12]
  0046a	0f b6 81 1d 02
	00 00		 movzx	 eax, BYTE PTR [ecx+541]
  00471	f3 0f 11 45 d4	 movss	 DWORD PTR _aPDTVertex$[ebp+4], xmm0
  00476	66 0f 6e c0	 movd	 xmm0, eax
  0047a	0f 5b c0	 cvtdq2ps xmm0, xmm0
  0047d	0f b6 81 1c 02
	00 00		 movzx	 eax, BYTE PTR [ecx+540]
  00484	8b 4d f0	 mov	 ecx, DWORD PTR _rSkyObjectQuad$1$[ebp]
  00487	f3 0f 5e c8	 divss	 xmm1, xmm0
  0048b	66 0f 6e c0	 movd	 xmm0, eax
  0048f	8d 45 d0	 lea	 eax, DWORD PTR _aPDTVertex$[ebp]
  00492	f3 0f 11 4d d8	 movss	 DWORD PTR _aPDTVertex$[ebp+8], xmm1
  00497	66 0f 6e cf	 movd	 xmm1, edi
  0049b	0f 5b c9	 cvtdq2ps xmm1, xmm1
  0049e	50		 push	 eax
  0049f	8d 45 fe	 lea	 eax, DWORD PTR $T5[ebp]
  004a2	50		 push	 eax
  004a3	0f 5b c0	 cvtdq2ps xmm0, xmm0
  004a6	f3 0f 5e c8	 divss	 xmm1, xmm0
  004aa	f3 0f 59 0d 00
	00 00 00	 mulss	 xmm1, DWORD PTR __real@3f000000
  004b2	f3 0f 58 0d 00
	00 00 00	 addss	 xmm1, DWORD PTR __real@3f000000
  004ba	f3 0f 11 4d e4	 movss	 DWORD PTR _aPDTVertex$[ebp+20], xmm1
  004bf	e8 00 00 00 00	 call	 ?SetVertex@CSkyObjectQuad@@QAEXABEABUSPDTVertex@@@Z ; CSkyObjectQuad::SetVertex
  004c4	8b 45 f8	 mov	 eax, DWORD PTR _this$1$[ebp]
  004c7	8a 4d ff	 mov	 cl, BYTE PTR _ucY$2$[ebp]
  004ca	f3 0f 10 1d 00
	00 00 00	 movss	 xmm3, DWORD PTR __real@3f000000
  004d2	fe c1		 inc	 cl
  004d4	8b 7d f4	 mov	 edi, DWORD PTR _dwIndex$1$[ebp]
  004d7	8a 80 1d 02 00
	00		 mov	 al, BYTE PTR [eax+541]
  004dd	8b 75 08	 mov	 esi, DWORD PTR _pSkyObjectQuadVector$[ebp]
  004e0	88 4d ff	 mov	 BYTE PTR _ucY$2$[ebp], cl
  004e3	88 45 fe	 mov	 BYTE PTR $T4[ebp], al
  004e6	3a c8		 cmp	 cl, al
  004e8	0f 82 a2 fd ff
	ff		 jb	 $LL7@SetSkyObje
$LN6@SetSkyObje:
  004ee	5f		 pop	 edi

; 414  : }

  004ef	5e		 pop	 esi
  004f0	8b e5		 mov	 esp, ebp
  004f2	5d		 pop	 ebp
  004f3	c2 08 00	 ret	 8
$LN30@SetSkyObje:
; File C:\Program Files\Microsoft Visual Studio\2022\Community\VC\Tools\MSVC\14.34.31933\include\vector

; 1968 :             _Xrange();

  004f6	e8 00 00 00 00	 call	 ?_Xrange@?$vector@VCSkyObjectQuad@@V?$allocator@VCSkyObjectQuad@@@std@@@std@@CAXXZ ; std::vector<CSkyObjectQuad,std::allocator<CSkyObjectQuad> >::_Xrange
$LN42@SetSkyObje:
  004fb	cc		 int	 3
?SetSkyObjectQuadVertical@CSkyBox@@IAEXPAV?$vector@VCSkyObjectQuad@@V?$allocator@VCSkyObjectQuad@@@std@@@std@@PBUD3DXVECTOR2@@@Z ENDP ; CSkyBox::SetSkyObjectQuadVertical
_TEXT	ENDS
; Function compile flags: /Ogtp
; File C:\Users\flourine\Desktop\Xantios\client-src\Code\EterLib\SkyBox.cpp
;	COMDAT ?StartTransition@CSkyBox@@UAEXXZ
_TEXT	SEGMENT
?StartTransition@CSkyBox@@UAEXXZ PROC			; CSkyBox::StartTransition, COMDAT
; _this$ = ecx

; 814  : {

  00000	53		 push	 ebx
  00001	8b d9		 mov	 ebx, ecx
  00003	56		 push	 esi
  00004	57		 push	 edi

; 815  : 	m_bTransitionStarted = true;

  00005	bf 06 00 00 00	 mov	 edi, 6
  0000a	c6 83 f0 01 00
	00 01		 mov	 BYTE PTR [ebx+496], 1
  00011	8d b3 20 02 00
	00		 lea	 esi, DWORD PTR [ebx+544]
$LL4@StartTrans:

; 816  : 	for (unsigned char ucj = 0; ucj < 6; ++ucj)
; 817  : 	{
; 818  : 		m_Faces[ucj].StartTransition();

  00017	8b ce		 mov	 ecx, esi
  00019	e8 00 00 00 00	 call	 ?StartTransition@SSkyObjectFace@CSkyObject@@QAEXXZ ; CSkyObject::SSkyObjectFace::StartTransition
  0001e	83 c6 3c	 add	 esi, 60			; 0000003cH
  00021	83 ef 01	 sub	 edi, 1
  00024	75 f1		 jne	 SHORT $LL4@StartTrans

; 819  : 	}
; 820  : 	m_FaceCloud.StartTransition();

  00026	5f		 pop	 edi
  00027	5e		 pop	 esi
  00028	8d 4b 04	 lea	 ecx, DWORD PTR [ebx+4]
  0002b	5b		 pop	 ebx
  0002c	e9 00 00 00 00	 jmp	 ?StartTransition@SSkyObjectFace@CSkyObject@@QAEXXZ ; CSkyObject::SSkyObjectFace::StartTransition
?StartTransition@CSkyBox@@UAEXXZ ENDP			; CSkyBox::StartTransition
_TEXT	ENDS
; Function compile flags: /Ogtp
; File C:\Users\flourine\Desktop\Xantios\client-src\Code\EterLib\SkyBox.cpp
; File C:\Program Files\Microsoft Visual Studio\2022\Community\VC\Tools\MSVC\14.34.31933\include\vector
; File C:\Users\flourine\Desktop\Xantios\client-src\Code\EterLib\SkyBox.cpp
; File C:\Program Files\Microsoft Visual Studio\2022\Community\VC\Tools\MSVC\14.34.31933\include\vector
; File C:\Users\flourine\Desktop\Xantios\client-src\Code\EterLib\SkyBox.cpp
; File C:\Program Files\Microsoft Visual Studio\2022\Community\VC\Tools\MSVC\14.34.31933\include\vector
; File C:\Users\flourine\Desktop\Xantios\client-src\Code\EterLib\SkyBox.cpp
; File C:\Program Files\Microsoft Visual Studio\2022\Community\VC\Tools\MSVC\14.34.31933\include\vector
; File C:\Users\flourine\Desktop\Xantios\client-src\Code\EterLib\SkyBox.cpp
; File C:\Program Files\Microsoft Visual Studio\2022\Community\VC\Tools\MSVC\14.34.31933\include\vector
; File C:\Users\flourine\Desktop\Xantios\client-src\Code\EterLib\SkyBox.cpp
; File C:\Program Files\Microsoft Visual Studio\2022\Community\VC\Tools\MSVC\14.34.31933\include\vector
; File C:\Users\flourine\Desktop\Xantios\client-src\Code\EterLib\SkyBox.cpp
; File C:\Program Files\Microsoft Visual Studio\2022\Community\VC\Tools\MSVC\14.34.31933\include\vector
; File C:\Users\flourine\Desktop\Xantios\client-src\Code\EterLib\SkyBox.cpp
; File C:\Program Files\Microsoft Visual Studio\2022\Community\VC\Tools\MSVC\14.34.31933\include\vector
; File C:\Users\flourine\Desktop\Xantios\client-src\Code\EterLib\SkyBox.cpp
; File C:\Program Files\Microsoft Visual Studio\2022\Community\VC\Tools\MSVC\14.34.31933\include\vector
; File C:\Users\flourine\Desktop\Xantios\client-src\Code\EterLib\SkyBox.cpp
; File C:\Program Files\Microsoft Visual Studio\2022\Community\VC\Tools\MSVC\14.34.31933\include\vector
; File C:\Users\flourine\Desktop\Xantios\client-src\Code\EterLib\SkyBox.cpp
; File C:\Program Files\Microsoft Visual Studio\2022\Community\VC\Tools\MSVC\14.34.31933\include\vector
; File C:\Users\flourine\Desktop\Xantios\client-src\Code\EterLib\SkyBox.cpp
; File C:\Program Files\Microsoft Visual Studio\2022\Community\VC\Tools\MSVC\14.34.31933\include\vector
; File C:\Users\flourine\Desktop\Xantios\client-src\Code\EterLib\SkyBox.cpp
; File C:\Program Files\Microsoft Visual Studio\2022\Community\VC\Tools\MSVC\14.34.31933\include\vector
; File C:\Users\flourine\Desktop\Xantios\client-src\Code\EterLib\SkyBox.cpp
; File C:\Program Files\Microsoft Visual Studio\2022\Community\VC\Tools\MSVC\14.34.31933\include\vector
; File C:\Users\flourine\Desktop\Xantios\client-src\Code\EterLib\SkyBox.cpp
; File C:\Program Files\Microsoft Visual Studio\2022\Community\VC\Tools\MSVC\14.34.31933\include\vector
; File C:\Users\flourine\Desktop\Xantios\client-src\Code\EterLib\SkyBox.cpp
; File C:\Program Files\Microsoft Visual Studio\2022\Community\VC\Tools\MSVC\14.34.31933\include\vector
; File C:\Users\flourine\Desktop\Xantios\client-src\Code\EterLib\SkyBox.cpp
; File C:\Program Files\Microsoft Visual Studio\2022\Community\VC\Tools\MSVC\14.34.31933\include\vector
; File C:\Users\flourine\Desktop\Xantios\client-src\Code\EterLib\SkyBox.cpp
; File C:\Program Files\Microsoft Visual Studio\2022\Community\VC\Tools\MSVC\14.34.31933\include\vector
; File C:\Users\flourine\Desktop\Xantios\client-src\Code\EterLib\SkyBox.cpp
;	COMDAT ?SetSkyColor@CSkyBox@@QAEXABV?$vector@UTGradientColor@@V?$allocator@UTGradientColor@@@std@@@std@@0J@Z
_TEXT	SEGMENT
$T1 = -28						; size = 4
tv2650 = -24						; size = 4
tv2588 = -24						; size = 4
tv2617 = -20						; size = 4
_uck$2$ = -20						; size = 4
_uck$1$ = -20						; size = 4
_this$1$ = -16						; size = 4
tv2589 = -12						; size = 4
_ulVectorGradientColornum$2$ = -12			; size = 4
_ulVectorGradientColornum$1$ = -12			; size = 4
$T2 = -8						; size = 1
$T3 = -8						; size = 1
$T4 = -8						; size = 1
$T5 = -7						; size = 1
$T6 = -7						; size = 1
$T7 = -7						; size = 1
$T8 = -6						; size = 1
$T9 = -6						; size = 1
$T10 = -6						; size = 1
$T11 = -5						; size = 1
$T12 = -5						; size = 1
$T13 = -5						; size = 1
$T14 = -4						; size = 1
$T15 = -4						; size = 1
$T16 = -4						; size = 1
$T17 = -3						; size = 1
$T18 = -3						; size = 1
$T19 = -3						; size = 1
$T20 = -2						; size = 1
$T21 = -2						; size = 1
$T22 = -1						; size = 1
$T23 = -1						; size = 1
_c_rColorVector$ = 8					; size = 4
$T24 = 11						; size = 1
_c_rNextColorVector$ = 12				; size = 4
_lTransitionTime$ = 16					; size = 4
$T25 = 19						; size = 1
?SetSkyColor@CSkyBox@@QAEXABV?$vector@UTGradientColor@@V?$allocator@UTGradientColor@@@std@@@std@@0J@Z PROC ; CSkyBox::SetSkyColor, COMDAT
; _this$ = ecx

; 647  : {

  00000	55		 push	 ebp
  00001	8b ec		 mov	 ebp, esp
  00003	83 ec 1c	 sub	 esp, 28			; 0000001cH
  00006	53		 push	 ebx
  00007	8b c1		 mov	 eax, ecx

; 648  : 	unsigned long ulVectorGradientColornum = 0;
; 649  : 	unsigned long uck;
; 650  : 	for (unsigned char ucj = 0; ucj < 4; ++ucj)

  00009	bb 04 00 00 00	 mov	 ebx, 4
  0000e	56		 push	 esi
  0000f	57		 push	 edi
  00010	89 45 f0	 mov	 DWORD PTR _this$1$[ebp], eax
  00013	8d b0 50 02 00
	00		 lea	 esi, DWORD PTR [eax+592]
  00019	89 5d e8	 mov	 DWORD PTR tv2650[ebp], ebx
  0001c	0f 1f 40 00	 npad	 4
$LL4@SetSkyColo:
; File C:\Program Files\Microsoft Visual Studio\2022\Community\VC\Tools\MSVC\14.34.31933\include\vector

; 1932 :         return static_cast<size_type>(_My_data._Mylast - _My_data._Myfirst);

  00020	8b 3e		 mov	 edi, DWORD PTR [esi]
; File C:\Users\flourine\Desktop\Xantios\client-src\Code\EterLib\SkyBox.cpp

; 653  : 		ulVectorGradientColornum = 0;

  00022	33 c9		 xor	 ecx, ecx
  00024	89 4d f4	 mov	 DWORD PTR _ulVectorGradientColornum$1$[ebp], ecx
; File C:\Program Files\Microsoft Visual Studio\2022\Community\VC\Tools\MSVC\14.34.31933\include\vector

; 1932 :         return static_cast<size_type>(_My_data._Mylast - _My_data._Myfirst);

  00027	b8 b5 81 4e 1b	 mov	 eax, 458129845		; 1b4e81b5H
  0002c	8b 4e 04	 mov	 ecx, DWORD PTR [esi+4]
  0002f	2b cf		 sub	 ecx, edi
  00031	f7 e9		 imul	 ecx
  00033	c1 fa 05	 sar	 edx, 5
  00036	8b c2		 mov	 eax, edx
  00038	c1 e8 1f	 shr	 eax, 31			; 0000001fH
  0003b	03 c2		 add	 eax, edx
; File C:\Users\flourine\Desktop\Xantios\client-src\Code\EterLib\SkyBox.cpp

; 654  : 		for (uck = 0; uck < aFace.m_SkyObjectQuadVector.size(); ++uck)

  0003d	0f 84 73 01 00
	00		 je	 $LN2@SetSkyColo

; 658  : 			aSkyObjectQuad.SetSrcColor(0,

  00043	33 db		 xor	 ebx, ebx
  00045	c6 45 ff 00	 mov	 BYTE PTR $T23[ebp], 0
  00049	33 c0		 xor	 eax, eax

; 659  : 									   c_rColorVector[ulVectorGradientColornum].m_SecondColor.r,
; 660  : 									   c_rColorVector[ulVectorGradientColornum].m_SecondColor.g,
; 661  : 									   c_rColorVector[ulVectorGradientColornum].m_SecondColor.b,
; 662  : 									   c_rColorVector[ulVectorGradientColornum].m_SecondColor.a);
; 663  : 			aSkyObjectQuad.SetTransition(0,

  0004b	c6 45 fe 00	 mov	 BYTE PTR $T21[ebp], 0

; 664  : 										 c_rNextColorVector[ulVectorGradientColornum].m_SecondColor.r,
; 665  : 										 c_rNextColorVector[ulVectorGradientColornum].m_SecondColor.g,
; 666  : 										 c_rNextColorVector[ulVectorGradientColornum].m_SecondColor.b,
; 667  : 										 c_rNextColorVector[ulVectorGradientColornum].m_SecondColor.a,
; 668  : 										 lTransitionTime);
; 669  : 			aSkyObjectQuad.SetSrcColor(1,

  0004f	c6 45 fd 01	 mov	 BYTE PTR $T19[ebp], 1

; 670  : 									   c_rColorVector[ulVectorGradientColornum].m_FirstColor.r,
; 671  : 									   c_rColorVector[ulVectorGradientColornum].m_FirstColor.g,
; 672  : 									   c_rColorVector[ulVectorGradientColornum].m_FirstColor.b,
; 673  : 									   c_rColorVector[ulVectorGradientColornum].m_FirstColor.a);
; 674  : 			aSkyObjectQuad.SetTransition(1,

  00053	c6 45 fc 01	 mov	 BYTE PTR $T16[ebp], 1

; 675  : 										 c_rNextColorVector[ulVectorGradientColornum].m_FirstColor.r,
; 676  : 										 c_rNextColorVector[ulVectorGradientColornum].m_FirstColor.g,
; 677  : 										 c_rNextColorVector[ulVectorGradientColornum].m_FirstColor.b,
; 678  : 										 c_rNextColorVector[ulVectorGradientColornum].m_FirstColor.a,
; 679  : 										 lTransitionTime);
; 680  : 			aSkyObjectQuad.SetSrcColor(2,

  00057	c6 45 fb 02	 mov	 BYTE PTR $T13[ebp], 2

; 681  : 									   c_rColorVector[ulVectorGradientColornum].m_SecondColor.r,
; 682  : 									   c_rColorVector[ulVectorGradientColornum].m_SecondColor.g,
; 683  : 									   c_rColorVector[ulVectorGradientColornum].m_SecondColor.b,
; 684  : 									   c_rColorVector[ulVectorGradientColornum].m_SecondColor.a);
; 685  : 			aSkyObjectQuad.SetTransition(2,

  0005b	c6 45 fa 02	 mov	 BYTE PTR $T10[ebp], 2

; 686  : 										 c_rNextColorVector[ulVectorGradientColornum].m_SecondColor.r,
; 687  : 										 c_rNextColorVector[ulVectorGradientColornum].m_SecondColor.g,
; 688  : 										 c_rNextColorVector[ulVectorGradientColornum].m_SecondColor.b,
; 689  : 										 c_rNextColorVector[ulVectorGradientColornum].m_SecondColor.a,
; 690  : 										 lTransitionTime);
; 691  : 			aSkyObjectQuad.SetSrcColor(3,

  0005f	c6 45 f9 03	 mov	 BYTE PTR $T7[ebp], 3

; 692  : 									   c_rColorVector[ulVectorGradientColornum].m_FirstColor.r,
; 693  : 									   c_rColorVector[ulVectorGradientColornum].m_FirstColor.g,
; 694  : 									   c_rColorVector[ulVectorGradientColornum].m_FirstColor.b,
; 695  : 									   c_rColorVector[ulVectorGradientColornum].m_FirstColor.a);
; 696  : 			aSkyObjectQuad.SetTransition(3,

  00063	c6 45 f8 03	 mov	 BYTE PTR $T4[ebp], 3
  00067	89 45 ec	 mov	 DWORD PTR tv2617[ebp], eax
  0006a	66 0f 1f 44 00
	00		 npad	 6
$LL7@SetSkyColo:
; File C:\Program Files\Microsoft Visual Studio\2022\Community\VC\Tools\MSVC\14.34.31933\include\vector

; 1952 :         return _My_data._Myfirst[_Pos];

  00070	03 f8		 add	 edi, eax
; File C:\Users\flourine\Desktop\Xantios\client-src\Code\EterLib\SkyBox.cpp

; 658  : 			aSkyObjectQuad.SetSrcColor(0,

  00072	8b 45 08	 mov	 eax, DWORD PTR _c_rColorVector$[ebp]
  00075	8b 08		 mov	 ecx, DWORD PTR [eax]
  00077	03 cb		 add	 ecx, ebx
  00079	8d 41 1c	 lea	 eax, DWORD PTR [ecx+28]
  0007c	50		 push	 eax
  0007d	8d 41 18	 lea	 eax, DWORD PTR [ecx+24]
  00080	50		 push	 eax
  00081	8d 41 14	 lea	 eax, DWORD PTR [ecx+20]
  00084	50		 push	 eax
  00085	8d 41 10	 lea	 eax, DWORD PTR [ecx+16]
  00088	8b cf		 mov	 ecx, edi
  0008a	50		 push	 eax
  0008b	8d 45 ff	 lea	 eax, DWORD PTR $T23[ebp]
  0008e	50		 push	 eax
  0008f	e8 00 00 00 00	 call	 ?SetSrcColor@CSkyObjectQuad@@QAEXABEABM111@Z ; CSkyObjectQuad::SetSrcColor

; 659  : 									   c_rColorVector[ulVectorGradientColornum].m_SecondColor.r,
; 660  : 									   c_rColorVector[ulVectorGradientColornum].m_SecondColor.g,
; 661  : 									   c_rColorVector[ulVectorGradientColornum].m_SecondColor.b,
; 662  : 									   c_rColorVector[ulVectorGradientColornum].m_SecondColor.a);
; 663  : 			aSkyObjectQuad.SetTransition(0,

  00094	8b 4d 0c	 mov	 ecx, DWORD PTR _c_rNextColorVector$[ebp]
  00097	ff 75 10	 push	 DWORD PTR _lTransitionTime$[ebp]
  0009a	8b 09		 mov	 ecx, DWORD PTR [ecx]
  0009c	03 cb		 add	 ecx, ebx
  0009e	8d 41 1c	 lea	 eax, DWORD PTR [ecx+28]
  000a1	50		 push	 eax
  000a2	8d 41 18	 lea	 eax, DWORD PTR [ecx+24]
  000a5	50		 push	 eax
  000a6	8d 41 14	 lea	 eax, DWORD PTR [ecx+20]
  000a9	50		 push	 eax
  000aa	8d 41 10	 lea	 eax, DWORD PTR [ecx+16]
  000ad	8b cf		 mov	 ecx, edi
  000af	50		 push	 eax
  000b0	8d 45 fe	 lea	 eax, DWORD PTR $T21[ebp]
  000b3	50		 push	 eax
  000b4	e8 00 00 00 00	 call	 ?SetTransition@CSkyObjectQuad@@QAEXABEABM111K@Z ; CSkyObjectQuad::SetTransition

; 664  : 										 c_rNextColorVector[ulVectorGradientColornum].m_SecondColor.r,
; 665  : 										 c_rNextColorVector[ulVectorGradientColornum].m_SecondColor.g,
; 666  : 										 c_rNextColorVector[ulVectorGradientColornum].m_SecondColor.b,
; 667  : 										 c_rNextColorVector[ulVectorGradientColornum].m_SecondColor.a,
; 668  : 										 lTransitionTime);
; 669  : 			aSkyObjectQuad.SetSrcColor(1,

  000b9	8b 4d 08	 mov	 ecx, DWORD PTR _c_rColorVector$[ebp]
  000bc	8b 09		 mov	 ecx, DWORD PTR [ecx]
  000be	03 cb		 add	 ecx, ebx
  000c0	8d 41 0c	 lea	 eax, DWORD PTR [ecx+12]
  000c3	50		 push	 eax
  000c4	8d 41 08	 lea	 eax, DWORD PTR [ecx+8]
  000c7	50		 push	 eax
  000c8	8d 41 04	 lea	 eax, DWORD PTR [ecx+4]
  000cb	50		 push	 eax
  000cc	51		 push	 ecx
  000cd	8d 45 fd	 lea	 eax, DWORD PTR $T19[ebp]
  000d0	8b cf		 mov	 ecx, edi
  000d2	50		 push	 eax
  000d3	e8 00 00 00 00	 call	 ?SetSrcColor@CSkyObjectQuad@@QAEXABEABM111@Z ; CSkyObjectQuad::SetSrcColor

; 670  : 									   c_rColorVector[ulVectorGradientColornum].m_FirstColor.r,
; 671  : 									   c_rColorVector[ulVectorGradientColornum].m_FirstColor.g,
; 672  : 									   c_rColorVector[ulVectorGradientColornum].m_FirstColor.b,
; 673  : 									   c_rColorVector[ulVectorGradientColornum].m_FirstColor.a);
; 674  : 			aSkyObjectQuad.SetTransition(1,

  000d8	8b 4d 0c	 mov	 ecx, DWORD PTR _c_rNextColorVector$[ebp]
  000db	ff 75 10	 push	 DWORD PTR _lTransitionTime$[ebp]
  000de	8b 09		 mov	 ecx, DWORD PTR [ecx]
  000e0	03 cb		 add	 ecx, ebx
  000e2	8d 41 0c	 lea	 eax, DWORD PTR [ecx+12]
  000e5	50		 push	 eax
  000e6	8d 41 08	 lea	 eax, DWORD PTR [ecx+8]
  000e9	50		 push	 eax
  000ea	8d 41 04	 lea	 eax, DWORD PTR [ecx+4]
  000ed	50		 push	 eax
  000ee	51		 push	 ecx
  000ef	8d 45 fc	 lea	 eax, DWORD PTR $T16[ebp]
  000f2	8b cf		 mov	 ecx, edi
  000f4	50		 push	 eax
  000f5	e8 00 00 00 00	 call	 ?SetTransition@CSkyObjectQuad@@QAEXABEABM111K@Z ; CSkyObjectQuad::SetTransition

; 675  : 										 c_rNextColorVector[ulVectorGradientColornum].m_FirstColor.r,
; 676  : 										 c_rNextColorVector[ulVectorGradientColornum].m_FirstColor.g,
; 677  : 										 c_rNextColorVector[ulVectorGradientColornum].m_FirstColor.b,
; 678  : 										 c_rNextColorVector[ulVectorGradientColornum].m_FirstColor.a,
; 679  : 										 lTransitionTime);
; 680  : 			aSkyObjectQuad.SetSrcColor(2,

  000fa	8b 4d 08	 mov	 ecx, DWORD PTR _c_rColorVector$[ebp]
  000fd	8b 09		 mov	 ecx, DWORD PTR [ecx]
  000ff	03 cb		 add	 ecx, ebx
  00101	8d 41 1c	 lea	 eax, DWORD PTR [ecx+28]
  00104	50		 push	 eax
  00105	8d 41 18	 lea	 eax, DWORD PTR [ecx+24]
  00108	50		 push	 eax
  00109	8d 41 14	 lea	 eax, DWORD PTR [ecx+20]
  0010c	50		 push	 eax
  0010d	8d 41 10	 lea	 eax, DWORD PTR [ecx+16]
  00110	8b cf		 mov	 ecx, edi
  00112	50		 push	 eax
  00113	8d 45 fb	 lea	 eax, DWORD PTR $T13[ebp]
  00116	50		 push	 eax
  00117	e8 00 00 00 00	 call	 ?SetSrcColor@CSkyObjectQuad@@QAEXABEABM111@Z ; CSkyObjectQuad::SetSrcColor

; 681  : 									   c_rColorVector[ulVectorGradientColornum].m_SecondColor.r,
; 682  : 									   c_rColorVector[ulVectorGradientColornum].m_SecondColor.g,
; 683  : 									   c_rColorVector[ulVectorGradientColornum].m_SecondColor.b,
; 684  : 									   c_rColorVector[ulVectorGradientColornum].m_SecondColor.a);
; 685  : 			aSkyObjectQuad.SetTransition(2,

  0011c	8b 4d 0c	 mov	 ecx, DWORD PTR _c_rNextColorVector$[ebp]
  0011f	ff 75 10	 push	 DWORD PTR _lTransitionTime$[ebp]
  00122	8b 09		 mov	 ecx, DWORD PTR [ecx]
  00124	03 cb		 add	 ecx, ebx
  00126	8d 41 1c	 lea	 eax, DWORD PTR [ecx+28]
  00129	50		 push	 eax
  0012a	8d 41 18	 lea	 eax, DWORD PTR [ecx+24]
  0012d	50		 push	 eax
  0012e	8d 41 14	 lea	 eax, DWORD PTR [ecx+20]
  00131	50		 push	 eax
  00132	8d 41 10	 lea	 eax, DWORD PTR [ecx+16]
  00135	8b cf		 mov	 ecx, edi
  00137	50		 push	 eax
  00138	8d 45 fa	 lea	 eax, DWORD PTR $T10[ebp]
  0013b	50		 push	 eax
  0013c	e8 00 00 00 00	 call	 ?SetTransition@CSkyObjectQuad@@QAEXABEABM111K@Z ; CSkyObjectQuad::SetTransition

; 686  : 										 c_rNextColorVector[ulVectorGradientColornum].m_SecondColor.r,
; 687  : 										 c_rNextColorVector[ulVectorGradientColornum].m_SecondColor.g,
; 688  : 										 c_rNextColorVector[ulVectorGradientColornum].m_SecondColor.b,
; 689  : 										 c_rNextColorVector[ulVectorGradientColornum].m_SecondColor.a,
; 690  : 										 lTransitionTime);
; 691  : 			aSkyObjectQuad.SetSrcColor(3,

  00141	8b 4d 08	 mov	 ecx, DWORD PTR _c_rColorVector$[ebp]
  00144	8b 09		 mov	 ecx, DWORD PTR [ecx]
  00146	03 cb		 add	 ecx, ebx
  00148	8d 41 0c	 lea	 eax, DWORD PTR [ecx+12]
  0014b	50		 push	 eax
  0014c	8d 41 08	 lea	 eax, DWORD PTR [ecx+8]
  0014f	50		 push	 eax
  00150	8d 41 04	 lea	 eax, DWORD PTR [ecx+4]
  00153	50		 push	 eax
  00154	51		 push	 ecx
  00155	8d 45 f9	 lea	 eax, DWORD PTR $T7[ebp]
  00158	8b cf		 mov	 ecx, edi
  0015a	50		 push	 eax
  0015b	e8 00 00 00 00	 call	 ?SetSrcColor@CSkyObjectQuad@@QAEXABEABM111@Z ; CSkyObjectQuad::SetSrcColor

; 692  : 									   c_rColorVector[ulVectorGradientColornum].m_FirstColor.r,
; 693  : 									   c_rColorVector[ulVectorGradientColornum].m_FirstColor.g,
; 694  : 									   c_rColorVector[ulVectorGradientColornum].m_FirstColor.b,
; 695  : 									   c_rColorVector[ulVectorGradientColornum].m_FirstColor.a);
; 696  : 			aSkyObjectQuad.SetTransition(3,

  00160	8b 4d 0c	 mov	 ecx, DWORD PTR _c_rNextColorVector$[ebp]
  00163	ff 75 10	 push	 DWORD PTR _lTransitionTime$[ebp]
  00166	8b 11		 mov	 edx, DWORD PTR [ecx]
  00168	8b cf		 mov	 ecx, edi
  0016a	03 d3		 add	 edx, ebx
  0016c	8d 42 0c	 lea	 eax, DWORD PTR [edx+12]
  0016f	50		 push	 eax
  00170	8d 42 08	 lea	 eax, DWORD PTR [edx+8]
  00173	50		 push	 eax
  00174	8d 42 04	 lea	 eax, DWORD PTR [edx+4]
  00177	50		 push	 eax
  00178	52		 push	 edx
  00179	8d 45 f8	 lea	 eax, DWORD PTR $T4[ebp]
  0017c	50		 push	 eax
  0017d	e8 00 00 00 00	 call	 ?SetTransition@CSkyObjectQuad@@QAEXABEABM111K@Z ; CSkyObjectQuad::SetTransition
; File C:\Program Files\Microsoft Visual Studio\2022\Community\VC\Tools\MSVC\14.34.31933\include\vector

; 1932 :         return static_cast<size_type>(_My_data._Mylast - _My_data._Myfirst);

  00182	8b 4e 04	 mov	 ecx, DWORD PTR [esi+4]
  00185	b8 b5 81 4e 1b	 mov	 eax, 458129845		; 1b4e81b5H
  0018a	8b 3e		 mov	 edi, DWORD PTR [esi]
; File C:\Users\flourine\Desktop\Xantios\client-src\Code\EterLib\SkyBox.cpp

; 703  : 			ulVectorGradientColornum++;

  0018c	83 c3 20	 add	 ebx, 32			; 00000020H
  0018f	ff 45 f4	 inc	 DWORD PTR _ulVectorGradientColornum$1$[ebp]
; File C:\Program Files\Microsoft Visual Studio\2022\Community\VC\Tools\MSVC\14.34.31933\include\vector

; 1932 :         return static_cast<size_type>(_My_data._Mylast - _My_data._Myfirst);

  00192	2b cf		 sub	 ecx, edi
; File C:\Users\flourine\Desktop\Xantios\client-src\Code\EterLib\SkyBox.cpp

; 703  : 			ulVectorGradientColornum++;

  00194	81 45 ec 2c 01
	00 00		 add	 DWORD PTR tv2617[ebp], 300 ; 0000012cH
; File C:\Program Files\Microsoft Visual Studio\2022\Community\VC\Tools\MSVC\14.34.31933\include\vector

; 1932 :         return static_cast<size_type>(_My_data._Mylast - _My_data._Myfirst);

  0019b	f7 e9		 imul	 ecx
  0019d	c1 fa 05	 sar	 edx, 5
  001a0	8b c2		 mov	 eax, edx
  001a2	c1 e8 1f	 shr	 eax, 31			; 0000001fH
  001a5	03 c2		 add	 eax, edx
; File C:\Users\flourine\Desktop\Xantios\client-src\Code\EterLib\SkyBox.cpp

; 654  : 		for (uck = 0; uck < aFace.m_SkyObjectQuadVector.size(); ++uck)

  001a7	39 45 f4	 cmp	 DWORD PTR _ulVectorGradientColornum$1$[ebp], eax
  001aa	8b 45 ec	 mov	 eax, DWORD PTR tv2617[ebp]
  001ad	0f 82 bd fe ff
	ff		 jb	 $LL7@SetSkyColo
  001b3	8b 5d e8	 mov	 ebx, DWORD PTR tv2650[ebp]
$LN2@SetSkyColo:

; 648  : 	unsigned long ulVectorGradientColornum = 0;
; 649  : 	unsigned long uck;
; 650  : 	for (unsigned char ucj = 0; ucj < 4; ++ucj)

  001b6	83 c6 3c	 add	 esi, 60			; 0000003cH
  001b9	83 eb 01	 sub	 ebx, 1
  001bc	89 5d e8	 mov	 DWORD PTR tv2650[ebp], ebx
  001bf	0f 85 5b fe ff
	ff		 jne	 $LL4@SetSkyColo

; 711  : 	for (uck = 0; uck < aFaceTop.m_SkyObjectQuadVector.size(); ++uck)

  001c5	8b 5d 08	 mov	 ebx, DWORD PTR _c_rColorVector$[ebp]
  001c8	33 c9		 xor	 ecx, ecx
  001ca	8b 7d 10	 mov	 edi, DWORD PTR _lTransitionTime$[ebp]
; File C:\Program Files\Microsoft Visual Studio\2022\Community\VC\Tools\MSVC\14.34.31933\include\vector

; 1932 :         return static_cast<size_type>(_My_data._Mylast - _My_data._Myfirst);

  001cd	b8 b5 81 4e 1b	 mov	 eax, 458129845		; 1b4e81b5H
; File C:\Users\flourine\Desktop\Xantios\client-src\Code\EterLib\SkyBox.cpp

; 711  : 	for (uck = 0; uck < aFaceTop.m_SkyObjectQuadVector.size(); ++uck)

  001d2	89 4d ec	 mov	 DWORD PTR _uck$1$[ebp], ecx
; File C:\Program Files\Microsoft Visual Studio\2022\Community\VC\Tools\MSVC\14.34.31933\include\vector

; 1932 :         return static_cast<size_type>(_My_data._Mylast - _My_data._Myfirst);

  001d5	8b 4d f0	 mov	 ecx, DWORD PTR _this$1$[ebp]
  001d8	8b b1 40 03 00
	00		 mov	 esi, DWORD PTR [ecx+832]
  001de	8b 89 44 03 00
	00		 mov	 ecx, DWORD PTR [ecx+836]
  001e4	2b ce		 sub	 ecx, esi
  001e6	f7 e9		 imul	 ecx
  001e8	c1 fa 05	 sar	 edx, 5
  001eb	8b c2		 mov	 eax, edx
  001ed	c1 e8 1f	 shr	 eax, 31			; 0000001fH
  001f0	03 c2		 add	 eax, edx
; File C:\Users\flourine\Desktop\Xantios\client-src\Code\EterLib\SkyBox.cpp

; 711  : 	for (uck = 0; uck < aFaceTop.m_SkyObjectQuadVector.size(); ++uck)

  001f2	0f 84 42 01 00
	00		 je	 $LN9@SetSkyColo

; 715  : 		aSkyObjectQuad.SetSrcColor(0,

  001f8	33 c0		 xor	 eax, eax
  001fa	c6 45 f8 00	 mov	 BYTE PTR $T3[ebp], 0

; 716  : 								   c_rColorVector[ulVectorGradientColornum].m_FirstColor.r,
; 717  : 								   c_rColorVector[ulVectorGradientColornum].m_FirstColor.g,
; 718  : 								   c_rColorVector[ulVectorGradientColornum].m_FirstColor.b,
; 719  : 								   c_rColorVector[ulVectorGradientColornum].m_FirstColor.a);
; 720  : 		aSkyObjectQuad.SetTransition(0,

  001fe	c6 45 f9 00	 mov	 BYTE PTR $T6[ebp], 0

; 721  : 									 c_rNextColorVector[ulVectorGradientColornum].m_FirstColor.r,
; 722  : 									 c_rNextColorVector[ulVectorGradientColornum].m_FirstColor.g,
; 723  : 									 c_rNextColorVector[ulVectorGradientColornum].m_FirstColor.b,
; 724  : 									 c_rNextColorVector[ulVectorGradientColornum].m_FirstColor.a,
; 725  : 									 lTransitionTime);
; 726  : 		aSkyObjectQuad.SetSrcColor(1,

  00202	c6 45 fa 01	 mov	 BYTE PTR $T9[ebp], 1

; 727  : 								   c_rColorVector[ulVectorGradientColornum].m_FirstColor.r,
; 728  : 								   c_rColorVector[ulVectorGradientColornum].m_FirstColor.g,
; 729  : 								   c_rColorVector[ulVectorGradientColornum].m_FirstColor.b,
; 730  : 								   c_rColorVector[ulVectorGradientColornum].m_FirstColor.a);
; 731  : 		aSkyObjectQuad.SetTransition(1,

  00206	c6 45 fb 01	 mov	 BYTE PTR $T12[ebp], 1

; 732  : 									 c_rNextColorVector[ulVectorGradientColornum].m_FirstColor.r,
; 733  : 									 c_rNextColorVector[ulVectorGradientColornum].m_FirstColor.g,
; 734  : 									 c_rNextColorVector[ulVectorGradientColornum].m_FirstColor.b,
; 735  : 									 c_rNextColorVector[ulVectorGradientColornum].m_FirstColor.a,
; 736  : 									 lTransitionTime);
; 737  : 		aSkyObjectQuad.SetSrcColor(2,

  0020a	c6 45 fc 02	 mov	 BYTE PTR $T15[ebp], 2

; 738  : 								   c_rColorVector[ulVectorGradientColornum].m_FirstColor.r,
; 739  : 								   c_rColorVector[ulVectorGradientColornum].m_FirstColor.g,
; 740  : 								   c_rColorVector[ulVectorGradientColornum].m_FirstColor.b,
; 741  : 								   c_rColorVector[ulVectorGradientColornum].m_FirstColor.a);
; 742  : 		aSkyObjectQuad.SetTransition(2,

  0020e	c6 45 fd 02	 mov	 BYTE PTR $T18[ebp], 2

; 743  : 									 c_rNextColorVector[ulVectorGradientColornum].m_FirstColor.r,
; 744  : 									 c_rNextColorVector[ulVectorGradientColornum].m_FirstColor.g,
; 745  : 									 c_rNextColorVector[ulVectorGradientColornum].m_FirstColor.b,
; 746  : 									 c_rNextColorVector[ulVectorGradientColornum].m_FirstColor.a,
; 747  : 									 lTransitionTime);
; 748  : 		aSkyObjectQuad.SetSrcColor(3,

  00212	c6 45 fe 03	 mov	 BYTE PTR $T20[ebp], 3

; 749  : 								   c_rColorVector[ulVectorGradientColornum].m_FirstColor.r,
; 750  : 								   c_rColorVector[ulVectorGradientColornum].m_FirstColor.g,
; 751  : 								   c_rColorVector[ulVectorGradientColornum].m_FirstColor.b,
; 752  : 								   c_rColorVector[ulVectorGradientColornum].m_FirstColor.a);
; 753  : 		aSkyObjectQuad.SetTransition(3,

  00216	c6 45 ff 03	 mov	 BYTE PTR $T22[ebp], 3
  0021a	89 45 f4	 mov	 DWORD PTR tv2589[ebp], eax
  0021d	0f 1f 00	 npad	 3
$LL10@SetSkyColo:

; 715  : 		aSkyObjectQuad.SetSrcColor(0,

  00220	8b 0b		 mov	 ecx, DWORD PTR [ebx]
; File C:\Program Files\Microsoft Visual Studio\2022\Community\VC\Tools\MSVC\14.34.31933\include\vector

; 1952 :         return _My_data._Myfirst[_Pos];

  00222	03 f0		 add	 esi, eax
; File C:\Users\flourine\Desktop\Xantios\client-src\Code\EterLib\SkyBox.cpp

; 715  : 		aSkyObjectQuad.SetSrcColor(0,

  00224	8d 41 0c	 lea	 eax, DWORD PTR [ecx+12]
  00227	50		 push	 eax
  00228	8d 41 08	 lea	 eax, DWORD PTR [ecx+8]
  0022b	50		 push	 eax
  0022c	8d 41 04	 lea	 eax, DWORD PTR [ecx+4]
  0022f	50		 push	 eax
  00230	51		 push	 ecx
  00231	8d 45 f8	 lea	 eax, DWORD PTR $T3[ebp]
  00234	8b ce		 mov	 ecx, esi
  00236	50		 push	 eax
  00237	e8 00 00 00 00	 call	 ?SetSrcColor@CSkyObjectQuad@@QAEXABEABM111@Z ; CSkyObjectQuad::SetSrcColor

; 716  : 								   c_rColorVector[ulVectorGradientColornum].m_FirstColor.r,
; 717  : 								   c_rColorVector[ulVectorGradientColornum].m_FirstColor.g,
; 718  : 								   c_rColorVector[ulVectorGradientColornum].m_FirstColor.b,
; 719  : 								   c_rColorVector[ulVectorGradientColornum].m_FirstColor.a);
; 720  : 		aSkyObjectQuad.SetTransition(0,

  0023c	8b 45 0c	 mov	 eax, DWORD PTR _c_rNextColorVector$[ebp]
  0023f	57		 push	 edi
  00240	8b 08		 mov	 ecx, DWORD PTR [eax]
  00242	8d 41 0c	 lea	 eax, DWORD PTR [ecx+12]
  00245	50		 push	 eax
  00246	8d 41 08	 lea	 eax, DWORD PTR [ecx+8]
  00249	50		 push	 eax
  0024a	8d 41 04	 lea	 eax, DWORD PTR [ecx+4]
  0024d	50		 push	 eax
  0024e	51		 push	 ecx
  0024f	8d 45 f9	 lea	 eax, DWORD PTR $T6[ebp]
  00252	8b ce		 mov	 ecx, esi
  00254	50		 push	 eax
  00255	e8 00 00 00 00	 call	 ?SetTransition@CSkyObjectQuad@@QAEXABEABM111K@Z ; CSkyObjectQuad::SetTransition

; 721  : 									 c_rNextColorVector[ulVectorGradientColornum].m_FirstColor.r,
; 722  : 									 c_rNextColorVector[ulVectorGradientColornum].m_FirstColor.g,
; 723  : 									 c_rNextColorVector[ulVectorGradientColornum].m_FirstColor.b,
; 724  : 									 c_rNextColorVector[ulVectorGradientColornum].m_FirstColor.a,
; 725  : 									 lTransitionTime);
; 726  : 		aSkyObjectQuad.SetSrcColor(1,

  0025a	8b 0b		 mov	 ecx, DWORD PTR [ebx]
  0025c	8d 41 0c	 lea	 eax, DWORD PTR [ecx+12]
  0025f	50		 push	 eax
  00260	8d 41 08	 lea	 eax, DWORD PTR [ecx+8]
  00263	50		 push	 eax
  00264	8d 41 04	 lea	 eax, DWORD PTR [ecx+4]
  00267	50		 push	 eax
  00268	51		 push	 ecx
  00269	8d 45 fa	 lea	 eax, DWORD PTR $T9[ebp]
  0026c	8b ce		 mov	 ecx, esi
  0026e	50		 push	 eax
  0026f	e8 00 00 00 00	 call	 ?SetSrcColor@CSkyObjectQuad@@QAEXABEABM111@Z ; CSkyObjectQuad::SetSrcColor

; 727  : 								   c_rColorVector[ulVectorGradientColornum].m_FirstColor.r,
; 728  : 								   c_rColorVector[ulVectorGradientColornum].m_FirstColor.g,
; 729  : 								   c_rColorVector[ulVectorGradientColornum].m_FirstColor.b,
; 730  : 								   c_rColorVector[ulVectorGradientColornum].m_FirstColor.a);
; 731  : 		aSkyObjectQuad.SetTransition(1,

  00274	8b 45 0c	 mov	 eax, DWORD PTR _c_rNextColorVector$[ebp]
  00277	57		 push	 edi
  00278	8b 08		 mov	 ecx, DWORD PTR [eax]
  0027a	8d 41 0c	 lea	 eax, DWORD PTR [ecx+12]
  0027d	50		 push	 eax
  0027e	8d 41 08	 lea	 eax, DWORD PTR [ecx+8]
  00281	50		 push	 eax
  00282	8d 41 04	 lea	 eax, DWORD PTR [ecx+4]
  00285	50		 push	 eax
  00286	51		 push	 ecx
  00287	8d 45 fb	 lea	 eax, DWORD PTR $T12[ebp]
  0028a	8b ce		 mov	 ecx, esi
  0028c	50		 push	 eax
  0028d	e8 00 00 00 00	 call	 ?SetTransition@CSkyObjectQuad@@QAEXABEABM111K@Z ; CSkyObjectQuad::SetTransition

; 732  : 									 c_rNextColorVector[ulVectorGradientColornum].m_FirstColor.r,
; 733  : 									 c_rNextColorVector[ulVectorGradientColornum].m_FirstColor.g,
; 734  : 									 c_rNextColorVector[ulVectorGradientColornum].m_FirstColor.b,
; 735  : 									 c_rNextColorVector[ulVectorGradientColornum].m_FirstColor.a,
; 736  : 									 lTransitionTime);
; 737  : 		aSkyObjectQuad.SetSrcColor(2,

  00292	8b 0b		 mov	 ecx, DWORD PTR [ebx]
  00294	8d 41 0c	 lea	 eax, DWORD PTR [ecx+12]
  00297	50		 push	 eax
  00298	8d 41 08	 lea	 eax, DWORD PTR [ecx+8]
  0029b	50		 push	 eax
  0029c	8d 41 04	 lea	 eax, DWORD PTR [ecx+4]
  0029f	50		 push	 eax
  002a0	51		 push	 ecx
  002a1	8d 45 fc	 lea	 eax, DWORD PTR $T15[ebp]
  002a4	8b ce		 mov	 ecx, esi
  002a6	50		 push	 eax
  002a7	e8 00 00 00 00	 call	 ?SetSrcColor@CSkyObjectQuad@@QAEXABEABM111@Z ; CSkyObjectQuad::SetSrcColor

; 738  : 								   c_rColorVector[ulVectorGradientColornum].m_FirstColor.r,
; 739  : 								   c_rColorVector[ulVectorGradientColornum].m_FirstColor.g,
; 740  : 								   c_rColorVector[ulVectorGradientColornum].m_FirstColor.b,
; 741  : 								   c_rColorVector[ulVectorGradientColornum].m_FirstColor.a);
; 742  : 		aSkyObjectQuad.SetTransition(2,

  002ac	8b 45 0c	 mov	 eax, DWORD PTR _c_rNextColorVector$[ebp]
  002af	57		 push	 edi
  002b0	8b 08		 mov	 ecx, DWORD PTR [eax]
  002b2	8d 41 0c	 lea	 eax, DWORD PTR [ecx+12]
  002b5	50		 push	 eax
  002b6	8d 41 08	 lea	 eax, DWORD PTR [ecx+8]
  002b9	50		 push	 eax
  002ba	8d 41 04	 lea	 eax, DWORD PTR [ecx+4]
  002bd	50		 push	 eax
  002be	51		 push	 ecx
  002bf	8d 45 fd	 lea	 eax, DWORD PTR $T18[ebp]
  002c2	8b ce		 mov	 ecx, esi
  002c4	50		 push	 eax
  002c5	e8 00 00 00 00	 call	 ?SetTransition@CSkyObjectQuad@@QAEXABEABM111K@Z ; CSkyObjectQuad::SetTransition

; 743  : 									 c_rNextColorVector[ulVectorGradientColornum].m_FirstColor.r,
; 744  : 									 c_rNextColorVector[ulVectorGradientColornum].m_FirstColor.g,
; 745  : 									 c_rNextColorVector[ulVectorGradientColornum].m_FirstColor.b,
; 746  : 									 c_rNextColorVector[ulVectorGradientColornum].m_FirstColor.a,
; 747  : 									 lTransitionTime);
; 748  : 		aSkyObjectQuad.SetSrcColor(3,

  002ca	8b 0b		 mov	 ecx, DWORD PTR [ebx]
  002cc	8d 41 0c	 lea	 eax, DWORD PTR [ecx+12]
  002cf	50		 push	 eax
  002d0	8d 41 08	 lea	 eax, DWORD PTR [ecx+8]
  002d3	50		 push	 eax
  002d4	8d 41 04	 lea	 eax, DWORD PTR [ecx+4]
  002d7	50		 push	 eax
  002d8	51		 push	 ecx
  002d9	8d 45 fe	 lea	 eax, DWORD PTR $T20[ebp]
  002dc	8b ce		 mov	 ecx, esi
  002de	50		 push	 eax
  002df	e8 00 00 00 00	 call	 ?SetSrcColor@CSkyObjectQuad@@QAEXABEABM111@Z ; CSkyObjectQuad::SetSrcColor

; 749  : 								   c_rColorVector[ulVectorGradientColornum].m_FirstColor.r,
; 750  : 								   c_rColorVector[ulVectorGradientColornum].m_FirstColor.g,
; 751  : 								   c_rColorVector[ulVectorGradientColornum].m_FirstColor.b,
; 752  : 								   c_rColorVector[ulVectorGradientColornum].m_FirstColor.a);
; 753  : 		aSkyObjectQuad.SetTransition(3,

  002e4	8b 45 0c	 mov	 eax, DWORD PTR _c_rNextColorVector$[ebp]
  002e7	8b ce		 mov	 ecx, esi
  002e9	57		 push	 edi
  002ea	8b 10		 mov	 edx, DWORD PTR [eax]
  002ec	8d 42 0c	 lea	 eax, DWORD PTR [edx+12]
  002ef	50		 push	 eax
  002f0	8d 42 08	 lea	 eax, DWORD PTR [edx+8]
  002f3	50		 push	 eax
  002f4	8d 42 04	 lea	 eax, DWORD PTR [edx+4]
  002f7	50		 push	 eax
  002f8	52		 push	 edx
  002f9	8d 45 ff	 lea	 eax, DWORD PTR $T22[ebp]
  002fc	50		 push	 eax
  002fd	e8 00 00 00 00	 call	 ?SetTransition@CSkyObjectQuad@@QAEXABEABM111K@Z ; CSkyObjectQuad::SetTransition
; File C:\Program Files\Microsoft Visual Studio\2022\Community\VC\Tools\MSVC\14.34.31933\include\vector

; 1932 :         return static_cast<size_type>(_My_data._Mylast - _My_data._Myfirst);

  00302	8b 45 f0	 mov	 eax, DWORD PTR _this$1$[ebp]
; File C:\Users\flourine\Desktop\Xantios\client-src\Code\EterLib\SkyBox.cpp

; 711  : 	for (uck = 0; uck < aFaceTop.m_SkyObjectQuadVector.size(); ++uck)

  00305	ff 45 ec	 inc	 DWORD PTR _uck$1$[ebp]
  00308	81 45 f4 2c 01
	00 00		 add	 DWORD PTR tv2589[ebp], 300 ; 0000012cH
; File C:\Program Files\Microsoft Visual Studio\2022\Community\VC\Tools\MSVC\14.34.31933\include\vector

; 1932 :         return static_cast<size_type>(_My_data._Mylast - _My_data._Myfirst);

  0030f	8b 88 44 03 00
	00		 mov	 ecx, DWORD PTR [eax+836]
  00315	8b b0 40 03 00
	00		 mov	 esi, DWORD PTR [eax+832]
  0031b	2b ce		 sub	 ecx, esi
  0031d	b8 b5 81 4e 1b	 mov	 eax, 458129845		; 1b4e81b5H
  00322	f7 e9		 imul	 ecx
  00324	c1 fa 05	 sar	 edx, 5
  00327	8b c2		 mov	 eax, edx
  00329	c1 e8 1f	 shr	 eax, 31			; 0000001fH
  0032c	03 c2		 add	 eax, edx
; File C:\Users\flourine\Desktop\Xantios\client-src\Code\EterLib\SkyBox.cpp

; 711  : 	for (uck = 0; uck < aFaceTop.m_SkyObjectQuadVector.size(); ++uck)

  0032e	39 45 ec	 cmp	 DWORD PTR _uck$1$[ebp], eax
  00331	8b 45 f4	 mov	 eax, DWORD PTR tv2589[ebp]
  00334	0f 82 e6 fe ff
	ff		 jb	 $LL10@SetSkyColo
$LN9@SetSkyColo:
; File C:\Program Files\Microsoft Visual Studio\2022\Community\VC\Tools\MSVC\14.34.31933\include\vector

; 1932 :         return static_cast<size_type>(_My_data._Mylast - _My_data._Myfirst);

  0033a	8b 45 f0	 mov	 eax, DWORD PTR _this$1$[ebp]
; File C:\Users\flourine\Desktop\Xantios\client-src\Code\EterLib\SkyBox.cpp

; 762  : 	for (uck = 0; uck < aFaceBottom.m_SkyObjectQuadVector.size(); ++uck)

  0033d	33 c9		 xor	 ecx, ecx
; File C:\Program Files\Microsoft Visual Studio\2022\Community\VC\Tools\MSVC\14.34.31933\include\vector

; 1932 :         return static_cast<size_type>(_My_data._Mylast - _My_data._Myfirst);

  0033f	8b 73 04	 mov	 esi, DWORD PTR [ebx+4]
  00342	2b 33		 sub	 esi, DWORD PTR [ebx]
; File C:\Users\flourine\Desktop\Xantios\client-src\Code\EterLib\SkyBox.cpp

; 762  : 	for (uck = 0; uck < aFaceBottom.m_SkyObjectQuadVector.size(); ++uck)

  00344	89 4d ec	 mov	 DWORD PTR _uck$2$[ebp], ecx
; File C:\Program Files\Microsoft Visual Studio\2022\Community\VC\Tools\MSVC\14.34.31933\include\vector

; 1932 :         return static_cast<size_type>(_My_data._Mylast - _My_data._Myfirst);

  00347	8b 90 7c 03 00
	00		 mov	 edx, DWORD PTR [eax+892]
  0034d	8b 88 80 03 00
	00		 mov	 ecx, DWORD PTR [eax+896]
  00353	b8 b5 81 4e 1b	 mov	 eax, 458129845		; 1b4e81b5H
  00358	2b ca		 sub	 ecx, edx
  0035a	89 55 e4	 mov	 DWORD PTR $T1[ebp], edx
  0035d	f7 e9		 imul	 ecx
  0035f	c1 fe 05	 sar	 esi, 5
  00362	c1 fa 05	 sar	 edx, 5
; File C:\Users\flourine\Desktop\Xantios\client-src\Code\EterLib\SkyBox.cpp

; 761  : 	ulVectorGradientColornum = c_rColorVector.size() - 1;

  00365	4e		 dec	 esi
; File C:\Program Files\Microsoft Visual Studio\2022\Community\VC\Tools\MSVC\14.34.31933\include\vector

; 1932 :         return static_cast<size_type>(_My_data._Mylast - _My_data._Myfirst);

  00366	8b c2		 mov	 eax, edx
  00368	c1 e8 1f	 shr	 eax, 31			; 0000001fH
  0036b	03 c2		 add	 eax, edx
; File C:\Users\flourine\Desktop\Xantios\client-src\Code\EterLib\SkyBox.cpp

; 762  : 	for (uck = 0; uck < aFaceBottom.m_SkyObjectQuadVector.size(); ++uck)

  0036d	0f 84 83 01 00
	00		 je	 $LN12@SetSkyColo

; 766  : 		aSkyObjectQuad.SetSrcColor(0,

  00373	c1 e6 05	 shl	 esi, 5
  00376	89 75 f4	 mov	 DWORD PTR _ulVectorGradientColornum$2$[ebp], esi
  00379	33 f6		 xor	 esi, esi
  0037b	c6 45 0b 00	 mov	 BYTE PTR $T24[ebp], 0

; 767  : 								   c_rColorVector[ulVectorGradientColornum].m_SecondColor.r,
; 768  : 								   c_rColorVector[ulVectorGradientColornum].m_SecondColor.g,
; 769  : 								   c_rColorVector[ulVectorGradientColornum].m_SecondColor.b,
; 770  : 								   c_rColorVector[ulVectorGradientColornum].m_SecondColor.a);
; 771  : 		aSkyObjectQuad.SetTransition(0,

  0037f	c6 45 13 00	 mov	 BYTE PTR $T25[ebp], 0

; 772  : 									 c_rNextColorVector[ulVectorGradientColornum].m_SecondColor.r,
; 773  : 									 c_rNextColorVector[ulVectorGradientColornum].m_SecondColor.g,
; 774  : 									 c_rNextColorVector[ulVectorGradientColornum].m_SecondColor.b,
; 775  : 									 c_rNextColorVector[ulVectorGradientColornum].m_SecondColor.a,
; 776  : 									 lTransitionTime);
; 777  : 		aSkyObjectQuad.SetSrcColor(1,

  00383	c6 45 f8 01	 mov	 BYTE PTR $T2[ebp], 1

; 778  : 								   c_rColorVector[ulVectorGradientColornum].m_SecondColor.r,
; 779  : 								   c_rColorVector[ulVectorGradientColornum].m_SecondColor.g,
; 780  : 								   c_rColorVector[ulVectorGradientColornum].m_SecondColor.b,
; 781  : 								   c_rColorVector[ulVectorGradientColornum].m_SecondColor.a);
; 782  : 		aSkyObjectQuad.SetTransition(1,

  00387	c6 45 f9 01	 mov	 BYTE PTR $T5[ebp], 1

; 783  : 									 c_rNextColorVector[ulVectorGradientColornum].m_SecondColor.r,
; 784  : 									 c_rNextColorVector[ulVectorGradientColornum].m_SecondColor.g,
; 785  : 									 c_rNextColorVector[ulVectorGradientColornum].m_SecondColor.b,
; 786  : 									 c_rNextColorVector[ulVectorGradientColornum].m_SecondColor.a,
; 787  : 									 lTransitionTime);
; 788  : 		aSkyObjectQuad.SetSrcColor(2,

  0038b	c6 45 fa 02	 mov	 BYTE PTR $T8[ebp], 2

; 789  : 								   c_rColorVector[ulVectorGradientColornum].m_SecondColor.r,
; 790  : 								   c_rColorVector[ulVectorGradientColornum].m_SecondColor.g,
; 791  : 								   c_rColorVector[ulVectorGradientColornum].m_SecondColor.b,
; 792  : 								   c_rColorVector[ulVectorGradientColornum].m_SecondColor.a);
; 793  : 		aSkyObjectQuad.SetTransition(2,

  0038f	c6 45 fb 02	 mov	 BYTE PTR $T11[ebp], 2

; 794  : 									 c_rNextColorVector[ulVectorGradientColornum].m_SecondColor.r,
; 795  : 									 c_rNextColorVector[ulVectorGradientColornum].m_SecondColor.g,
; 796  : 									 c_rNextColorVector[ulVectorGradientColornum].m_SecondColor.b,
; 797  : 									 c_rNextColorVector[ulVectorGradientColornum].m_SecondColor.a,
; 798  : 									 lTransitionTime);
; 799  : 		aSkyObjectQuad.SetSrcColor(3,

  00393	c6 45 fc 03	 mov	 BYTE PTR $T14[ebp], 3

; 800  : 								   c_rColorVector[ulVectorGradientColornum].m_SecondColor.r,
; 801  : 								   c_rColorVector[ulVectorGradientColornum].m_SecondColor.g,
; 802  : 								   c_rColorVector[ulVectorGradientColornum].m_SecondColor.b,
; 803  : 								   c_rColorVector[ulVectorGradientColornum].m_SecondColor.a);
; 804  : 		aSkyObjectQuad.SetTransition(3,

  00397	c6 45 fd 03	 mov	 BYTE PTR $T17[ebp], 3
  0039b	89 75 e8	 mov	 DWORD PTR tv2588[ebp], esi
  0039e	66 90		 npad	 2
$LL13@SetSkyColo:

; 766  : 		aSkyObjectQuad.SetSrcColor(0,

  003a0	8b 4d f4	 mov	 ecx, DWORD PTR _ulVectorGradientColornum$2$[ebp]
  003a3	03 0b		 add	 ecx, DWORD PTR [ebx]
; File C:\Program Files\Microsoft Visual Studio\2022\Community\VC\Tools\MSVC\14.34.31933\include\vector

; 1952 :         return _My_data._Myfirst[_Pos];

  003a5	03 75 e4	 add	 esi, DWORD PTR $T1[ebp]
; File C:\Users\flourine\Desktop\Xantios\client-src\Code\EterLib\SkyBox.cpp

; 766  : 		aSkyObjectQuad.SetSrcColor(0,

  003a8	8d 41 1c	 lea	 eax, DWORD PTR [ecx+28]
  003ab	50		 push	 eax
  003ac	8d 41 18	 lea	 eax, DWORD PTR [ecx+24]
  003af	50		 push	 eax
  003b0	8d 41 14	 lea	 eax, DWORD PTR [ecx+20]
  003b3	50		 push	 eax
  003b4	8d 41 10	 lea	 eax, DWORD PTR [ecx+16]
  003b7	8b ce		 mov	 ecx, esi
  003b9	50		 push	 eax
  003ba	8d 45 0b	 lea	 eax, DWORD PTR $T24[ebp]
  003bd	50		 push	 eax
  003be	e8 00 00 00 00	 call	 ?SetSrcColor@CSkyObjectQuad@@QAEXABEABM111@Z ; CSkyObjectQuad::SetSrcColor

; 767  : 								   c_rColorVector[ulVectorGradientColornum].m_SecondColor.r,
; 768  : 								   c_rColorVector[ulVectorGradientColornum].m_SecondColor.g,
; 769  : 								   c_rColorVector[ulVectorGradientColornum].m_SecondColor.b,
; 770  : 								   c_rColorVector[ulVectorGradientColornum].m_SecondColor.a);
; 771  : 		aSkyObjectQuad.SetTransition(0,

  003c3	8b 4d 0c	 mov	 ecx, DWORD PTR _c_rNextColorVector$[ebp]
  003c6	57		 push	 edi
  003c7	8b 01		 mov	 eax, DWORD PTR [ecx]
  003c9	8b 4d f4	 mov	 ecx, DWORD PTR _ulVectorGradientColornum$2$[ebp]
  003cc	03 c8		 add	 ecx, eax
  003ce	8d 41 1c	 lea	 eax, DWORD PTR [ecx+28]
  003d1	50		 push	 eax
  003d2	8d 41 18	 lea	 eax, DWORD PTR [ecx+24]
  003d5	50		 push	 eax
  003d6	8d 41 14	 lea	 eax, DWORD PTR [ecx+20]
  003d9	50		 push	 eax
  003da	8d 41 10	 lea	 eax, DWORD PTR [ecx+16]
  003dd	8b ce		 mov	 ecx, esi
  003df	50		 push	 eax
  003e0	8d 45 13	 lea	 eax, DWORD PTR $T25[ebp]
  003e3	50		 push	 eax
  003e4	e8 00 00 00 00	 call	 ?SetTransition@CSkyObjectQuad@@QAEXABEABM111K@Z ; CSkyObjectQuad::SetTransition

; 772  : 									 c_rNextColorVector[ulVectorGradientColornum].m_SecondColor.r,
; 773  : 									 c_rNextColorVector[ulVectorGradientColornum].m_SecondColor.g,
; 774  : 									 c_rNextColorVector[ulVectorGradientColornum].m_SecondColor.b,
; 775  : 									 c_rNextColorVector[ulVectorGradientColornum].m_SecondColor.a,
; 776  : 									 lTransitionTime);
; 777  : 		aSkyObjectQuad.SetSrcColor(1,

  003e9	8b 4d f4	 mov	 ecx, DWORD PTR _ulVectorGradientColornum$2$[ebp]
  003ec	03 0b		 add	 ecx, DWORD PTR [ebx]
  003ee	8d 41 1c	 lea	 eax, DWORD PTR [ecx+28]
  003f1	50		 push	 eax
  003f2	8d 41 18	 lea	 eax, DWORD PTR [ecx+24]
  003f5	50		 push	 eax
  003f6	8d 41 14	 lea	 eax, DWORD PTR [ecx+20]
  003f9	50		 push	 eax
  003fa	8d 41 10	 lea	 eax, DWORD PTR [ecx+16]
  003fd	8b ce		 mov	 ecx, esi
  003ff	50		 push	 eax
  00400	8d 45 f8	 lea	 eax, DWORD PTR $T2[ebp]
  00403	50		 push	 eax
  00404	e8 00 00 00 00	 call	 ?SetSrcColor@CSkyObjectQuad@@QAEXABEABM111@Z ; CSkyObjectQuad::SetSrcColor

; 778  : 								   c_rColorVector[ulVectorGradientColornum].m_SecondColor.r,
; 779  : 								   c_rColorVector[ulVectorGradientColornum].m_SecondColor.g,
; 780  : 								   c_rColorVector[ulVectorGradientColornum].m_SecondColor.b,
; 781  : 								   c_rColorVector[ulVectorGradientColornum].m_SecondColor.a);
; 782  : 		aSkyObjectQuad.SetTransition(1,

  00409	8b 4d 0c	 mov	 ecx, DWORD PTR _c_rNextColorVector$[ebp]
  0040c	57		 push	 edi
  0040d	8b 01		 mov	 eax, DWORD PTR [ecx]
  0040f	8b 4d f4	 mov	 ecx, DWORD PTR _ulVectorGradientColornum$2$[ebp]
  00412	03 c8		 add	 ecx, eax
  00414	8d 41 1c	 lea	 eax, DWORD PTR [ecx+28]
  00417	50		 push	 eax
  00418	8d 41 18	 lea	 eax, DWORD PTR [ecx+24]
  0041b	50		 push	 eax
  0041c	8d 41 14	 lea	 eax, DWORD PTR [ecx+20]
  0041f	50		 push	 eax
  00420	8d 41 10	 lea	 eax, DWORD PTR [ecx+16]
  00423	8b ce		 mov	 ecx, esi
  00425	50		 push	 eax
  00426	8d 45 f9	 lea	 eax, DWORD PTR $T5[ebp]
  00429	50		 push	 eax
  0042a	e8 00 00 00 00	 call	 ?SetTransition@CSkyObjectQuad@@QAEXABEABM111K@Z ; CSkyObjectQuad::SetTransition

; 783  : 									 c_rNextColorVector[ulVectorGradientColornum].m_SecondColor.r,
; 784  : 									 c_rNextColorVector[ulVectorGradientColornum].m_SecondColor.g,
; 785  : 									 c_rNextColorVector[ulVectorGradientColornum].m_SecondColor.b,
; 786  : 									 c_rNextColorVector[ulVectorGradientColornum].m_SecondColor.a,
; 787  : 									 lTransitionTime);
; 788  : 		aSkyObjectQuad.SetSrcColor(2,

  0042f	8b 4d f4	 mov	 ecx, DWORD PTR _ulVectorGradientColornum$2$[ebp]
  00432	03 0b		 add	 ecx, DWORD PTR [ebx]
  00434	8d 41 1c	 lea	 eax, DWORD PTR [ecx+28]
  00437	50		 push	 eax
  00438	8d 41 18	 lea	 eax, DWORD PTR [ecx+24]
  0043b	50		 push	 eax
  0043c	8d 41 14	 lea	 eax, DWORD PTR [ecx+20]
  0043f	50		 push	 eax
  00440	8d 41 10	 lea	 eax, DWORD PTR [ecx+16]
  00443	8b ce		 mov	 ecx, esi
  00445	50		 push	 eax
  00446	8d 45 fa	 lea	 eax, DWORD PTR $T8[ebp]
  00449	50		 push	 eax
  0044a	e8 00 00 00 00	 call	 ?SetSrcColor@CSkyObjectQuad@@QAEXABEABM111@Z ; CSkyObjectQuad::SetSrcColor

; 789  : 								   c_rColorVector[ulVectorGradientColornum].m_SecondColor.r,
; 790  : 								   c_rColorVector[ulVectorGradientColornum].m_SecondColor.g,
; 791  : 								   c_rColorVector[ulVectorGradientColornum].m_SecondColor.b,
; 792  : 								   c_rColorVector[ulVectorGradientColornum].m_SecondColor.a);
; 793  : 		aSkyObjectQuad.SetTransition(2,

  0044f	8b 4d 0c	 mov	 ecx, DWORD PTR _c_rNextColorVector$[ebp]
  00452	8b 01		 mov	 eax, DWORD PTR [ecx]
  00454	8b 4d f4	 mov	 ecx, DWORD PTR _ulVectorGradientColornum$2$[ebp]
  00457	03 c8		 add	 ecx, eax
  00459	57		 push	 edi
  0045a	8d 41 1c	 lea	 eax, DWORD PTR [ecx+28]
  0045d	50		 push	 eax
  0045e	8d 41 18	 lea	 eax, DWORD PTR [ecx+24]
  00461	50		 push	 eax
  00462	8d 41 14	 lea	 eax, DWORD PTR [ecx+20]
  00465	50		 push	 eax
  00466	8d 41 10	 lea	 eax, DWORD PTR [ecx+16]
  00469	8b ce		 mov	 ecx, esi
  0046b	50		 push	 eax
  0046c	8d 45 fb	 lea	 eax, DWORD PTR $T11[ebp]
  0046f	50		 push	 eax
  00470	e8 00 00 00 00	 call	 ?SetTransition@CSkyObjectQuad@@QAEXABEABM111K@Z ; CSkyObjectQuad::SetTransition

; 794  : 									 c_rNextColorVector[ulVectorGradientColornum].m_SecondColor.r,
; 795  : 									 c_rNextColorVector[ulVectorGradientColornum].m_SecondColor.g,
; 796  : 									 c_rNextColorVector[ulVectorGradientColornum].m_SecondColor.b,
; 797  : 									 c_rNextColorVector[ulVectorGradientColornum].m_SecondColor.a,
; 798  : 									 lTransitionTime);
; 799  : 		aSkyObjectQuad.SetSrcColor(3,

  00475	8b 4d f4	 mov	 ecx, DWORD PTR _ulVectorGradientColornum$2$[ebp]
  00478	03 0b		 add	 ecx, DWORD PTR [ebx]
  0047a	8d 41 1c	 lea	 eax, DWORD PTR [ecx+28]
  0047d	50		 push	 eax
  0047e	8d 41 18	 lea	 eax, DWORD PTR [ecx+24]
  00481	50		 push	 eax
  00482	8d 41 14	 lea	 eax, DWORD PTR [ecx+20]
  00485	50		 push	 eax
  00486	8d 41 10	 lea	 eax, DWORD PTR [ecx+16]
  00489	8b ce		 mov	 ecx, esi
  0048b	50		 push	 eax
  0048c	8d 45 fc	 lea	 eax, DWORD PTR $T14[ebp]
  0048f	50		 push	 eax
  00490	e8 00 00 00 00	 call	 ?SetSrcColor@CSkyObjectQuad@@QAEXABEABM111@Z ; CSkyObjectQuad::SetSrcColor

; 800  : 								   c_rColorVector[ulVectorGradientColornum].m_SecondColor.r,
; 801  : 								   c_rColorVector[ulVectorGradientColornum].m_SecondColor.g,
; 802  : 								   c_rColorVector[ulVectorGradientColornum].m_SecondColor.b,
; 803  : 								   c_rColorVector[ulVectorGradientColornum].m_SecondColor.a);
; 804  : 		aSkyObjectQuad.SetTransition(3,

  00495	8b 4d 0c	 mov	 ecx, DWORD PTR _c_rNextColorVector$[ebp]
  00498	8b 55 f4	 mov	 edx, DWORD PTR _ulVectorGradientColornum$2$[ebp]
  0049b	57		 push	 edi
  0049c	03 11		 add	 edx, DWORD PTR [ecx]
  0049e	8b ce		 mov	 ecx, esi
  004a0	8d 42 1c	 lea	 eax, DWORD PTR [edx+28]
  004a3	50		 push	 eax
  004a4	8d 42 18	 lea	 eax, DWORD PTR [edx+24]
  004a7	50		 push	 eax
  004a8	8d 42 14	 lea	 eax, DWORD PTR [edx+20]
  004ab	50		 push	 eax
  004ac	8d 42 10	 lea	 eax, DWORD PTR [edx+16]
  004af	50		 push	 eax
  004b0	8d 45 fd	 lea	 eax, DWORD PTR $T17[ebp]
  004b3	50		 push	 eax
  004b4	e8 00 00 00 00	 call	 ?SetTransition@CSkyObjectQuad@@QAEXABEABM111K@Z ; CSkyObjectQuad::SetTransition
; File C:\Program Files\Microsoft Visual Studio\2022\Community\VC\Tools\MSVC\14.34.31933\include\vector

; 1932 :         return static_cast<size_type>(_My_data._Mylast - _My_data._Myfirst);

  004b9	8b 45 f0	 mov	 eax, DWORD PTR _this$1$[ebp]
; File C:\Users\flourine\Desktop\Xantios\client-src\Code\EterLib\SkyBox.cpp

; 762  : 	for (uck = 0; uck < aFaceBottom.m_SkyObjectQuadVector.size(); ++uck)

  004bc	8b 75 e8	 mov	 esi, DWORD PTR tv2588[ebp]
  004bf	ff 45 ec	 inc	 DWORD PTR _uck$2$[ebp]
  004c2	81 c6 2c 01 00
	00		 add	 esi, 300		; 0000012cH
  004c8	89 75 e8	 mov	 DWORD PTR tv2588[ebp], esi
; File C:\Program Files\Microsoft Visual Studio\2022\Community\VC\Tools\MSVC\14.34.31933\include\vector

; 1932 :         return static_cast<size_type>(_My_data._Mylast - _My_data._Myfirst);

  004cb	8b 90 7c 03 00
	00		 mov	 edx, DWORD PTR [eax+892]
  004d1	8b 88 80 03 00
	00		 mov	 ecx, DWORD PTR [eax+896]
  004d7	b8 b5 81 4e 1b	 mov	 eax, 458129845		; 1b4e81b5H
  004dc	2b ca		 sub	 ecx, edx
  004de	89 55 e4	 mov	 DWORD PTR $T1[ebp], edx
  004e1	f7 e9		 imul	 ecx
  004e3	c1 fa 05	 sar	 edx, 5
  004e6	8b c2		 mov	 eax, edx
  004e8	c1 e8 1f	 shr	 eax, 31			; 0000001fH
  004eb	03 c2		 add	 eax, edx
; File C:\Users\flourine\Desktop\Xantios\client-src\Code\EterLib\SkyBox.cpp

; 762  : 	for (uck = 0; uck < aFaceBottom.m_SkyObjectQuadVector.size(); ++uck)

  004ed	39 45 ec	 cmp	 DWORD PTR _uck$2$[ebp], eax
  004f0	0f 82 aa fe ff
	ff		 jb	 $LL13@SetSkyColo
$LN12@SetSkyColo:
  004f6	5f		 pop	 edi

; 805  : 									 c_rNextColorVector[ulVectorGradientColornum].m_SecondColor.r,
; 806  : 									 c_rNextColorVector[ulVectorGradientColornum].m_SecondColor.g,
; 807  : 									 c_rNextColorVector[ulVectorGradientColornum].m_SecondColor.b,
; 808  : 									 c_rNextColorVector[ulVectorGradientColornum].m_SecondColor.a,
; 809  : 									 lTransitionTime);
; 810  : 	}
; 811  : }

  004f7	5e		 pop	 esi
  004f8	5b		 pop	 ebx
  004f9	8b e5		 mov	 esp, ebp
  004fb	5d		 pop	 ebp
  004fc	c2 0c 00	 ret	 12			; 0000000cH
?SetSkyColor@CSkyBox@@QAEXABV?$vector@UTGradientColor@@V?$allocator@UTGradientColor@@@std@@@std@@0J@Z ENDP ; CSkyBox::SetSkyColor
_TEXT	ENDS
; Function compile flags: /Ogtp
; File C:\Users\flourine\Desktop\Xantios\client-src\Code\EterLib\SkyBox.cpp
; File C:\Users\flourine\Desktop\Xantios\client-src\extern\include\directX\d3dx9math.inl
; File C:\Users\flourine\Desktop\Xantios\client-src\Code\EterLib\SkyBox.cpp
; File C:\Users\flourine\Desktop\Xantios\client-src\extern\include\directX\d3dx9math.inl
; File C:\Users\flourine\Desktop\Xantios\client-src\Code\EterLib\SkyBox.cpp
; File C:\Users\flourine\Desktop\Xantios\client-src\extern\include\directX\d3dx9math.inl
; File C:\Users\flourine\Desktop\Xantios\client-src\Code\EterLib\SkyBox.cpp
; File C:\Users\flourine\Desktop\Xantios\client-src\extern\include\directX\d3dx9math.inl
; File C:\Users\flourine\Desktop\Xantios\client-src\Code\EterLib\SkyBox.cpp
; File C:\Users\flourine\Desktop\Xantios\client-src\extern\include\directX\d3dx9math.inl
; File C:\Users\flourine\Desktop\Xantios\client-src\Code\EterLib\SkyBox.cpp
; File C:\Users\flourine\Desktop\Xantios\client-src\extern\include\directX\d3dx9math.inl
; File C:\Users\flourine\Desktop\Xantios\client-src\Code\EterLib\SkyBox.cpp
; File C:\Users\flourine\Desktop\Xantios\client-src\extern\include\directX\d3dx9math.inl
; File C:\Users\flourine\Desktop\Xantios\client-src\Code\EterLib\SkyBox.cpp
; File C:\Users\flourine\Desktop\Xantios\client-src\extern\include\directX\d3dx9math.inl
; File C:\Users\flourine\Desktop\Xantios\client-src\Code\EterLib\SkyBox.cpp
; File C:\Users\flourine\Desktop\Xantios\client-src\extern\include\directX\d3dx9math.inl
; File C:\Users\flourine\Desktop\Xantios\client-src\Code\EterLib\SkyBox.cpp
; File C:\Users\flourine\Desktop\Xantios\client-src\extern\include\directX\d3dx9math.inl
; File C:\Users\flourine\Desktop\Xantios\client-src\Code\EterLib\SkyBox.cpp
; File C:\Users\flourine\Desktop\Xantios\client-src\extern\include\directX\d3dx9math.inl
; File C:\Users\flourine\Desktop\Xantios\client-src\Code\EterLib\SkyBox.cpp
; File C:\Users\flourine\Desktop\Xantios\client-src\extern\include\directX\d3dx9math.inl
; File C:\Users\flourine\Desktop\Xantios\client-src\Code\EterLib\SkyBox.cpp
; File C:\Users\flourine\Desktop\Xantios\client-src\extern\include\directX\d3dx9math.inl
; File C:\Users\flourine\Desktop\Xantios\client-src\Code\EterLib\SkyBox.cpp
; File C:\Users\flourine\Desktop\Xantios\client-src\extern\include\directX\d3dx9math.inl
; File C:\Users\flourine\Desktop\Xantios\client-src\Code\EterLib\SkyBox.cpp
; File C:\Users\flourine\Desktop\Xantios\client-src\extern\include\directX\d3dx9math.inl
; File C:\Users\flourine\Desktop\Xantios\client-src\Code\EterLib\SkyBox.cpp
; File C:\Users\flourine\Desktop\Xantios\client-src\extern\include\directX\d3dx9math.inl
; File C:\Users\flourine\Desktop\Xantios\client-src\Code\EterLib\SkyBox.cpp
; File C:\Users\flourine\Desktop\Xantios\client-src\extern\include\directX\d3dx9math.inl
; File C:\Users\flourine\Desktop\Xantios\client-src\Code\EterLib\SkyBox.cpp
; File C:\Users\flourine\Desktop\Xantios\client-src\extern\include\directX\d3dx9math.inl
; File C:\Users\flourine\Desktop\Xantios\client-src\Code\EterLib\SkyBox.cpp
; File C:\Users\flourine\Desktop\Xantios\client-src\extern\include\directX\d3dx9math.inl
; File C:\Users\flourine\Desktop\Xantios\client-src\Code\EterLib\SkyBox.cpp
; File C:\Users\flourine\Desktop\Xantios\client-src\extern\include\directX\d3dx9math.inl
; File C:\Users\flourine\Desktop\Xantios\client-src\Code\EterLib\SkyBox.cpp
; File C:\Users\flourine\Desktop\Xantios\client-src\extern\include\directX\d3dx9math.inl
; File C:\Users\flourine\Desktop\Xantios\client-src\Code\EterLib\SkyBox.cpp
; File C:\Users\flourine\Desktop\Xantios\client-src\extern\include\directX\d3dx9math.inl
; File C:\Users\flourine\Desktop\Xantios\client-src\Code\EterLib\SkyBox.cpp
; File C:\Users\flourine\Desktop\Xantios\client-src\extern\include\directX\d3dx9math.inl
; File C:\Users\flourine\Desktop\Xantios\client-src\Code\EterLib\SkyBox.cpp
; File C:\Users\flourine\Desktop\Xantios\client-src\extern\include\directX\d3dx9math.inl
; File C:\Users\flourine\Desktop\Xantios\client-src\Code\EterLib\SkyBox.cpp
; File C:\Users\flourine\Desktop\Xantios\client-src\extern\include\directX\d3dx9math.inl
; File C:\Users\flourine\Desktop\Xantios\client-src\Code\EterLib\SkyBox.cpp
; File C:\Users\flourine\Desktop\Xantios\client-src\extern\include\directX\d3dx9math.inl
; File C:\Users\flourine\Desktop\Xantios\client-src\Code\EterLib\SkyBox.cpp
; File C:\Users\flourine\Desktop\Xantios\client-src\extern\include\directX\d3dx9math.inl
; File C:\Users\flourine\Desktop\Xantios\client-src\Code\EterLib\SkyBox.cpp
; File C:\Users\flourine\Desktop\Xantios\client-src\extern\include\directX\d3dx9math.inl
; File C:\Users\flourine\Desktop\Xantios\client-src\Code\EterLib\SkyBox.cpp
;	COMDAT ?Refresh@CSkyBox@@QAEXXZ
_TEXT	SEGMENT
_v2QuadPoints$9 = -112					; size = 16
tv1279 = -96						; size = 16
tv1376 = -80						; size = 16
$T10 = -64						; size = 12
$T11 = -64						; size = 12
$T12 = -64						; size = 12
$T13 = -64						; size = 12
$T14 = -64						; size = 12
$T15 = -64						; size = 12
$T16 = -64						; size = 12
$T17 = -64						; size = 12
$T18 = -64						; size = 12
$T19 = -64						; size = 12
$T20 = -64						; size = 12
$T21 = -64						; size = 12
$T22 = -64						; size = 12
$T23 = -64						; size = 12
$T24 = -64						; size = 12
$T25 = -64						; size = 12
$T26 = -64						; size = 12
$T27 = -64						; size = 12
$T28 = -64						; size = 12
$T29 = -64						; size = 12
$T30 = -64						; size = 12
$T31 = -64						; size = 12
$T32 = -64						; size = 12
$T33 = -64						; size = 12
$T34 = -64						; size = 12
$T35 = -64						; size = 12
$T36 = -64						; size = 12
$T37 = -64						; size = 12
$T38 = -64						; size = 12
$T39 = -64						; size = 12
$T40 = -64						; size = 12
$T41 = -64						; size = 12
_v3QuadPoints$ = -52					; size = 48
__$ArrayPad$ = -4					; size = 4
?Refresh@CSkyBox@@QAEXXZ PROC				; CSkyBox::Refresh, COMDAT
; _this$ = ecx

; 457  : {

  00000	53		 push	 ebx
  00001	8b dc		 mov	 ebx, esp
  00003	83 ec 08	 sub	 esp, 8
  00006	83 e4 f0	 and	 esp, -16		; fffffff0H
  00009	83 c4 04	 add	 esp, 4
  0000c	55		 push	 ebp
  0000d	8b 6b 04	 mov	 ebp, DWORD PTR [ebx+4]
  00010	89 6c 24 04	 mov	 DWORD PTR [esp+4], ebp
  00014	8b ec		 mov	 ebp, esp
  00016	83 ec 7c	 sub	 esp, 124		; 0000007cH
  00019	a1 00 00 00 00	 mov	 eax, DWORD PTR ___security_cookie
  0001e	33 c5		 xor	 eax, ebp
  00020	89 45 fc	 mov	 DWORD PTR __$ArrayPad$[ebp], eax

; 458  : 	D3DXVECTOR3 v3QuadPoints[4];
; 459  : 
; 460  : 	if ( m_ucRenderMode == CSkyObject::SKY_RENDER_MODE_DEFAULT ||  m_ucRenderMode == CSkyObject::SKY_RENDER_MODE_DIFFUSE )

  00023	f3 0f 10 0d 00
	00 00 00	 movss	 xmm1, DWORD PTR __real@3f800000
  0002b	f3 0f 10 15 00
	00 00 00	 movss	 xmm2, DWORD PTR __real@bf800000
  00033	56		 push	 esi
  00034	8b f1		 mov	 esi, ecx
  00036	0f 29 4d b0	 movaps	 XMMWORD PTR tv1376[ebp], xmm1
  0003a	0f 11 55 a0	 movups	 XMMWORD PTR tv1279[ebp], xmm2
  0003e	8a 86 d4 01 00
	00		 mov	 al, BYTE PTR [esi+468]
  00044	84 c0		 test	 al, al
  00046	0f 84 e9 02 00
	00		 je	 $LN4@Refresh
  0004c	3c 01		 cmp	 al, 1
  0004e	0f 84 e1 02 00
	00		 je	 $LN4@Refresh

; 506  : 		SetSkyObjectQuadHorizon(&m_Faces[5].m_SkyObjectQuadVector, v3QuadPoints);
; 507  : 		m_Faces[5].m_strfacename = "bottom";
; 508  : 
; 509  : 	}
; 510  : 	else if ( m_ucRenderMode == CSkyObject::SKY_RENDER_MODE_TEXTURE )

  00054	3c 02		 cmp	 al, 2
  00056	0f 85 bf 04 00
	00		 jne	 $LN6@Refresh

; 513  : 		v3QuadPoints[0] = D3DXVECTOR3(1.0f, -1.0f, -1.0f);

  0005c	0f 28 c1	 movaps	 xmm0, xmm1
; File C:\Users\flourine\Desktop\Xantios\client-src\extern\include\directX\d3dx9math.inl

; 306  :     z = fz;

  0005f	c7 45 c8 00 00
	80 bf		 mov	 DWORD PTR $T33[ebp+8], -1082130432 ; bf800000H
; File C:\Users\flourine\Desktop\Xantios\client-src\Code\EterLib\SkyBox.cpp

; 513  : 		v3QuadPoints[0] = D3DXVECTOR3(1.0f, -1.0f, -1.0f);

  00066	8b 45 c8	 mov	 eax, DWORD PTR $T33[ebp+8]
  00069	0f 14 c2	 unpcklps xmm0, xmm2
  0006c	66 0f d6 45 cc	 movq	 QWORD PTR _v3QuadPoints$[ebp], xmm0

; 514  : 		v3QuadPoints[1] = D3DXVECTOR3(1.0f, -1.0f, 1.0f);

  00071	0f 28 c1	 movaps	 xmm0, xmm1
  00074	89 45 d4	 mov	 DWORD PTR _v3QuadPoints$[ebp+8], eax
  00077	0f 14 c2	 unpcklps xmm0, xmm2
; File C:\Users\flourine\Desktop\Xantios\client-src\extern\include\directX\d3dx9math.inl

; 306  :     z = fz;

  0007a	c7 45 c8 00 00
	80 3f		 mov	 DWORD PTR $T32[ebp+8], 1065353216 ; 3f800000H
; File C:\Users\flourine\Desktop\Xantios\client-src\Code\EterLib\SkyBox.cpp

; 514  : 		v3QuadPoints[1] = D3DXVECTOR3(1.0f, -1.0f, 1.0f);

  00081	8b 45 c8	 mov	 eax, DWORD PTR $T32[ebp+8]
  00084	89 45 e0	 mov	 DWORD PTR _v3QuadPoints$[ebp+20], eax
  00087	66 0f d6 45 d8	 movq	 QWORD PTR _v3QuadPoints$[ebp+12], xmm0

; 515  : 		v3QuadPoints[2] = D3DXVECTOR3(-1.0f, -1.0f, -1.0f);

  0008c	0f 28 c2	 movaps	 xmm0, xmm2
; File C:\Users\flourine\Desktop\Xantios\client-src\extern\include\directX\d3dx9math.inl

; 306  :     z = fz;

  0008f	c7 45 c8 00 00
	80 bf		 mov	 DWORD PTR $T31[ebp+8], -1082130432 ; bf800000H
; File C:\Users\flourine\Desktop\Xantios\client-src\Code\EterLib\SkyBox.cpp

; 515  : 		v3QuadPoints[2] = D3DXVECTOR3(-1.0f, -1.0f, -1.0f);

  00096	8b 45 c8	 mov	 eax, DWORD PTR $T31[ebp+8]
  00099	89 45 ec	 mov	 DWORD PTR _v3QuadPoints$[ebp+32], eax
  0009c	0f 14 c2	 unpcklps xmm0, xmm2
; File C:\Users\flourine\Desktop\Xantios\client-src\extern\include\directX\d3dx9math.inl

; 306  :     z = fz;

  0009f	c7 45 c8 00 00
	80 3f		 mov	 DWORD PTR $T30[ebp+8], 1065353216 ; 3f800000H
