; Listing generated by Microsoft (R) Optimizing Compiler Version 19.34.31942.0 

	TITLE	C:\Users\flourine\Desktop\Xantios\client-src\Code\MilesLib\Distribute\SoundManager.obj
	.686P
	.XMM
	include listing.inc
	.model	flat

INCLUDELIB LIBCMT
INCLUDELIB OLDNAMES

PUBLIC	??0exception@std@@QAE@ABV01@@Z			; std::exception::exception
PUBLIC	??1exception@std@@UAE@XZ			; std::exception::~exception
PUBLIC	?what@exception@std@@UBEPBDXZ			; std::exception::what
PUBLIC	??_Gexception@std@@UAEPAXI@Z			; std::exception::`scalar deleting destructor'
PUBLIC	??0bad_alloc@std@@QAE@ABV01@@Z			; std::bad_alloc::bad_alloc
PUBLIC	??_Gbad_alloc@std@@UAEPAXI@Z			; std::bad_alloc::`scalar deleting destructor'
PUBLIC	??0bad_array_new_length@std@@QAE@XZ		; std::bad_array_new_length::bad_array_new_length
PUBLIC	??1bad_array_new_length@std@@UAE@XZ		; std::bad_array_new_length::~bad_array_new_length
PUBLIC	??0bad_array_new_length@std@@QAE@ABV01@@Z	; std::bad_array_new_length::bad_array_new_length
PUBLIC	??_Gbad_array_new_length@std@@UAEPAXI@Z		; std::bad_array_new_length::`scalar deleting destructor'
PUBLIC	?_Throw_bad_array_new_length@std@@YAXXZ		; std::_Throw_bad_array_new_length
PUBLIC	?_Xlen_string@std@@YAXXZ			; std::_Xlen_string
PUBLIC	??0?$basic_string@DU?$char_traits@D@std@@V?$allocator@D@2@@std@@QAE@QBD@Z ; std::basic_string<char,std::char_traits<char>,std::allocator<char> >::basic_string<char,std::char_traits<char>,std::allocator<char> >
PUBLIC	??1?$basic_string@DU?$char_traits@D@std@@V?$allocator@D@2@@std@@QAE@XZ ; std::basic_string<char,std::char_traits<char>,std::allocator<char> >::~basic_string<char,std::char_traits<char>,std::allocator<char> >
PUBLIC	?_Throw_tree_length_error@std@@YAXXZ		; std::_Throw_tree_length_error
PUBLIC	??1?$CSingleton@VCSoundManager@@@@UAE@XZ	; CSingleton<CSoundManager>::~CSingleton<CSoundManager>
PUBLIC	??_G?$CSingleton@VCSoundManager@@@@UAEPAXI@Z	; CSingleton<CSoundManager>::`scalar deleting destructor'
PUBLIC	??0CSoundManager@@QAE@XZ			; CSoundManager::CSoundManager
PUBLIC	??1CSoundManager@@UAE@XZ			; CSoundManager::~CSoundManager
PUBLIC	?Create@CSoundManager@@QAEHXZ			; CSoundManager::Create
PUBLIC	?Destroy@CSoundManager@@QAEXXZ			; CSoundManager::Destroy
PUBLIC	?SetPosition@CSoundManager@@QAEXMMM@Z		; CSoundManager::SetPosition
PUBLIC	?SetDirection@CSoundManager@@QAEXMMMMMM@Z	; CSoundManager::SetDirection
PUBLIC	?Update@CSoundManager@@QAEXXZ			; CSoundManager::Update
PUBLIC	?GetSoundScale@CSoundManager@@QAEMXZ		; CSoundManager::GetSoundScale
PUBLIC	?SetSoundScale@CSoundManager@@QAEXM@Z		; CSoundManager::SetSoundScale
PUBLIC	?SetAmbienceSoundScale@CSoundManager@@QAEXM@Z	; CSoundManager::SetAmbienceSoundScale
PUBLIC	?SetSoundVolume@CSoundManager@@QAEXM@Z		; CSoundManager::SetSoundVolume
PUBLIC	?SetSoundVolumeRatio@CSoundManager@@QAEXM@Z	; CSoundManager::SetSoundVolumeRatio
PUBLIC	?SetMusicVolume@CSoundManager@@QAEXM@Z		; CSoundManager::SetMusicVolume
PUBLIC	?SetSoundVolumeGrade@CSoundManager@@QAEXH@Z	; CSoundManager::SetSoundVolumeGrade
PUBLIC	?SaveVolume@CSoundManager@@QAEXXZ		; CSoundManager::SaveVolume
PUBLIC	?RestoreVolume@CSoundManager@@QAEXXZ		; CSoundManager::RestoreVolume
PUBLIC	?GetSoundVolume@CSoundManager@@QAEMXZ		; CSoundManager::GetSoundVolume
PUBLIC	?GetMusicVolume@CSoundManager@@QAEMXZ		; CSoundManager::GetMusicVolume
PUBLIC	?PlaySound2D@CSoundManager@@QAEXPBD@Z		; CSoundManager::PlaySound2D
PUBLIC	?PlaySound3D@CSoundManager@@QAEXMMMPBDH@Z	; CSoundManager::PlaySound3D
PUBLIC	?StopSound3D@CSoundManager@@QAEXH@Z		; CSoundManager::StopSound3D
PUBLIC	?PlayAmbienceSound3D@CSoundManager@@QAEHMMMPBDH@Z ; CSoundManager::PlayAmbienceSound3D
PUBLIC	?PlayCharacterSound3D@CSoundManager@@QAEXMMMPBDH@Z ; CSoundManager::PlayCharacterSound3D
PUBLIC	?SetSoundVolume3D@CSoundManager@@QAEXHM@Z	; CSoundManager::SetSoundVolume3D
PUBLIC	?StopAllSound3D@CSoundManager@@QAEXXZ		; CSoundManager::StopAllSound3D
PUBLIC	?PlayMusic@CSoundManager@@QAEXPBD@Z		; CSoundManager::PlayMusic
PUBLIC	?FadeInMusic@CSoundManager@@QAEXPBDM@Z		; CSoundManager::FadeInMusic
PUBLIC	?FadeOutMusic@CSoundManager@@QAEXPBDM@Z		; CSoundManager::FadeOutMusic
PUBLIC	?FadeLimitOutMusic@CSoundManager@@QAEXPBDMM@Z	; CSoundManager::FadeLimitOutMusic
PUBLIC	?FadeOutAllMusic@CSoundManager@@QAEXXZ		; CSoundManager::FadeOutAllMusic
PUBLIC	?FadeAll@CSoundManager@@QAEXXZ			; CSoundManager::FadeAll
PUBLIC	?UpdateSoundData@CSoundManager@@QAEXKPBV?$vector@USSoundData@NSound@@V?$allocator@USSoundData@NSound@@@std@@@std@@@Z ; CSoundManager::UpdateSoundData
PUBLIC	?UpdateSoundData@CSoundManager@@QAEXMMMKPBV?$vector@USSoundData@NSound@@V?$allocator@USSoundData@NSound@@@std@@@std@@@Z ; CSoundManager::UpdateSoundData
PUBLIC	?UpdateSoundInstance@CSoundManager@@QAEXMMMKPBV?$vector@USSoundInstance@NSound@@V?$allocator@USSoundInstance@NSound@@@std@@@std@@H@Z ; CSoundManager::UpdateSoundInstance
PUBLIC	?UpdateSoundInstance@CSoundManager@@QAEXKPBV?$vector@USSoundInstance@NSound@@V?$allocator@USSoundInstance@NSound@@@std@@@std@@@Z ; CSoundManager::UpdateSoundInstance
PUBLIC	?PlayMusic@CSoundManager@@IAEXKPBDMM@Z		; CSoundManager::PlayMusic
PUBLIC	?StopMusic@CSoundManager@@IAEXK@Z		; CSoundManager::StopMusic
PUBLIC	?GetMusicIndex@CSoundManager@@IAEHPBDPAK@Z	; CSoundManager::GetMusicIndex
PUBLIC	?__ConvertGradeVolumeToApplyVolume@CSoundManager@@IAEMH@Z ; CSoundManager::__ConvertGradeVolumeToApplyVolume
PUBLIC	?__ConvertRatioVolumeToApplyVolume@CSoundManager@@IAEMM@Z ; CSoundManager::__ConvertRatioVolumeToApplyVolume
PUBLIC	?__SetMusicVolume@CSoundManager@@IAEXM@Z	; CSoundManager::__SetMusicVolume
PUBLIC	?GetSoundInstance2D@CSoundManager@@IAEHPBDPAPAVISoundInstance@@@Z ; CSoundManager::GetSoundInstance2D
PUBLIC	?GetSoundInstance3D@CSoundManager@@IAEHPBDPAPAVISoundInstance@@@Z ; CSoundManager::GetSoundInstance3D
PUBLIC	?erase@?$_Tree@V?$_Tmap_traits@V?$basic_string@DU?$char_traits@D@std@@V?$allocator@D@2@@std@@MU?$less@V?$basic_string@DU?$char_traits@D@std@@V?$allocator@D@2@@std@@@2@V?$allocator@U?$pair@$$CBV?$basic_string@DU?$char_traits@D@std@@V?$allocator@D@2@@std@@M@std@@@2@$0A@@std@@@std@@QAEIABV?$basic_string@DU?$char_traits@D@std@@V?$allocator@D@2@@2@@Z ; std::_Tree<std::_Tmap_traits<std::basic_string<char,std::char_traits<char>,std::allocator<char> >,float,std::less<std::basic_string<char,std::char_traits<char>,std::allocator<char> > >,std::allocator<std::pair<std::basic_string<char,std::char_traits<char>,std::allocator<char> > const ,float> >,0> >::erase
PUBLIC	?_Lrotate@?$_Tree_val@U?$_Tree_simple_types@U?$pair@$$CBV?$basic_string@DU?$char_traits@D@std@@V?$allocator@D@2@@std@@M@std@@@std@@@std@@QAEXPAU?$_Tree_node@U?$pair@$$CBV?$basic_string@DU?$char_traits@D@std@@V?$allocator@D@2@@std@@M@std@@PAX@2@@Z ; std::_Tree_val<std::_Tree_simple_types<std::pair<std::basic_string<char,std::char_traits<char>,std::allocator<char> > const ,float> > >::_Lrotate
PUBLIC	?_Rrotate@?$_Tree_val@U?$_Tree_simple_types@U?$pair@$$CBV?$basic_string@DU?$char_traits@D@std@@V?$allocator@D@2@@std@@M@std@@@std@@@std@@QAEXPAU?$_Tree_node@U?$pair@$$CBV?$basic_string@DU?$char_traits@D@std@@V?$allocator@D@2@@std@@M@std@@PAX@2@@Z ; std::_Tree_val<std::_Tree_simple_types<std::pair<std::basic_string<char,std::char_traits<char>,std::allocator<char> > const ,float> > >::_Rrotate
PUBLIC	?_Extract@?$_Tree_val@U?$_Tree_simple_types@U?$pair@$$CBV?$basic_string@DU?$char_traits@D@std@@V?$allocator@D@2@@std@@M@std@@@std@@@std@@QAEPAU?$_Tree_node@U?$pair@$$CBV?$basic_string@DU?$char_traits@D@std@@V?$allocator@D@2@@std@@M@std@@PAX@2@V?$_Tree_unchecked_const_iterator@V?$_Tree_val@U?$_Tree_simple_types@U?$pair@$$CBV?$basic_string@DU?$char_traits@D@std@@V?$allocator@D@2@@std@@M@std@@@std@@@std@@U_Iterator_base0@2@@2@@Z ; std::_Tree_val<std::_Tree_simple_types<std::pair<std::basic_string<char,std::char_traits<char>,std::allocator<char> > const ,float> > >::_Extract
PUBLIC	?_Insert_node@?$_Tree_val@U?$_Tree_simple_types@U?$pair@$$CBV?$basic_string@DU?$char_traits@D@std@@V?$allocator@D@2@@std@@M@std@@@std@@@std@@QAEPAU?$_Tree_node@U?$pair@$$CBV?$basic_string@DU?$char_traits@D@std@@V?$allocator@D@2@@std@@M@std@@PAX@2@U?$_Tree_id@PAU?$_Tree_node@U?$pair@$$CBV?$basic_string@DU?$char_traits@D@std@@V?$allocator@D@2@@std@@M@std@@PAX@std@@@2@QAU32@@Z ; std::_Tree_val<std::_Tree_simple_types<std::pair<std::basic_string<char,std::char_traits<char>,std::allocator<char> > const ,float> > >::_Insert_node
PUBLIC	??_GCSoundManager@@UAEPAXI@Z			; CSoundManager::`scalar deleting destructor'
PUBLIC	?_Xrange@?$vector@USSoundInstance@NSound@@V?$allocator@USSoundInstance@NSound@@@std@@@std@@CAXXZ ; std::vector<NSound::SSoundInstance,std::allocator<NSound::SSoundInstance> >::_Xrange
PUBLIC	??E?$_Tree_unchecked_const_iterator@V?$_Tree_val@U?$_Tree_simple_types@U?$pair@$$CBV?$basic_string@DU?$char_traits@D@std@@V?$allocator@D@2@@std@@M@std@@@std@@@std@@U_Iterator_base0@2@@std@@QAEAAV01@XZ ; std::_Tree_unchecked_const_iterator<std::_Tree_val<std::_Tree_simple_types<std::pair<std::basic_string<char,std::char_traits<char>,std::allocator<char> > const ,float> > >,std::_Iterator_base0>::operator++
PUBLIC	??1?$pair@$$CBV?$basic_string@DU?$char_traits@D@std@@V?$allocator@D@2@@std@@M@std@@QAE@XZ ; std::pair<std::basic_string<char,std::char_traits<char>,std::allocator<char> > const ,float>::~pair<std::basic_string<char,std::char_traits<char>,std::allocator<char> > const ,float>
PUBLIC	??$?MDU?$char_traits@D@std@@V?$allocator@D@1@@std@@YA_NABV?$basic_string@DU?$char_traits@D@std@@V?$allocator@D@2@@0@0@Z ; std::operator<<char,std::char_traits<char>,std::allocator<char> >
PUBLIC	??$_Construct@$00PBD@?$basic_string@DU?$char_traits@D@std@@V?$allocator@D@2@@std@@AAEXQBDI@Z ; std::basic_string<char,std::char_traits<char>,std::allocator<char> >::_Construct<1,char const *>
PUBLIC	??$_Erase_tree@V?$allocator@U?$_Tree_node@U?$pair@$$CBV?$basic_string@DU?$char_traits@D@std@@V?$allocator@D@2@@std@@M@std@@PAX@std@@@std@@@?$_Tree_val@U?$_Tree_simple_types@U?$pair@$$CBV?$basic_string@DU?$char_traits@D@std@@V?$allocator@D@2@@std@@M@std@@@std@@@std@@QAEXAAV?$allocator@U?$_Tree_node@U?$pair@$$CBV?$basic_string@DU?$char_traits@D@std@@V?$allocator@D@2@@std@@M@std@@PAX@std@@@1@PAU?$_Tree_node@U?$pair@$$CBV?$basic_string@DU?$char_traits@D@std@@V?$allocator@D@2@@std@@M@std@@PAX@1@@Z ; std::_Tree_val<std::_Tree_simple_types<std::pair<std::basic_string<char,std::char_traits<char>,std::allocator<char> > const ,float> > >::_Erase_tree<std::allocator<std::_Tree_node<std::pair<std::basic_string<char,std::char_traits<char>,std::allocator<char> > const ,float>,void *> > >
PUBLIC	??$_Freenode@V?$allocator@U?$_Tree_node@U?$pair@$$CBV?$basic_string@DU?$char_traits@D@std@@V?$allocator@D@2@@std@@M@std@@PAX@std@@@std@@@?$_Tree_node@U?$pair@$$CBV?$basic_string@DU?$char_traits@D@std@@V?$allocator@D@2@@std@@M@std@@PAX@std@@SAXAAV?$allocator@U?$_Tree_node@U?$pair@$$CBV?$basic_string@DU?$char_traits@D@std@@V?$allocator@D@2@@std@@M@std@@PAX@std@@@1@PAU01@@Z ; std::_Tree_node<std::pair<std::basic_string<char,std::char_traits<char>,std::allocator<char> > const ,float>,void *>::_Freenode<std::allocator<std::_Tree_node<std::pair<std::basic_string<char,std::char_traits<char>,std::allocator<char> > const ,float>,void *> > >
PUBLIC	??$_Emplace@U?$pair@$$CBV?$basic_string@DU?$char_traits@D@std@@V?$allocator@D@2@@std@@M@std@@@?$_Tree@V?$_Tmap_traits@V?$basic_string@DU?$char_traits@D@std@@V?$allocator@D@2@@std@@MU?$less@V?$basic_string@DU?$char_traits@D@std@@V?$allocator@D@2@@std@@@2@V?$allocator@U?$pair@$$CBV?$basic_string@DU?$char_traits@D@std@@V?$allocator@D@2@@std@@M@std@@@2@$0A@@std@@@std@@IAE?AU?$pair@PAU?$_Tree_node@U?$pair@$$CBV?$basic_string@DU?$char_traits@D@std@@V?$allocator@D@2@@std@@M@std@@PAX@std@@_N@1@$$QAU?$pair@$$CBV?$basic_string@DU?$char_traits@D@std@@V?$allocator@D@2@@std@@M@1@@Z ; std::_Tree<std::_Tmap_traits<std::basic_string<char,std::char_traits<char>,std::allocator<char> >,float,std::less<std::basic_string<char,std::char_traits<char>,std::allocator<char> > >,std::allocator<std::pair<std::basic_string<char,std::char_traits<char>,std::allocator<char> > const ,float> >,0> >::_Emplace<std::pair<std::basic_string<char,std::char_traits<char>,std::allocator<char> > const ,float> >
PUBLIC	??$_Find_lower_bound@V?$basic_string@DU?$char_traits@D@std@@V?$allocator@D@2@@std@@@?$_Tree@V?$_Tmap_traits@V?$basic_string@DU?$char_traits@D@std@@V?$allocator@D@2@@std@@MU?$less@V?$basic_string@DU?$char_traits@D@std@@V?$allocator@D@2@@std@@@2@V?$allocator@U?$pair@$$CBV?$basic_string@DU?$char_traits@D@std@@V?$allocator@D@2@@std@@M@std@@@2@$0A@@std@@@std@@IBE?AU?$_Tree_find_result@PAU?$_Tree_node@U?$pair@$$CBV?$basic_string@DU?$char_traits@D@std@@V?$allocator@D@2@@std@@M@std@@PAX@std@@@1@ABV?$basic_string@DU?$char_traits@D@std@@V?$allocator@D@2@@1@@Z ; std::_Tree<std::_Tmap_traits<std::basic_string<char,std::char_traits<char>,std::allocator<char> >,float,std::less<std::basic_string<char,std::char_traits<char>,std::allocator<char> > >,std::allocator<std::pair<std::basic_string<char,std::char_traits<char>,std::allocator<char> > const ,float> >,0> >::_Find_lower_bound<std::basic_string<char,std::char_traits<char>,std::allocator<char> > >
PUBLIC	??1?$_Alloc_construct_ptr@V?$allocator@U?$_Tree_node@U?$pair@$$CBV?$basic_string@DU?$char_traits@D@std@@V?$allocator@D@2@@std@@M@std@@PAX@std@@@std@@@std@@QAE@XZ ; std::_Alloc_construct_ptr<std::allocator<std::_Tree_node<std::pair<std::basic_string<char,std::char_traits<char>,std::allocator<char> > const ,float>,void *> > >::~_Alloc_construct_ptr<std::allocator<std::_Tree_node<std::pair<std::basic_string<char,std::char_traits<char>,std::allocator<char> > const ,float>,void *> > >
PUBLIC	??1?$_Tree_temp_node_alloc@V?$allocator@U?$_Tree_node@U?$pair@$$CBV?$basic_string@DU?$char_traits@D@std@@V?$allocator@D@2@@std@@M@std@@PAX@std@@@std@@@std@@QAE@XZ ; std::_Tree_temp_node_alloc<std::allocator<std::_Tree_node<std::pair<std::basic_string<char,std::char_traits<char>,std::allocator<char> > const ,float>,void *> > >::~_Tree_temp_node_alloc<std::allocator<std::_Tree_node<std::pair<std::basic_string<char,std::char_traits<char>,std::allocator<char> > const ,float>,void *> > >
PUBLIC	??$_Allocate_manually_vector_aligned@U_Default_allocate_traits@std@@@std@@YAPAXI@Z ; std::_Allocate_manually_vector_aligned<std::_Default_allocate_traits>
PUBLIC	??_7exception@std@@6B@				; std::exception::`vftable'
PUBLIC	??_C@_0BC@EOODALEL@Unknown?5exception@		; `string'
PUBLIC	??_7bad_alloc@std@@6B@				; std::bad_alloc::`vftable'
PUBLIC	??_7bad_array_new_length@std@@6B@		; std::bad_array_new_length::`vftable'
PUBLIC	??_C@_0BF@KINCDENJ@bad?5array?5new?5length@	; `string'
PUBLIC	__TI3?AVbad_array_new_length@std@@
PUBLIC	__CTA3?AVbad_array_new_length@std@@
PUBLIC	??_R0?AVbad_array_new_length@std@@@8		; std::bad_array_new_length `RTTI Type Descriptor'
PUBLIC	__CT??_R0?AVbad_array_new_length@std@@@8??0bad_array_new_length@std@@QAE@ABV01@@Z12
PUBLIC	??_R0?AVbad_alloc@std@@@8			; std::bad_alloc `RTTI Type Descriptor'
PUBLIC	__CT??_R0?AVbad_alloc@std@@@8??0bad_alloc@std@@QAE@ABV01@@Z12
PUBLIC	??_R0?AVexception@std@@@8			; std::exception `RTTI Type Descriptor'
PUBLIC	__CT??_R0?AVexception@std@@@8??0exception@std@@QAE@ABV01@@Z12
PUBLIC	??_C@_0BA@JFNIOLAK@string?5too?5long@		; `string'
PUBLIC	??_C@_0BB@GCADKGJO@map?1set?5too?5long@		; `string'
PUBLIC	?ms_singleton@?$CSingleton@VCSoundManager@@@@0PAVCSoundManager@@A ; CSingleton<CSoundManager>::ms_singleton
PUBLIC	??_7?$CSingleton@VCSoundManager@@@@6B@		; CSingleton<CSoundManager>::`vftable'
PUBLIC	?ms_SoundManager2D@CSoundManager@@1VCSoundManager2D@@A ; CSoundManager::ms_SoundManager2D
PUBLIC	?ms_SoundManager3D@CSoundManager@@1VCSoundManager3D@@A ; CSoundManager::ms_SoundManager3D
PUBLIC	?ms_SoundManagerStream@CSoundManager@@1VCSoundManagerStream@@A ; CSoundManager::ms_SoundManagerStream
PUBLIC	??_7CSoundManager@@6B@				; CSoundManager::`vftable'
PUBLIC	?ms_singleton@?$CSingleton@VCTimer@@@@0PAVCTimer@@A ; CSingleton<CTimer>::ms_singleton
PUBLIC	??_C@_0DG@IHJECCAM@CSoundManager?3?3Create?5?9?5Sound2D@ ; `string'
PUBLIC	??_C@_0DK@HNOILEHO@CSoundManager?3?3Create?5?9?5SoundSt@ ; `string'
PUBLIC	??_C@_0DG@CCBPLCAC@CSoundManager?3?3Create?5?9?5Sound3D@ ; `string'
PUBLIC	??_C@_0CD@IKOINIJC@FadeOutMusic?3?5?$CFs?5?9?5ERROR?5NOT?5EX@ ; `string'
PUBLIC	??_C@_0CG@CAGDPBLM@FadeOutMusic?3?5?$CFs?5?9?5ERROR?5OUT?5OF@ ; `string'
PUBLIC	??_C@_0DM@BCCLJDHL@CSoundManager?3?3PlayMusic?5?9?5Fail@ ; `string'
PUBLIC	??_C@_0EC@EPLOEFBK@CSoundManager?3?3PlayMusic?5?9?5Ther@ ; `string'
PUBLIC	??_C@_0BJ@DHFDPMIM@invalid?5vector?5subscript@	; `string'
PUBLIC	??_R4exception@std@@6B@				; std::exception::`RTTI Complete Object Locator'
PUBLIC	??_R3exception@std@@8				; std::exception::`RTTI Class Hierarchy Descriptor'
PUBLIC	??_R2exception@std@@8				; std::exception::`RTTI Base Class Array'
PUBLIC	??_R1A@?0A@EA@exception@std@@8			; std::exception::`RTTI Base Class Descriptor at (0,-1,0,64)'
PUBLIC	??_R4bad_alloc@std@@6B@				; std::bad_alloc::`RTTI Complete Object Locator'
PUBLIC	??_R3bad_alloc@std@@8				; std::bad_alloc::`RTTI Class Hierarchy Descriptor'
PUBLIC	??_R2bad_alloc@std@@8				; std::bad_alloc::`RTTI Base Class Array'
PUBLIC	??_R1A@?0A@EA@bad_alloc@std@@8			; std::bad_alloc::`RTTI Base Class Descriptor at (0,-1,0,64)'
PUBLIC	??_R4bad_array_new_length@std@@6B@		; std::bad_array_new_length::`RTTI Complete Object Locator'
PUBLIC	??_R3bad_array_new_length@std@@8		; std::bad_array_new_length::`RTTI Class Hierarchy Descriptor'
PUBLIC	??_R2bad_array_new_length@std@@8		; std::bad_array_new_length::`RTTI Base Class Array'
PUBLIC	??_R1A@?0A@EA@bad_array_new_length@std@@8	; std::bad_array_new_length::`RTTI Base Class Descriptor at (0,-1,0,64)'
PUBLIC	??_R4CSoundManager@@6B@				; CSoundManager::`RTTI Complete Object Locator'
PUBLIC	??_R0?AVCSoundManager@@@8			; CSoundManager `RTTI Type Descriptor'
PUBLIC	??_R3CSoundManager@@8				; CSoundManager::`RTTI Class Hierarchy Descriptor'
PUBLIC	??_R2CSoundManager@@8				; CSoundManager::`RTTI Base Class Array'
PUBLIC	??_R1A@?0A@EA@CSoundManager@@8			; CSoundManager::`RTTI Base Class Descriptor at (0,-1,0,64)'
PUBLIC	??_R1A@?0A@EA@?$CSingleton@VCSoundManager@@@@8	; CSingleton<CSoundManager>::`RTTI Base Class Descriptor at (0,-1,0,64)'
PUBLIC	??_R0?AV?$CSingleton@VCSoundManager@@@@@8	; CSingleton<CSoundManager> `RTTI Type Descriptor'
PUBLIC	??_R3?$CSingleton@VCSoundManager@@@@8		; CSingleton<CSoundManager>::`RTTI Class Hierarchy Descriptor'
PUBLIC	??_R2?$CSingleton@VCSoundManager@@@@8		; CSingleton<CSoundManager>::`RTTI Base Class Array'
PUBLIC	??_R4?$CSingleton@VCSoundManager@@@@6B@		; CSingleton<CSoundManager>::`RTTI Complete Object Locator'
PUBLIC	__real@3dcccccd
PUBLIC	__real@3e99999a
PUBLIC	__real@3f800000
PUBLIC	__real@4024000000000000
PUBLIC	__real@40a00000
EXTRN	??2@YAPAXI@Z:PROC				; operator new
EXTRN	??3@YAXPAXI@Z:PROC				; operator delete
EXTRN	_atexit:PROC
EXTRN	__invalid_parameter_noinfo_noreturn:PROC
EXTRN	?GetCaseCRC32@@YAKPBDI@Z:PROC			; GetCaseCRC32
EXTRN	___std_exception_copy:PROC
EXTRN	___std_exception_destroy:PROC
EXTRN	??_Eexception@std@@UAEPAXI@Z:PROC		; std::exception::`vector deleting destructor'
EXTRN	??_Ebad_alloc@std@@UAEPAXI@Z:PROC		; std::bad_alloc::`vector deleting destructor'
EXTRN	??_Ebad_array_new_length@std@@UAEPAXI@Z:PROC	; std::bad_array_new_length::`vector deleting destructor'
EXTRN	?_Xlength_error@std@@YAXPBD@Z:PROC		; std::_Xlength_error
EXTRN	?_Xout_of_range@std@@YAXPBD@Z:PROC		; std::_Xout_of_range
EXTRN	?StringPath@@YAXPBDAAV?$basic_string@DU?$char_traits@D@std@@V?$allocator@D@2@@std@@@Z:PROC ; StringPath
EXTRN	?fMIN@@YAMMM@Z:PROC				; fMIN
EXTRN	?fMAX@@YAMMM@Z:PROC				; fMAX
EXTRN	?Tracen@@YAXPBD@Z:PROC				; Tracen
EXTRN	?Tracenf@@YAXPBDZZ:PROC				; Tracenf
EXTRN	?TraceError@@YAXPBDZZ:PROC			; TraceError
EXTRN	??0CSoundManagerStream@@QAE@XZ:PROC		; CSoundManagerStream::CSoundManagerStream
EXTRN	??1CSoundManagerStream@@UAE@XZ:PROC		; CSoundManagerStream::~CSoundManagerStream
EXTRN	?Initialize@CSoundManagerStream@@QAE_NXZ:PROC	; CSoundManagerStream::Initialize
EXTRN	?Destroy@CSoundManagerStream@@QAEXXZ:PROC	; CSoundManagerStream::Destroy
EXTRN	?SetInstance@CSoundManagerStream@@QAE_NKPBD@Z:PROC ; CSoundManagerStream::SetInstance
EXTRN	?GetInstance@CSoundManagerStream@@QAEPAVCSoundInstanceStream@@K@Z:PROC ; CSoundManagerStream::GetInstance
EXTRN	??0CSoundManager2D@@QAE@XZ:PROC			; CSoundManager2D::CSoundManager2D
EXTRN	??1CSoundManager2D@@UAE@XZ:PROC			; CSoundManager2D::~CSoundManager2D
EXTRN	?Initialize@CSoundManager2D@@QAE_NXZ:PROC	; CSoundManager2D::Initialize
EXTRN	?Destroy@CSoundManager2D@@QAEXXZ:PROC		; CSoundManager2D::Destroy
EXTRN	?GetInstance@CSoundManager2D@@QAEPAVISoundInstance@@PBD@Z:PROC ; CSoundManager2D::GetInstance
EXTRN	??0CSoundManager3D@@QAE@XZ:PROC			; CSoundManager3D::CSoundManager3D
EXTRN	??1CSoundManager3D@@UAE@XZ:PROC			; CSoundManager3D::~CSoundManager3D
EXTRN	?Initialize@CSoundManager3D@@QAE_NXZ:PROC	; CSoundManager3D::Initialize
EXTRN	?Destroy@CSoundManager3D@@QAEXXZ:PROC		; CSoundManager3D::Destroy
EXTRN	?SetInstance@CSoundManager3D@@QAEHPBD@Z:PROC	; CSoundManager3D::SetInstance
EXTRN	?GetInstance@CSoundManager3D@@QAEPAVISoundInstance@@K@Z:PROC ; CSoundManager3D::GetInstance
EXTRN	?SetListenerDirection@CSoundManager3D@@QAEXMMMMMM@Z:PROC ; CSoundManager3D::SetListenerDirection
EXTRN	?SetListenerPosition@CSoundManager3D@@QAEXMMM@Z:PROC ; CSoundManager3D::SetListenerPosition
EXTRN	??_E?$CSingleton@VCSoundManager@@@@UAEPAXI@Z:PROC ; CSingleton<CSoundManager>::`vector deleting destructor'
EXTRN	??_ECSoundManager@@UAEPAXI@Z:PROC		; CSoundManager::`vector deleting destructor'
EXTRN	?GetCurrentSecond@CTimer@@QAEMXZ:PROC		; CTimer::GetCurrentSecond
EXTRN	@__security_check_cookie@4:PROC
EXTRN	__CxxThrowException@8:PROC
EXTRN	___CxxFrameHandler3:PROC
EXTRN	__libm_sse2_pow_precise:PROC
EXTRN	_memcpy:PROC
EXTRN	_memmove:PROC
EXTRN	??_7type_info@@6B@:QWORD			; type_info::`vftable'
EXTRN	___security_cookie:DWORD
EXTRN	__fltused:DWORD
;	COMDAT ?ms_singleton@?$CSingleton@VCSoundManager@@@@0PAVCSoundManager@@A
_BSS	SEGMENT
?ms_singleton@?$CSingleton@VCSoundManager@@@@0PAVCSoundManager@@A DD 01H DUP (?) ; CSingleton<CSoundManager>::ms_singleton
_BSS	ENDS
_BSS	SEGMENT
?ms_SoundManager2D@CSoundManager@@1VCSoundManager2D@@A DB 034H DUP (?) ; CSoundManager::ms_SoundManager2D
?ms_SoundManager3D@CSoundManager@@1VCSoundManager3D@@A DB 01acH DUP (?) ; CSoundManager::ms_SoundManager3D
?ms_SoundManagerStream@CSoundManager@@1VCSoundManagerStream@@A DB 01cH DUP (?) ; CSoundManager::ms_SoundManagerStream
_BSS	ENDS
;	COMDAT ?ms_singleton@?$CSingleton@VCTimer@@@@0PAVCTimer@@A
_BSS	SEGMENT
?ms_singleton@?$CSingleton@VCTimer@@@@0PAVCTimer@@A DD 01H DUP (?) ; CSingleton<CTimer>::ms_singleton
_BSS	ENDS
CRT$XCU	SEGMENT
??ms_SoundManager2D$initializer$@CSoundManager@@1P6AXXZA@@3P6AXXZA DD FLAT:??__E?ms_SoundManager2D@CSoundManager@@1VCSoundManager2D@@A@@YAXXZ ; ??ms_SoundManager2D$initializer$@CSoundManager@@1P6AXXZA@@3P6AXXZA
CRT$XCU	ENDS
;	COMDAT __real@40a00000
CONST	SEGMENT
__real@40a00000 DD 040a00000r			; 5
CONST	ENDS
;	COMDAT __real@4024000000000000
CONST	SEGMENT
__real@4024000000000000 DQ 04024000000000000r	; 10
CONST	ENDS
;	COMDAT __real@3f800000
CONST	SEGMENT
__real@3f800000 DD 03f800000r			; 1
CONST	ENDS
;	COMDAT __real@3e99999a
CONST	SEGMENT
__real@3e99999a DD 03e99999ar			; 0.3
CONST	ENDS
;	COMDAT __real@3dcccccd
CONST	SEGMENT
__real@3dcccccd DD 03dcccccdr			; 0.1
CONST	ENDS
;	COMDAT ??_R4?$CSingleton@VCSoundManager@@@@6B@
rdata$r	SEGMENT
??_R4?$CSingleton@VCSoundManager@@@@6B@ DD 00H		; CSingleton<CSoundManager>::`RTTI Complete Object Locator'
	DD	00H
	DD	00H
	DD	FLAT:??_R0?AV?$CSingleton@VCSoundManager@@@@@8
	DD	FLAT:??_R3?$CSingleton@VCSoundManager@@@@8
rdata$r	ENDS
;	COMDAT ??_R2?$CSingleton@VCSoundManager@@@@8
rdata$r	SEGMENT
??_R2?$CSingleton@VCSoundManager@@@@8 DD FLAT:??_R1A@?0A@EA@?$CSingleton@VCSoundManager@@@@8 ; CSingleton<CSoundManager>::`RTTI Base Class Array'
rdata$r	ENDS
;	COMDAT ??_R3?$CSingleton@VCSoundManager@@@@8
rdata$r	SEGMENT
??_R3?$CSingleton@VCSoundManager@@@@8 DD 00H		; CSingleton<CSoundManager>::`RTTI Class Hierarchy Descriptor'
	DD	00H
	DD	01H
	DD	FLAT:??_R2?$CSingleton@VCSoundManager@@@@8
rdata$r	ENDS
;	COMDAT ??_R0?AV?$CSingleton@VCSoundManager@@@@@8
data$rs	SEGMENT
??_R0?AV?$CSingleton@VCSoundManager@@@@@8 DD FLAT:??_7type_info@@6B@ ; CSingleton<CSoundManager> `RTTI Type Descriptor'
	DD	00H
	DB	'.?AV?$CSingleton@VCSoundManager@@@@', 00H
data$rs	ENDS
;	COMDAT ??_R1A@?0A@EA@?$CSingleton@VCSoundManager@@@@8
rdata$r	SEGMENT
??_R1A@?0A@EA@?$CSingleton@VCSoundManager@@@@8 DD FLAT:??_R0?AV?$CSingleton@VCSoundManager@@@@@8 ; CSingleton<CSoundManager>::`RTTI Base Class Descriptor at (0,-1,0,64)'
	DD	00H
	DD	00H
	DD	0ffffffffH
	DD	00H
	DD	040H
	DD	FLAT:??_R3?$CSingleton@VCSoundManager@@@@8
rdata$r	ENDS
;	COMDAT ??_R1A@?0A@EA@CSoundManager@@8
rdata$r	SEGMENT
??_R1A@?0A@EA@CSoundManager@@8 DD FLAT:??_R0?AVCSoundManager@@@8 ; CSoundManager::`RTTI Base Class Descriptor at (0,-1,0,64)'
	DD	01H
	DD	00H
	DD	0ffffffffH
	DD	00H
	DD	040H
	DD	FLAT:??_R3CSoundManager@@8
rdata$r	ENDS
;	COMDAT ??_R2CSoundManager@@8
rdata$r	SEGMENT
??_R2CSoundManager@@8 DD FLAT:??_R1A@?0A@EA@CSoundManager@@8 ; CSoundManager::`RTTI Base Class Array'
	DD	FLAT:??_R1A@?0A@EA@?$CSingleton@VCSoundManager@@@@8
rdata$r	ENDS
;	COMDAT ??_R3CSoundManager@@8
rdata$r	SEGMENT
??_R3CSoundManager@@8 DD 00H				; CSoundManager::`RTTI Class Hierarchy Descriptor'
	DD	00H
	DD	02H
	DD	FLAT:??_R2CSoundManager@@8
rdata$r	ENDS
;	COMDAT ??_R0?AVCSoundManager@@@8
data$rs	SEGMENT
??_R0?AVCSoundManager@@@8 DD FLAT:??_7type_info@@6B@	; CSoundManager `RTTI Type Descriptor'
	DD	00H
	DB	'.?AVCSoundManager@@', 00H
data$rs	ENDS
;	COMDAT ??_R4CSoundManager@@6B@
rdata$r	SEGMENT
??_R4CSoundManager@@6B@ DD 00H				; CSoundManager::`RTTI Complete Object Locator'
	DD	00H
	DD	00H
	DD	FLAT:??_R0?AVCSoundManager@@@8
	DD	FLAT:??_R3CSoundManager@@8
rdata$r	ENDS
;	COMDAT ??_R1A@?0A@EA@bad_array_new_length@std@@8
rdata$r	SEGMENT
??_R1A@?0A@EA@bad_array_new_length@std@@8 DD FLAT:??_R0?AVbad_array_new_length@std@@@8 ; std::bad_array_new_length::`RTTI Base Class Descriptor at (0,-1,0,64)'
	DD	02H
	DD	00H
	DD	0ffffffffH
	DD	00H
	DD	040H
	DD	FLAT:??_R3bad_array_new_length@std@@8
rdata$r	ENDS
;	COMDAT ??_R2bad_array_new_length@std@@8
rdata$r	SEGMENT
??_R2bad_array_new_length@std@@8 DD FLAT:??_R1A@?0A@EA@bad_array_new_length@std@@8 ; std::bad_array_new_length::`RTTI Base Class Array'
	DD	FLAT:??_R1A@?0A@EA@bad_alloc@std@@8
	DD	FLAT:??_R1A@?0A@EA@exception@std@@8
rdata$r	ENDS
;	COMDAT ??_R3bad_array_new_length@std@@8
rdata$r	SEGMENT
??_R3bad_array_new_length@std@@8 DD 00H			; std::bad_array_new_length::`RTTI Class Hierarchy Descriptor'
	DD	00H
	DD	03H
	DD	FLAT:??_R2bad_array_new_length@std@@8
rdata$r	ENDS
;	COMDAT ??_R4bad_array_new_length@std@@6B@
rdata$r	SEGMENT
??_R4bad_array_new_length@std@@6B@ DD 00H		; std::bad_array_new_length::`RTTI Complete Object Locator'
	DD	00H
	DD	00H
	DD	FLAT:??_R0?AVbad_array_new_length@std@@@8
	DD	FLAT:??_R3bad_array_new_length@std@@8
rdata$r	ENDS
;	COMDAT ??_R1A@?0A@EA@bad_alloc@std@@8
rdata$r	SEGMENT
??_R1A@?0A@EA@bad_alloc@std@@8 DD FLAT:??_R0?AVbad_alloc@std@@@8 ; std::bad_alloc::`RTTI Base Class Descriptor at (0,-1,0,64)'
	DD	01H
	DD	00H
	DD	0ffffffffH
	DD	00H
	DD	040H
	DD	FLAT:??_R3bad_alloc@std@@8
rdata$r	ENDS
;	COMDAT ??_R2bad_alloc@std@@8
rdata$r	SEGMENT
??_R2bad_alloc@std@@8 DD FLAT:??_R1A@?0A@EA@bad_alloc@std@@8 ; std::bad_alloc::`RTTI Base Class Array'
	DD	FLAT:??_R1A@?0A@EA@exception@std@@8
rdata$r	ENDS
;	COMDAT ??_R3bad_alloc@std@@8
rdata$r	SEGMENT
??_R3bad_alloc@std@@8 DD 00H				; std::bad_alloc::`RTTI Class Hierarchy Descriptor'
	DD	00H
	DD	02H
	DD	FLAT:??_R2bad_alloc@std@@8
rdata$r	ENDS
;	COMDAT ??_R4bad_alloc@std@@6B@
rdata$r	SEGMENT
??_R4bad_alloc@std@@6B@ DD 00H				; std::bad_alloc::`RTTI Complete Object Locator'
	DD	00H
	DD	00H
	DD	FLAT:??_R0?AVbad_alloc@std@@@8
	DD	FLAT:??_R3bad_alloc@std@@8
rdata$r	ENDS
;	COMDAT ??_R1A@?0A@EA@exception@std@@8
rdata$r	SEGMENT
??_R1A@?0A@EA@exception@std@@8 DD FLAT:??_R0?AVexception@std@@@8 ; std::exception::`RTTI Base Class Descriptor at (0,-1,0,64)'
	DD	00H
	DD	00H
	DD	0ffffffffH
	DD	00H
	DD	040H
	DD	FLAT:??_R3exception@std@@8
rdata$r	ENDS
;	COMDAT ??_R2exception@std@@8
rdata$r	SEGMENT
??_R2exception@std@@8 DD FLAT:??_R1A@?0A@EA@exception@std@@8 ; std::exception::`RTTI Base Class Array'
rdata$r	ENDS
;	COMDAT ??_R3exception@std@@8
rdata$r	SEGMENT
??_R3exception@std@@8 DD 00H				; std::exception::`RTTI Class Hierarchy Descriptor'
	DD	00H
	DD	01H
	DD	FLAT:??_R2exception@std@@8
rdata$r	ENDS
;	COMDAT ??_R4exception@std@@6B@
rdata$r	SEGMENT
??_R4exception@std@@6B@ DD 00H				; std::exception::`RTTI Complete Object Locator'
	DD	00H
	DD	00H
	DD	FLAT:??_R0?AVexception@std@@@8
	DD	FLAT:??_R3exception@std@@8
rdata$r	ENDS
;	COMDAT ??_C@_0BJ@DHFDPMIM@invalid?5vector?5subscript@
CONST	SEGMENT
??_C@_0BJ@DHFDPMIM@invalid?5vector?5subscript@ DB 'invalid vector subscri'
	DB	'pt', 00H					; `string'
CONST	ENDS
;	COMDAT ??_C@_0EC@EPLOEFBK@CSoundManager?3?3PlayMusic?5?9?5Ther@
CONST	SEGMENT
??_C@_0EC@EPLOEFBK@CSoundManager?3?3PlayMusic?5?9?5Ther@ DB 'CSoundManage'
	DB	'r::PlayMusic - There is no stream sound instance : %s', 00H ; `string'
CONST	ENDS
;	COMDAT ??_C@_0DM@BCCLJDHL@CSoundManager?3?3PlayMusic?5?9?5Fail@
CONST	SEGMENT
??_C@_0DM@BCCLJDHL@CSoundManager?3?3PlayMusic?5?9?5Fail@ DB 'CSoundManage'
	DB	'r::PlayMusic - Failed to load stream sound : %s', 00H ; `string'
CONST	ENDS
;	COMDAT ??_C@_0CG@CAGDPBLM@FadeOutMusic?3?5?$CFs?5?9?5ERROR?5OUT?5OF@
CONST	SEGMENT
??_C@_0CG@CAGDPBLM@FadeOutMusic?3?5?$CFs?5?9?5ERROR?5OUT?5OF@ DB 'FadeOut'
	DB	'Music: %s - ERROR OUT OF RANGE', 00H	; `string'
CONST	ENDS
;	COMDAT ??_C@_0CD@IKOINIJC@FadeOutMusic?3?5?$CFs?5?9?5ERROR?5NOT?5EX@
CONST	SEGMENT
??_C@_0CD@IKOINIJC@FadeOutMusic?3?5?$CFs?5?9?5ERROR?5NOT?5EX@ DB 'FadeOut'
	DB	'Music: %s - ERROR NOT EXIST', 00H		; `string'
CONST	ENDS
;	COMDAT ?s_fLimitDistance@?7??PlayCharacterSound3D@CSoundManager@@QAEXMMMPBDH@Z@4MA
_DATA	SEGMENT
?s_fLimitDistance@?7??PlayCharacterSound3D@CSoundManager@@QAEXMMMPBDH@Z@4MA DD 04bbebc20r ; 2.5e+07 ; `CSoundManager::PlayCharacterSound3D'::`8'::s_fLimitDistance
_DATA	ENDS
;	COMDAT ??_C@_0DG@CCBPLCAC@CSoundManager?3?3Create?5?9?5Sound3D@
CONST	SEGMENT
??_C@_0DG@CCBPLCAC@CSoundManager?3?3Create?5?9?5Sound3D@ DB 'CSoundManage'
	DB	'r::Create - Sound3D::Initialize - FAILURE', 00H ; `string'
CONST	ENDS
;	COMDAT ??_C@_0DK@HNOILEHO@CSoundManager?3?3Create?5?9?5SoundSt@
CONST	SEGMENT
??_C@_0DK@HNOILEHO@CSoundManager?3?3Create?5?9?5SoundSt@ DB 'CSoundManage'
	DB	'r::Create - SoundStream::Initialize - FAILURE', 00H ; `string'
CONST	ENDS
;	COMDAT ??_C@_0DG@IHJECCAM@CSoundManager?3?3Create?5?9?5Sound2D@
CONST	SEGMENT
??_C@_0DG@IHJECCAM@CSoundManager?3?3Create?5?9?5Sound2D@ DB 'CSoundManage'
	DB	'r::Create - Sound2D::Initialize - FAILURE', 00H ; `string'
CONST	ENDS
;	COMDAT ??_7CSoundManager@@6B@
CONST	SEGMENT
??_7CSoundManager@@6B@ DD FLAT:??_R4CSoundManager@@6B@	; CSoundManager::`vftable'
	DD	FLAT:??_ECSoundManager@@UAEPAXI@Z
CONST	ENDS
;	COMDAT ??_7?$CSingleton@VCSoundManager@@@@6B@
CONST	SEGMENT
??_7?$CSingleton@VCSoundManager@@@@6B@ DD FLAT:??_R4?$CSingleton@VCSoundManager@@@@6B@ ; CSingleton<CSoundManager>::`vftable'
	DD	FLAT:??_E?$CSingleton@VCSoundManager@@@@UAEPAXI@Z
CONST	ENDS
;	COMDAT ??_C@_0BB@GCADKGJO@map?1set?5too?5long@
CONST	SEGMENT
??_C@_0BB@GCADKGJO@map?1set?5too?5long@ DB 'map/set too long', 00H ; `string'
CONST	ENDS
;	COMDAT ??_C@_0BA@JFNIOLAK@string?5too?5long@
CONST	SEGMENT
??_C@_0BA@JFNIOLAK@string?5too?5long@ DB 'string too long', 00H ; `string'
CONST	ENDS
;	COMDAT __CT??_R0?AVexception@std@@@8??0exception@std@@QAE@ABV01@@Z12
xdata$x	SEGMENT
__CT??_R0?AVexception@std@@@8??0exception@std@@QAE@ABV01@@Z12 DD 00H
	DD	FLAT:??_R0?AVexception@std@@@8
	DD	00H
	DD	0ffffffffH
	ORG $+4
	DD	0cH
	DD	FLAT:??0exception@std@@QAE@ABV01@@Z
xdata$x	ENDS
;	COMDAT ??_R0?AVexception@std@@@8
data$r	SEGMENT
??_R0?AVexception@std@@@8 DD FLAT:??_7type_info@@6B@	; std::exception `RTTI Type Descriptor'
	DD	00H
	DB	'.?AVexception@std@@', 00H
data$r	ENDS
;	COMDAT __CT??_R0?AVbad_alloc@std@@@8??0bad_alloc@std@@QAE@ABV01@@Z12
xdata$x	SEGMENT
__CT??_R0?AVbad_alloc@std@@@8??0bad_alloc@std@@QAE@ABV01@@Z12 DD 010H
	DD	FLAT:??_R0?AVbad_alloc@std@@@8
	DD	00H
	DD	0ffffffffH
	ORG $+4
	DD	0cH
	DD	FLAT:??0bad_alloc@std@@QAE@ABV01@@Z
xdata$x	ENDS
;	COMDAT ??_R0?AVbad_alloc@std@@@8
data$r	SEGMENT
??_R0?AVbad_alloc@std@@@8 DD FLAT:??_7type_info@@6B@	; std::bad_alloc `RTTI Type Descriptor'
	DD	00H
	DB	'.?AVbad_alloc@std@@', 00H
data$r	ENDS
;	COMDAT __CT??_R0?AVbad_array_new_length@std@@@8??0bad_array_new_length@std@@QAE@ABV01@@Z12
xdata$x	SEGMENT
__CT??_R0?AVbad_array_new_length@std@@@8??0bad_array_new_length@std@@QAE@ABV01@@Z12 DD 00H
	DD	FLAT:??_R0?AVbad_array_new_length@std@@@8
	DD	00H
	DD	0ffffffffH
	ORG $+4
	DD	0cH
	DD	FLAT:??0bad_array_new_length@std@@QAE@ABV01@@Z
xdata$x	ENDS
;	COMDAT ??_R0?AVbad_array_new_length@std@@@8
data$r	SEGMENT
??_R0?AVbad_array_new_length@std@@@8 DD FLAT:??_7type_info@@6B@ ; std::bad_array_new_length `RTTI Type Descriptor'
	DD	00H
	DB	'.?AVbad_array_new_length@std@@', 00H
data$r	ENDS
;	COMDAT __CTA3?AVbad_array_new_length@std@@
xdata$x	SEGMENT
__CTA3?AVbad_array_new_length@std@@ DD 03H
	DD	FLAT:__CT??_R0?AVbad_array_new_length@std@@@8??0bad_array_new_length@std@@QAE@ABV01@@Z12
	DD	FLAT:__CT??_R0?AVbad_alloc@std@@@8??0bad_alloc@std@@QAE@ABV01@@Z12
	DD	FLAT:__CT??_R0?AVexception@std@@@8??0exception@std@@QAE@ABV01@@Z12
xdata$x	ENDS
;	COMDAT __TI3?AVbad_array_new_length@std@@
xdata$x	SEGMENT
__TI3?AVbad_array_new_length@std@@ DD 00H
	DD	FLAT:??1bad_array_new_length@std@@UAE@XZ
	DD	00H
	DD	FLAT:__CTA3?AVbad_array_new_length@std@@
xdata$x	ENDS
;	COMDAT ??_C@_0BF@KINCDENJ@bad?5array?5new?5length@
CONST	SEGMENT
??_C@_0BF@KINCDENJ@bad?5array?5new?5length@ DB 'bad array new length', 00H ; `string'
CONST	ENDS
;	COMDAT ??_7bad_array_new_length@std@@6B@
CONST	SEGMENT
??_7bad_array_new_length@std@@6B@ DD FLAT:??_R4bad_array_new_length@std@@6B@ ; std::bad_array_new_length::`vftable'
	DD	FLAT:??_Ebad_array_new_length@std@@UAEPAXI@Z
	DD	FLAT:?what@exception@std@@UBEPBDXZ
CONST	ENDS
;	COMDAT ??_7bad_alloc@std@@6B@
CONST	SEGMENT
??_7bad_alloc@std@@6B@ DD FLAT:??_R4bad_alloc@std@@6B@	; std::bad_alloc::`vftable'
	DD	FLAT:??_Ebad_alloc@std@@UAEPAXI@Z
	DD	FLAT:?what@exception@std@@UBEPBDXZ
CONST	ENDS
;	COMDAT ??_C@_0BC@EOODALEL@Unknown?5exception@
CONST	SEGMENT
??_C@_0BC@EOODALEL@Unknown?5exception@ DB 'Unknown exception', 00H ; `string'
CONST	ENDS
;	COMDAT ??_7exception@std@@6B@
CONST	SEGMENT
??_7exception@std@@6B@ DD FLAT:??_R4exception@std@@6B@	; std::exception::`vftable'
	DD	FLAT:??_Eexception@std@@UAEPAXI@Z
	DD	FLAT:?what@exception@std@@UBEPBDXZ
CONST	ENDS
;	COMDAT xdata$x
xdata$x	SEGMENT
__unwindtable$??$?0U?$pair@$$CBV?$basic_string@DU?$char_traits@D@std@@V?$allocator@D@2@@std@@M@std@@@?$_Tree_temp_node@V?$allocator@U?$_Tree_node@U?$pair@$$CBV?$basic_string@DU?$char_traits@D@std@@V?$allocator@D@2@@std@@M@std@@PAX@std@@@std@@@std@@QAE@AAV?$allocator@U?$_Tree_node@U?$pair@$$CBV?$basic_string@DU?$char_traits@D@std@@V?$allocator@D@2@@std@@M@std@@PAX@std@@@1@PAU?$_Tree_node@U?$pair@$$CBV?$basic_string@DU?$char_traits@D@std@@V?$allocator@D@2@@std@@M@std@@PAX@1@$$QAU?$pair@$$CBV?$basic_string@DU?$char_traits@D@std@@V?$allocator@D@2@@std@@M@1@@Z DD 0ffffffffH
	DD	FLAT:__unwindfunclet$??$?0U?$pair@$$CBV?$basic_string@DU?$char_traits@D@std@@V?$allocator@D@2@@std@@M@std@@@?$_Tree_temp_node@V?$allocator@U?$_Tree_node@U?$pair@$$CBV?$basic_string@DU?$char_traits@D@std@@V?$allocator@D@2@@std@@M@std@@PAX@std@@@std@@@std@@QAE@AAV?$allocator@U?$_Tree_node@U?$pair@$$CBV?$basic_string@DU?$char_traits@D@std@@V?$allocator@D@2@@std@@M@std@@PAX@std@@@1@PAU?$_Tree_node@U?$pair@$$CBV?$basic_string@DU?$char_traits@D@std@@V?$allocator@D@2@@std@@M@std@@PAX@1@$$QAU?$pair@$$CBV?$basic_string@DU?$char_traits@D@std@@V?$allocator@D@2@@std@@M@1@@Z$1
	DD	0ffffffffH
	DD	FLAT:__unwindfunclet$??$?0U?$pair@$$CBV?$basic_string@DU?$char_traits@D@std@@V?$allocator@D@2@@std@@M@std@@@?$_Tree_temp_node@V?$allocator@U?$_Tree_node@U?$pair@$$CBV?$basic_string@DU?$char_traits@D@std@@V?$allocator@D@2@@std@@M@std@@PAX@std@@@std@@@std@@QAE@AAV?$allocator@U?$_Tree_node@U?$pair@$$CBV?$basic_string@DU?$char_traits@D@std@@V?$allocator@D@2@@std@@M@std@@PAX@std@@@1@PAU?$_Tree_node@U?$pair@$$CBV?$basic_string@DU?$char_traits@D@std@@V?$allocator@D@2@@std@@M@std@@PAX@1@$$QAU?$pair@$$CBV?$basic_string@DU?$char_traits@D@std@@V?$allocator@D@2@@std@@M@1@@Z$0
__ehfuncinfo$??$?0U?$pair@$$CBV?$basic_string@DU?$char_traits@D@std@@V?$allocator@D@2@@std@@M@std@@@?$_Tree_temp_node@V?$allocator@U?$_Tree_node@U?$pair@$$CBV?$basic_string@DU?$char_traits@D@std@@V?$allocator@D@2@@std@@M@std@@PAX@std@@@std@@@std@@QAE@AAV?$allocator@U?$_Tree_node@U?$pair@$$CBV?$basic_string@DU?$char_traits@D@std@@V?$allocator@D@2@@std@@M@std@@PAX@std@@@1@PAU?$_Tree_node@U?$pair@$$CBV?$basic_string@DU?$char_traits@D@std@@V?$allocator@D@2@@std@@M@std@@PAX@1@$$QAU?$pair@$$CBV?$basic_string@DU?$char_traits@D@std@@V?$allocator@D@2@@std@@M@1@@Z DD 019930522H
	DD	02H
	DD	FLAT:__unwindtable$??$?0U?$pair@$$CBV?$basic_string@DU?$char_traits@D@std@@V?$allocator@D@2@@std@@M@std@@@?$_Tree_temp_node@V?$allocator@U?$_Tree_node@U?$pair@$$CBV?$basic_string@DU?$char_traits@D@std@@V?$allocator@D@2@@std@@M@std@@PAX@std@@@std@@@std@@QAE@AAV?$allocator@U?$_Tree_node@U?$pair@$$CBV?$basic_string@DU?$char_traits@D@std@@V?$allocator@D@2@@std@@M@std@@PAX@std@@@1@PAU?$_Tree_node@U?$pair@$$CBV?$basic_string@DU?$char_traits@D@std@@V?$allocator@D@2@@std@@M@std@@PAX@1@$$QAU?$pair@$$CBV?$basic_string@DU?$char_traits@D@std@@V?$allocator@D@2@@std@@M@1@@Z
	DD	2 DUP(00H)
	DD	2 DUP(00H)
	DD	00H
	DD	01H
xdata$x	ENDS
;	COMDAT xdata$x
xdata$x	SEGMENT
__unwindtable$??0?$_Tree_temp_node_alloc@V?$allocator@U?$_Tree_node@U?$pair@$$CBV?$basic_string@DU?$char_traits@D@std@@V?$allocator@D@2@@std@@M@std@@PAX@std@@@std@@@std@@QAE@AAV?$allocator@U?$_Tree_node@U?$pair@$$CBV?$basic_string@DU?$char_traits@D@std@@V?$allocator@D@2@@std@@M@std@@PAX@std@@@1@@Z DD 0ffffffffH
	DD	FLAT:__unwindfunclet$??0?$_Tree_temp_node_alloc@V?$allocator@U?$_Tree_node@U?$pair@$$CBV?$basic_string@DU?$char_traits@D@std@@V?$allocator@D@2@@std@@M@std@@PAX@std@@@std@@@std@@QAE@AAV?$allocator@U?$_Tree_node@U?$pair@$$CBV?$basic_string@DU?$char_traits@D@std@@V?$allocator@D@2@@std@@M@std@@PAX@std@@@1@@Z$0
__ehfuncinfo$??0?$_Tree_temp_node_alloc@V?$allocator@U?$_Tree_node@U?$pair@$$CBV?$basic_string@DU?$char_traits@D@std@@V?$allocator@D@2@@std@@M@std@@PAX@std@@@std@@@std@@QAE@AAV?$allocator@U?$_Tree_node@U?$pair@$$CBV?$basic_string@DU?$char_traits@D@std@@V?$allocator@D@2@@std@@M@std@@PAX@std@@@1@@Z DD 019930522H
	DD	01H
	DD	FLAT:__unwindtable$??0?$_Tree_temp_node_alloc@V?$allocator@U?$_Tree_node@U?$pair@$$CBV?$basic_string@DU?$char_traits@D@std@@V?$allocator@D@2@@std@@M@std@@PAX@std@@@std@@@std@@QAE@AAV?$allocator@U?$_Tree_node@U?$pair@$$CBV?$basic_string@DU?$char_traits@D@std@@V?$allocator@D@2@@std@@M@std@@PAX@std@@@1@@Z
	DD	2 DUP(00H)
	DD	2 DUP(00H)
	DD	00H
	DD	01H
xdata$x	ENDS
;	COMDAT xdata$x
xdata$x	SEGMENT
__unwindtable$??$_Emplace@U?$pair@$$CBV?$basic_string@DU?$char_traits@D@std@@V?$allocator@D@2@@std@@M@std@@@?$_Tree@V?$_Tmap_traits@V?$basic_string@DU?$char_traits@D@std@@V?$allocator@D@2@@std@@MU?$less@V?$basic_string@DU?$char_traits@D@std@@V?$allocator@D@2@@std@@@2@V?$allocator@U?$pair@$$CBV?$basic_string@DU?$char_traits@D@std@@V?$allocator@D@2@@std@@M@std@@@2@$0A@@std@@@std@@IAE?AU?$pair@PAU?$_Tree_node@U?$pair@$$CBV?$basic_string@DU?$char_traits@D@std@@V?$allocator@D@2@@std@@M@std@@PAX@std@@_N@1@$$QAU?$pair@$$CBV?$basic_string@DU?$char_traits@D@std@@V?$allocator@D@2@@std@@M@1@@Z DD 0ffffffffH
	DD	FLAT:__unwindfunclet$??$_Emplace@U?$pair@$$CBV?$basic_string@DU?$char_traits@D@std@@V?$allocator@D@2@@std@@M@std@@@?$_Tree@V?$_Tmap_traits@V?$basic_string@DU?$char_traits@D@std@@V?$allocator@D@2@@std@@MU?$less@V?$basic_string@DU?$char_traits@D@std@@V?$allocator@D@2@@std@@@2@V?$allocator@U?$pair@$$CBV?$basic_string@DU?$char_traits@D@std@@V?$allocator@D@2@@std@@M@std@@@2@$0A@@std@@@std@@IAE?AU?$pair@PAU?$_Tree_node@U?$pair@$$CBV?$basic_string@DU?$char_traits@D@std@@V?$allocator@D@2@@std@@M@std@@PAX@std@@_N@1@$$QAU?$pair@$$CBV?$basic_string@DU?$char_traits@D@std@@V?$allocator@D@2@@std@@M@1@@Z$2
	DD	0ffffffffH
	DD	FLAT:__unwindfunclet$??$_Emplace@U?$pair@$$CBV?$basic_string@DU?$char_traits@D@std@@V?$allocator@D@2@@std@@M@std@@@?$_Tree@V?$_Tmap_traits@V?$basic_string@DU?$char_traits@D@std@@V?$allocator@D@2@@std@@MU?$less@V?$basic_string@DU?$char_traits@D@std@@V?$allocator@D@2@@std@@@2@V?$allocator@U?$pair@$$CBV?$basic_string@DU?$char_traits@D@std@@V?$allocator@D@2@@std@@M@std@@@2@$0A@@std@@@std@@IAE?AU?$pair@PAU?$_Tree_node@U?$pair@$$CBV?$basic_string@DU?$char_traits@D@std@@V?$allocator@D@2@@std@@M@std@@PAX@std@@_N@1@$$QAU?$pair@$$CBV?$basic_string@DU?$char_traits@D@std@@V?$allocator@D@2@@std@@M@1@@Z$1
__ehfuncinfo$??$_Emplace@U?$pair@$$CBV?$basic_string@DU?$char_traits@D@std@@V?$allocator@D@2@@std@@M@std@@@?$_Tree@V?$_Tmap_traits@V?$basic_string@DU?$char_traits@D@std@@V?$allocator@D@2@@std@@MU?$less@V?$basic_string@DU?$char_traits@D@std@@V?$allocator@D@2@@std@@@2@V?$allocator@U?$pair@$$CBV?$basic_string@DU?$char_traits@D@std@@V?$allocator@D@2@@std@@M@std@@@2@$0A@@std@@@std@@IAE?AU?$pair@PAU?$_Tree_node@U?$pair@$$CBV?$basic_string@DU?$char_traits@D@std@@V?$allocator@D@2@@std@@M@std@@PAX@std@@_N@1@$$QAU?$pair@$$CBV?$basic_string@DU?$char_traits@D@std@@V?$allocator@D@2@@std@@M@1@@Z DD 019930522H
	DD	02H
	DD	FLAT:__unwindtable$??$_Emplace@U?$pair@$$CBV?$basic_string@DU?$char_traits@D@std@@V?$allocator@D@2@@std@@M@std@@@?$_Tree@V?$_Tmap_traits@V?$basic_string@DU?$char_traits@D@std@@V?$allocator@D@2@@std@@MU?$less@V?$basic_string@DU?$char_traits@D@std@@V?$allocator@D@2@@std@@@2@V?$allocator@U?$pair@$$CBV?$basic_string@DU?$char_traits@D@std@@V?$allocator@D@2@@std@@M@std@@@2@$0A@@std@@@std@@IAE?AU?$pair@PAU?$_Tree_node@U?$pair@$$CBV?$basic_string@DU?$char_traits@D@std@@V?$allocator@D@2@@std@@M@std@@PAX@std@@_N@1@$$QAU?$pair@$$CBV?$basic_string@DU?$char_traits@D@std@@V?$allocator@D@2@@std@@M@1@@Z
	DD	2 DUP(00H)
	DD	2 DUP(00H)
	DD	00H
	DD	01H
xdata$x	ENDS
;	COMDAT xdata$x
xdata$x	SEGMENT
__unwindtable$?GetMusicIndex@CSoundManager@@IAEHPBDPAK@Z DD 0ffffffffH
	DD	FLAT:__unwindfunclet$?GetMusicIndex@CSoundManager@@IAEHPBDPAK@Z$0
__ehfuncinfo$?GetMusicIndex@CSoundManager@@IAEHPBDPAK@Z DD 019930522H
	DD	01H
	DD	FLAT:__unwindtable$?GetMusicIndex@CSoundManager@@IAEHPBDPAK@Z
	DD	2 DUP(00H)
	DD	2 DUP(00H)
	DD	00H
	DD	01H
xdata$x	ENDS
;	COMDAT xdata$x
xdata$x	SEGMENT
__unwindtable$?PlayMusic@CSoundManager@@IAEXKPBDMM@Z DD 0ffffffffH
	DD	FLAT:__unwindfunclet$?PlayMusic@CSoundManager@@IAEXKPBDMM@Z$0
__ehfuncinfo$?PlayMusic@CSoundManager@@IAEXKPBDMM@Z DD 019930522H
	DD	01H
	DD	FLAT:__unwindtable$?PlayMusic@CSoundManager@@IAEXKPBDMM@Z
	DD	2 DUP(00H)
	DD	2 DUP(00H)
	DD	00H
	DD	01H
xdata$x	ENDS
;	COMDAT xdata$x
xdata$x	SEGMENT
__unwindtable$?PlayCharacterSound3D@CSoundManager@@QAEXMMMPBDH@Z DD 0ffffffffH
	DD	FLAT:__unwindfunclet$?PlayCharacterSound3D@CSoundManager@@QAEXMMMPBDH@Z$2
__ehfuncinfo$?PlayCharacterSound3D@CSoundManager@@QAEXMMMPBDH@Z DD 019930522H
	DD	01H
	DD	FLAT:__unwindtable$?PlayCharacterSound3D@CSoundManager@@QAEXMMMPBDH@Z
	DD	2 DUP(00H)
	DD	2 DUP(00H)
	DD	00H
	DD	01H
xdata$x	ENDS
;	COMDAT xdata$x
xdata$x	SEGMENT
__unwindtable$??0CSoundManager@@QAE@XZ DD 0ffffffffH
	DD	FLAT:__unwindfunclet$??0CSoundManager@@QAE@XZ$0
__ehfuncinfo$??0CSoundManager@@QAE@XZ DD 019930522H
	DD	01H
	DD	FLAT:__unwindtable$??0CSoundManager@@QAE@XZ
	DD	2 DUP(00H)
	DD	2 DUP(00H)
	DD	00H
	DD	01H
xdata$x	ENDS
CRT$XCU	SEGMENT
??ms_SoundManager3D$initializer$@CSoundManager@@1P6AXXZA@@3P6AXXZA DD FLAT:??__E?ms_SoundManager3D@CSoundManager@@1VCSoundManager3D@@A@@YAXXZ ; ??ms_SoundManager3D$initializer$@CSoundManager@@1P6AXXZA@@3P6AXXZA
CRT$XCU	ENDS
CRT$XCU	SEGMENT
??ms_SoundManagerStream$initializer$@CSoundManager@@1P6AXXZA@@3P6AXXZA DD FLAT:??__E?ms_SoundManagerStream@CSoundManager@@1VCSoundManagerStream@@A@@YAXXZ ; ??ms_SoundManagerStream$initializer$@CSoundManager@@1P6AXXZA@@3P6AXXZA
CRT$XCU	ENDS
; Function compile flags: /Ogtp
; File C:\Program Files\Microsoft Visual Studio\2022\Community\VC\Tools\MSVC\14.34.31933\include\xmemory
;	COMDAT ??$_Allocate_manually_vector_aligned@U_Default_allocate_traits@std@@@std@@YAPAXI@Z
_TEXT	SEGMENT
__Bytes$ = 8						; size = 4
??$_Allocate_manually_vector_aligned@U_Default_allocate_traits@std@@@std@@YAPAXI@Z PROC ; std::_Allocate_manually_vector_aligned<std::_Default_allocate_traits>, COMDAT

; 127  : __declspec(allocator) void* _Allocate_manually_vector_aligned(const size_t _Bytes) {

  00000	55		 push	 ebp
  00001	8b ec		 mov	 ebp, esp

; 128  :     // allocate _Bytes manually aligned to at least _Big_allocation_alignment
; 129  :     const size_t _Block_size = _Non_user_size + _Bytes;

  00003	8b 45 08	 mov	 eax, DWORD PTR __Bytes$[ebp]
  00006	8d 48 23	 lea	 ecx, DWORD PTR [eax+35]

; 130  :     if (_Block_size <= _Bytes) {

  00009	3b c8		 cmp	 ecx, eax
  0000b	0f 86 00 00 00
	00		 jbe	 ?_Throw_bad_array_new_length@std@@YAXXZ ; std::_Throw_bad_array_new_length

; 77   :         return ::operator new(_Bytes);

  00011	51		 push	 ecx
  00012	e8 00 00 00 00	 call	 ??2@YAPAXI@Z		; operator new

; 131  :         _Throw_bad_array_new_length(); // add overflow
; 132  :     }
; 133  : 
; 134  :     const uintptr_t _Ptr_container = reinterpret_cast<uintptr_t>(_Traits::_Allocate(_Block_size));

  00017	8b c8		 mov	 ecx, eax

; 77   :         return ::operator new(_Bytes);

  00019	83 c4 04	 add	 esp, 4

; 135  :     _STL_VERIFY(_Ptr_container != 0, "invalid argument"); // validate even in release since we're doing p[-1]

  0001c	85 c9		 test	 ecx, ecx
  0001e	74 0b		 je	 SHORT $LN7@Allocate_m

; 136  :     void* const _Ptr = reinterpret_cast<void*>((_Ptr_container + _Non_user_size) & ~(_Big_allocation_alignment - 1));

  00020	8d 41 23	 lea	 eax, DWORD PTR [ecx+35]
  00023	83 e0 e0	 and	 eax, -32		; ffffffe0H

; 137  :     static_cast<uintptr_t*>(_Ptr)[-1] = _Ptr_container;

  00026	89 48 fc	 mov	 DWORD PTR [eax-4], ecx

; 138  : 
; 139  : #ifdef _DEBUG
; 140  :     static_cast<uintptr_t*>(_Ptr)[-2] = _Big_allocation_sentinel;
; 141  : #endif // _DEBUG
; 142  :     return _Ptr;
; 143  : }

  00029	5d		 pop	 ebp
  0002a	c3		 ret	 0
$LN7@Allocate_m:

; 135  :     _STL_VERIFY(_Ptr_container != 0, "invalid argument"); // validate even in release since we're doing p[-1]

  0002b	e9 00 00 00 00	 jmp	 __invalid_parameter_noinfo_noreturn
??$_Allocate_manually_vector_aligned@U_Default_allocate_traits@std@@@std@@YAPAXI@Z ENDP ; std::_Allocate_manually_vector_aligned<std::_Default_allocate_traits>
_TEXT	ENDS
; Function compile flags: /Ogtp
; File C:\Program Files\Microsoft Visual Studio\2022\Community\VC\Tools\MSVC\14.34.31933\include\xmemory
;	COMDAT ??1?$_Tree_temp_node_alloc@V?$allocator@U?$_Tree_node@U?$pair@$$CBV?$basic_string@DU?$char_traits@D@std@@V?$allocator@D@2@@std@@M@std@@PAX@std@@@std@@@std@@QAE@XZ
_TEXT	SEGMENT
??1?$_Tree_temp_node_alloc@V?$allocator@U?$_Tree_node@U?$pair@$$CBV?$basic_string@DU?$char_traits@D@std@@V?$allocator@D@2@@std@@M@std@@PAX@std@@@std@@@std@@QAE@XZ PROC ; std::_Tree_temp_node_alloc<std::allocator<std::_Tree_node<std::pair<std::basic_string<char,std::char_traits<char>,std::allocator<char> > const ,float>,void *> > >::~_Tree_temp_node_alloc<std::allocator<std::_Tree_node<std::pair<std::basic_string<char,std::char_traits<char>,std::allocator<char> > const ,float>,void *> > >, COMDAT
; _this$ = ecx

; 1017 :         if (_Ptr) {

  00000	8b 41 04	 mov	 eax, DWORD PTR [ecx+4]
  00003	85 c0		 test	 eax, eax
  00005	74 0b		 je	 SHORT $LN10@Tree_temp_

; 255  :         ::operator delete(_Ptr, _Bytes);

  00007	6a 2c		 push	 44			; 0000002cH
  00009	50		 push	 eax
  0000a	e8 00 00 00 00	 call	 ??3@YAXPAXI@Z		; operator delete
  0000f	83 c4 08	 add	 esp, 8
$LN10@Tree_temp_:
  00012	c3		 ret	 0
??1?$_Tree_temp_node_alloc@V?$allocator@U?$_Tree_node@U?$pair@$$CBV?$basic_string@DU?$char_traits@D@std@@V?$allocator@D@2@@std@@M@std@@PAX@std@@@std@@@std@@QAE@XZ ENDP ; std::_Tree_temp_node_alloc<std::allocator<std::_Tree_node<std::pair<std::basic_string<char,std::char_traits<char>,std::allocator<char> > const ,float>,void *> > >::~_Tree_temp_node_alloc<std::allocator<std::_Tree_node<std::pair<std::basic_string<char,std::char_traits<char>,std::allocator<char> > const ,float>,void *> > >
_TEXT	ENDS
; Function compile flags: /Ogtp
; File C:\Program Files\Microsoft Visual Studio\2022\Community\VC\Tools\MSVC\14.34.31933\include\xmemory
;	COMDAT ??1?$_Alloc_construct_ptr@V?$allocator@U?$_Tree_node@U?$pair@$$CBV?$basic_string@DU?$char_traits@D@std@@V?$allocator@D@2@@std@@M@std@@PAX@std@@@std@@@std@@QAE@XZ
_TEXT	SEGMENT
??1?$_Alloc_construct_ptr@V?$allocator@U?$_Tree_node@U?$pair@$$CBV?$basic_string@DU?$char_traits@D@std@@V?$allocator@D@2@@std@@M@std@@PAX@std@@@std@@@std@@QAE@XZ PROC ; std::_Alloc_construct_ptr<std::allocator<std::_Tree_node<std::pair<std::basic_string<char,std::char_traits<char>,std::allocator<char> > const ,float>,void *> > >::~_Alloc_construct_ptr<std::allocator<std::_Tree_node<std::pair<std::basic_string<char,std::char_traits<char>,std::allocator<char> > const ,float>,void *> > >, COMDAT
; _this$ = ecx

; 1017 :         if (_Ptr) {

  00000	8b 41 04	 mov	 eax, DWORD PTR [ecx+4]
  00003	85 c0		 test	 eax, eax
  00005	74 0b		 je	 SHORT $LN8@Alloc_cons

; 255  :         ::operator delete(_Ptr, _Bytes);

  00007	6a 2c		 push	 44			; 0000002cH
  00009	50		 push	 eax
  0000a	e8 00 00 00 00	 call	 ??3@YAXPAXI@Z		; operator delete
  0000f	83 c4 08	 add	 esp, 8
$LN8@Alloc_cons:

; 1018 :             _Al.deallocate(_Ptr, 1);
; 1019 :         }
; 1020 :     }

  00012	c3		 ret	 0
??1?$_Alloc_construct_ptr@V?$allocator@U?$_Tree_node@U?$pair@$$CBV?$basic_string@DU?$char_traits@D@std@@V?$allocator@D@2@@std@@M@std@@PAX@std@@@std@@@std@@QAE@XZ ENDP ; std::_Alloc_construct_ptr<std::allocator<std::_Tree_node<std::pair<std::basic_string<char,std::char_traits<char>,std::allocator<char> > const ,float>,void *> > >::~_Alloc_construct_ptr<std::allocator<std::_Tree_node<std::pair<std::basic_string<char,std::char_traits<char>,std::allocator<char> > const ,float>,void *> > >
_TEXT	ENDS
; Function compile flags: /Ogtp
; File C:\Program Files\Microsoft Visual Studio\2022\Community\VC\Tools\MSVC\14.34.31933\include\xtree
; File C:\Program Files\Microsoft Visual Studio\2022\Community\VC\Tools\MSVC\14.34.31933\include\xstddef
; File C:\Program Files\Microsoft Visual Studio\2022\Community\VC\Tools\MSVC\14.34.31933\include\xtree
;	COMDAT ??$_Find_lower_bound@V?$basic_string@DU?$char_traits@D@std@@V?$allocator@D@2@@std@@@?$_Tree@V?$_Tmap_traits@V?$basic_string@DU?$char_traits@D@std@@V?$allocator@D@2@@std@@MU?$less@V?$basic_string@DU?$char_traits@D@std@@V?$allocator@D@2@@std@@@2@V?$allocator@U?$pair@$$CBV?$basic_string@DU?$char_traits@D@std@@V?$allocator@D@2@@std@@M@std@@@2@$0A@@std@@@std@@IBE?AU?$_Tree_find_result@PAU?$_Tree_node@U?$pair@$$CBV?$basic_string@DU?$char_traits@D@std@@V?$allocator@D@2@@std@@M@std@@PAX@std@@@1@ABV?$basic_string@DU?$char_traits@D@std@@V?$allocator@D@2@@1@@Z
_TEXT	SEGMENT
___$ReturnUdt$ = 8					; size = 4
__Keyval$ = 12						; size = 4
??$_Find_lower_bound@V?$basic_string@DU?$char_traits@D@std@@V?$allocator@D@2@@std@@@?$_Tree@V?$_Tmap_traits@V?$basic_string@DU?$char_traits@D@std@@V?$allocator@D@2@@std@@MU?$less@V?$basic_string@DU?$char_traits@D@std@@V?$allocator@D@2@@std@@@2@V?$allocator@U?$pair@$$CBV?$basic_string@DU?$char_traits@D@std@@V?$allocator@D@2@@std@@M@std@@@2@$0A@@std@@@std@@IBE?AU?$_Tree_find_result@PAU?$_Tree_node@U?$pair@$$CBV?$basic_string@DU?$char_traits@D@std@@V?$allocator@D@2@@std@@M@std@@PAX@std@@@1@ABV?$basic_string@DU?$char_traits@D@std@@V?$allocator@D@2@@1@@Z PROC ; std::_Tree<std::_Tmap_traits<std::basic_string<char,std::char_traits<char>,std::allocator<char> >,float,std::less<std::basic_string<char,std::char_traits<char>,std::allocator<char> > >,std::allocator<std::pair<std::basic_string<char,std::char_traits<char>,std::allocator<char> > const ,float> >,0> >::_Find_lower_bound<std::basic_string<char,std::char_traits<char>,std::allocator<char> > >, COMDAT
; _this$ = ecx

; 1609 :     _Tree_find_result<_Nodeptr> _Find_lower_bound(const _Keyty& _Keyval) const {

  00000	55		 push	 ebp
  00001	8b ec		 mov	 ebp, esp

; 1610 :         const auto _Scary = _Get_scary();
; 1611 :         _Tree_find_result<_Nodeptr> _Result{{_Scary->_Myhead->_Parent, _Tree_child::_Right}, _Scary->_Myhead};

  00003	8b 01		 mov	 eax, DWORD PTR [ecx]
  00005	56		 push	 esi
  00006	57		 push	 edi
  00007	8b 7d 08	 mov	 edi, DWORD PTR ___$ReturnUdt$[ebp]
  0000a	8b 70 04	 mov	 esi, DWORD PTR [eax+4]
  0000d	89 37		 mov	 DWORD PTR [edi], esi

; 1612 :         _Nodeptr _Trynode = _Result._Location._Parent;
; 1613 :         while (!_Trynode->_Isnil) {

  0000f	80 7e 0d 00	 cmp	 BYTE PTR [esi+13], 0
  00013	c7 47 04 00 00
	00 00		 mov	 DWORD PTR [edi+4], 0
  0001a	89 47 08	 mov	 DWORD PTR [edi+8], eax
  0001d	75 32		 jne	 SHORT $LN12@Find_lower
  0001f	53		 push	 ebx
  00020	8b 5d 0c	 mov	 ebx, DWORD PTR __Keyval$[ebp]
$LL2@Find_lower:

; 1615 :             if (_DEBUG_LT_PRED(_Getcomp(), _Traits::_Kfn(_Trynode->_Myval), _Keyval)) {

  00023	8d 46 10	 lea	 eax, DWORD PTR [esi+16]
  00026	89 37		 mov	 DWORD PTR [edi], esi
; File C:\Program Files\Microsoft Visual Studio\2022\Community\VC\Tools\MSVC\14.34.31933\include\xstddef

; 143  :         return _Left < _Right;

  00028	53		 push	 ebx
  00029	50		 push	 eax
  0002a	e8 00 00 00 00	 call	 ??$?MDU?$char_traits@D@std@@V?$allocator@D@1@@std@@YA_NABV?$basic_string@DU?$char_traits@D@std@@V?$allocator@D@2@@0@0@Z ; std::operator<<char,std::char_traits<char>,std::allocator<char> >
  0002f	83 c4 08	 add	 esp, 8
; File C:\Program Files\Microsoft Visual Studio\2022\Community\VC\Tools\MSVC\14.34.31933\include\xtree

; 1615 :             if (_DEBUG_LT_PRED(_Getcomp(), _Traits::_Kfn(_Trynode->_Myval), _Keyval)) {

  00032	84 c0		 test	 al, al
  00034	74 07		 je	 SHORT $LN4@Find_lower

; 1616 :                 _Result._Location._Child = _Tree_child::_Right;
; 1617 :                 _Trynode                 = _Trynode->_Right;

  00036	8b 76 08	 mov	 esi, DWORD PTR [esi+8]
  00039	33 c0		 xor	 eax, eax

; 1618 :             } else {

  0003b	eb 0a		 jmp	 SHORT $LN5@Find_lower
$LN4@Find_lower:

; 1619 :                 _Result._Location._Child = _Tree_child::_Left;
; 1620 :                 _Result._Bound           = _Trynode;

  0003d	89 77 08	 mov	 DWORD PTR [edi+8], esi

; 1621 :                 _Trynode                 = _Trynode->_Left;

  00040	b8 01 00 00 00	 mov	 eax, 1
  00045	8b 36		 mov	 esi, DWORD PTR [esi]
$LN5@Find_lower:

; 1612 :         _Nodeptr _Trynode = _Result._Location._Parent;
; 1613 :         while (!_Trynode->_Isnil) {

  00047	89 47 04	 mov	 DWORD PTR [edi+4], eax
  0004a	80 7e 0d 00	 cmp	 BYTE PTR [esi+13], 0
  0004e	74 d3		 je	 SHORT $LL2@Find_lower

; 1622 :             }
; 1623 :         }
; 1624 : 
; 1625 :         return _Result;

  00050	5b		 pop	 ebx
$LN12@Find_lower:

; 1626 :     }

  00051	8b c7		 mov	 eax, edi
  00053	5f		 pop	 edi
  00054	5e		 pop	 esi
  00055	5d		 pop	 ebp
  00056	c2 08 00	 ret	 8
??$_Find_lower_bound@V?$basic_string@DU?$char_traits@D@std@@V?$allocator@D@2@@std@@@?$_Tree@V?$_Tmap_traits@V?$basic_string@DU?$char_traits@D@std@@V?$allocator@D@2@@std@@MU?$less@V?$basic_string@DU?$char_traits@D@std@@V?$allocator@D@2@@std@@@2@V?$allocator@U?$pair@$$CBV?$basic_string@DU?$char_traits@D@std@@V?$allocator@D@2@@std@@M@std@@@2@$0A@@std@@@std@@IBE?AU?$_Tree_find_result@PAU?$_Tree_node@U?$pair@$$CBV?$basic_string@DU?$char_traits@D@std@@V?$allocator@D@2@@std@@M@std@@PAX@std@@@1@ABV?$basic_string@DU?$char_traits@D@std@@V?$allocator@D@2@@1@@Z ENDP ; std::_Tree<std::_Tmap_traits<std::basic_string<char,std::char_traits<char>,std::allocator<char> >,float,std::less<std::basic_string<char,std::char_traits<char>,std::allocator<char> > >,std::allocator<std::pair<std::basic_string<char,std::char_traits<char>,std::allocator<char> > const ,float> >,0> >::_Find_lower_bound<std::basic_string<char,std::char_traits<char>,std::allocator<char> > >
_TEXT	ENDS
; Function compile flags: /Ogtp
; File C:\Program Files\Microsoft Visual Studio\2022\Community\VC\Tools\MSVC\14.34.31933\include\xtree
; File C:\Program Files\Microsoft Visual Studio\2022\Community\VC\Tools\MSVC\14.34.31933\include\xstddef
; File C:\Program Files\Microsoft Visual Studio\2022\Community\VC\Tools\MSVC\14.34.31933\include\xtree
; File C:\Program Files\Microsoft Visual Studio\2022\Community\VC\Tools\MSVC\14.34.31933\include\utility
; File C:\Program Files\Microsoft Visual Studio\2022\Community\VC\Tools\MSVC\14.34.31933\include\xtree
; File C:\Program Files\Microsoft Visual Studio\2022\Community\VC\Tools\MSVC\14.34.31933\include\xmemory
; File C:\Program Files\Microsoft Visual Studio\2022\Community\VC\Tools\MSVC\14.34.31933\include\xtree
; File C:\Program Files\Microsoft Visual Studio\2022\Community\VC\Tools\MSVC\14.34.31933\include\xmemory
; File C:\Program Files\Microsoft Visual Studio\2022\Community\VC\Tools\MSVC\14.34.31933\include\xtree
; File C:\Program Files\Microsoft Visual Studio\2022\Community\VC\Tools\MSVC\14.34.31933\include\xstring
; File C:\Program Files\Microsoft Visual Studio\2022\Community\VC\Tools\MSVC\14.34.31933\include\xmemory
; File C:\Program Files\Microsoft Visual Studio\2022\Community\VC\Tools\MSVC\14.34.31933\include\utility
; File C:\Program Files\Microsoft Visual Studio\2022\Community\VC\Tools\MSVC\14.34.31933\include\xstring
; File C:\Program Files\Microsoft Visual Studio\2022\Community\VC\Tools\MSVC\14.34.31933\include\xmemory
; File C:\Program Files\Microsoft Visual Studio\2022\Community\VC\Tools\MSVC\14.34.31933\include\xstring
; File C:\Program Files\Microsoft Visual Studio\2022\Community\VC\Tools\MSVC\14.34.31933\include\utility
; File C:\Program Files\Microsoft Visual Studio\2022\Community\VC\Tools\MSVC\14.34.31933\include\xtree
; File C:\Program Files\Microsoft Visual Studio\2022\Community\VC\Tools\MSVC\14.34.31933\include\utility
; File C:\Program Files\Microsoft Visual Studio\2022\Community\VC\Tools\MSVC\14.34.31933\include\xtree
; File C:\Program Files\Microsoft Visual Studio\2022\Community\VC\Tools\MSVC\14.34.31933\include\utility
; File C:\Program Files\Microsoft Visual Studio\2022\Community\VC\Tools\MSVC\14.34.31933\include\xtree
; File C:\Program Files\Microsoft Visual Studio\2022\Community\VC\Tools\MSVC\14.34.31933\include\utility
; File C:\Program Files\Microsoft Visual Studio\2022\Community\VC\Tools\MSVC\14.34.31933\include\xtree
; File C:\Program Files\Microsoft Visual Studio\2022\Community\VC\Tools\MSVC\14.34.31933\include\xstring
; File C:\Program Files\Microsoft Visual Studio\2022\Community\VC\Tools\MSVC\14.34.31933\include\xtree
;	COMDAT ??$_Emplace@U?$pair@$$CBV?$basic_string@DU?$char_traits@D@std@@V?$allocator@D@2@@std@@M@std@@@?$_Tree@V?$_Tmap_traits@V?$basic_string@DU?$char_traits@D@std@@V?$allocator@D@2@@std@@MU?$less@V?$basic_string@DU?$char_traits@D@std@@V?$allocator@D@2@@std@@@2@V?$allocator@U?$pair@$$CBV?$basic_string@DU?$char_traits@D@std@@V?$allocator@D@2@@std@@M@std@@@2@$0A@@std@@@std@@IAE?AU?$pair@PAU?$_Tree_node@U?$pair@$$CBV?$basic_string@DU?$char_traits@D@std@@V?$allocator@D@2@@std@@M@std@@PAX@std@@_N@1@$$QAU?$pair@$$CBV?$basic_string@DU?$char_traits@D@std@@V?$allocator@D@2@@std@@M@1@@Z
_TEXT	SEGMENT
__Loc$ = -56						; size = 12
$T2 = -44						; size = 12
$T3 = -40						; size = 8
__Myhead$1$ = -32					; size = 4
$T4 = -28						; size = 4
_this$1$ = -24						; size = 4
__Result$1$ = -20					; size = 4
$T5 = -16						; size = 4
__$EHRec$ = -12						; size = 12
___$ReturnUdt$ = 8					; size = 4
_<_Vals_0>$ = 12					; size = 4
??$_Emplace@U?$pair@$$CBV?$basic_string@DU?$char_traits@D@std@@V?$allocator@D@2@@std@@M@std@@@?$_Tree@V?$_Tmap_traits@V?$basic_string@DU?$char_traits@D@std@@V?$allocator@D@2@@std@@MU?$less@V?$basic_string@DU?$char_traits@D@std@@V?$allocator@D@2@@std@@@2@V?$allocator@U?$pair@$$CBV?$basic_string@DU?$char_traits@D@std@@V?$allocator@D@2@@std@@M@std@@@2@$0A@@std@@@std@@IAE?AU?$pair@PAU?$_Tree_node@U?$pair@$$CBV?$basic_string@DU?$char_traits@D@std@@V?$allocator@D@2@@std@@M@std@@PAX@std@@_N@1@$$QAU?$pair@$$CBV?$basic_string@DU?$char_traits@D@std@@V?$allocator@D@2@@std@@M@1@@Z PROC ; std::_Tree<std::_Tmap_traits<std::basic_string<char,std::char_traits<char>,std::allocator<char> >,float,std::less<std::basic_string<char,std::char_traits<char>,std::allocator<char> > >,std::allocator<std::pair<std::basic_string<char,std::char_traits<char>,std::allocator<char> > const ,float> >,0> >::_Emplace<std::pair<std::basic_string<char,std::char_traits<char>,std::allocator<char> > const ,float> >, COMDAT
; _this$ = ecx

; 994  :     pair<_Nodeptr, bool> _Emplace(_Valtys&&... _Vals) {

  00000	55		 push	 ebp
  00001	8b ec		 mov	 ebp, esp
  00003	6a ff		 push	 -1
  00005	68 00 00 00 00	 push	 __ehhandler$??$_Emplace@U?$pair@$$CBV?$basic_string@DU?$char_traits@D@std@@V?$allocator@D@2@@std@@M@std@@@?$_Tree@V?$_Tmap_traits@V?$basic_string@DU?$char_traits@D@std@@V?$allocator@D@2@@std@@MU?$less@V?$basic_string@DU?$char_traits@D@std@@V?$allocator@D@2@@std@@@2@V?$allocator@U?$pair@$$CBV?$basic_string@DU?$char_traits@D@std@@V?$allocator@D@2@@std@@M@std@@@2@$0A@@std@@@std@@IAE?AU?$pair@PAU?$_Tree_node@U?$pair@$$CBV?$basic_string@DU?$char_traits@D@std@@V?$allocator@D@2@@std@@M@std@@PAX@std@@_N@1@$$QAU?$pair@$$CBV?$basic_string@DU?$char_traits@D@std@@V?$allocator@D@2@@std@@M@1@@Z
  0000a	64 a1 00 00 00
	00		 mov	 eax, DWORD PTR fs:0
  00010	50		 push	 eax
  00011	83 ec 2c	 sub	 esp, 44			; 0000002cH
  00014	56		 push	 esi
  00015	57		 push	 edi
  00016	a1 00 00 00 00	 mov	 eax, DWORD PTR ___security_cookie
  0001b	33 c5		 xor	 eax, ebp
  0001d	50		 push	 eax
  0001e	8d 45 f4	 lea	 eax, DWORD PTR __$EHRec$[ebp]
  00021	64 a3 00 00 00
	00		 mov	 DWORD PTR fs:0, eax
  00027	89 4d e8	 mov	 DWORD PTR _this$1$[ebp], ecx

; 995  :         using _In_place_key_extractor = typename _Traits::template _In_place_key_extractor<_Remove_cvref_t<_Valtys>...>;
; 996  :         const auto _Scary             = _Get_scary();
; 997  :         _Tree_find_result<_Nodeptr> _Loc;
; 998  :         _Nodeptr _Inserted;
; 999  :         if constexpr (!_Multi && _In_place_key_extractor::_Extractable) {
; 1000 :             const auto& _Keyval = _In_place_key_extractor::_Extract(_Vals...);
; 1001 :             _Loc                = _Find_lower_bound(_Keyval);

  0002a	8b 75 0c	 mov	 esi, DWORD PTR _<_Vals_0>$[ebp]
  0002d	8d 45 d4	 lea	 eax, DWORD PTR $T2[ebp]
  00030	56		 push	 esi
  00031	50		 push	 eax
  00032	e8 00 00 00 00	 call	 ??$_Find_lower_bound@V?$basic_string@DU?$char_traits@D@std@@V?$allocator@D@2@@std@@@?$_Tree@V?$_Tmap_traits@V?$basic_string@DU?$char_traits@D@std@@V?$allocator@D@2@@std@@MU?$less@V?$basic_string@DU?$char_traits@D@std@@V?$allocator@D@2@@std@@@2@V?$allocator@U?$pair@$$CBV?$basic_string@DU?$char_traits@D@std@@V?$allocator@D@2@@std@@M@std@@@2@$0A@@std@@@std@@IBE?AU?$_Tree_find_result@PAU?$_Tree_node@U?$pair@$$CBV?$basic_string@DU?$char_traits@D@std@@V?$allocator@D@2@@std@@M@std@@PAX@std@@@1@ABV?$basic_string@DU?$char_traits@D@std@@V?$allocator@D@2@@1@@Z ; std::_Tree<std::_Tmap_traits<std::basic_string<char,std::char_traits<char>,std::allocator<char> >,float,std::less<std::basic_string<char,std::char_traits<char>,std::allocator<char> > >,std::allocator<std::pair<std::basic_string<char,std::char_traits<char>,std::allocator<char> > const ,float> >,0> >::_Find_lower_bound<std::basic_string<char,std::char_traits<char>,std::allocator<char> > >
  00037	8b 78 08	 mov	 edi, DWORD PTR [eax+8]
  0003a	f3 0f 7e 00	 movq	 xmm0, QWORD PTR [eax]
  0003e	66 0f d6 45 c8	 movq	 QWORD PTR __Loc$[ebp], xmm0

; 1605 :         return !_Bound->_Isnil && !_DEBUG_LT_PRED(_Getcomp(), _Keyval, _Traits::_Kfn(_Bound->_Myval));

  00043	80 7f 0d 00	 cmp	 BYTE PTR [edi+13], 0
  00047	75 2d		 jne	 SHORT $LN2@Emplace
  00049	8d 47 10	 lea	 eax, DWORD PTR [edi+16]
; File C:\Program Files\Microsoft Visual Studio\2022\Community\VC\Tools\MSVC\14.34.31933\include\xstddef

; 143  :         return _Left < _Right;

  0004c	50		 push	 eax
  0004d	56		 push	 esi
  0004e	e8 00 00 00 00	 call	 ??$?MDU?$char_traits@D@std@@V?$allocator@D@1@@std@@YA_NABV?$basic_string@DU?$char_traits@D@std@@V?$allocator@D@2@@0@0@Z ; std::operator<<char,std::char_traits<char>,std::allocator<char> >
  00053	83 c4 08	 add	 esp, 8
; File C:\Program Files\Microsoft Visual Studio\2022\Community\VC\Tools\MSVC\14.34.31933\include\xtree

; 1605 :         return !_Bound->_Isnil && !_DEBUG_LT_PRED(_Getcomp(), _Keyval, _Traits::_Kfn(_Bound->_Myval));

  00056	84 c0		 test	 al, al
  00058	75 1c		 jne	 SHORT $LN2@Emplace
; File C:\Program Files\Microsoft Visual Studio\2022\Community\VC\Tools\MSVC\14.34.31933\include\utility

; 172  :         : first(_STD forward<_Other1>(_Val1)), second(_STD forward<_Other2>(_Val2)) {

  0005a	8b 45 08	 mov	 eax, DWORD PTR ___$ReturnUdt$[ebp]
  0005d	89 38		 mov	 DWORD PTR [eax], edi
  0005f	c6 40 04 00	 mov	 BYTE PTR [eax+4], 0
; File C:\Program Files\Microsoft Visual Studio\2022\Community\VC\Tools\MSVC\14.34.31933\include\xtree

; 1027 :     }

  00063	8b 4d f4	 mov	 ecx, DWORD PTR __$EHRec$[ebp]
  00066	64 89 0d 00 00
	00 00		 mov	 DWORD PTR fs:0, ecx
  0006d	59		 pop	 ecx
  0006e	5f		 pop	 edi
  0006f	5e		 pop	 esi
  00070	8b e5		 mov	 esp, ebp
  00072	5d		 pop	 ebp
  00073	c2 08 00	 ret	 8
$LN2@Emplace:

; 1629 :         if (max_size() == _Get_scary()->_Mysize) {

  00076	8b 45 e8	 mov	 eax, DWORD PTR _this$1$[ebp]
  00079	81 78 04 5d 74
	d1 05		 cmp	 DWORD PTR [eax+4], 97612893 ; 05d1745dH
  00080	0f 84 41 01 00
	00		 je	 $LN132@Emplace

; 1002 :             if (_Lower_bound_duplicate(_Loc._Bound, _Keyval)) {
; 1003 :                 return {_Loc._Bound, false};
; 1004 :             }
; 1005 : 
; 1006 :             _Check_grow_by_1();
; 1007 :             _Inserted = _Tree_temp_node<_Alnode>(_Getal(), _Scary->_Myhead, _STD forward<_Valtys>(_Vals)...)._Release();

  00086	8b 08		 mov	 ecx, DWORD PTR [eax]
  00088	89 4d e0	 mov	 DWORD PTR __Myhead$1$[ebp], ecx
; File C:\Program Files\Microsoft Visual Studio\2022\Community\VC\Tools\MSVC\14.34.31933\include\xmemory

; 1005 :     _CONSTEXPR20 explicit _Alloc_construct_ptr(_Alloc& _Al_) : _Al(_Al_), _Ptr(nullptr) {}

  0008b	89 45 d8	 mov	 DWORD PTR $T3[ebp], eax

; 77   :         return ::operator new(_Bytes);

  0008e	6a 2c		 push	 44			; 0000002cH
; File C:\Program Files\Microsoft Visual Studio\2022\Community\VC\Tools\MSVC\14.34.31933\include\xtree

; 785  :     explicit _Tree_temp_node_alloc(_Alnode& _Al_) : _Alloc_construct_ptr<_Alnode>(_Al_) {

  00090	c7 45 fc 00 00
	00 00		 mov	 DWORD PTR __$EHRec$[ebp+8], 0
; File C:\Program Files\Microsoft Visual Studio\2022\Community\VC\Tools\MSVC\14.34.31933\include\xmemory

; 1012 :         _Ptr = nullptr; // if allocate throws, prevents double-free

  00097	c7 45 dc 00 00
	00 00		 mov	 DWORD PTR $T3[ebp+4], 0

; 77   :         return ::operator new(_Bytes);

  0009e	e8 00 00 00 00	 call	 ??2@YAPAXI@Z		; operator new
  000a3	83 c4 04	 add	 esp, 4

; 235  :         return _Traits::_Allocate(_Bytes);

  000a6	89 45 e4	 mov	 DWORD PTR $T4[ebp], eax

; 1013 :         _Ptr = _Al.allocate(1);

  000a9	89 45 dc	 mov	 DWORD PTR $T3[ebp+4], eax
; File C:\Program Files\Microsoft Visual Studio\2022\Community\VC\Tools\MSVC\14.34.31933\include\xtree

; 807  :         _Alnode_traits::construct(this->_Al, _STD addressof(this->_Ptr->_Myval), _STD forward<_Valtys>(_Vals)...);

  000ac	8d 78 10	 lea	 edi, DWORD PTR [eax+16]
  000af	c7 45 fc 01 00
	00 00		 mov	 DWORD PTR __$EHRec$[ebp+8], 1
  000b6	0f 57 c0	 xorps	 xmm0, xmm0
; File C:\Program Files\Microsoft Visual Studio\2022\Community\VC\Tools\MSVC\14.34.31933\include\xstring

; 2292 :         const value_type* _Result = _Bx._Buf;

  000b9	89 75 ec	 mov	 DWORD PTR __Result$1$[ebp], esi

; 2341 :         _CONSTEXPR20 _Bxty() noexcept : _Buf() {} // user-provided, for fancy pointers

  000bc	0f 11 07	 movups	 XMMWORD PTR [edi], xmm0

; 2349 :     size_type _Mysize = 0; // current length of string

  000bf	c7 47 10 00 00
	00 00		 mov	 DWORD PTR [edi+16], 0

; 2292 :         const value_type* _Result = _Bx._Buf;

  000c6	8b ce		 mov	 ecx, esi

; 2350 :     size_type _Myres  = 0; // current storage reserved for string

  000c8	c7 47 14 00 00
	00 00		 mov	 DWORD PTR [edi+20], 0

; 2301 :         return _BUF_SIZE <= _Myres;

  000cf	83 7e 14 10	 cmp	 DWORD PTR [esi+20], 16	; 00000010H

; 2627 :         _Construct<_Construct_strategy::_From_string>(_Right._Mypair._Myval2._Myptr(), _Right._Mypair._Myval2._Mysize);

  000d3	8b 46 10	 mov	 eax, DWORD PTR [esi+16]
  000d6	89 45 f0	 mov	 DWORD PTR $T5[ebp], eax

; 2293 :         if (_Large_string_engaged()) {

  000d9	72 05		 jb	 SHORT $LN58@Emplace

; 2294 :             _Result = _Unfancy(_Bx._Ptr);

  000db	8b 0e		 mov	 ecx, DWORD PTR [esi]
  000dd	89 4d ec	 mov	 DWORD PTR __Result$1$[ebp], ecx
$LN58@Emplace:

; 2740 :         if (_Count > max_size()) {

  000e0	3d ff ff ff 7f	 cmp	 eax, 2147483647		; 7fffffffH
  000e5	0f 87 e1 00 00
	00		 ja	 $LN133@Emplace

; 2742 :         }
; 2743 : 
; 2744 :         auto& _Al       = _Getal();
; 2745 :         auto&& _Alproxy = _GET_PROXY_ALLOCATOR(_Alty, _Al);
; 2746 :         _Container_proxy_ptr<_Alty> _Proxy(_Alproxy, _My_data);
; 2747 : 
; 2748 :         if (_Count < _BUF_SIZE) {

  000eb	c7 47 14 0f 00
	00 00		 mov	 DWORD PTR [edi+20], 15	; 0000000fH
  000f2	83 f8 10	 cmp	 eax, 16			; 00000010H
  000f5	73 0e		 jae	 SHORT $LN64@Emplace

; 117  :         _CSTD memmove(_First1, _First2, _Count * sizeof(_Elem));

  000f7	6a 10		 push	 16			; 00000010H
  000f9	51		 push	 ecx
  000fa	57		 push	 edi

; 2749 :             _My_data._Mysize = _Count;

  000fb	89 47 10	 mov	 DWORD PTR [edi+16], eax

; 117  :         _CSTD memmove(_First1, _First2, _Count * sizeof(_Elem));

  000fe	e8 00 00 00 00	 call	 _memmove

; 2767 :             return;

  00103	eb 78		 jmp	 SHORT $LN130@Emplace
$LN64@Emplace:

; 4883 :         const size_type _Masked = _Requested | _ALLOC_MASK;

  00105	8b f0		 mov	 esi, eax
  00107	83 ce 0f	 or	 esi, 15			; 0000000fH
  0010a	81 fe ff ff ff
	7f		 cmp	 esi, 2147483647		; 7fffffffH

; 4884 :         if (_Masked > _Max) { // the mask overflows, settle for max_size()

  00110	76 1a		 jbe	 SHORT $LN71@Emplace

; 4885 :             return _Max;

  00112	b9 00 00 00 80	 mov	 ecx, -2147483648	; 80000000H
  00117	be ff ff ff 7f	 mov	 esi, 2147483647		; 7fffffffH
; File C:\Program Files\Microsoft Visual Studio\2022\Community\VC\Tools\MSVC\14.34.31933\include\xmemory

; 229  :             return _Allocate_manually_vector_aligned<_Traits>(_Bytes);

  0011c	51		 push	 ecx
  0011d	e8 00 00 00 00	 call	 ??$_Allocate_manually_vector_aligned@U_Default_allocate_traits@std@@@std@@YAPAXI@Z ; std::_Allocate_manually_vector_aligned<std::_Default_allocate_traits>
  00122	8b c8		 mov	 ecx, eax
  00124	83 c4 04	 add	 esp, 4
  00127	8b 45 f0	 mov	 eax, DWORD PTR $T5[ebp]
  0012a	eb 3b		 jmp	 SHORT $LN78@Emplace
$LN71@Emplace:
; File C:\Program Files\Microsoft Visual Studio\2022\Community\VC\Tools\MSVC\14.34.31933\include\utility

; 43   :     return _Left < _Right ? _Right : _Left;

  0012c	b9 16 00 00 00	 mov	 ecx, 22			; 00000016H
  00131	3b f1		 cmp	 esi, ecx
  00133	0f 42 f1	 cmovb	 esi, ecx
; File C:\Program Files\Microsoft Visual Studio\2022\Community\VC\Tools\MSVC\14.34.31933\include\xstring

; 2772 :         const pointer _New_ptr        = _Al.allocate(_New_capacity + 1); // throws

  00136	8d 4e 01	 lea	 ecx, DWORD PTR [esi+1]
; File C:\Program Files\Microsoft Visual Studio\2022\Community\VC\Tools\MSVC\14.34.31933\include\xmemory

; 228  :         if (_Bytes >= _Big_allocation_threshold) { // boost the alignment of big allocations to help autovectorization

  00139	81 f9 00 10 00
	00		 cmp	 ecx, 4096		; 00001000H
  0013f	72 10		 jb	 SHORT $LN79@Emplace

; 229  :             return _Allocate_manually_vector_aligned<_Traits>(_Bytes);

  00141	51		 push	 ecx
  00142	e8 00 00 00 00	 call	 ??$_Allocate_manually_vector_aligned@U_Default_allocate_traits@std@@@std@@YAPAXI@Z ; std::_Allocate_manually_vector_aligned<std::_Default_allocate_traits>
  00147	8b c8		 mov	 ecx, eax
  00149	83 c4 04	 add	 esp, 4
  0014c	8b 45 f0	 mov	 eax, DWORD PTR $T5[ebp]
  0014f	eb 16		 jmp	 SHORT $LN78@Emplace
$LN79@Emplace:

; 230  :         }
; 231  :     }
; 232  : #endif // defined(_M_IX86) || defined(_M_X64)
; 233  : 
; 234  :     if (_Bytes != 0) {

  00151	85 c9		 test	 ecx, ecx
  00153	74 10		 je	 SHORT $LN80@Emplace

; 77   :         return ::operator new(_Bytes);

  00155	51		 push	 ecx
  00156	e8 00 00 00 00	 call	 ??2@YAPAXI@Z		; operator new

; 235  :         return _Traits::_Allocate(_Bytes);

  0015b	8b c8		 mov	 ecx, eax

; 77   :         return ::operator new(_Bytes);

  0015d	83 c4 04	 add	 esp, 4

; 235  :         return _Traits::_Allocate(_Bytes);

  00160	8b 45 f0	 mov	 eax, DWORD PTR $T5[ebp]
  00163	eb 02		 jmp	 SHORT $LN78@Emplace
$LN80@Emplace:

; 236  :     }
; 237  : 
; 238  :     return nullptr;

  00165	33 c9		 xor	 ecx, ecx
$LN78@Emplace:
; File C:\Program Files\Microsoft Visual Studio\2022\Community\VC\Tools\MSVC\14.34.31933\include\xstring

; 2781 :         _My_data._Mysize = _Count;

  00167	89 47 10	 mov	 DWORD PTR [edi+16], eax

; 2783 :         if constexpr (_Strat == _Construct_strategy::_From_char) {
; 2784 :             _Traits::assign(_Unfancy(_New_ptr), _Count, _Arg);
; 2785 :             _Traits::assign(_Unfancy(_New_ptr)[_Count], _Elem());
; 2786 :         } else if constexpr (_Strat == _Construct_strategy::_From_ptr) {
; 2787 :             _Traits::copy(_Unfancy(_New_ptr), _Arg, _Count);
; 2788 :             _Traits::assign(_Unfancy(_New_ptr)[_Count], _Elem());
; 2789 :         } else { // _Strat == _Construct_strategy::_From_string
; 2790 :             _Traits::copy(_Unfancy(_New_ptr), _Arg, _Count + 1);

  0016a	40		 inc	 eax

; 64   :         _CSTD memcpy(_First1, _First2, _Count * sizeof(_Elem));

  0016b	50		 push	 eax
  0016c	ff 75 ec	 push	 DWORD PTR __Result$1$[ebp]

; 2773 :         _Construct_in_place(_My_data._Bx._Ptr, _New_ptr);

  0016f	89 0f		 mov	 DWORD PTR [edi], ecx

; 64   :         _CSTD memcpy(_First1, _First2, _Count * sizeof(_Elem));

  00171	51		 push	 ecx

; 2782 :         _My_data._Myres  = _New_capacity;

  00172	89 77 14	 mov	 DWORD PTR [edi+20], esi

; 64   :         _CSTD memcpy(_First1, _First2, _Count * sizeof(_Elem));

  00175	e8 00 00 00 00	 call	 _memcpy
  0017a	8b 75 0c	 mov	 esi, DWORD PTR _<_Vals_0>$[ebp]
$LN130@Emplace:
; File C:\Program Files\Microsoft Visual Studio\2022\Community\VC\Tools\MSVC\14.34.31933\include\utility

; 176  :     pair(pair&&)      = default;

  0017d	8b 46 18	 mov	 eax, DWORD PTR [esi+24]
  00180	83 c4 0c	 add	 esp, 12			; 0000000cH
; File C:\Program Files\Microsoft Visual Studio\2022\Community\VC\Tools\MSVC\14.34.31933\include\xtree

; 808  :         _Construct_in_place(this->_Ptr->_Left, _Myhead);

  00183	8b 4d e0	 mov	 ecx, DWORD PTR __Myhead$1$[ebp]
; File C:\Program Files\Microsoft Visual Studio\2022\Community\VC\Tools\MSVC\14.34.31933\include\utility

; 176  :     pair(pair&&)      = default;

  00186	89 47 18	 mov	 DWORD PTR [edi+24], eax
; File C:\Program Files\Microsoft Visual Studio\2022\Community\VC\Tools\MSVC\14.34.31933\include\xtree

; 808  :         _Construct_in_place(this->_Ptr->_Left, _Myhead);

  00189	8b 45 e4	 mov	 eax, DWORD PTR $T4[ebp]

; 1026 :         return {_Scary->_Insert_node(_Loc._Location, _Inserted), true};

  0018c	50		 push	 eax
  0018d	ff 75 cc	 push	 DWORD PTR __Loc$[ebp+4]
  00190	ff 75 c8	 push	 DWORD PTR __Loc$[ebp]

; 808  :         _Construct_in_place(this->_Ptr->_Left, _Myhead);

  00193	89 08		 mov	 DWORD PTR [eax], ecx

; 809  :         _Construct_in_place(this->_Ptr->_Parent, _Myhead);

  00195	89 48 04	 mov	 DWORD PTR [eax+4], ecx

; 810  :         _Construct_in_place(this->_Ptr->_Right, _Myhead);

  00198	89 48 08	 mov	 DWORD PTR [eax+8], ecx

; 1026 :         return {_Scary->_Insert_node(_Loc._Location, _Inserted), true};

  0019b	8b 4d e8	 mov	 ecx, DWORD PTR _this$1$[ebp]

; 811  :         this->_Ptr->_Color = _Red;

  0019e	66 c7 40 0c 00
	00		 mov	 WORD PTR [eax+12], 0

; 1026 :         return {_Scary->_Insert_node(_Loc._Location, _Inserted), true};

  001a4	e8 00 00 00 00	 call	 ?_Insert_node@?$_Tree_val@U?$_Tree_simple_types@U?$pair@$$CBV?$basic_string@DU?$char_traits@D@std@@V?$allocator@D@2@@std@@M@std@@@std@@@std@@QAEPAU?$_Tree_node@U?$pair@$$CBV?$basic_string@DU?$char_traits@D@std@@V?$allocator@D@2@@std@@M@std@@PAX@2@U?$_Tree_id@PAU?$_Tree_node@U?$pair@$$CBV?$basic_string@DU?$char_traits@D@std@@V?$allocator@D@2@@std@@M@std@@PAX@std@@@2@QAU32@@Z ; std::_Tree_val<std::_Tree_simple_types<std::pair<std::basic_string<char,std::char_traits<char>,std::allocator<char> > const ,float> > >::_Insert_node
; File C:\Program Files\Microsoft Visual Studio\2022\Community\VC\Tools\MSVC\14.34.31933\include\utility

; 172  :         : first(_STD forward<_Other1>(_Val1)), second(_STD forward<_Other2>(_Val2)) {

  001a9	8b 4d 08	 mov	 ecx, DWORD PTR ___$ReturnUdt$[ebp]
  001ac	89 01		 mov	 DWORD PTR [ecx], eax
; File C:\Program Files\Microsoft Visual Studio\2022\Community\VC\Tools\MSVC\14.34.31933\include\xtree

; 1026 :         return {_Scary->_Insert_node(_Loc._Location, _Inserted), true};

  001ae	8b c1		 mov	 eax, ecx
; File C:\Program Files\Microsoft Visual Studio\2022\Community\VC\Tools\MSVC\14.34.31933\include\utility

; 172  :         : first(_STD forward<_Other1>(_Val1)), second(_STD forward<_Other2>(_Val2)) {

  001b0	c6 41 04 01	 mov	 BYTE PTR [ecx+4], 1
; File C:\Program Files\Microsoft Visual Studio\2022\Community\VC\Tools\MSVC\14.34.31933\include\xtree

; 1027 :     }

  001b4	8b 4d f4	 mov	 ecx, DWORD PTR __$EHRec$[ebp]
  001b7	64 89 0d 00 00
	00 00		 mov	 DWORD PTR fs:0, ecx
  001be	59		 pop	 ecx
  001bf	5f		 pop	 edi
  001c0	5e		 pop	 esi
  001c1	8b e5		 mov	 esp, ebp
  001c3	5d		 pop	 ebp
  001c4	c2 08 00	 ret	 8
$LN132@Emplace:

; 1630 :             _Throw_tree_length_error();

  001c7	e8 00 00 00 00	 call	 ?_Throw_tree_length_error@std@@YAXXZ ; std::_Throw_tree_length_error
$LN133@Emplace:
; File C:\Program Files\Microsoft Visual Studio\2022\Community\VC\Tools\MSVC\14.34.31933\include\xstring

; 2741 :             _Xlen_string(); // result too long

  001cc	e8 00 00 00 00	 call	 ?_Xlen_string@std@@YAXXZ ; std::_Xlen_string
$LN129@Emplace:
  001d1	cc		 int	 3
_TEXT	ENDS
;	COMDAT text$x
text$x	SEGMENT
__unwindfunclet$??$_Emplace@U?$pair@$$CBV?$basic_string@DU?$char_traits@D@std@@V?$allocator@D@2@@std@@M@std@@@?$_Tree@V?$_Tmap_traits@V?$basic_string@DU?$char_traits@D@std@@V?$allocator@D@2@@std@@MU?$less@V?$basic_string@DU?$char_traits@D@std@@V?$allocator@D@2@@std@@@2@V?$allocator@U?$pair@$$CBV?$basic_string@DU?$char_traits@D@std@@V?$allocator@D@2@@std@@M@std@@@2@$0A@@std@@@std@@IAE?AU?$pair@PAU?$_Tree_node@U?$pair@$$CBV?$basic_string@DU?$char_traits@D@std@@V?$allocator@D@2@@std@@M@std@@PAX@std@@_N@1@$$QAU?$pair@$$CBV?$basic_string@DU?$char_traits@D@std@@V?$allocator@D@2@@std@@M@1@@Z$2:
  00000	8d 4d d8	 lea	 ecx, DWORD PTR $T3[ebp]
  00003	e9 00 00 00 00	 jmp	 ??1?$_Alloc_construct_ptr@V?$allocator@U?$_Tree_node@U?$pair@$$CBV?$basic_string@DU?$char_traits@D@std@@V?$allocator@D@2@@std@@M@std@@PAX@std@@@std@@@std@@QAE@XZ ; std::_Alloc_construct_ptr<std::allocator<std::_Tree_node<std::pair<std::basic_string<char,std::char_traits<char>,std::allocator<char> > const ,float>,void *> > >::~_Alloc_construct_ptr<std::allocator<std::_Tree_node<std::pair<std::basic_string<char,std::char_traits<char>,std::allocator<char> > const ,float>,void *> > >
__unwindfunclet$??$_Emplace@U?$pair@$$CBV?$basic_string@DU?$char_traits@D@std@@V?$allocator@D@2@@std@@M@std@@@?$_Tree@V?$_Tmap_traits@V?$basic_string@DU?$char_traits@D@std@@V?$allocator@D@2@@std@@MU?$less@V?$basic_string@DU?$char_traits@D@std@@V?$allocator@D@2@@std@@@2@V?$allocator@U?$pair@$$CBV?$basic_string@DU?$char_traits@D@std@@V?$allocator@D@2@@std@@M@std@@@2@$0A@@std@@@std@@IAE?AU?$pair@PAU?$_Tree_node@U?$pair@$$CBV?$basic_string@DU?$char_traits@D@std@@V?$allocator@D@2@@std@@M@std@@PAX@std@@_N@1@$$QAU?$pair@$$CBV?$basic_string@DU?$char_traits@D@std@@V?$allocator@D@2@@std@@M@1@@Z$1:
  00008	8d 4d d8	 lea	 ecx, DWORD PTR $T3[ebp]
  0000b	e9 00 00 00 00	 jmp	 ??1?$_Tree_temp_node_alloc@V?$allocator@U?$_Tree_node@U?$pair@$$CBV?$basic_string@DU?$char_traits@D@std@@V?$allocator@D@2@@std@@M@std@@PAX@std@@@std@@@std@@QAE@XZ
  00010	cc		 int	 3
  00011	cc		 int	 3
  00012	cc		 int	 3
  00013	cc		 int	 3
  00014	cc		 int	 3
__ehhandler$??$_Emplace@U?$pair@$$CBV?$basic_string@DU?$char_traits@D@std@@V?$allocator@D@2@@std@@M@std@@@?$_Tree@V?$_Tmap_traits@V?$basic_string@DU?$char_traits@D@std@@V?$allocator@D@2@@std@@MU?$less@V?$basic_string@DU?$char_traits@D@std@@V?$allocator@D@2@@std@@@2@V?$allocator@U?$pair@$$CBV?$basic_string@DU?$char_traits@D@std@@V?$allocator@D@2@@std@@M@std@@@2@$0A@@std@@@std@@IAE?AU?$pair@PAU?$_Tree_node@U?$pair@$$CBV?$basic_string@DU?$char_traits@D@std@@V?$allocator@D@2@@std@@M@std@@PAX@std@@_N@1@$$QAU?$pair@$$CBV?$basic_string@DU?$char_traits@D@std@@V?$allocator@D@2@@std@@M@1@@Z:
  00015	90		 npad	 1
  00016	90		 npad	 1
  00017	8b 54 24 08	 mov	 edx, DWORD PTR [esp+8]
  0001b	8d 42 0c	 lea	 eax, DWORD PTR [edx+12]
  0001e	8b 4a c8	 mov	 ecx, DWORD PTR [edx-56]
  00021	33 c8		 xor	 ecx, eax
  00023	e8 00 00 00 00	 call	 @__security_check_cookie@4
  00028	b8 00 00 00 00	 mov	 eax, OFFSET __ehfuncinfo$??$_Emplace@U?$pair@$$CBV?$basic_string@DU?$char_traits@D@std@@V?$allocator@D@2@@std@@M@std@@@?$_Tree@V?$_Tmap_traits@V?$basic_string@DU?$char_traits@D@std@@V?$allocator@D@2@@std@@MU?$less@V?$basic_string@DU?$char_traits@D@std@@V?$allocator@D@2@@std@@@2@V?$allocator@U?$pair@$$CBV?$basic_string@DU?$char_traits@D@std@@V?$allocator@D@2@@std@@M@std@@@2@$0A@@std@@@std@@IAE?AU?$pair@PAU?$_Tree_node@U?$pair@$$CBV?$basic_string@DU?$char_traits@D@std@@V?$allocator@D@2@@std@@M@std@@PAX@std@@_N@1@$$QAU?$pair@$$CBV?$basic_string@DU?$char_traits@D@std@@V?$allocator@D@2@@std@@M@1@@Z
  0002d	e9 00 00 00 00	 jmp	 ___CxxFrameHandler3
text$x	ENDS
??$_Emplace@U?$pair@$$CBV?$basic_string@DU?$char_traits@D@std@@V?$allocator@D@2@@std@@M@std@@@?$_Tree@V?$_Tmap_traits@V?$basic_string@DU?$char_traits@D@std@@V?$allocator@D@2@@std@@MU?$less@V?$basic_string@DU?$char_traits@D@std@@V?$allocator@D@2@@std@@@2@V?$allocator@U?$pair@$$CBV?$basic_string@DU?$char_traits@D@std@@V?$allocator@D@2@@std@@M@std@@@2@$0A@@std@@@std@@IAE?AU?$pair@PAU?$_Tree_node@U?$pair@$$CBV?$basic_string@DU?$char_traits@D@std@@V?$allocator@D@2@@std@@M@std@@PAX@std@@_N@1@$$QAU?$pair@$$CBV?$basic_string@DU?$char_traits@D@std@@V?$allocator@D@2@@std@@M@1@@Z ENDP ; std::_Tree<std::_Tmap_traits<std::basic_string<char,std::char_traits<char>,std::allocator<char> >,float,std::less<std::basic_string<char,std::char_traits<char>,std::allocator<char> > >,std::allocator<std::pair<std::basic_string<char,std::char_traits<char>,std::allocator<char> > const ,float> >,0> >::_Emplace<std::pair<std::basic_string<char,std::char_traits<char>,std::allocator<char> > const ,float> >
; Function compile flags: /Ogtp
; File C:\Program Files\Microsoft Visual Studio\2022\Community\VC\Tools\MSVC\14.34.31933\include\xtree
; File C:\Program Files\Microsoft Visual Studio\2022\Community\VC\Tools\MSVC\14.34.31933\include\xstring
; File C:\Program Files\Microsoft Visual Studio\2022\Community\VC\Tools\MSVC\14.34.31933\include\xmemory
; File C:\Program Files\Microsoft Visual Studio\2022\Community\VC\Tools\MSVC\14.34.31933\include\xstring
; File C:\Program Files\Microsoft Visual Studio\2022\Community\VC\Tools\MSVC\14.34.31933\include\xmemory
; File C:\Program Files\Microsoft Visual Studio\2022\Community\VC\Tools\MSVC\14.34.31933\include\xstring
; File C:\Program Files\Microsoft Visual Studio\2022\Community\VC\Tools\MSVC\14.34.31933\include\xmemory
; File C:\Program Files\Microsoft Visual Studio\2022\Community\VC\Tools\MSVC\14.34.31933\include\xtree
; File C:\Program Files\Microsoft Visual Studio\2022\Community\VC\Tools\MSVC\14.34.31933\include\xmemory
; File C:\Program Files\Microsoft Visual Studio\2022\Community\VC\Tools\MSVC\14.34.31933\include\xtree
;	COMDAT ??$_Freenode@V?$allocator@U?$_Tree_node@U?$pair@$$CBV?$basic_string@DU?$char_traits@D@std@@V?$allocator@D@2@@std@@M@std@@PAX@std@@@std@@@?$_Tree_node@U?$pair@$$CBV?$basic_string@DU?$char_traits@D@std@@V?$allocator@D@2@@std@@M@std@@PAX@std@@SAXAAV?$allocator@U?$_Tree_node@U?$pair@$$CBV?$basic_string@DU?$char_traits@D@std@@V?$allocator@D@2@@std@@M@std@@PAX@std@@@1@PAU01@@Z
_TEXT	SEGMENT
__Al$ = 8						; size = 4
__Ptr$ = 12						; size = 4
??$_Freenode@V?$allocator@U?$_Tree_node@U?$pair@$$CBV?$basic_string@DU?$char_traits@D@std@@V?$allocator@D@2@@std@@M@std@@PAX@std@@@std@@@?$_Tree_node@U?$pair@$$CBV?$basic_string@DU?$char_traits@D@std@@V?$allocator@D@2@@std@@M@std@@PAX@std@@SAXAAV?$allocator@U?$_Tree_node@U?$pair@$$CBV?$basic_string@DU?$char_traits@D@std@@V?$allocator@D@2@@std@@M@std@@PAX@std@@@1@PAU01@@Z PROC ; std::_Tree_node<std::pair<std::basic_string<char,std::char_traits<char>,std::allocator<char> > const ,float>,void *>::_Freenode<std::allocator<std::_Tree_node<std::pair<std::basic_string<char,std::char_traits<char>,std::allocator<char> > const ,float>,void *> > >, COMDAT

; 380  :     static void _Freenode(_Alloc& _Al, _Nodeptr _Ptr) noexcept {

  00000	55		 push	 ebp
  00001	8b ec		 mov	 ebp, esp
  00003	56		 push	 esi

; 381  :         static_assert(is_same_v<typename _Alloc::value_type, _Tree_node>, "Bad _Freenode call");
; 382  :         allocator_traits<_Alloc>::destroy(_Al, _STD addressof(_Ptr->_Myval));

  00004	8b 75 0c	 mov	 esi, DWORD PTR __Ptr$[ebp]
; File C:\Program Files\Microsoft Visual Studio\2022\Community\VC\Tools\MSVC\14.34.31933\include\xstring

; 2301 :         return _BUF_SIZE <= _Myres;

  00007	8b 4e 24	 mov	 ecx, DWORD PTR [esi+36]
  0000a	83 f9 10	 cmp	 ecx, 16			; 00000010H

; 5011 :         if (_My_data._Large_string_engaged()) {

  0000d	72 28		 jb	 SHORT $LN23@Freenode
; File C:\Program Files\Microsoft Visual Studio\2022\Community\VC\Tools\MSVC\14.34.31933\include\xmemory

; 830  :         _Deallocate<_New_alignof<_Ty>>(_Ptr, sizeof(_Ty) * _Count);

  0000f	8b 46 10	 mov	 eax, DWORD PTR [esi+16]
; File C:\Program Files\Microsoft Visual Studio\2022\Community\VC\Tools\MSVC\14.34.31933\include\xstring

; 5016 :             _Al.deallocate(_Ptr, _My_data._Myres + 1);

  00012	41		 inc	 ecx
; File C:\Program Files\Microsoft Visual Studio\2022\Community\VC\Tools\MSVC\14.34.31933\include\xmemory

; 251  :         if (_Bytes >= _Big_allocation_threshold) { // boost the alignment of big allocations to help autovectorization

  00013	81 f9 00 10 00
	00		 cmp	 ecx, 4096		; 00001000H
  00019	72 12		 jb	 SHORT $LN33@Freenode

; 150  :     const uintptr_t _Ptr_container   = _Ptr_user[-1];

  0001b	8b 50 fc	 mov	 edx, DWORD PTR [eax-4]
  0001e	83 c1 23	 add	 ecx, 35			; 00000023H

; 151  : 
; 152  :     // If the following asserts, it likely means that we are performing
; 153  :     // an aligned delete on memory coming from an unaligned allocation.
; 154  :     _STL_ASSERT(_Ptr_user[-2] == _Big_allocation_sentinel, "invalid argument");
; 155  : 
; 156  :     // Extra paranoia on aligned allocation/deallocation; ensure _Ptr_container is
; 157  :     // in range [_Min_back_shift, _Non_user_size]
; 158  : #ifdef _DEBUG
; 159  :     constexpr uintptr_t _Min_back_shift = 2 * sizeof(void*);
; 160  : #else // ^^^ _DEBUG ^^^ // vvv !_DEBUG vvv
; 161  :     constexpr uintptr_t _Min_back_shift = sizeof(void*);
; 162  : #endif // _DEBUG
; 163  :     const uintptr_t _Back_shift = reinterpret_cast<uintptr_t>(_Ptr) - _Ptr_container;

  00021	2b c2		 sub	 eax, edx

; 164  :     _STL_VERIFY(_Back_shift >= _Min_back_shift && _Back_shift <= _Non_user_size, "invalid argument");

  00023	83 c0 fc	 add	 eax, -4			; fffffffcH
  00026	83 f8 1f	 cmp	 eax, 31			; 0000001fH
  00029	77 2c		 ja	 SHORT $LN30@Freenode

; 165  :     _Ptr = reinterpret_cast<void*>(_Ptr_container);

  0002b	8b c2		 mov	 eax, edx
$LN33@Freenode:

; 255  :         ::operator delete(_Ptr, _Bytes);

  0002d	51		 push	 ecx
  0002e	50		 push	 eax
  0002f	e8 00 00 00 00	 call	 ??3@YAXPAXI@Z		; operator delete
  00034	83 c4 08	 add	 esp, 8
$LN23@Freenode:
  00037	6a 2c		 push	 44			; 0000002cH
  00039	56		 push	 esi
; File C:\Program Files\Microsoft Visual Studio\2022\Community\VC\Tools\MSVC\14.34.31933\include\xstring

; 5019 :         _My_data._Mysize = 0;

  0003a	c7 46 20 00 00
	00 00		 mov	 DWORD PTR [esi+32], 0

; 5020 :         _My_data._Myres  = _BUF_SIZE - 1;

  00041	c7 46 24 0f 00
	00 00		 mov	 DWORD PTR [esi+36], 15	; 0000000fH

; 5021 :         // the _Traits::assign is last so the codegen doesn't think the char write can alias this
; 5022 :         _Traits::assign(_My_data._Bx._Buf[0], _Elem());

  00048	c6 46 10 00	 mov	 BYTE PTR [esi+16], 0
; File C:\Program Files\Microsoft Visual Studio\2022\Community\VC\Tools\MSVC\14.34.31933\include\xmemory

; 255  :         ::operator delete(_Ptr, _Bytes);

  0004c	e8 00 00 00 00	 call	 ??3@YAXPAXI@Z		; operator delete
  00051	83 c4 08	 add	 esp, 8
  00054	5e		 pop	 esi
; File C:\Program Files\Microsoft Visual Studio\2022\Community\VC\Tools\MSVC\14.34.31933\include\xtree

; 384  :     }

  00055	5d		 pop	 ebp
  00056	c3		 ret	 0
$LN30@Freenode:
; File C:\Program Files\Microsoft Visual Studio\2022\Community\VC\Tools\MSVC\14.34.31933\include\xmemory

; 164  :     _STL_VERIFY(_Back_shift >= _Min_back_shift && _Back_shift <= _Non_user_size, "invalid argument");

  00057	e8 00 00 00 00	 call	 __invalid_parameter_noinfo_noreturn
$LN62@Freenode:
  0005c	cc		 int	 3
??$_Freenode@V?$allocator@U?$_Tree_node@U?$pair@$$CBV?$basic_string@DU?$char_traits@D@std@@V?$allocator@D@2@@std@@M@std@@PAX@std@@@std@@@?$_Tree_node@U?$pair@$$CBV?$basic_string@DU?$char_traits@D@std@@V?$allocator@D@2@@std@@M@std@@PAX@std@@SAXAAV?$allocator@U?$_Tree_node@U?$pair@$$CBV?$basic_string@DU?$char_traits@D@std@@V?$allocator@D@2@@std@@M@std@@PAX@std@@@1@PAU01@@Z ENDP ; std::_Tree_node<std::pair<std::basic_string<char,std::char_traits<char>,std::allocator<char> > const ,float>,void *>::_Freenode<std::allocator<std::_Tree_node<std::pair<std::basic_string<char,std::char_traits<char>,std::allocator<char> > const ,float>,void *> > >
_TEXT	ENDS
; Function compile flags: /Ogtp
; File C:\Program Files\Microsoft Visual Studio\2022\Community\VC\Tools\MSVC\14.34.31933\include\xtree
; File C:\Program Files\Microsoft Visual Studio\2022\Community\VC\Tools\MSVC\14.34.31933\include\utility
; File C:\Program Files\Microsoft Visual Studio\2022\Community\VC\Tools\MSVC\14.34.31933\include\xstring
; File C:\Program Files\Microsoft Visual Studio\2022\Community\VC\Tools\MSVC\14.34.31933\include\xmemory
; File C:\Program Files\Microsoft Visual Studio\2022\Community\VC\Tools\MSVC\14.34.31933\include\xstring
; File C:\Program Files\Microsoft Visual Studio\2022\Community\VC\Tools\MSVC\14.34.31933\include\xmemory
; File C:\Program Files\Microsoft Visual Studio\2022\Community\VC\Tools\MSVC\14.34.31933\include\xstring
; File C:\Program Files\Microsoft Visual Studio\2022\Community\VC\Tools\MSVC\14.34.31933\include\xmemory
; File C:\Program Files\Microsoft Visual Studio\2022\Community\VC\Tools\MSVC\14.34.31933\include\xtree
; File C:\Program Files\Microsoft Visual Studio\2022\Community\VC\Tools\MSVC\14.34.31933\include\xmemory
; File C:\Program Files\Microsoft Visual Studio\2022\Community\VC\Tools\MSVC\14.34.31933\include\xtree
;	COMDAT ??$_Erase_tree@V?$allocator@U?$_Tree_node@U?$pair@$$CBV?$basic_string@DU?$char_traits@D@std@@V?$allocator@D@2@@std@@M@std@@PAX@std@@@std@@@?$_Tree_val@U?$_Tree_simple_types@U?$pair@$$CBV?$basic_string@DU?$char_traits@D@std@@V?$allocator@D@2@@std@@M@std@@@std@@@std@@QAEXAAV?$allocator@U?$_Tree_node@U?$pair@$$CBV?$basic_string@DU?$char_traits@D@std@@V?$allocator@D@2@@std@@M@std@@PAX@std@@@1@PAU?$_Tree_node@U?$pair@$$CBV?$basic_string@DU?$char_traits@D@std@@V?$allocator@D@2@@std@@M@std@@PAX@1@@Z
_TEXT	SEGMENT
_this$1$ = -4						; size = 4
__Al$ = 8						; size = 4
__Rootnode$ = 12					; size = 4
??$_Erase_tree@V?$allocator@U?$_Tree_node@U?$pair@$$CBV?$basic_string@DU?$char_traits@D@std@@V?$allocator@D@2@@std@@M@std@@PAX@std@@@std@@@?$_Tree_val@U?$_Tree_simple_types@U?$pair@$$CBV?$basic_string@DU?$char_traits@D@std@@V?$allocator@D@2@@std@@M@std@@@std@@@std@@QAEXAAV?$allocator@U?$_Tree_node@U?$pair@$$CBV?$basic_string@DU?$char_traits@D@std@@V?$allocator@D@2@@std@@M@std@@PAX@std@@@1@PAU?$_Tree_node@U?$pair@$$CBV?$basic_string@DU?$char_traits@D@std@@V?$allocator@D@2@@std@@M@std@@PAX@1@@Z PROC ; std::_Tree_val<std::_Tree_simple_types<std::pair<std::basic_string<char,std::char_traits<char>,std::allocator<char> > const ,float> > >::_Erase_tree<std::allocator<std::_Tree_node<std::pair<std::basic_string<char,std::char_traits<char>,std::allocator<char> > const ,float>,void *> > >, COMDAT
; _this$ = ecx

; 744  :     void _Erase_tree(_Alnode& _Al, _Nodeptr _Rootnode) noexcept {

  00000	55		 push	 ebp
  00001	8b ec		 mov	 ebp, esp
  00003	51		 push	 ecx
  00004	57		 push	 edi

; 745  :         while (!_Rootnode->_Isnil) { // free subtrees, then node

  00005	8b 7d 0c	 mov	 edi, DWORD PTR __Rootnode$[ebp]
  00008	8b c1		 mov	 eax, ecx
  0000a	89 45 fc	 mov	 DWORD PTR _this$1$[ebp], eax
  0000d	80 7f 0d 00	 cmp	 BYTE PTR [edi+13], 0
  00011	75 6e		 jne	 SHORT $LN73@Erase_tree
  00013	53		 push	 ebx
  00014	8b 5d 08	 mov	 ebx, DWORD PTR __Al$[ebp]
  00017	56		 push	 esi
$LL2@Erase_tree:

; 746  :             _Erase_tree(_Al, _Rootnode->_Right);

  00018	ff 77 08	 push	 DWORD PTR [edi+8]
  0001b	8b c8		 mov	 ecx, eax
  0001d	53		 push	 ebx
  0001e	e8 00 00 00 00	 call	 ??$_Erase_tree@V?$allocator@U?$_Tree_node@U?$pair@$$CBV?$basic_string@DU?$char_traits@D@std@@V?$allocator@D@2@@std@@M@std@@PAX@std@@@std@@@?$_Tree_val@U?$_Tree_simple_types@U?$pair@$$CBV?$basic_string@DU?$char_traits@D@std@@V?$allocator@D@2@@std@@M@std@@@std@@@std@@QAEXAAV?$allocator@U?$_Tree_node@U?$pair@$$CBV?$basic_string@DU?$char_traits@D@std@@V?$allocator@D@2@@std@@M@std@@PAX@std@@@1@PAU?$_Tree_node@U?$pair@$$CBV?$basic_string@DU?$char_traits@D@std@@V?$allocator@D@2@@std@@M@std@@PAX@1@@Z ; std::_Tree_val<std::_Tree_simple_types<std::pair<std::basic_string<char,std::char_traits<char>,std::allocator<char> > const ,float> > >::_Erase_tree<std::allocator<std::_Tree_node<std::pair<std::basic_string<char,std::char_traits<char>,std::allocator<char> > const ,float>,void *> > >
; File C:\Program Files\Microsoft Visual Studio\2022\Community\VC\Tools\MSVC\14.34.31933\include\utility

; 653  :     _Ty _Old_val = static_cast<_Ty&&>(_Val);

  00023	8b f7		 mov	 esi, edi

; 654  :     _Val         = static_cast<_Other&&>(_New_val);

  00025	8b 3f		 mov	 edi, DWORD PTR [edi]
; File C:\Program Files\Microsoft Visual Studio\2022\Community\VC\Tools\MSVC\14.34.31933\include\xstring

; 2301 :         return _BUF_SIZE <= _Myres;

  00027	8b 4e 24	 mov	 ecx, DWORD PTR [esi+36]
  0002a	83 f9 10	 cmp	 ecx, 16			; 00000010H

; 5011 :         if (_My_data._Large_string_engaged()) {

  0002d	72 28		 jb	 SHORT $LN29@Erase_tree
; File C:\Program Files\Microsoft Visual Studio\2022\Community\VC\Tools\MSVC\14.34.31933\include\xmemory

; 830  :         _Deallocate<_New_alignof<_Ty>>(_Ptr, sizeof(_Ty) * _Count);

  0002f	8b 46 10	 mov	 eax, DWORD PTR [esi+16]
; File C:\Program Files\Microsoft Visual Studio\2022\Community\VC\Tools\MSVC\14.34.31933\include\xstring

; 5016 :             _Al.deallocate(_Ptr, _My_data._Myres + 1);

  00032	41		 inc	 ecx
; File C:\Program Files\Microsoft Visual Studio\2022\Community\VC\Tools\MSVC\14.34.31933\include\xmemory

; 251  :         if (_Bytes >= _Big_allocation_threshold) { // boost the alignment of big allocations to help autovectorization

  00033	81 f9 00 10 00
	00		 cmp	 ecx, 4096		; 00001000H
  00039	72 12		 jb	 SHORT $LN39@Erase_tree

; 150  :     const uintptr_t _Ptr_container   = _Ptr_user[-1];

  0003b	8b 50 fc	 mov	 edx, DWORD PTR [eax-4]
  0003e	83 c1 23	 add	 ecx, 35			; 00000023H

; 151  : 
; 152  :     // If the following asserts, it likely means that we are performing
; 153  :     // an aligned delete on memory coming from an unaligned allocation.
; 154  :     _STL_ASSERT(_Ptr_user[-2] == _Big_allocation_sentinel, "invalid argument");
; 155  : 
; 156  :     // Extra paranoia on aligned allocation/deallocation; ensure _Ptr_container is
; 157  :     // in range [_Min_back_shift, _Non_user_size]
; 158  : #ifdef _DEBUG
; 159  :     constexpr uintptr_t _Min_back_shift = 2 * sizeof(void*);
; 160  : #else // ^^^ _DEBUG ^^^ // vvv !_DEBUG vvv
; 161  :     constexpr uintptr_t _Min_back_shift = sizeof(void*);
; 162  : #endif // _DEBUG
; 163  :     const uintptr_t _Back_shift = reinterpret_cast<uintptr_t>(_Ptr) - _Ptr_container;

  00041	2b c2		 sub	 eax, edx

; 164  :     _STL_VERIFY(_Back_shift >= _Min_back_shift && _Back_shift <= _Non_user_size, "invalid argument");

  00043	83 c0 fc	 add	 eax, -4			; fffffffcH
  00046	83 f8 1f	 cmp	 eax, 31			; 0000001fH
  00049	77 3d		 ja	 SHORT $LN36@Erase_tree

; 165  :     _Ptr = reinterpret_cast<void*>(_Ptr_container);

  0004b	8b c2		 mov	 eax, edx
$LN39@Erase_tree:

; 255  :         ::operator delete(_Ptr, _Bytes);

  0004d	51		 push	 ecx
  0004e	50		 push	 eax
  0004f	e8 00 00 00 00	 call	 ??3@YAXPAXI@Z		; operator delete
  00054	83 c4 08	 add	 esp, 8
$LN29@Erase_tree:
  00057	6a 2c		 push	 44			; 0000002cH
  00059	56		 push	 esi
; File C:\Program Files\Microsoft Visual Studio\2022\Community\VC\Tools\MSVC\14.34.31933\include\xstring

; 5019 :         _My_data._Mysize = 0;

  0005a	c7 46 20 00 00
	00 00		 mov	 DWORD PTR [esi+32], 0

; 5020 :         _My_data._Myres  = _BUF_SIZE - 1;

  00061	c7 46 24 0f 00
	00 00		 mov	 DWORD PTR [esi+36], 15	; 0000000fH

; 5021 :         // the _Traits::assign is last so the codegen doesn't think the char write can alias this
; 5022 :         _Traits::assign(_My_data._Bx._Buf[0], _Elem());

  00068	c6 46 10 00	 mov	 BYTE PTR [esi+16], 0
; File C:\Program Files\Microsoft Visual Studio\2022\Community\VC\Tools\MSVC\14.34.31933\include\xmemory

; 255  :         ::operator delete(_Ptr, _Bytes);

  0006c	e8 00 00 00 00	 call	 ??3@YAXPAXI@Z		; operator delete
  00071	83 c4 08	 add	 esp, 8
; File C:\Program Files\Microsoft Visual Studio\2022\Community\VC\Tools\MSVC\14.34.31933\include\xtree

; 745  :         while (!_Rootnode->_Isnil) { // free subtrees, then node

  00074	80 7f 0d 00	 cmp	 BYTE PTR [edi+13], 0
  00078	75 05		 jne	 SHORT $LN75@Erase_tree
  0007a	8b 45 fc	 mov	 eax, DWORD PTR _this$1$[ebp]
  0007d	eb 99		 jmp	 SHORT $LL2@Erase_tree
$LN75@Erase_tree:
  0007f	5e		 pop	 esi
  00080	5b		 pop	 ebx
$LN73@Erase_tree:
  00081	5f		 pop	 edi

; 749  :     }

  00082	8b e5		 mov	 esp, ebp
  00084	5d		 pop	 ebp
  00085	c2 08 00	 ret	 8
$LN36@Erase_tree:
; File C:\Program Files\Microsoft Visual Studio\2022\Community\VC\Tools\MSVC\14.34.31933\include\xmemory

; 164  :     _STL_VERIFY(_Back_shift >= _Min_back_shift && _Back_shift <= _Non_user_size, "invalid argument");

  00088	e8 00 00 00 00	 call	 __invalid_parameter_noinfo_noreturn
$LN76@Erase_tree:
  0008d	cc		 int	 3
??$_Erase_tree@V?$allocator@U?$_Tree_node@U?$pair@$$CBV?$basic_string@DU?$char_traits@D@std@@V?$allocator@D@2@@std@@M@std@@PAX@std@@@std@@@?$_Tree_val@U?$_Tree_simple_types@U?$pair@$$CBV?$basic_string@DU?$char_traits@D@std@@V?$allocator@D@2@@std@@M@std@@@std@@@std@@QAEXAAV?$allocator@U?$_Tree_node@U?$pair@$$CBV?$basic_string@DU?$char_traits@D@std@@V?$allocator@D@2@@std@@M@std@@PAX@std@@@1@PAU?$_Tree_node@U?$pair@$$CBV?$basic_string@DU?$char_traits@D@std@@V?$allocator@D@2@@std@@M@std@@PAX@1@@Z ENDP ; std::_Tree_val<std::_Tree_simple_types<std::pair<std::basic_string<char,std::char_traits<char>,std::allocator<char> > const ,float> > >::_Erase_tree<std::allocator<std::_Tree_node<std::pair<std::basic_string<char,std::char_traits<char>,std::allocator<char> > const ,float>,void *> > >
_TEXT	ENDS
; Function compile flags: /Ogtp
; File C:\Program Files\Microsoft Visual Studio\2022\Community\VC\Tools\MSVC\14.34.31933\include\xstring
; File C:\Program Files\Microsoft Visual Studio\2022\Community\VC\Tools\MSVC\14.34.31933\include\xmemory
; File C:\Program Files\Microsoft Visual Studio\2022\Community\VC\Tools\MSVC\14.34.31933\include\utility
; File C:\Program Files\Microsoft Visual Studio\2022\Community\VC\Tools\MSVC\14.34.31933\include\xstring
; File C:\Program Files\Microsoft Visual Studio\2022\Community\VC\Tools\MSVC\14.34.31933\include\xmemory
; File C:\Program Files\Microsoft Visual Studio\2022\Community\VC\Tools\MSVC\14.34.31933\include\xstring
;	COMDAT ??$_Construct@$00PBD@?$basic_string@DU?$char_traits@D@std@@V?$allocator@D@2@@std@@AAEXQBDI@Z
_TEXT	SEGMENT
__Arg$ = 8						; size = 4
$T1 = 12						; size = 4
__Count$ = 12						; size = 4
??$_Construct@$00PBD@?$basic_string@DU?$char_traits@D@std@@V?$allocator@D@2@@std@@AAEXQBDI@Z PROC ; std::basic_string<char,std::char_traits<char>,std::allocator<char> >::_Construct<1,char const *>, COMDAT
; _this$ = ecx

; 2730 :     _CONSTEXPR20 void _Construct(const _Char_or_ptr _Arg, _CRT_GUARDOVERFLOW const size_type _Count) {

  00000	55		 push	 ebp
  00001	8b ec		 mov	 ebp, esp
  00003	53		 push	 ebx
  00004	57		 push	 edi

; 2731 :         auto& _My_data = _Mypair._Myval2;
; 2732 :         _STL_INTERNAL_CHECK(!_My_data._Large_string_engaged());
; 2733 : 
; 2734 :         if constexpr (_Strat == _Construct_strategy::_From_char) {
; 2735 :             _STL_INTERNAL_STATIC_ASSERT(is_same_v<_Char_or_ptr, _Elem>);
; 2736 :         } else {
; 2737 :             _STL_INTERNAL_STATIC_ASSERT(_Is_elem_cptr<_Char_or_ptr>::value);
; 2738 :         }
; 2739 : 
; 2740 :         if (_Count > max_size()) {

  00005	8b 7d 0c	 mov	 edi, DWORD PTR __Count$[ebp]
  00008	8b d9		 mov	 ebx, ecx
  0000a	81 ff ff ff ff
	7f		 cmp	 edi, 2147483647		; 7fffffffH
  00010	0f 87 9f 00 00
	00		 ja	 $LN29@Construct

; 2742 :         }
; 2743 : 
; 2744 :         auto& _Al       = _Getal();
; 2745 :         auto&& _Alproxy = _GET_PROXY_ALLOCATOR(_Alty, _Al);
; 2746 :         _Container_proxy_ptr<_Alty> _Proxy(_Alproxy, _My_data);
; 2747 : 
; 2748 :         if (_Count < _BUF_SIZE) {

  00016	c7 43 14 0f 00
	00 00		 mov	 DWORD PTR [ebx+20], 15	; 0000000fH
  0001d	83 ff 10	 cmp	 edi, 16			; 00000010H
  00020	73 1a		 jae	 SHORT $LN3@Construct

; 117  :         _CSTD memmove(_First1, _First2, _Count * sizeof(_Elem));

  00022	57		 push	 edi
  00023	ff 75 08	 push	 DWORD PTR __Arg$[ebp]

; 2749 :             _My_data._Mysize = _Count;

  00026	89 7b 10	 mov	 DWORD PTR [ebx+16], edi

; 117  :         _CSTD memmove(_First1, _First2, _Count * sizeof(_Elem));

  00029	53		 push	 ebx
  0002a	e8 00 00 00 00	 call	 _memmove
  0002f	83 c4 0c	 add	 esp, 12			; 0000000cH

; 2750 :             _My_data._Myres  = _BUF_SIZE - 1;
; 2751 :             if constexpr (_Strat == _Construct_strategy::_From_char) {
; 2752 :                 _Traits::assign(_My_data._Bx._Buf, _Count, _Arg);
; 2753 :                 _Traits::assign(_My_data._Bx._Buf[_Count], _Elem());
; 2754 :             } else if constexpr (_Strat == _Construct_strategy::_From_ptr) {
; 2755 :                 _Traits::move(_My_data._Bx._Buf, _Arg, _Count);
; 2756 :                 _Traits::assign(_My_data._Bx._Buf[_Count], _Elem());

  00032	c6 04 1f 00	 mov	 BYTE PTR [edi+ebx], 0
  00036	5f		 pop	 edi

; 2789 :         } else { // _Strat == _Construct_strategy::_From_string
; 2790 :             _Traits::copy(_Unfancy(_New_ptr), _Arg, _Count + 1);
; 2791 :         }
; 2792 : 
; 2793 :         _ASAN_STRING_CREATE(*this);
; 2794 :         _Proxy._Release();
; 2795 :     }

  00037	5b		 pop	 ebx
  00038	5d		 pop	 ebp
  00039	c2 08 00	 ret	 8
$LN3@Construct:
  0003c	56		 push	 esi

; 4883 :         const size_type _Masked = _Requested | _ALLOC_MASK;

  0003d	8b f7		 mov	 esi, edi
  0003f	83 ce 0f	 or	 esi, 15			; 0000000fH
  00042	81 fe ff ff ff
	7f		 cmp	 esi, 2147483647		; 7fffffffH

; 4884 :         if (_Masked > _Max) { // the mask overflows, settle for max_size()

  00048	76 15		 jbe	 SHORT $LN10@Construct

; 4885 :             return _Max;

  0004a	b8 00 00 00 80	 mov	 eax, -2147483648	; 80000000H
  0004f	be ff ff ff 7f	 mov	 esi, 2147483647		; 7fffffffH
; File C:\Program Files\Microsoft Visual Studio\2022\Community\VC\Tools\MSVC\14.34.31933\include\xmemory

; 229  :             return _Allocate_manually_vector_aligned<_Traits>(_Bytes);

  00054	50		 push	 eax
  00055	e8 00 00 00 00	 call	 ??$_Allocate_manually_vector_aligned@U_Default_allocate_traits@std@@@std@@YAPAXI@Z ; std::_Allocate_manually_vector_aligned<std::_Default_allocate_traits>
  0005a	83 c4 04	 add	 esp, 4
  0005d	eb 30		 jmp	 SHORT $LN27@Construct
$LN10@Construct:
; File C:\Program Files\Microsoft Visual Studio\2022\Community\VC\Tools\MSVC\14.34.31933\include\utility

; 43   :     return _Left < _Right ? _Right : _Left;

  0005f	b8 16 00 00 00	 mov	 eax, 22			; 00000016H
  00064	3b f0		 cmp	 esi, eax
  00066	0f 42 f0	 cmovb	 esi, eax
; File C:\Program Files\Microsoft Visual Studio\2022\Community\VC\Tools\MSVC\14.34.31933\include\xstring

; 2772 :         const pointer _New_ptr        = _Al.allocate(_New_capacity + 1); // throws

  00069	8d 46 01	 lea	 eax, DWORD PTR [esi+1]
; File C:\Program Files\Microsoft Visual Studio\2022\Community\VC\Tools\MSVC\14.34.31933\include\xmemory

; 228  :         if (_Bytes >= _Big_allocation_threshold) { // boost the alignment of big allocations to help autovectorization

  0006c	3d 00 10 00 00	 cmp	 eax, 4096		; 00001000H
  00071	72 0b		 jb	 SHORT $LN18@Construct

; 229  :             return _Allocate_manually_vector_aligned<_Traits>(_Bytes);

  00073	50		 push	 eax
  00074	e8 00 00 00 00	 call	 ??$_Allocate_manually_vector_aligned@U_Default_allocate_traits@std@@@std@@YAPAXI@Z ; std::_Allocate_manually_vector_aligned<std::_Default_allocate_traits>
  00079	83 c4 04	 add	 esp, 4
  0007c	eb 11		 jmp	 SHORT $LN27@Construct
$LN18@Construct:

; 230  :         }
; 231  :     }
; 232  : #endif // defined(_M_IX86) || defined(_M_X64)
; 233  : 
; 234  :     if (_Bytes != 0) {

  0007e	85 c0		 test	 eax, eax
  00080	74 0b		 je	 SHORT $LN19@Construct

; 77   :         return ::operator new(_Bytes);

  00082	50		 push	 eax
  00083	e8 00 00 00 00	 call	 ??2@YAPAXI@Z		; operator new
  00088	83 c4 04	 add	 esp, 4

; 235  :         return _Traits::_Allocate(_Bytes);

  0008b	eb 02		 jmp	 SHORT $LN27@Construct
$LN19@Construct:

; 236  :     }
; 237  : 
; 238  :     return nullptr;

  0008d	33 c0		 xor	 eax, eax
$LN27@Construct:
; File C:\Program Files\Microsoft Visual Studio\2022\Community\VC\Tools\MSVC\14.34.31933\include\xstring

; 64   :         _CSTD memcpy(_First1, _First2, _Count * sizeof(_Elem));

  0008f	57		 push	 edi
  00090	ff 75 08	 push	 DWORD PTR __Arg$[ebp]

; 2773 :         _Construct_in_place(_My_data._Bx._Ptr, _New_ptr);

  00093	89 45 0c	 mov	 DWORD PTR $T1[ebp], eax

; 64   :         _CSTD memcpy(_First1, _First2, _Count * sizeof(_Elem));

  00096	50		 push	 eax

; 2773 :         _Construct_in_place(_My_data._Bx._Ptr, _New_ptr);

  00097	89 03		 mov	 DWORD PTR [ebx], eax

; 2774 : 
; 2775 : #if _HAS_CXX20
; 2776 :         if (_STD is_constant_evaluated()) { // Begin the lifetimes of the objects before copying to avoid UB
; 2777 :             _Traits::assign(_Unfancy(_New_ptr), _New_capacity + 1, _Elem());
; 2778 :         }
; 2779 : #endif // _HAS_CXX20
; 2780 : 
; 2781 :         _My_data._Mysize = _Count;

  00099	89 7b 10	 mov	 DWORD PTR [ebx+16], edi

; 2782 :         _My_data._Myres  = _New_capacity;

  0009c	89 73 14	 mov	 DWORD PTR [ebx+20], esi

; 64   :         _CSTD memcpy(_First1, _First2, _Count * sizeof(_Elem));

  0009f	e8 00 00 00 00	 call	 _memcpy

; 2783 :         if constexpr (_Strat == _Construct_strategy::_From_char) {
; 2784 :             _Traits::assign(_Unfancy(_New_ptr), _Count, _Arg);
; 2785 :             _Traits::assign(_Unfancy(_New_ptr)[_Count], _Elem());
; 2786 :         } else if constexpr (_Strat == _Construct_strategy::_From_ptr) {
; 2787 :             _Traits::copy(_Unfancy(_New_ptr), _Arg, _Count);
; 2788 :             _Traits::assign(_Unfancy(_New_ptr)[_Count], _Elem());

  000a4	8b 45 0c	 mov	 eax, DWORD PTR $T1[ebp]

; 64   :         _CSTD memcpy(_First1, _First2, _Count * sizeof(_Elem));

  000a7	83 c4 0c	 add	 esp, 12			; 0000000cH

; 2783 :         if constexpr (_Strat == _Construct_strategy::_From_char) {
; 2784 :             _Traits::assign(_Unfancy(_New_ptr), _Count, _Arg);
; 2785 :             _Traits::assign(_Unfancy(_New_ptr)[_Count], _Elem());
; 2786 :         } else if constexpr (_Strat == _Construct_strategy::_From_ptr) {
; 2787 :             _Traits::copy(_Unfancy(_New_ptr), _Arg, _Count);
; 2788 :             _Traits::assign(_Unfancy(_New_ptr)[_Count], _Elem());

  000aa	5e		 pop	 esi
  000ab	c6 04 38 00	 mov	 BYTE PTR [eax+edi], 0
  000af	5f		 pop	 edi

; 2789 :         } else { // _Strat == _Construct_strategy::_From_string
; 2790 :             _Traits::copy(_Unfancy(_New_ptr), _Arg, _Count + 1);
; 2791 :         }
; 2792 : 
; 2793 :         _ASAN_STRING_CREATE(*this);
; 2794 :         _Proxy._Release();
; 2795 :     }

  000b0	5b		 pop	 ebx
  000b1	5d		 pop	 ebp
  000b2	c2 08 00	 ret	 8
$LN29@Construct:

; 2741 :             _Xlen_string(); // result too long

  000b5	e8 00 00 00 00	 call	 ?_Xlen_string@std@@YAXXZ ; std::_Xlen_string
$LN26@Construct:
  000ba	cc		 int	 3
??$_Construct@$00PBD@?$basic_string@DU?$char_traits@D@std@@V?$allocator@D@2@@std@@AAEXQBDI@Z ENDP ; std::basic_string<char,std::char_traits<char>,std::allocator<char> >::_Construct<1,char const *>
_TEXT	ENDS
; Function compile flags: /Ogtp
; File C:\Program Files\Microsoft Visual Studio\2022\Community\VC\Tools\MSVC\14.34.31933\include\xstring
; File C:\Program Files\Microsoft Visual Studio\2022\Community\VC\Tools\MSVC\14.34.31933\include\utility
; File C:\Program Files\Microsoft Visual Studio\2022\Community\VC\Tools\MSVC\14.34.31933\include\xstring
;	COMDAT ??$?MDU?$char_traits@D@std@@V?$allocator@D@1@@std@@YA_NABV?$basic_string@DU?$char_traits@D@std@@V?$allocator@D@2@@0@0@Z
_TEXT	SEGMENT
__Left$ = 8						; size = 4
__Right$ = 12						; size = 4
??$?MDU?$char_traits@D@std@@V?$allocator@D@1@@std@@YA_NABV?$basic_string@DU?$char_traits@D@std@@V?$allocator@D@2@@0@0@Z PROC ; std::operator<<char,std::char_traits<char>,std::allocator<char> >, COMDAT

; 5234 :     const basic_string<_Elem, _Traits, _Alloc>& _Left, const basic_string<_Elem, _Traits, _Alloc>& _Right) noexcept {

  00000	55		 push	 ebp
  00001	8b ec		 mov	 ebp, esp

; 4795 :         return _Traits_compare<_Traits>(_Mypair._Myval2._Myptr(), _Mypair._Myval2._Mysize,

  00003	8b 4d 0c	 mov	 ecx, DWORD PTR __Right$[ebp]

; 5234 :     const basic_string<_Elem, _Traits, _Alloc>& _Left, const basic_string<_Elem, _Traits, _Alloc>& _Right) noexcept {

  00006	53		 push	 ebx
  00007	57		 push	 edi

; 2301 :         return _BUF_SIZE <= _Myres;

  00008	83 79 14 10	 cmp	 DWORD PTR [ecx+20], 16	; 00000010H

; 4795 :         return _Traits_compare<_Traits>(_Mypair._Myval2._Myptr(), _Mypair._Myval2._Mysize,

  0000c	8b 79 10	 mov	 edi, DWORD PTR [ecx+16]

; 2293 :         if (_Large_string_engaged()) {

  0000f	72 02		 jb	 SHORT $LN6@operator

; 2294 :             _Result = _Unfancy(_Bx._Ptr);

  00011	8b 09		 mov	 ecx, DWORD PTR [ecx]
$LN6@operator:

; 4795 :         return _Traits_compare<_Traits>(_Mypair._Myval2._Myptr(), _Mypair._Myval2._Mysize,

  00013	8b 55 08	 mov	 edx, DWORD PTR __Left$[ebp]

; 2301 :         return _BUF_SIZE <= _Myres;

  00016	83 7a 14 10	 cmp	 DWORD PTR [edx+20], 16	; 00000010H

; 4795 :         return _Traits_compare<_Traits>(_Mypair._Myval2._Myptr(), _Mypair._Myval2._Mysize,

  0001a	8b 5a 10	 mov	 ebx, DWORD PTR [edx+16]

; 2293 :         if (_Large_string_engaged()) {

  0001d	72 02		 jb	 SHORT $LN11@operator

; 2294 :             _Result = _Unfancy(_Bx._Ptr);

  0001f	8b 12		 mov	 edx, DWORD PTR [edx]
$LN11@operator:
  00021	56		 push	 esi
; File C:\Program Files\Microsoft Visual Studio\2022\Community\VC\Tools\MSVC\14.34.31933\include\utility

; 66   :     return _Right < _Left ? _Right : _Left;

  00022	3b fb		 cmp	 edi, ebx
  00024	8b f3		 mov	 esi, ebx
  00026	0f 42 f7	 cmovb	 esi, edi
; File C:\Program Files\Microsoft Visual Studio\2022\Community\VC\Tools\MSVC\14.34.31933\include\xstring

; 395  :         return __builtin_memcmp(_First1, _First2, _Count);

  00029	83 ee 04	 sub	 esi, 4
  0002c	72 13		 jb	 SHORT $LN26@operator
  0002e	66 90		 npad	 2
$LL27@operator:
  00030	8b 02		 mov	 eax, DWORD PTR [edx]
  00032	3b 01		 cmp	 eax, DWORD PTR [ecx]
  00034	75 10		 jne	 SHORT $LN25@operator
  00036	83 c2 04	 add	 edx, 4
  00039	83 c1 04	 add	 ecx, 4
  0003c	83 ee 04	 sub	 esi, 4
  0003f	73 ef		 jae	 SHORT $LL27@operator
$LN26@operator:
  00041	83 fe fc	 cmp	 esi, -4			; fffffffcH
  00044	74 34		 je	 SHORT $LN24@operator
$LN25@operator:
  00046	8a 02		 mov	 al, BYTE PTR [edx]
  00048	3a 01		 cmp	 al, BYTE PTR [ecx]
  0004a	75 27		 jne	 SHORT $LN28@operator
  0004c	83 fe fd	 cmp	 esi, -3			; fffffffdH
  0004f	74 29		 je	 SHORT $LN24@operator
  00051	8a 42 01	 mov	 al, BYTE PTR [edx+1]
  00054	3a 41 01	 cmp	 al, BYTE PTR [ecx+1]
  00057	75 1a		 jne	 SHORT $LN28@operator
  00059	83 fe fe	 cmp	 esi, -2			; fffffffeH
  0005c	74 1c		 je	 SHORT $LN24@operator
  0005e	8a 42 02	 mov	 al, BYTE PTR [edx+2]
  00061	3a 41 02	 cmp	 al, BYTE PTR [ecx+2]
  00064	75 0d		 jne	 SHORT $LN28@operator
  00066	83 fe ff	 cmp	 esi, -1
  00069	74 0f		 je	 SHORT $LN24@operator
  0006b	8a 42 03	 mov	 al, BYTE PTR [edx+3]
  0006e	3a 41 03	 cmp	 al, BYTE PTR [ecx+3]
  00071	74 07		 je	 SHORT $LN24@operator
$LN28@operator:
  00073	1b c0		 sbb	 eax, eax
  00075	83 c8 01	 or	 eax, 1
  00078	eb 02		 jmp	 SHORT $LN29@operator
$LN24@operator:
  0007a	33 c0		 xor	 eax, eax
$LN29@operator:
  0007c	5e		 pop	 esi

; 604  :     if (_Ans != 0) {

  0007d	85 c0		 test	 eax, eax
  0007f	75 12		 jne	 SHORT $LN18@operator

; 605  :         return _Ans;
; 606  :     }
; 607  : 
; 608  :     if (_Left_size < _Right_size) {

  00081	3b fb		 cmp	 edi, ebx
  00083	76 0a		 jbe	 SHORT $LN30@operator

; 609  :         return -1;

  00085	83 c8 ff	 or	 eax, -1

; 5235 :     return _Left.compare(_Right) < 0;

  00088	5f		 pop	 edi
  00089	c1 e8 1f	 shr	 eax, 31			; 0000001fH
  0008c	5b		 pop	 ebx

; 5236 : }

  0008d	5d		 pop	 ebp
  0008e	c3		 ret	 0
$LN30@operator:

; 612  :     if (_Left_size > _Right_size) {

  0008f	1b c0		 sbb	 eax, eax
  00091	f7 d8		 neg	 eax
$LN18@operator:

; 5235 :     return _Left.compare(_Right) < 0;

  00093	5f		 pop	 edi
  00094	c1 e8 1f	 shr	 eax, 31			; 0000001fH
  00097	5b		 pop	 ebx

; 5236 : }

  00098	5d		 pop	 ebp
  00099	c3		 ret	 0
??$?MDU?$char_traits@D@std@@V?$allocator@D@1@@std@@YA_NABV?$basic_string@DU?$char_traits@D@std@@V?$allocator@D@2@@0@0@Z ENDP ; std::operator<<char,std::char_traits<char>,std::allocator<char> >
_TEXT	ENDS
; Function compile flags: /Ogtp
; File C:\Program Files\Microsoft Visual Studio\2022\Community\VC\Tools\MSVC\14.34.31933\include\xstring
; File C:\Program Files\Microsoft Visual Studio\2022\Community\VC\Tools\MSVC\14.34.31933\include\xmemory
; File C:\Program Files\Microsoft Visual Studio\2022\Community\VC\Tools\MSVC\14.34.31933\include\xstring
; File C:\Program Files\Microsoft Visual Studio\2022\Community\VC\Tools\MSVC\14.34.31933\include\xmemory
; File C:\Program Files\Microsoft Visual Studio\2022\Community\VC\Tools\MSVC\14.34.31933\include\xstring
; File C:\Program Files\Microsoft Visual Studio\2022\Community\VC\Tools\MSVC\14.34.31933\include\xmemory
;	COMDAT ??1?$pair@$$CBV?$basic_string@DU?$char_traits@D@std@@V?$allocator@D@2@@std@@M@std@@QAE@XZ
_TEXT	SEGMENT
??1?$pair@$$CBV?$basic_string@DU?$char_traits@D@std@@V?$allocator@D@2@@std@@M@std@@QAE@XZ PROC ; std::pair<std::basic_string<char,std::char_traits<char>,std::allocator<char> > const ,float>::~pair<std::basic_string<char,std::char_traits<char>,std::allocator<char> > const ,float>, COMDAT
; _this$ = ecx
; File C:\Program Files\Microsoft Visual Studio\2022\Community\VC\Tools\MSVC\14.34.31933\include\xstring

; 2301 :         return _BUF_SIZE <= _Myres;

  00000	56		 push	 esi
  00001	8b f1		 mov	 esi, ecx
  00003	8b 4e 14	 mov	 ecx, DWORD PTR [esi+20]
  00006	83 f9 10	 cmp	 ecx, 16			; 00000010H

; 5011 :         if (_My_data._Large_string_engaged()) {

  00009	72 27		 jb	 SHORT $LN15@pair
; File C:\Program Files\Microsoft Visual Studio\2022\Community\VC\Tools\MSVC\14.34.31933\include\xmemory

; 830  :         _Deallocate<_New_alignof<_Ty>>(_Ptr, sizeof(_Ty) * _Count);

  0000b	8b 06		 mov	 eax, DWORD PTR [esi]
; File C:\Program Files\Microsoft Visual Studio\2022\Community\VC\Tools\MSVC\14.34.31933\include\xstring

; 5016 :             _Al.deallocate(_Ptr, _My_data._Myres + 1);

  0000d	41		 inc	 ecx
; File C:\Program Files\Microsoft Visual Studio\2022\Community\VC\Tools\MSVC\14.34.31933\include\xmemory

; 251  :         if (_Bytes >= _Big_allocation_threshold) { // boost the alignment of big allocations to help autovectorization

  0000e	81 f9 00 10 00
	00		 cmp	 ecx, 4096		; 00001000H
  00014	72 12		 jb	 SHORT $LN25@pair

; 150  :     const uintptr_t _Ptr_container   = _Ptr_user[-1];

  00016	8b 50 fc	 mov	 edx, DWORD PTR [eax-4]
  00019	83 c1 23	 add	 ecx, 35			; 00000023H

; 151  : 
; 152  :     // If the following asserts, it likely means that we are performing
; 153  :     // an aligned delete on memory coming from an unaligned allocation.
; 154  :     _STL_ASSERT(_Ptr_user[-2] == _Big_allocation_sentinel, "invalid argument");
; 155  : 
; 156  :     // Extra paranoia on aligned allocation/deallocation; ensure _Ptr_container is
; 157  :     // in range [_Min_back_shift, _Non_user_size]
; 158  : #ifdef _DEBUG
; 159  :     constexpr uintptr_t _Min_back_shift = 2 * sizeof(void*);
; 160  : #else // ^^^ _DEBUG ^^^ // vvv !_DEBUG vvv
; 161  :     constexpr uintptr_t _Min_back_shift = sizeof(void*);
; 162  : #endif // _DEBUG
; 163  :     const uintptr_t _Back_shift = reinterpret_cast<uintptr_t>(_Ptr) - _Ptr_container;

  0001c	2b c2		 sub	 eax, edx

; 164  :     _STL_VERIFY(_Back_shift >= _Min_back_shift && _Back_shift <= _Non_user_size, "invalid argument");

  0001e	83 c0 fc	 add	 eax, -4			; fffffffcH
  00021	83 f8 1f	 cmp	 eax, 31			; 0000001fH
  00024	77 1f		 ja	 SHORT $LN22@pair

; 165  :     _Ptr = reinterpret_cast<void*>(_Ptr_container);

  00026	8b c2		 mov	 eax, edx
$LN25@pair:

; 255  :         ::operator delete(_Ptr, _Bytes);

  00028	51		 push	 ecx
  00029	50		 push	 eax
  0002a	e8 00 00 00 00	 call	 ??3@YAXPAXI@Z		; operator delete
  0002f	83 c4 08	 add	 esp, 8
$LN15@pair:
; File C:\Program Files\Microsoft Visual Studio\2022\Community\VC\Tools\MSVC\14.34.31933\include\xstring

; 5019 :         _My_data._Mysize = 0;

  00032	c7 46 10 00 00
	00 00		 mov	 DWORD PTR [esi+16], 0

; 5020 :         _My_data._Myres  = _BUF_SIZE - 1;

  00039	c7 46 14 0f 00
	00 00		 mov	 DWORD PTR [esi+20], 15	; 0000000fH

; 5021 :         // the _Traits::assign is last so the codegen doesn't think the char write can alias this
; 5022 :         _Traits::assign(_My_data._Bx._Buf[0], _Elem());

  00040	c6 06 00	 mov	 BYTE PTR [esi], 0
  00043	5e		 pop	 esi
  00044	c3		 ret	 0
$LN22@pair:
; File C:\Program Files\Microsoft Visual Studio\2022\Community\VC\Tools\MSVC\14.34.31933\include\xmemory

; 164  :     _STL_VERIFY(_Back_shift >= _Min_back_shift && _Back_shift <= _Non_user_size, "invalid argument");

  00045	e8 00 00 00 00	 call	 __invalid_parameter_noinfo_noreturn
$LN31@pair:
  0004a	cc		 int	 3
??1?$pair@$$CBV?$basic_string@DU?$char_traits@D@std@@V?$allocator@D@2@@std@@M@std@@QAE@XZ ENDP ; std::pair<std::basic_string<char,std::char_traits<char>,std::allocator<char> > const ,float>::~pair<std::basic_string<char,std::char_traits<char>,std::allocator<char> > const ,float>
_TEXT	ENDS
; Function compile flags: /Ogtp
; File C:\Program Files\Microsoft Visual Studio\2022\Community\VC\Tools\MSVC\14.34.31933\include\xtree
;	COMDAT ??E?$_Tree_unchecked_const_iterator@V?$_Tree_val@U?$_Tree_simple_types@U?$pair@$$CBV?$basic_string@DU?$char_traits@D@std@@V?$allocator@D@2@@std@@M@std@@@std@@@std@@U_Iterator_base0@2@@std@@QAEAAV01@XZ
_TEXT	SEGMENT
??E?$_Tree_unchecked_const_iterator@V?$_Tree_val@U?$_Tree_simple_types@U?$pair@$$CBV?$basic_string@DU?$char_traits@D@std@@V?$allocator@D@2@@std@@M@std@@@std@@@std@@U_Iterator_base0@2@@std@@QAEAAV01@XZ PROC ; std::_Tree_unchecked_const_iterator<std::_Tree_val<std::_Tree_simple_types<std::pair<std::basic_string<char,std::char_traits<char>,std::allocator<char> > const ,float> > >,std::_Iterator_base0>::operator++, COMDAT
; _this$ = ecx

; 50   :     _Tree_unchecked_const_iterator& operator++() noexcept {

  00000	56		 push	 esi
  00001	8b f1		 mov	 esi, ecx
  00003	57		 push	 edi

; 51   :         if (_Ptr->_Right->_Isnil) { // climb looking for right subtree

  00004	8b 16		 mov	 edx, DWORD PTR [esi]
  00006	8b 7a 08	 mov	 edi, DWORD PTR [edx+8]
  00009	80 7f 0d 00	 cmp	 BYTE PTR [edi+13], 0
  0000d	74 22		 je	 SHORT $LN4@operator

; 52   :             _Nodeptr _Pnode;
; 53   :             while (!(_Pnode = _Ptr->_Parent)->_Isnil && _Ptr == _Pnode->_Right) {

  0000f	8b 42 04	 mov	 eax, DWORD PTR [edx+4]
  00012	80 78 0d 00	 cmp	 BYTE PTR [eax+13], 0
  00016	75 12		 jne	 SHORT $LN19@operator
$LL2@operator:
  00018	3b 50 08	 cmp	 edx, DWORD PTR [eax+8]
  0001b	75 0d		 jne	 SHORT $LN19@operator

; 54   :                 _Ptr = _Pnode; // ==> parent while right subtree

  0001d	89 06		 mov	 DWORD PTR [esi], eax
  0001f	8b d0		 mov	 edx, eax
  00021	8b 40 04	 mov	 eax, DWORD PTR [eax+4]
  00024	80 78 0d 00	 cmp	 BYTE PTR [eax+13], 0
  00028	74 ee		 je	 SHORT $LL2@operator
$LN19@operator:

; 55   :             }
; 56   : 
; 57   :             _Ptr = _Pnode; // ==> parent (head if end())
; 58   :         } else {
; 59   :             _Ptr = _Mytree::_Min(_Ptr->_Right); // ==> smallest of right subtree
; 60   :         }
; 61   : 
; 62   :         return *this;

  0002a	89 06		 mov	 DWORD PTR [esi], eax

; 63   :     }

  0002c	8b c6		 mov	 eax, esi
  0002e	5f		 pop	 edi
  0002f	5e		 pop	 esi
  00030	c3		 ret	 0
$LN4@operator:

; 453  :         while (!_Pnode->_Left->_Isnil) {

  00031	8b 0f		 mov	 ecx, DWORD PTR [edi]
  00033	80 79 0d 00	 cmp	 BYTE PTR [ecx+13], 0
  00037	75 13		 jne	 SHORT $LN9@operator
  00039	0f 1f 80 00 00
	00 00		 npad	 7
$LL8@operator:
  00040	8b 01		 mov	 eax, DWORD PTR [ecx]

; 454  :             _Pnode = _Pnode->_Left;

  00042	8b f9		 mov	 edi, ecx
  00044	8b c8		 mov	 ecx, eax
  00046	80 78 0d 00	 cmp	 BYTE PTR [eax+13], 0
  0004a	74 f4		 je	 SHORT $LL8@operator
$LN9@operator:

; 55   :             }
; 56   : 
; 57   :             _Ptr = _Pnode; // ==> parent (head if end())
; 58   :         } else {
; 59   :             _Ptr = _Mytree::_Min(_Ptr->_Right); // ==> smallest of right subtree
; 60   :         }
; 61   : 
; 62   :         return *this;

  0004c	89 3e		 mov	 DWORD PTR [esi], edi

; 63   :     }

  0004e	8b c6		 mov	 eax, esi
  00050	5f		 pop	 edi
  00051	5e		 pop	 esi
  00052	c3		 ret	 0
??E?$_Tree_unchecked_const_iterator@V?$_Tree_val@U?$_Tree_simple_types@U?$pair@$$CBV?$basic_string@DU?$char_traits@D@std@@V?$allocator@D@2@@std@@M@std@@@std@@@std@@U_Iterator_base0@2@@std@@QAEAAV01@XZ ENDP ; std::_Tree_unchecked_const_iterator<std::_Tree_val<std::_Tree_simple_types<std::pair<std::basic_string<char,std::char_traits<char>,std::allocator<char> > const ,float> > >,std::_Iterator_base0>::operator++
_TEXT	ENDS
; Function compile flags: /Ogtp
; File C:\Program Files\Microsoft Visual Studio\2022\Community\VC\Tools\MSVC\14.34.31933\include\vector
;	COMDAT ?_Xrange@?$vector@USSoundInstance@NSound@@V?$allocator@USSoundInstance@NSound@@@std@@@std@@CAXXZ
_TEXT	SEGMENT
?_Xrange@?$vector@USSoundInstance@NSound@@V?$allocator@USSoundInstance@NSound@@@std@@@std@@CAXXZ PROC ; std::vector<NSound::SSoundInstance,std::allocator<NSound::SSoundInstance> >::_Xrange, COMDAT

; 2205 :         _Xout_of_range("invalid vector subscript");

  00000	68 00 00 00 00	 push	 OFFSET ??_C@_0BJ@DHFDPMIM@invalid?5vector?5subscript@
  00005	e8 00 00 00 00	 call	 ?_Xout_of_range@std@@YAXPBD@Z ; std::_Xout_of_range
$LN3@Xrange:
  0000a	cc		 int	 3
?_Xrange@?$vector@USSoundInstance@NSound@@V?$allocator@USSoundInstance@NSound@@@std@@@std@@CAXXZ ENDP ; std::vector<NSound::SSoundInstance,std::allocator<NSound::SSoundInstance> >::_Xrange
_TEXT	ENDS
; Function compile flags: /Ogtp
;	COMDAT ??__F?ms_SoundManagerStream@CSoundManager@@1VCSoundManagerStream@@A@@YAXXZ
text$yd	SEGMENT
??__F?ms_SoundManagerStream@CSoundManager@@1VCSoundManagerStream@@A@@YAXXZ PROC ; `dynamic atexit destructor for 'CSoundManager::ms_SoundManagerStream'', COMDAT
  00000	b9 00 00 00 00	 mov	 ecx, OFFSET ?ms_SoundManagerStream@CSoundManager@@1VCSoundManagerStream@@A ; CSoundManager::ms_SoundManagerStream
  00005	e9 00 00 00 00	 jmp	 ??1CSoundManagerStream@@UAE@XZ ; CSoundManagerStream::~CSoundManagerStream
??__F?ms_SoundManagerStream@CSoundManager@@1VCSoundManagerStream@@A@@YAXXZ ENDP ; `dynamic atexit destructor for 'CSoundManager::ms_SoundManagerStream''
text$yd	ENDS
; Function compile flags: /Ogtp
; File C:\Users\flourine\Desktop\Xantios\client-src\Code\MilesLib\SoundManager.cpp
;	COMDAT ??__E?ms_SoundManagerStream@CSoundManager@@1VCSoundManagerStream@@A@@YAXXZ
text$di	SEGMENT
??__E?ms_SoundManagerStream@CSoundManager@@1VCSoundManagerStream@@A@@YAXXZ PROC ; `dynamic initializer for 'CSoundManager::ms_SoundManagerStream'', COMDAT

; 9    : CSoundManagerStream CSoundManager::ms_SoundManagerStream;

  00000	b9 00 00 00 00	 mov	 ecx, OFFSET ?ms_SoundManagerStream@CSoundManager@@1VCSoundManagerStream@@A ; CSoundManager::ms_SoundManagerStream
  00005	e8 00 00 00 00	 call	 ??0CSoundManagerStream@@QAE@XZ ; CSoundManagerStream::CSoundManagerStream
  0000a	68 00 00 00 00	 push	 OFFSET ??__F?ms_SoundManagerStream@CSoundManager@@1VCSoundManagerStream@@A@@YAXXZ ; `dynamic atexit destructor for 'CSoundManager::ms_SoundManagerStream''
  0000f	e8 00 00 00 00	 call	 _atexit
  00014	59		 pop	 ecx
  00015	c3		 ret	 0
??__E?ms_SoundManagerStream@CSoundManager@@1VCSoundManagerStream@@A@@YAXXZ ENDP ; `dynamic initializer for 'CSoundManager::ms_SoundManagerStream''
text$di	ENDS
; Function compile flags: /Ogtp
;	COMDAT ??__F?ms_SoundManager3D@CSoundManager@@1VCSoundManager3D@@A@@YAXXZ
text$yd	SEGMENT
??__F?ms_SoundManager3D@CSoundManager@@1VCSoundManager3D@@A@@YAXXZ PROC ; `dynamic atexit destructor for 'CSoundManager::ms_SoundManager3D'', COMDAT
  00000	b9 00 00 00 00	 mov	 ecx, OFFSET ?ms_SoundManager3D@CSoundManager@@1VCSoundManager3D@@A ; CSoundManager::ms_SoundManager3D
  00005	e9 00 00 00 00	 jmp	 ??1CSoundManager3D@@UAE@XZ ; CSoundManager3D::~CSoundManager3D
??__F?ms_SoundManager3D@CSoundManager@@1VCSoundManager3D@@A@@YAXXZ ENDP ; `dynamic atexit destructor for 'CSoundManager::ms_SoundManager3D''
text$yd	ENDS
; Function compile flags: /Ogtp
; File C:\Users\flourine\Desktop\Xantios\client-src\Code\MilesLib\SoundManager.cpp
;	COMDAT ??__E?ms_SoundManager3D@CSoundManager@@1VCSoundManager3D@@A@@YAXXZ
text$di	SEGMENT
??__E?ms_SoundManager3D@CSoundManager@@1VCSoundManager3D@@A@@YAXXZ PROC ; `dynamic initializer for 'CSoundManager::ms_SoundManager3D'', COMDAT

; 8    : CSoundManager3D CSoundManager::ms_SoundManager3D;

  00000	b9 00 00 00 00	 mov	 ecx, OFFSET ?ms_SoundManager3D@CSoundManager@@1VCSoundManager3D@@A ; CSoundManager::ms_SoundManager3D
  00005	e8 00 00 00 00	 call	 ??0CSoundManager3D@@QAE@XZ ; CSoundManager3D::CSoundManager3D
  0000a	68 00 00 00 00	 push	 OFFSET ??__F?ms_SoundManager3D@CSoundManager@@1VCSoundManager3D@@A@@YAXXZ ; `dynamic atexit destructor for 'CSoundManager::ms_SoundManager3D''
  0000f	e8 00 00 00 00	 call	 _atexit
  00014	59		 pop	 ecx
  00015	c3		 ret	 0
??__E?ms_SoundManager3D@CSoundManager@@1VCSoundManager3D@@A@@YAXXZ ENDP ; `dynamic initializer for 'CSoundManager::ms_SoundManager3D''
text$di	ENDS
; Function compile flags: /Ogtp
;	COMDAT ??__F?ms_SoundManager2D@CSoundManager@@1VCSoundManager2D@@A@@YAXXZ
text$yd	SEGMENT
??__F?ms_SoundManager2D@CSoundManager@@1VCSoundManager2D@@A@@YAXXZ PROC ; `dynamic atexit destructor for 'CSoundManager::ms_SoundManager2D'', COMDAT
  00000	b9 00 00 00 00	 mov	 ecx, OFFSET ?ms_SoundManager2D@CSoundManager@@1VCSoundManager2D@@A ; CSoundManager::ms_SoundManager2D
  00005	e9 00 00 00 00	 jmp	 ??1CSoundManager2D@@UAE@XZ ; CSoundManager2D::~CSoundManager2D
??__F?ms_SoundManager2D@CSoundManager@@1VCSoundManager2D@@A@@YAXXZ ENDP ; `dynamic atexit destructor for 'CSoundManager::ms_SoundManager2D''
text$yd	ENDS
; Function compile flags: /Ogtp
; File C:\Users\flourine\Desktop\Xantios\client-src\Code\MilesLib\SoundManager.cpp
;	COMDAT ??__E?ms_SoundManager2D@CSoundManager@@1VCSoundManager2D@@A@@YAXXZ
text$di	SEGMENT
??__E?ms_SoundManager2D@CSoundManager@@1VCSoundManager2D@@A@@YAXXZ PROC ; `dynamic initializer for 'CSoundManager::ms_SoundManager2D'', COMDAT

; 7    : CSoundManager2D CSoundManager::ms_SoundManager2D;

  00000	b9 00 00 00 00	 mov	 ecx, OFFSET ?ms_SoundManager2D@CSoundManager@@1VCSoundManager2D@@A ; CSoundManager::ms_SoundManager2D
  00005	e8 00 00 00 00	 call	 ??0CSoundManager2D@@QAE@XZ ; CSoundManager2D::CSoundManager2D
  0000a	68 00 00 00 00	 push	 OFFSET ??__F?ms_SoundManager2D@CSoundManager@@1VCSoundManager2D@@A@@YAXXZ ; `dynamic atexit destructor for 'CSoundManager::ms_SoundManager2D''
  0000f	e8 00 00 00 00	 call	 _atexit
  00014	59		 pop	 ecx
  00015	c3		 ret	 0
??__E?ms_SoundManager2D@CSoundManager@@1VCSoundManager2D@@A@@YAXXZ ENDP ; `dynamic initializer for 'CSoundManager::ms_SoundManager2D''
text$di	ENDS
; Function compile flags: /Ogtp
;	COMDAT ??_GCSoundManager@@UAEPAXI@Z
_TEXT	SEGMENT
___flags$ = 8						; size = 4
??_GCSoundManager@@UAEPAXI@Z PROC			; CSoundManager::`scalar deleting destructor', COMDAT
; _this$ = ecx
  00000	55		 push	 ebp
  00001	8b ec		 mov	 ebp, esp
  00003	56		 push	 esi
  00004	8b f1		 mov	 esi, ecx
  00006	e8 00 00 00 00	 call	 ??1CSoundManager@@UAE@XZ ; CSoundManager::~CSoundManager
  0000b	f6 45 08 01	 test	 BYTE PTR ___flags$[ebp], 1
  0000f	74 0b		 je	 SHORT $LN4@scalar
  00011	6a 74		 push	 116			; 00000074H
  00013	56		 push	 esi
  00014	e8 00 00 00 00	 call	 ??3@YAXPAXI@Z		; operator delete
  00019	83 c4 08	 add	 esp, 8
$LN4@scalar:
  0001c	8b c6		 mov	 eax, esi
  0001e	5e		 pop	 esi
  0001f	5d		 pop	 ebp
  00020	c2 04 00	 ret	 4
??_GCSoundManager@@UAEPAXI@Z ENDP			; CSoundManager::`scalar deleting destructor'
_TEXT	ENDS
; Function compile flags: /Ogtp
; File C:\Program Files\Microsoft Visual Studio\2022\Community\VC\Tools\MSVC\14.34.31933\include\xtree
;	COMDAT ?_Insert_node@?$_Tree_val@U?$_Tree_simple_types@U?$pair@$$CBV?$basic_string@DU?$char_traits@D@std@@V?$allocator@D@2@@std@@M@std@@@std@@@std@@QAEPAU?$_Tree_node@U?$pair@$$CBV?$basic_string@DU?$char_traits@D@std@@V?$allocator@D@2@@std@@M@std@@PAX@2@U?$_Tree_id@PAU?$_Tree_node@U?$pair@$$CBV?$basic_string@DU?$char_traits@D@std@@V?$allocator@D@2@@std@@M@std@@PAX@std@@@2@QAU32@@Z
_TEXT	SEGMENT
__Head$1$ = -4						; size = 4
__Loc$ = 8						; size = 8
__Newnode$ = 16						; size = 4
?_Insert_node@?$_Tree_val@U?$_Tree_simple_types@U?$pair@$$CBV?$basic_string@DU?$char_traits@D@std@@V?$allocator@D@2@@std@@M@std@@@std@@@std@@QAEPAU?$_Tree_node@U?$pair@$$CBV?$basic_string@DU?$char_traits@D@std@@V?$allocator@D@2@@std@@M@std@@PAX@2@U?$_Tree_id@PAU?$_Tree_node@U?$pair@$$CBV?$basic_string@DU?$char_traits@D@std@@V?$allocator@D@2@@std@@M@std@@PAX@std@@@2@QAU32@@Z PROC ; std::_Tree_val<std::_Tree_simple_types<std::pair<std::basic_string<char,std::char_traits<char>,std::allocator<char> > const ,float> > >::_Insert_node, COMDAT
; _this$ = ecx

; 646  :     _Nodeptr _Insert_node(const _Tree_id<_Nodeptr> _Loc, const _Nodeptr _Newnode) noexcept {

  00000	55		 push	 ebp
  00001	8b ec		 mov	 ebp, esp
  00003	51		 push	 ecx

; 647  :         ++_Mysize;
; 648  :         const auto _Head  = _Myhead;
; 649  :         _Newnode->_Parent = _Loc._Parent;

  00004	8b 55 08	 mov	 edx, DWORD PTR __Loc$[ebp]
  00007	53		 push	 ebx
  00008	8b d9		 mov	 ebx, ecx
  0000a	57		 push	 edi
  0000b	8b 7d 10	 mov	 edi, DWORD PTR __Newnode$[ebp]
  0000e	8b 03		 mov	 eax, DWORD PTR [ebx]
  00010	ff 43 04	 inc	 DWORD PTR [ebx+4]
  00013	89 45 fc	 mov	 DWORD PTR __Head$1$[ebp], eax
  00016	89 57 04	 mov	 DWORD PTR [edi+4], edx

; 650  :         if (_Loc._Parent == _Head) { // first node in tree, just set head values

  00019	3b d0		 cmp	 edx, eax
  0001b	75 16		 jne	 SHORT $LN5@Insert_nod

; 651  :             _Head->_Left     = _Newnode;

  0001d	89 38		 mov	 DWORD PTR [eax], edi

; 652  :             _Head->_Parent   = _Newnode;

  0001f	89 78 04	 mov	 DWORD PTR [eax+4], edi

; 653  :             _Head->_Right    = _Newnode;

  00022	89 78 08	 mov	 DWORD PTR [eax+8], edi

; 712  :         return _Newnode;
; 713  :     }

  00025	8b c7		 mov	 eax, edi
  00027	c6 47 0c 01	 mov	 BYTE PTR [edi+12], 1
  0002b	5f		 pop	 edi
  0002c	5b		 pop	 ebx
  0002d	8b e5		 mov	 esp, ebp
  0002f	5d		 pop	 ebp
  00030	c2 0c 00	 ret	 12			; 0000000cH
$LN5@Insert_nod:

; 654  :             _Newnode->_Color = _Black; // the root is black
; 655  :             return _Newnode;
; 656  :         }
; 657  : 
; 658  :         _STL_INTERNAL_CHECK(_Loc._Child != _Tree_child::_Unused);
; 659  :         if (_Loc._Child == _Tree_child::_Right) { // add to right of _Loc._Parent

  00033	83 7d 0c 00	 cmp	 DWORD PTR __Loc$[ebp+4], 0
  00037	75 0d		 jne	 SHORT $LN6@Insert_nod

; 660  :             _STL_INTERNAL_CHECK(_Loc._Parent->_Right->_Isnil);
; 661  :             _Loc._Parent->_Right = _Newnode;

  00039	89 7a 08	 mov	 DWORD PTR [edx+8], edi

; 662  :             if (_Loc._Parent == _Head->_Right) { // remember rightmost node

  0003c	3b 50 08	 cmp	 edx, DWORD PTR [eax+8]
  0003f	75 0d		 jne	 SHORT $LN9@Insert_nod

; 663  :                 _Head->_Right = _Newnode;

  00041	89 78 08	 mov	 DWORD PTR [eax+8], edi

; 664  :             }
; 665  :         } else { // add to left of _Loc._Parent

  00044	eb 08		 jmp	 SHORT $LN9@Insert_nod
$LN6@Insert_nod:

; 666  :             _STL_INTERNAL_CHECK(_Loc._Parent->_Left->_Isnil);
; 667  :             _Loc._Parent->_Left = _Newnode;

  00046	89 3a		 mov	 DWORD PTR [edx], edi

; 668  :             if (_Loc._Parent == _Head->_Left) { // remember leftmost node

  00048	3b 10		 cmp	 edx, DWORD PTR [eax]
  0004a	75 02		 jne	 SHORT $LN9@Insert_nod

; 669  :                 _Head->_Left = _Newnode;

  0004c	89 38		 mov	 DWORD PTR [eax], edi
$LN9@Insert_nod:

; 670  :             }
; 671  :         }
; 672  : 
; 673  :         for (_Nodeptr _Pnode = _Newnode; _Pnode->_Parent->_Color == _Red;) {

  0004e	8b 4f 04	 mov	 ecx, DWORD PTR [edi+4]
  00051	8b c7		 mov	 eax, edi
  00053	80 79 0c 00	 cmp	 BYTE PTR [ecx+12], 0
  00057	0f 85 7d 01 00
	00		 jne	 $LN3@Insert_nod
  0005d	56		 push	 esi
  0005e	66 90		 npad	 2
$LL2@Insert_nod:

; 674  :             if (_Pnode->_Parent == _Pnode->_Parent->_Parent->_Left) { // fixup red-red in left subtree

  00060	8b 50 04	 mov	 edx, DWORD PTR [eax+4]
  00063	8b 72 04	 mov	 esi, DWORD PTR [edx+4]
  00066	8b 0e		 mov	 ecx, DWORD PTR [esi]
  00068	3b d1		 cmp	 edx, ecx
  0006a	0f 85 aa 00 00
	00		 jne	 $LN10@Insert_nod

; 675  :                 const auto _Parent_sibling = _Pnode->_Parent->_Parent->_Right;

  00070	8b 4e 08	 mov	 ecx, DWORD PTR [esi+8]

; 676  :                 if (_Parent_sibling->_Color == _Red) { // parent's sibling has two red children, blacken both

  00073	80 79 0c 00	 cmp	 BYTE PTR [ecx+12], 0
  00077	0f 84 a3 00 00
	00		 je	 $LN54@Insert_nod

; 677  :                     _Pnode->_Parent->_Color          = _Black;
; 678  :                     _Parent_sibling->_Color          = _Black;
; 679  :                     _Pnode->_Parent->_Parent->_Color = _Red;
; 680  :                     _Pnode                           = _Pnode->_Parent->_Parent;
; 681  :                 } else { // parent's sibling has red and black children
; 682  :                     if (_Pnode == _Pnode->_Parent->_Right) { // rotate right child to left

  0007d	8b 72 08	 mov	 esi, DWORD PTR [edx+8]
  00080	3b c6		 cmp	 eax, esi
  00082	75 37		 jne	 SHORT $LN51@Insert_nod

; 462  :         _Wherenode->_Right = _Pnode->_Left;

  00084	8b 0e		 mov	 ecx, DWORD PTR [esi]

; 683  :                         _Pnode = _Pnode->_Parent;

  00086	8b c2		 mov	 eax, edx

; 462  :         _Wherenode->_Right = _Pnode->_Left;

  00088	89 4a 08	 mov	 DWORD PTR [edx+8], ecx

; 463  : 
; 464  :         if (!_Pnode->_Left->_Isnil) {

  0008b	8b 0e		 mov	 ecx, DWORD PTR [esi]
  0008d	80 79 0d 00	 cmp	 BYTE PTR [ecx+13], 0
  00091	75 03		 jne	 SHORT $LN34@Insert_nod

; 465  :             _Pnode->_Left->_Parent = _Wherenode;

  00093	89 41 04	 mov	 DWORD PTR [ecx+4], eax
$LN34@Insert_nod:

; 466  :         }
; 467  : 
; 468  :         _Pnode->_Parent = _Wherenode->_Parent;

  00096	8b 4a 04	 mov	 ecx, DWORD PTR [edx+4]
  00099	89 4e 04	 mov	 DWORD PTR [esi+4], ecx

; 469  : 
; 470  :         if (_Wherenode == _Myhead->_Parent) {

  0009c	8b 0b		 mov	 ecx, DWORD PTR [ebx]
  0009e	3b 41 04	 cmp	 eax, DWORD PTR [ecx+4]
  000a1	75 05		 jne	 SHORT $LN35@Insert_nod

; 471  :             _Myhead->_Parent = _Pnode;

  000a3	89 71 04	 mov	 DWORD PTR [ecx+4], esi
  000a6	eb 0e		 jmp	 SHORT $LN38@Insert_nod
$LN35@Insert_nod:

; 472  :         } else if (_Wherenode == _Wherenode->_Parent->_Left) {

  000a8	8b 4a 04	 mov	 ecx, DWORD PTR [edx+4]
  000ab	3b 01		 cmp	 eax, DWORD PTR [ecx]
  000ad	75 04		 jne	 SHORT $LN37@Insert_nod

; 473  :             _Wherenode->_Parent->_Left = _Pnode;

  000af	89 31		 mov	 DWORD PTR [ecx], esi

; 474  :         } else {

  000b1	eb 03		 jmp	 SHORT $LN38@Insert_nod
$LN37@Insert_nod:

; 475  :             _Wherenode->_Parent->_Right = _Pnode;

  000b3	89 71 08	 mov	 DWORD PTR [ecx+8], esi
$LN38@Insert_nod:

; 476  :         }
; 477  : 
; 478  :         _Pnode->_Left       = _Wherenode;

  000b6	89 06		 mov	 DWORD PTR [esi], eax

; 479  :         _Wherenode->_Parent = _Pnode;

  000b8	89 72 04	 mov	 DWORD PTR [edx+4], esi
$LN51@Insert_nod:

; 684  :                         _Lrotate(_Pnode);
; 685  :                     }
; 686  : 
; 687  :                     _Pnode->_Parent->_Color          = _Black; // propagate red up

  000bb	8b 48 04	 mov	 ecx, DWORD PTR [eax+4]
  000be	c6 41 0c 01	 mov	 BYTE PTR [ecx+12], 1

; 688  :                     _Pnode->_Parent->_Parent->_Color = _Red;

  000c2	8b 48 04	 mov	 ecx, DWORD PTR [eax+4]
  000c5	8b 49 04	 mov	 ecx, DWORD PTR [ecx+4]
  000c8	c6 41 0c 00	 mov	 BYTE PTR [ecx+12], 0

; 689  :                     _Rrotate(_Pnode->_Parent->_Parent);

  000cc	8b 48 04	 mov	 ecx, DWORD PTR [eax+4]
  000cf	8b 51 04	 mov	 edx, DWORD PTR [ecx+4]

; 483  :         _Nodeptr _Pnode   = _Wherenode->_Left;

  000d2	8b 32		 mov	 esi, DWORD PTR [edx]

; 484  :         _Wherenode->_Left = _Pnode->_Right;

  000d4	8b 4e 08	 mov	 ecx, DWORD PTR [esi+8]
  000d7	89 0a		 mov	 DWORD PTR [edx], ecx

; 485  : 
; 486  :         if (!_Pnode->_Right->_Isnil) {

  000d9	8b 4e 08	 mov	 ecx, DWORD PTR [esi+8]
  000dc	80 79 0d 00	 cmp	 BYTE PTR [ecx+13], 0
  000e0	75 03		 jne	 SHORT $LN20@Insert_nod

; 487  :             _Pnode->_Right->_Parent = _Wherenode;

  000e2	89 51 04	 mov	 DWORD PTR [ecx+4], edx
$LN20@Insert_nod:

; 488  :         }
; 489  : 
; 490  :         _Pnode->_Parent = _Wherenode->_Parent;

  000e5	8b 4a 04	 mov	 ecx, DWORD PTR [edx+4]
  000e8	89 4e 04	 mov	 DWORD PTR [esi+4], ecx

; 491  : 
; 492  :         if (_Wherenode == _Myhead->_Parent) {

  000eb	8b 0b		 mov	 ecx, DWORD PTR [ebx]
  000ed	3b 51 04	 cmp	 edx, DWORD PTR [ecx+4]
  000f0	75 0b		 jne	 SHORT $LN21@Insert_nod

; 493  :             _Myhead->_Parent = _Pnode;

  000f2	89 71 04	 mov	 DWORD PTR [ecx+4], esi

; 498  :         }
; 499  : 
; 500  :         _Pnode->_Right      = _Wherenode;

  000f5	89 56 08	 mov	 DWORD PTR [esi+8], edx

; 690  :                 }
; 691  :             } else { // fixup red-red in right subtree

  000f8	e9 cc 00 00 00	 jmp	 $LN53@Insert_nod
$LN21@Insert_nod:

; 494  :         } else if (_Wherenode == _Wherenode->_Parent->_Right) {

  000fd	8b 4a 04	 mov	 ecx, DWORD PTR [edx+4]
  00100	3b 51 08	 cmp	 edx, DWORD PTR [ecx+8]
  00103	75 0b		 jne	 SHORT $LN23@Insert_nod

; 495  :             _Wherenode->_Parent->_Right = _Pnode;

  00105	89 71 08	 mov	 DWORD PTR [ecx+8], esi

; 498  :         }
; 499  : 
; 500  :         _Pnode->_Right      = _Wherenode;

  00108	89 56 08	 mov	 DWORD PTR [esi+8], edx

; 690  :                 }
; 691  :             } else { // fixup red-red in right subtree

  0010b	e9 b9 00 00 00	 jmp	 $LN53@Insert_nod
$LN23@Insert_nod:

; 497  :             _Wherenode->_Parent->_Left = _Pnode;

  00110	89 31		 mov	 DWORD PTR [ecx], esi

; 498  :         }
; 499  : 
; 500  :         _Pnode->_Right      = _Wherenode;

  00112	89 56 08	 mov	 DWORD PTR [esi+8], edx

; 690  :                 }
; 691  :             } else { // fixup red-red in right subtree

  00115	e9 af 00 00 00	 jmp	 $LN53@Insert_nod
$LN10@Insert_nod:

; 692  :                 const auto _Parent_sibling = _Pnode->_Parent->_Parent->_Left;
; 693  :                 if (_Parent_sibling->_Color == _Red) { // parent's sibling has two red children, blacken both

  0011a	80 79 0c 00	 cmp	 BYTE PTR [ecx+12], 0
  0011e	75 1d		 jne	 SHORT $LN15@Insert_nod
$LN54@Insert_nod:

; 670  :             }
; 671  :         }
; 672  : 
; 673  :         for (_Nodeptr _Pnode = _Newnode; _Pnode->_Parent->_Color == _Red;) {

  00120	c6 42 0c 01	 mov	 BYTE PTR [edx+12], 1
  00124	c6 41 0c 01	 mov	 BYTE PTR [ecx+12], 1
  00128	8b 48 04	 mov	 ecx, DWORD PTR [eax+4]
  0012b	8b 49 04	 mov	 ecx, DWORD PTR [ecx+4]
  0012e	c6 41 0c 00	 mov	 BYTE PTR [ecx+12], 0
  00132	8b 48 04	 mov	 ecx, DWORD PTR [eax+4]
  00135	8b 41 04	 mov	 eax, DWORD PTR [ecx+4]
  00138	e9 8f 00 00 00	 jmp	 $LN32@Insert_nod
$LN15@Insert_nod:

; 694  :                     _Pnode->_Parent->_Color          = _Black;
; 695  :                     _Parent_sibling->_Color          = _Black;
; 696  :                     _Pnode->_Parent->_Parent->_Color = _Red;
; 697  :                     _Pnode                           = _Pnode->_Parent->_Parent;
; 698  :                 } else { // parent's sibling has red and black children
; 699  :                     if (_Pnode == _Pnode->_Parent->_Left) { // rotate left child to right

  0013d	8b 32		 mov	 esi, DWORD PTR [edx]
  0013f	3b c6		 cmp	 eax, esi
  00141	75 3a		 jne	 SHORT $LN46@Insert_nod

; 484  :         _Wherenode->_Left = _Pnode->_Right;

  00143	8b 4e 08	 mov	 ecx, DWORD PTR [esi+8]

; 700  :                         _Pnode = _Pnode->_Parent;

  00146	8b c2		 mov	 eax, edx

; 484  :         _Wherenode->_Left = _Pnode->_Right;

  00148	89 08		 mov	 DWORD PTR [eax], ecx

; 485  : 
; 486  :         if (!_Pnode->_Right->_Isnil) {

  0014a	8b 4e 08	 mov	 ecx, DWORD PTR [esi+8]
  0014d	80 79 0d 00	 cmp	 BYTE PTR [ecx+13], 0
  00151	75 03		 jne	 SHORT $LN41@Insert_nod

; 487  :             _Pnode->_Right->_Parent = _Wherenode;

  00153	89 41 04	 mov	 DWORD PTR [ecx+4], eax
$LN41@Insert_nod:

; 488  :         }
; 489  : 
; 490  :         _Pnode->_Parent = _Wherenode->_Parent;

  00156	8b 4a 04	 mov	 ecx, DWORD PTR [edx+4]
  00159	89 4e 04	 mov	 DWORD PTR [esi+4], ecx

; 491  : 
; 492  :         if (_Wherenode == _Myhead->_Parent) {

  0015c	8b 0b		 mov	 ecx, DWORD PTR [ebx]
  0015e	3b 41 04	 cmp	 eax, DWORD PTR [ecx+4]
  00161	75 05		 jne	 SHORT $LN42@Insert_nod

; 493  :             _Myhead->_Parent = _Pnode;

  00163	89 71 04	 mov	 DWORD PTR [ecx+4], esi
  00166	eb 0f		 jmp	 SHORT $LN45@Insert_nod
$LN42@Insert_nod:

; 494  :         } else if (_Wherenode == _Wherenode->_Parent->_Right) {

  00168	8b 4a 04	 mov	 ecx, DWORD PTR [edx+4]
  0016b	3b 41 08	 cmp	 eax, DWORD PTR [ecx+8]
  0016e	75 05		 jne	 SHORT $LN44@Insert_nod

; 495  :             _Wherenode->_Parent->_Right = _Pnode;

  00170	89 71 08	 mov	 DWORD PTR [ecx+8], esi

; 496  :         } else {

  00173	eb 02		 jmp	 SHORT $LN45@Insert_nod
$LN44@Insert_nod:

; 497  :             _Wherenode->_Parent->_Left = _Pnode;

  00175	89 31		 mov	 DWORD PTR [ecx], esi
$LN45@Insert_nod:

; 498  :         }
; 499  : 
; 500  :         _Pnode->_Right      = _Wherenode;

  00177	89 46 08	 mov	 DWORD PTR [esi+8], eax

; 501  :         _Wherenode->_Parent = _Pnode;

  0017a	89 72 04	 mov	 DWORD PTR [edx+4], esi
$LN46@Insert_nod:

; 701  :                         _Rrotate(_Pnode);
; 702  :                     }
; 703  : 
; 704  :                     _Pnode->_Parent->_Color          = _Black; // propagate red up

  0017d	8b 48 04	 mov	 ecx, DWORD PTR [eax+4]
  00180	c6 41 0c 01	 mov	 BYTE PTR [ecx+12], 1

; 705  :                     _Pnode->_Parent->_Parent->_Color = _Red;

  00184	8b 48 04	 mov	 ecx, DWORD PTR [eax+4]
  00187	8b 49 04	 mov	 ecx, DWORD PTR [ecx+4]
  0018a	c6 41 0c 00	 mov	 BYTE PTR [ecx+12], 0

; 706  :                     _Lrotate(_Pnode->_Parent->_Parent);

  0018e	8b 48 04	 mov	 ecx, DWORD PTR [eax+4]
  00191	8b 51 04	 mov	 edx, DWORD PTR [ecx+4]

; 461  :         _Nodeptr _Pnode    = _Wherenode->_Right;

  00194	8b 72 08	 mov	 esi, DWORD PTR [edx+8]

; 462  :         _Wherenode->_Right = _Pnode->_Left;

  00197	8b 0e		 mov	 ecx, DWORD PTR [esi]
  00199	89 4a 08	 mov	 DWORD PTR [edx+8], ecx

; 463  : 
; 464  :         if (!_Pnode->_Left->_Isnil) {

  0019c	8b 0e		 mov	 ecx, DWORD PTR [esi]
  0019e	80 79 0d 00	 cmp	 BYTE PTR [ecx+13], 0
  001a2	75 03		 jne	 SHORT $LN27@Insert_nod

; 465  :             _Pnode->_Left->_Parent = _Wherenode;

  001a4	89 51 04	 mov	 DWORD PTR [ecx+4], edx
$LN27@Insert_nod:

; 466  :         }
; 467  : 
; 468  :         _Pnode->_Parent = _Wherenode->_Parent;

  001a7	8b 4a 04	 mov	 ecx, DWORD PTR [edx+4]
  001aa	89 4e 04	 mov	 DWORD PTR [esi+4], ecx

; 469  : 
; 470  :         if (_Wherenode == _Myhead->_Parent) {

  001ad	8b 0b		 mov	 ecx, DWORD PTR [ebx]
  001af	3b 51 04	 cmp	 edx, DWORD PTR [ecx+4]
  001b2	75 05		 jne	 SHORT $LN28@Insert_nod

; 471  :             _Myhead->_Parent = _Pnode;

  001b4	89 71 04	 mov	 DWORD PTR [ecx+4], esi
  001b7	eb 0e		 jmp	 SHORT $LN31@Insert_nod
$LN28@Insert_nod:

; 472  :         } else if (_Wherenode == _Wherenode->_Parent->_Left) {

  001b9	8b 4a 04	 mov	 ecx, DWORD PTR [edx+4]
  001bc	3b 11		 cmp	 edx, DWORD PTR [ecx]
  001be	75 04		 jne	 SHORT $LN30@Insert_nod

; 473  :             _Wherenode->_Parent->_Left = _Pnode;

  001c0	89 31		 mov	 DWORD PTR [ecx], esi

; 474  :         } else {

  001c2	eb 03		 jmp	 SHORT $LN31@Insert_nod
$LN30@Insert_nod:

; 475  :             _Wherenode->_Parent->_Right = _Pnode;

  001c4	89 71 08	 mov	 DWORD PTR [ecx+8], esi
$LN31@Insert_nod:

; 476  :         }
; 477  : 
; 478  :         _Pnode->_Left       = _Wherenode;

  001c7	89 16		 mov	 DWORD PTR [esi], edx
$LN53@Insert_nod:

; 670  :             }
; 671  :         }
; 672  : 
; 673  :         for (_Nodeptr _Pnode = _Newnode; _Pnode->_Parent->_Color == _Red;) {

  001c9	89 72 04	 mov	 DWORD PTR [edx+4], esi
$LN32@Insert_nod:
  001cc	8b 48 04	 mov	 ecx, DWORD PTR [eax+4]
  001cf	80 79 0c 00	 cmp	 BYTE PTR [ecx+12], 0
  001d3	0f 84 87 fe ff
	ff		 je	 $LL2@Insert_nod
  001d9	5e		 pop	 esi
$LN3@Insert_nod:

; 707  :                 }
; 708  :             }
; 709  :         }
; 710  : 
; 711  :         _Head->_Parent->_Color = _Black; // root is always black

  001da	8b 45 fc	 mov	 eax, DWORD PTR __Head$1$[ebp]
  001dd	8b 40 04	 mov	 eax, DWORD PTR [eax+4]
  001e0	c6 40 0c 01	 mov	 BYTE PTR [eax+12], 1

; 712  :         return _Newnode;
; 713  :     }

  001e4	8b c7		 mov	 eax, edi
  001e6	5f		 pop	 edi
  001e7	5b		 pop	 ebx
  001e8	8b e5		 mov	 esp, ebp
  001ea	5d		 pop	 ebp
  001eb	c2 0c 00	 ret	 12			; 0000000cH
?_Insert_node@?$_Tree_val@U?$_Tree_simple_types@U?$pair@$$CBV?$basic_string@DU?$char_traits@D@std@@V?$allocator@D@2@@std@@M@std@@@std@@@std@@QAEPAU?$_Tree_node@U?$pair@$$CBV?$basic_string@DU?$char_traits@D@std@@V?$allocator@D@2@@std@@M@std@@PAX@2@U?$_Tree_id@PAU?$_Tree_node@U?$pair@$$CBV?$basic_string@DU?$char_traits@D@std@@V?$allocator@D@2@@std@@M@std@@PAX@std@@@2@QAU32@@Z ENDP ; std::_Tree_val<std::_Tree_simple_types<std::pair<std::basic_string<char,std::char_traits<char>,std::allocator<char> > const ,float> > >::_Insert_node
_TEXT	ENDS
; Function compile flags: /Ogtp
; File C:\Program Files\Microsoft Visual Studio\2022\Community\VC\Tools\MSVC\14.34.31933\include\xtree
; File C:\Program Files\Microsoft Visual Studio\2022\Community\VC\Tools\MSVC\14.34.31933\include\utility
; File C:\Program Files\Microsoft Visual Studio\2022\Community\VC\Tools\MSVC\14.34.31933\include\xtree
;	COMDAT ?_Extract@?$_Tree_val@U?$_Tree_simple_types@U?$pair@$$CBV?$basic_string@DU?$char_traits@D@std@@V?$allocator@D@2@@std@@M@std@@@std@@@std@@QAEPAU?$_Tree_node@U?$pair@$$CBV?$basic_string@DU?$char_traits@D@std@@V?$allocator@D@2@@std@@M@std@@PAX@2@V?$_Tree_unchecked_const_iterator@V?$_Tree_val@U?$_Tree_simple_types@U?$pair@$$CBV?$basic_string@DU?$char_traits@D@std@@V?$allocator@D@2@@std@@M@std@@@std@@@std@@U_Iterator_base0@2@@2@@Z
_TEXT	SEGMENT
tv1038 = -16						; size = 4
$T1 = -12						; size = 4
tv1091 = -12						; size = 4
tv1075 = -12						; size = 4
tv1042 = -12						; size = 4
__Erasednode$1$ = -8					; size = 4
_this$1$ = -4						; size = 4
__Where$ = 8						; size = 4
?_Extract@?$_Tree_val@U?$_Tree_simple_types@U?$pair@$$CBV?$basic_string@DU?$char_traits@D@std@@V?$allocator@D@2@@std@@M@std@@@std@@@std@@QAEPAU?$_Tree_node@U?$pair@$$CBV?$basic_string@DU?$char_traits@D@std@@V?$allocator@D@2@@std@@M@std@@PAX@2@V?$_Tree_unchecked_const_iterator@V?$_Tree_val@U?$_Tree_simple_types@U?$pair@$$CBV?$basic_string@DU?$char_traits@D@std@@V?$allocator@D@2@@std@@M@std@@@std@@@std@@U_Iterator_base0@2@@2@@Z PROC ; std::_Tree_val<std::_Tree_simple_types<std::pair<std::basic_string<char,std::char_traits<char>,std::allocator<char> > const ,float> > >::_Extract, COMDAT
; _this$ = ecx

; 504  :     _Nodeptr _Extract(_Unchecked_const_iterator _Where) noexcept {

  00000	55		 push	 ebp
  00001	8b ec		 mov	 ebp, esp
  00003	83 ec 10	 sub	 esp, 16			; 00000010H
  00006	53		 push	 ebx

; 505  :         _Nodeptr _Erasednode = _Where._Ptr; // node to erase

  00007	8b 5d 08	 mov	 ebx, DWORD PTR __Where$[ebp]
  0000a	56		 push	 esi
  0000b	89 4d fc	 mov	 DWORD PTR _this$1$[ebp], ecx

; 506  :         ++_Where; // save successor iterator for return

  0000e	8d 4d 08	 lea	 ecx, DWORD PTR __Where$[ebp]
  00011	57		 push	 edi
  00012	89 5d f8	 mov	 DWORD PTR __Erasednode$1$[ebp], ebx
  00015	e8 00 00 00 00	 call	 ??E?$_Tree_unchecked_const_iterator@V?$_Tree_val@U?$_Tree_simple_types@U?$pair@$$CBV?$basic_string@DU?$char_traits@D@std@@V?$allocator@D@2@@std@@M@std@@@std@@@std@@U_Iterator_base0@2@@std@@QAEAAV01@XZ ; std::_Tree_unchecked_const_iterator<std::_Tree_val<std::_Tree_simple_types<std::pair<std::basic_string<char,std::char_traits<char>,std::allocator<char> > const ,float> > >,std::_Iterator_base0>::operator++

; 507  : 
; 508  :         _Nodeptr _Fixnode; // the node to recolor as needed
; 509  :         _Nodeptr _Fixnodeparent; // parent of _Fixnode (which may be nil)
; 510  :         _Nodeptr _Pnode = _Erasednode;
; 511  : 
; 512  :         if (_Pnode->_Left->_Isnil) {

  0001a	8b 03		 mov	 eax, DWORD PTR [ebx]
  0001c	8b 7b 08	 mov	 edi, DWORD PTR [ebx+8]
  0001f	80 78 0d 00	 cmp	 BYTE PTR [eax+13], 0
  00023	75 18		 jne	 SHORT $LN86@Extract

; 513  :             _Fixnode = _Pnode->_Right; // stitch up right subtree
; 514  :         } else if (_Pnode->_Right->_Isnil) {

  00025	80 7f 0d 00	 cmp	 BYTE PTR [edi+13], 0
  00029	74 04		 je	 SHORT $LN7@Extract

; 515  :             _Fixnode = _Pnode->_Left; // stitch up left subtree

  0002b	8b f8		 mov	 edi, eax

; 516  :         } else { // two subtrees, must lift successor node to replace erased

  0002d	eb 0e		 jmp	 SHORT $LN86@Extract
$LN7@Extract:

; 517  :             _Pnode   = _Where._Ptr; // _Pnode is successor node

  0002f	8b 55 08	 mov	 edx, DWORD PTR __Where$[ebp]

; 518  :             _Fixnode = _Pnode->_Right; // _Fixnode is only subtree

  00032	8b 7a 08	 mov	 edi, DWORD PTR [edx+8]
  00035	3b d3		 cmp	 edx, ebx

; 519  :         }
; 520  : 
; 521  :         if (_Pnode == _Erasednode) { // at most one subtree, relink it

  00037	0f 85 95 00 00
	00		 jne	 $LN9@Extract
$LN86@Extract:

; 522  :             _Fixnodeparent = _Erasednode->_Parent;
; 523  :             if (!_Fixnode->_Isnil) {

  0003d	80 7f 0d 00	 cmp	 BYTE PTR [edi+13], 0
  00041	8b 73 04	 mov	 esi, DWORD PTR [ebx+4]
  00044	75 03		 jne	 SHORT $LN11@Extract

; 524  :                 _Fixnode->_Parent = _Fixnodeparent; // link up

  00046	89 77 04	 mov	 DWORD PTR [edi+4], esi
$LN11@Extract:

; 525  :             }
; 526  : 
; 527  :             if (_Myhead->_Parent == _Erasednode) {

  00049	8b 55 fc	 mov	 edx, DWORD PTR _this$1$[ebp]
  0004c	8b 02		 mov	 eax, DWORD PTR [edx]
  0004e	39 58 04	 cmp	 DWORD PTR [eax+4], ebx
  00051	75 05		 jne	 SHORT $LN12@Extract

; 528  :                 _Myhead->_Parent = _Fixnode; // link down from root

  00053	89 78 04	 mov	 DWORD PTR [eax+4], edi
  00056	eb 0b		 jmp	 SHORT $LN15@Extract
$LN12@Extract:

; 529  :             } else if (_Fixnodeparent->_Left == _Erasednode) {

  00058	39 1e		 cmp	 DWORD PTR [esi], ebx
  0005a	75 04		 jne	 SHORT $LN14@Extract

; 530  :                 _Fixnodeparent->_Left = _Fixnode; // link down to left

  0005c	89 3e		 mov	 DWORD PTR [esi], edi

; 531  :             } else {

  0005e	eb 03		 jmp	 SHORT $LN15@Extract
$LN14@Extract:

; 532  :                 _Fixnodeparent->_Right = _Fixnode; // link down to right

  00060	89 7e 08	 mov	 DWORD PTR [esi+8], edi
$LN15@Extract:

; 533  :             }
; 534  : 
; 535  :             if (_Myhead->_Left == _Erasednode) {

  00063	8b 02		 mov	 eax, DWORD PTR [edx]
  00065	89 45 f4	 mov	 DWORD PTR tv1075[ebp], eax
  00068	39 18		 cmp	 DWORD PTR [eax], ebx
  0006a	75 28		 jne	 SHORT $LN16@Extract

; 536  :                 _Myhead->_Left = _Fixnode->_Isnil ? _Fixnodeparent // smallest is parent of erased node

  0006c	80 7f 0d 00	 cmp	 BYTE PTR [edi+13], 0
  00070	74 04		 je	 SHORT $LN42@Extract
  00072	8b d6		 mov	 edx, esi
  00074	eb 19		 jmp	 SHORT $LN64@Extract
$LN42@Extract:

; 453  :         while (!_Pnode->_Left->_Isnil) {

  00076	8b 0f		 mov	 ecx, DWORD PTR [edi]

; 536  :                 _Myhead->_Left = _Fixnode->_Isnil ? _Fixnodeparent // smallest is parent of erased node

  00078	8b d7		 mov	 edx, edi

; 453  :         while (!_Pnode->_Left->_Isnil) {

  0007a	80 79 0d 00	 cmp	 BYTE PTR [ecx+13], 0
  0007e	75 0f		 jne	 SHORT $LN64@Extract
$LL63@Extract:
  00080	8b 01		 mov	 eax, DWORD PTR [ecx]

; 454  :             _Pnode = _Pnode->_Left;

  00082	8b d1		 mov	 edx, ecx
  00084	8b c8		 mov	 ecx, eax
  00086	80 78 0d 00	 cmp	 BYTE PTR [eax+13], 0
  0008a	74 f4		 je	 SHORT $LL63@Extract
  0008c	8b 45 f4	 mov	 eax, DWORD PTR tv1075[ebp]
$LN64@Extract:

; 536  :                 _Myhead->_Left = _Fixnode->_Isnil ? _Fixnodeparent // smallest is parent of erased node

  0008f	89 10		 mov	 DWORD PTR [eax], edx
  00091	8b 55 fc	 mov	 edx, DWORD PTR _this$1$[ebp]
$LN16@Extract:

; 537  :                                                   : _Min(_Fixnode); // smallest in relinked subtree
; 538  :             }
; 539  : 
; 540  :             if (_Myhead->_Right == _Erasednode) {

  00094	8b 02		 mov	 eax, DWORD PTR [edx]
  00096	39 58 08	 cmp	 DWORD PTR [eax+8], ebx
  00099	0f 85 a0 00 00
	00		 jne	 $LN47@Extract

; 541  :                 _Myhead->_Right = _Fixnode->_Isnil ? _Fixnodeparent // largest is parent of erased node

  0009f	80 7f 0d 00	 cmp	 BYTE PTR [edi+13], 0
  000a3	74 0a		 je	 SHORT $LN44@Extract
  000a5	8b ce		 mov	 ecx, esi
  000a7	89 48 08	 mov	 DWORD PTR [eax+8], ecx

; 542  :                                                    : _Max(_Fixnode); // largest in relinked subtree
; 543  :             }
; 544  :         } else { // erased has two subtrees, _Pnode is successor to erased

  000aa	e9 90 00 00 00	 jmp	 $LN47@Extract
$LN44@Extract:

; 445  :         while (!_Pnode->_Right->_Isnil) {

  000af	8b 47 08	 mov	 eax, DWORD PTR [edi+8]

; 541  :                 _Myhead->_Right = _Fixnode->_Isnil ? _Fixnodeparent // largest is parent of erased node

  000b2	8b cf		 mov	 ecx, edi

; 445  :         while (!_Pnode->_Right->_Isnil) {

  000b4	80 78 0d 00	 cmp	 BYTE PTR [eax+13], 0
  000b8	75 11		 jne	 SHORT $LN68@Extract
  000ba	66 0f 1f 44 00
	00		 npad	 6
$LL67@Extract:

; 446  :             _Pnode = _Pnode->_Right;

  000c0	8b c8		 mov	 ecx, eax
  000c2	8b 41 08	 mov	 eax, DWORD PTR [ecx+8]
  000c5	80 78 0d 00	 cmp	 BYTE PTR [eax+13], 0
  000c9	74 f5		 je	 SHORT $LL67@Extract
$LN68@Extract:
  000cb	8b 02		 mov	 eax, DWORD PTR [edx]

; 541  :                 _Myhead->_Right = _Fixnode->_Isnil ? _Fixnodeparent // largest is parent of erased node

  000cd	89 48 08	 mov	 DWORD PTR [eax+8], ecx

; 542  :                                                    : _Max(_Fixnode); // largest in relinked subtree
; 543  :             }
; 544  :         } else { // erased has two subtrees, _Pnode is successor to erased

  000d0	eb 6d		 jmp	 SHORT $LN47@Extract
$LN9@Extract:

; 545  :             _Erasednode->_Left->_Parent = _Pnode; // link left up

  000d2	89 50 04	 mov	 DWORD PTR [eax+4], edx

; 546  :             _Pnode->_Left               = _Erasednode->_Left; // link successor down
; 547  : 
; 548  :             if (_Pnode == _Erasednode->_Right) {

  000d5	8d 4a 04	 lea	 ecx, DWORD PTR [edx+4]
  000d8	8b 03		 mov	 eax, DWORD PTR [ebx]
  000da	89 02		 mov	 DWORD PTR [edx], eax
  000dc	89 4d f4	 mov	 DWORD PTR $T1[ebp], ecx
  000df	3b 53 08	 cmp	 edx, DWORD PTR [ebx+8]
  000e2	75 04		 jne	 SHORT $LN18@Extract

; 549  :                 _Fixnodeparent = _Pnode; // successor is next to erased

  000e4	8b f2		 mov	 esi, edx

; 550  :             } else { // successor further down, link in place of erased

  000e6	eb 1c		 jmp	 SHORT $LN19@Extract
$LN18@Extract:

; 551  :                 _Fixnodeparent = _Pnode->_Parent; // parent is successor's
; 552  :                 if (!_Fixnode->_Isnil) {

  000e8	80 7f 0d 00	 cmp	 BYTE PTR [edi+13], 0
  000ec	8b 31		 mov	 esi, DWORD PTR [ecx]
  000ee	75 03		 jne	 SHORT $LN20@Extract

; 553  :                     _Fixnode->_Parent = _Fixnodeparent; // link fix up

  000f0	89 77 04	 mov	 DWORD PTR [edi+4], esi
$LN20@Extract:

; 554  :                 }
; 555  : 
; 556  :                 _Fixnodeparent->_Left        = _Fixnode; // link fix down

  000f3	89 3e		 mov	 DWORD PTR [esi], edi

; 557  :                 _Pnode->_Right               = _Erasednode->_Right; // link next down

  000f5	8b 43 08	 mov	 eax, DWORD PTR [ebx+8]
  000f8	89 42 08	 mov	 DWORD PTR [edx+8], eax

; 558  :                 _Erasednode->_Right->_Parent = _Pnode; // right up

  000fb	8b 43 08	 mov	 eax, DWORD PTR [ebx+8]
  000fe	89 4d f4	 mov	 DWORD PTR $T1[ebp], ecx
  00101	89 50 04	 mov	 DWORD PTR [eax+4], edx
$LN19@Extract:

; 559  :             }
; 560  : 
; 561  :             if (_Myhead->_Parent == _Erasednode) {

  00104	8b 45 fc	 mov	 eax, DWORD PTR _this$1$[ebp]
  00107	8b 00		 mov	 eax, DWORD PTR [eax]
  00109	39 58 04	 cmp	 DWORD PTR [eax+4], ebx
  0010c	75 05		 jne	 SHORT $LN21@Extract

; 562  :                 _Myhead->_Parent = _Pnode; // link down from root

  0010e	89 50 04	 mov	 DWORD PTR [eax+4], edx
  00111	eb 0e		 jmp	 SHORT $LN94@Extract
$LN21@Extract:

; 563  :             } else if (_Erasednode->_Parent->_Left == _Erasednode) {

  00113	8b 43 04	 mov	 eax, DWORD PTR [ebx+4]
  00116	39 18		 cmp	 DWORD PTR [eax], ebx
  00118	75 04		 jne	 SHORT $LN23@Extract

; 564  :                 _Erasednode->_Parent->_Left = _Pnode; // link down to left

  0011a	89 10		 mov	 DWORD PTR [eax], edx

; 565  :             } else {

  0011c	eb 03		 jmp	 SHORT $LN94@Extract
$LN23@Extract:

; 566  :                 _Erasednode->_Parent->_Right = _Pnode; // link down to right

  0011e	89 50 08	 mov	 DWORD PTR [eax+8], edx
$LN94@Extract:

; 567  :             }
; 568  : 
; 569  :             _Pnode->_Parent = _Erasednode->_Parent; // link successor up

  00121	b9 04 00 00 00	 mov	 ecx, 4
  00126	8b c3		 mov	 eax, ebx
  00128	8b 04 01	 mov	 eax, DWORD PTR [ecx+eax]
  0012b	8b 4d f4	 mov	 ecx, DWORD PTR $T1[ebp]
  0012e	89 01		 mov	 DWORD PTR [ecx], eax
; File C:\Program Files\Microsoft Visual Studio\2022\Community\VC\Tools\MSVC\14.34.31933\include\utility

; 100  :     _Ty _Tmp = _STD move(_Left);

  00130	8a 4a 0c	 mov	 cl, BYTE PTR [edx+12]

; 101  :     _Left    = _STD move(_Right);

  00133	8a 43 0c	 mov	 al, BYTE PTR [ebx+12]
  00136	88 42 0c	 mov	 BYTE PTR [edx+12], al
  00139	8b 55 fc	 mov	 edx, DWORD PTR _this$1$[ebp]

; 102  :     _Right   = _STD move(_Tmp);

  0013c	88 4b 0c	 mov	 BYTE PTR [ebx+12], cl
$LN47@Extract:
; File C:\Program Files\Microsoft Visual Studio\2022\Community\VC\Tools\MSVC\14.34.31933\include\xtree

; 573  :         if (_Erasednode->_Color == _Black) { // erasing black link, must recolor/rebalance tree

  0013f	80 7b 0c 01	 cmp	 BYTE PTR [ebx+12], 1
  00143	0f 85 89 01 00
	00		 jne	 $LN25@Extract

; 574  :             for (; _Fixnode != _Myhead->_Parent && _Fixnode->_Color == _Black; _Fixnodeparent = _Fixnode->_Parent) {

  00149	8b 02		 mov	 eax, DWORD PTR [edx]
  0014b	3b 78 04	 cmp	 edi, DWORD PTR [eax+4]
  0014e	0f 84 7a 01 00
	00		 je	 $LN3@Extract
  00154	0f 1f 40 00 0f
	1f 84 00 00 00
	00 00		 npad	 12
$LL4@Extract:
  00160	80 7f 0c 01	 cmp	 BYTE PTR [edi+12], 1
  00164	89 75 f4	 mov	 DWORD PTR tv1091[ebp], esi
  00167	0f 85 5e 01 00
	00		 jne	 $LN93@Extract

; 575  :                 if (_Fixnode == _Fixnodeparent->_Left) { // fixup left subtree

  0016d	8b 0e		 mov	 ecx, DWORD PTR [esi]
  0016f	3b f9		 cmp	 edi, ecx
  00171	0f 85 c3 00 00
	00		 jne	 $LN26@Extract

; 576  :                     _Pnode = _Fixnodeparent->_Right;

  00177	8b 4e 08	 mov	 ecx, DWORD PTR [esi+8]

; 577  :                     if (_Pnode->_Color == _Red) { // rotate red up from right subtree

  0017a	80 79 0c 00	 cmp	 BYTE PTR [ecx+12], 0
  0017e	75 57		 jne	 SHORT $LN87@Extract

; 578  :                         _Pnode->_Color         = _Black;

  00180	c6 41 0c 01	 mov	 BYTE PTR [ecx+12], 1

; 461  :         _Nodeptr _Pnode    = _Wherenode->_Right;

  00184	8b 4e 08	 mov	 ecx, DWORD PTR [esi+8]

; 579  :                         _Fixnodeparent->_Color = _Red;

  00187	c6 46 0c 00	 mov	 BYTE PTR [esi+12], 0

; 462  :         _Wherenode->_Right = _Pnode->_Left;

  0018b	8b 01		 mov	 eax, DWORD PTR [ecx]
  0018d	89 46 08	 mov	 DWORD PTR [esi+8], eax

; 463  : 
; 464  :         if (!_Pnode->_Left->_Isnil) {

  00190	8b 01		 mov	 eax, DWORD PTR [ecx]
  00192	80 78 0d 00	 cmp	 BYTE PTR [eax+13], 0
  00196	75 03		 jne	 SHORT $LN49@Extract

; 465  :             _Pnode->_Left->_Parent = _Wherenode;

  00198	89 70 04	 mov	 DWORD PTR [eax+4], esi
$LN49@Extract:

; 466  :         }
; 467  : 
; 468  :         _Pnode->_Parent = _Wherenode->_Parent;

  0019b	8b 46 04	 mov	 eax, DWORD PTR [esi+4]
  0019e	8d 56 04	 lea	 edx, DWORD PTR [esi+4]
  001a1	89 41 04	 mov	 DWORD PTR [ecx+4], eax

; 469  : 
; 470  :         if (_Wherenode == _Myhead->_Parent) {

  001a4	8b 45 fc	 mov	 eax, DWORD PTR _this$1$[ebp]
  001a7	8b 00		 mov	 eax, DWORD PTR [eax]
  001a9	3b 70 04	 cmp	 esi, DWORD PTR [eax+4]
  001ac	75 0c		 jne	 SHORT $LN50@Extract

; 471  :             _Myhead->_Parent = _Pnode;

  001ae	89 48 04	 mov	 DWORD PTR [eax+4], ecx

; 476  :         }
; 477  : 
; 478  :         _Pnode->_Left       = _Wherenode;

  001b1	89 31		 mov	 DWORD PTR [ecx], esi

; 479  :         _Wherenode->_Parent = _Pnode;

  001b3	89 0a		 mov	 DWORD PTR [edx], ecx

; 580  :                         _Lrotate(_Fixnodeparent);
; 581  :                         _Pnode = _Fixnodeparent->_Right;

  001b5	8b 4e 08	 mov	 ecx, DWORD PTR [esi+8]
  001b8	eb 20		 jmp	 SHORT $LN80@Extract
$LN50@Extract:

; 472  :         } else if (_Wherenode == _Wherenode->_Parent->_Left) {

  001ba	8b 02		 mov	 eax, DWORD PTR [edx]
  001bc	3b 30		 cmp	 esi, DWORD PTR [eax]
  001be	75 0b		 jne	 SHORT $LN52@Extract

; 473  :             _Wherenode->_Parent->_Left = _Pnode;

  001c0	89 08		 mov	 DWORD PTR [eax], ecx

; 476  :         }
; 477  : 
; 478  :         _Pnode->_Left       = _Wherenode;

  001c2	89 31		 mov	 DWORD PTR [ecx], esi

; 479  :         _Wherenode->_Parent = _Pnode;

  001c4	89 0a		 mov	 DWORD PTR [edx], ecx

; 580  :                         _Lrotate(_Fixnodeparent);
; 581  :                         _Pnode = _Fixnodeparent->_Right;

  001c6	8b 4e 08	 mov	 ecx, DWORD PTR [esi+8]
  001c9	eb 0f		 jmp	 SHORT $LN80@Extract
$LN52@Extract:

; 475  :             _Wherenode->_Parent->_Right = _Pnode;

  001cb	89 48 08	 mov	 DWORD PTR [eax+8], ecx

; 476  :         }
; 477  : 
; 478  :         _Pnode->_Left       = _Wherenode;

  001ce	89 31		 mov	 DWORD PTR [ecx], esi

; 479  :         _Wherenode->_Parent = _Pnode;

  001d0	89 0a		 mov	 DWORD PTR [edx], ecx

; 580  :                         _Lrotate(_Fixnodeparent);
; 581  :                         _Pnode = _Fixnodeparent->_Right;

  001d2	8b 4e 08	 mov	 ecx, DWORD PTR [esi+8]
  001d5	eb 03		 jmp	 SHORT $LN80@Extract
$LN87@Extract:
  001d7	8d 56 04	 lea	 edx, DWORD PTR [esi+4]
$LN80@Extract:

; 582  :                     }
; 583  : 
; 584  :                     if (_Pnode->_Isnil) {

  001da	80 79 0d 00	 cmp	 BYTE PTR [ecx+13], 0
  001de	0f 85 d2 00 00
	00		 jne	 $LN2@Extract

; 585  :                         _Fixnode = _Fixnodeparent; // shouldn't happen
; 586  :                     } else if (_Pnode->_Left->_Color == _Black
; 587  :                                && _Pnode->_Right->_Color == _Black) { // redden right subtree with black children

  001e4	8b 01		 mov	 eax, DWORD PTR [ecx]
  001e6	80 78 0c 01	 cmp	 BYTE PTR [eax+12], 1
  001ea	75 0d		 jne	 SHORT $LN89@Extract
  001ec	8b 41 08	 mov	 eax, DWORD PTR [ecx+8]
  001ef	80 78 0c 01	 cmp	 BYTE PTR [eax+12], 1
  001f3	0f 84 b9 00 00
	00		 je	 $LN95@Extract
$LN89@Extract:

; 588  :                         _Pnode->_Color = _Red;
; 589  :                         _Fixnode       = _Fixnodeparent;
; 590  :                     } else { // must rearrange right subtree
; 591  :                         if (_Pnode->_Right->_Color == _Black) { // rotate red up from left sub-subtree

  001f9	8b 41 08	 mov	 eax, DWORD PTR [ecx+8]
  001fc	80 78 0c 01	 cmp	 BYTE PTR [eax+12], 1
  00200	75 16		 jne	 SHORT $LN33@Extract

; 592  :                             _Pnode->_Left->_Color = _Black;

  00202	8b 01		 mov	 eax, DWORD PTR [ecx]

; 593  :                             _Pnode->_Color        = _Red;
; 594  :                             _Rrotate(_Pnode);

  00204	51		 push	 ecx
  00205	c6 40 0c 01	 mov	 BYTE PTR [eax+12], 1
  00209	c6 41 0c 00	 mov	 BYTE PTR [ecx+12], 0
  0020d	8b 4d fc	 mov	 ecx, DWORD PTR _this$1$[ebp]
  00210	e8 00 00 00 00	 call	 ?_Rrotate@?$_Tree_val@U?$_Tree_simple_types@U?$pair@$$CBV?$basic_string@DU?$char_traits@D@std@@V?$allocator@D@2@@std@@M@std@@@std@@@std@@QAEXPAU?$_Tree_node@U?$pair@$$CBV?$basic_string@DU?$char_traits@D@std@@V?$allocator@D@2@@std@@M@std@@PAX@2@@Z ; std::_Tree_val<std::_Tree_simple_types<std::pair<std::basic_string<char,std::char_traits<char>,std::allocator<char> > const ,float> > >::_Rrotate

; 595  :                             _Pnode = _Fixnodeparent->_Right;

  00215	8b 4e 08	 mov	 ecx, DWORD PTR [esi+8]
$LN33@Extract:

; 596  :                         }
; 597  : 
; 598  :                         _Pnode->_Color         = _Fixnodeparent->_Color;

  00218	8a 46 0c	 mov	 al, BYTE PTR [esi+12]
  0021b	88 41 0c	 mov	 BYTE PTR [ecx+12], al

; 599  :                         _Fixnodeparent->_Color = _Black;

  0021e	c6 46 0c 01	 mov	 BYTE PTR [esi+12], 1

; 600  :                         _Pnode->_Right->_Color = _Black;

  00222	8b 41 08	 mov	 eax, DWORD PTR [ecx+8]

; 601  :                         _Lrotate(_Fixnodeparent);

  00225	8b 4d fc	 mov	 ecx, DWORD PTR _this$1$[ebp]
  00228	56		 push	 esi
  00229	c6 40 0c 01	 mov	 BYTE PTR [eax+12], 1
  0022d	e8 00 00 00 00	 call	 ?_Lrotate@?$_Tree_val@U?$_Tree_simple_types@U?$pair@$$CBV?$basic_string@DU?$char_traits@D@std@@V?$allocator@D@2@@std@@M@std@@@std@@@std@@QAEXPAU?$_Tree_node@U?$pair@$$CBV?$basic_string@DU?$char_traits@D@std@@V?$allocator@D@2@@std@@M@std@@PAX@2@@Z ; std::_Tree_val<std::_Tree_simple_types<std::pair<std::basic_string<char,std::char_traits<char>,std::allocator<char> > const ,float> > >::_Lrotate

; 602  :                         break; // tree now recolored/rebalanced

  00232	8b 55 fc	 mov	 edx, DWORD PTR _this$1$[ebp]
  00235	e9 91 00 00 00	 jmp	 $LN93@Extract
$LN26@Extract:

; 603  :                     }
; 604  :                 } else { // fixup right subtree
; 605  :                     _Pnode = _Fixnodeparent->_Left;
; 606  :                     if (_Pnode->_Color == _Red) { // rotate red up from left subtree

  0023a	80 79 0c 00	 cmp	 BYTE PTR [ecx+12], 0
  0023e	75 58		 jne	 SHORT $LN88@Extract

; 607  :                         _Pnode->_Color         = _Black;

  00240	c6 41 0c 01	 mov	 BYTE PTR [ecx+12], 1

; 483  :         _Nodeptr _Pnode   = _Wherenode->_Left;

  00244	8b 0e		 mov	 ecx, DWORD PTR [esi]

; 608  :                         _Fixnodeparent->_Color = _Red;

  00246	c6 46 0c 00	 mov	 BYTE PTR [esi+12], 0

; 484  :         _Wherenode->_Left = _Pnode->_Right;

  0024a	8b 41 08	 mov	 eax, DWORD PTR [ecx+8]
  0024d	89 06		 mov	 DWORD PTR [esi], eax

; 485  : 
; 486  :         if (!_Pnode->_Right->_Isnil) {

  0024f	8b 41 08	 mov	 eax, DWORD PTR [ecx+8]
  00252	80 78 0d 00	 cmp	 BYTE PTR [eax+13], 0
  00256	75 03		 jne	 SHORT $LN56@Extract

; 487  :             _Pnode->_Right->_Parent = _Wherenode;

  00258	89 70 04	 mov	 DWORD PTR [eax+4], esi
$LN56@Extract:

; 488  :         }
; 489  : 
; 490  :         _Pnode->_Parent = _Wherenode->_Parent;

  0025b	8b 46 04	 mov	 eax, DWORD PTR [esi+4]
  0025e	8d 56 04	 lea	 edx, DWORD PTR [esi+4]
  00261	89 41 04	 mov	 DWORD PTR [ecx+4], eax

; 491  : 
; 492  :         if (_Wherenode == _Myhead->_Parent) {

  00264	8b 45 fc	 mov	 eax, DWORD PTR _this$1$[ebp]
  00267	8b 00		 mov	 eax, DWORD PTR [eax]
  00269	3b 70 04	 cmp	 esi, DWORD PTR [eax+4]
  0026c	75 0c		 jne	 SHORT $LN57@Extract

; 493  :             _Myhead->_Parent = _Pnode;

  0026e	89 48 04	 mov	 DWORD PTR [eax+4], ecx

; 498  :         }
; 499  : 
; 500  :         _Pnode->_Right      = _Wherenode;

  00271	89 71 08	 mov	 DWORD PTR [ecx+8], esi

; 501  :         _Wherenode->_Parent = _Pnode;

  00274	89 0a		 mov	 DWORD PTR [edx], ecx

; 609  :                         _Rrotate(_Fixnodeparent);
; 610  :                         _Pnode = _Fixnodeparent->_Left;

  00276	8b 0e		 mov	 ecx, DWORD PTR [esi]
  00278	eb 21		 jmp	 SHORT $LN79@Extract
$LN57@Extract:

; 494  :         } else if (_Wherenode == _Wherenode->_Parent->_Right) {

  0027a	8b 02		 mov	 eax, DWORD PTR [edx]
  0027c	3b 70 08	 cmp	 esi, DWORD PTR [eax+8]
  0027f	75 0c		 jne	 SHORT $LN59@Extract

; 495  :             _Wherenode->_Parent->_Right = _Pnode;

  00281	89 48 08	 mov	 DWORD PTR [eax+8], ecx

; 498  :         }
; 499  : 
; 500  :         _Pnode->_Right      = _Wherenode;

  00284	89 71 08	 mov	 DWORD PTR [ecx+8], esi

; 501  :         _Wherenode->_Parent = _Pnode;

  00287	89 0a		 mov	 DWORD PTR [edx], ecx

; 609  :                         _Rrotate(_Fixnodeparent);
; 610  :                         _Pnode = _Fixnodeparent->_Left;

  00289	8b 0e		 mov	 ecx, DWORD PTR [esi]
  0028b	eb 0e		 jmp	 SHORT $LN79@Extract
$LN59@Extract:

; 497  :             _Wherenode->_Parent->_Left = _Pnode;

  0028d	89 08		 mov	 DWORD PTR [eax], ecx

; 498  :         }
; 499  : 
; 500  :         _Pnode->_Right      = _Wherenode;

  0028f	89 71 08	 mov	 DWORD PTR [ecx+8], esi

; 501  :         _Wherenode->_Parent = _Pnode;

  00292	89 0a		 mov	 DWORD PTR [edx], ecx

; 609  :                         _Rrotate(_Fixnodeparent);
; 610  :                         _Pnode = _Fixnodeparent->_Left;

  00294	8b 0e		 mov	 ecx, DWORD PTR [esi]
  00296	eb 03		 jmp	 SHORT $LN79@Extract
$LN88@Extract:
  00298	8d 56 04	 lea	 edx, DWORD PTR [esi+4]
$LN79@Extract:

; 611  :                     }
; 612  : 
; 613  :                     if (_Pnode->_Isnil) {

  0029b	80 79 0d 00	 cmp	 BYTE PTR [ecx+13], 0
  0029f	75 15		 jne	 SHORT $LN2@Extract

; 614  :                         _Fixnode = _Fixnodeparent; // shouldn't happen
; 615  :                     } else if (_Pnode->_Right->_Color == _Black
; 616  :                                && _Pnode->_Left->_Color == _Black) { // redden left subtree with black children

  002a1	8b 59 08	 mov	 ebx, DWORD PTR [ecx+8]
  002a4	80 7b 0c 01	 cmp	 BYTE PTR [ebx+12], 1
  002a8	75 3e		 jne	 SHORT $LN90@Extract
  002aa	8b 01		 mov	 eax, DWORD PTR [ecx]
  002ac	80 78 0c 01	 cmp	 BYTE PTR [eax+12], 1
  002b0	75 36		 jne	 SHORT $LN90@Extract
$LN95@Extract:

; 574  :             for (; _Fixnode != _Myhead->_Parent && _Fixnode->_Color == _Black; _Fixnodeparent = _Fixnode->_Parent) {

  002b2	c6 41 0c 00	 mov	 BYTE PTR [ecx+12], 0
$LN2@Extract:
  002b6	8b 32		 mov	 esi, DWORD PTR [edx]
  002b8	8b 55 fc	 mov	 edx, DWORD PTR _this$1$[ebp]
  002bb	8b 4d f4	 mov	 ecx, DWORD PTR tv1091[ebp]
  002be	8b f9		 mov	 edi, ecx
  002c0	8b 02		 mov	 eax, DWORD PTR [edx]
  002c2	3b 48 04	 cmp	 ecx, DWORD PTR [eax+4]
  002c5	0f 85 95 fe ff
	ff		 jne	 $LL4@Extract
$LN93@Extract:

; 631  :                         break; // tree now recolored/rebalanced
; 632  :                     }
; 633  :                 }
; 634  :             }
; 635  : 
; 636  :             _Fixnode->_Color = _Black; // stopping node is black

  002cb	8b 5d f8	 mov	 ebx, DWORD PTR __Erasednode$1$[ebp]
$LN3@Extract:
  002ce	c6 47 0c 01	 mov	 BYTE PTR [edi+12], 1
$LN25@Extract:

; 637  :         }
; 638  : 
; 639  :         if (0 < _Mysize) {

  002d2	8b 4a 04	 mov	 ecx, DWORD PTR [edx+4]
  002d5	8b c3		 mov	 eax, ebx
  002d7	85 c9		 test	 ecx, ecx
  002d9	74 04		 je	 SHORT $LN40@Extract

; 640  :             --_Mysize;

  002db	49		 dec	 ecx
  002dc	89 4a 04	 mov	 DWORD PTR [edx+4], ecx
$LN40@Extract:

; 641  :         }
; 642  : 
; 643  :         return _Erasednode;
; 644  :     }

  002df	5f		 pop	 edi
  002e0	5e		 pop	 esi
  002e1	5b		 pop	 ebx
  002e2	8b e5		 mov	 esp, ebp
  002e4	5d		 pop	 ebp
  002e5	c2 04 00	 ret	 4
$LN90@Extract:

; 617  :                         _Pnode->_Color = _Red;
; 618  :                         _Fixnode       = _Fixnodeparent;
; 619  :                     } else { // must rearrange left subtree
; 620  :                         if (_Pnode->_Left->_Color == _Black) { // rotate red up from right sub-subtree

  002e8	8b 01		 mov	 eax, DWORD PTR [ecx]
  002ea	80 78 0c 01	 cmp	 BYTE PTR [eax+12], 1
  002ee	75 13		 jne	 SHORT $LN39@Extract

; 621  :                             _Pnode->_Right->_Color = _Black;

  002f0	c6 43 0c 01	 mov	 BYTE PTR [ebx+12], 1

; 622  :                             _Pnode->_Color         = _Red;

  002f4	c6 41 0c 00	 mov	 BYTE PTR [ecx+12], 0

; 623  :                             _Lrotate(_Pnode);

  002f8	51		 push	 ecx
  002f9	8b 4d fc	 mov	 ecx, DWORD PTR _this$1$[ebp]
  002fc	e8 00 00 00 00	 call	 ?_Lrotate@?$_Tree_val@U?$_Tree_simple_types@U?$pair@$$CBV?$basic_string@DU?$char_traits@D@std@@V?$allocator@D@2@@std@@M@std@@@std@@@std@@QAEXPAU?$_Tree_node@U?$pair@$$CBV?$basic_string@DU?$char_traits@D@std@@V?$allocator@D@2@@std@@M@std@@PAX@2@@Z ; std::_Tree_val<std::_Tree_simple_types<std::pair<std::basic_string<char,std::char_traits<char>,std::allocator<char> > const ,float> > >::_Lrotate

; 624  :                             _Pnode = _Fixnodeparent->_Left;

  00301	8b 0e		 mov	 ecx, DWORD PTR [esi]
$LN39@Extract:

; 625  :                         }
; 626  : 
; 627  :                         _Pnode->_Color         = _Fixnodeparent->_Color;

  00303	8a 46 0c	 mov	 al, BYTE PTR [esi+12]
  00306	88 41 0c	 mov	 BYTE PTR [ecx+12], al

; 628  :                         _Fixnodeparent->_Color = _Black;

  00309	c6 46 0c 01	 mov	 BYTE PTR [esi+12], 1

; 629  :                         _Pnode->_Left->_Color  = _Black;

  0030d	8b 01		 mov	 eax, DWORD PTR [ecx]

; 630  :                         _Rrotate(_Fixnodeparent);

  0030f	8b 4d fc	 mov	 ecx, DWORD PTR _this$1$[ebp]
  00312	56		 push	 esi
  00313	c6 40 0c 01	 mov	 BYTE PTR [eax+12], 1
  00317	e8 00 00 00 00	 call	 ?_Rrotate@?$_Tree_val@U?$_Tree_simple_types@U?$pair@$$CBV?$basic_string@DU?$char_traits@D@std@@V?$allocator@D@2@@std@@M@std@@@std@@@std@@QAEXPAU?$_Tree_node@U?$pair@$$CBV?$basic_string@DU?$char_traits@D@std@@V?$allocator@D@2@@std@@M@std@@PAX@2@@Z ; std::_Tree_val<std::_Tree_simple_types<std::pair<std::basic_string<char,std::char_traits<char>,std::allocator<char> > const ,float> > >::_Rrotate
  0031c	8b 55 fc	 mov	 edx, DWORD PTR _this$1$[ebp]
  0031f	eb aa		 jmp	 SHORT $LN93@Extract
?_Extract@?$_Tree_val@U?$_Tree_simple_types@U?$pair@$$CBV?$basic_string@DU?$char_traits@D@std@@V?$allocator@D@2@@std@@M@std@@@std@@@std@@QAEPAU?$_Tree_node@U?$pair@$$CBV?$basic_string@DU?$char_traits@D@std@@V?$allocator@D@2@@std@@M@std@@PAX@2@V?$_Tree_unchecked_const_iterator@V?$_Tree_val@U?$_Tree_simple_types@U?$pair@$$CBV?$basic_string@DU?$char_traits@D@std@@V?$allocator@D@2@@std@@M@std@@@std@@@std@@U_Iterator_base0@2@@2@@Z ENDP ; std::_Tree_val<std::_Tree_simple_types<std::pair<std::basic_string<char,std::char_traits<char>,std::allocator<char> > const ,float> > >::_Extract
_TEXT	ENDS
; Function compile flags: /Ogtp
; File C:\Program Files\Microsoft Visual Studio\2022\Community\VC\Tools\MSVC\14.34.31933\include\xtree
;	COMDAT ?_Rrotate@?$_Tree_val@U?$_Tree_simple_types@U?$pair@$$CBV?$basic_string@DU?$char_traits@D@std@@V?$allocator@D@2@@std@@M@std@@@std@@@std@@QAEXPAU?$_Tree_node@U?$pair@$$CBV?$basic_string@DU?$char_traits@D@std@@V?$allocator@D@2@@std@@M@std@@PAX@2@@Z
_TEXT	SEGMENT
__Wherenode$ = 8					; size = 4
?_Rrotate@?$_Tree_val@U?$_Tree_simple_types@U?$pair@$$CBV?$basic_string@DU?$char_traits@D@std@@V?$allocator@D@2@@std@@M@std@@@std@@@std@@QAEXPAU?$_Tree_node@U?$pair@$$CBV?$basic_string@DU?$char_traits@D@std@@V?$allocator@D@2@@std@@M@std@@PAX@2@@Z PROC ; std::_Tree_val<std::_Tree_simple_types<std::pair<std::basic_string<char,std::char_traits<char>,std::allocator<char> > const ,float> > >::_Rrotate, COMDAT
; _this$ = ecx

; 482  :     void _Rrotate(_Nodeptr _Wherenode) noexcept { // promote left node to root of subtree

  00000	55		 push	 ebp
  00001	8b ec		 mov	 ebp, esp

; 483  :         _Nodeptr _Pnode   = _Wherenode->_Left;

  00003	8b 55 08	 mov	 edx, DWORD PTR __Wherenode$[ebp]
  00006	56		 push	 esi
  00007	8b 32		 mov	 esi, DWORD PTR [edx]

; 484  :         _Wherenode->_Left = _Pnode->_Right;

  00009	8b 46 08	 mov	 eax, DWORD PTR [esi+8]
  0000c	89 02		 mov	 DWORD PTR [edx], eax

; 485  : 
; 486  :         if (!_Pnode->_Right->_Isnil) {

  0000e	8b 46 08	 mov	 eax, DWORD PTR [esi+8]
  00011	80 78 0d 00	 cmp	 BYTE PTR [eax+13], 0
  00015	75 03		 jne	 SHORT $LN2@Rrotate

; 487  :             _Pnode->_Right->_Parent = _Wherenode;

  00017	89 50 04	 mov	 DWORD PTR [eax+4], edx
$LN2@Rrotate:

; 488  :         }
; 489  : 
; 490  :         _Pnode->_Parent = _Wherenode->_Parent;

  0001a	8b 42 04	 mov	 eax, DWORD PTR [edx+4]
  0001d	89 46 04	 mov	 DWORD PTR [esi+4], eax

; 491  : 
; 492  :         if (_Wherenode == _Myhead->_Parent) {

  00020	8b 01		 mov	 eax, DWORD PTR [ecx]
  00022	3b 50 04	 cmp	 edx, DWORD PTR [eax+4]
  00025	75 0e		 jne	 SHORT $LN3@Rrotate

; 493  :             _Myhead->_Parent = _Pnode;

  00027	89 70 04	 mov	 DWORD PTR [eax+4], esi

; 498  :         }
; 499  : 
; 500  :         _Pnode->_Right      = _Wherenode;
; 501  :         _Wherenode->_Parent = _Pnode;
; 502  :     }

  0002a	89 56 08	 mov	 DWORD PTR [esi+8], edx
  0002d	89 72 04	 mov	 DWORD PTR [edx+4], esi
  00030	5e		 pop	 esi
  00031	5d		 pop	 ebp
  00032	c2 04 00	 ret	 4
$LN3@Rrotate:

; 494  :         } else if (_Wherenode == _Wherenode->_Parent->_Right) {

  00035	8b 42 04	 mov	 eax, DWORD PTR [edx+4]
  00038	3b 50 08	 cmp	 edx, DWORD PTR [eax+8]
  0003b	75 0e		 jne	 SHORT $LN5@Rrotate

; 495  :             _Wherenode->_Parent->_Right = _Pnode;

  0003d	89 70 08	 mov	 DWORD PTR [eax+8], esi

; 498  :         }
; 499  : 
; 500  :         _Pnode->_Right      = _Wherenode;
; 501  :         _Wherenode->_Parent = _Pnode;
; 502  :     }

  00040	89 56 08	 mov	 DWORD PTR [esi+8], edx
  00043	89 72 04	 mov	 DWORD PTR [edx+4], esi
  00046	5e		 pop	 esi
  00047	5d		 pop	 ebp
  00048	c2 04 00	 ret	 4
$LN5@Rrotate:

; 496  :         } else {
; 497  :             _Wherenode->_Parent->_Left = _Pnode;

  0004b	89 30		 mov	 DWORD PTR [eax], esi

; 498  :         }
; 499  : 
; 500  :         _Pnode->_Right      = _Wherenode;
; 501  :         _Wherenode->_Parent = _Pnode;
; 502  :     }

  0004d	89 56 08	 mov	 DWORD PTR [esi+8], edx
  00050	89 72 04	 mov	 DWORD PTR [edx+4], esi
  00053	5e		 pop	 esi
  00054	5d		 pop	 ebp
  00055	c2 04 00	 ret	 4
?_Rrotate@?$_Tree_val@U?$_Tree_simple_types@U?$pair@$$CBV?$basic_string@DU?$char_traits@D@std@@V?$allocator@D@2@@std@@M@std@@@std@@@std@@QAEXPAU?$_Tree_node@U?$pair@$$CBV?$basic_string@DU?$char_traits@D@std@@V?$allocator@D@2@@std@@M@std@@PAX@2@@Z ENDP ; std::_Tree_val<std::_Tree_simple_types<std::pair<std::basic_string<char,std::char_traits<char>,std::allocator<char> > const ,float> > >::_Rrotate
_TEXT	ENDS
; Function compile flags: /Ogtp
; File C:\Program Files\Microsoft Visual Studio\2022\Community\VC\Tools\MSVC\14.34.31933\include\xtree
;	COMDAT ?_Lrotate@?$_Tree_val@U?$_Tree_simple_types@U?$pair@$$CBV?$basic_string@DU?$char_traits@D@std@@V?$allocator@D@2@@std@@M@std@@@std@@@std@@QAEXPAU?$_Tree_node@U?$pair@$$CBV?$basic_string@DU?$char_traits@D@std@@V?$allocator@D@2@@std@@M@std@@PAX@2@@Z
_TEXT	SEGMENT
__Wherenode$ = 8					; size = 4
?_Lrotate@?$_Tree_val@U?$_Tree_simple_types@U?$pair@$$CBV?$basic_string@DU?$char_traits@D@std@@V?$allocator@D@2@@std@@M@std@@@std@@@std@@QAEXPAU?$_Tree_node@U?$pair@$$CBV?$basic_string@DU?$char_traits@D@std@@V?$allocator@D@2@@std@@M@std@@PAX@2@@Z PROC ; std::_Tree_val<std::_Tree_simple_types<std::pair<std::basic_string<char,std::char_traits<char>,std::allocator<char> > const ,float> > >::_Lrotate, COMDAT
; _this$ = ecx

; 460  :     void _Lrotate(_Nodeptr _Wherenode) noexcept { // promote right node to root of subtree

  00000	55		 push	 ebp
  00001	8b ec		 mov	 ebp, esp

; 461  :         _Nodeptr _Pnode    = _Wherenode->_Right;

  00003	8b 55 08	 mov	 edx, DWORD PTR __Wherenode$[ebp]
  00006	56		 push	 esi
  00007	8b 72 08	 mov	 esi, DWORD PTR [edx+8]

; 462  :         _Wherenode->_Right = _Pnode->_Left;

  0000a	8b 06		 mov	 eax, DWORD PTR [esi]
  0000c	89 42 08	 mov	 DWORD PTR [edx+8], eax

; 463  : 
; 464  :         if (!_Pnode->_Left->_Isnil) {

  0000f	8b 06		 mov	 eax, DWORD PTR [esi]
  00011	80 78 0d 00	 cmp	 BYTE PTR [eax+13], 0
  00015	75 03		 jne	 SHORT $LN2@Lrotate

; 465  :             _Pnode->_Left->_Parent = _Wherenode;

  00017	89 50 04	 mov	 DWORD PTR [eax+4], edx
$LN2@Lrotate:

; 466  :         }
; 467  : 
; 468  :         _Pnode->_Parent = _Wherenode->_Parent;

  0001a	8b 42 04	 mov	 eax, DWORD PTR [edx+4]
  0001d	89 46 04	 mov	 DWORD PTR [esi+4], eax

; 469  : 
; 470  :         if (_Wherenode == _Myhead->_Parent) {

  00020	8b 01		 mov	 eax, DWORD PTR [ecx]
  00022	3b 50 04	 cmp	 edx, DWORD PTR [eax+4]
  00025	75 0d		 jne	 SHORT $LN3@Lrotate

; 471  :             _Myhead->_Parent = _Pnode;

  00027	89 70 04	 mov	 DWORD PTR [eax+4], esi

; 476  :         }
; 477  : 
; 478  :         _Pnode->_Left       = _Wherenode;
; 479  :         _Wherenode->_Parent = _Pnode;
; 480  :     }

  0002a	89 16		 mov	 DWORD PTR [esi], edx
  0002c	89 72 04	 mov	 DWORD PTR [edx+4], esi
  0002f	5e		 pop	 esi
  00030	5d		 pop	 ebp
  00031	c2 04 00	 ret	 4
$LN3@Lrotate:

; 472  :         } else if (_Wherenode == _Wherenode->_Parent->_Left) {

  00034	8b 42 04	 mov	 eax, DWORD PTR [edx+4]
  00037	3b 10		 cmp	 edx, DWORD PTR [eax]
  00039	75 0c		 jne	 SHORT $LN5@Lrotate

; 473  :             _Wherenode->_Parent->_Left = _Pnode;

  0003b	89 30		 mov	 DWORD PTR [eax], esi

; 476  :         }
; 477  : 
; 478  :         _Pnode->_Left       = _Wherenode;
; 479  :         _Wherenode->_Parent = _Pnode;
; 480  :     }

  0003d	89 16		 mov	 DWORD PTR [esi], edx
  0003f	89 72 04	 mov	 DWORD PTR [edx+4], esi
  00042	5e		 pop	 esi
  00043	5d		 pop	 ebp
  00044	c2 04 00	 ret	 4
$LN5@Lrotate:

; 474  :         } else {
; 475  :             _Wherenode->_Parent->_Right = _Pnode;

  00047	89 70 08	 mov	 DWORD PTR [eax+8], esi

; 476  :         }
; 477  : 
; 478  :         _Pnode->_Left       = _Wherenode;
; 479  :         _Wherenode->_Parent = _Pnode;
; 480  :     }

  0004a	89 16		 mov	 DWORD PTR [esi], edx
  0004c	89 72 04	 mov	 DWORD PTR [edx+4], esi
  0004f	5e		 pop	 esi
  00050	5d		 pop	 ebp
  00051	c2 04 00	 ret	 4
?_Lrotate@?$_Tree_val@U?$_Tree_simple_types@U?$pair@$$CBV?$basic_string@DU?$char_traits@D@std@@V?$allocator@D@2@@std@@M@std@@@std@@@std@@QAEXPAU?$_Tree_node@U?$pair@$$CBV?$basic_string@DU?$char_traits@D@std@@V?$allocator@D@2@@std@@M@std@@PAX@2@@Z ENDP ; std::_Tree_val<std::_Tree_simple_types<std::pair<std::basic_string<char,std::char_traits<char>,std::allocator<char> > const ,float> > >::_Lrotate
_TEXT	ENDS
; Function compile flags: /Ogtp
; File C:\Program Files\Microsoft Visual Studio\2022\Community\VC\Tools\MSVC\14.34.31933\include\xtree
; File C:\Program Files\Microsoft Visual Studio\2022\Community\VC\Tools\MSVC\14.34.31933\include\xstddef
; File C:\Program Files\Microsoft Visual Studio\2022\Community\VC\Tools\MSVC\14.34.31933\include\xtree
; File C:\Program Files\Microsoft Visual Studio\2022\Community\VC\Tools\MSVC\14.34.31933\include\xstddef
; File C:\Program Files\Microsoft Visual Studio\2022\Community\VC\Tools\MSVC\14.34.31933\include\xtree
; File C:\Program Files\Microsoft Visual Studio\2022\Community\VC\Tools\MSVC\14.34.31933\include\xstddef
; File C:\Program Files\Microsoft Visual Studio\2022\Community\VC\Tools\MSVC\14.34.31933\include\xtree
; File C:\Program Files\Microsoft Visual Studio\2022\Community\VC\Tools\MSVC\14.34.31933\include\xutility
; File C:\Program Files\Microsoft Visual Studio\2022\Community\VC\Tools\MSVC\14.34.31933\include\xtree
; File C:\Program Files\Microsoft Visual Studio\2022\Community\VC\Tools\MSVC\14.34.31933\include\xutility
; File C:\Program Files\Microsoft Visual Studio\2022\Community\VC\Tools\MSVC\14.34.31933\include\xtree
; File C:\Program Files\Microsoft Visual Studio\2022\Community\VC\Tools\MSVC\14.34.31933\include\xutility
; File C:\Program Files\Microsoft Visual Studio\2022\Community\VC\Tools\MSVC\14.34.31933\include\xtree
; File C:\Program Files\Microsoft Visual Studio\2022\Community\VC\Tools\MSVC\14.34.31933\include\xutility
; File C:\Program Files\Microsoft Visual Studio\2022\Community\VC\Tools\MSVC\14.34.31933\include\xtree
;	COMDAT ?erase@?$_Tree@V?$_Tmap_traits@V?$basic_string@DU?$char_traits@D@std@@V?$allocator@D@2@@std@@MU?$less@V?$basic_string@DU?$char_traits@D@std@@V?$allocator@D@2@@std@@@2@V?$allocator@U?$pair@$$CBV?$basic_string@DU?$char_traits@D@std@@V?$allocator@D@2@@std@@M@std@@@2@$0A@@std@@@std@@QAEIABV?$basic_string@DU?$char_traits@D@std@@V?$allocator@D@2@@2@@Z
_TEXT	SEGMENT
tv635 = -12						; size = 4
__Off$1$ = -12						; size = 4
_this$1$ = -8						; size = 4
__Head$1$ = -4						; size = 4
__First$ = 8						; size = 4
__Keyval$ = 8						; size = 4
?erase@?$_Tree@V?$_Tmap_traits@V?$basic_string@DU?$char_traits@D@std@@V?$allocator@D@2@@std@@MU?$less@V?$basic_string@DU?$char_traits@D@std@@V?$allocator@D@2@@std@@@2@V?$allocator@U?$pair@$$CBV?$basic_string@DU?$char_traits@D@std@@V?$allocator@D@2@@std@@M@std@@@2@$0A@@std@@@std@@QAEIABV?$basic_string@DU?$char_traits@D@std@@V?$allocator@D@2@@2@@Z PROC ; std::_Tree<std::_Tmap_traits<std::basic_string<char,std::char_traits<char>,std::allocator<char> >,float,std::less<std::basic_string<char,std::char_traits<char>,std::allocator<char> > >,std::allocator<std::pair<std::basic_string<char,std::char_traits<char>,std::allocator<char> > const ,float> >,0> >::erase, COMDAT
; _this$ = ecx

; 1341 :     size_type erase(const key_type& _Keyval) noexcept(noexcept(_Eqrange(_Keyval))) /* strengthened */ {

  00000	55		 push	 ebp
  00001	8b ec		 mov	 ebp, esp
  00003	83 ec 0c	 sub	 esp, 12			; 0000000cH
  00006	8b c1		 mov	 eax, ecx

; 1698 :         while (!_Pnode->_Isnil) {

  00008	8b 4d 08	 mov	 ecx, DWORD PTR __Keyval$[ebp]

; 1341 :     size_type erase(const key_type& _Keyval) noexcept(noexcept(_Eqrange(_Keyval))) /* strengthened */ {

  0000b	89 45 f8	 mov	 DWORD PTR _this$1$[ebp], eax
  0000e	53		 push	 ebx
  0000f	56		 push	 esi

; 1692 :         const auto _Scary = _Get_scary();

  00010	8b 00		 mov	 eax, DWORD PTR [eax]

; 1696 :         _Nodeptr _Hinode  = _Scary->_Myhead; // end() if search fails

  00012	8b f0		 mov	 esi, eax

; 1341 :     size_type erase(const key_type& _Keyval) noexcept(noexcept(_Eqrange(_Keyval))) /* strengthened */ {

  00014	57		 push	 edi

; 1692 :         const auto _Scary = _Get_scary();

  00015	89 45 fc	 mov	 DWORD PTR __Head$1$[ebp], eax

; 1693 :         const auto& _Comp = _Getcomp();
; 1694 :         _Nodeptr _Pnode   = _Scary->_Myhead->_Parent;
; 1695 :         _Nodeptr _Lonode  = _Scary->_Myhead; // end() if search fails

  00018	8b f8		 mov	 edi, eax
  0001a	8b 50 04	 mov	 edx, DWORD PTR [eax+4]
  0001d	8b da		 mov	 ebx, edx
  0001f	89 55 f4	 mov	 DWORD PTR tv635[ebp], edx

; 1697 : 
; 1698 :         while (!_Pnode->_Isnil) {

  00022	80 7b 0d 00	 cmp	 BYTE PTR [ebx+13], 0
  00026	75 40		 jne	 SHORT $LN5@erase
$LL4@erase:

; 1699 :             const auto& _Nodekey = _Traits::_Kfn(_Pnode->_Myval);

  00028	8d 43 10	 lea	 eax, DWORD PTR [ebx+16]
; File C:\Program Files\Microsoft Visual Studio\2022\Community\VC\Tools\MSVC\14.34.31933\include\xstddef

; 143  :         return _Left < _Right;

  0002b	51		 push	 ecx
  0002c	50		 push	 eax
  0002d	e8 00 00 00 00	 call	 ??$?MDU?$char_traits@D@std@@V?$allocator@D@1@@std@@YA_NABV?$basic_string@DU?$char_traits@D@std@@V?$allocator@D@2@@0@0@Z ; std::operator<<char,std::char_traits<char>,std::allocator<char> >
  00032	83 c4 08	 add	 esp, 8
; File C:\Program Files\Microsoft Visual Studio\2022\Community\VC\Tools\MSVC\14.34.31933\include\xtree

; 1700 :             if (_DEBUG_LT_PRED(_Comp, _Nodekey, _Keyval)) {

  00035	84 c0		 test	 al, al
  00037	74 05		 je	 SHORT $LN8@erase

; 1701 :                 _Pnode = _Pnode->_Right; // descend right subtree

  00039	8b 5b 08	 mov	 ebx, DWORD PTR [ebx+8]

; 1702 :             } else { // _Pnode not less than _Keyval, remember it

  0003c	eb 1e		 jmp	 SHORT $LN9@erase
$LN8@erase:

; 1703 :                 if (_Hinode->_Isnil && _DEBUG_LT_PRED(_Comp, _Keyval, _Nodekey)) {

  0003e	80 7e 0d 00	 cmp	 BYTE PTR [esi+13], 0
  00042	74 14		 je	 SHORT $LN10@erase
; File C:\Program Files\Microsoft Visual Studio\2022\Community\VC\Tools\MSVC\14.34.31933\include\xstddef

; 143  :         return _Left < _Right;

  00044	8d 43 10	 lea	 eax, DWORD PTR [ebx+16]
  00047	50		 push	 eax
  00048	ff 75 08	 push	 DWORD PTR __Keyval$[ebp]
  0004b	e8 00 00 00 00	 call	 ??$?MDU?$char_traits@D@std@@V?$allocator@D@1@@std@@YA_NABV?$basic_string@DU?$char_traits@D@std@@V?$allocator@D@2@@0@0@Z ; std::operator<<char,std::char_traits<char>,std::allocator<char> >
  00050	83 c4 08	 add	 esp, 8
; File C:\Program Files\Microsoft Visual Studio\2022\Community\VC\Tools\MSVC\14.34.31933\include\xtree

; 1703 :                 if (_Hinode->_Isnil && _DEBUG_LT_PRED(_Comp, _Keyval, _Nodekey)) {

  00053	84 c0		 test	 al, al
  00055	0f 45 f3	 cmovne	 esi, ebx
$LN10@erase:

; 1704 :                     _Hinode = _Pnode; // _Pnode greater, remember it
; 1705 :                 }
; 1706 : 
; 1707 :                 _Lonode = _Pnode;

  00058	8b fb		 mov	 edi, ebx

; 1708 :                 _Pnode  = _Pnode->_Left; // descend left subtree

  0005a	8b 1b		 mov	 ebx, DWORD PTR [ebx]
$LN9@erase:

; 1697 : 
; 1698 :         while (!_Pnode->_Isnil) {

  0005c	80 7b 0d 00	 cmp	 BYTE PTR [ebx+13], 0
  00060	8b 4d 08	 mov	 ecx, DWORD PTR __Keyval$[ebp]
  00063	74 c3		 je	 SHORT $LL4@erase
  00065	8b 55 f4	 mov	 edx, DWORD PTR tv635[ebp]
$LN5@erase:

; 1709 :             }
; 1710 :         }
; 1711 : 
; 1712 :         _Pnode = _Hinode->_Isnil ? _Scary->_Myhead->_Parent : _Hinode->_Left; // continue scan for upper bound

  00068	80 7e 0d 00	 cmp	 BYTE PTR [esi+13], 0
  0006c	8b da		 mov	 ebx, edx
  0006e	75 02		 jne	 SHORT $LN15@erase
  00070	8b 1e		 mov	 ebx, DWORD PTR [esi]
$LN15@erase:

; 1713 :         while (!_Pnode->_Isnil) {

  00072	80 7b 0d 00	 cmp	 BYTE PTR [ebx+13], 0
  00076	75 23		 jne	 SHORT $LN7@erase
$LL6@erase:

; 1714 :             if (_DEBUG_LT_PRED(_Getcomp(), _Keyval, _Traits::_Kfn(_Pnode->_Myval))) {

  00078	8d 43 10	 lea	 eax, DWORD PTR [ebx+16]
; File C:\Program Files\Microsoft Visual Studio\2022\Community\VC\Tools\MSVC\14.34.31933\include\xstddef

; 143  :         return _Left < _Right;

  0007b	50		 push	 eax
  0007c	51		 push	 ecx
  0007d	e8 00 00 00 00	 call	 ??$?MDU?$char_traits@D@std@@V?$allocator@D@1@@std@@YA_NABV?$basic_string@DU?$char_traits@D@std@@V?$allocator@D@2@@0@0@Z ; std::operator<<char,std::char_traits<char>,std::allocator<char> >
  00082	83 c4 08	 add	 esp, 8
; File C:\Program Files\Microsoft Visual Studio\2022\Community\VC\Tools\MSVC\14.34.31933\include\xtree

; 1714 :             if (_DEBUG_LT_PRED(_Getcomp(), _Keyval, _Traits::_Kfn(_Pnode->_Myval))) {

  00085	84 c0		 test	 al, al
  00087	74 06		 je	 SHORT $LN11@erase

; 1715 :                 // _Pnode greater than _Keyval, remember it
; 1716 :                 _Hinode = _Pnode;

  00089	8b f3		 mov	 esi, ebx

; 1717 :                 _Pnode  = _Pnode->_Left; // descend left subtree

  0008b	8b 1b		 mov	 ebx, DWORD PTR [ebx]

; 1718 :             } else {

  0008d	eb 03		 jmp	 SHORT $LN12@erase
$LN11@erase:

; 1719 :                 _Pnode = _Pnode->_Right; // descend right subtree

  0008f	8b 5b 08	 mov	 ebx, DWORD PTR [ebx+8]
$LN12@erase:

; 1713 :         while (!_Pnode->_Isnil) {

  00092	80 7b 0d 00	 cmp	 BYTE PTR [ebx+13], 0
  00096	8b 4d 08	 mov	 ecx, DWORD PTR __Keyval$[ebp]
  00099	74 dd		 je	 SHORT $LL6@erase
$LN7@erase:
; File C:\Program Files\Microsoft Visual Studio\2022\Community\VC\Tools\MSVC\14.34.31933\include\xutility

; 1165 :         auto _UFirst             = _Get_unwrapped(_First);

  0009b	8b c7		 mov	 eax, edi

; 1166 :         const auto _ULast        = _Get_unwrapped(_Last);
; 1167 :         _Iter_diff_t<_InIt> _Off = 0;

  0009d	33 db		 xor	 ebx, ebx
  0009f	89 5d f4	 mov	 DWORD PTR __Off$1$[ebp], ebx
; File C:\Program Files\Microsoft Visual Studio\2022\Community\VC\Tools\MSVC\14.34.31933\include\xtree

; 97   :         return _Ptr == _Right._Ptr;

  000a2	3b c6		 cmp	 eax, esi
; File C:\Program Files\Microsoft Visual Studio\2022\Community\VC\Tools\MSVC\14.34.31933\include\xutility

; 1168 :         for (; _UFirst != _ULast; ++_UFirst) {

  000a4	74 4d		 je	 SHORT $LN32@erase
$LL43@erase:
; File C:\Program Files\Microsoft Visual Studio\2022\Community\VC\Tools\MSVC\14.34.31933\include\xtree

; 51   :         if (_Ptr->_Right->_Isnil) { // climb looking for right subtree

  000a6	8b 48 08	 mov	 ecx, DWORD PTR [eax+8]
; File C:\Program Files\Microsoft Visual Studio\2022\Community\VC\Tools\MSVC\14.34.31933\include\xutility

; 1169 :             ++_Off;

  000a9	43		 inc	 ebx
; File C:\Program Files\Microsoft Visual Studio\2022\Community\VC\Tools\MSVC\14.34.31933\include\xtree

; 51   :         if (_Ptr->_Right->_Isnil) { // climb looking for right subtree

  000aa	80 79 0d 00	 cmp	 BYTE PTR [ecx+13], 0
  000ae	74 24		 je	 SHORT $LN42@erase

; 52   :             _Nodeptr _Pnode;
; 53   :             while (!(_Pnode = _Ptr->_Parent)->_Isnil && _Ptr == _Pnode->_Right) {

  000b0	8b 48 04	 mov	 ecx, DWORD PTR [eax+4]
  000b3	80 79 0d 00	 cmp	 BYTE PTR [ecx+13], 0
  000b7	75 17		 jne	 SHORT $LN95@erase
  000b9	0f 1f 80 00 00
	00 00		 npad	 7
$LL40@erase:
  000c0	3b 41 08	 cmp	 eax, DWORD PTR [ecx+8]
  000c3	75 0b		 jne	 SHORT $LN95@erase

; 54   :                 _Ptr = _Pnode; // ==> parent while right subtree

  000c5	8b c1		 mov	 eax, ecx
  000c7	8b 49 04	 mov	 ecx, DWORD PTR [ecx+4]
  000ca	80 79 0d 00	 cmp	 BYTE PTR [ecx+13], 0
  000ce	74 f0		 je	 SHORT $LL40@erase
$LN95@erase:

; 55   :             }
; 56   : 
; 57   :             _Ptr = _Pnode; // ==> parent (head if end())

  000d0	8b c1		 mov	 eax, ecx

; 58   :         } else {

  000d2	eb 18		 jmp	 SHORT $LN47@erase
$LN42@erase:

; 59   :             _Ptr = _Mytree::_Min(_Ptr->_Right); // ==> smallest of right subtree

  000d4	8b c1		 mov	 eax, ecx

; 453  :         while (!_Pnode->_Left->_Isnil) {

  000d6	8b 10		 mov	 edx, DWORD PTR [eax]
  000d8	80 7a 0d 00	 cmp	 BYTE PTR [edx+13], 0
  000dc	75 0e		 jne	 SHORT $LN47@erase
  000de	66 90		 npad	 2
$LL46@erase:
  000e0	8b 0a		 mov	 ecx, DWORD PTR [edx]

; 454  :             _Pnode = _Pnode->_Left;

  000e2	8b c2		 mov	 eax, edx
  000e4	8b d1		 mov	 edx, ecx
  000e6	80 79 0d 00	 cmp	 BYTE PTR [ecx+13], 0
  000ea	74 f4		 je	 SHORT $LL46@erase
$LN47@erase:

; 97   :         return _Ptr == _Right._Ptr;

  000ec	3b c6		 cmp	 eax, esi
; File C:\Program Files\Microsoft Visual Studio\2022\Community\VC\Tools\MSVC\14.34.31933\include\xutility

; 1168 :         for (; _UFirst != _ULast; ++_UFirst) {

  000ee	75 b6		 jne	 SHORT $LL43@erase
  000f0	89 5d f4	 mov	 DWORD PTR __Off$1$[ebp], ebx
$LN32@erase:
; File C:\Program Files\Microsoft Visual Studio\2022\Community\VC\Tools\MSVC\14.34.31933\include\xtree

; 97   :         return _Ptr == _Right._Ptr;

  000f3	8b 45 fc	 mov	 eax, DWORD PTR __Head$1$[ebp]

; 1313 :         _Erase_unchecked(_First, _Last);

  000f6	89 7d 08	 mov	 DWORD PTR __First$[ebp], edi

; 97   :         return _Ptr == _Right._Ptr;

  000f9	3b 38		 cmp	 edi, DWORD PTR [eax]

; 1295 :         if (_First == _Begin && _Last._Ptr->_Isnil) {

  000fb	75 31		 jne	 SHORT $LN77@erase
  000fd	80 7e 0d 00	 cmp	 BYTE PTR [esi+13], 0
  00101	74 2b		 je	 SHORT $LN77@erase

; 1357 :         _Scary->_Erase_tree(_Getal(), _Head->_Parent);

  00103	ff 70 04	 push	 DWORD PTR [eax+4]
  00106	8b 75 f8	 mov	 esi, DWORD PTR _this$1$[ebp]
  00109	8b ce		 mov	 ecx, esi
  0010b	56		 push	 esi
  0010c	e8 00 00 00 00	 call	 ??$_Erase_tree@V?$allocator@U?$_Tree_node@U?$pair@$$CBV?$basic_string@DU?$char_traits@D@std@@V?$allocator@D@2@@std@@M@std@@PAX@std@@@std@@@?$_Tree_val@U?$_Tree_simple_types@U?$pair@$$CBV?$basic_string@DU?$char_traits@D@std@@V?$allocator@D@2@@std@@M@std@@@std@@@std@@QAEXAAV?$allocator@U?$_Tree_node@U?$pair@$$CBV?$basic_string@DU?$char_traits@D@std@@V?$allocator@D@2@@std@@M@std@@PAX@std@@@1@PAU?$_Tree_node@U?$pair@$$CBV?$basic_string@DU?$char_traits@D@std@@V?$allocator@D@2@@std@@M@std@@PAX@1@@Z ; std::_Tree_val<std::_Tree_simple_types<std::pair<std::basic_string<char,std::char_traits<char>,std::allocator<char> > const ,float> > >::_Erase_tree<std::allocator<std::_Tree_node<std::pair<std::basic_string<char,std::char_traits<char>,std::allocator<char> > const ,float>,void *> > >

; 1358 :         _Head->_Parent  = _Head;

  00111	8b 45 fc	 mov	 eax, DWORD PTR __Head$1$[ebp]
  00114	89 40 04	 mov	 DWORD PTR [eax+4], eax

; 1359 :         _Head->_Left    = _Head;

  00117	89 00		 mov	 DWORD PTR [eax], eax

; 1360 :         _Head->_Right   = _Head;

  00119	89 40 08	 mov	 DWORD PTR [eax+8], eax

; 1361 :         _Scary->_Mysize = 0;

  0011c	c7 46 04 00 00
	00 00		 mov	 DWORD PTR [esi+4], 0
$LN94@erase:
  00123	5f		 pop	 edi

; 1342 :         return _Erase(_Eqrange(_Keyval));
; 1343 :     }

  00124	5e		 pop	 esi
  00125	8b c3		 mov	 eax, ebx
  00127	5b		 pop	 ebx
  00128	8b e5		 mov	 esp, ebp
  0012a	5d		 pop	 ebp
  0012b	c2 04 00	 ret	 4
$LN77@erase:

; 97   :         return _Ptr == _Right._Ptr;

  0012e	3b fe		 cmp	 edi, esi

; 1302 :         while (_First != _Last) {

  00130	74 f1		 je	 SHORT $LN94@erase
  00132	8b 5d f8	 mov	 ebx, DWORD PTR _this$1$[ebp]
$LL50@erase:

; 67   :         ++*this;

  00135	8d 4d 08	 lea	 ecx, DWORD PTR __First$[ebp]
  00138	e8 00 00 00 00	 call	 ??E?$_Tree_unchecked_const_iterator@V?$_Tree_val@U?$_Tree_simple_types@U?$pair@$$CBV?$basic_string@DU?$char_traits@D@std@@V?$allocator@D@2@@std@@M@std@@@std@@@std@@U_Iterator_base0@2@@std@@QAEAAV01@XZ ; std::_Tree_unchecked_const_iterator<std::_Tree_val<std::_Tree_simple_types<std::pair<std::basic_string<char,std::char_traits<char>,std::allocator<char> > const ,float> > >,std::_Iterator_base0>::operator++

; 1287 :         _Nodeptr _Erasednode = _Scary->_Extract(_Where); // node to erase

  0013d	57		 push	 edi
  0013e	8b cb		 mov	 ecx, ebx
  00140	e8 00 00 00 00	 call	 ?_Extract@?$_Tree_val@U?$_Tree_simple_types@U?$pair@$$CBV?$basic_string@DU?$char_traits@D@std@@V?$allocator@D@2@@std@@M@std@@@std@@@std@@QAEPAU?$_Tree_node@U?$pair@$$CBV?$basic_string@DU?$char_traits@D@std@@V?$allocator@D@2@@std@@M@std@@PAX@2@V?$_Tree_unchecked_const_iterator@V?$_Tree_val@U?$_Tree_simple_types@U?$pair@$$CBV?$basic_string@DU?$char_traits@D@std@@V?$allocator@D@2@@std@@M@std@@@std@@@std@@U_Iterator_base0@2@@2@@Z ; std::_Tree_val<std::_Tree_simple_types<std::pair<std::basic_string<char,std::char_traits<char>,std::allocator<char> > const ,float> > >::_Extract

; 1288 :         _Scary->_Orphan_ptr(_Erasednode);
; 1289 :         _Node::_Freenode(_Getal(), _Erasednode); // delete erased node

  00145	50		 push	 eax
  00146	53		 push	 ebx
  00147	e8 00 00 00 00	 call	 ??$_Freenode@V?$allocator@U?$_Tree_node@U?$pair@$$CBV?$basic_string@DU?$char_traits@D@std@@V?$allocator@D@2@@std@@M@std@@PAX@std@@@std@@@?$_Tree_node@U?$pair@$$CBV?$basic_string@DU?$char_traits@D@std@@V?$allocator@D@2@@std@@M@std@@PAX@std@@SAXAAV?$allocator@U?$_Tree_node@U?$pair@$$CBV?$basic_string@DU?$char_traits@D@std@@V?$allocator@D@2@@std@@M@std@@PAX@std@@@1@PAU01@@Z ; std::_Tree_node<std::pair<std::basic_string<char,std::char_traits<char>,std::allocator<char> > const ,float>,void *>::_Freenode<std::allocator<std::_Tree_node<std::pair<std::basic_string<char,std::char_traits<char>,std::allocator<char> > const ,float>,void *> > >

; 97   :         return _Ptr == _Right._Ptr;

  0014c	8b 7d 08	 mov	 edi, DWORD PTR __First$[ebp]

; 1289 :         _Node::_Freenode(_Getal(), _Erasednode); // delete erased node

  0014f	83 c4 08	 add	 esp, 8

; 97   :         return _Ptr == _Right._Ptr;

  00152	3b fe		 cmp	 edi, esi

; 1302 :         while (_First != _Last) {

  00154	75 df		 jne	 SHORT $LL50@erase

; 1342 :         return _Erase(_Eqrange(_Keyval));
; 1343 :     }

  00156	8b 45 f4	 mov	 eax, DWORD PTR __Off$1$[ebp]
  00159	5f		 pop	 edi
  0015a	5e		 pop	 esi
  0015b	5b		 pop	 ebx
  0015c	8b e5		 mov	 esp, ebp
  0015e	5d		 pop	 ebp
  0015f	c2 04 00	 ret	 4
?erase@?$_Tree@V?$_Tmap_traits@V?$basic_string@DU?$char_traits@D@std@@V?$allocator@D@2@@std@@MU?$less@V?$basic_string@DU?$char_traits@D@std@@V?$allocator@D@2@@std@@@2@V?$allocator@U?$pair@$$CBV?$basic_string@DU?$char_traits@D@std@@V?$allocator@D@2@@std@@M@std@@@2@$0A@@std@@@std@@QAEIABV?$basic_string@DU?$char_traits@D@std@@V?$allocator@D@2@@2@@Z ENDP ; std::_Tree<std::_Tmap_traits<std::basic_string<char,std::char_traits<char>,std::allocator<char> >,float,std::less<std::basic_string<char,std::char_traits<char>,std::allocator<char> > >,std::allocator<std::pair<std::basic_string<char,std::char_traits<char>,std::allocator<char> > const ,float> >,0> >::erase
_TEXT	ENDS
; Function compile flags: /Ogtp
; File C:\Users\flourine\Desktop\Xantios\client-src\Code\MilesLib\SoundManager.cpp
;	COMDAT ?GetSoundInstance3D@CSoundManager@@IAEHPBDPAPAVISoundInstance@@@Z
_TEXT	SEGMENT
_c_szFileName$ = 8					; size = 4
_ppInstance$ = 12					; size = 4
?GetSoundInstance3D@CSoundManager@@IAEHPBDPAPAVISoundInstance@@@Z PROC ; CSoundManager::GetSoundInstance3D, COMDAT
; _this$ = ecx

; 327  : {

  00000	55		 push	 ebp
  00001	8b ec		 mov	 ebp, esp

; 328  : 	int iIndex = ms_SoundManager3D.SetInstance(c_szFileName);

  00003	ff 75 08	 push	 DWORD PTR _c_szFileName$[ebp]
  00006	b9 00 00 00 00	 mov	 ecx, OFFSET ?ms_SoundManager3D@CSoundManager@@1VCSoundManager3D@@A ; CSoundManager::ms_SoundManager3D
  0000b	e8 00 00 00 00	 call	 ?SetInstance@CSoundManager3D@@QAEHPBD@Z ; CSoundManager3D::SetInstance

; 329  : 
; 330  : 	if (-1 == iIndex)

  00010	83 f8 ff	 cmp	 eax, -1
  00013	74 1d		 je	 SHORT $LN5@GetSoundIn

; 331  : 	{
; 332  : 		return FALSE;
; 333  : 	}
; 334  : 
; 335  : 	*ppInstance = ms_SoundManager3D.GetInstance(iIndex);

  00015	50		 push	 eax
  00016	b9 00 00 00 00	 mov	 ecx, OFFSET ?ms_SoundManager3D@CSoundManager@@1VCSoundManager3D@@A ; CSoundManager::ms_SoundManager3D
  0001b	e8 00 00 00 00	 call	 ?GetInstance@CSoundManager3D@@QAEPAVISoundInstance@@K@Z ; CSoundManager3D::GetInstance
  00020	8b 4d 0c	 mov	 ecx, DWORD PTR _ppInstance$[ebp]
  00023	8b d0		 mov	 edx, eax

; 336  : 
; 337  : 	if (!*ppInstance)

  00025	33 c0		 xor	 eax, eax
  00027	85 d2		 test	 edx, edx
  00029	0f 95 c0	 setne	 al
  0002c	89 11		 mov	 DWORD PTR [ecx], edx

; 340  : 	}
; 341  : 
; 342  : 	return TRUE;
; 343  : }

  0002e	5d		 pop	 ebp
  0002f	c2 08 00	 ret	 8
$LN5@GetSoundIn:

; 338  : 	{
; 339  : 		return FALSE;

  00032	33 c0		 xor	 eax, eax

; 340  : 	}
; 341  : 
; 342  : 	return TRUE;
; 343  : }

  00034	5d		 pop	 ebp
  00035	c2 08 00	 ret	 8
?GetSoundInstance3D@CSoundManager@@IAEHPBDPAPAVISoundInstance@@@Z ENDP ; CSoundManager::GetSoundInstance3D
_TEXT	ENDS
; Function compile flags: /Ogtp
; File C:\Users\flourine\Desktop\Xantios\client-src\Code\MilesLib\SoundManager.cpp
;	COMDAT ?GetSoundInstance2D@CSoundManager@@IAEHPBDPAPAVISoundInstance@@@Z
_TEXT	SEGMENT
_c_szSoundFileName$ = 8					; size = 4
_ppInstance$ = 12					; size = 4
?GetSoundInstance2D@CSoundManager@@IAEHPBDPAPAVISoundInstance@@@Z PROC ; CSoundManager::GetSoundInstance2D, COMDAT
; _this$ = ecx

; 315  : {

  00000	55		 push	 ebp
  00001	8b ec		 mov	 ebp, esp

; 316  : 	*ppInstance = ms_SoundManager2D.GetInstance(c_szSoundFileName);

  00003	ff 75 08	 push	 DWORD PTR _c_szSoundFileName$[ebp]
  00006	b9 00 00 00 00	 mov	 ecx, OFFSET ?ms_SoundManager2D@CSoundManager@@1VCSoundManager2D@@A ; CSoundManager::ms_SoundManager2D
  0000b	e8 00 00 00 00	 call	 ?GetInstance@CSoundManager2D@@QAEPAVISoundInstance@@PBD@Z ; CSoundManager2D::GetInstance
  00010	8b 4d 0c	 mov	 ecx, DWORD PTR _ppInstance$[ebp]
  00013	8b d0		 mov	 edx, eax

; 317  : 
; 318  : 	if (!*ppInstance)

  00015	33 c0		 xor	 eax, eax
  00017	85 d2		 test	 edx, edx
  00019	0f 95 c0	 setne	 al
  0001c	89 11		 mov	 DWORD PTR [ecx], edx

; 319  : 	{
; 320  : 		return FALSE;
; 321  : 	}
; 322  : 
; 323  : 	return TRUE;
; 324  : }

  0001e	5d		 pop	 ebp
  0001f	c2 08 00	 ret	 8
?GetSoundInstance2D@CSoundManager@@IAEHPBDPAPAVISoundInstance@@@Z ENDP ; CSoundManager::GetSoundInstance2D
_TEXT	ENDS
; Function compile flags: /Ogtp
; File C:\Users\flourine\Desktop\Xantios\client-src\Code\MilesLib\SoundManager.cpp
;	COMDAT ?__SetMusicVolume@CSoundManager@@IAEXM@Z
_TEXT	SEGMENT
_fVolume$ = 8						; size = 4
?__SetMusicVolume@CSoundManager@@IAEXM@Z PROC		; CSoundManager::__SetMusicVolume, COMDAT
; _this$ = ecx

; 226  : {

  00000	55		 push	 ebp
  00001	8b ec		 mov	 ebp, esp

; 227  : 	if (m_isSoundDisable)

  00003	f3 0f 10 45 08	 movss	 xmm0, DWORD PTR _fVolume$[ebp]
  00008	57		 push	 edi
  00009	8b f9		 mov	 edi, ecx
  0000b	83 7f 08 00	 cmp	 DWORD PTR [edi+8], 0
  0000f	74 0a		 je	 SHORT $LN5@SetMusicVo

; 228  : 	{
; 229  : 		m_fBackupMusicVolume = fVolume;

  00011	f3 0f 11 47 28	 movss	 DWORD PTR [edi+40], xmm0
  00016	5f		 pop	 edi

; 260  : 		}
; 261  : 	}
; 262  : }

  00017	5d		 pop	 ebp
  00018	c2 04 00	 ret	 4
$LN5@SetMusicVo:

; 230  : 		return;
; 231  : 	}
; 232  : 
; 233  : 	fVolume = fMAX(fVolume, 0.0f);

  0001b	83 ec 08	 sub	 esp, 8
  0001e	c7 44 24 04 00
	00 00 00	 mov	 DWORD PTR [esp+4], 0
  00026	f3 0f 11 04 24	 movss	 DWORD PTR [esp], xmm0
  0002b	e8 00 00 00 00	 call	 ?fMAX@@YAMMM@Z		; fMAX
  00030	d9 5d 08	 fstp	 DWORD PTR _fVolume$[ebp]

; 234  : 	fVolume = fMIN(fVolume, 1.0f);

  00033	f3 0f 10 45 08	 movss	 xmm0, DWORD PTR _fVolume$[ebp]
  00038	c7 44 24 04 00
	00 80 3f	 mov	 DWORD PTR [esp+4], 1065353216 ; 3f800000H
  00040	f3 0f 11 04 24	 movss	 DWORD PTR [esp], xmm0
  00045	e8 00 00 00 00	 call	 ?fMIN@@YAMMM@Z		; fMIN
  0004a	d9 5d 08	 fstp	 DWORD PTR _fVolume$[ebp]

; 235  : 	m_fMusicVolume = fVolume;

  0004d	f3 0f 10 45 08	 movss	 xmm0, DWORD PTR _fVolume$[ebp]
  00052	83 c4 08	 add	 esp, 8

; 236  : 
; 237  : 	if (!m_isSoundDisable)

  00055	83 7f 08 00	 cmp	 DWORD PTR [edi+8], 0
  00059	f3 0f 11 47 24	 movss	 DWORD PTR [edi+36], xmm0
  0005e	75 05		 jne	 SHORT $LN6@SetMusicVo

; 238  : 	{
; 239  : 		m_fBackupMusicVolume = fVolume;

  00060	f3 0f 11 47 28	 movss	 DWORD PTR [edi+40], xmm0
$LN6@SetMusicVo:
  00065	56		 push	 esi

; 240  : 	}
; 241  : 
; 242  : 	for (int i = 0; i < CSoundManagerStream::MUSIC_INSTANCE_MAX_NUM; ++i)

  00066	33 f6		 xor	 esi, esi
  00068	83 c7 38	 add	 edi, 56			; 00000038H
  0006b	0f 1f 44 00 00	 npad	 5
$LL4@SetMusicVo:

; 243  : 	{
; 244  : 		TMusicInstance & rMusicInstance = m_MusicInstances[i];
; 245  : 		if (MUSIC_STATE_OFF == rMusicInstance.MusicState)

  00070	8b 47 fc	 mov	 eax, DWORD PTR [edi-4]
  00073	85 c0		 test	 eax, eax
  00075	74 2f		 je	 SHORT $LN2@SetMusicVo

; 246  : 		{
; 247  : 			continue;
; 248  : 		}
; 249  : 		if (MUSIC_STATE_FADE_OUT == rMusicInstance.MusicState)

  00077	83 f8 03	 cmp	 eax, 3
  0007a	74 2a		 je	 SHORT $LN2@SetMusicVo

; 250  : 		{
; 251  : 			continue;
; 252  : 		}
; 253  : 
; 254  : 		rMusicInstance.fVolume = fVolume;
; 255  : 
; 256  : 		CSoundInstanceStream * pInstance = ms_SoundManagerStream.GetInstance(i);

  0007c	56		 push	 esi
  0007d	b9 00 00 00 00	 mov	 ecx, OFFSET ?ms_SoundManagerStream@CSoundManager@@1VCSoundManagerStream@@A ; CSoundManager::ms_SoundManagerStream
  00082	f3 0f 11 07	 movss	 DWORD PTR [edi], xmm0
  00086	e8 00 00 00 00	 call	 ?GetInstance@CSoundManagerStream@@QAEPAVCSoundInstanceStream@@K@Z ; CSoundManagerStream::GetInstance

; 257  : 		if (pInstance)

  0008b	f3 0f 10 45 08	 movss	 xmm0, DWORD PTR _fVolume$[ebp]
  00090	85 c0		 test	 eax, eax
  00092	74 12		 je	 SHORT $LN2@SetMusicVo

; 258  : 		{
; 259  : 			pInstance->SetVolume(fVolume);

  00094	8b 10		 mov	 edx, DWORD PTR [eax]
  00096	51		 push	 ecx
  00097	8b c8		 mov	 ecx, eax
  00099	f3 0f 11 04 24	 movss	 DWORD PTR [esp], xmm0
  0009e	ff 52 24	 call	 DWORD PTR [edx+36]
  000a1	f3 0f 10 45 08	 movss	 xmm0, DWORD PTR _fVolume$[ebp]
$LN2@SetMusicVo:

; 240  : 	}
; 241  : 
; 242  : 	for (int i = 0; i < CSoundManagerStream::MUSIC_INSTANCE_MAX_NUM; ++i)

  000a6	46		 inc	 esi
  000a7	83 c7 14	 add	 edi, 20			; 00000014H
  000aa	83 fe 03	 cmp	 esi, 3
  000ad	7c c1		 jl	 SHORT $LL4@SetMusicVo
  000af	5e		 pop	 esi
  000b0	5f		 pop	 edi

; 260  : 		}
; 261  : 	}
; 262  : }

  000b1	5d		 pop	 ebp
  000b2	c2 04 00	 ret	 4
?__SetMusicVolume@CSoundManager@@IAEXM@Z ENDP		; CSoundManager::__SetMusicVolume
_TEXT	ENDS
; Function compile flags: /Ogtp
; File C:\Users\flourine\Desktop\Xantios\client-src\Code\MilesLib\SoundManager.cpp
;	COMDAT ?__ConvertRatioVolumeToApplyVolume@CSoundManager@@IAEMM@Z
_TEXT	SEGMENT
tv75 = 8						; size = 4
_fRatioVolume$ = 8					; size = 4
?__ConvertRatioVolumeToApplyVolume@CSoundManager@@IAEMM@Z PROC ; CSoundManager::__ConvertRatioVolumeToApplyVolume, COMDAT
; _this$ = ecx

; 265  : {

  00000	55		 push	 ebp
  00001	8b ec		 mov	 ebp, esp

; 266  : 	if (0.1f > fRatioVolume)

  00003	f3 0f 10 05 00
	00 00 00	 movss	 xmm0, DWORD PTR __real@3dcccccd
  0000b	f3 0f 10 4d 08	 movss	 xmm1, DWORD PTR _fRatioVolume$[ebp]
  00010	0f 2f c1	 comiss	 xmm0, xmm1
  00013	76 07		 jbe	 SHORT $LN2@ConvertRat

; 267  : 	{
; 268  : 		return fRatioVolume;

  00015	d9 45 08	 fld	 DWORD PTR _fRatioVolume$[ebp]

; 272  : }

  00018	5d		 pop	 ebp
  00019	c2 04 00	 ret	 4
$LN2@ConvertRat:

; 269  : 	}
; 270  : 
; 271  : 	return (float)pow(10.0f, (-1.0f + fRatioVolume));

  0001c	f3 0f 5c 0d 00
	00 00 00	 subss	 xmm1, DWORD PTR __real@3f800000
  00024	f2 0f 10 05 00
	00 00 00	 movsd	 xmm0, QWORD PTR __real@4024000000000000
  0002c	0f 5a c9	 cvtps2pd xmm1, xmm1
  0002f	e8 00 00 00 00	 call	 __libm_sse2_pow_precise
  00034	f2 0f 5a c0	 cvtsd2ss xmm0, xmm0
  00038	f3 0f 11 45 08	 movss	 DWORD PTR tv75[ebp], xmm0
  0003d	d9 45 08	 fld	 DWORD PTR tv75[ebp]

; 272  : }

  00040	5d		 pop	 ebp
  00041	c2 04 00	 ret	 4
?__ConvertRatioVolumeToApplyVolume@CSoundManager@@IAEMM@Z ENDP ; CSoundManager::__ConvertRatioVolumeToApplyVolume
_TEXT	ENDS
; Function compile flags: /Ogtp
; File C:\Users\flourine\Desktop\Xantios\client-src\Code\MilesLib\SoundManager.cpp
;	COMDAT ?__ConvertGradeVolumeToApplyVolume@CSoundManager@@IAEMH@Z
_TEXT	SEGMENT
_nGradeVolume$ = 8					; size = 4
?__ConvertGradeVolumeToApplyVolume@CSoundManager@@IAEMH@Z PROC ; CSoundManager::__ConvertGradeVolumeToApplyVolume, COMDAT
; _this$ = ecx

; 275  : {

  00000	55		 push	 ebp
  00001	8b ec		 mov	 ebp, esp
  00003	66 0f 6e 45 08	 movd	 xmm0, DWORD PTR _nGradeVolume$[ebp]

; 276  : 	return __ConvertRatioVolumeToApplyVolume(nGradeVolume / 5.0f);

  00008	0f 5b c0	 cvtdq2ps xmm0, xmm0
  0000b	51		 push	 ecx
  0000c	f3 0f 5e 05 00
	00 00 00	 divss	 xmm0, DWORD PTR __real@40a00000
  00014	f3 0f 11 04 24	 movss	 DWORD PTR [esp], xmm0
  00019	e8 00 00 00 00	 call	 ?__ConvertRatioVolumeToApplyVolume@CSoundManager@@IAEMM@Z ; CSoundManager::__ConvertRatioVolumeToApplyVolume

; 277  : }

  0001e	5d		 pop	 ebp
  0001f	c2 04 00	 ret	 4
?__ConvertGradeVolumeToApplyVolume@CSoundManager@@IAEMH@Z ENDP ; CSoundManager::__ConvertGradeVolumeToApplyVolume
_TEXT	ENDS
; Function compile flags: /Ogtp
; File C:\Users\flourine\Desktop\Xantios\client-src\Code\MilesLib\SoundManager.cpp
; File C:\Program Files\Microsoft Visual Studio\2022\Community\VC\Tools\MSVC\14.34.31933\include\xstring
; File C:\Users\flourine\Desktop\Xantios\client-src\Code\MilesLib\SoundManager.cpp
; File C:\Program Files\Microsoft Visual Studio\2022\Community\VC\Tools\MSVC\14.34.31933\include\xstring
; File C:\Users\flourine\Desktop\Xantios\client-src\Code\MilesLib\SoundManager.cpp
; File C:\Program Files\Microsoft Visual Studio\2022\Community\VC\Tools\MSVC\14.34.31933\include\xstring
; File C:\Users\flourine\Desktop\Xantios\client-src\Code\MilesLib\SoundManager.cpp
; File C:\Program Files\Microsoft Visual Studio\2022\Community\VC\Tools\MSVC\14.34.31933\include\xstring
; File C:\Program Files\Microsoft Visual Studio\2022\Community\VC\Tools\MSVC\14.34.31933\include\xmemory
; File C:\Program Files\Microsoft Visual Studio\2022\Community\VC\Tools\MSVC\14.34.31933\include\xstring
; File C:\Program Files\Microsoft Visual Studio\2022\Community\VC\Tools\MSVC\14.34.31933\include\xmemory
; File C:\Users\flourine\Desktop\Xantios\client-src\Code\MilesLib\SoundManager.cpp
; File C:\Program Files\Microsoft Visual Studio\2022\Community\VC\Tools\MSVC\14.34.31933\include\xmemory
; File C:\Users\flourine\Desktop\Xantios\client-src\Code\MilesLib\SoundManager.cpp
; File C:\Program Files\Microsoft Visual Studio\2022\Community\VC\Tools\MSVC\14.34.31933\include\xmemory
; File C:\Users\flourine\Desktop\Xantios\client-src\Code\MilesLib\SoundManager.cpp
;	COMDAT ?GetMusicIndex@CSoundManager@@IAEHPBDPAK@Z
_TEXT	SEGMENT
_strFileName$ = -40					; size = 24
__$ArrayPad$ = -16					; size = 4
__$EHRec$ = -12						; size = 12
_c_szFileName$ = 8					; size = 4
_pdwIndex$ = 12						; size = 4
?GetMusicIndex@CSoundManager@@IAEHPBDPAK@Z PROC		; CSoundManager::GetMusicIndex, COMDAT
; _this$ = ecx

; 679  : {

  00000	55		 push	 ebp
  00001	8b ec		 mov	 ebp, esp
  00003	6a ff		 push	 -1
  00005	68 00 00 00 00	 push	 __ehhandler$?GetMusicIndex@CSoundManager@@IAEHPBDPAK@Z
  0000a	64 a1 00 00 00
	00		 mov	 eax, DWORD PTR fs:0
  00010	50		 push	 eax
  00011	83 ec 1c	 sub	 esp, 28			; 0000001cH
  00014	a1 00 00 00 00	 mov	 eax, DWORD PTR ___security_cookie
  00019	33 c5		 xor	 eax, ebp
  0001b	89 45 f0	 mov	 DWORD PTR __$ArrayPad$[ebp], eax
  0001e	56		 push	 esi
  0001f	57		 push	 edi
  00020	50		 push	 eax
  00021	8d 45 f4	 lea	 eax, DWORD PTR __$EHRec$[ebp]
  00024	64 a3 00 00 00
	00		 mov	 DWORD PTR fs:0, eax
  0002a	8b f1		 mov	 esi, ecx
  0002c	8b 45 08	 mov	 eax, DWORD PTR _c_szFileName$[ebp]
  0002f	0f 57 c0	 xorps	 xmm0, xmm0
  00032	8b 7d 0c	 mov	 edi, DWORD PTR _pdwIndex$[ebp]
; File C:\Program Files\Microsoft Visual Studio\2022\Community\VC\Tools\MSVC\14.34.31933\include\xstring

; 2341 :         _CONSTEXPR20 _Bxty() noexcept : _Buf() {} // user-provided, for fancy pointers

  00035	0f 11 45 d8	 movups	 XMMWORD PTR _strFileName$[ebp], xmm0

; 4998 :         _My_data._Mysize = 0;

  00039	c7 45 e8 00 00
	00 00		 mov	 DWORD PTR _strFileName$[ebp+16], 0

; 4999 :         _My_data._Myres  = _BUF_SIZE - 1;

  00040	c7 45 ec 0f 00
	00 00		 mov	 DWORD PTR _strFileName$[ebp+20], 15 ; 0000000fH

; 5000 :         _My_data._Activate_SSO_buffer();
; 5001 : 
; 5002 :         // the _Traits::assign is last so the codegen doesn't think the char write can alias this
; 5003 :         _Traits::assign(_My_data._Bx._Buf[0], _Elem());

  00047	c6 45 d8 00	 mov	 BYTE PTR _strFileName$[ebp], 0
; File C:\Users\flourine\Desktop\Xantios\client-src\Code\MilesLib\SoundManager.cpp

; 681  : 	StringPath(c_szFileName, strFileName);

  0004b	8d 4d d8	 lea	 ecx, DWORD PTR _strFileName$[ebp]
  0004e	c7 45 fc 00 00
	00 00		 mov	 DWORD PTR __$EHRec$[ebp+8], 0
  00055	51		 push	 ecx
  00056	50		 push	 eax
  00057	e8 00 00 00 00	 call	 ?StringPath@@YAXPBDAAV?$basic_string@DU?$char_traits@D@std@@V?$allocator@D@2@@std@@@Z ; StringPath
; File C:\Program Files\Microsoft Visual Studio\2022\Community\VC\Tools\MSVC\14.34.31933\include\xstring

; 2301 :         return _BUF_SIZE <= _Myres;

  0005c	83 7d ec 10	 cmp	 DWORD PTR _strFileName$[ebp+20], 16 ; 00000010H

; 2292 :         const value_type* _Result = _Bx._Buf;

  00060	8d 45 d8	 lea	 eax, DWORD PTR _strFileName$[ebp]
; File C:\Users\flourine\Desktop\Xantios\client-src\Code\MilesLib\SoundManager.cpp

; 682  : 	DWORD dwCRC = GetCaseCRC32(strFileName.c_str(), strFileName.length());

  00063	ff 75 e8	 push	 DWORD PTR _strFileName$[ebp+16]
; File C:\Program Files\Microsoft Visual Studio\2022\Community\VC\Tools\MSVC\14.34.31933\include\xstring

; 2293 :         if (_Large_string_engaged()) {

  00066	0f 43 45 d8	 cmovae	 eax, DWORD PTR _strFileName$[ebp]
; File C:\Users\flourine\Desktop\Xantios\client-src\Code\MilesLib\SoundManager.cpp

; 682  : 	DWORD dwCRC = GetCaseCRC32(strFileName.c_str(), strFileName.length());

  0006a	50		 push	 eax
  0006b	e8 00 00 00 00	 call	 ?GetCaseCRC32@@YAKPBDI@Z ; GetCaseCRC32
  00070	83 c4 10	 add	 esp, 16			; 00000010H
  00073	8d 4e 30	 lea	 ecx, DWORD PTR [esi+48]

; 683  : 
; 684  : 	for (int i = 0; i < CSoundManagerStream::MUSIC_INSTANCE_MAX_NUM; ++i)

  00076	33 d2		 xor	 edx, edx
$LL4@GetMusicIn:

; 685  : 	{
; 686  : 		const TMusicInstance & c_rMusicInstance = m_MusicInstances[i];
; 687  : 		if (MUSIC_STATE_OFF != c_rMusicInstance.MusicState)

  00078	83 79 04 00	 cmp	 DWORD PTR [ecx+4], 0
  0007c	74 04		 je	 SHORT $LN2@GetMusicIn

; 688  : 			if (c_rMusicInstance.dwMusicFileNameCRC == dwCRC)

  0007e	39 01		 cmp	 DWORD PTR [ecx], eax
  00080	74 33		 je	 SHORT $LN72@GetMusicIn
$LN2@GetMusicIn:

; 683  : 
; 684  : 	for (int i = 0; i < CSoundManagerStream::MUSIC_INSTANCE_MAX_NUM; ++i)

  00082	42		 inc	 edx
  00083	83 c1 14	 add	 ecx, 20			; 00000014H
  00086	83 fa 03	 cmp	 edx, 3
  00089	7c ed		 jl	 SHORT $LL4@GetMusicIn

; 695  : 	return FALSE;

  0008b	33 f6		 xor	 esi, esi
$LN9@GetMusicIn:
; File C:\Program Files\Microsoft Visual Studio\2022\Community\VC\Tools\MSVC\14.34.31933\include\xstring

; 2301 :         return _BUF_SIZE <= _Myres;

  0008d	8b 4d ec	 mov	 ecx, DWORD PTR _strFileName$[ebp+20]
  00090	83 f9 10	 cmp	 ecx, 16			; 00000010H

; 5011 :         if (_My_data._Large_string_engaged()) {

  00093	72 33		 jb	 SHORT $LN22@GetMusicIn
; File C:\Program Files\Microsoft Visual Studio\2022\Community\VC\Tools\MSVC\14.34.31933\include\xmemory

; 830  :         _Deallocate<_New_alignof<_Ty>>(_Ptr, sizeof(_Ty) * _Count);

  00095	8b 55 d8	 mov	 edx, DWORD PTR _strFileName$[ebp]
; File C:\Program Files\Microsoft Visual Studio\2022\Community\VC\Tools\MSVC\14.34.31933\include\xstring

; 5016 :             _Al.deallocate(_Ptr, _My_data._Myres + 1);

  00098	41		 inc	 ecx
; File C:\Program Files\Microsoft Visual Studio\2022\Community\VC\Tools\MSVC\14.34.31933\include\xmemory

; 830  :         _Deallocate<_New_alignof<_Ty>>(_Ptr, sizeof(_Ty) * _Count);

  00099	8b c2		 mov	 eax, edx

; 251  :         if (_Bytes >= _Big_allocation_threshold) { // boost the alignment of big allocations to help autovectorization

  0009b	81 f9 00 10 00
	00		 cmp	 ecx, 4096		; 00001000H
  000a1	72 1b		 jb	 SHORT $LN32@GetMusicIn

; 150  :     const uintptr_t _Ptr_container   = _Ptr_user[-1];

  000a3	8b 50 fc	 mov	 edx, DWORD PTR [eax-4]
  000a6	83 c1 23	 add	 ecx, 35			; 00000023H
  000a9	2b c2		 sub	 eax, edx

; 164  :     _STL_VERIFY(_Back_shift >= _Min_back_shift && _Back_shift <= _Non_user_size, "invalid argument");

  000ab	83 c0 fc	 add	 eax, -4			; fffffffcH
  000ae	83 f8 1f	 cmp	 eax, 31			; 0000001fH
  000b1	77 34		 ja	 SHORT $LN80@GetMusicIn
  000b3	eb 09		 jmp	 SHORT $LN32@GetMusicIn
$LN72@GetMusicIn:
; File C:\Users\flourine\Desktop\Xantios\client-src\Code\MilesLib\SoundManager.cpp

; 690  : 				*pdwIndex = i;

  000b5	89 17		 mov	 DWORD PTR [edi], edx
  000b7	be 01 00 00 00	 mov	 esi, 1
  000bc	eb cf		 jmp	 SHORT $LN9@GetMusicIn
$LN32@GetMusicIn:
; File C:\Program Files\Microsoft Visual Studio\2022\Community\VC\Tools\MSVC\14.34.31933\include\xmemory

; 255  :         ::operator delete(_Ptr, _Bytes);

  000be	51		 push	 ecx
  000bf	52		 push	 edx
  000c0	e8 00 00 00 00	 call	 ??3@YAXPAXI@Z		; operator delete
  000c5	83 c4 08	 add	 esp, 8
$LN22@GetMusicIn:
; File C:\Users\flourine\Desktop\Xantios\client-src\Code\MilesLib\SoundManager.cpp

; 695  : 	return FALSE;

  000c8	8b c6		 mov	 eax, esi

; 696  : }

  000ca	8b 4d f4	 mov	 ecx, DWORD PTR __$EHRec$[ebp]
  000cd	64 89 0d 00 00
	00 00		 mov	 DWORD PTR fs:0, ecx
  000d4	59		 pop	 ecx
  000d5	5f		 pop	 edi
  000d6	5e		 pop	 esi
  000d7	8b 4d f0	 mov	 ecx, DWORD PTR __$ArrayPad$[ebp]
  000da	33 cd		 xor	 ecx, ebp
  000dc	e8 00 00 00 00	 call	 @__security_check_cookie@4
  000e1	8b e5		 mov	 esp, ebp
  000e3	5d		 pop	 ebp
  000e4	c2 08 00	 ret	 8
$LN80@GetMusicIn:
; File C:\Program Files\Microsoft Visual Studio\2022\Community\VC\Tools\MSVC\14.34.31933\include\xmemory

; 164  :     _STL_VERIFY(_Back_shift >= _Min_back_shift && _Back_shift <= _Non_user_size, "invalid argument");

  000e7	e8 00 00 00 00	 call	 __invalid_parameter_noinfo_noreturn
$LN78@GetMusicIn:
  000ec	cc		 int	 3
_TEXT	ENDS
;	COMDAT text$x
text$x	SEGMENT
__unwindfunclet$?GetMusicIndex@CSoundManager@@IAEHPBDPAK@Z$0:
  00000	8d 4d d8	 lea	 ecx, DWORD PTR _strFileName$[ebp]
  00003	e9 00 00 00 00	 jmp	 ??1?$basic_string@DU?$char_traits@D@std@@V?$allocator@D@2@@std@@QAE@XZ ; std::basic_string<char,std::char_traits<char>,std::allocator<char> >::~basic_string<char,std::char_traits<char>,std::allocator<char> >
  00008	cc		 int	 3
  00009	cc		 int	 3
  0000a	cc		 int	 3
  0000b	cc		 int	 3
  0000c	cc		 int	 3
__ehhandler$?GetMusicIndex@CSoundManager@@IAEHPBDPAK@Z:
  0000d	90		 npad	 1
  0000e	90		 npad	 1
  0000f	8b 54 24 08	 mov	 edx, DWORD PTR [esp+8]
  00013	8d 42 0c	 lea	 eax, DWORD PTR [edx+12]
  00016	8b 4a d8	 mov	 ecx, DWORD PTR [edx-40]
  00019	33 c8		 xor	 ecx, eax
  0001b	e8 00 00 00 00	 call	 @__security_check_cookie@4
  00020	8b 4a fc	 mov	 ecx, DWORD PTR [edx-4]
  00023	33 c8		 xor	 ecx, eax
  00025	e8 00 00 00 00	 call	 @__security_check_cookie@4
  0002a	b8 00 00 00 00	 mov	 eax, OFFSET __ehfuncinfo$?GetMusicIndex@CSoundManager@@IAEHPBDPAK@Z
  0002f	e9 00 00 00 00	 jmp	 ___CxxFrameHandler3
text$x	ENDS
?GetMusicIndex@CSoundManager@@IAEHPBDPAK@Z ENDP		; CSoundManager::GetMusicIndex
; Function compile flags: /Ogtp
; File C:\Users\flourine\Desktop\Xantios\client-src\Code\MilesLib\SoundManager.cpp
;	COMDAT ?StopMusic@CSoundManager@@IAEXK@Z
_TEXT	SEGMENT
_dwIndex$ = 8						; size = 4
?StopMusic@CSoundManager@@IAEXK@Z PROC			; CSoundManager::StopMusic, COMDAT
; _this$ = ecx

; 657  : {

  00000	55		 push	 ebp
  00001	8b ec		 mov	 ebp, esp
  00003	56		 push	 esi

; 658  : 	if (dwIndex >= CSoundManagerStream::MUSIC_INSTANCE_MAX_NUM)

  00004	8b 75 08	 mov	 esi, DWORD PTR _dwIndex$[ebp]
  00007	57		 push	 edi
  00008	8b f9		 mov	 edi, ecx
  0000a	83 fe 03	 cmp	 esi, 3
  0000d	73 39		 jae	 SHORT $LN1@StopMusic

; 659  : 	{
; 660  : 		return;
; 661  : 	}
; 662  : 
; 663  : 	CSoundInstanceStream * pInstance = ms_SoundManagerStream.GetInstance(dwIndex);

  0000f	56		 push	 esi
  00010	b9 00 00 00 00	 mov	 ecx, OFFSET ?ms_SoundManagerStream@CSoundManager@@1VCSoundManagerStream@@A ; CSoundManager::ms_SoundManagerStream
  00015	e8 00 00 00 00	 call	 ?GetInstance@CSoundManagerStream@@QAEPAVCSoundInstanceStream@@K@Z ; CSoundManagerStream::GetInstance

; 664  : 	if (!pInstance)

  0001a	85 c0		 test	 eax, eax
  0001c	74 2a		 je	 SHORT $LN1@StopMusic

; 665  : 	{
; 666  : 		return;
; 667  : 	}
; 668  : 
; 669  : 	pInstance->Stop();

  0001e	8b 10		 mov	 edx, DWORD PTR [eax]
  00020	8b c8		 mov	 ecx, eax
  00022	ff 52 1c	 call	 DWORD PTR [edx+28]

; 670  : 
; 671  : 	TMusicInstance & rMusicInstance = m_MusicInstances[dwIndex];

  00025	8d 04 b6	 lea	 eax, DWORD PTR [esi+esi*4]

; 672  : 	rMusicInstance.fVolume = 0.0f;

  00028	c7 44 87 38 00
	00 00 00	 mov	 DWORD PTR [edi+eax*4+56], 0

; 673  : 	rMusicInstance.fVolumeSpeed = 0.0f;

  00030	c7 44 87 40 00
	00 00 00	 mov	 DWORD PTR [edi+eax*4+64], 0

; 674  : 	rMusicInstance.MusicState = MUSIC_STATE_OFF;

  00038	c7 44 87 34 00
	00 00 00	 mov	 DWORD PTR [edi+eax*4+52], 0

; 675  : 	rMusicInstance.dwMusicFileNameCRC = 0;

  00040	c7 44 87 30 00
	00 00 00	 mov	 DWORD PTR [edi+eax*4+48], 0
$LN1@StopMusic:

; 676  : }

  00048	5f		 pop	 edi
  00049	5e		 pop	 esi
  0004a	5d		 pop	 ebp
  0004b	c2 04 00	 ret	 4
?StopMusic@CSoundManager@@IAEXK@Z ENDP			; CSoundManager::StopMusic
_TEXT	ENDS
; Function compile flags: /Ogtp
; File C:\Users\flourine\Desktop\Xantios\client-src\Code\MilesLib\SoundManager.cpp
; File C:\Program Files\Microsoft Visual Studio\2022\Community\VC\Tools\MSVC\14.34.31933\include\xstring
; File C:\Users\flourine\Desktop\Xantios\client-src\Code\MilesLib\SoundManager.cpp
; File C:\Program Files\Microsoft Visual Studio\2022\Community\VC\Tools\MSVC\14.34.31933\include\xstring
; File C:\Users\flourine\Desktop\Xantios\client-src\Code\MilesLib\SoundManager.cpp
; File C:\Program Files\Microsoft Visual Studio\2022\Community\VC\Tools\MSVC\14.34.31933\include\xstring
; File C:\Users\flourine\Desktop\Xantios\client-src\Code\MilesLib\SoundManager.cpp
; File C:\Program Files\Microsoft Visual Studio\2022\Community\VC\Tools\MSVC\14.34.31933\include\xstring
; File C:\Users\flourine\Desktop\Xantios\client-src\Code\MilesLib\SoundManager.cpp
; File C:\Program Files\Microsoft Visual Studio\2022\Community\VC\Tools\MSVC\14.34.31933\include\xstring
; File C:\Users\flourine\Desktop\Xantios\client-src\Code\MilesLib\SoundManager.cpp
; File C:\Program Files\Microsoft Visual Studio\2022\Community\VC\Tools\MSVC\14.34.31933\include\xstring
; File C:\Program Files\Microsoft Visual Studio\2022\Community\VC\Tools\MSVC\14.34.31933\include\xmemory
; File C:\Program Files\Microsoft Visual Studio\2022\Community\VC\Tools\MSVC\14.34.31933\include\xstring
; File C:\Program Files\Microsoft Visual Studio\2022\Community\VC\Tools\MSVC\14.34.31933\include\xmemory
; File C:\Users\flourine\Desktop\Xantios\client-src\Code\MilesLib\SoundManager.cpp
; File C:\Program Files\Microsoft Visual Studio\2022\Community\VC\Tools\MSVC\14.34.31933\include\xmemory
; File C:\Users\flourine\Desktop\Xantios\client-src\Code\MilesLib\SoundManager.cpp
;	COMDAT ?PlayMusic@CSoundManager@@IAEXKPBDMM@Z
_TEXT	SEGMENT
_pInstance$1$ = -48					; size = 4
_this$GSCopy$1$ = -44					; size = 4
_strFileName$ = -40					; size = 24
__$ArrayPad$ = -16					; size = 4
__$EHRec$ = -12						; size = 12
_dwIndex$ = 8						; size = 4
_c_szFileName$ = 12					; size = 4
_fVolume$ = 16						; size = 4
_fVolumeSpeed$ = 20					; size = 4
?PlayMusic@CSoundManager@@IAEXKPBDMM@Z PROC		; CSoundManager::PlayMusic, COMDAT
; _this$ = ecx

; 624  : {

  00000	55		 push	 ebp
  00001	8b ec		 mov	 ebp, esp
  00003	6a ff		 push	 -1
  00005	68 00 00 00 00	 push	 __ehhandler$?PlayMusic@CSoundManager@@IAEXKPBDMM@Z
  0000a	64 a1 00 00 00
	00		 mov	 eax, DWORD PTR fs:0
  00010	50		 push	 eax
  00011	83 ec 24	 sub	 esp, 36			; 00000024H
  00014	a1 00 00 00 00	 mov	 eax, DWORD PTR ___security_cookie
  00019	33 c5		 xor	 eax, ebp
  0001b	89 45 f0	 mov	 DWORD PTR __$ArrayPad$[ebp], eax
  0001e	56		 push	 esi
  0001f	57		 push	 edi
  00020	50		 push	 eax
  00021	8d 45 f4	 lea	 eax, DWORD PTR __$EHRec$[ebp]
  00024	64 a3 00 00 00
	00		 mov	 DWORD PTR fs:0, eax
  0002a	89 4d d4	 mov	 DWORD PTR _this$GSCopy$1$[ebp], ecx
  0002d	8b 75 08	 mov	 esi, DWORD PTR _dwIndex$[ebp]
  00030	8b 7d 0c	 mov	 edi, DWORD PTR _c_szFileName$[ebp]

; 625  : 	if (dwIndex >= CSoundManagerStream::MUSIC_INSTANCE_MAX_NUM)

  00033	83 fe 03	 cmp	 esi, 3
  00036	0f 83 fc 00 00
	00		 jae	 $LN39@PlayMusic

; 626  : 	{
; 627  : 		return;
; 628  : 	}
; 629  : 
; 630  : 	if (!ms_SoundManagerStream.SetInstance(dwIndex, c_szFileName))

  0003c	57		 push	 edi
  0003d	56		 push	 esi
  0003e	b9 00 00 00 00	 mov	 ecx, OFFSET ?ms_SoundManagerStream@CSoundManager@@1VCSoundManagerStream@@A ; CSoundManager::ms_SoundManagerStream
  00043	e8 00 00 00 00	 call	 ?SetInstance@CSoundManagerStream@@QAE_NKPBD@Z ; CSoundManagerStream::SetInstance
  00048	84 c0		 test	 al, al
  0004a	75 10		 jne	 SHORT $LN3@PlayMusic

; 631  : 	{
; 632  : 		TraceError("CSoundManager::PlayMusic - Failed to load stream sound : %s", c_szFileName);

  0004c	57		 push	 edi
  0004d	68 00 00 00 00	 push	 OFFSET ??_C@_0DM@BCCLJDHL@CSoundManager?3?3PlayMusic?5?9?5Fail@
  00052	e8 00 00 00 00	 call	 ?TraceError@@YAXPBDZZ	; TraceError

; 633  : 		return;

  00057	e9 d9 00 00 00	 jmp	 $LN57@PlayMusic
$LN3@PlayMusic:

; 634  : 	}
; 635  : 
; 636  : 	CSoundInstanceStream * pInstance = ms_SoundManagerStream.GetInstance(dwIndex);

  0005c	56		 push	 esi
  0005d	b9 00 00 00 00	 mov	 ecx, OFFSET ?ms_SoundManagerStream@CSoundManager@@1VCSoundManagerStream@@A ; CSoundManager::ms_SoundManagerStream
  00062	e8 00 00 00 00	 call	 ?GetInstance@CSoundManagerStream@@QAEPAVCSoundInstanceStream@@K@Z ; CSoundManagerStream::GetInstance
  00067	8b c8		 mov	 ecx, eax
  00069	89 4d d0	 mov	 DWORD PTR _pInstance$1$[ebp], ecx

; 637  : 	if (!pInstance)

  0006c	85 c9		 test	 ecx, ecx
  0006e	75 10		 jne	 SHORT $LN4@PlayMusic

; 638  : 	{
; 639  : 		TraceError("CSoundManager::PlayMusic - There is no stream sound instance : %s", c_szFileName);

  00070	57		 push	 edi
  00071	68 00 00 00 00	 push	 OFFSET ??_C@_0EC@EPLOEFBK@CSoundManager?3?3PlayMusic?5?9?5Ther@
  00076	e8 00 00 00 00	 call	 ?TraceError@@YAXPBDZZ	; TraceError

; 640  : 		return;

  0007b	e9 b5 00 00 00	 jmp	 $LN57@PlayMusic
$LN4@PlayMusic:

; 641  : 	}
; 642  : 
; 643  : 	pInstance->SetVolume(fVolume);

  00080	8b 01		 mov	 eax, DWORD PTR [ecx]
  00082	f3 0f 10 45 10	 movss	 xmm0, DWORD PTR _fVolume$[ebp]
  00087	51		 push	 ecx
  00088	f3 0f 11 04 24	 movss	 DWORD PTR [esp], xmm0
  0008d	ff 50 24	 call	 DWORD PTR [eax+36]

; 644  : 	pInstance->Play(0);

  00090	8b 4d d0	 mov	 ecx, DWORD PTR _pInstance$1$[ebp]
  00093	6a 00		 push	 0
  00095	6a 00		 push	 0
  00097	8b 01		 mov	 eax, DWORD PTR [ecx]
  00099	ff 50 10	 call	 DWORD PTR [eax+16]

; 647  : 	rMusicInstance.fVolume = fVolume;

  0009c	8b 45 d4	 mov	 eax, DWORD PTR _this$GSCopy$1$[ebp]
  0009f	8d 34 b6	 lea	 esi, DWORD PTR [esi+esi*4]
  000a2	f3 0f 10 45 10	 movss	 xmm0, DWORD PTR _fVolume$[ebp]
; File C:\Program Files\Microsoft Visual Studio\2022\Community\VC\Tools\MSVC\14.34.31933\include\xstring

; 4998 :         _My_data._Mysize = 0;

  000a7	c7 45 e8 00 00
	00 00		 mov	 DWORD PTR _strFileName$[ebp+16], 0

; 4999 :         _My_data._Myres  = _BUF_SIZE - 1;

  000ae	c7 45 ec 0f 00
	00 00		 mov	 DWORD PTR _strFileName$[ebp+20], 15 ; 0000000fH
; File C:\Users\flourine\Desktop\Xantios\client-src\Code\MilesLib\SoundManager.cpp

; 647  : 	rMusicInstance.fVolume = fVolume;

  000b5	f3 0f 11 44 b0
	38		 movss	 DWORD PTR [eax+esi*4+56], xmm0

; 648  : 	rMusicInstance.fVolumeSpeed = fVolumeSpeed;

  000bb	f3 0f 10 45 14	 movss	 xmm0, DWORD PTR _fVolumeSpeed$[ebp]
  000c0	f3 0f 11 44 b0
	40		 movss	 DWORD PTR [eax+esi*4+64], xmm0
  000c6	0f 57 c0	 xorps	 xmm0, xmm0
; File C:\Program Files\Microsoft Visual Studio\2022\Community\VC\Tools\MSVC\14.34.31933\include\xstring

; 2341 :         _CONSTEXPR20 _Bxty() noexcept : _Buf() {} // user-provided, for fancy pointers

  000c9	0f 11 45 d8	 movups	 XMMWORD PTR _strFileName$[ebp], xmm0
; File C:\Users\flourine\Desktop\Xantios\client-src\Code\MilesLib\SoundManager.cpp

; 649  : 	rMusicInstance.MusicState = MUSIC_STATE_FADE_IN;

  000cd	c7 44 b0 34 02
	00 00 00	 mov	 DWORD PTR [eax+esi*4+52], 2
; File C:\Program Files\Microsoft Visual Studio\2022\Community\VC\Tools\MSVC\14.34.31933\include\xstring

; 5003 :         _Traits::assign(_My_data._Bx._Buf[0], _Elem());

  000d5	c6 45 d8 00	 mov	 BYTE PTR _strFileName$[ebp], 0
; File C:\Users\flourine\Desktop\Xantios\client-src\Code\MilesLib\SoundManager.cpp

; 652  : 	StringPath(c_szFileName, strFileName);

  000d9	8d 45 d8	 lea	 eax, DWORD PTR _strFileName$[ebp]
  000dc	c7 45 fc 00 00
	00 00		 mov	 DWORD PTR __$EHRec$[ebp+8], 0
  000e3	50		 push	 eax
  000e4	57		 push	 edi
  000e5	e8 00 00 00 00	 call	 ?StringPath@@YAXPBDAAV?$basic_string@DU?$char_traits@D@std@@V?$allocator@D@2@@std@@@Z ; StringPath
; File C:\Program Files\Microsoft Visual Studio\2022\Community\VC\Tools\MSVC\14.34.31933\include\xstring

; 2301 :         return _BUF_SIZE <= _Myres;

  000ea	83 7d ec 10	 cmp	 DWORD PTR _strFileName$[ebp+20], 16 ; 00000010H

; 2292 :         const value_type* _Result = _Bx._Buf;

  000ee	8d 45 d8	 lea	 eax, DWORD PTR _strFileName$[ebp]
; File C:\Users\flourine\Desktop\Xantios\client-src\Code\MilesLib\SoundManager.cpp

; 653  : 	rMusicInstance.dwMusicFileNameCRC = GetCaseCRC32(strFileName.c_str(), strFileName.length());

  000f1	ff 75 e8	 push	 DWORD PTR _strFileName$[ebp+16]
; File C:\Program Files\Microsoft Visual Studio\2022\Community\VC\Tools\MSVC\14.34.31933\include\xstring

; 2293 :         if (_Large_string_engaged()) {

  000f4	0f 43 45 d8	 cmovae	 eax, DWORD PTR _strFileName$[ebp]
; File C:\Users\flourine\Desktop\Xantios\client-src\Code\MilesLib\SoundManager.cpp

; 653  : 	rMusicInstance.dwMusicFileNameCRC = GetCaseCRC32(strFileName.c_str(), strFileName.length());

  000f8	50		 push	 eax
  000f9	e8 00 00 00 00	 call	 ?GetCaseCRC32@@YAKPBDI@Z ; GetCaseCRC32
  000fe	8b 4d d4	 mov	 ecx, DWORD PTR _this$GSCopy$1$[ebp]
  00101	83 c4 10	 add	 esp, 16			; 00000010H
  00104	89 44 b1 30	 mov	 DWORD PTR [ecx+esi*4+48], eax
; File C:\Program Files\Microsoft Visual Studio\2022\Community\VC\Tools\MSVC\14.34.31933\include\xstring

; 2301 :         return _BUF_SIZE <= _Myres;

  00108	8b 4d ec	 mov	 ecx, DWORD PTR _strFileName$[ebp+20]
  0010b	83 f9 10	 cmp	 ecx, 16			; 00000010H

; 5011 :         if (_My_data._Large_string_engaged()) {

  0010e	72 28		 jb	 SHORT $LN39@PlayMusic
; File C:\Program Files\Microsoft Visual Studio\2022\Community\VC\Tools\MSVC\14.34.31933\include\xmemory

; 830  :         _Deallocate<_New_alignof<_Ty>>(_Ptr, sizeof(_Ty) * _Count);

  00110	8b 55 d8	 mov	 edx, DWORD PTR _strFileName$[ebp]
; File C:\Program Files\Microsoft Visual Studio\2022\Community\VC\Tools\MSVC\14.34.31933\include\xstring

; 5016 :             _Al.deallocate(_Ptr, _My_data._Myres + 1);

  00113	41		 inc	 ecx
; File C:\Program Files\Microsoft Visual Studio\2022\Community\VC\Tools\MSVC\14.34.31933\include\xmemory

; 830  :         _Deallocate<_New_alignof<_Ty>>(_Ptr, sizeof(_Ty) * _Count);

  00114	8b c2		 mov	 eax, edx

; 251  :         if (_Bytes >= _Big_allocation_threshold) { // boost the alignment of big allocations to help autovectorization

  00116	81 f9 00 10 00
	00		 cmp	 ecx, 4096		; 00001000H
  0011c	72 10		 jb	 SHORT $LN49@PlayMusic

; 150  :     const uintptr_t _Ptr_container   = _Ptr_user[-1];

  0011e	8b 50 fc	 mov	 edx, DWORD PTR [eax-4]
  00121	83 c1 23	 add	 ecx, 35			; 00000023H
  00124	2b c2		 sub	 eax, edx

; 164  :     _STL_VERIFY(_Back_shift >= _Min_back_shift && _Back_shift <= _Non_user_size, "invalid argument");

  00126	83 c0 fc	 add	 eax, -4			; fffffffcH
  00129	83 f8 1f	 cmp	 eax, 31			; 0000001fH
  0012c	77 27		 ja	 SHORT $LN59@PlayMusic
$LN49@PlayMusic:

; 255  :         ::operator delete(_Ptr, _Bytes);

  0012e	51		 push	 ecx
  0012f	52		 push	 edx
  00130	e8 00 00 00 00	 call	 ??3@YAXPAXI@Z		; operator delete
$LN57@PlayMusic:
; File C:\Users\flourine\Desktop\Xantios\client-src\Code\MilesLib\SoundManager.cpp

; 654  : }

  00135	83 c4 08	 add	 esp, 8
$LN39@PlayMusic:
  00138	8b 4d f4	 mov	 ecx, DWORD PTR __$EHRec$[ebp]
  0013b	64 89 0d 00 00
	00 00		 mov	 DWORD PTR fs:0, ecx
  00142	59		 pop	 ecx
  00143	5f		 pop	 edi
  00144	5e		 pop	 esi
  00145	8b 4d f0	 mov	 ecx, DWORD PTR __$ArrayPad$[ebp]
  00148	33 cd		 xor	 ecx, ebp
  0014a	e8 00 00 00 00	 call	 @__security_check_cookie@4
  0014f	8b e5		 mov	 esp, ebp
  00151	5d		 pop	 ebp
  00152	c2 10 00	 ret	 16			; 00000010H
$LN59@PlayMusic:
; File C:\Program Files\Microsoft Visual Studio\2022\Community\VC\Tools\MSVC\14.34.31933\include\xmemory

; 164  :     _STL_VERIFY(_Back_shift >= _Min_back_shift && _Back_shift <= _Non_user_size, "invalid argument");

  00155	e8 00 00 00 00	 call	 __invalid_parameter_noinfo_noreturn
$LN56@PlayMusic:
  0015a	cc		 int	 3
_TEXT	ENDS
;	COMDAT text$x
text$x	SEGMENT
__unwindfunclet$?PlayMusic@CSoundManager@@IAEXKPBDMM@Z$0:
  00000	8d 4d d8	 lea	 ecx, DWORD PTR _strFileName$[ebp]
  00003	e9 00 00 00 00	 jmp	 ??1?$basic_string@DU?$char_traits@D@std@@V?$allocator@D@2@@std@@QAE@XZ ; std::basic_string<char,std::char_traits<char>,std::allocator<char> >::~basic_string<char,std::char_traits<char>,std::allocator<char> >
  00008	cc		 int	 3
  00009	cc		 int	 3
  0000a	cc		 int	 3
  0000b	cc		 int	 3
  0000c	cc		 int	 3
__ehhandler$?PlayMusic@CSoundManager@@IAEXKPBDMM@Z:
  0000d	90		 npad	 1
  0000e	90		 npad	 1
  0000f	8b 54 24 08	 mov	 edx, DWORD PTR [esp+8]
  00013	8d 42 0c	 lea	 eax, DWORD PTR [edx+12]
  00016	8b 4a d0	 mov	 ecx, DWORD PTR [edx-48]
  00019	33 c8		 xor	 ecx, eax
  0001b	e8 00 00 00 00	 call	 @__security_check_cookie@4
  00020	8b 4a fc	 mov	 ecx, DWORD PTR [edx-4]
  00023	33 c8		 xor	 ecx, eax
  00025	e8 00 00 00 00	 call	 @__security_check_cookie@4
  0002a	b8 00 00 00 00	 mov	 eax, OFFSET __ehfuncinfo$?PlayMusic@CSoundManager@@IAEXKPBDMM@Z
  0002f	e9 00 00 00 00	 jmp	 ___CxxFrameHandler3
text$x	ENDS
?PlayMusic@CSoundManager@@IAEXKPBDMM@Z ENDP		; CSoundManager::PlayMusic
; Function compile flags: /Ogtp
; File C:\Users\flourine\Desktop\Xantios\client-src\Code\MilesLib\SoundManager.cpp
; File C:\Program Files\Microsoft Visual Studio\2022\Community\VC\Tools\MSVC\14.34.31933\include\vector
; File C:\Users\flourine\Desktop\Xantios\client-src\Code\MilesLib\SoundManager.cpp
; File C:\Program Files\Microsoft Visual Studio\2022\Community\VC\Tools\MSVC\14.34.31933\include\vector
; File C:\Users\flourine\Desktop\Xantios\client-src\Code\MilesLib\SoundManager.cpp
; File C:\Program Files\Microsoft Visual Studio\2022\Community\VC\Tools\MSVC\14.34.31933\include\vector
; File C:\Users\flourine\Desktop\Xantios\client-src\Code\MilesLib\SoundManager.cpp
; File C:\Program Files\Microsoft Visual Studio\2022\Community\VC\Tools\MSVC\14.34.31933\include\vector
; File C:\Users\flourine\Desktop\Xantios\client-src\Code\MilesLib\SoundManager.cpp
; File C:\Program Files\Microsoft Visual Studio\2022\Community\VC\Tools\MSVC\14.34.31933\include\xstring
; File C:\Users\flourine\Desktop\Xantios\client-src\Code\MilesLib\SoundManager.cpp
; File C:\Program Files\Microsoft Visual Studio\2022\Community\VC\Tools\MSVC\14.34.31933\include\vector
; File C:\Users\flourine\Desktop\Xantios\client-src\Code\MilesLib\SoundManager.cpp
; File C:\Program Files\Microsoft Visual Studio\2022\Community\VC\Tools\MSVC\14.34.31933\include\vector
; File C:\Users\flourine\Desktop\Xantios\client-src\Code\MilesLib\SoundManager.cpp
; File C:\Program Files\Microsoft Visual Studio\2022\Community\VC\Tools\MSVC\14.34.31933\include\vector
; File C:\Users\flourine\Desktop\Xantios\client-src\Code\MilesLib\SoundManager.cpp
; File C:\Program Files\Microsoft Visual Studio\2022\Community\VC\Tools\MSVC\14.34.31933\include\vector
; File C:\Users\flourine\Desktop\Xantios\client-src\Code\MilesLib\SoundManager.cpp
;	COMDAT ?UpdateSoundInstance@CSoundManager@@QAEXKPBV?$vector@USSoundInstance@NSound@@V?$allocator@USSoundInstance@NSound@@@std@@@std@@@Z
_TEXT	SEGMENT
_this$1$ = -8						; size = 4
_i$1$ = -4						; size = 4
_dwcurFrame$ = 8					; size = 4
_c_pSoundInstanceVector$ = 12				; size = 4
?UpdateSoundInstance@CSoundManager@@QAEXKPBV?$vector@USSoundInstance@NSound@@V?$allocator@USSoundInstance@NSound@@@std@@@std@@@Z PROC ; CSoundManager::UpdateSoundInstance, COMDAT
; _this$ = ecx

; 180  : {

  00000	55		 push	 ebp
  00001	8b ec		 mov	 ebp, esp
  00003	83 ec 08	 sub	 esp, 8
  00006	53		 push	 ebx
; File C:\Program Files\Microsoft Visual Studio\2022\Community\VC\Tools\MSVC\14.34.31933\include\vector

; 1932 :         return static_cast<size_type>(_My_data._Mylast - _My_data._Myfirst);

  00007	8b 5d 0c	 mov	 ebx, DWORD PTR _c_pSoundInstanceVector$[ebp]
  0000a	b8 93 24 49 92	 mov	 eax, -1840700269	; 92492493H
; File C:\Users\flourine\Desktop\Xantios\client-src\Code\MilesLib\SoundManager.cpp

; 180  : {

  0000f	56		 push	 esi
  00010	57		 push	 edi
  00011	89 4d f8	 mov	 DWORD PTR _this$1$[ebp], ecx

; 181  : 	for (DWORD i = 0; i < c_pSoundInstanceVector->size(); ++i)

  00014	33 c9		 xor	 ecx, ecx
; File C:\Program Files\Microsoft Visual Studio\2022\Community\VC\Tools\MSVC\14.34.31933\include\vector

; 1932 :         return static_cast<size_type>(_My_data._Mylast - _My_data._Myfirst);

  00016	8b 7b 04	 mov	 edi, DWORD PTR [ebx+4]
  00019	8b f7		 mov	 esi, edi
  0001b	8b 1b		 mov	 ebx, DWORD PTR [ebx]
  0001d	2b f3		 sub	 esi, ebx
  0001f	f7 ee		 imul	 esi
; File C:\Users\flourine\Desktop\Xantios\client-src\Code\MilesLib\SoundManager.cpp

; 181  : 	for (DWORD i = 0; i < c_pSoundInstanceVector->size(); ++i)

  00021	89 4d fc	 mov	 DWORD PTR _i$1$[ebp], ecx
; File C:\Program Files\Microsoft Visual Studio\2022\Community\VC\Tools\MSVC\14.34.31933\include\vector

; 1932 :         return static_cast<size_type>(_My_data._Mylast - _My_data._Myfirst);

  00024	03 d6		 add	 edx, esi
  00026	c1 fa 04	 sar	 edx, 4
  00029	8b c2		 mov	 eax, edx
  0002b	c1 e8 1f	 shr	 eax, 31			; 0000001fH
  0002e	03 c2		 add	 eax, edx
; File C:\Users\flourine\Desktop\Xantios\client-src\Code\MilesLib\SoundManager.cpp

; 181  : 	for (DWORD i = 0; i < c_pSoundInstanceVector->size(); ++i)

  00030	74 69		 je	 SHORT $LN3@UpdateSoun
; File C:\Program Files\Microsoft Visual Studio\2022\Community\VC\Tools\MSVC\14.34.31933\include\vector

; 1931 :         auto& _My_data = _Mypair._Myval2;

  00032	33 f6		 xor	 esi, esi
$LL4@UpdateSoun:

; 1976 :         if (static_cast<size_type>(_My_data._Mylast - _My_data._Myfirst) <= _Pos) {

  00034	2b fb		 sub	 edi, ebx
  00036	b8 93 24 49 92	 mov	 eax, -1840700269	; 92492493H
  0003b	f7 ef		 imul	 edi
  0003d	03 d7		 add	 edx, edi
  0003f	c1 fa 04	 sar	 edx, 4
  00042	8b c2		 mov	 eax, edx
  00044	c1 e8 1f	 shr	 eax, 31			; 0000001fH
  00047	03 c2		 add	 eax, edx
  00049	3b c1		 cmp	 eax, ecx
  0004b	76 57		 jbe	 SHORT $LN21@UpdateSoun
; File C:\Users\flourine\Desktop\Xantios\client-src\Code\MilesLib\SoundManager.cpp

; 185  : 		if (c_rSoundInstance.dwFrame == dwcurFrame)

  0004d	8b 45 08	 mov	 eax, DWORD PTR _dwcurFrame$[ebp]
  00050	39 04 1e	 cmp	 DWORD PTR [esi+ebx], eax
  00053	75 19		 jne	 SHORT $LN2@UpdateSoun
; File C:\Program Files\Microsoft Visual Studio\2022\Community\VC\Tools\MSVC\14.34.31933\include\xstring

; 4259 :         return _Mypair._Myval2._Myptr();

  00055	8d 43 04	 lea	 eax, DWORD PTR [ebx+4]
  00058	03 c6		 add	 eax, esi

; 2301 :         return _BUF_SIZE <= _Myres;

  0005a	83 78 14 10	 cmp	 DWORD PTR [eax+20], 16	; 00000010H

; 2293 :         if (_Large_string_engaged()) {

  0005e	72 02		 jb	 SHORT $LN16@UpdateSoun

; 2294 :             _Result = _Unfancy(_Bx._Ptr);

  00060	8b 00		 mov	 eax, DWORD PTR [eax]
$LN16@UpdateSoun:
; File C:\Users\flourine\Desktop\Xantios\client-src\Code\MilesLib\SoundManager.cpp

; 187  : 			PlaySound2D(c_rSoundInstance.strSoundFileName.c_str());

  00062	8b 4d f8	 mov	 ecx, DWORD PTR _this$1$[ebp]
  00065	50		 push	 eax
  00066	e8 00 00 00 00	 call	 ?PlaySound2D@CSoundManager@@QAEXPBD@Z ; CSoundManager::PlaySound2D
  0006b	8b 4d fc	 mov	 ecx, DWORD PTR _i$1$[ebp]
$LN2@UpdateSoun:
; File C:\Program Files\Microsoft Visual Studio\2022\Community\VC\Tools\MSVC\14.34.31933\include\vector

; 1932 :         return static_cast<size_type>(_My_data._Mylast - _My_data._Myfirst);

  0006e	8b 45 0c	 mov	 eax, DWORD PTR _c_pSoundInstanceVector$[ebp]
; File C:\Users\flourine\Desktop\Xantios\client-src\Code\MilesLib\SoundManager.cpp

; 181  : 	for (DWORD i = 0; i < c_pSoundInstanceVector->size(); ++i)

  00071	41		 inc	 ecx
  00072	89 4d fc	 mov	 DWORD PTR _i$1$[ebp], ecx
  00075	83 c6 1c	 add	 esi, 28			; 0000001cH
; File C:\Program Files\Microsoft Visual Studio\2022\Community\VC\Tools\MSVC\14.34.31933\include\vector

; 1932 :         return static_cast<size_type>(_My_data._Mylast - _My_data._Myfirst);

  00078	8b 78 04	 mov	 edi, DWORD PTR [eax+4]
  0007b	8b cf		 mov	 ecx, edi
  0007d	8b 18		 mov	 ebx, DWORD PTR [eax]
  0007f	2b cb		 sub	 ecx, ebx
  00081	b8 93 24 49 92	 mov	 eax, -1840700269	; 92492493H
  00086	f7 e9		 imul	 ecx
  00088	03 d1		 add	 edx, ecx
; File C:\Users\flourine\Desktop\Xantios\client-src\Code\MilesLib\SoundManager.cpp

; 181  : 	for (DWORD i = 0; i < c_pSoundInstanceVector->size(); ++i)

  0008a	8b 4d fc	 mov	 ecx, DWORD PTR _i$1$[ebp]
; File C:\Program Files\Microsoft Visual Studio\2022\Community\VC\Tools\MSVC\14.34.31933\include\vector

; 1932 :         return static_cast<size_type>(_My_data._Mylast - _My_data._Myfirst);

  0008d	c1 fa 04	 sar	 edx, 4
  00090	8b c2		 mov	 eax, edx
  00092	c1 e8 1f	 shr	 eax, 31			; 0000001fH
  00095	03 c2		 add	 eax, edx
; File C:\Users\flourine\Desktop\Xantios\client-src\Code\MilesLib\SoundManager.cpp

; 181  : 	for (DWORD i = 0; i < c_pSoundInstanceVector->size(); ++i)

  00097	3b c8		 cmp	 ecx, eax
  00099	72 99		 jb	 SHORT $LL4@UpdateSoun
$LN3@UpdateSoun:
  0009b	5f		 pop	 edi

; 190  : }

  0009c	5e		 pop	 esi
  0009d	5b		 pop	 ebx
  0009e	8b e5		 mov	 esp, ebp
  000a0	5d		 pop	 ebp
  000a1	c2 08 00	 ret	 8
$LN21@UpdateSoun:
; File C:\Program Files\Microsoft Visual Studio\2022\Community\VC\Tools\MSVC\14.34.31933\include\vector

; 1977 :             _Xrange();

  000a4	e8 00 00 00 00	 call	 ?_Xrange@?$vector@USSoundInstance@NSound@@V?$allocator@USSoundInstance@NSound@@@std@@@std@@CAXXZ ; std::vector<NSound::SSoundInstance,std::allocator<NSound::SSoundInstance> >::_Xrange
$LN25@UpdateSoun:
  000a9	cc		 int	 3
?UpdateSoundInstance@CSoundManager@@QAEXKPBV?$vector@USSoundInstance@NSound@@V?$allocator@USSoundInstance@NSound@@@std@@@std@@@Z ENDP ; CSoundManager::UpdateSoundInstance
_TEXT	ENDS
; Function compile flags: /Ogtp
; File C:\Users\flourine\Desktop\Xantios\client-src\Code\MilesLib\SoundManager.cpp
; File C:\Program Files\Microsoft Visual Studio\2022\Community\VC\Tools\MSVC\14.34.31933\include\vector
; File C:\Users\flourine\Desktop\Xantios\client-src\Code\MilesLib\SoundManager.cpp
; File C:\Program Files\Microsoft Visual Studio\2022\Community\VC\Tools\MSVC\14.34.31933\include\vector
; File C:\Users\flourine\Desktop\Xantios\client-src\Code\MilesLib\SoundManager.cpp
; File C:\Program Files\Microsoft Visual Studio\2022\Community\VC\Tools\MSVC\14.34.31933\include\vector
; File C:\Users\flourine\Desktop\Xantios\client-src\Code\MilesLib\SoundManager.cpp
; File C:\Program Files\Microsoft Visual Studio\2022\Community\VC\Tools\MSVC\14.34.31933\include\xstring
; File C:\Users\flourine\Desktop\Xantios\client-src\Code\MilesLib\SoundManager.cpp
; File C:\Program Files\Microsoft Visual Studio\2022\Community\VC\Tools\MSVC\14.34.31933\include\vector
; File C:\Users\flourine\Desktop\Xantios\client-src\Code\MilesLib\SoundManager.cpp
; File C:\Program Files\Microsoft Visual Studio\2022\Community\VC\Tools\MSVC\14.34.31933\include\vector
; File C:\Users\flourine\Desktop\Xantios\client-src\Code\MilesLib\SoundManager.cpp
; File C:\Program Files\Microsoft Visual Studio\2022\Community\VC\Tools\MSVC\14.34.31933\include\vector
; File C:\Users\flourine\Desktop\Xantios\client-src\Code\MilesLib\SoundManager.cpp
; File C:\Program Files\Microsoft Visual Studio\2022\Community\VC\Tools\MSVC\14.34.31933\include\vector
; File C:\Users\flourine\Desktop\Xantios\client-src\Code\MilesLib\SoundManager.cpp
;	COMDAT ?UpdateSoundInstance@CSoundManager@@QAEXMMMKPBV?$vector@USSoundInstance@NSound@@V?$allocator@USSoundInstance@NSound@@@std@@@std@@H@Z
_TEXT	SEGMENT
_this$1$ = -8						; size = 4
_i$1$ = -4						; size = 4
_fx$ = 8						; size = 4
_fy$ = 12						; size = 4
_fz$ = 16						; size = 4
_dwcurFrame$ = 20					; size = 4
_c_pSoundInstanceVector$ = 24				; size = 4
_bCheckFrequency$ = 28					; size = 4
?UpdateSoundInstance@CSoundManager@@QAEXMMMKPBV?$vector@USSoundInstance@NSound@@V?$allocator@USSoundInstance@NSound@@@std@@@std@@H@Z PROC ; CSoundManager::UpdateSoundInstance, COMDAT
; _this$ = ecx

; 167  : {

  00000	55		 push	 ebp
  00001	8b ec		 mov	 ebp, esp
  00003	83 ec 08	 sub	 esp, 8
  00006	53		 push	 ebx
  00007	56		 push	 esi
  00008	57		 push	 edi
; File C:\Program Files\Microsoft Visual Studio\2022\Community\VC\Tools\MSVC\14.34.31933\include\vector

; 1932 :         return static_cast<size_type>(_My_data._Mylast - _My_data._Myfirst);

