; Listing generated by Microsoft (R) Optimizing Compiler Version 19.34.31942.0 

	TITLE	C:\Users\flourine\Desktop\Xantios\client-src\Code\MilesLib\Distribute\SoundManager3D.obj
	.686P
	.XMM
	include listing.inc
	.model	flat

INCLUDELIB LIBCMT
INCLUDELIB OLDNAMES

PUBLIC	??0exception@std@@QAE@ABV01@@Z			; std::exception::exception
PUBLIC	??1exception@std@@UAE@XZ			; std::exception::~exception
PUBLIC	?what@exception@std@@UBEPBDXZ			; std::exception::what
PUBLIC	??_Gexception@std@@UAEPAXI@Z			; std::exception::`scalar deleting destructor'
PUBLIC	??0bad_alloc@std@@QAE@ABV01@@Z			; std::bad_alloc::bad_alloc
PUBLIC	??_Gbad_alloc@std@@UAEPAXI@Z			; std::bad_alloc::`scalar deleting destructor'
PUBLIC	??0bad_array_new_length@std@@QAE@XZ		; std::bad_array_new_length::bad_array_new_length
PUBLIC	??1bad_array_new_length@std@@UAE@XZ		; std::bad_array_new_length::~bad_array_new_length
PUBLIC	??0bad_array_new_length@std@@QAE@ABV01@@Z	; std::bad_array_new_length::bad_array_new_length
PUBLIC	??_Gbad_array_new_length@std@@UAEPAXI@Z		; std::bad_array_new_length::`scalar deleting destructor'
PUBLIC	?_Throw_bad_array_new_length@std@@YAXXZ		; std::_Throw_bad_array_new_length
PUBLIC	??0CSoundManager3D@@QAE@XZ			; CSoundManager3D::CSoundManager3D
PUBLIC	??1CSoundManager3D@@UAE@XZ			; CSoundManager3D::~CSoundManager3D
PUBLIC	?Initialize@CSoundManager3D@@QAE_NXZ		; CSoundManager3D::Initialize
PUBLIC	?Destroy@CSoundManager3D@@QAEXXZ		; CSoundManager3D::Destroy
PUBLIC	?SetInstance@CSoundManager3D@@QAEHPBD@Z		; CSoundManager3D::SetInstance
PUBLIC	?GetInstance@CSoundManager3D@@QAEPAVISoundInstance@@K@Z ; CSoundManager3D::GetInstance
PUBLIC	?SetListenerDirection@CSoundManager3D@@QAEXMMMMMM@Z ; CSoundManager3D::SetListenerDirection
PUBLIC	?SetListenerPosition@CSoundManager3D@@QAEXMMM@Z	; CSoundManager3D::SetListenerPosition
PUBLIC	?SetListenerVelocity@CSoundManager3D@@QAEXMMMM@Z ; CSoundManager3D::SetListenerVelocity
PUBLIC	?Lock@CSoundManager3D@@QAEXH@Z			; CSoundManager3D::Lock
PUBLIC	?Unlock@CSoundManager3D@@QAEXH@Z		; CSoundManager3D::Unlock
PUBLIC	??_GCSoundManager3D@@UAEPAXI@Z			; CSoundManager3D::`scalar deleting destructor'
PUBLIC	?_Xlength@?$vector@USProvider@@V?$allocator@USProvider@@@std@@@std@@CAXXZ ; std::vector<SProvider,std::allocator<SProvider> >::_Xlength
PUBLIC	??$_Resize_reallocate@U_Value_init_tag@std@@@?$vector@USProvider@@V?$allocator@USProvider@@@std@@@std@@AAEXIABU_Value_init_tag@1@@Z ; std::vector<SProvider,std::allocator<SProvider> >::_Resize_reallocate<std::_Value_init_tag>
PUBLIC	??$_Allocate_manually_vector_aligned@U_Default_allocate_traits@std@@@std@@YAPAXI@Z ; std::_Allocate_manually_vector_aligned<std::_Default_allocate_traits>
PUBLIC	??$_Copy_memmove@PAUSProvider@@PAU1@@std@@YAPAUSProvider@@PAU1@00@Z ; std::_Copy_memmove<SProvider *,SProvider *>
PUBLIC	??_7exception@std@@6B@				; std::exception::`vftable'
PUBLIC	??_C@_0BC@EOODALEL@Unknown?5exception@		; `string'
PUBLIC	??_7bad_alloc@std@@6B@				; std::bad_alloc::`vftable'
PUBLIC	??_7bad_array_new_length@std@@6B@		; std::bad_array_new_length::`vftable'
PUBLIC	??_C@_0BF@KINCDENJ@bad?5array?5new?5length@	; `string'
PUBLIC	__TI3?AVbad_array_new_length@std@@
PUBLIC	__CTA3?AVbad_array_new_length@std@@
PUBLIC	??_R0?AVbad_array_new_length@std@@@8		; std::bad_array_new_length `RTTI Type Descriptor'
PUBLIC	__CT??_R0?AVbad_array_new_length@std@@@8??0bad_array_new_length@std@@QAE@ABV01@@Z12
PUBLIC	??_R0?AVbad_alloc@std@@@8			; std::bad_alloc `RTTI Type Descriptor'
PUBLIC	__CT??_R0?AVbad_alloc@std@@@8??0bad_alloc@std@@QAE@ABV01@@Z12
PUBLIC	??_R0?AVexception@std@@@8			; std::exception `RTTI Type Descriptor'
PUBLIC	__CT??_R0?AVexception@std@@@8??0exception@std@@QAE@ABV01@@Z12
PUBLIC	??_7CSoundManager3D@@6B@			; CSoundManager3D::`vftable'
PUBLIC	??_C@_0BP@KDDGJLNF@Miles?5Fast?52D?5Positional?5Audio@ ; `string'
PUBLIC	??_C@_0CM@LDIAPBKD@CSoundManager3D?3?3GetInstance?5?$CIf@ ; `string'
PUBLIC	??_C@_0BA@FOIKENOD@vector?5too?5long@		; `string'
PUBLIC	??_R4exception@std@@6B@				; std::exception::`RTTI Complete Object Locator'
PUBLIC	??_R3exception@std@@8				; std::exception::`RTTI Class Hierarchy Descriptor'
PUBLIC	??_R2exception@std@@8				; std::exception::`RTTI Base Class Array'
PUBLIC	??_R1A@?0A@EA@exception@std@@8			; std::exception::`RTTI Base Class Descriptor at (0,-1,0,64)'
PUBLIC	??_R4bad_alloc@std@@6B@				; std::bad_alloc::`RTTI Complete Object Locator'
PUBLIC	??_R3bad_alloc@std@@8				; std::bad_alloc::`RTTI Class Hierarchy Descriptor'
PUBLIC	??_R2bad_alloc@std@@8				; std::bad_alloc::`RTTI Base Class Array'
PUBLIC	??_R1A@?0A@EA@bad_alloc@std@@8			; std::bad_alloc::`RTTI Base Class Descriptor at (0,-1,0,64)'
PUBLIC	??_R4bad_array_new_length@std@@6B@		; std::bad_array_new_length::`RTTI Complete Object Locator'
PUBLIC	??_R3bad_array_new_length@std@@8		; std::bad_array_new_length::`RTTI Class Hierarchy Descriptor'
PUBLIC	??_R2bad_array_new_length@std@@8		; std::bad_array_new_length::`RTTI Base Class Array'
PUBLIC	??_R1A@?0A@EA@bad_array_new_length@std@@8	; std::bad_array_new_length::`RTTI Base Class Descriptor at (0,-1,0,64)'
PUBLIC	??_R1A@?0A@EA@CSoundBase@@8			; CSoundBase::`RTTI Base Class Descriptor at (0,-1,0,64)'
PUBLIC	??_R0?AVCSoundBase@@@8				; CSoundBase `RTTI Type Descriptor'
PUBLIC	??_R3CSoundBase@@8				; CSoundBase::`RTTI Class Hierarchy Descriptor'
PUBLIC	??_R2CSoundBase@@8				; CSoundBase::`RTTI Base Class Array'
PUBLIC	??_R4CSoundManager3D@@6B@			; CSoundManager3D::`RTTI Complete Object Locator'
PUBLIC	??_R0?AVCSoundManager3D@@@8			; CSoundManager3D `RTTI Type Descriptor'
PUBLIC	??_R3CSoundManager3D@@8				; CSoundManager3D::`RTTI Class Hierarchy Descriptor'
PUBLIC	??_R2CSoundManager3D@@8				; CSoundManager3D::`RTTI Base Class Array'
PUBLIC	??_R1A@?0A@EA@CSoundManager3D@@8		; CSoundManager3D::`RTTI Base Class Descriptor at (0,-1,0,64)'
PUBLIC	__xmm@80000000800000008000000080000000
EXTRN	??_L@YGXPAXIIP6EX0@Z1@Z:PROC			; `eh vector constructor iterator'
EXTRN	??_M@YGXPAXIIP6EX0@Z@Z:PROC			; `eh vector destructor iterator'
EXTRN	??2@YAPAXI@Z:PROC				; operator new
EXTRN	??3@YAXPAXI@Z:PROC				; operator delete
EXTRN	__invalid_parameter_noinfo_noreturn:PROC
EXTRN	__imp__AIL_enumerate_3D_providers@12:PROC
EXTRN	__imp__AIL_open_3D_provider@4:PROC
EXTRN	__imp__AIL_close_3D_provider@4:PROC
EXTRN	__imp__AIL_open_3D_listener@4:PROC
EXTRN	__imp__AIL_close_3D_listener@4:PROC
EXTRN	__imp__AIL_set_3D_position@16:PROC
EXTRN	__imp__AIL_set_3D_velocity@20:PROC
EXTRN	__imp__AIL_set_3D_orientation@28:PROC
EXTRN	___std_exception_copy:PROC
EXTRN	___std_exception_destroy:PROC
EXTRN	??_Eexception@std@@UAEPAXI@Z:PROC		; std::exception::`vector deleting destructor'
EXTRN	??_Ebad_alloc@std@@UAEPAXI@Z:PROC		; std::bad_alloc::`vector deleting destructor'
EXTRN	??_Ebad_array_new_length@std@@UAEPAXI@Z:PROC	; std::bad_array_new_length::`vector deleting destructor'
EXTRN	?_Xlength_error@std@@YAXPBD@Z:PROC		; std::_Xlength_error
EXTRN	?TraceError@@YAXPBDZZ:PROC			; TraceError
EXTRN	??0CSoundBase@@QAE@XZ:PROC			; CSoundBase::CSoundBase
EXTRN	??1CSoundBase@@UAE@XZ:PROC			; CSoundBase::~CSoundBase
EXTRN	?Initialize@CSoundBase@@QAEXXZ:PROC		; CSoundBase::Initialize
EXTRN	?Destroy@CSoundBase@@QAEXXZ:PROC		; CSoundBase::Destroy
EXTRN	?AddFile@CSoundBase@@QAEPAVCSoundData@@KPBD@Z:PROC ; CSoundBase::AddFile
EXTRN	?GetFileCRC@CSoundBase@@QAEKPBD@Z:PROC		; CSoundBase::GetFileCRC
EXTRN	??0CSoundInstance3D@@QAE@XZ:PROC		; CSoundInstance3D::CSoundInstance3D
EXTRN	??1CSoundInstance3D@@UAE@XZ:PROC		; CSoundInstance3D::~CSoundInstance3D
EXTRN	??_ECSoundManager3D@@UAEPAXI@Z:PROC		; CSoundManager3D::`vector deleting destructor'
EXTRN	@__security_check_cookie@4:PROC
EXTRN	__CxxThrowException@8:PROC
EXTRN	___CxxFrameHandler3:PROC
EXTRN	_memmove:PROC
EXTRN	_memset:PROC
EXTRN	??_7type_info@@6B@:QWORD			; type_info::`vftable'
EXTRN	?ms_pProviderDefault@CSoundBase@@1PAUSProvider@@A:DWORD ; CSoundBase::ms_pProviderDefault
EXTRN	?ms_ProviderVector@CSoundBase@@1V?$vector@USProvider@@V?$allocator@USProvider@@@std@@@std@@A:BYTE ; CSoundBase::ms_ProviderVector
EXTRN	?ms_dataMap@CSoundBase@@1V?$map@KPAVCSoundData@@U?$less@K@std@@V?$allocator@U?$pair@$$CBKPAVCSoundData@@@std@@@3@@std@@A:QWORD ; CSoundBase::ms_dataMap
EXTRN	___security_cookie:DWORD
EXTRN	__fltused:DWORD
;	COMDAT ?k@?1??SetInstance@CSoundManager3D@@QAEHPBD@Z@4KA
_BSS	SEGMENT
?k@?1??SetInstance@CSoundManager3D@@QAEHPBD@Z@4KA DD 01H DUP (?) ; `CSoundManager3D::SetInstance'::`2'::k
_BSS	ENDS
;	COMDAT __xmm@80000000800000008000000080000000
CONST	SEGMENT
__xmm@80000000800000008000000080000000 DB 00H, 00H, 00H, 080H, 00H, 00H, 00H
	DB	080H, 00H, 00H, 00H, 080H, 00H, 00H, 00H, 080H
CONST	ENDS
;	COMDAT ??_R1A@?0A@EA@CSoundManager3D@@8
rdata$r	SEGMENT
??_R1A@?0A@EA@CSoundManager3D@@8 DD FLAT:??_R0?AVCSoundManager3D@@@8 ; CSoundManager3D::`RTTI Base Class Descriptor at (0,-1,0,64)'
	DD	01H
	DD	00H
	DD	0ffffffffH
	DD	00H
	DD	040H
	DD	FLAT:??_R3CSoundManager3D@@8
rdata$r	ENDS
;	COMDAT ??_R2CSoundManager3D@@8
rdata$r	SEGMENT
??_R2CSoundManager3D@@8 DD FLAT:??_R1A@?0A@EA@CSoundManager3D@@8 ; CSoundManager3D::`RTTI Base Class Array'
	DD	FLAT:??_R1A@?0A@EA@CSoundBase@@8
rdata$r	ENDS
;	COMDAT ??_R3CSoundManager3D@@8
rdata$r	SEGMENT
??_R3CSoundManager3D@@8 DD 00H				; CSoundManager3D::`RTTI Class Hierarchy Descriptor'
	DD	00H
	DD	02H
	DD	FLAT:??_R2CSoundManager3D@@8
rdata$r	ENDS
;	COMDAT ??_R0?AVCSoundManager3D@@@8
data$rs	SEGMENT
??_R0?AVCSoundManager3D@@@8 DD FLAT:??_7type_info@@6B@	; CSoundManager3D `RTTI Type Descriptor'
	DD	00H
	DB	'.?AVCSoundManager3D@@', 00H
data$rs	ENDS
;	COMDAT ??_R4CSoundManager3D@@6B@
rdata$r	SEGMENT
??_R4CSoundManager3D@@6B@ DD 00H			; CSoundManager3D::`RTTI Complete Object Locator'
	DD	00H
	DD	00H
	DD	FLAT:??_R0?AVCSoundManager3D@@@8
	DD	FLAT:??_R3CSoundManager3D@@8
rdata$r	ENDS
;	COMDAT ??_R2CSoundBase@@8
rdata$r	SEGMENT
??_R2CSoundBase@@8 DD FLAT:??_R1A@?0A@EA@CSoundBase@@8	; CSoundBase::`RTTI Base Class Array'
rdata$r	ENDS
;	COMDAT ??_R3CSoundBase@@8
rdata$r	SEGMENT
??_R3CSoundBase@@8 DD 00H				; CSoundBase::`RTTI Class Hierarchy Descriptor'
	DD	00H
	DD	01H
	DD	FLAT:??_R2CSoundBase@@8
rdata$r	ENDS
;	COMDAT ??_R0?AVCSoundBase@@@8
data$rs	SEGMENT
??_R0?AVCSoundBase@@@8 DD FLAT:??_7type_info@@6B@	; CSoundBase `RTTI Type Descriptor'
	DD	00H
	DB	'.?AVCSoundBase@@', 00H
data$rs	ENDS
;	COMDAT ??_R1A@?0A@EA@CSoundBase@@8
rdata$r	SEGMENT
??_R1A@?0A@EA@CSoundBase@@8 DD FLAT:??_R0?AVCSoundBase@@@8 ; CSoundBase::`RTTI Base Class Descriptor at (0,-1,0,64)'
	DD	00H
	DD	00H
	DD	0ffffffffH
	DD	00H
	DD	040H
	DD	FLAT:??_R3CSoundBase@@8
rdata$r	ENDS
;	COMDAT ??_R1A@?0A@EA@bad_array_new_length@std@@8
rdata$r	SEGMENT
??_R1A@?0A@EA@bad_array_new_length@std@@8 DD FLAT:??_R0?AVbad_array_new_length@std@@@8 ; std::bad_array_new_length::`RTTI Base Class Descriptor at (0,-1,0,64)'
	DD	02H
	DD	00H
	DD	0ffffffffH
	DD	00H
	DD	040H
	DD	FLAT:??_R3bad_array_new_length@std@@8
rdata$r	ENDS
;	COMDAT ??_R2bad_array_new_length@std@@8
rdata$r	SEGMENT
??_R2bad_array_new_length@std@@8 DD FLAT:??_R1A@?0A@EA@bad_array_new_length@std@@8 ; std::bad_array_new_length::`RTTI Base Class Array'
	DD	FLAT:??_R1A@?0A@EA@bad_alloc@std@@8
	DD	FLAT:??_R1A@?0A@EA@exception@std@@8
rdata$r	ENDS
;	COMDAT ??_R3bad_array_new_length@std@@8
rdata$r	SEGMENT
??_R3bad_array_new_length@std@@8 DD 00H			; std::bad_array_new_length::`RTTI Class Hierarchy Descriptor'
	DD	00H
	DD	03H
	DD	FLAT:??_R2bad_array_new_length@std@@8
rdata$r	ENDS
;	COMDAT ??_R4bad_array_new_length@std@@6B@
rdata$r	SEGMENT
??_R4bad_array_new_length@std@@6B@ DD 00H		; std::bad_array_new_length::`RTTI Complete Object Locator'
	DD	00H
	DD	00H
	DD	FLAT:??_R0?AVbad_array_new_length@std@@@8
	DD	FLAT:??_R3bad_array_new_length@std@@8
rdata$r	ENDS
;	COMDAT ??_R1A@?0A@EA@bad_alloc@std@@8
rdata$r	SEGMENT
??_R1A@?0A@EA@bad_alloc@std@@8 DD FLAT:??_R0?AVbad_alloc@std@@@8 ; std::bad_alloc::`RTTI Base Class Descriptor at (0,-1,0,64)'
	DD	01H
	DD	00H
	DD	0ffffffffH
	DD	00H
	DD	040H
	DD	FLAT:??_R3bad_alloc@std@@8
rdata$r	ENDS
;	COMDAT ??_R2bad_alloc@std@@8
rdata$r	SEGMENT
??_R2bad_alloc@std@@8 DD FLAT:??_R1A@?0A@EA@bad_alloc@std@@8 ; std::bad_alloc::`RTTI Base Class Array'
	DD	FLAT:??_R1A@?0A@EA@exception@std@@8
rdata$r	ENDS
;	COMDAT ??_R3bad_alloc@std@@8
rdata$r	SEGMENT
??_R3bad_alloc@std@@8 DD 00H				; std::bad_alloc::`RTTI Class Hierarchy Descriptor'
	DD	00H
	DD	02H
	DD	FLAT:??_R2bad_alloc@std@@8
rdata$r	ENDS
;	COMDAT ??_R4bad_alloc@std@@6B@
rdata$r	SEGMENT
??_R4bad_alloc@std@@6B@ DD 00H				; std::bad_alloc::`RTTI Complete Object Locator'
	DD	00H
	DD	00H
	DD	FLAT:??_R0?AVbad_alloc@std@@@8
	DD	FLAT:??_R3bad_alloc@std@@8
rdata$r	ENDS
;	COMDAT ??_R1A@?0A@EA@exception@std@@8
rdata$r	SEGMENT
??_R1A@?0A@EA@exception@std@@8 DD FLAT:??_R0?AVexception@std@@@8 ; std::exception::`RTTI Base Class Descriptor at (0,-1,0,64)'
	DD	00H
	DD	00H
	DD	0ffffffffH
	DD	00H
	DD	040H
	DD	FLAT:??_R3exception@std@@8
rdata$r	ENDS
;	COMDAT ??_R2exception@std@@8
rdata$r	SEGMENT
??_R2exception@std@@8 DD FLAT:??_R1A@?0A@EA@exception@std@@8 ; std::exception::`RTTI Base Class Array'
rdata$r	ENDS
;	COMDAT ??_R3exception@std@@8
rdata$r	SEGMENT
??_R3exception@std@@8 DD 00H				; std::exception::`RTTI Class Hierarchy Descriptor'
	DD	00H
	DD	01H
	DD	FLAT:??_R2exception@std@@8
rdata$r	ENDS
;	COMDAT ??_R4exception@std@@6B@
rdata$r	SEGMENT
??_R4exception@std@@6B@ DD 00H				; std::exception::`RTTI Complete Object Locator'
	DD	00H
	DD	00H
	DD	FLAT:??_R0?AVexception@std@@@8
	DD	FLAT:??_R3exception@std@@8
rdata$r	ENDS
;	COMDAT ??_C@_0BA@FOIKENOD@vector?5too?5long@
CONST	SEGMENT
??_C@_0BA@FOIKENOD@vector?5too?5long@ DB 'vector too long', 00H ; `string'
CONST	ENDS
;	COMDAT ??_C@_0CM@LDIAPBKD@CSoundManager3D?3?3GetInstance?5?$CIf@
CONST	SEGMENT
??_C@_0CM@LDIAPBKD@CSoundManager3D?3?3GetInstance?5?$CIf@ DB 'CSoundManag'
	DB	'er3D::GetInstance (filename: %s)', 00H	; `string'
CONST	ENDS
;	COMDAT ??_C@_0BP@KDDGJLNF@Miles?5Fast?52D?5Positional?5Audio@
CONST	SEGMENT
??_C@_0BP@KDDGJLNF@Miles?5Fast?52D?5Positional?5Audio@ DB 'Miles Fast 2D '
	DB	'Positional Audio', 00H			; `string'
CONST	ENDS
;	COMDAT ??_7CSoundManager3D@@6B@
CONST	SEGMENT
??_7CSoundManager3D@@6B@ DD FLAT:??_R4CSoundManager3D@@6B@ ; CSoundManager3D::`vftable'
	DD	FLAT:??_ECSoundManager3D@@UAEPAXI@Z
CONST	ENDS
;	COMDAT __CT??_R0?AVexception@std@@@8??0exception@std@@QAE@ABV01@@Z12
xdata$x	SEGMENT
__CT??_R0?AVexception@std@@@8??0exception@std@@QAE@ABV01@@Z12 DD 00H
	DD	FLAT:??_R0?AVexception@std@@@8
	DD	00H
	DD	0ffffffffH
	ORG $+4
	DD	0cH
	DD	FLAT:??0exception@std@@QAE@ABV01@@Z
xdata$x	ENDS
;	COMDAT ??_R0?AVexception@std@@@8
data$r	SEGMENT
??_R0?AVexception@std@@@8 DD FLAT:??_7type_info@@6B@	; std::exception `RTTI Type Descriptor'
	DD	00H
	DB	'.?AVexception@std@@', 00H
data$r	ENDS
;	COMDAT __CT??_R0?AVbad_alloc@std@@@8??0bad_alloc@std@@QAE@ABV01@@Z12
xdata$x	SEGMENT
__CT??_R0?AVbad_alloc@std@@@8??0bad_alloc@std@@QAE@ABV01@@Z12 DD 010H
	DD	FLAT:??_R0?AVbad_alloc@std@@@8
	DD	00H
	DD	0ffffffffH
	ORG $+4
	DD	0cH
	DD	FLAT:??0bad_alloc@std@@QAE@ABV01@@Z
xdata$x	ENDS
;	COMDAT ??_R0?AVbad_alloc@std@@@8
data$r	SEGMENT
??_R0?AVbad_alloc@std@@@8 DD FLAT:??_7type_info@@6B@	; std::bad_alloc `RTTI Type Descriptor'
	DD	00H
	DB	'.?AVbad_alloc@std@@', 00H
data$r	ENDS
;	COMDAT __CT??_R0?AVbad_array_new_length@std@@@8??0bad_array_new_length@std@@QAE@ABV01@@Z12
xdata$x	SEGMENT
__CT??_R0?AVbad_array_new_length@std@@@8??0bad_array_new_length@std@@QAE@ABV01@@Z12 DD 00H
	DD	FLAT:??_R0?AVbad_array_new_length@std@@@8
	DD	00H
	DD	0ffffffffH
	ORG $+4
	DD	0cH
	DD	FLAT:??0bad_array_new_length@std@@QAE@ABV01@@Z
xdata$x	ENDS
;	COMDAT ??_R0?AVbad_array_new_length@std@@@8
data$r	SEGMENT
??_R0?AVbad_array_new_length@std@@@8 DD FLAT:??_7type_info@@6B@ ; std::bad_array_new_length `RTTI Type Descriptor'
	DD	00H
	DB	'.?AVbad_array_new_length@std@@', 00H
data$r	ENDS
;	COMDAT __CTA3?AVbad_array_new_length@std@@
xdata$x	SEGMENT
__CTA3?AVbad_array_new_length@std@@ DD 03H
	DD	FLAT:__CT??_R0?AVbad_array_new_length@std@@@8??0bad_array_new_length@std@@QAE@ABV01@@Z12
	DD	FLAT:__CT??_R0?AVbad_alloc@std@@@8??0bad_alloc@std@@QAE@ABV01@@Z12
	DD	FLAT:__CT??_R0?AVexception@std@@@8??0exception@std@@QAE@ABV01@@Z12
xdata$x	ENDS
;	COMDAT __TI3?AVbad_array_new_length@std@@
xdata$x	SEGMENT
__TI3?AVbad_array_new_length@std@@ DD 00H
	DD	FLAT:??1bad_array_new_length@std@@UAE@XZ
	DD	00H
	DD	FLAT:__CTA3?AVbad_array_new_length@std@@
xdata$x	ENDS
;	COMDAT ??_C@_0BF@KINCDENJ@bad?5array?5new?5length@
CONST	SEGMENT
??_C@_0BF@KINCDENJ@bad?5array?5new?5length@ DB 'bad array new length', 00H ; `string'
CONST	ENDS
;	COMDAT ??_7bad_array_new_length@std@@6B@
CONST	SEGMENT
??_7bad_array_new_length@std@@6B@ DD FLAT:??_R4bad_array_new_length@std@@6B@ ; std::bad_array_new_length::`vftable'
	DD	FLAT:??_Ebad_array_new_length@std@@UAEPAXI@Z
	DD	FLAT:?what@exception@std@@UBEPBDXZ
CONST	ENDS
;	COMDAT ??_7bad_alloc@std@@6B@
CONST	SEGMENT
??_7bad_alloc@std@@6B@ DD FLAT:??_R4bad_alloc@std@@6B@	; std::bad_alloc::`vftable'
	DD	FLAT:??_Ebad_alloc@std@@UAEPAXI@Z
	DD	FLAT:?what@exception@std@@UBEPBDXZ
CONST	ENDS
;	COMDAT ??_C@_0BC@EOODALEL@Unknown?5exception@
CONST	SEGMENT
??_C@_0BC@EOODALEL@Unknown?5exception@ DB 'Unknown exception', 00H ; `string'
CONST	ENDS
;	COMDAT ??_7exception@std@@6B@
CONST	SEGMENT
??_7exception@std@@6B@ DD FLAT:??_R4exception@std@@6B@	; std::exception::`vftable'
	DD	FLAT:??_Eexception@std@@UAEPAXI@Z
	DD	FLAT:?what@exception@std@@UBEPBDXZ
CONST	ENDS
;	COMDAT xdata$x
xdata$x	SEGMENT
__ehfuncinfo$??1CSoundManager3D@@UAE@XZ DD 019930522H
	DD	00H
	DD	00H
	DD	2 DUP(00H)
	DD	2 DUP(00H)
	DD	00H
	DD	05H
xdata$x	ENDS
;	COMDAT xdata$x
xdata$x	SEGMENT
__unwindtable$??0CSoundManager3D@@QAE@XZ DD 0ffffffffH
	DD	FLAT:__unwindfunclet$??0CSoundManager3D@@QAE@XZ$0
__ehfuncinfo$??0CSoundManager3D@@QAE@XZ DD 019930522H
	DD	01H
	DD	FLAT:__unwindtable$??0CSoundManager3D@@QAE@XZ
	DD	2 DUP(00H)
	DD	2 DUP(00H)
	DD	00H
	DD	01H
xdata$x	ENDS
; Function compile flags: /Ogtp
; File C:\Program Files\Microsoft Visual Studio\2022\Community\VC\Tools\MSVC\14.34.31933\include\xutility
;	COMDAT ??$_Copy_memmove@PAUSProvider@@PAU1@@std@@YAPAUSProvider@@PAU1@00@Z
_TEXT	SEGMENT
__First$ = 8						; size = 4
__Last$ = 12						; size = 4
__Dest$ = 16						; size = 4
??$_Copy_memmove@PAUSProvider@@PAU1@@std@@YAPAUSProvider@@PAU1@00@Z PROC ; std::_Copy_memmove<SProvider *,SProvider *>, COMDAT

; 3833 : _OutCtgIt _Copy_memmove(_CtgIt _First, _CtgIt _Last, _OutCtgIt _Dest) {

  00000	55		 push	 ebp
  00001	8b ec		 mov	 ebp, esp

; 3834 :     auto _FirstPtr              = _To_address(_First);
; 3835 :     auto _LastPtr               = _To_address(_Last);
; 3836 :     auto _DestPtr               = _To_address(_Dest);
; 3837 :     const char* const _First_ch = const_cast<const char*>(reinterpret_cast<const volatile char*>(_FirstPtr));
; 3838 :     const char* const _Last_ch  = const_cast<const char*>(reinterpret_cast<const volatile char*>(_LastPtr));
; 3839 :     char* const _Dest_ch        = const_cast<char*>(reinterpret_cast<const volatile char*>(_DestPtr));
; 3840 :     const auto _Count           = static_cast<size_t>(_Last_ch - _First_ch);

  00003	8b 45 08	 mov	 eax, DWORD PTR __First$[ebp]
  00006	56		 push	 esi

; 3841 :     _CSTD memmove(_Dest_ch, _First_ch, _Count);

  00007	8b 75 10	 mov	 esi, DWORD PTR __Dest$[ebp]
  0000a	57		 push	 edi
  0000b	8b 7d 0c	 mov	 edi, DWORD PTR __Last$[ebp]
  0000e	2b f8		 sub	 edi, eax
  00010	57		 push	 edi
  00011	50		 push	 eax
  00012	56		 push	 esi
  00013	e8 00 00 00 00	 call	 _memmove
  00018	83 c4 0c	 add	 esp, 12			; 0000000cH

; 3842 :     if constexpr (is_pointer_v<_OutCtgIt>) {
; 3843 :         return reinterpret_cast<_OutCtgIt>(_Dest_ch + _Count);

  0001b	8d 04 37	 lea	 eax, DWORD PTR [edi+esi]
  0001e	5f		 pop	 edi
  0001f	5e		 pop	 esi

; 3844 :     } else {
; 3845 :         return _Dest + (_LastPtr - _FirstPtr);
; 3846 :     }
; 3847 : }

  00020	5d		 pop	 ebp
  00021	c3		 ret	 0
??$_Copy_memmove@PAUSProvider@@PAU1@@std@@YAPAUSProvider@@PAU1@00@Z ENDP ; std::_Copy_memmove<SProvider *,SProvider *>
_TEXT	ENDS
; Function compile flags: /Ogtp
; File C:\Program Files\Microsoft Visual Studio\2022\Community\VC\Tools\MSVC\14.34.31933\include\xmemory
;	COMDAT ??$_Allocate_manually_vector_aligned@U_Default_allocate_traits@std@@@std@@YAPAXI@Z
_TEXT	SEGMENT
__Bytes$ = 8						; size = 4
??$_Allocate_manually_vector_aligned@U_Default_allocate_traits@std@@@std@@YAPAXI@Z PROC ; std::_Allocate_manually_vector_aligned<std::_Default_allocate_traits>, COMDAT

; 127  : __declspec(allocator) void* _Allocate_manually_vector_aligned(const size_t _Bytes) {

  00000	55		 push	 ebp
  00001	8b ec		 mov	 ebp, esp

; 128  :     // allocate _Bytes manually aligned to at least _Big_allocation_alignment
; 129  :     const size_t _Block_size = _Non_user_size + _Bytes;

  00003	8b 45 08	 mov	 eax, DWORD PTR __Bytes$[ebp]
  00006	8d 48 23	 lea	 ecx, DWORD PTR [eax+35]

; 130  :     if (_Block_size <= _Bytes) {

  00009	3b c8		 cmp	 ecx, eax
  0000b	0f 86 00 00 00
	00		 jbe	 ?_Throw_bad_array_new_length@std@@YAXXZ ; std::_Throw_bad_array_new_length

; 77   :         return ::operator new(_Bytes);

  00011	51		 push	 ecx
  00012	e8 00 00 00 00	 call	 ??2@YAPAXI@Z		; operator new

; 131  :         _Throw_bad_array_new_length(); // add overflow
; 132  :     }
; 133  : 
; 134  :     const uintptr_t _Ptr_container = reinterpret_cast<uintptr_t>(_Traits::_Allocate(_Block_size));

  00017	8b c8		 mov	 ecx, eax

; 77   :         return ::operator new(_Bytes);

  00019	83 c4 04	 add	 esp, 4

; 135  :     _STL_VERIFY(_Ptr_container != 0, "invalid argument"); // validate even in release since we're doing p[-1]

  0001c	85 c9		 test	 ecx, ecx
  0001e	74 0b		 je	 SHORT $LN7@Allocate_m

; 136  :     void* const _Ptr = reinterpret_cast<void*>((_Ptr_container + _Non_user_size) & ~(_Big_allocation_alignment - 1));

  00020	8d 41 23	 lea	 eax, DWORD PTR [ecx+35]
  00023	83 e0 e0	 and	 eax, -32		; ffffffe0H

; 137  :     static_cast<uintptr_t*>(_Ptr)[-1] = _Ptr_container;

  00026	89 48 fc	 mov	 DWORD PTR [eax-4], ecx

; 138  : 
; 139  : #ifdef _DEBUG
; 140  :     static_cast<uintptr_t*>(_Ptr)[-2] = _Big_allocation_sentinel;
; 141  : #endif // _DEBUG
; 142  :     return _Ptr;
; 143  : }

  00029	5d		 pop	 ebp
  0002a	c3		 ret	 0
$LN7@Allocate_m:

; 135  :     _STL_VERIFY(_Ptr_container != 0, "invalid argument"); // validate even in release since we're doing p[-1]

  0002b	e9 00 00 00 00	 jmp	 __invalid_parameter_noinfo_noreturn
??$_Allocate_manually_vector_aligned@U_Default_allocate_traits@std@@@std@@YAPAXI@Z ENDP ; std::_Allocate_manually_vector_aligned<std::_Default_allocate_traits>
_TEXT	ENDS
; Function compile flags: /Ogtp
; File C:\Program Files\Microsoft Visual Studio\2022\Community\VC\Tools\MSVC\14.34.31933\include\vector
; File C:\Program Files\Microsoft Visual Studio\2022\Community\VC\Tools\MSVC\14.34.31933\include\xmemory
; File C:\Program Files\Microsoft Visual Studio\2022\Community\VC\Tools\MSVC\14.34.31933\include\vector
; File C:\Program Files\Microsoft Visual Studio\2022\Community\VC\Tools\MSVC\14.34.31933\include\xmemory
; File C:\Program Files\Microsoft Visual Studio\2022\Community\VC\Tools\MSVC\14.34.31933\include\vector
; File C:\Program Files\Microsoft Visual Studio\2022\Community\VC\Tools\MSVC\14.34.31933\include\xmemory
; File C:\Program Files\Microsoft Visual Studio\2022\Community\VC\Tools\MSVC\14.34.31933\include\vector
; File C:\Program Files\Microsoft Visual Studio\2022\Community\VC\Tools\MSVC\14.34.31933\include\xmemory
; File C:\Program Files\Microsoft Visual Studio\2022\Community\VC\Tools\MSVC\14.34.31933\include\vector
; File C:\Program Files\Microsoft Visual Studio\2022\Community\VC\Tools\MSVC\14.34.31933\include\xmemory
; File C:\Program Files\Microsoft Visual Studio\2022\Community\VC\Tools\MSVC\14.34.31933\include\vector
; File C:\Program Files\Microsoft Visual Studio\2022\Community\VC\Tools\MSVC\14.34.31933\include\xmemory
; File C:\Program Files\Microsoft Visual Studio\2022\Community\VC\Tools\MSVC\14.34.31933\include\vector
; File C:\Program Files\Microsoft Visual Studio\2022\Community\VC\Tools\MSVC\14.34.31933\include\xmemory
; File C:\Program Files\Microsoft Visual Studio\2022\Community\VC\Tools\MSVC\14.34.31933\include\vector
; File C:\Program Files\Microsoft Visual Studio\2022\Community\VC\Tools\MSVC\14.34.31933\include\xmemory
; File C:\Program Files\Microsoft Visual Studio\2022\Community\VC\Tools\MSVC\14.34.31933\include\vector
; File C:\Program Files\Microsoft Visual Studio\2022\Community\VC\Tools\MSVC\14.34.31933\include\xmemory
; File C:\Program Files\Microsoft Visual Studio\2022\Community\VC\Tools\MSVC\14.34.31933\include\vector
;	COMDAT ??$_Resize_reallocate@U_Value_init_tag@std@@@?$vector@USProvider@@V?$allocator@USProvider@@@std@@@std@@AAEXIABU_Value_init_tag@1@@Z
_TEXT	SEGMENT
__Oldsize$1$ = -4					; size = 4
tv465 = 8						; size = 4
__Newsize$ = 8						; size = 4
__Val$ = 12						; size = 4
??$_Resize_reallocate@U_Value_init_tag@std@@@?$vector@USProvider@@V?$allocator@USProvider@@@std@@@std@@AAEXIABU_Value_init_tag@1@@Z PROC ; std::vector<SProvider,std::allocator<SProvider> >::_Resize_reallocate<std::_Value_init_tag>, COMDAT
; _this$ = ecx

; 1574 :     _CONSTEXPR20 void _Resize_reallocate(const size_type _Newsize, const _Ty2& _Val) {

  00000	55		 push	 ebp
  00001	8b ec		 mov	 ebp, esp
  00003	51		 push	 ecx
  00004	53		 push	 ebx

; 1575 :         if (_Newsize > max_size()) {

  00005	8b 5d 08	 mov	 ebx, DWORD PTR __Newsize$[ebp]
  00008	56		 push	 esi
  00009	8b f1		 mov	 esi, ecx
  0000b	57		 push	 edi
  0000c	81 fb ff ff ff
	1f		 cmp	 ebx, 536870911		; 1fffffffH
  00012	0f 87 f3 00 00
	00		 ja	 $LN81@Resize_rea

; 1577 :         }
; 1578 : 
; 1579 :         auto& _Al         = _Getal();
; 1580 :         auto& _My_data    = _Mypair._Myval2;
; 1581 :         pointer& _Myfirst = _My_data._Myfirst;
; 1582 :         pointer& _Mylast  = _My_data._Mylast;
; 1583 : 
; 1584 :         const auto _Oldsize          = static_cast<size_type>(_Mylast - _Myfirst);

  00018	8b 4e 04	 mov	 ecx, DWORD PTR [esi+4]

; 2029 :         if (_Oldcapacity > _Max - _Oldcapacity / 2) {

  0001b	b8 ff ff ff 1f	 mov	 eax, 536870911		; 1fffffffH

; 1577 :         }
; 1578 : 
; 1579 :         auto& _Al         = _Getal();
; 1580 :         auto& _My_data    = _Mypair._Myval2;
; 1581 :         pointer& _Myfirst = _My_data._Myfirst;
; 1582 :         pointer& _Mylast  = _My_data._Mylast;
; 1583 : 
; 1584 :         const auto _Oldsize          = static_cast<size_type>(_Mylast - _Myfirst);

  00020	2b 0e		 sub	 ecx, DWORD PTR [esi]
  00022	c1 f9 03	 sar	 ecx, 3
  00025	89 4d fc	 mov	 DWORD PTR __Oldsize$1$[ebp], ecx

; 1942 :         return static_cast<size_type>(_My_data._Myend - _My_data._Myfirst);

  00028	8b 4e 08	 mov	 ecx, DWORD PTR [esi+8]
  0002b	2b 0e		 sub	 ecx, DWORD PTR [esi]
  0002d	c1 f9 03	 sar	 ecx, 3

; 2029 :         if (_Oldcapacity > _Max - _Oldcapacity / 2) {

  00030	8b d1		 mov	 edx, ecx
  00032	d1 ea		 shr	 edx, 1
  00034	2b c2		 sub	 eax, edx
  00036	3b c8		 cmp	 ecx, eax
  00038	76 15		 jbe	 SHORT $LN10@Resize_rea

; 2030 :             return _Max; // geometric growth would overflow

  0003a	b8 f8 ff ff ff	 mov	 eax, -8			; fffffff8H
; File C:\Program Files\Microsoft Visual Studio\2022\Community\VC\Tools\MSVC\14.34.31933\include\xmemory

; 229  :             return _Allocate_manually_vector_aligned<_Traits>(_Bytes);

  0003f	50		 push	 eax
; File C:\Program Files\Microsoft Visual Studio\2022\Community\VC\Tools\MSVC\14.34.31933\include\vector

; 2030 :             return _Max; // geometric growth would overflow

  00040	89 45 08	 mov	 DWORD PTR tv465[ebp], eax
; File C:\Program Files\Microsoft Visual Studio\2022\Community\VC\Tools\MSVC\14.34.31933\include\xmemory

; 229  :             return _Allocate_manually_vector_aligned<_Traits>(_Bytes);

  00043	e8 00 00 00 00	 call	 ??$_Allocate_manually_vector_aligned@U_Default_allocate_traits@std@@@std@@YAPAXI@Z ; std::_Allocate_manually_vector_aligned<std::_Default_allocate_traits>
  00048	83 c4 04	 add	 esp, 4
  0004b	8b f8		 mov	 edi, eax
  0004d	eb 43		 jmp	 SHORT $LN21@Resize_rea
$LN10@Resize_rea:
; File C:\Program Files\Microsoft Visual Studio\2022\Community\VC\Tools\MSVC\14.34.31933\include\vector

; 2033 :         const size_type _Geometric = _Oldcapacity + _Oldcapacity / 2;

  0004f	8d 04 0a	 lea	 eax, DWORD PTR [edx+ecx]

; 2034 : 
; 2035 :         if (_Geometric < _Newsize) {

  00052	3b c3		 cmp	 eax, ebx
  00054	73 1c		 jae	 SHORT $LN11@Resize_rea

; 2036 :             return _Newsize; // geometric growth would be insufficient

  00056	8b c3		 mov	 eax, ebx
$LN77@Resize_rea:
; File C:\Program Files\Microsoft Visual Studio\2022\Community\VC\Tools\MSVC\14.34.31933\include\xmemory

; 65   :     return _Count * _Ty_size;

  00058	c1 e0 03	 shl	 eax, 3
  0005b	89 45 08	 mov	 DWORD PTR tv465[ebp], eax

; 228  :         if (_Bytes >= _Big_allocation_threshold) { // boost the alignment of big allocations to help autovectorization

  0005e	3d 00 10 00 00	 cmp	 eax, 4096		; 00001000H
  00063	72 1a		 jb	 SHORT $LN22@Resize_rea

; 229  :             return _Allocate_manually_vector_aligned<_Traits>(_Bytes);

  00065	50		 push	 eax
  00066	e8 00 00 00 00	 call	 ??$_Allocate_manually_vector_aligned@U_Default_allocate_traits@std@@@std@@YAPAXI@Z ; std::_Allocate_manually_vector_aligned<std::_Default_allocate_traits>
  0006b	83 c4 04	 add	 esp, 4
  0006e	8b f8		 mov	 edi, eax
  00070	eb 20		 jmp	 SHORT $LN21@Resize_rea
$LN11@Resize_rea:

; 60   :         if (_Count > _Max_possible) {

  00072	3d ff ff ff 1f	 cmp	 eax, 536870911		; 1fffffffH
  00077	0f 87 93 00 00
	00		 ja	 $LN82@Resize_rea
  0007d	eb d9		 jmp	 SHORT $LN77@Resize_rea
$LN22@Resize_rea:

; 234  :     if (_Bytes != 0) {

  0007f	85 c0		 test	 eax, eax
  00081	74 0d		 je	 SHORT $LN23@Resize_rea

; 77   :         return ::operator new(_Bytes);

  00083	50		 push	 eax
  00084	e8 00 00 00 00	 call	 ??2@YAPAXI@Z		; operator new
  00089	83 c4 04	 add	 esp, 4

; 235  :         return _Traits::_Allocate(_Bytes);

  0008c	8b f8		 mov	 edi, eax
  0008e	eb 02		 jmp	 SHORT $LN21@Resize_rea
$LN23@Resize_rea:

; 236  :     }
; 237  : 
; 238  :     return nullptr;

  00090	33 ff		 xor	 edi, edi
$LN21@Resize_rea:
; File C:\Program Files\Microsoft Visual Studio\2022\Community\VC\Tools\MSVC\14.34.31933\include\vector

; 1588 :         const pointer _Appended_first = _Newvec + _Oldsize;

  00092	8b 4d fc	 mov	 ecx, DWORD PTR __Oldsize$1$[ebp]

; 1596 :             _Appended_last = _Uninitialized_value_construct_n(_Appended_first, _Newsize - _Oldsize, _Al);

  00095	8b c3		 mov	 eax, ebx
  00097	8d 14 cf	 lea	 edx, DWORD PTR [edi+ecx*8]
  0009a	2b c1		 sub	 eax, ecx
; File C:\Program Files\Microsoft Visual Studio\2022\Community\VC\Tools\MSVC\14.34.31933\include\xmemory

; 1902 :     for (; 0 < _Count; --_Count) {

  0009c	74 0f		 je	 SHORT $LN31@Resize_rea
; File C:\Program Files\Microsoft Visual Studio\2022\Community\VC\Tools\MSVC\14.34.31933\include\vector

; 1596 :             _Appended_last = _Uninitialized_value_construct_n(_Appended_first, _Newsize - _Oldsize, _Al);

  0009e	c1 e0 03	 shl	 eax, 3
  000a1	50		 push	 eax
  000a2	6a 00		 push	 0
  000a4	52		 push	 edx
  000a5	e8 00 00 00 00	 call	 _memset
  000aa	83 c4 0c	 add	 esp, 12			; 0000000cH
$LN31@Resize_rea:
; File C:\Program Files\Microsoft Visual Studio\2022\Community\VC\Tools\MSVC\14.34.31933\include\xmemory

; 1800 :             _Copy_memmove(_UFirst, _ULast, _Unfancy(_Dest));

  000ad	57		 push	 edi
  000ae	ff 76 04	 push	 DWORD PTR [esi+4]
  000b1	ff 36		 push	 DWORD PTR [esi]
  000b3	e8 00 00 00 00	 call	 ??$_Copy_memmove@PAUSProvider@@PAU1@@std@@YAPAUSProvider@@PAU1@00@Z ; std::_Copy_memmove<SProvider *,SProvider *>
; File C:\Program Files\Microsoft Visual Studio\2022\Community\VC\Tools\MSVC\14.34.31933\include\vector

; 2086 :         if (_Myfirst) { // destroy and deallocate old array

  000b8	8b 06		 mov	 eax, DWORD PTR [esi]
; File C:\Program Files\Microsoft Visual Studio\2022\Community\VC\Tools\MSVC\14.34.31933\include\xmemory

; 1800 :             _Copy_memmove(_UFirst, _ULast, _Unfancy(_Dest));

  000ba	83 c4 0c	 add	 esp, 12			; 0000000cH
; File C:\Program Files\Microsoft Visual Studio\2022\Community\VC\Tools\MSVC\14.34.31933\include\vector

; 2086 :         if (_Myfirst) { // destroy and deallocate old array

  000bd	85 c0		 test	 eax, eax
  000bf	74 2c		 je	 SHORT $LN59@Resize_rea

; 2087 :             _Destroy_range(_Myfirst, _Mylast, _Al);
; 2088 :             _ASAN_VECTOR_REMOVE;
; 2089 :             _Al.deallocate(_Myfirst, static_cast<size_type>(_Myend - _Myfirst));

  000c1	8b 4e 08	 mov	 ecx, DWORD PTR [esi+8]
  000c4	2b c8		 sub	 ecx, eax
; File C:\Program Files\Microsoft Visual Studio\2022\Community\VC\Tools\MSVC\14.34.31933\include\xmemory

; 830  :         _Deallocate<_New_alignof<_Ty>>(_Ptr, sizeof(_Ty) * _Count);

  000c6	83 e1 f8	 and	 ecx, -8			; fffffff8H

; 251  :         if (_Bytes >= _Big_allocation_threshold) { // boost the alignment of big allocations to help autovectorization

  000c9	81 f9 00 10 00
	00		 cmp	 ecx, 4096		; 00001000H
  000cf	72 12		 jb	 SHORT $LN69@Resize_rea

; 150  :     const uintptr_t _Ptr_container   = _Ptr_user[-1];

  000d1	8b 50 fc	 mov	 edx, DWORD PTR [eax-4]
  000d4	83 c1 23	 add	 ecx, 35			; 00000023H

; 151  : 
; 152  :     // If the following asserts, it likely means that we are performing
; 153  :     // an aligned delete on memory coming from an unaligned allocation.
; 154  :     _STL_ASSERT(_Ptr_user[-2] == _Big_allocation_sentinel, "invalid argument");
; 155  : 
; 156  :     // Extra paranoia on aligned allocation/deallocation; ensure _Ptr_container is
; 157  :     // in range [_Min_back_shift, _Non_user_size]
; 158  : #ifdef _DEBUG
; 159  :     constexpr uintptr_t _Min_back_shift = 2 * sizeof(void*);
; 160  : #else // ^^^ _DEBUG ^^^ // vvv !_DEBUG vvv
; 161  :     constexpr uintptr_t _Min_back_shift = sizeof(void*);
; 162  : #endif // _DEBUG
; 163  :     const uintptr_t _Back_shift = reinterpret_cast<uintptr_t>(_Ptr) - _Ptr_container;

  000d7	2b c2		 sub	 eax, edx

; 164  :     _STL_VERIFY(_Back_shift >= _Min_back_shift && _Back_shift <= _Non_user_size, "invalid argument");

  000d9	83 c0 fc	 add	 eax, -4			; fffffffcH
  000dc	83 f8 1f	 cmp	 eax, 31			; 0000001fH
  000df	77 25		 ja	 SHORT $LN66@Resize_rea

; 165  :     _Ptr = reinterpret_cast<void*>(_Ptr_container);

  000e1	8b c2		 mov	 eax, edx
$LN69@Resize_rea:

; 255  :         ::operator delete(_Ptr, _Bytes);

  000e3	51		 push	 ecx
  000e4	50		 push	 eax
  000e5	e8 00 00 00 00	 call	 ??3@YAXPAXI@Z		; operator delete
  000ea	83 c4 08	 add	 esp, 8
$LN59@Resize_rea:
; File C:\Program Files\Microsoft Visual Studio\2022\Community\VC\Tools\MSVC\14.34.31933\include\vector

; 2093 :         _Mylast  = _Newvec + _Newsize;

  000ed	8d 04 df	 lea	 eax, DWORD PTR [edi+ebx*8]
  000f0	89 3e		 mov	 DWORD PTR [esi], edi
  000f2	89 46 04	 mov	 DWORD PTR [esi+4], eax

; 2094 :         _Myend   = _Newvec + _Newcapacity;

  000f5	8b 45 08	 mov	 eax, DWORD PTR tv465[ebp]
  000f8	03 c7		 add	 eax, edi
  000fa	5f		 pop	 edi
  000fb	89 46 08	 mov	 DWORD PTR [esi+8], eax
  000fe	5e		 pop	 esi
  000ff	5b		 pop	 ebx

; 1611 :     }

  00100	8b e5		 mov	 esp, ebp
  00102	5d		 pop	 ebp
  00103	c2 08 00	 ret	 8
$LN66@Resize_rea:
; File C:\Program Files\Microsoft Visual Studio\2022\Community\VC\Tools\MSVC\14.34.31933\include\xmemory

; 164  :     _STL_VERIFY(_Back_shift >= _Min_back_shift && _Back_shift <= _Non_user_size, "invalid argument");

  00106	e8 00 00 00 00	 call	 __invalid_parameter_noinfo_noreturn
$LN81@Resize_rea:
; File C:\Program Files\Microsoft Visual Studio\2022\Community\VC\Tools\MSVC\14.34.31933\include\vector

; 1576 :             _Xlength();

  0010b	e8 00 00 00 00	 call	 ?_Xlength@?$vector@USProvider@@V?$allocator@USProvider@@@std@@@std@@CAXXZ ; std::vector<SProvider,std::allocator<SProvider> >::_Xlength
$LN82@Resize_rea:
; File C:\Program Files\Microsoft Visual Studio\2022\Community\VC\Tools\MSVC\14.34.31933\include\xmemory

; 61   :             _Throw_bad_array_new_length(); // multiply overflow

  00110	e8 00 00 00 00	 call	 ?_Throw_bad_array_new_length@std@@YAXXZ ; std::_Throw_bad_array_new_length
$LN79@Resize_rea:
  00115	cc		 int	 3
??$_Resize_reallocate@U_Value_init_tag@std@@@?$vector@USProvider@@V?$allocator@USProvider@@@std@@@std@@AAEXIABU_Value_init_tag@1@@Z ENDP ; std::vector<SProvider,std::allocator<SProvider> >::_Resize_reallocate<std::_Value_init_tag>
_TEXT	ENDS
; Function compile flags: /Ogtp
; File C:\Program Files\Microsoft Visual Studio\2022\Community\VC\Tools\MSVC\14.34.31933\include\vector
;	COMDAT ?_Xlength@?$vector@USProvider@@V?$allocator@USProvider@@@std@@@std@@CAXXZ
_TEXT	SEGMENT
?_Xlength@?$vector@USProvider@@V?$allocator@USProvider@@@std@@@std@@CAXXZ PROC ; std::vector<SProvider,std::allocator<SProvider> >::_Xlength, COMDAT

; 2201 :         _Xlength_error("vector too long");

  00000	68 00 00 00 00	 push	 OFFSET ??_C@_0BA@FOIKENOD@vector?5too?5long@
  00005	e8 00 00 00 00	 call	 ?_Xlength_error@std@@YAXPBD@Z ; std::_Xlength_error
$LN3@Xlength:
  0000a	cc		 int	 3
?_Xlength@?$vector@USProvider@@V?$allocator@USProvider@@@std@@@std@@CAXXZ ENDP ; std::vector<SProvider,std::allocator<SProvider> >::_Xlength
_TEXT	ENDS
; Function compile flags: /Ogtp
;	COMDAT ??_GCSoundManager3D@@UAEPAXI@Z
_TEXT	SEGMENT
___flags$ = 8						; size = 4
??_GCSoundManager3D@@UAEPAXI@Z PROC			; CSoundManager3D::`scalar deleting destructor', COMDAT
; _this$ = ecx
  00000	55		 push	 ebp
  00001	8b ec		 mov	 ebp, esp
  00003	56		 push	 esi
  00004	8b f1		 mov	 esi, ecx
  00006	e8 00 00 00 00	 call	 ??1CSoundManager3D@@UAE@XZ ; CSoundManager3D::~CSoundManager3D
  0000b	f6 45 08 01	 test	 BYTE PTR ___flags$[ebp], 1
  0000f	74 0e		 je	 SHORT $LN4@scalar
  00011	68 ac 01 00 00	 push	 428			; 000001acH
  00016	56		 push	 esi
  00017	e8 00 00 00 00	 call	 ??3@YAXPAXI@Z		; operator delete
  0001c	83 c4 08	 add	 esp, 8
$LN4@scalar:
  0001f	8b c6		 mov	 eax, esi
  00021	5e		 pop	 esi
  00022	5d		 pop	 ebp
  00023	c2 04 00	 ret	 4
??_GCSoundManager3D@@UAEPAXI@Z ENDP			; CSoundManager3D::`scalar deleting destructor'
_TEXT	ENDS
; Function compile flags: /Ogtp
; File C:\Users\flourine\Desktop\Xantios\client-src\Code\MilesLib\SoundManager3D.cpp
;	COMDAT ?Unlock@CSoundManager3D@@QAEXH@Z
_TEXT	SEGMENT
_iIndex$ = 8						; size = 4
?Unlock@CSoundManager3D@@QAEXH@Z PROC			; CSoundManager3D::Unlock, COMDAT
; _this$ = ecx

; 220  : {

  00000	55		 push	 ebp
  00001	8b ec		 mov	 ebp, esp

; 201  : 	if (iIndex >= 0 && iIndex < INSTANCE_MAX_COUNT)

  00003	8b 45 08	 mov	 eax, DWORD PTR _iIndex$[ebp]
  00006	83 f8 1f	 cmp	 eax, 31			; 0000001fH
  00009	77 05		 ja	 SHORT $LN1@Unlock

; 221  : 	if (!IsValidInstanceIndex(iIndex))
; 222  : 	{
; 223  : 		return;
; 224  : 	}
; 225  : 
; 226  : 	m_bLockingFlag[iIndex] = false;

  0000b	c6 44 08 04 00	 mov	 BYTE PTR [eax+ecx+4], 0
$LN1@Unlock:

; 227  : }

  00010	5d		 pop	 ebp
  00011	c2 04 00	 ret	 4
?Unlock@CSoundManager3D@@QAEXH@Z ENDP			; CSoundManager3D::Unlock
_TEXT	ENDS
; Function compile flags: /Ogtp
; File C:\Users\flourine\Desktop\Xantios\client-src\Code\MilesLib\SoundManager3D.cpp
;	COMDAT ?Lock@CSoundManager3D@@QAEXH@Z
_TEXT	SEGMENT
_iIndex$ = 8						; size = 4
?Lock@CSoundManager3D@@QAEXH@Z PROC			; CSoundManager3D::Lock, COMDAT
; _this$ = ecx

; 210  : {

  00000	55		 push	 ebp
  00001	8b ec		 mov	 ebp, esp

; 201  : 	if (iIndex >= 0 && iIndex < INSTANCE_MAX_COUNT)

  00003	8b 45 08	 mov	 eax, DWORD PTR _iIndex$[ebp]
  00006	83 f8 1f	 cmp	 eax, 31			; 0000001fH
  00009	77 05		 ja	 SHORT $LN1@Lock

; 211  : 	if (!IsValidInstanceIndex(iIndex))
; 212  : 	{
; 213  : 		return;
; 214  : 	}
; 215  : 
; 216  : 	m_bLockingFlag[iIndex] = true;

  0000b	c6 44 08 04 01	 mov	 BYTE PTR [eax+ecx+4], 1
$LN1@Lock:

; 217  : }

  00010	5d		 pop	 ebp
  00011	c2 04 00	 ret	 4
?Lock@CSoundManager3D@@QAEXH@Z ENDP			; CSoundManager3D::Lock
_TEXT	ENDS
; Function compile flags: /Ogtp
; File C:\Users\flourine\Desktop\Xantios\client-src\Code\MilesLib\SoundManager3D.cpp
;	COMDAT ?SetListenerVelocity@CSoundManager3D@@QAEXMMMM@Z
_TEXT	SEGMENT
_fDistanceX$ = 8					; size = 4
_fDistanceY$ = 12					; size = 4
_fDistanceZ$ = 16					; size = 4
_fNagnitude$ = 20					; size = 4
?SetListenerVelocity@CSoundManager3D@@QAEXMMMM@Z PROC	; CSoundManager3D::SetListenerVelocity, COMDAT
; _this$ = ecx

; 130  : {

  00000	55		 push	 ebp
  00001	8b ec		 mov	 ebp, esp

; 131  : // 	assert(m_pListener != NULL);
; 132  : 	if (NULL == m_pListener)

  00003	8b 81 a4 01 00
	00		 mov	 eax, DWORD PTR [ecx+420]
  00009	85 c0		 test	 eax, eax
  0000b	74 3c		 je	 SHORT $LN1@SetListene

; 133  : 	{
; 134  : 		return;
; 135  : 	}
; 136  : 	AIL_set_3D_velocity(m_pListener, fDistanceX, fDistanceY, -fDistanceZ, fNagnitude);

  0000d	f3 0f 10 45 14	 movss	 xmm0, DWORD PTR _fNagnitude$[ebp]
  00012	83 ec 10	 sub	 esp, 16			; 00000010H
  00015	f3 0f 11 44 24
	0c		 movss	 DWORD PTR [esp+12], xmm0
  0001b	f3 0f 10 45 10	 movss	 xmm0, DWORD PTR _fDistanceZ$[ebp]
  00020	0f 57 05 00 00
	00 00		 xorps	 xmm0, DWORD PTR __xmm@80000000800000008000000080000000
  00027	f3 0f 11 44 24
	08		 movss	 DWORD PTR [esp+8], xmm0
  0002d	f3 0f 10 45 0c	 movss	 xmm0, DWORD PTR _fDistanceY$[ebp]
  00032	f3 0f 11 44 24
	04		 movss	 DWORD PTR [esp+4], xmm0
  00038	f3 0f 10 45 08	 movss	 xmm0, DWORD PTR _fDistanceX$[ebp]
  0003d	f3 0f 11 04 24	 movss	 DWORD PTR [esp], xmm0
  00042	50		 push	 eax
  00043	ff 15 00 00 00
	00		 call	 DWORD PTR __imp__AIL_set_3D_velocity@20
$LN1@SetListene:

; 137  : }

  00049	5d		 pop	 ebp
  0004a	c2 10 00	 ret	 16			; 00000010H
?SetListenerVelocity@CSoundManager3D@@QAEXMMMM@Z ENDP	; CSoundManager3D::SetListenerVelocity
_TEXT	ENDS
; Function compile flags: /Ogtp
; File C:\Users\flourine\Desktop\Xantios\client-src\Code\MilesLib\SoundManager3D.cpp
;	COMDAT ?SetListenerPosition@CSoundManager3D@@QAEXMMM@Z
_TEXT	SEGMENT
_fX$ = 8						; size = 4
_fY$ = 12						; size = 4
_fZ$ = 16						; size = 4
?SetListenerPosition@CSoundManager3D@@QAEXMMM@Z PROC	; CSoundManager3D::SetListenerPosition, COMDAT
; _this$ = ecx

; 120  : {

  00000	55		 push	 ebp
  00001	8b ec		 mov	 ebp, esp

; 121  : // 	assert(m_pListener != NULL);
; 122  : 	if (NULL == m_pListener)

  00003	8b 81 a4 01 00
	00		 mov	 eax, DWORD PTR [ecx+420]
  00009	85 c0		 test	 eax, eax
  0000b	74 31		 je	 SHORT $LN1@SetListene

; 123  : 	{
; 124  : 		return;
; 125  : 	}
; 126  : 	AIL_set_3D_position(m_pListener, fX, fY, -fZ);

  0000d	f3 0f 10 45 10	 movss	 xmm0, DWORD PTR _fZ$[ebp]
  00012	83 ec 0c	 sub	 esp, 12			; 0000000cH
  00015	0f 57 05 00 00
	00 00		 xorps	 xmm0, DWORD PTR __xmm@80000000800000008000000080000000
  0001c	f3 0f 11 44 24
	08		 movss	 DWORD PTR [esp+8], xmm0
  00022	f3 0f 10 45 0c	 movss	 xmm0, DWORD PTR _fY$[ebp]
  00027	f3 0f 11 44 24
	04		 movss	 DWORD PTR [esp+4], xmm0
  0002d	f3 0f 10 45 08	 movss	 xmm0, DWORD PTR _fX$[ebp]
  00032	f3 0f 11 04 24	 movss	 DWORD PTR [esp], xmm0
  00037	50		 push	 eax
  00038	ff 15 00 00 00
	00		 call	 DWORD PTR __imp__AIL_set_3D_position@16
$LN1@SetListene:

; 127  : }

  0003e	5d		 pop	 ebp
  0003f	c2 0c 00	 ret	 12			; 0000000cH
?SetListenerPosition@CSoundManager3D@@QAEXMMM@Z ENDP	; CSoundManager3D::SetListenerPosition
_TEXT	ENDS
; Function compile flags: /Ogtp
; File C:\Users\flourine\Desktop\Xantios\client-src\Code\MilesLib\SoundManager3D.cpp
;	COMDAT ?SetListenerDirection@CSoundManager3D@@QAEXMMMMMM@Z
_TEXT	SEGMENT
_fxDir$ = 8						; size = 4
_fyDir$ = 12						; size = 4
_fzDir$ = 16						; size = 4
_fxUp$ = 20						; size = 4
_fyUp$ = 24						; size = 4
_fzUp$ = 28						; size = 4
?SetListenerDirection@CSoundManager3D@@QAEXMMMMMM@Z PROC ; CSoundManager3D::SetListenerDirection, COMDAT
; _this$ = ecx

; 111  : {

  00000	55		 push	 ebp
  00001	8b ec		 mov	 ebp, esp

; 112  : 	if (NULL == m_pListener)

  00003	8b 81 a4 01 00
	00		 mov	 eax, DWORD PTR [ecx+420]
  00009	85 c0		 test	 eax, eax
  0000b	74 59		 je	 SHORT $LN1@SetListene

; 113  : 	{
; 114  : 		return;
; 115  : 	}
; 116  : 	AIL_set_3D_orientation(m_pListener, fxDir, fyDir, -fzDir, fxUp, fyUp, -fzUp);

  0000d	f3 0f 10 45 1c	 movss	 xmm0, DWORD PTR _fzUp$[ebp]
  00012	83 ec 18	 sub	 esp, 24			; 00000018H
  00015	0f 57 05 00 00
	00 00		 xorps	 xmm0, DWORD PTR __xmm@80000000800000008000000080000000
  0001c	f3 0f 11 44 24
	14		 movss	 DWORD PTR [esp+20], xmm0
  00022	f3 0f 10 45 18	 movss	 xmm0, DWORD PTR _fyUp$[ebp]
  00027	f3 0f 11 44 24
	10		 movss	 DWORD PTR [esp+16], xmm0
  0002d	f3 0f 10 45 14	 movss	 xmm0, DWORD PTR _fxUp$[ebp]
  00032	f3 0f 11 44 24
	0c		 movss	 DWORD PTR [esp+12], xmm0
  00038	f3 0f 10 45 10	 movss	 xmm0, DWORD PTR _fzDir$[ebp]
  0003d	0f 57 05 00 00
	00 00		 xorps	 xmm0, DWORD PTR __xmm@80000000800000008000000080000000
  00044	f3 0f 11 44 24
	08		 movss	 DWORD PTR [esp+8], xmm0
  0004a	f3 0f 10 45 0c	 movss	 xmm0, DWORD PTR _fyDir$[ebp]
  0004f	f3 0f 11 44 24
	04		 movss	 DWORD PTR [esp+4], xmm0
  00055	f3 0f 10 45 08	 movss	 xmm0, DWORD PTR _fxDir$[ebp]
  0005a	f3 0f 11 04 24	 movss	 DWORD PTR [esp], xmm0
  0005f	50		 push	 eax
  00060	ff 15 00 00 00
	00		 call	 DWORD PTR __imp__AIL_set_3D_orientation@28
$LN1@SetListene:

; 117  : }

  00066	5d		 pop	 ebp
  00067	c2 18 00	 ret	 24			; 00000018H
?SetListenerDirection@CSoundManager3D@@QAEXMMMMMM@Z ENDP ; CSoundManager3D::SetListenerDirection
_TEXT	ENDS
; Function compile flags: /Ogtp
; File C:\Users\flourine\Desktop\Xantios\client-src\Code\MilesLib\SoundManager3D.cpp
;	COMDAT ?GetInstance@CSoundManager3D@@QAEPAVISoundInstance@@K@Z
_TEXT	SEGMENT
_dwIndex$ = 8						; size = 4
?GetInstance@CSoundManager3D@@QAEPAVISoundInstance@@K@Z PROC ; CSoundManager3D::GetInstance, COMDAT
; _this$ = ecx

; 190  : {

  00000	55		 push	 ebp
  00001	8b ec		 mov	 ebp, esp
  00003	8b 45 08	 mov	 eax, DWORD PTR _dwIndex$[ebp]

; 191  : 	if (dwIndex >= INSTANCE_MAX_COUNT)

  00006	83 f8 20	 cmp	 eax, 32			; 00000020H
  00009	72 06		 jb	 SHORT $LN2@GetInstanc

; 192  : 	{
; 193  : 		assert(dwIndex < INSTANCE_MAX_COUNT);
; 194  : 		return NULL;

  0000b	33 c0		 xor	 eax, eax

; 197  : }

  0000d	5d		 pop	 ebp
  0000e	c2 04 00	 ret	 4
$LN2@GetInstanc:

; 195  : 	}
; 196  : 	return &m_Instances[dwIndex];

  00011	8d 04 40	 lea	 eax, DWORD PTR [eax+eax*2]
  00014	8d 40 09	 lea	 eax, DWORD PTR [eax+9]
  00017	8d 04 81	 lea	 eax, DWORD PTR [ecx+eax*4]

; 197  : }

  0001a	5d		 pop	 ebp
  0001b	c2 04 00	 ret	 4
?GetInstance@CSoundManager3D@@QAEPAVISoundInstance@@K@Z ENDP ; CSoundManager3D::GetInstance
_TEXT	ENDS
; Function compile flags: /Ogtp
; File C:\Users\flourine\Desktop\Xantios\client-src\Code\MilesLib\SoundManager3D.cpp
; File C:\Program Files\Microsoft Visual Studio\2022\Community\VC\Tools\MSVC\14.34.31933\include\xtree
; File C:\Program Files\Microsoft Visual Studio\2022\Community\VC\Tools\MSVC\14.34.31933\include\xstddef
; File C:\Program Files\Microsoft Visual Studio\2022\Community\VC\Tools\MSVC\14.34.31933\include\xtree
; File C:\Program Files\Microsoft Visual Studio\2022\Community\VC\Tools\MSVC\14.34.31933\include\xstddef
; File C:\Program Files\Microsoft Visual Studio\2022\Community\VC\Tools\MSVC\14.34.31933\include\xtree
; File C:\Users\flourine\Desktop\Xantios\client-src\Code\MilesLib\SoundManager3D.cpp
;	COMDAT ?SetInstance@CSoundManager3D@@QAEHPBD@Z
_TEXT	SEGMENT
_this$1$ = -12						; size = 4
_end$1$ = -8						; size = 4
_pkSoundData$1$ = -4					; size = 4
_c_pszFileName$ = 8					; size = 4
?SetInstance@CSoundManager3D@@QAEHPBD@Z PROC		; CSoundManager3D::SetInstance, COMDAT
; _this$ = ecx

; 140  : {

  00000	55		 push	 ebp
  00001	8b ec		 mov	 ebp, esp
  00003	83 ec 0c	 sub	 esp, 12			; 0000000cH
  00006	53		 push	 ebx
  00007	56		 push	 esi
  00008	57		 push	 edi

; 141  : 	DWORD dwFileCRC = GetFileCRC(c_pszFileName);

  00009	8b 7d 08	 mov	 edi, DWORD PTR _c_pszFileName$[ebp]
  0000c	8b d9		 mov	 ebx, ecx
  0000e	57		 push	 edi
  0000f	89 5d f4	 mov	 DWORD PTR _this$1$[ebp], ebx
  00012	e8 00 00 00 00	 call	 ?GetFileCRC@CSoundBase@@QAEKPBD@Z ; CSoundBase::GetFileCRC
; File C:\Program Files\Microsoft Visual Studio\2022\Community\VC\Tools\MSVC\14.34.31933\include\xtree

; 1611 :         _Tree_find_result<_Nodeptr> _Result{{_Scary->_Myhead->_Parent, _Tree_child::_Right}, _Scary->_Myhead};

  00017	8b 35 00 00 00
	00		 mov	 esi, DWORD PTR ?ms_dataMap@CSoundBase@@1V?$map@KPAVCSoundData@@U?$less@K@std@@V?$allocator@U?$pair@$$CBKPAVCSoundData@@@std@@@3@@std@@A
  0001d	8b ce		 mov	 ecx, esi
  0001f	8b 56 04	 mov	 edx, DWORD PTR [esi+4]

; 1612 :         _Nodeptr _Trynode = _Result._Location._Parent;
; 1613 :         while (!_Trynode->_Isnil) {

  00022	80 7a 0d 00	 cmp	 BYTE PTR [edx+13], 0
  00026	75 14		 jne	 SHORT $LN17@SetInstanc
$LL16@SetInstanc:
; File C:\Program Files\Microsoft Visual Studio\2022\Community\VC\Tools\MSVC\14.34.31933\include\xstddef

; 143  :         return _Left < _Right;

  00028	39 42 10	 cmp	 DWORD PTR [edx+16], eax
; File C:\Program Files\Microsoft Visual Studio\2022\Community\VC\Tools\MSVC\14.34.31933\include\xtree

; 1615 :             if (_DEBUG_LT_PRED(_Getcomp(), _Traits::_Kfn(_Trynode->_Myval), _Keyval)) {

  0002b	73 05		 jae	 SHORT $LN18@SetInstanc

; 1616 :                 _Result._Location._Child = _Tree_child::_Right;
; 1617 :                 _Trynode                 = _Trynode->_Right;

  0002d	8b 52 08	 mov	 edx, DWORD PTR [edx+8]

; 1618 :             } else {

  00030	eb 04		 jmp	 SHORT $LN19@SetInstanc
$LN18@SetInstanc:

; 1619 :                 _Result._Location._Child = _Tree_child::_Left;
; 1620 :                 _Result._Bound           = _Trynode;

  00032	8b ca		 mov	 ecx, edx

; 1621 :                 _Trynode                 = _Trynode->_Left;

  00034	8b 12		 mov	 edx, DWORD PTR [edx]
$LN19@SetInstanc:

; 1612 :         _Nodeptr _Trynode = _Result._Location._Parent;
; 1613 :         while (!_Trynode->_Isnil) {

  00036	80 7a 0d 00	 cmp	 BYTE PTR [edx+13], 0
  0003a	74 ec		 je	 SHORT $LL16@SetInstanc
$LN17@SetInstanc:

; 1605 :         return !_Bound->_Isnil && !_DEBUG_LT_PRED(_Getcomp(), _Keyval, _Traits::_Kfn(_Bound->_Myval));

  0003c	80 79 0d 00	 cmp	 BYTE PTR [ecx+13], 0
  00040	75 05		 jne	 SHORT $LN13@SetInstanc
; File C:\Program Files\Microsoft Visual Studio\2022\Community\VC\Tools\MSVC\14.34.31933\include\xstddef

; 143  :         return _Left < _Right;

  00042	3b 41 10	 cmp	 eax, DWORD PTR [ecx+16]
; File C:\Program Files\Microsoft Visual Studio\2022\Community\VC\Tools\MSVC\14.34.31933\include\xtree

; 1605 :         return !_Bound->_Isnil && !_DEBUG_LT_PRED(_Getcomp(), _Keyval, _Traits::_Kfn(_Bound->_Myval));

  00045	73 02		 jae	 SHORT $LN12@SetInstanc
$LN13@SetInstanc:

; 1372 :         return _Get_scary()->_Myhead;

  00047	8b ce		 mov	 ecx, esi
$LN12@SetInstanc:

; 38   :     _Tree_unchecked_const_iterator(_Nodeptr _Pnode, const _Mytree* _Plist) noexcept : _Ptr(_Pnode) {

  00049	3b ce		 cmp	 ecx, esi
; File C:\Users\flourine\Desktop\Xantios\client-src\Code\MilesLib\SoundManager3D.cpp

; 146  : 	if (itor == ms_dataMap.end())

  0004b	75 0b		 jne	 SHORT $LN4@SetInstanc

; 147  : 	{
; 148  : 		pkSoundData = AddFile(dwFileCRC, c_pszFileName);    // CSoundBase::AddFile

  0004d	57		 push	 edi
  0004e	50		 push	 eax
  0004f	8b cb		 mov	 ecx, ebx
  00051	e8 00 00 00 00	 call	 ?AddFile@CSoundBase@@QAEPAVCSoundData@@KPBD@Z ; CSoundBase::AddFile

; 149  : 	}

  00056	eb 03		 jmp	 SHORT $LN60@SetInstanc
$LN4@SetInstanc:

; 150  : 	else
; 151  : 	{
; 152  : 		pkSoundData = itor->second;

  00058	8b 41 14	 mov	 eax, DWORD PTR [ecx+20]
$LN60@SetInstanc:

; 153  : 	}
; 154  : 
; 155  : 	assert(pkSoundData != NULL);
; 156  : 
; 157  : 	static DWORD k = 0;
; 158  : 
; 159  : 	DWORD start = k++;

  0005b	8b 35 00 00 00
	00		 mov	 esi, DWORD PTR ?k@?1??SetInstance@CSoundManager3D@@QAEHPBD@Z@4KA
  00061	89 45 fc	 mov	 DWORD PTR _pkSoundData$1$[ebp], eax
  00064	8d 46 01	 lea	 eax, DWORD PTR [esi+1]
  00067	a3 00 00 00 00	 mov	 DWORD PTR ?k@?1??SetInstance@CSoundManager3D@@QAEHPBD@Z@4KA, eax

; 160  : 	DWORD end = start + INSTANCE_MAX_COUNT;

  0006c	8d 46 20	 lea	 eax, DWORD PTR [esi+32]
  0006f	89 45 f8	 mov	 DWORD PTR _end$1$[ebp], eax

; 161  : 
; 162  : 	while (start < end)

  00072	3b f0		 cmp	 esi, eax
  00074	73 2c		 jae	 SHORT $LN3@SetInstanc
$LL2@SetInstanc:

; 163  : 	{
; 164  : 		CSoundInstance3D * pkInst = &m_Instances[start % INSTANCE_MAX_COUNT];

  00076	8b fe		 mov	 edi, esi
  00078	83 e7 1f	 and	 edi, 31			; 0000001fH
  0007b	8d 47 03	 lea	 eax, DWORD PTR [edi+3]
  0007e	8d 04 40	 lea	 eax, DWORD PTR [eax+eax*2]
  00081	8d 1c 83	 lea	 ebx, DWORD PTR [ebx+eax*4]

; 165  : 
; 166  : 		if (pkInst->IsDone())

  00084	8b 03		 mov	 eax, DWORD PTR [ebx]
  00086	8b cb		 mov	 ecx, ebx
  00088	8b 40 28	 mov	 eax, DWORD PTR [eax+40]
  0008b	ff d0		 call	 eax
  0008d	84 c0		 test	 al, al
  0008f	75 1d		 jne	 SHORT $LN53@SetInstanc

; 175  : 		}
; 176  : 
; 177  : 		++start;

  00091	46		 inc	 esi

; 178  : 
; 179  : 		if (start > 50000)

  00092	81 fe 50 c3 00
	00		 cmp	 esi, 50000		; 0000c350H
  00098	77 08		 ja	 SHORT $LN3@SetInstanc

; 161  : 
; 162  : 	while (start < end)

  0009a	8b 5d f4	 mov	 ebx, DWORD PTR _this$1$[ebp]
  0009d	3b 75 f8	 cmp	 esi, DWORD PTR _end$1$[ebp]
  000a0	72 d4		 jb	 SHORT $LL2@SetInstanc
$LN3@SetInstanc:
  000a2	5f		 pop	 edi

; 180  : 		{
; 181  : 			start = 0;
; 182  : 			return -1;
; 183  : 		}
; 184  : 	}
; 185  : 
; 186  : 	return -1;
; 187  : }

  000a3	5e		 pop	 esi
  000a4	83 c8 ff	 or	 eax, -1
  000a7	5b		 pop	 ebx
  000a8	8b e5		 mov	 esp, ebp
  000aa	5d		 pop	 ebp
  000ab	c2 04 00	 ret	 4
$LN53@SetInstanc:

; 167  : 		{
; 168  : 			if (!pkInst->SetSound(pkSoundData))

  000ae	8b 03		 mov	 eax, DWORD PTR [ebx]
  000b0	8b cb		 mov	 ecx, ebx
  000b2	ff 75 fc	 push	 DWORD PTR _pkSoundData$1$[ebp]
  000b5	8b 40 0c	 mov	 eax, DWORD PTR [eax+12]
  000b8	ff d0		 call	 eax
  000ba	84 c0		 test	 al, al
  000bc	75 1c		 jne	 SHORT $LN7@SetInstanc

; 169  : 			{
; 170  : 				TraceError("CSoundManager3D::GetInstance (filename: %s)", c_pszFileName);

  000be	ff 75 08	 push	 DWORD PTR _c_pszFileName$[ebp]
  000c1	68 00 00 00 00	 push	 OFFSET ??_C@_0CM@LDIAPBKD@CSoundManager3D?3?3GetInstance?5?$CIf@
  000c6	e8 00 00 00 00	 call	 ?TraceError@@YAXPBDZZ	; TraceError
  000cb	83 c4 08	 add	 esp, 8

; 180  : 		{
; 181  : 			start = 0;
; 182  : 			return -1;
; 183  : 		}
; 184  : 	}
; 185  : 
; 186  : 	return -1;
; 187  : }

  000ce	83 c8 ff	 or	 eax, -1
  000d1	5f		 pop	 edi
  000d2	5e		 pop	 esi
  000d3	5b		 pop	 ebx
  000d4	8b e5		 mov	 esp, ebp
  000d6	5d		 pop	 ebp
  000d7	c2 04 00	 ret	 4
$LN7@SetInstanc:

; 171  : 				return -1;
; 172  : 			}
; 173  : 
; 174  : 			return (start % INSTANCE_MAX_COUNT);

  000da	8b c7		 mov	 eax, edi
  000dc	5f		 pop	 edi

; 180  : 		{
; 181  : 			start = 0;
; 182  : 			return -1;
; 183  : 		}
; 184  : 	}
; 185  : 
; 186  : 	return -1;
; 187  : }

  000dd	5e		 pop	 esi
  000de	5b		 pop	 ebx
  000df	8b e5		 mov	 esp, ebp
  000e1	5d		 pop	 ebp
  000e2	c2 04 00	 ret	 4
?SetInstance@CSoundManager3D@@QAEHPBD@Z ENDP		; CSoundManager3D::SetInstance
_TEXT	ENDS
; Function compile flags: /Ogtp
; File C:\Users\flourine\Desktop\Xantios\client-src\Code\MilesLib\SoundManager3D.cpp
;	COMDAT ?Destroy@CSoundManager3D@@QAEXXZ
_TEXT	SEGMENT
?Destroy@CSoundManager3D@@QAEXXZ PROC			; CSoundManager3D::Destroy, COMDAT
; _this$ = ecx

; 83   : {

  00000	57		 push	 edi
  00001	8b f9		 mov	 edi, ecx

; 84   : 	if (!m_bInit)

  00003	80 bf a8 01 00
	00 00		 cmp	 BYTE PTR [edi+424], 0
  0000a	74 60		 je	 SHORT $LN1@Destroy

; 85   : 	{
; 86   : 		return;
; 87   : 	}
; 88   : 
; 89   : 	for (int i = 0; i < INSTANCE_MAX_COUNT; ++i)

  0000c	53		 push	 ebx
  0000d	56		 push	 esi
  0000e	8d 77 24	 lea	 esi, DWORD PTR [edi+36]
  00011	bb 20 00 00 00	 mov	 ebx, 32			; 00000020H
$LL4@Destroy:

; 90   : 	{
; 91   : 		m_Instances[i].Destroy();

  00016	8b 06		 mov	 eax, DWORD PTR [esi]
  00018	8b ce		 mov	 ecx, esi
  0001a	ff 50 08	 call	 DWORD PTR [eax+8]
  0001d	83 c6 0c	 add	 esi, 12			; 0000000cH
  00020	83 eb 01	 sub	 ebx, 1
  00023	75 f1		 jne	 SHORT $LL4@Destroy

; 92   : 	}
; 93   : 
; 94   : 	if (m_pListener)

  00025	8b 87 a4 01 00
	00		 mov	 eax, DWORD PTR [edi+420]
  0002b	5e		 pop	 esi
  0002c	5b		 pop	 ebx
  0002d	85 c0		 test	 eax, eax
  0002f	74 11		 je	 SHORT $LN6@Destroy

; 95   : 	{
; 96   : 		AIL_close_3D_listener(m_pListener);

  00031	50		 push	 eax
  00032	ff 15 00 00 00
	00		 call	 DWORD PTR __imp__AIL_close_3D_listener@4

; 97   : 		m_pListener = NULL;

  00038	c7 87 a4 01 00
	00 00 00 00 00	 mov	 DWORD PTR [edi+420], 0
$LN6@Destroy:

; 98   : 	}
; 99   : 
; 100  : 	if (ms_pProviderDefault)

  00042	a1 00 00 00 00	 mov	 eax, DWORD PTR ?ms_pProviderDefault@CSoundBase@@1PAUSProvider@@A ; CSoundBase::ms_pProviderDefault
  00047	85 c0		 test	 eax, eax
  00049	74 13		 je	 SHORT $LN7@Destroy

; 101  : 	{
; 102  : 		AIL_close_3D_provider(ms_pProviderDefault->hProvider);

  0004b	ff 70 04	 push	 DWORD PTR [eax+4]
  0004e	ff 15 00 00 00
	00		 call	 DWORD PTR __imp__AIL_close_3D_provider@4

; 103  : 		ms_pProviderDefault = NULL;

  00054	c7 05 00 00 00
	00 00 00 00 00	 mov	 DWORD PTR ?ms_pProviderDefault@CSoundBase@@1PAUSProvider@@A, 0 ; CSoundBase::ms_pProviderDefault
$LN7@Destroy:

; 104  : 	}
; 105  : 
; 106  : 	CSoundBase::Destroy();

  0005e	8b cf		 mov	 ecx, edi
  00060	e8 00 00 00 00	 call	 ?Destroy@CSoundBase@@QAEXXZ ; CSoundBase::Destroy

; 107  : 	m_bInit = false;

  00065	c6 87 a8 01 00
	00 00		 mov	 BYTE PTR [edi+424], 0
$LN1@Destroy:

; 108  : }

  0006c	5f		 pop	 edi
  0006d	c3		 ret	 0
?Destroy@CSoundManager3D@@QAEXXZ ENDP			; CSoundManager3D::Destroy
_TEXT	ENDS
; Function compile flags: /Ogtp
; File C:\Users\flourine\Desktop\Xantios\client-src\Code\MilesLib\SoundManager3D.cpp
; File C:\Program Files\Microsoft Visual Studio\2022\Community\VC\Tools\MSVC\14.34.31933\include\vector
; File C:\Program Files\Microsoft Visual Studio\2022\Community\VC\Tools\MSVC\14.34.31933\include\xmemory
; File C:\Program Files\Microsoft Visual Studio\2022\Community\VC\Tools\MSVC\14.34.31933\include\vector
; File C:\Users\flourine\Desktop\Xantios\client-src\Code\MilesLib\SoundManager3D.cpp
; File C:\Program Files\Microsoft Visual Studio\2022\Community\VC\Tools\MSVC\14.34.31933\include\vector
; File C:\Users\flourine\Desktop\Xantios\client-src\Code\MilesLib\SoundManager3D.cpp
; File C:\Program Files\Microsoft Visual Studio\2022\Community\VC\Tools\MSVC\14.34.31933\include\vector
; File C:\Users\flourine\Desktop\Xantios\client-src\Code\MilesLib\SoundManager3D.cpp
; File C:\Program Files\Microsoft Visual Studio\2022\Community\VC\Tools\MSVC\14.34.31933\include\vector
; File C:\Users\flourine\Desktop\Xantios\client-src\Code\MilesLib\SoundManager3D.cpp
;	COMDAT ?Initialize@CSoundManager3D@@QAE_NXZ
_TEXT	SEGMENT
_enum3D$ = -8						; size = 4
$T2 = -1						; size = 1
?Initialize@CSoundManager3D@@QAE_NXZ PROC		; CSoundManager3D::Initialize, COMDAT
; _this$ = ecx

; 14   : {

  00000	55		 push	 ebp
  00001	8b ec		 mov	 ebp, esp
  00003	83 ec 08	 sub	 esp, 8
  00006	53		 push	 ebx
  00007	8b d9		 mov	 ebx, ecx

; 15   : 	CSoundBase::Initialize();

  00009	e8 00 00 00 00	 call	 ?Initialize@CSoundBase@@QAEXXZ ; CSoundBase::Initialize

; 16   : 
; 17   : 	if (ms_pProviderDefault)

  0000e	83 3d 00 00 00
	00 00		 cmp	 DWORD PTR ?ms_pProviderDefault@CSoundBase@@1PAUSProvider@@A, 0 ; CSoundBase::ms_pProviderDefault
  00015	74 07		 je	 SHORT $LN7@Initialize

; 18   : 	{
; 19   : 		return true;

  00017	b0 01		 mov	 al, 1
  00019	5b		 pop	 ebx

; 79   : }

  0001a	8b e5		 mov	 esp, ebp
  0001c	5d		 pop	 ebp
  0001d	c3		 ret	 0
$LN7@Initialize:
; File C:\Program Files\Microsoft Visual Studio\2022\Community\VC\Tools\MSVC\14.34.31933\include\vector

; 1620 :         const auto _Oldsize = static_cast<size_type>(_Mylast - _Myfirst);

  0001e	8b 15 00 00 00
	00		 mov	 edx, DWORD PTR ?ms_ProviderVector@CSoundBase@@1V?$vector@USProvider@@V?$allocator@USProvider@@@std@@@std@@A
  00024	56		 push	 esi
  00025	8b 35 04 00 00
	00		 mov	 esi, DWORD PTR ?ms_ProviderVector@CSoundBase@@1V?$vector@USProvider@@V?$allocator@USProvider@@@std@@@std@@A+4
  0002b	8b ce		 mov	 ecx, esi
  0002d	2b ca		 sub	 ecx, edx
  0002f	c1 f9 03	 sar	 ecx, 3
  00032	57		 push	 edi

; 1621 :         if (_Newsize < _Oldsize) { // trim

  00033	83 f9 20	 cmp	 ecx, 32			; 00000020H
  00036	76 0d		 jbe	 SHORT $LN21@Initialize

; 1622 :             const pointer _Newlast = _Myfirst + _Newsize;

  00038	8d 82 00 01 00
	00		 lea	 eax, DWORD PTR [edx+256]

; 1623 :             _Orphan_range(_Newlast, _Mylast);
; 1624 :             _Destroy_range(_Newlast, _Mylast, _Al);
; 1625 :             _ASAN_VECTOR_MODIFY(static_cast<difference_type>(_Newsize - _Oldsize));
; 1626 :             _Mylast = _Newlast;

  0003e	a3 04 00 00 00	 mov	 DWORD PTR ?ms_ProviderVector@CSoundBase@@1V?$vector@USProvider@@V?$allocator@USProvider@@@std@@@std@@A+4, eax

; 1627 :             return;

  00043	eb 48		 jmp	 SHORT $LN22@Initialize
$LN21@Initialize:

; 1628 :         }
; 1629 : 
; 1630 :         if (_Newsize > _Oldsize) { // append

  00045	73 46		 jae	 SHORT $LN22@Initialize

; 1631 :             const auto _Oldcapacity = static_cast<size_type>(_My_data._Myend - _Myfirst);

  00047	a1 08 00 00 00	 mov	 eax, DWORD PTR ?ms_ProviderVector@CSoundBase@@1V?$vector@USProvider@@V?$allocator@USProvider@@@std@@@std@@A+8
  0004c	2b c2		 sub	 eax, edx
  0004e	c1 f8 03	 sar	 eax, 3

; 1632 :             if (_Newsize > _Oldcapacity) { // reallocate

  00051	83 f8 20	 cmp	 eax, 32			; 00000020H
  00054	73 12		 jae	 SHORT $LN23@Initialize

; 1633 :                 _Resize_reallocate(_Newsize, _Val);

  00056	8d 45 ff	 lea	 eax, DWORD PTR $T2[ebp]
  00059	b9 00 00 00 00	 mov	 ecx, OFFSET ?ms_ProviderVector@CSoundBase@@1V?$vector@USProvider@@V?$allocator@USProvider@@@std@@@std@@A ; CSoundBase::ms_ProviderVector
  0005e	50		 push	 eax
  0005f	6a 20		 push	 32			; 00000020H
  00061	e8 00 00 00 00	 call	 ??$_Resize_reallocate@U_Value_init_tag@std@@@?$vector@USProvider@@V?$allocator@USProvider@@@std@@@std@@AAEXIABU_Value_init_tag@1@@Z ; std::vector<SProvider,std::allocator<SProvider> >::_Resize_reallocate<std::_Value_init_tag>

; 1634 :                 return;

  00066	eb 25		 jmp	 SHORT $LN22@Initialize
$LN23@Initialize:

; 1643 :                 _Mylast = _Uninitialized_value_construct_n(_Oldlast, _Newsize - _Oldsize, _Al);

  00068	bf 20 00 00 00	 mov	 edi, 32			; 00000020H
  0006d	2b f9		 sub	 edi, ecx
; File C:\Program Files\Microsoft Visual Studio\2022\Community\VC\Tools\MSVC\14.34.31933\include\xmemory

; 1902 :     for (; 0 < _Count; --_Count) {

  0006f	74 16		 je	 SHORT $LN28@Initialize
; File C:\Program Files\Microsoft Visual Studio\2022\Community\VC\Tools\MSVC\14.34.31933\include\vector

; 1643 :                 _Mylast = _Uninitialized_value_construct_n(_Oldlast, _Newsize - _Oldsize, _Al);

  00071	8d 04 fd 00 00
	00 00		 lea	 eax, DWORD PTR [edi*8]
  00078	50		 push	 eax
  00079	6a 00		 push	 0
  0007b	56		 push	 esi
  0007c	e8 00 00 00 00	 call	 _memset
  00081	83 c4 0c	 add	 esp, 12			; 0000000cH
  00084	8d 34 fe	 lea	 esi, DWORD PTR [esi+edi*8]
$LN28@Initialize:
  00087	89 35 04 00 00
	00		 mov	 DWORD PTR ?ms_ProviderVector@CSoundBase@@1V?$vector@USProvider@@V?$allocator@USProvider@@@std@@@std@@A+4, esi
$LN22@Initialize:

; 1952 :         return _My_data._Myfirst[_Pos];

  0008d	a1 00 00 00 00	 mov	 eax, DWORD PTR ?ms_ProviderVector@CSoundBase@@1V?$vector@USProvider@@V?$allocator@USProvider@@@std@@@std@@A
; File C:\Users\flourine\Desktop\Xantios\client-src\Code\MilesLib\SoundManager3D.cpp

; 29   : 									  &ms_ProviderVector[i].name) && (i < MAX_PROVIDERS))

  00092	50		 push	 eax
  00093	83 c0 04	 add	 eax, 4
  00096	c7 45 f8 00 00
	00 00		 mov	 DWORD PTR _enum3D$[ebp], 0
  0009d	50		 push	 eax
  0009e	8d 45 f8	 lea	 eax, DWORD PTR _enum3D$[ebp]
  000a1	50		 push	 eax
  000a2	ff 15 00 00 00
	00		 call	 DWORD PTR __imp__AIL_enumerate_3D_providers@12
  000a8	85 c0		 test	 eax, eax
  000aa	74 6c		 je	 SHORT $LN56@Initialize

; 20   : 	}
; 21   : 
; 22   : 	ms_ProviderVector.resize(MAX_PROVIDERS);
; 23   : 
; 24   : 	HPROENUM enum3D = HPROENUM_FIRST;

  000ac	33 f6		 xor	 esi, esi
  000ae	66 90		 npad	 2
$LL2@Initialize:

; 29   : 									  &ms_ProviderVector[i].name) && (i < MAX_PROVIDERS))

  000b0	81 fe 00 01 00
	00		 cmp	 esi, 256		; 00000100H
  000b6	7d 60		 jge	 SHORT $LN56@Initialize
; File C:\Program Files\Microsoft Visual Studio\2022\Community\VC\Tools\MSVC\14.34.31933\include\vector

; 1952 :         return _My_data._Myfirst[_Pos];

  000b8	8b 3d 00 00 00
	00		 mov	 edi, DWORD PTR ?ms_ProviderVector@CSoundBase@@1V?$vector@USProvider@@V?$allocator@USProvider@@@std@@@std@@A
; File C:\Users\flourine\Desktop\Xantios\client-src\Code\MilesLib\SoundManager3D.cpp

; 40   : 		if (strcmp(provider->name, "Miles Fast 2D Positional Audio") == 0)

  000be	b9 00 00 00 00	 mov	 ecx, OFFSET ??_C@_0BP@KDDGJLNF@Miles?5Fast?52D?5Positional?5Audio@
; File C:\Program Files\Microsoft Visual Studio\2022\Community\VC\Tools\MSVC\14.34.31933\include\vector

; 1952 :         return _My_data._Myfirst[_Pos];

  000c3	8d 04 3e	 lea	 eax, DWORD PTR [esi+edi]
; File C:\Users\flourine\Desktop\Xantios\client-src\Code\MilesLib\SoundManager3D.cpp

; 40   : 		if (strcmp(provider->name, "Miles Fast 2D Positional Audio") == 0)

  000c6	8b 00		 mov	 eax, DWORD PTR [eax]
$LL52@Initialize:
  000c8	8a 10		 mov	 dl, BYTE PTR [eax]
  000ca	3a 11		 cmp	 dl, BYTE PTR [ecx]
  000cc	75 1a		 jne	 SHORT $LN53@Initialize
  000ce	84 d2		 test	 dl, dl
  000d0	74 12		 je	 SHORT $LN54@Initialize
  000d2	8a 50 01	 mov	 dl, BYTE PTR [eax+1]
  000d5	3a 51 01	 cmp	 dl, BYTE PTR [ecx+1]
  000d8	75 0e		 jne	 SHORT $LN53@Initialize
  000da	83 c0 02	 add	 eax, 2
  000dd	83 c1 02	 add	 ecx, 2
  000e0	84 d2		 test	 dl, dl
  000e2	75 e4		 jne	 SHORT $LL52@Initialize
$LN54@Initialize:
  000e4	33 c9		 xor	 ecx, ecx
  000e6	eb 05		 jmp	 SHORT $LN55@Initialize
$LN53@Initialize:
  000e8	1b c9		 sbb	 ecx, ecx
  000ea	83 c9 01	 or	 ecx, 1
$LN55@Initialize:
  000ed	a1 00 00 00 00	 mov	 eax, DWORD PTR ?ms_pProviderDefault@CSoundBase@@1PAUSProvider@@A ; CSoundBase::ms_pProviderDefault
  000f2	85 c9		 test	 ecx, ecx
  000f4	8d 0c 3e	 lea	 ecx, DWORD PTR [esi+edi]
  000f7	0f 44 c1	 cmove	 eax, ecx

; 41   : 		{
; 42   : 			ms_pProviderDefault = provider;
; 43   : 		}
; 44   : 
; 45   : 		++i;

  000fa	83 c6 08	 add	 esi, 8
  000fd	a3 00 00 00 00	 mov	 DWORD PTR ?ms_pProviderDefault@CSoundBase@@1PAUSProvider@@A, eax ; CSoundBase::ms_pProviderDefault
; File C:\Program Files\Microsoft Visual Studio\2022\Community\VC\Tools\MSVC\14.34.31933\include\vector

; 1952 :         return _My_data._Myfirst[_Pos];

  00102	8d 04 3e	 lea	 eax, DWORD PTR [esi+edi]
; File C:\Users\flourine\Desktop\Xantios\client-src\Code\MilesLib\SoundManager3D.cpp

; 29   : 									  &ms_ProviderVector[i].name) && (i < MAX_PROVIDERS))

  00105	50		 push	 eax
  00106	83 c0 04	 add	 eax, 4
  00109	50		 push	 eax
  0010a	8d 45 f8	 lea	 eax, DWORD PTR _enum3D$[ebp]
  0010d	50		 push	 eax
  0010e	ff 15 00 00 00
	00		 call	 DWORD PTR __imp__AIL_enumerate_3D_providers@12
  00114	85 c0		 test	 eax, eax
  00116	75 98		 jne	 SHORT $LL2@Initialize
$LN56@Initialize:

; 46   : 	}
; 47   : 
; 48   : 	if (!ms_pProviderDefault)

  00118	a1 00 00 00 00	 mov	 eax, DWORD PTR ?ms_pProviderDefault@CSoundBase@@1PAUSProvider@@A ; CSoundBase::ms_pProviderDefault
  0011d	85 c0		 test	 eax, eax
  0011f	74 6c		 je	 SHORT $LN50@Initialize

; 49   : 	{
; 50   : 		CSoundBase::Destroy();
; 51   : 		return false;
; 52   : 	}
; 53   : 
; 54   : 	assert(ms_pProviderDefault != NULL);
; 55   : 
; 56   : 	if (M3D_NOERR != AIL_open_3D_provider(ms_pProviderDefault->hProvider))

  00121	ff 70 04	 push	 DWORD PTR [eax+4]
  00124	ff 15 00 00 00
	00		 call	 DWORD PTR __imp__AIL_open_3D_provider@4
  0012a	85 c0		 test	 eax, eax
  0012c	75 5f		 jne	 SHORT $LN50@Initialize

; 65   : 	}
; 66   : 
; 67   : 	m_pListener = AIL_open_3D_listener(ms_pProviderDefault->hProvider);

  0012e	a1 00 00 00 00	 mov	 eax, DWORD PTR ?ms_pProviderDefault@CSoundBase@@1PAUSProvider@@A ; CSoundBase::ms_pProviderDefault
  00133	ff 70 04	 push	 DWORD PTR [eax+4]
  00136	ff 15 00 00 00
	00		 call	 DWORD PTR __imp__AIL_open_3D_listener@4

; 68   : 
; 69   : 	SetListenerPosition(0.0f, 0.0f, 0.0f);

  0013c	83 ec 0c	 sub	 esp, 12			; 0000000cH
  0013f	89 83 a4 01 00
	00		 mov	 DWORD PTR [ebx+420], eax
  00145	8b cb		 mov	 ecx, ebx
  00147	c7 44 24 08 00
	00 00 00	 mov	 DWORD PTR [esp+8], 0
  0014f	c7 44 24 04 00
	00 00 00	 mov	 DWORD PTR [esp+4], 0
  00157	c7 04 24 00 00
	00 00		 mov	 DWORD PTR [esp], 0
  0015e	e8 00 00 00 00	 call	 ?SetListenerPosition@CSoundManager3D@@QAEXMMM@Z ; CSoundManager3D::SetListenerPosition
  00163	33 f6		 xor	 esi, esi
  00165	8d 7b 24	 lea	 edi, DWORD PTR [ebx+36]
$LL6@Initialize:

; 70   : 
; 71   : 	for (i = 0; i < INSTANCE_MAX_COUNT; ++i)
; 72   : 	{
; 73   : 		m_Instances[i].Initialize();

  00168	8b 07		 mov	 eax, DWORD PTR [edi]
  0016a	8b cf		 mov	 ecx, edi
  0016c	ff 50 04	 call	 DWORD PTR [eax+4]

; 74   : 		m_bLockingFlag[i] = false;

  0016f	c6 44 33 04 00	 mov	 BYTE PTR [ebx+esi+4], 0
  00174	83 c7 0c	 add	 edi, 12			; 0000000cH
  00177	46		 inc	 esi
  00178	83 fe 20	 cmp	 esi, 32			; 00000020H
  0017b	7c eb		 jl	 SHORT $LL6@Initialize

; 75   : 	}
; 76   : 
; 77   : 	m_bInit = true;

  0017d	5f		 pop	 edi
  0017e	5e		 pop	 esi
  0017f	c6 83 a8 01 00
	00 01		 mov	 BYTE PTR [ebx+424], 1

; 78   : 	return true;

  00186	b0 01		 mov	 al, 1
  00188	5b		 pop	 ebx

; 79   : }

  00189	8b e5		 mov	 esp, ebp
  0018b	5d		 pop	 ebp
  0018c	c3		 ret	 0
$LN50@Initialize:

; 57   : 	{
; 58   : //		assert(!"AIL_open_3D_provider error");
; 59   : //		char buf[64];
; 60   : //		sprintf(buf, "Error AIL_open_3D_provider: %s\n", AIL_last_error());
; 61   : //		OutputDebugString(buf);
; 62   : 
; 63   : 		CSoundBase::Destroy();

  0018d	8b cb		 mov	 ecx, ebx
  0018f	e8 00 00 00 00	 call	 ?Destroy@CSoundBase@@QAEXXZ ; CSoundBase::Destroy
  00194	5f		 pop	 edi
  00195	5e		 pop	 esi

; 64   : 		return false;

  00196	32 c0		 xor	 al, al
  00198	5b		 pop	 ebx

; 79   : }

  00199	8b e5		 mov	 esp, ebp
  0019b	5d		 pop	 ebp
  0019c	c3		 ret	 0
?Initialize@CSoundManager3D@@QAE_NXZ ENDP		; CSoundManager3D::Initialize
_TEXT	ENDS
; Function compile flags: /Ogtp
; File C:\Users\flourine\Desktop\Xantios\client-src\Code\MilesLib\SoundManager3D.cpp
;	COMDAT ??1CSoundManager3D@@UAE@XZ
_TEXT	SEGMENT
__$EHRec$ = -12						; size = 12
??1CSoundManager3D@@UAE@XZ PROC				; CSoundManager3D::~CSoundManager3D, COMDAT
; _this$ = ecx

; 10   : {

  00000	55		 push	 ebp
  00001	8b ec		 mov	 ebp, esp
  00003	6a ff		 push	 -1
  00005	68 00 00 00 00	 push	 __ehhandler$??1CSoundManager3D@@UAE@XZ
  0000a	64 a1 00 00 00
	00		 mov	 eax, DWORD PTR fs:0
  00010	50		 push	 eax
  00011	56		 push	 esi
  00012	a1 00 00 00 00	 mov	 eax, DWORD PTR ___security_cookie
  00017	33 c5		 xor	 eax, ebp
  00019	50		 push	 eax
  0001a	8d 45 f4	 lea	 eax, DWORD PTR __$EHRec$[ebp]
  0001d	64 a3 00 00 00
	00		 mov	 DWORD PTR fs:0, eax
  00023	8b f1		 mov	 esi, ecx

; 11   : }

  00025	68 00 00 00 00	 push	 OFFSET ??1CSoundInstance3D@@UAE@XZ ; CSoundInstance3D::~CSoundInstance3D
  0002a	6a 20		 push	 32			; 00000020H
  0002c	6a 0c		 push	 12			; 0000000cH
  0002e	8d 46 24	 lea	 eax, DWORD PTR [esi+36]
  00031	c7 06 00 00 00
	00		 mov	 DWORD PTR [esi], OFFSET ??_7CSoundManager3D@@6B@
  00037	50		 push	 eax
  00038	e8 00 00 00 00	 call	 ??_M@YGXPAXIIP6EX0@Z@Z
  0003d	8b ce		 mov	 ecx, esi
  0003f	e8 00 00 00 00	 call	 ??1CSoundBase@@UAE@XZ	; CSoundBase::~CSoundBase
  00044	8b 4d f4	 mov	 ecx, DWORD PTR __$EHRec$[ebp]
  00047	64 89 0d 00 00
	00 00		 mov	 DWORD PTR fs:0, ecx
  0004e	59		 pop	 ecx
  0004f	5e		 pop	 esi
  00050	8b e5		 mov	 esp, ebp
  00052	5d		 pop	 ebp
  00053	c3		 ret	 0
  00054	cc		 int	 3
  00055	cc		 int	 3
  00056	cc		 int	 3
  00057	cc		 int	 3
  00058	cc		 int	 3
_TEXT	ENDS
;	COMDAT text$x
text$x	SEGMENT
__ehhandler$??1CSoundManager3D@@UAE@XZ:
  00000	90		 npad	 1
  00001	90		 npad	 1
  00002	8b 54 24 08	 mov	 edx, DWORD PTR [esp+8]
  00006	8d 42 0c	 lea	 eax, DWORD PTR [edx+12]
  00009	8b 4a f8	 mov	 ecx, DWORD PTR [edx-8]
  0000c	33 c8		 xor	 ecx, eax
  0000e	e8 00 00 00 00	 call	 @__security_check_cookie@4
  00013	b8 00 00 00 00	 mov	 eax, OFFSET __ehfuncinfo$??1CSoundManager3D@@UAE@XZ
  00018	e9 00 00 00 00	 jmp	 ___CxxFrameHandler3
text$x	ENDS
??1CSoundManager3D@@UAE@XZ ENDP				; CSoundManager3D::~CSoundManager3D
; Function compile flags: /Ogtp
; File C:\Users\flourine\Desktop\Xantios\client-src\Code\MilesLib\SoundManager3D.cpp
;	COMDAT ??0CSoundManager3D@@QAE@XZ
_TEXT	SEGMENT
_this$ = -16						; size = 4
__$EHRec$ = -12						; size = 12
??0CSoundManager3D@@QAE@XZ PROC				; CSoundManager3D::CSoundManager3D, COMDAT
; _this$ = ecx

; 5    : {

  00000	55		 push	 ebp
  00001	8b ec		 mov	 ebp, esp
  00003	6a ff		 push	 -1
  00005	68 00 00 00 00	 push	 __ehhandler$??0CSoundManager3D@@QAE@XZ
  0000a	64 a1 00 00 00
	00		 mov	 eax, DWORD PTR fs:0
  00010	50		 push	 eax
  00011	51		 push	 ecx
  00012	56		 push	 esi
  00013	a1 00 00 00 00	 mov	 eax, DWORD PTR ___security_cookie
  00018	33 c5		 xor	 eax, ebp
  0001a	50		 push	 eax
  0001b	8d 45 f4	 lea	 eax, DWORD PTR __$EHRec$[ebp]
  0001e	64 a3 00 00 00
	00		 mov	 DWORD PTR fs:0, eax
  00024	8b f1		 mov	 esi, ecx
  00026	89 75 f0	 mov	 DWORD PTR _this$[ebp], esi
  00029	e8 00 00 00 00	 call	 ??0CSoundBase@@QAE@XZ	; CSoundBase::CSoundBase
  0002e	68 00 00 00 00	 push	 OFFSET ??1CSoundInstance3D@@UAE@XZ ; CSoundInstance3D::~CSoundInstance3D
  00033	68 00 00 00 00	 push	 OFFSET ??0CSoundInstance3D@@QAE@XZ ; CSoundInstance3D::CSoundInstance3D
  00038	6a 20		 push	 32			; 00000020H
  0003a	6a 0c		 push	 12			; 0000000cH
  0003c	8d 46 24	 lea	 eax, DWORD PTR [esi+36]
  0003f	c7 45 fc 00 00
	00 00		 mov	 DWORD PTR __$EHRec$[ebp+8], 0
  00046	50		 push	 eax
  00047	c7 06 00 00 00
	00		 mov	 DWORD PTR [esi], OFFSET ??_7CSoundManager3D@@6B@
  0004d	e8 00 00 00 00	 call	 ??_L@YGXPAXIIP6EX0@Z1@Z

; 6    : 	m_bInit = false;

  00052	c6 86 a8 01 00
	00 00		 mov	 BYTE PTR [esi+424], 0

; 7    : }

  00059	8b c6		 mov	 eax, esi
  0005b	8b 4d f4	 mov	 ecx, DWORD PTR __$EHRec$[ebp]
  0005e	64 89 0d 00 00
	00 00		 mov	 DWORD PTR fs:0, ecx
  00065	59		 pop	 ecx
  00066	5e		 pop	 esi
  00067	8b e5		 mov	 esp, ebp
  00069	5d		 pop	 ebp
  0006a	c3		 ret	 0
_TEXT	ENDS
;	COMDAT text$x
text$x	SEGMENT
__unwindfunclet$??0CSoundManager3D@@QAE@XZ$0:
  00000	8b 4d f0	 mov	 ecx, DWORD PTR _this$[ebp]
  00003	e9 00 00 00 00	 jmp	 ??1CSoundBase@@UAE@XZ	; CSoundBase::~CSoundBase
  00008	cc		 int	 3
  00009	cc		 int	 3
  0000a	cc		 int	 3
  0000b	cc		 int	 3
  0000c	cc		 int	 3
__ehhandler$??0CSoundManager3D@@QAE@XZ:
  0000d	90		 npad	 1
  0000e	90		 npad	 1
  0000f	8b 54 24 08	 mov	 edx, DWORD PTR [esp+8]
  00013	8d 42 0c	 lea	 eax, DWORD PTR [edx+12]
  00016	8b 4a f4	 mov	 ecx, DWORD PTR [edx-12]
  00019	33 c8		 xor	 ecx, eax
  0001b	e8 00 00 00 00	 call	 @__security_check_cookie@4
  00020	b8 00 00 00 00	 mov	 eax, OFFSET __ehfuncinfo$??0CSoundManager3D@@QAE@XZ
  00025	e9 00 00 00 00	 jmp	 ___CxxFrameHandler3
text$x	ENDS
??0CSoundManager3D@@QAE@XZ ENDP				; CSoundManager3D::CSoundManager3D
; Function compile flags: /Ogtp
; File C:\Program Files\Microsoft Visual Studio\2022\Community\VC\Tools\MSVC\14.34.31933\include\exception
;	COMDAT ?_Throw_bad_array_new_length@std@@YAXXZ
_TEXT	SEGMENT
$T1 = -12						; size = 12
?_Throw_bad_array_new_length@std@@YAXXZ PROC		; std::_Throw_bad_array_new_length, COMDAT

; 323  : [[noreturn]] inline void _Throw_bad_array_new_length() {

  00000	55		 push	 ebp
  00001	8b ec		 mov	 ebp, esp
  00003	83 ec 0c	 sub	 esp, 12			; 0000000cH

; 324  :     _THROW(bad_array_new_length{});

  00006	8d 4d f4	 lea	 ecx, DWORD PTR $T1[ebp]
  00009	e8 00 00 00 00	 call	 ??0bad_array_new_length@std@@QAE@XZ ; std::bad_array_new_length::bad_array_new_length
  0000e	68 00 00 00 00	 push	 OFFSET __TI3?AVbad_array_new_length@std@@
  00013	8d 45 f4	 lea	 eax, DWORD PTR $T1[ebp]
  00016	50		 push	 eax
  00017	e8 00 00 00 00	 call	 __CxxThrowException@8
$LN3@Throw_bad_:
  0001c	cc		 int	 3
?_Throw_bad_array_new_length@std@@YAXXZ ENDP		; std::_Throw_bad_array_new_length
_TEXT	ENDS
; Function compile flags: /Ogtp
; File C:\Program Files\Microsoft Visual Studio\2022\Community\VC\Tools\MSVC\14.34.31933\include\vcruntime_exception.h
;	COMDAT ??_Gbad_array_new_length@std@@UAEPAXI@Z
_TEXT	SEGMENT
___flags$ = 8						; size = 4
??_Gbad_array_new_length@std@@UAEPAXI@Z PROC		; std::bad_array_new_length::`scalar deleting destructor', COMDAT
; _this$ = ecx
  00000	55		 push	 ebp
  00001	8b ec		 mov	 ebp, esp

; 89   :     {

  00003	56		 push	 esi
  00004	8b f1		 mov	 esi, ecx

; 90   :         __std_exception_destroy(&_Data);

  00006	8d 46 04	 lea	 eax, DWORD PTR [esi+4]
  00009	c7 06 00 00 00
	00		 mov	 DWORD PTR [esi], OFFSET ??_7exception@std@@6B@
  0000f	50		 push	 eax
  00010	e8 00 00 00 00	 call	 ___std_exception_destroy
  00015	83 c4 04	 add	 esp, 4
  00018	f6 45 08 01	 test	 BYTE PTR ___flags$[ebp], 1
  0001c	74 0b		 je	 SHORT $LN12@scalar
  0001e	6a 0c		 push	 12			; 0000000cH
  00020	56		 push	 esi
  00021	e8 00 00 00 00	 call	 ??3@YAXPAXI@Z		; operator delete
  00026	83 c4 08	 add	 esp, 8
$LN12@scalar:
  00029	8b c6		 mov	 eax, esi
  0002b	5e		 pop	 esi
  0002c	5d		 pop	 ebp
  0002d	c2 04 00	 ret	 4
??_Gbad_array_new_length@std@@UAEPAXI@Z ENDP		; std::bad_array_new_length::`scalar deleting destructor'
_TEXT	ENDS
; Function compile flags: /Ogtp
; File C:\Program Files\Microsoft Visual Studio\2022\Community\VC\Tools\MSVC\14.34.31933\include\vcruntime_exception.h
;	COMDAT ??0bad_array_new_length@std@@QAE@ABV01@@Z
_TEXT	SEGMENT
___that$ = 8						; size = 4
??0bad_array_new_length@std@@QAE@ABV01@@Z PROC		; std::bad_array_new_length::bad_array_new_length, COMDAT
; _this$ = ecx
  00000	55		 push	 ebp
  00001	8b ec		 mov	 ebp, esp

; 72   :     {

  00003	56		 push	 esi
  00004	8b f1		 mov	 esi, ecx
  00006	0f 57 c0	 xorps	 xmm0, xmm0

; 71   :         : _Data()

  00009	8d 46 04	 lea	 eax, DWORD PTR [esi+4]

; 73   :         __std_exception_copy(&_Other._Data, &_Data);

  0000c	50		 push	 eax
  0000d	c7 06 00 00 00
	00		 mov	 DWORD PTR [esi], OFFSET ??_7exception@std@@6B@
  00013	66 0f d6 00	 movq	 QWORD PTR [eax], xmm0
  00017	8b 45 08	 mov	 eax, DWORD PTR ___that$[ebp]
  0001a	83 c0 04	 add	 eax, 4
  0001d	50		 push	 eax
  0001e	e8 00 00 00 00	 call	 ___std_exception_copy
  00023	83 c4 08	 add	 esp, 8
  00026	c7 06 00 00 00
	00		 mov	 DWORD PTR [esi], OFFSET ??_7bad_array_new_length@std@@6B@
  0002c	8b c6		 mov	 eax, esi
  0002e	5e		 pop	 esi
  0002f	5d		 pop	 ebp
  00030	c2 04 00	 ret	 4
??0bad_array_new_length@std@@QAE@ABV01@@Z ENDP		; std::bad_array_new_length::bad_array_new_length
_TEXT	ENDS
; Function compile flags: /Ogtp
; File C:\Program Files\Microsoft Visual Studio\2022\Community\VC\Tools\MSVC\14.34.31933\include\vcruntime_exception.h
;	COMDAT ??1bad_array_new_length@std@@UAE@XZ
_TEXT	SEGMENT
??1bad_array_new_length@std@@UAE@XZ PROC		; std::bad_array_new_length::~bad_array_new_length, COMDAT
; _this$ = ecx

; 90   :         __std_exception_destroy(&_Data);

  00000	8d 41 04	 lea	 eax, DWORD PTR [ecx+4]
  00003	c7 01 00 00 00
	00		 mov	 DWORD PTR [ecx], OFFSET ??_7exception@std@@6B@
  00009	50		 push	 eax
  0000a	e8 00 00 00 00	 call	 ___std_exception_destroy
  0000f	59		 pop	 ecx
  00010	c3		 ret	 0
??1bad_array_new_length@std@@UAE@XZ ENDP		; std::bad_array_new_length::~bad_array_new_length
_TEXT	ENDS
; Function compile flags: /Ogtp
; File C:\Program Files\Microsoft Visual Studio\2022\Community\VC\Tools\MSVC\14.34.31933\include\vcruntime_exception.h
;	COMDAT ??0bad_array_new_length@std@@QAE@XZ
_TEXT	SEGMENT
??0bad_array_new_length@std@@QAE@XZ PROC		; std::bad_array_new_length::bad_array_new_length, COMDAT
; _this$ = ecx

; 141  :     {

  00000	0f 57 c0	 xorps	 xmm0, xmm0

; 142  :     }

  00003	8b c1		 mov	 eax, ecx

; 65   :         : _Data()

  00005	66 0f d6 41 04	 movq	 QWORD PTR [ecx+4], xmm0

; 66   :     {
; 67   :         _Data._What = _Message;

  0000a	c7 41 04 00 00
	00 00		 mov	 DWORD PTR [ecx+4], OFFSET ??_C@_0BF@KINCDENJ@bad?5array?5new?5length@

; 141  :     {

  00011	c7 01 00 00 00
	00		 mov	 DWORD PTR [ecx], OFFSET ??_7bad_array_new_length@std@@6B@

; 142  :     }

  00017	c3		 ret	 0
??0bad_array_new_length@std@@QAE@XZ ENDP		; std::bad_array_new_length::bad_array_new_length
_TEXT	ENDS
; Function compile flags: /Ogtp
; File C:\Program Files\Microsoft Visual Studio\2022\Community\VC\Tools\MSVC\14.34.31933\include\vcruntime_exception.h
;	COMDAT ??_Gbad_alloc@std@@UAEPAXI@Z
_TEXT	SEGMENT
___flags$ = 8						; size = 4
??_Gbad_alloc@std@@UAEPAXI@Z PROC			; std::bad_alloc::`scalar deleting destructor', COMDAT
; _this$ = ecx
  00000	55		 push	 ebp
  00001	8b ec		 mov	 ebp, esp

; 89   :     {

  00003	56		 push	 esi
  00004	8b f1		 mov	 esi, ecx

; 90   :         __std_exception_destroy(&_Data);

  00006	8d 46 04	 lea	 eax, DWORD PTR [esi+4]
  00009	c7 06 00 00 00
	00		 mov	 DWORD PTR [esi], OFFSET ??_7exception@std@@6B@
  0000f	50		 push	 eax
  00010	e8 00 00 00 00	 call	 ___std_exception_destroy
  00015	83 c4 04	 add	 esp, 4
  00018	f6 45 08 01	 test	 BYTE PTR ___flags$[ebp], 1
  0001c	74 0b		 je	 SHORT $LN9@scalar
  0001e	6a 0c		 push	 12			; 0000000cH
  00020	56		 push	 esi
  00021	e8 00 00 00 00	 call	 ??3@YAXPAXI@Z		; operator delete
  00026	83 c4 08	 add	 esp, 8
$LN9@scalar:
  00029	8b c6		 mov	 eax, esi
  0002b	5e		 pop	 esi
  0002c	5d		 pop	 ebp
  0002d	c2 04 00	 ret	 4
??_Gbad_alloc@std@@UAEPAXI@Z ENDP			; std::bad_alloc::`scalar deleting destructor'
_TEXT	ENDS
; Function compile flags: /Ogtp
; File C:\Program Files\Microsoft Visual Studio\2022\Community\VC\Tools\MSVC\14.34.31933\include\vcruntime_exception.h
;	COMDAT ??0bad_alloc@std@@QAE@ABV01@@Z
_TEXT	SEGMENT
___that$ = 8						; size = 4
??0bad_alloc@std@@QAE@ABV01@@Z PROC			; std::bad_alloc::bad_alloc, COMDAT
; _this$ = ecx
  00000	55		 push	 ebp
  00001	8b ec		 mov	 ebp, esp

; 72   :     {

  00003	56		 push	 esi
  00004	8b f1		 mov	 esi, ecx
  00006	0f 57 c0	 xorps	 xmm0, xmm0

; 71   :         : _Data()

  00009	8d 46 04	 lea	 eax, DWORD PTR [esi+4]

; 73   :         __std_exception_copy(&_Other._Data, &_Data);

  0000c	50		 push	 eax
  0000d	c7 06 00 00 00
	00		 mov	 DWORD PTR [esi], OFFSET ??_7exception@std@@6B@
  00013	66 0f d6 00	 movq	 QWORD PTR [eax], xmm0
  00017	8b 45 08	 mov	 eax, DWORD PTR ___that$[ebp]
  0001a	83 c0 04	 add	 eax, 4
  0001d	50		 push	 eax
  0001e	e8 00 00 00 00	 call	 ___std_exception_copy
  00023	83 c4 08	 add	 esp, 8
  00026	c7 06 00 00 00
	00		 mov	 DWORD PTR [esi], OFFSET ??_7bad_alloc@std@@6B@
  0002c	8b c6		 mov	 eax, esi
  0002e	5e		 pop	 esi
  0002f	5d		 pop	 ebp
  00030	c2 04 00	 ret	 4
??0bad_alloc@std@@QAE@ABV01@@Z ENDP			; std::bad_alloc::bad_alloc
_TEXT	ENDS
; Function compile flags: /Ogtp
; File C:\Program Files\Microsoft Visual Studio\2022\Community\VC\Tools\MSVC\14.34.31933\include\vcruntime_exception.h
;	COMDAT ??_Gexception@std@@UAEPAXI@Z
_TEXT	SEGMENT
___flags$ = 8						; size = 4
??_Gexception@std@@UAEPAXI@Z PROC			; std::exception::`scalar deleting destructor', COMDAT
; _this$ = ecx
  00000	55		 push	 ebp
  00001	8b ec		 mov	 ebp, esp

; 89   :     {

  00003	56		 push	 esi
  00004	8b f1		 mov	 esi, ecx

; 90   :         __std_exception_destroy(&_Data);

  00006	8d 46 04	 lea	 eax, DWORD PTR [esi+4]
  00009	c7 06 00 00 00
	00		 mov	 DWORD PTR [esi], OFFSET ??_7exception@std@@6B@
  0000f	50		 push	 eax
  00010	e8 00 00 00 00	 call	 ___std_exception_destroy
  00015	83 c4 04	 add	 esp, 4
  00018	f6 45 08 01	 test	 BYTE PTR ___flags$[ebp], 1
  0001c	74 0b		 je	 SHORT $LN6@scalar
  0001e	6a 0c		 push	 12			; 0000000cH
  00020	56		 push	 esi
  00021	e8 00 00 00 00	 call	 ??3@YAXPAXI@Z		; operator delete
  00026	83 c4 08	 add	 esp, 8
$LN6@scalar:
  00029	8b c6		 mov	 eax, esi
  0002b	5e		 pop	 esi
  0002c	5d		 pop	 ebp
  0002d	c2 04 00	 ret	 4
??_Gexception@std@@UAEPAXI@Z ENDP			; std::exception::`scalar deleting destructor'
_TEXT	ENDS
; Function compile flags: /Ogtp
; File C:\Program Files\Microsoft Visual Studio\2022\Community\VC\Tools\MSVC\14.34.31933\include\vcruntime_exception.h
;	COMDAT ?what@exception@std@@UBEPBDXZ
_TEXT	SEGMENT
?what@exception@std@@UBEPBDXZ PROC			; std::exception::what, COMDAT
; _this$ = ecx

; 95   :         return _Data._What ? _Data._What : "Unknown exception";

  00000	8b 49 04	 mov	 ecx, DWORD PTR [ecx+4]
  00003	b8 00 00 00 00	 mov	 eax, OFFSET ??_C@_0BC@EOODALEL@Unknown?5exception@
  00008	85 c9		 test	 ecx, ecx
  0000a	0f 45 c1	 cmovne	 eax, ecx

; 96   :     }

  0000d	c3		 ret	 0
?what@exception@std@@UBEPBDXZ ENDP			; std::exception::what
_TEXT	ENDS
; Function compile flags: /Ogtp
; File C:\Program Files\Microsoft Visual Studio\2022\Community\VC\Tools\MSVC\14.34.31933\include\vcruntime_exception.h
;	COMDAT ??1exception@std@@UAE@XZ
_TEXT	SEGMENT
??1exception@std@@UAE@XZ PROC				; std::exception::~exception, COMDAT
; _this$ = ecx

; 90   :         __std_exception_destroy(&_Data);

  00000	8d 41 04	 lea	 eax, DWORD PTR [ecx+4]
  00003	c7 01 00 00 00
	00		 mov	 DWORD PTR [ecx], OFFSET ??_7exception@std@@6B@
  00009	50		 push	 eax
  0000a	e8 00 00 00 00	 call	 ___std_exception_destroy
  0000f	59		 pop	 ecx

; 91   :     }

  00010	c3		 ret	 0
??1exception@std@@UAE@XZ ENDP				; std::exception::~exception
_TEXT	ENDS
; Function compile flags: /Ogtp
; File C:\Program Files\Microsoft Visual Studio\2022\Community\VC\Tools\MSVC\14.34.31933\include\vcruntime_exception.h
;	COMDAT ??0exception@std@@QAE@ABV01@@Z
_TEXT	SEGMENT
__Other$ = 8						; size = 4
??0exception@std@@QAE@ABV01@@Z PROC			; std::exception::exception, COMDAT
; _this$ = ecx

; 72   :     {

  00000	55		 push	 ebp
  00001	8b ec		 mov	 ebp, esp
  00003	56		 push	 esi
  00004	8b f1		 mov	 esi, ecx
  00006	0f 57 c0	 xorps	 xmm0, xmm0
  00009	8d 46 04	 lea	 eax, DWORD PTR [esi+4]

; 73   :         __std_exception_copy(&_Other._Data, &_Data);

  0000c	50		 push	 eax
  0000d	c7 06 00 00 00
	00		 mov	 DWORD PTR [esi], OFFSET ??_7exception@std@@6B@
  00013	66 0f d6 00	 movq	 QWORD PTR [eax], xmm0
  00017	8b 45 08	 mov	 eax, DWORD PTR __Other$[ebp]
  0001a	83 c0 04	 add	 eax, 4
  0001d	50		 push	 eax
  0001e	e8 00 00 00 00	 call	 ___std_exception_copy
  00023	83 c4 08	 add	 esp, 8

; 74   :     }

  00026	8b c6		 mov	 eax, esi
  00028	5e		 pop	 esi
  00029	5d		 pop	 ebp
  0002a	c2 04 00	 ret	 4
??0exception@std@@QAE@ABV01@@Z ENDP			; std::exception::exception
_TEXT	ENDS
END
