; Listing generated by Microsoft (R) Optimizing Compiler Version 19.34.31942.0 

	TITLE	C:\Users\flourine\Desktop\Xantios\client-src\Code\eterPythonLib\Distribute\PythonWindowManagerModule.obj
	.686P
	.XMM
	include listing.inc
	.model	flat

INCLUDELIB LIBCMT
INCLUDELIB OLDNAMES

PUBLIC	___local_stdio_printf_options
PUBLIC	__snprintf
PUBLIC	??0exception@std@@QAE@ABV01@@Z			; std::exception::exception
PUBLIC	??1exception@std@@UAE@XZ			; std::exception::~exception
PUBLIC	?what@exception@std@@UBEPBDXZ			; std::exception::what
PUBLIC	??_Gexception@std@@UAEPAXI@Z			; std::exception::`scalar deleting destructor'
PUBLIC	??0bad_alloc@std@@QAE@ABV01@@Z			; std::bad_alloc::bad_alloc
PUBLIC	??_Gbad_alloc@std@@UAEPAXI@Z			; std::bad_alloc::`scalar deleting destructor'
PUBLIC	??0bad_array_new_length@std@@QAE@XZ		; std::bad_array_new_length::bad_array_new_length
PUBLIC	??1bad_array_new_length@std@@UAE@XZ		; std::bad_array_new_length::~bad_array_new_length
PUBLIC	??0bad_array_new_length@std@@QAE@ABV01@@Z	; std::bad_array_new_length::bad_array_new_length
PUBLIC	??_Gbad_array_new_length@std@@UAEPAXI@Z		; std::bad_array_new_length::`scalar deleting destructor'
PUBLIC	?_Throw_bad_array_new_length@std@@YAXXZ		; std::_Throw_bad_array_new_length
PUBLIC	?initwndMgr@@YAXXZ				; initwndMgr
PUBLIC	??$_Allocate_manually_vector_aligned@U_Default_allocate_traits@std@@@std@@YAPAXI@Z ; std::_Allocate_manually_vector_aligned<std::_Default_allocate_traits>
PUBLIC	?PyTuple_GetWindow@@YA_NPAU_object@@HPAPAVCWindow@UI@@@Z ; PyTuple_GetWindow
PUBLIC	?wndMgrGetAspect@@YAPAU_object@@PAU1@0@Z	; wndMgrGetAspect
PUBLIC	?wndMgrOnceIgnoreMouseLeftButtonUpEvent@@YAPAU_object@@PAU1@0@Z ; wndMgrOnceIgnoreMouseLeftButtonUpEvent
PUBLIC	?wndMgrSetMouseHandler@@YAPAU_object@@PAU1@0@Z	; wndMgrSetMouseHandler
PUBLIC	?wndMgrRegister@@YAPAU_object@@PAU1@0@Z		; wndMgrRegister
PUBLIC	?wndMgrRegisterSlotWindow@@YAPAU_object@@PAU1@0@Z ; wndMgrRegisterSlotWindow
PUBLIC	?wndMgrRegisterGridSlotWindow@@YAPAU_object@@PAU1@0@Z ; wndMgrRegisterGridSlotWindow
PUBLIC	?wndMgrRegisterTextLine@@YAPAU_object@@PAU1@0@Z	; wndMgrRegisterTextLine
PUBLIC	?wndMgrRegisterMarkBox@@YAPAU_object@@PAU1@0@Z	; wndMgrRegisterMarkBox
PUBLIC	?wndMgrRegisterImageBox@@YAPAU_object@@PAU1@0@Z	; wndMgrRegisterImageBox
PUBLIC	?wndMgrRegisterExpandedImageBox@@YAPAU_object@@PAU1@0@Z ; wndMgrRegisterExpandedImageBox
PUBLIC	?wndMgrRegisterAniImageBox@@YAPAU_object@@PAU1@0@Z ; wndMgrRegisterAniImageBox
PUBLIC	?wndMgrRegisterButton@@YAPAU_object@@PAU1@0@Z	; wndMgrRegisterButton
PUBLIC	?wndMgrRegisterRadioButton@@YAPAU_object@@PAU1@0@Z ; wndMgrRegisterRadioButton
PUBLIC	?wndMgrRegisterToggleButton@@YAPAU_object@@PAU1@0@Z ; wndMgrRegisterToggleButton
PUBLIC	?wndMgrRegisterDragButton@@YAPAU_object@@PAU1@0@Z ; wndMgrRegisterDragButton
PUBLIC	?wndMgrRegisterBox@@YAPAU_object@@PAU1@0@Z	; wndMgrRegisterBox
PUBLIC	?wndMgrRegisterBar@@YAPAU_object@@PAU1@0@Z	; wndMgrRegisterBar
PUBLIC	?wndMgrRegisterLine@@YAPAU_object@@PAU1@0@Z	; wndMgrRegisterLine
PUBLIC	?wndMgrRegisterBar3D@@YAPAU_object@@PAU1@0@Z	; wndMgrRegisterBar3D
PUBLIC	?wndMgrRegisterNumberLine@@YAPAU_object@@PAU1@0@Z ; wndMgrRegisterNumberLine
PUBLIC	?wndMgrDestroy@@YAPAU_object@@PAU1@0@Z		; wndMgrDestroy
PUBLIC	?wndMgrIsFocus@@YAPAU_object@@PAU1@0@Z		; wndMgrIsFocus
PUBLIC	?wndMgrSetFocus@@YAPAU_object@@PAU1@0@Z		; wndMgrSetFocus
PUBLIC	?wndMgrKillFocus@@YAPAU_object@@PAU1@0@Z	; wndMgrKillFocus
PUBLIC	?wndMgrLock@@YAPAU_object@@PAU1@0@Z		; wndMgrLock
PUBLIC	?wndMgrUnlock@@YAPAU_object@@PAU1@0@Z		; wndMgrUnlock
PUBLIC	?wndMgrSetName@@YAPAU_object@@PAU1@0@Z		; wndMgrSetName
PUBLIC	?wndMgrSetTop@@YAPAU_object@@PAU1@0@Z		; wndMgrSetTop
PUBLIC	?wndMgrIsTop@@YAPAU_object@@PAU1@0@Z		; wndMgrIsTop
PUBLIC	?wndMgrShow@@YAPAU_object@@PAU1@0@Z		; wndMgrShow
PUBLIC	?wndMgrHide@@YAPAU_object@@PAU1@0@Z		; wndMgrHide
PUBLIC	?wndMgrIsShow@@YAPAU_object@@PAU1@0@Z		; wndMgrIsShow
PUBLIC	?wndMgrIsRTL@@YAPAU_object@@PAU1@0@Z		; wndMgrIsRTL
PUBLIC	?wndMgrSetScreenSize@@YAPAU_object@@PAU1@0@Z	; wndMgrSetScreenSize
PUBLIC	?wndMgrSetParent@@YAPAU_object@@PAU1@0@Z	; wndMgrSetParent
PUBLIC	?wndMgrSetPickAlways@@YAPAU_object@@PAU1@0@Z	; wndMgrSetPickAlways
PUBLIC	?wndMgrSetWndSize@@YAPAU_object@@PAU1@0@Z	; wndMgrSetWndSize
PUBLIC	?wndMgrSetWndPosition@@YAPAU_object@@PAU1@0@Z	; wndMgrSetWndPosition
PUBLIC	?wndMgrGetName@@YAPAU_object@@PAU1@0@Z		; wndMgrGetName
PUBLIC	?wndMgrGetWndWidth@@YAPAU_object@@PAU1@0@Z	; wndMgrGetWndWidth
PUBLIC	?wndMgrGetWndHeight@@YAPAU_object@@PAU1@0@Z	; wndMgrGetWndHeight
PUBLIC	?wndMgrGetWndLocalPosition@@YAPAU_object@@PAU1@0@Z ; wndMgrGetWndLocalPosition
PUBLIC	?wndMgrGetWndGlobalPosition@@YAPAU_object@@PAU1@0@Z ; wndMgrGetWndGlobalPosition
PUBLIC	?wndMgrGetWindowRect@@YAPAU_object@@PAU1@0@Z	; wndMgrGetWindowRect
PUBLIC	?wndMgrSetWindowHorizontalAlign@@YAPAU_object@@PAU1@0@Z ; wndMgrSetWindowHorizontalAlign
PUBLIC	?wndMgrSetWindowVerticalAlign@@YAPAU_object@@PAU1@0@Z ; wndMgrSetWindowVerticalAlign
PUBLIC	?wndMgrIsIn@@YAPAU_object@@PAU1@0@Z		; wndMgrIsIn
PUBLIC	?wndMgrGetMouseLocalPosition@@YAPAU_object@@PAU1@0@Z ; wndMgrGetMouseLocalPosition
PUBLIC	?wndMgrGetHyperlink@@YAPAU_object@@PAU1@0@Z	; wndMgrGetHyperlink
PUBLIC	?wndMgrGetScreenWidth@@YAPAU_object@@PAU1@0@Z	; wndMgrGetScreenWidth
PUBLIC	?wndMgrGetScreenHeight@@YAPAU_object@@PAU1@0@Z	; wndMgrGetScreenHeight
PUBLIC	?wndMgrGetMousePosition@@YAPAU_object@@PAU1@0@Z	; wndMgrGetMousePosition
PUBLIC	?wndMgrIsDragging@@YAPAU_object@@PAU1@0@Z	; wndMgrIsDragging
PUBLIC	?wndMgrIsPickedWindow@@YAPAU_object@@PAU1@0@Z	; wndMgrIsPickedWindow
PUBLIC	?wndMgrGetChildCount@@YAPAU_object@@PAU1@0@Z	; wndMgrGetChildCount
PUBLIC	?GetFlag@@YAIPBD@Z				; GetFlag
PUBLIC	?wndMgrAddFlag@@YAPAU_object@@PAU1@0@Z		; wndMgrAddFlag
PUBLIC	?wndMgrRemoveFlag@@YAPAU_object@@PAU1@0@Z	; wndMgrRemoveFlag
PUBLIC	?wndMgrSetLimitBias@@YAPAU_object@@PAU1@0@Z	; wndMgrSetLimitBias
PUBLIC	?wndMgrUpdateRect@@YAPAU_object@@PAU1@0@Z	; wndMgrUpdateRect
PUBLIC	?wndMgrAppendSlot@@YAPAU_object@@PAU1@0@Z	; wndMgrAppendSlot
PUBLIC	?wndMgrArrangeSlot@@YAPAU_object@@PAU1@0@Z	; wndMgrArrangeSlot
PUBLIC	?wndMgrSetSlotBaseImage@@YAPAU_object@@PAU1@0@Z	; wndMgrSetSlotBaseImage
PUBLIC	?wndMgrSetCoverButton@@YAPAU_object@@PAU1@0@Z	; wndMgrSetCoverButton
PUBLIC	?wndMgrEnableCoverButton@@YAPAU_object@@PAU1@0@Z ; wndMgrEnableCoverButton
PUBLIC	?wndMgrDisableCoverButton@@YAPAU_object@@PAU1@0@Z ; wndMgrDisableCoverButton
PUBLIC	?wndMgrIsDisableCoverButton@@YAPAU_object@@PAU1@0@Z ; wndMgrIsDisableCoverButton
PUBLIC	?wndMgrSetAlwaysRenderCoverButton@@YAPAU_object@@PAU1@0@Z ; wndMgrSetAlwaysRenderCoverButton
PUBLIC	?wndMgrGetSlotIndices@@YAPAU_object@@PAU1@0@Z	; wndMgrGetSlotIndices
PUBLIC	?wndMgrDeleteCoverButton@@YAPAU_object@@PAU1@0@Z ; wndMgrDeleteCoverButton
PUBLIC	?wndMgrAppendSlotButton@@YAPAU_object@@PAU1@0@Z	; wndMgrAppendSlotButton
PUBLIC	?wndMgrAppendRequirementSignImage@@YAPAU_object@@PAU1@0@Z ; wndMgrAppendRequirementSignImage
PUBLIC	?wndMgrShowSlotButton@@YAPAU_object@@PAU1@0@Z	; wndMgrShowSlotButton
PUBLIC	?wndMgrHideAllSlotButton@@YAPAU_object@@PAU1@0@Z ; wndMgrHideAllSlotButton
PUBLIC	?wndMgrShowRequirementSign@@YAPAU_object@@PAU1@0@Z ; wndMgrShowRequirementSign
PUBLIC	?wndMgrHideRequirementSign@@YAPAU_object@@PAU1@0@Z ; wndMgrHideRequirementSign
PUBLIC	?wndMgrRefreshSlot@@YAPAU_object@@PAU1@0@Z	; wndMgrRefreshSlot
PUBLIC	?wndMgrSetUseMode@@YAPAU_object@@PAU1@0@Z	; wndMgrSetUseMode
PUBLIC	?wndMgrIsUseMode@@YAPAU_object@@PAU1@0@Z	; wndMgrIsUseMode
PUBLIC	?wndMgrSetUsableItem@@YAPAU_object@@PAU1@0@Z	; wndMgrSetUsableItem
PUBLIC	?wndMgrIsUsableItem@@YAPAU_object@@PAU1@0@Z	; wndMgrIsUsableItem
PUBLIC	?wndMgrSetSwitchMode@@YAPAU_object@@PAU1@0@Z	; wndMgrSetSwitchMode
PUBLIC	?wndMgrIsSwitchMode@@YAPAU_object@@PAU1@0@Z	; wndMgrIsSwitchMode
PUBLIC	?wndMgrSetSwitchableItem@@YAPAU_object@@PAU1@0@Z ; wndMgrSetSwitchableItem
PUBLIC	?wndMgrIsSwitchableItem@@YAPAU_object@@PAU1@0@Z	; wndMgrIsSwitchableItem
PUBLIC	?wndMgrGetPickedSlotNumber@@YAPAU_object@@PAU1@0@Z ; wndMgrGetPickedSlotNumber
PUBLIC	?wndMgrSetSlotHighlightedGreeen@@YAPAU_object@@PAU1@0@Z ; wndMgrSetSlotHighlightedGreeen
PUBLIC	?wndMgrDisableSlotHighlightedGreen@@YAPAU_object@@PAU1@0@Z ; wndMgrDisableSlotHighlightedGreen
PUBLIC	?wndMgrClearSlot@@YAPAU_object@@PAU1@0@Z	; wndMgrClearSlot
PUBLIC	?wndMgrClearAllSlot@@YAPAU_object@@PAU1@0@Z	; wndMgrClearAllSlot
PUBLIC	?wndMgrHasSlot@@YAPAU_object@@PAU1@0@Z		; wndMgrHasSlot
PUBLIC	?wndMgrSetSlot@@YAPAU_object@@PAU1@0@Z		; wndMgrSetSlot
PUBLIC	?wndMgrSetSlotCount@@YAPAU_object@@PAU1@0@Z	; wndMgrSetSlotCount
PUBLIC	?wndMgrSetSlotCountNew@@YAPAU_object@@PAU1@0@Z	; wndMgrSetSlotCountNew
PUBLIC	?wndMgrSetSlotCoolTime@@YAPAU_object@@PAU1@0@Z	; wndMgrSetSlotCoolTime
PUBLIC	?wndMgrSetToggleSlot@@YAPAU_object@@PAU1@0@Z	; wndMgrSetToggleSlot
PUBLIC	?wndMgrActivateSlot@@YAPAU_object@@PAU1@0@Z	; wndMgrActivateSlot
PUBLIC	??1?$vector@MV?$allocator@M@std@@@std@@QAE@XZ	; std::vector<float,std::allocator<float> >::~vector<float,std::allocator<float> >
PUBLIC	?wndMgrDeactivateSlot@@YAPAU_object@@PAU1@0@Z	; wndMgrDeactivateSlot
PUBLIC	?wndMgrNewActivateSlot@@YAPAU_object@@PAU1@0@Z	; wndMgrNewActivateSlot
PUBLIC	?wndMgrNewDeactivateSlot@@YAPAU_object@@PAU1@0@Z ; wndMgrNewDeactivateSlot
PUBLIC	?wndMgrEnableSlot@@YAPAU_object@@PAU1@0@Z	; wndMgrEnableSlot
PUBLIC	?wndMgrDisableSlot@@YAPAU_object@@PAU1@0@Z	; wndMgrDisableSlot
PUBLIC	?wndMgrSetUnusableSlot@@YAPAU_object@@PAU1@0@Z	; wndMgrSetUnusableSlot
PUBLIC	?wndMgrSetUsableSlot@@YAPAU_object@@PAU1@0@Z	; wndMgrSetUsableSlot
PUBLIC	?wndMgrShowSlotBaseImage@@YAPAU_object@@PAU1@0@Z ; wndMgrShowSlotBaseImage
PUBLIC	?wndMgrHideSlotBaseImage@@YAPAU_object@@PAU1@0@Z ; wndMgrHideSlotBaseImage
PUBLIC	?wndMgrSetSlotType@@YAPAU_object@@PAU1@0@Z	; wndMgrSetSlotType
PUBLIC	?wndMgrSetSlotStyle@@YAPAU_object@@PAU1@0@Z	; wndMgrSetSlotStyle
PUBLIC	?wndMgrSelectSlot@@YAPAU_object@@PAU1@0@Z	; wndMgrSelectSlot
PUBLIC	?wndMgrClearSelected@@YAPAU_object@@PAU1@0@Z	; wndMgrClearSelected
PUBLIC	?wndMgrGetSelectedSlotCount@@YAPAU_object@@PAU1@0@Z ; wndMgrGetSelectedSlotCount
PUBLIC	?wndMgrGetSelectedSlotNumber@@YAPAU_object@@PAU1@0@Z ; wndMgrGetSelectedSlotNumber
PUBLIC	?wndMgrIsSelectedSlot@@YAPAU_object@@PAU1@0@Z	; wndMgrIsSelectedSlot
PUBLIC	?wndMgrGetSlotCount@@YAPAU_object@@PAU1@0@Z	; wndMgrGetSlotCount
PUBLIC	?wndMgrLockSlot@@YAPAU_object@@PAU1@0@Z		; wndMgrLockSlot
PUBLIC	?wndMgrUnlockSlot@@YAPAU_object@@PAU1@0@Z	; wndMgrUnlockSlot
PUBLIC	?wndBarSetColor@@YAPAU_object@@PAU1@0@Z		; wndBarSetColor
PUBLIC	?wndMgrAttachIcon@@YAPAU_object@@PAU1@0@Z	; wndMgrAttachIcon
PUBLIC	?wndMgrDeattachIcon@@YAPAU_object@@PAU1@0@Z	; wndMgrDeattachIcon
PUBLIC	?wndMgrSetAttachingFlag@@YAPAU_object@@PAU1@0@Z	; wndMgrSetAttachingFlag
PUBLIC	?wndTextSetMax@@YAPAU_object@@PAU1@0@Z		; wndTextSetMax
PUBLIC	?wndTextSetHorizontalAlign@@YAPAU_object@@PAU1@0@Z ; wndTextSetHorizontalAlign
PUBLIC	?wndTextSetVerticalAlign@@YAPAU_object@@PAU1@0@Z ; wndTextSetVerticalAlign
PUBLIC	?wndTextSetSecret@@YAPAU_object@@PAU1@0@Z	; wndTextSetSecret
PUBLIC	?wndTextSetOutline@@YAPAU_object@@PAU1@0@Z	; wndTextSetOutline
PUBLIC	?wndTextSetFeather@@YAPAU_object@@PAU1@0@Z	; wndTextSetFeather
PUBLIC	?wndTextSetMultiLine@@YAPAU_object@@PAU1@0@Z	; wndTextSetMultiLine
PUBLIC	?wndTextSetFontName@@YAPAU_object@@PAU1@0@Z	; wndTextSetFontName
PUBLIC	?wndTextSetFontColor@@YAPAU_object@@PAU1@0@Z	; wndTextSetFontColor
PUBLIC	?wndTextSetLimitWidth@@YAPAU_object@@PAU1@0@Z	; wndTextSetLimitWidth
PUBLIC	?wndTextSetText@@YAPAU_object@@PAU1@0@Z		; wndTextSetText
PUBLIC	?wndTextGetSpecificTextWidth@@YAPAU_object@@PAU1@0@Z ; wndTextGetSpecificTextWidth
PUBLIC	?wndTextGetText@@YAPAU_object@@PAU1@0@Z		; wndTextGetText
PUBLIC	?wndTextSetTextClip@@YAPAU_object@@PAU1@0@Z	; wndTextSetTextClip
PUBLIC	?wndTextGetTextSize@@YAPAU_object@@PAU1@0@Z	; wndTextGetTextSize
PUBLIC	?wndTextShowCursor@@YAPAU_object@@PAU1@0@Z	; wndTextShowCursor
PUBLIC	?wndTextHideCursor@@YAPAU_object@@PAU1@0@Z	; wndTextHideCursor
PUBLIC	?wndTextIsShowCursor@@YAPAU_object@@PAU1@0@Z	; wndTextIsShowCursor
PUBLIC	?wndTextGetCursorPosition@@YAPAU_object@@PAU1@0@Z ; wndTextGetCursorPosition
PUBLIC	?wndTextGetCharPositionByCursor@@YAPAU_object@@PAU1@0@Z ; wndTextGetCharPositionByCursor
PUBLIC	?wndTextPositionToRenderPosition@@YAPAU_object@@PAU1@0@Z ; wndTextPositionToRenderPosition
PUBLIC	?wndNumberSetNumber@@YAPAU_object@@PAU1@0@Z	; wndNumberSetNumber
PUBLIC	?wndNumberSetNumberHorizontalAlignCenter@@YAPAU_object@@PAU1@0@Z ; wndNumberSetNumberHorizontalAlignCenter
PUBLIC	?wndNumberSetNumberHorizontalAlignRight@@YAPAU_object@@PAU1@0@Z ; wndNumberSetNumberHorizontalAlignRight
PUBLIC	?wndNumberSetNumberVerticalAlignCenter@@YAPAU_object@@PAU1@0@Z ; wndNumberSetNumberVerticalAlignCenter
PUBLIC	?wndNumberSetPath@@YAPAU_object@@PAU1@0@Z	; wndNumberSetPath
PUBLIC	?wndMarkBox_SetImageFilename@@YAPAU_object@@PAU1@0@Z ; wndMarkBox_SetImageFilename
PUBLIC	?wndMarkBox_SetImage@@YAPAU_object@@PAU1@0@Z	; wndMarkBox_SetImage
PUBLIC	?wndMarkBox_Load@@YAPAU_object@@PAU1@0@Z	; wndMarkBox_Load
PUBLIC	?wndMarkBox_SetIndex@@YAPAU_object@@PAU1@0@Z	; wndMarkBox_SetIndex
PUBLIC	?wndMarkBox_SetScale@@YAPAU_object@@PAU1@0@Z	; wndMarkBox_SetScale
PUBLIC	?wndMarkBox_SetDiffuseColor@@YAPAU_object@@PAU1@0@Z ; wndMarkBox_SetDiffuseColor
PUBLIC	?wndImageLoadImage@@YAPAU_object@@PAU1@0@Z	; wndImageLoadImage
PUBLIC	?wndImageSetDiffuseColor@@YAPAU_object@@PAU1@0@Z ; wndImageSetDiffuseColor
PUBLIC	?wndImageGetWidth@@YAPAU_object@@PAU1@0@Z	; wndImageGetWidth
PUBLIC	?wndImageGetHeight@@YAPAU_object@@PAU1@0@Z	; wndImageGetHeight
PUBLIC	?wndImageGetTexturePtr@@YAPAU_object@@PAU1@0@Z	; wndImageGetTexturePtr
PUBLIC	?wndImageSetScale@@YAPAU_object@@PAU1@0@Z	; wndImageSetScale
PUBLIC	?wndImageSetOrigin@@YAPAU_object@@PAU1@0@Z	; wndImageSetOrigin
PUBLIC	?wndImageSetRotation@@YAPAU_object@@PAU1@0@Z	; wndImageSetRotation
PUBLIC	?wndImageSetRenderingMode@@YAPAU_object@@PAU1@0@Z ; wndImageSetRenderingMode
PUBLIC	?wndImageSetDelay@@YAPAU_object@@PAU1@0@Z	; wndImageSetDelay
PUBLIC	?wndImageGetDelay@@YAPAU_object@@PAU1@0@Z	; wndImageGetDelay
PUBLIC	?wndImageAppendImage@@YAPAU_object@@PAU1@0@Z	; wndImageAppendImage
PUBLIC	?wndImageResetFrame@@YAPAU_object@@PAU1@0@Z	; wndImageResetFrame
PUBLIC	?wndButtonSetUpVisual@@YAPAU_object@@PAU1@0@Z	; wndButtonSetUpVisual
PUBLIC	?wndButtonSetOverVisual@@YAPAU_object@@PAU1@0@Z	; wndButtonSetOverVisual
PUBLIC	?wndButtonSetDownVisual@@YAPAU_object@@PAU1@0@Z	; wndButtonSetDownVisual
PUBLIC	?wndButtonSetDisableVisual@@YAPAU_object@@PAU1@0@Z ; wndButtonSetDisableVisual
PUBLIC	?wndButtonGetUpVisualFileName@@YAPAU_object@@PAU1@0@Z ; wndButtonGetUpVisualFileName
PUBLIC	?wndButtonGetOverVisualFileName@@YAPAU_object@@PAU1@0@Z ; wndButtonGetOverVisualFileName
PUBLIC	?wndButtonGetDownVisualFileName@@YAPAU_object@@PAU1@0@Z ; wndButtonGetDownVisualFileName
PUBLIC	?wndButtonFlash@@YAPAU_object@@PAU1@0@Z		; wndButtonFlash
PUBLIC	?wndButtonEnable@@YAPAU_object@@PAU1@0@Z	; wndButtonEnable
PUBLIC	?wndButtonDisable@@YAPAU_object@@PAU1@0@Z	; wndButtonDisable
PUBLIC	?wndButtonIsEnabled@@YAPAU_object@@PAU1@0@Z	; wndButtonIsEnabled
PUBLIC	?wndButtonDown@@YAPAU_object@@PAU1@0@Z		; wndButtonDown
PUBLIC	?wndButtonSetUp@@YAPAU_object@@PAU1@0@Z		; wndButtonSetUp
PUBLIC	?wndButtonSetRestrictMovementArea@@YAPAU_object@@PAU1@0@Z ; wndButtonSetRestrictMovementArea
PUBLIC	?wndButtonIsDown@@YAPAU_object@@PAU1@0@Z	; wndButtonIsDown
PUBLIC	?wndMgrSetOutlineFlag@@YAPAU_object@@PAU1@0@Z	; wndMgrSetOutlineFlag
PUBLIC	?wndMgrShowOverInWindowName@@YAPAU_object@@PAU1@0@Z ; wndMgrShowOverInWindowName
PUBLIC	?wndMgrIsActivatedSlot@@YAPAU_object@@PAU1@0@Z	; wndMgrIsActivatedSlot
PUBLIC	?wndMgrGetSlotCoolTime@@YAPAU_object@@PAU1@0@Z	; wndMgrGetSlotCoolTime
PUBLIC	?wndMgrEnableSlotCoverImage@@YAPAU_object@@PAU1@0@Z ; wndMgrEnableSlotCoverImage
PUBLIC	?wndMgrDisableSlotCoverImage@@YAPAU_object@@PAU1@0@Z ; wndMgrDisableSlotCoverImage
PUBLIC	?wndMgrActivateChangeLookSlot@@YAPAU_object@@PAU1@0@Z ; wndMgrActivateChangeLookSlot
PUBLIC	?wndMgrDeactivateChangeLookSlot@@YAPAU_object@@PAU1@0@Z ; wndMgrDeactivateChangeLookSlot
PUBLIC	?wndMgrGetItemIndex@@YAPAU_object@@PAU1@0@Z	; wndMgrGetItemIndex
PUBLIC	?wndMgrRegisterWikiRenderTarget@@YAPAU_object@@PAU1@0@Z ; wndMgrRegisterWikiRenderTarget
PUBLIC	?wndMgrSetInsideRender@@YAPAU_object@@PAU1@0@Z	; wndMgrSetInsideRender
PUBLIC	?wndSetRenderingRect@@YAPAU_object@@PAU1@0@Z	; wndSetRenderingRect
PUBLIC	?wndMgrGetRenderBox@@YAPAU_object@@PAU1@0@Z	; wndMgrGetRenderBox
PUBLIC	?wndMgrSetWikiRenderTarget@@YAPAU_object@@PAU1@0@Z ; wndMgrSetWikiRenderTarget
PUBLIC	?wndTextSetFixedRenderPos@@YAPAU_object@@PAU1@0@Z ; wndTextSetFixedRenderPos
PUBLIC	?wndTextGetRenderPos@@YAPAU_object@@PAU1@0@Z	; wndTextGetRenderPos
PUBLIC	?wndImageUnloadImage@@YAPAU_object@@PAU1@0@Z	; wndImageUnloadImage
PUBLIC	?wndMgrRegisterRenderTarget@@YAPAU_object@@PAU1@0@Z ; wndMgrRegisterRenderTarget
PUBLIC	?wndRenderTargetLoadImage@@YAPAU_object@@PAU1@0@Z ; wndRenderTargetLoadImage
PUBLIC	?wndRenderTargetSetRenderTarget@@YAPAU_object@@PAU1@0@Z ; wndRenderTargetSetRenderTarget
PUBLIC	?wndRenderTargetSetRenderHair@@YAPAU_object@@PAU1@0@Z ; wndRenderTargetSetRenderHair
PUBLIC	?wndRenderTargetSetRenderArmor@@YAPAU_object@@PAU1@0@Z ; wndRenderTargetSetRenderArmor
PUBLIC	?wndRenderTargetSetRenderWeapon@@YAPAU_object@@PAU1@0@Z ; wndRenderTargetSetRenderWeapon
PUBLIC	?wndRenderTargetSetRenderSash@@YAPAU_object@@PAU1@0@Z ; wndRenderTargetSetRenderSash
PUBLIC	?wndRenderTargetSetRendererMotion@@YAPAU_object@@PAU1@0@Z ; wndRenderTargetSetRendererMotion
PUBLIC	?wndRenderTargetSetRenderDistance@@YAPAU_object@@PAU1@0@Z ; wndRenderTargetSetRenderDistance
PUBLIC	?wndRenderTargetGetRenderDistance@@YAPAU_object@@PAU1@0@Z ; wndRenderTargetGetRenderDistance
PUBLIC	?wndRenderTargetSetLightPosition@@YAPAU_object@@PAU1@0@Z ; wndRenderTargetSetLightPosition
PUBLIC	?wndRenderTargetGetLightPosition@@YAPAU_object@@PAU1@0@Z ; wndRenderTargetGetLightPosition
PUBLIC	?wndRenderTargetSetRotation@@YAPAU_object@@PAU1@0@Z ; wndRenderTargetSetRotation
PUBLIC	?wndRenderTargetGetRotation@@YAPAU_object@@PAU1@0@Z ; wndRenderTargetGetRotation
PUBLIC	?wndRenderTargetSetRotationMode@@YAPAU_object@@PAU1@0@Z ; wndRenderTargetSetRotationMode
PUBLIC	?wndRenderTargetDestroyRender@@YAPAU_object@@PAU1@0@Z ; wndRenderTargetDestroyRender
PUBLIC	?wndMgrLockCursor@@YAPAU_object@@PAU1@0@Z	; wndMgrLockCursor
PUBLIC	?wndMgrUnlockCursor@@YAPAU_object@@PAU1@0@Z	; wndMgrUnlockCursor
PUBLIC	?wndMgrSetSlotBaseImageScale@@YAPAU_object@@PAU1@0@Z ; wndMgrSetSlotBaseImageScale
PUBLIC	?wndMgrSetSlotScale@@YAPAU_object@@PAU1@0@Z	; wndMgrSetSlotScale
PUBLIC	?wndMgrSetCoolTimeImageBox@@YAPAU_object@@PAU1@0@Z ; wndMgrSetCoolTimeImageBox
PUBLIC	?wndMgrSetStartCoolTimeImageBox@@YAPAU_object@@PAU1@0@Z ; wndMgrSetStartCoolTimeImageBox
PUBLIC	??$_Is_all_bits_zero@M@std@@YA_NABM@Z		; std::_Is_all_bits_zero<float>
PUBLIC	??$_Fill_zero_memset@PAM@std@@YAXPAMI@Z		; std::_Fill_zero_memset<float *>
PUBLIC	?_OptionsStorage@?1??__local_stdio_printf_options@@9@4_KA ; `__local_stdio_printf_options'::`2'::_OptionsStorage
PUBLIC	??_7exception@std@@6B@				; std::exception::`vftable'
PUBLIC	??_C@_0BC@EOODALEL@Unknown?5exception@		; `string'
PUBLIC	??_7bad_alloc@std@@6B@				; std::bad_alloc::`vftable'
PUBLIC	??_7bad_array_new_length@std@@6B@		; std::bad_array_new_length::`vftable'
PUBLIC	??_C@_0BF@KINCDENJ@bad?5array?5new?5length@	; `string'
PUBLIC	__TI3?AVbad_array_new_length@std@@
PUBLIC	__CTA3?AVbad_array_new_length@std@@
PUBLIC	??_R0?AVbad_array_new_length@std@@@8		; std::bad_array_new_length `RTTI Type Descriptor'
PUBLIC	__CT??_R0?AVbad_array_new_length@std@@@8??0bad_array_new_length@std@@QAE@ABV01@@Z12
PUBLIC	??_R0?AVbad_alloc@std@@@8			; std::bad_alloc `RTTI Type Descriptor'
PUBLIC	__CT??_R0?AVbad_alloc@std@@@8??0bad_alloc@std@@QAE@ABV01@@Z12
PUBLIC	??_R0?AVexception@std@@@8			; std::exception `RTTI Type Descriptor'
PUBLIC	__CT??_R0?AVexception@std@@@8??0exception@std@@QAE@ABV01@@Z12
PUBLIC	?ms_singleton@?$CSingleton@VCWindowManager@UI@@@@0PAVCWindowManager@UI@@A ; CSingleton<UI::CWindowManager>::ms_singleton
PUBLIC	??_C@_0BA@FOIKENOD@vector?5too?5long@		; `string'
PUBLIC	??_R4exception@std@@6B@				; std::exception::`RTTI Complete Object Locator'
PUBLIC	??_R3exception@std@@8				; std::exception::`RTTI Class Hierarchy Descriptor'
PUBLIC	??_R2exception@std@@8				; std::exception::`RTTI Base Class Array'
PUBLIC	??_R1A@?0A@EA@exception@std@@8			; std::exception::`RTTI Base Class Descriptor at (0,-1,0,64)'
PUBLIC	??_R4bad_alloc@std@@6B@				; std::bad_alloc::`RTTI Complete Object Locator'
PUBLIC	??_R3bad_alloc@std@@8				; std::bad_alloc::`RTTI Class Hierarchy Descriptor'
PUBLIC	??_R2bad_alloc@std@@8				; std::bad_alloc::`RTTI Base Class Array'
PUBLIC	??_R1A@?0A@EA@bad_alloc@std@@8			; std::bad_alloc::`RTTI Base Class Descriptor at (0,-1,0,64)'
PUBLIC	??_R4bad_array_new_length@std@@6B@		; std::bad_array_new_length::`RTTI Complete Object Locator'
PUBLIC	??_R3bad_array_new_length@std@@8		; std::bad_array_new_length::`RTTI Class Hierarchy Descriptor'
PUBLIC	??_R2bad_array_new_length@std@@8		; std::bad_array_new_length::`RTTI Base Class Array'
PUBLIC	??_R1A@?0A@EA@bad_array_new_length@std@@8	; std::bad_array_new_length::`RTTI Base Class Descriptor at (0,-1,0,64)'
PUBLIC	??_C@_01INIBCBCB@f@				; `string'
PUBLIC	??_C@_01KBJDNOO@i@				; `string'
PUBLIC	??_C@_01OJONOECF@b@				; `string'
PUBLIC	??_C@_01LKDEMHDF@s@				; `string'
PUBLIC	??_C@_02PDIHAGKM@ii@				; `string'
PUBLIC	??_C@_04BIOIIFBG@iiii@				; `string'
PUBLIC	??_C@_02OIKAIHIF@s?$CD@				; `string'
PUBLIC	??_C@_08GKKIIJO@moveable@			; `string'
PUBLIC	??_C@_08KCAGBJHE@dragable@			; `string'
PUBLIC	??_C@_06LHJMGKLI@attach@			; `string'
PUBLIC	??_C@_0L@KAJDFNK@restrict_x@			; `string'
PUBLIC	??_C@_0L@BDBCAEJL@restrict_y@			; `string'
PUBLIC	??_C@_05KNFBNCOH@float@				; `string'
PUBLIC	??_C@_08BCAHNCDJ@not_pick@			; `string'
PUBLIC	??_C@_0M@HHFJIJHL@ignore_size@			; `string'
PUBLIC	??_C@_03IFDNKMND@rtl@				; `string'
PUBLIC	??_C@_07NLKEJFGN@animate@			; `string'
PUBLIC	??_C@_07BNIMILPP@movable@			; `string'
PUBLIC	??_C@_05GADAOHMC@limit@				; `string'
PUBLIC	??_C@_03OBLKLDKA@ltr@				; `string'
PUBLIC	??_C@_0BH@KIGIHPAM@Unknown?5window?5flag?5?$CFs@ ; `string'
PUBLIC	??_C@_0CH@FFGFLEBP@wndMgr?4ArrangeSlot?5?3?5not?5a?5grid@ ; `string'
PUBLIC	??_C@_0CH@HCFLPGH@wndMgr?4ArrangeSlot?5?3?5not?5a?5slot@ ; `string'
PUBLIC	??_C@_04INACLLOK@?$CIii?$CJ@			; `string'
PUBLIC	??_C@_03GLKMLICL@iii@				; `string'
PUBLIC	??_C@_0CE@HBOEBFCG@Failed?5to?5load?5image?5?$CIfilename?3@ ; `string'
PUBLIC	??_C@_02HPEDFNFO@ff@				; `string'
PUBLIC	??_C@_0BJ@DFGPKJEH@Failed?5to?5load?5image?3?5?$CFs@ ; `string'
PUBLIC	??_C@_03LPALPDIP@fff@				; `string'
PUBLIC	??_C@_0CF@BAOIDONM@wndMgr?4ArrangeSlot?3not?5a?5slot?5w@ ; `string'
PUBLIC	??_C@_0DC@NJMLLDNJ@d?3?1ymir?5work?1ui?1game?112zi?1time_@ ; `string'
PUBLIC	??_C@_0DB@CIHHCLAG@d?3?1ymir?5work?1ui?1game?112zi?1time_@ ; `string'
PUBLIC	??_C@_0BA@PPCHHCMN@SetMouseHandler@		; `string'
PUBLIC	??_C@_0O@EPGNIIPM@SetScreenSize@		; `string'
PUBLIC	??_C@_0P@OBMNGDMB@GetScreenWidth@		; `string'
PUBLIC	??_C@_0BA@PLLJJDCL@GetScreenHeight@		; `string'
PUBLIC	??_C@_0L@FHGOOMIM@AttachIcon@			; `string'
PUBLIC	??_C@_0N@HIMEHEBA@DeattachIcon@			; `string'
PUBLIC	??_C@_0BB@OJBFCDNH@SetAttachingFlag@		; `string'
PUBLIC	??_C@_09MFNPPPAG@GetAspect@			; `string'
PUBLIC	??_C@_0N@PCIKAOKG@GetHyperlink@			; `string'
PUBLIC	??_C@_0CB@JDNFNFMG@OnceIgnoreMouseLeftButtonUpEven@ ; `string'
PUBLIC	??_C@_08LFIJLPOM@Register@			; `string'
PUBLIC	??_C@_0BD@HNEHNBHO@RegisterSlotWindow@		; `string'
PUBLIC	??_C@_0BH@HHDOCCCO@RegisterGridSlotWindow@	; `string'
PUBLIC	??_C@_0BB@JKLFNGCE@RegisterTextLine@		; `string'
PUBLIC	??_C@_0BA@BLOHJECG@RegisterMarkBox@		; `string'
PUBLIC	??_C@_0BB@CGJHKCPO@RegisterImageBox@		; `string'
PUBLIC	??_C@_0BJ@HCLPCLBM@RegisterExpandedImageBox@	; `string'
PUBLIC	??_C@_0BE@EHOJIJPF@RegisterAniImageBox@		; `string'
PUBLIC	??_C@_0P@HIFEMCKE@RegisterButton@		; `string'
PUBLIC	??_C@_0BE@LOKOGAFI@RegisterRadioButton@		; `string'
PUBLIC	??_C@_0BF@LKPDMOKE@RegisterToggleButton@	; `string'
PUBLIC	??_C@_0BD@FJKAFMBK@RegisterDragButton@		; `string'
PUBLIC	??_C@_0M@MCLBEPNH@RegisterBox@			; `string'
PUBLIC	??_C@_0M@DCMAIKFH@RegisterBar@			; `string'
PUBLIC	??_C@_0N@ICAPFHKF@RegisterLine@			; `string'
PUBLIC	??_C@_0O@EKKPECKF@RegisterBar3D@		; `string'
PUBLIC	??_C@_0BD@DBAMBKME@RegisterNumberLine@		; `string'
PUBLIC	??_C@_07BDCAJABG@Destroy@			; `string'
PUBLIC	??_C@_07FGJMHOHK@AddFlag@			; `string'
PUBLIC	??_C@_0L@DFOIPDPL@RemoveFlag@			; `string'
PUBLIC	??_C@_05IOGFNOKL@IsRTL@				; `string'
PUBLIC	??_C@_07DEJFEJPJ@SetName@			; `string'
PUBLIC	??_C@_07MMGEHGCI@GetName@			; `string'
PUBLIC	??_C@_06MBOGGFD@SetTop@				; `string'
PUBLIC	??_C@_05PAMDPCPJ@IsTop@				; `string'
PUBLIC	??_C@_04JLAJABDJ@Show@				; `string'
PUBLIC	??_C@_04EACEFPPN@Hide@				; `string'
PUBLIC	??_C@_06JMGCGGJP@IsShow@			; `string'
PUBLIC	??_C@_09BGDFCKEN@SetParent@			; `string'
PUBLIC	??_C@_0O@PGINCMBF@SetPickAlways@		; `string'
PUBLIC	??_C@_07MMFHOCGI@IsFocus@			; `string'
PUBLIC	??_C@_08GPNNBNIL@SetFocus@			; `string'
PUBLIC	??_C@_09PMGFBOMK@KillFocus@			; `string'
PUBLIC	??_C@_04LADJNOK@Lock@				; `string'
PUBLIC	??_C@_06NCJPDCLH@Unlock@			; `string'
PUBLIC	??_C@_0O@OOGBNGFB@SetWindowSize@		; `string'
PUBLIC	??_C@_0BC@CONADAIE@SetWindowPosition@		; `string'
PUBLIC	??_C@_0P@EJALLAMK@GetWindowWidth@		; `string'
PUBLIC	??_C@_0BA@GMMDIMHA@GetWindowHeight@		; `string'
PUBLIC	??_C@_0BH@KEOBHEHD@GetWindowLocalPosition@	; `string'
PUBLIC	??_C@_0BI@NOJPNPDO@GetWindowGlobalPosition@	; `string'
PUBLIC	??_C@_0O@KGOHEIMB@GetWindowRect@		; `string'
PUBLIC	??_C@_0BJ@FGPBHCAH@SetWindowHorizontalAlign@	; `string'
PUBLIC	??_C@_0BH@KDPMNJIB@SetWindowVerticalAlign@	; `string'
PUBLIC	??_C@_0O@HMBCELHA@GetChildCount@		; `string'
PUBLIC	??_C@_0P@GEIEEBJH@IsPickedWindow@		; `string'
PUBLIC	??_C@_04JBIBMNMO@IsIn@				; `string'
PUBLIC	??_C@_0BG@NHBHOLBI@GetMouseLocalPosition@	; `string'
PUBLIC	??_C@_0BB@MMLACOLH@GetMousePosition@		; `string'
PUBLIC	??_C@_0L@HEPBODCJ@IsDragging@			; `string'
PUBLIC	??_C@_0N@CCOOMDHD@SetLimitBias@			; `string'
PUBLIC	??_C@_0L@HJOBPCKA@UpdateRect@			; `string'
PUBLIC	??_C@_0L@FDCINHBF@AppendSlot@			; `string'
PUBLIC	??_C@_0M@OFNEHKDL@ArrangeSlot@			; `string'
PUBLIC	??_C@_09CGBENBJB@ClearSlot@			; `string'
PUBLIC	??_C@_0N@MMOLDNHK@ClearAllSlot@			; `string'
PUBLIC	??_C@_07MGEJAMLP@HasSlot@			; `string'
PUBLIC	??_C@_07ONCDFGJ@SetSlot@			; `string'
PUBLIC	??_C@_0N@IEAMEDFH@SetSlotCount@			; `string'
PUBLIC	??_C@_0BA@OOLIKBKI@SetSlotCountNew@		; `string'
PUBLIC	??_C@_0BA@OKBNFKML@SetSlotCoolTime@		; `string'
PUBLIC	??_C@_0O@FJKNHKBL@SetToggleSlot@		; `string'
PUBLIC	??_C@_0N@HFCIPMIE@ActivateSlot@			; `string'
PUBLIC	??_C@_0P@FGAIANEO@DeactivateSlot@		; `string'
PUBLIC	??_C@_0BA@GGAABDOP@NewActivateSlot@		; `string'
PUBLIC	??_C@_0BC@OALEFDOD@NewDeactivateSlot@		; `string'
PUBLIC	??_C@_0L@DHCLIIGL@EnableSlot@			; `string'
PUBLIC	??_C@_0M@EKMKGECP@DisableSlot@			; `string'
PUBLIC	??_C@_0BA@PMAALDEC@SetUnusableSlot@		; `string'
PUBLIC	??_C@_0O@JOELLDFD@SetUsableSlot@		; `string'
PUBLIC	??_C@_0BC@DHCKDEOK@ShowSlotBaseImage@		; `string'
PUBLIC	??_C@_0BC@NFMHNFLM@HideSlotBaseImage@		; `string'
PUBLIC	??_C@_0M@KHOHGEMH@SetSlotType@			; `string'
PUBLIC	??_C@_0N@IKGBKPJJ@SetSlotStyle@			; `string'
PUBLIC	??_C@_0BB@IOMAJEMI@SetSlotBaseImage@		; `string'
PUBLIC	??_C@_0P@JKHNGGPA@SetCoverButton@		; `string'
PUBLIC	??_C@_0BC@GDLBPCHF@EnableCoverButton@		; `string'
PUBLIC	??_C@_0BD@DOJCOOMI@DisableCoverButton@		; `string'
PUBLIC	??_C@_0BF@ILDMDDMH@IsDisableCoverButton@	; `string'
PUBLIC	??_C@_0BL@PAFAGEGB@SetAlwaysRenderCoverButton@	; `string'
PUBLIC	??_C@_0BC@POMJDPJH@DeleteCoverButton@		; `string'
PUBLIC	??_C@_0P@BOOMPDBD@GetSlotIndices@		; `string'
PUBLIC	??_C@_0BB@LLDDGEIL@AppendSlotButton@		; `string'
PUBLIC	??_C@_0BL@CCGBCIBD@AppendRequirementSignImage@	; `string'
PUBLIC	??_C@_0P@CINLEJEK@ShowSlotButton@		; `string'
PUBLIC	??_C@_0BC@IHMDJONI@HideAllSlotButton@		; `string'
PUBLIC	??_C@_0BE@IGOEKEDL@ShowRequirementSign@		; `string'
PUBLIC	??_C@_0BE@LNAIGOOK@HideRequirementSign@		; `string'
PUBLIC	??_C@_0M@NAPCHMAM@RefreshSlot@			; `string'
PUBLIC	??_C@_0L@ODKIIGJF@SetUseMode@			; `string'
PUBLIC	??_C@_09LLPJGKLN@IsUseMode@			; `string'
PUBLIC	??_C@_0O@LHCBGPMO@SetUsableItem@		; `string'
PUBLIC	??_C@_0N@GPNIKFEM@IsUsableItem@			; `string'
PUBLIC	??_C@_0O@KGCGGKBF@SetSwitchMode@		; `string'
PUBLIC	??_C@_0N@HONPKAJH@IsSwitchMode@			; `string'
PUBLIC	??_C@_0BC@DNDCFHHB@SetSwitchableItem@		; `string'
PUBLIC	??_C@_0BB@KLCMDKEF@IsSwitchableItem@		; `string'
PUBLIC	??_C@_0BE@NIFHGONC@GetPickedSlotNumber@		; `string'
PUBLIC	??_C@_0BJ@MHPLGOEE@SetSlotHighlightedGreeen@	; `string'
PUBLIC	??_C@_0BM@HGKBMEM@DisableSlotHighlightedGreen@	; `string'
PUBLIC	??_C@_0L@EMMADCIN@SelectSlot@			; `string'
PUBLIC	??_C@_0O@OGHLMGNI@ClearSelected@		; `string'
PUBLIC	??_C@_0BF@EECMELAK@GetSelectedSlotCount@	; `string'
PUBLIC	??_C@_0BG@DJKADEKA@GetSelectedSlotNumber@	; `string'
PUBLIC	??_C@_0P@GKJOEMLC@IsSelectedSlot@		; `string'
PUBLIC	??_C@_0N@PALCIPBL@GetSlotCount@			; `string'
PUBLIC	??_C@_08PGGNMNPL@LockSlot@			; `string'
PUBLIC	??_C@_0L@DPNFKPLP@UnlockSlot@			; `string'
PUBLIC	??_C@_08GPNJILIJ@SetColor@			; `string'
PUBLIC	??_C@_06ODEINJEE@SetMax@			; `string'
PUBLIC	??_C@_0BD@FCLDCEMA@SetHorizontalAlign@		; `string'
PUBLIC	??_C@_0BB@NKHPOFIC@SetVerticalAlign@		; `string'
PUBLIC	??_C@_09CAFHEMDD@SetSecret@			; `string'
PUBLIC	??_C@_0L@HBNEJDMM@SetOutline@			; `string'
PUBLIC	??_C@_0L@LLKEFHFA@SetFeather@			; `string'
PUBLIC	??_C@_0N@FKMHLJHG@SetMultiLine@			; `string'
PUBLIC	??_C@_07NIJDBDAG@SetText@			; `string'
PUBLIC	??_C@_0BF@ECGKBOOD@GetSpecificTextWidth@	; `string'
PUBLIC	??_C@_0M@MCELKPNO@SetFontName@			; `string'
PUBLIC	??_C@_0N@MKCFOAAE@SetFontColor@			; `string'
PUBLIC	??_C@_0O@FIAFKHF@SetLimitWidth@			; `string'
PUBLIC	??_C@_07CAGCCMNH@GetText@			; `string'
PUBLIC	??_C@_0M@CLFAHCCE@SetClipRect@			; `string'
PUBLIC	??_C@_0M@JOAAGILP@GetTextSize@			; `string'
PUBLIC	??_C@_0L@BIENLPGM@ShowCursor@			; `string'
PUBLIC	??_C@_0L@MGJDDPFG@HideCursor@			; `string'
PUBLIC	??_C@_0BC@DJJGDMOB@GetCursorPosition@		; `string'
PUBLIC	??_C@_0BI@OPEAHLID@GetCharPositionByCursor@	; `string'
PUBLIC	??_C@_0BN@OOPFPLJK@TextPositionToRenderPosition@ ; `string'
PUBLIC	??_C@_09JMPLPNNO@SetNumber@			; `string'
PUBLIC	??_C@_0BP@JHALFFJF@SetNumberHorizontalAlignCenter@ ; `string'
PUBLIC	??_C@_0BO@FBBAAHKK@SetNumberHorizontalAlignRight@ ; `string'
PUBLIC	??_C@_0BN@MCDEBAKA@SetNumberVerticalAlignCenter@ ; `string'
PUBLIC	??_C@_07ENBMIGKI@SetPath@			; `string'
PUBLIC	??_C@_0BB@FMJJKPIM@MarkBox_SetImage@		; `string'
PUBLIC	??_C@_0BJ@PJODLBON@MarkBox_SetImageFilename@	; `string'
PUBLIC	??_C@_0N@FLKGJMCL@MarkBox_Load@			; `string'
PUBLIC	??_C@_0BB@NAAPJNBM@MarkBox_SetIndex@		; `string'
PUBLIC	??_C@_0BB@ENLBNPPB@MarkBox_SetScale@		; `string'
PUBLIC	??_C@_0BI@JCKPADLG@MarkBox_SetDiffuseColor@	; `string'
PUBLIC	??_C@_09OHOMMMHI@LoadImage@			; `string'
PUBLIC	??_C@_0BA@CAEBLOMF@SetDiffuseColor@		; `string'
PUBLIC	??_C@_08OMBILDHM@GetWidth@			; `string'
PUBLIC	??_C@_09EOGEIJMK@GetHeight@			; `string'
PUBLIC	??_C@_0O@IOPMOINL@GetTexturePtr@		; `string'
PUBLIC	??_C@_08FMFAIGAB@SetScale@			; `string'
PUBLIC	??_C@_09KLKDEBJ@SetOrigin@			; `string'
PUBLIC	??_C@_0M@GNIHGJGG@SetRotation@			; `string'
PUBLIC	??_C@_0BB@GIEHGKNO@SetRenderingMode@		; `string'
PUBLIC	??_C@_08NBAGFHFB@SetDelay@			; `string'
PUBLIC	??_C@_08CACKEECM@GetDelay@			; `string'
PUBLIC	??_C@_0M@BEJGDBIJ@AppendImage@			; `string'
PUBLIC	??_C@_0L@ELGKENBM@ResetFrame@			; `string'
PUBLIC	??_C@_0M@IIELPGEP@SetUpVisual@			; `string'
PUBLIC	??_C@_0O@KOIDMFK@SetOverVisual@			; `string'
PUBLIC	??_C@_0O@FLFAFPKP@SetDownVisual@		; `string'
PUBLIC	??_C@_0BB@JCGDBIB@SetDisableVisual@		; `string'
PUBLIC	??_C@_0BE@PHOOFGJI@GetUpVisualFileName@		; `string'
PUBLIC	??_C@_0BG@KEALLAJN@GetOverVisualFileName@	; `string'
PUBLIC	??_C@_0BG@FKDEILKI@GetDownVisualFileName@	; `string'
PUBLIC	??_C@_05LDPHIKKB@Flash@				; `string'
PUBLIC	??_C@_06CKGENIKG@Enable@			; `string'
PUBLIC	??_C@_07MIKIFGAL@Disable@			; `string'
PUBLIC	??_C@_09BDCHKIMD@IsEnabled@			; `string'
PUBLIC	??_C@_04FNCLCJMC@Down@				; `string'
PUBLIC	??_C@_05DEOAHOFO@SetUp@				; `string'
PUBLIC	??_C@_06FKEAEOGE@IsDown@			; `string'
PUBLIC	??_C@_0BI@KNEJFEOH@SetRestrictMovementArea@	; `string'
PUBLIC	??_C@_0P@MEHCKPID@SetOutlineFlag@		; `string'
PUBLIC	??_C@_0BF@LFOINEDC@ShowOverInWindowName@	; `string'
PUBLIC	??_C@_0BA@EABPFCGJ@IsActivatedSlot@		; `string'
PUBLIC	??_C@_0BA@NIALCINC@GetSlotCoolTime@		; `string'
PUBLIC	??_C@_0BF@KNCMHHOE@EnableSlotCoverImage@	; `string'
PUBLIC	??_C@_0BG@CELKDGNF@DisableSlotCoverImage@	; `string'
PUBLIC	??_C@_0BH@CMPCAGLC@ActivateChangeLookSlot@	; `string'
PUBLIC	??_C@_0BJ@MFMBAOFE@DeactivateChangeLookSlot@	; `string'
PUBLIC	??_C@_0N@GABOCBEH@GetItemIndex@			; `string'
PUBLIC	??_C@_0BJ@HMEHNAEN@RegisterWikiRenderTarget@	; `string'
PUBLIC	??_C@_0BA@HFECJDNA@SetInsideRender@		; `string'
PUBLIC	??_C@_0BB@LDNMLPHM@SetRenderingRect@		; `string'
PUBLIC	??_C@_0N@JBKJJOBF@GetRenderBox@			; `string'
PUBLIC	??_C@_0BE@OCBDOMML@SetWikiRenderTarget@		; `string'
PUBLIC	??_C@_0BC@FGODMHDE@SetFixedRenderPos@		; `string'
PUBLIC	??_C@_0N@IIENNIMK@GetRenderPos@			; `string'
PUBLIC	??_C@_0M@JGJEPBJD@UnloadImage@			; `string'
PUBLIC	??_C@_0N@BFHCIAEF@IsShowCursor@			; `string'
PUBLIC	??_C@_0BF@FGJJGJFC@RegisterRenderTarget@	; `string'
PUBLIC	??_C@_0N@LGPPCICH@RT_LoadImage@			; `string'
PUBLIC	??_C@_0BD@LAGHGCKG@RT_SetRenderTarget@		; `string'
PUBLIC	??_C@_0BB@PINGAENL@RT_SetRenderHair@		; `string'
PUBLIC	??_C@_0BC@JHCDNNMC@RT_SetRenderArmor@		; `string'
PUBLIC	??_C@_0BD@ENCKMHFE@RT_SetRenderWeapon@		; `string'
PUBLIC	??_C@_0BB@EOHKHODF@RT_SetRenderSash@		; `string'
PUBLIC	??_C@_0BD@KKAOCHFF@RT_SetRenderMotion@		; `string'
PUBLIC	??_C@_0BF@JPMOHCJJ@RT_SetRenderDistance@	; `string'
PUBLIC	??_C@_0BF@LKMFPJIH@RT_GetRenderDistance@	; `string'
PUBLIC	??_C@_0BE@DMCCDBML@RT_SetLightPosition@		; `string'
PUBLIC	??_C@_0BE@FIHLIPHJ@RT_GetLightPosition@		; `string'
PUBLIC	??_C@_0P@PHMDFPIP@RT_SetRotation@		; `string'
PUBLIC	??_C@_0P@PINNIJAM@RT_GetRotation@		; `string'
PUBLIC	??_C@_0BD@IFKGKLGB@RT_SetRotationMode@		; `string'
PUBLIC	??_C@_0BB@NHPNOOEJ@RT_DestroyRender@		; `string'
PUBLIC	??_C@_0L@KLPEDGI@LockCursor@			; `string'
PUBLIC	??_C@_0N@DNBGAAKF@UnlockCursor@			; `string'
PUBLIC	??_C@_0N@MNAMJLHL@SetSlotScale@			; `string'
PUBLIC	??_C@_0BG@FBLNLMGI@SetSlotBaseImageScale@	; `string'
PUBLIC	??_C@_0BE@BJJEKGM@SetCoolTimeImageBox@		; `string'
PUBLIC	??_C@_0BJ@OABJPDB@SetStartCoolTimeImageBox@	; `string'
PUBLIC	??_C@_06CMPPDHLC@wndMgr@			; `string'
PUBLIC	??_C@_0BA@CEBPCJJF@SLOT_STYLE_NONE@		; `string'
PUBLIC	??_C@_0BD@HIHLPNEG@SLOT_STYLE_PICK_UP@		; `string'
PUBLIC	??_C@_0BC@DPNNOEON@SLOT_STYLE_SELECT@		; `string'
PUBLIC	??_C@_0BL@KJOOHAME@TEXT_HORIZONTAL_ALIGN_LEFT@	; `string'
PUBLIC	??_C@_0BM@BDNLMDBC@TEXT_HORIZONTAL_ALIGN_RIGHT@	; `string'
PUBLIC	??_C@_0BN@MHHHIBEN@TEXT_HORIZONTAL_ALIGN_CENTER@ ; `string'
PUBLIC	??_C@_0BI@PIKJCBDF@TEXT_VERTICAL_ALIGN_TOP@	; `string'
PUBLIC	??_C@_0BL@IKMFEFFI@TEXT_VERTICAL_ALIGN_BOTTOM@	; `string'
PUBLIC	??_C@_0BL@GHLEGJOB@TEXT_VERTICAL_ALIGN_CENTER@	; `string'
PUBLIC	??_C@_0BG@CEANPPL@HORIZONTAL_ALIGN_LEFT@	; `string'
PUBLIC	??_C@_0BI@NJMALOKG@HORIZONTAL_ALIGN_CENTER@	; `string'
PUBLIC	??_C@_0BH@KFBGEAIA@HORIZONTAL_ALIGN_RIGHT@	; `string'
PUBLIC	??_C@_0BD@PBJDAEOI@VERTICAL_ALIGN_TOP@		; `string'
PUBLIC	??_C@_0BG@MMBKMGNO@VERTICAL_ALIGN_CENTER@	; `string'
PUBLIC	??_C@_0BG@CBGLOKGH@VERTICAL_ALIGN_BOTTOM@	; `string'
PUBLIC	??_C@_0BI@BNOJCJOH@RENDERING_MODE_MODULATE@	; `string'
PUBLIC	__real@437f0000
PUBLIC	__real@c2be0000
PUBLIC	__xmm@00000003000000040000000500000006
PUBLIC	__xmm@0000000700000008000000090000000a
PUBLIC	__xmm@0000000b0000000c0000000d0000000e
PUBLIC	__xmm@0000000f000000100000001100000012
PUBLIC	__xmm@00000013000000140000001500000016
PUBLIC	__xmm@0000001700000018000000190000001a
PUBLIC	__xmm@0000001b0000001c0000001d0000001e
PUBLIC	__xmm@0000001f000000200000002100000022
PUBLIC	__xmm@00000023000000240000002500000026
PUBLIC	__xmm@0000002700000028000000290000002a
PUBLIC	__xmm@0000002b0000002c0000002d0000002e
PUBLIC	__xmm@0000002f000000300000003100000032
PUBLIC	__xmm@00000033000000340000003500000036
PUBLIC	__xmm@0000003700000038000000390000003a
PUBLIC	__xmm@0000003b0000003c0000003d0000003e
PUBLIC	__xmm@0000003f000000400000004100000042
PUBLIC	__xmm@00000043000000440000004500000046
PUBLIC	__xmm@0000004700000048000000490000004a
PUBLIC	__xmm@0000004b0000004c0000004d0000004e
PUBLIC	__xmm@0000004f000000500000005100000052
PUBLIC	__xmm@00000053000000540000005500000056
PUBLIC	__xmm@0000005700000058000000590000005a
PUBLIC	__xmm@0000005b0000005c0000005d0000005e
PUBLIC	__xmm@3f8000003f8000003f8000003f800000
EXTRN	??2@YAPAXI@Z:PROC				; operator new
EXTRN	??3@YAXPAXI@Z:PROC				; operator delete
EXTRN	___report_rangecheckfailure:PROC
EXTRN	__invalid_parameter_noinfo_noreturn:PROC
EXTRN	___stdio_common_vsprintf:PROC
EXTRN	__stricmp:PROC
EXTRN	___std_exception_copy:PROC
EXTRN	___std_exception_destroy:PROC
EXTRN	??_Eexception@std@@UAEPAXI@Z:PROC		; std::exception::`vector deleting destructor'
EXTRN	??_Ebad_alloc@std@@UAEPAXI@Z:PROC		; std::bad_alloc::`vector deleting destructor'
EXTRN	??_Ebad_array_new_length@std@@UAEPAXI@Z:PROC	; std::bad_array_new_length::`vector deleting destructor'
EXTRN	?_Xlength_error@std@@YAXPBD@Z:PROC		; std::_Xlength_error
EXTRN	?TraceError@@YAXPBDZZ:PROC			; TraceError
EXTRN	__imp__PyTuple_New:PROC
EXTRN	__imp__PyTuple_Size:PROC
EXTRN	__imp__PyTuple_SetItem:PROC
EXTRN	__imp__Py_BuildValue:PROC
EXTRN	__imp__PyModule_AddIntConstant:PROC
EXTRN	__imp__Py_InitModule4:PROC
EXTRN	?PyTuple_GetString@@YA_NPAU_object@@HPAPAD@Z:PROC ; PyTuple_GetString
EXTRN	?PyTuple_GetInteger@@YA_NPAU_object@@HPAH@Z:PROC ; PyTuple_GetInteger
EXTRN	?PyTuple_GetByte@@YA_NPAU_object@@HPAE@Z:PROC	; PyTuple_GetByte
EXTRN	?PyTuple_GetLong@@YA_NPAU_object@@HPAJ@Z:PROC	; PyTuple_GetLong
EXTRN	?PyTuple_GetFloat@@YA_NPAU_object@@HPAM@Z:PROC	; PyTuple_GetFloat
EXTRN	?PyTuple_GetObject@@YA_NPAU_object@@HPAPAU1@@Z:PROC ; PyTuple_GetObject
EXTRN	?PyTuple_GetBoolean@@YA_NPAU_object@@HPA_N@Z:PROC ; PyTuple_GetBoolean
EXTRN	?Py_BuildException@@YAPAU_object@@PBDZZ:PROC	; Py_BuildException
EXTRN	?Py_BadArgument@@YAPAU_object@@XZ:PROC		; Py_BadArgument
EXTRN	?Py_BuildNone@@YAPAU_object@@XZ:PROC		; Py_BuildNone
EXTRN	?GetTexturePointer@CGraphicImageInstance@@QAEPAVCGraphicTexture@@XZ:PROC ; CGraphicImageInstance::GetTexturePointer
EXTRN	?Hyperlink_GetText@CGraphicTextInstance@@SAHPADH@Z:PROC ; CGraphicTextInstance::Hyperlink_GetText
EXTRN	?GetAspect@CWindowManager@UI@@QAEMXZ:PROC	; UI::CWindowManager::GetAspect
EXTRN	?SetScreenSize@CWindowManager@UI@@QAEXJJ@Z:PROC	; UI::CWindowManager::SetScreenSize
EXTRN	?SetMouseHandler@CWindowManager@UI@@QAEXPAU_object@@@Z:PROC ; UI::CWindowManager::SetMouseHandler
EXTRN	?GetMousePosition@CWindowManager@UI@@QAEXAAJ0@Z:PROC ; UI::CWindowManager::GetMousePosition
EXTRN	?IsDragging@CWindowManager@UI@@QAEHXZ:PROC	; UI::CWindowManager::IsDragging
EXTRN	?SetParent@CWindowManager@UI@@QAEXPAVCWindow@2@0@Z:PROC ; UI::CWindowManager::SetParent
EXTRN	?SetPickAlways@CWindowManager@UI@@QAEXPAVCWindow@2@@Z:PROC ; UI::CWindowManager::SetPickAlways
EXTRN	?RegisterWindow@CWindowManager@UI@@QAEPAVCWindow@2@PAU_object@@PBD@Z:PROC ; UI::CWindowManager::RegisterWindow
EXTRN	?RegisterSlotWindow@CWindowManager@UI@@QAEPAVCWindow@2@PAU_object@@PBD@Z:PROC ; UI::CWindowManager::RegisterSlotWindow
EXTRN	?RegisterGridSlotWindow@CWindowManager@UI@@QAEPAVCWindow@2@PAU_object@@PBD@Z:PROC ; UI::CWindowManager::RegisterGridSlotWindow
EXTRN	?RegisterTextLine@CWindowManager@UI@@QAEPAVCWindow@2@PAU_object@@PBD@Z:PROC ; UI::CWindowManager::RegisterTextLine
EXTRN	?RegisterMarkBox@CWindowManager@UI@@QAEPAVCWindow@2@PAU_object@@PBD@Z:PROC ; UI::CWindowManager::RegisterMarkBox
EXTRN	?RegisterImageBox@CWindowManager@UI@@QAEPAVCWindow@2@PAU_object@@PBD@Z:PROC ; UI::CWindowManager::RegisterImageBox
EXTRN	?RegisterExpandedImageBox@CWindowManager@UI@@QAEPAVCWindow@2@PAU_object@@PBD@Z:PROC ; UI::CWindowManager::RegisterExpandedImageBox
EXTRN	?RegisterAniImageBox@CWindowManager@UI@@QAEPAVCWindow@2@PAU_object@@PBD@Z:PROC ; UI::CWindowManager::RegisterAniImageBox
EXTRN	?RegisterButton@CWindowManager@UI@@QAEPAVCWindow@2@PAU_object@@PBD@Z:PROC ; UI::CWindowManager::RegisterButton
EXTRN	?RegisterRadioButton@CWindowManager@UI@@QAEPAVCWindow@2@PAU_object@@PBD@Z:PROC ; UI::CWindowManager::RegisterRadioButton
EXTRN	?RegisterToggleButton@CWindowManager@UI@@QAEPAVCWindow@2@PAU_object@@PBD@Z:PROC ; UI::CWindowManager::RegisterToggleButton
EXTRN	?RegisterDragButton@CWindowManager@UI@@QAEPAVCWindow@2@PAU_object@@PBD@Z:PROC ; UI::CWindowManager::RegisterDragButton
EXTRN	?RegisterBox@CWindowManager@UI@@QAEPAVCWindow@2@PAU_object@@PBD@Z:PROC ; UI::CWindowManager::RegisterBox
EXTRN	?RegisterWikiRenderTarget@CWindowManager@UI@@QAEPAVCWindow@2@PAU_object@@PBD@Z:PROC ; UI::CWindowManager::RegisterWikiRenderTarget
EXTRN	?RegisterBar@CWindowManager@UI@@QAEPAVCWindow@2@PAU_object@@PBD@Z:PROC ; UI::CWindowManager::RegisterBar
EXTRN	?RegisterLine@CWindowManager@UI@@QAEPAVCWindow@2@PAU_object@@PBD@Z:PROC ; UI::CWindowManager::RegisterLine
EXTRN	?RegisterBar3D@CWindowManager@UI@@QAEPAVCWindow@2@PAU_object@@PBD@Z:PROC ; UI::CWindowManager::RegisterBar3D
EXTRN	?RegisterNumberLine@CWindowManager@UI@@QAEPAVCWindow@2@PAU_object@@PBD@Z:PROC ; UI::CWindowManager::RegisterNumberLine
EXTRN	?RegisterRenderTarget@CWindowManager@UI@@QAEPAVCWindow@2@PAU_object@@PBD@Z:PROC ; UI::CWindowManager::RegisterRenderTarget
EXTRN	?DestroyWindow@CWindowManager@UI@@QAEXPAVCWindow@2@@Z:PROC ; UI::CWindowManager::DestroyWindow
EXTRN	?AttachIcon@CWindowManager@UI@@QAEXKKKEE@Z:PROC	; UI::CWindowManager::AttachIcon
EXTRN	?DeattachIcon@CWindowManager@UI@@QAEXXZ:PROC	; UI::CWindowManager::DeattachIcon
EXTRN	?SetAttachingFlag@CWindowManager@UI@@QAEXH@Z:PROC ; UI::CWindowManager::SetAttachingFlag
EXTRN	?OnceIgnoreMouseLeftButtonUpEvent@CWindowManager@UI@@QAEXXZ:PROC ; UI::CWindowManager::OnceIgnoreMouseLeftButtonUpEvent
EXTRN	?LockWindow@CWindowManager@UI@@QAEXPAVCWindow@2@@Z:PROC ; UI::CWindowManager::LockWindow
EXTRN	?UnlockWindow@CWindowManager@UI@@QAEXXZ:PROC	; UI::CWindowManager::UnlockWindow
EXTRN	?ActivateWindow@CWindowManager@UI@@QAEXPAVCWindow@2@@Z:PROC ; UI::CWindowManager::ActivateWindow
EXTRN	?DeactivateWindow@CWindowManager@UI@@QAEXXZ:PROC ; UI::CWindowManager::DeactivateWindow
EXTRN	?GetActivateWindow@CWindowManager@UI@@QAEPAVCWindow@2@XZ:PROC ; UI::CWindowManager::GetActivateWindow
EXTRN	?SetTop@CWindowManager@UI@@QAEXPAVCWindow@2@@Z:PROC ; UI::CWindowManager::SetTop
EXTRN	?IsTop@CWindowManager@UI@@QAE_NPAVCWindow@2@@Z:PROC ; UI::CWindowManager::IsTop
EXTRN	?LockCursorOnWindow@CWindowManager@UI@@QAEXPAVCWindow@2@@Z:PROC ; UI::CWindowManager::LockCursorOnWindow
EXTRN	?UnlockCursor@CWindowManager@UI@@QAEXPAVCWindow@2@@Z:PROC ; UI::CWindowManager::UnlockCursor
EXTRN	?IsType@CWindow@UI@@QAEHK@Z:PROC		; UI::CWindow::IsType
EXTRN	?SetName@CWindow@UI@@QAEXPBD@Z:PROC		; UI::CWindow::SetName
EXTRN	?SetSize@CWindow@UI@@QAEXJJ@Z:PROC		; UI::CWindow::SetSize
EXTRN	?SetHorizontalAlign@CWindow@UI@@QAEXK@Z:PROC	; UI::CWindow::SetHorizontalAlign
EXTRN	?SetVerticalAlign@CWindow@UI@@QAEXK@Z:PROC	; UI::CWindow::SetVerticalAlign
EXTRN	?SetPosition@CWindow@UI@@QAEXJJ@Z:PROC		; UI::CWindow::SetPosition
EXTRN	?GetPosition@CWindow@UI@@QAEXPAJ0@Z:PROC	; UI::CWindow::GetPosition
EXTRN	?GetMouseLocalPosition@CWindow@UI@@QAEXAAJ0@Z:PROC ; UI::CWindow::GetMouseLocalPosition
EXTRN	?UpdateRect@CWindow@UI@@QAEJXZ:PROC		; UI::CWindow::UpdateRect
EXTRN	?Show@CWindow@UI@@QAEXXZ:PROC			; UI::CWindow::Show
EXTRN	?Hide@CWindow@UI@@QAEXXZ:PROC			; UI::CWindow::Hide
EXTRN	?IsChild@CWindow@UI@@QAE_NPAV12@_N@Z:PROC	; UI::CWindow::IsChild
EXTRN	?SetInsideRender@CWindow@UI@@QAEXH@Z:PROC	; UI::CWindow::SetInsideRender
EXTRN	?GetRenderBox@CWindow@UI@@QAEXPAUtagRECT@@@Z:PROC ; UI::CWindow::GetRenderBox
EXTRN	?SetWikiRenderTargetModule@CUiWikiRenderTarget@UI@@QAE_NH@Z:PROC ; UI::CUiWikiRenderTarget::SetWikiRenderTargetModule
EXTRN	?Type@CBar3D@UI@@SAKXZ:PROC			; UI::CBar3D::Type
EXTRN	?SetColor@CBar3D@UI@@QAEXKKK@Z:PROC		; UI::CBar3D::SetColor
EXTRN	?Type@CTextLine@UI@@SAKXZ:PROC			; UI::CTextLine::Type
EXTRN	?SetMax@CTextLine@UI@@QAEXH@Z:PROC		; UI::CTextLine::SetMax
EXTRN	?SetHorizontalAlign@CTextLine@UI@@QAEXH@Z:PROC	; UI::CTextLine::SetHorizontalAlign
EXTRN	?SetVerticalAlign@CTextLine@UI@@QAEXH@Z:PROC	; UI::CTextLine::SetVerticalAlign
EXTRN	?SetSecret@CTextLine@UI@@QAEXH@Z:PROC		; UI::CTextLine::SetSecret
EXTRN	?SetOutline@CTextLine@UI@@QAEXH@Z:PROC		; UI::CTextLine::SetOutline
EXTRN	?SetFeather@CTextLine@UI@@QAEXH@Z:PROC		; UI::CTextLine::SetFeather
EXTRN	?SetMultiLine@CTextLine@UI@@QAEXH@Z:PROC	; UI::CTextLine::SetMultiLine
EXTRN	?SetFontName@CTextLine@UI@@QAEXPBD@Z:PROC	; UI::CTextLine::SetFontName
EXTRN	?SetFontColor@CTextLine@UI@@QAEXK@Z:PROC	; UI::CTextLine::SetFontColor
EXTRN	?SetLimitWidth@CTextLine@UI@@QAEXM@Z:PROC	; UI::CTextLine::SetLimitWidth
EXTRN	?ShowCursor@CTextLine@UI@@QAEXXZ:PROC		; UI::CTextLine::ShowCursor
EXTRN	?HideCursor@CTextLine@UI@@QAEXXZ:PROC		; UI::CTextLine::HideCursor
EXTRN	?IsShowCursor@CTextLine@UI@@QAE_NXZ:PROC	; UI::CTextLine::IsShowCursor
EXTRN	?GetCursorPosition@CTextLine@UI@@QAEHXZ:PROC	; UI::CTextLine::GetCursorPosition
EXTRN	?GetCharPositionByCursor@CTextLine@UI@@QAE?AV?$tuple@HHH@std@@H@Z:PROC ; UI::CTextLine::GetCharPositionByCursor
EXTRN	?TextPositionToRenderPosition@CTextLine@UI@@QAEHH@Z:PROC ; UI::CTextLine::TextPositionToRenderPosition
EXTRN	?SetText@CTextLine@UI@@QAEXPBD@Z:PROC		; UI::CTextLine::SetText
EXTRN	?GetText@CTextLine@UI@@QAEPBDXZ:PROC		; UI::CTextLine::GetText
EXTRN	?GetSpecificTextWidth@CTextLine@UI@@QAEHPBD@Z:PROC ; UI::CTextLine::GetSpecificTextWidth
EXTRN	?GetTextSize@CTextLine@UI@@QAEXPAH0@Z:PROC	; UI::CTextLine::GetTextSize
EXTRN	?Type@CNumberLine@UI@@SAKXZ:PROC		; UI::CNumberLine::Type
EXTRN	?SetPath@CNumberLine@UI@@QAEXPBD@Z:PROC		; UI::CNumberLine::SetPath
EXTRN	?SetHorizontalAlign@CNumberLine@UI@@QAEXH@Z:PROC ; UI::CNumberLine::SetHorizontalAlign
EXTRN	?SetVerticalAlign@CNumberLine@UI@@QAEXH@Z:PROC	; UI::CNumberLine::SetVerticalAlign
EXTRN	?SetNumber@CNumberLine@UI@@QAEXPBD@Z:PROC	; UI::CNumberLine::SetNumber
EXTRN	?SetDiffuseColor@CNumberLine@UI@@QAEXMMMM@Z:PROC ; UI::CNumberLine::SetDiffuseColor
EXTRN	?Type@CImageBox@UI@@SAKXZ:PROC			; UI::CImageBox::Type
EXTRN	?LoadImageA@CImageBox@UI@@QAEHPBD@Z:PROC	; UI::CImageBox::LoadImageA
EXTRN	?SetDiffuseColor@CImageBox@UI@@QAEXMMMM@Z:PROC	; UI::CImageBox::SetDiffuseColor
EXTRN	?GetWidth@CImageBox@UI@@QAEHXZ:PROC		; UI::CImageBox::GetWidth
EXTRN	?GetHeight@CImageBox@UI@@QAEHXZ:PROC		; UI::CImageBox::GetHeight
EXTRN	?SetRenderTarget@CRenderTarget@UI@@QAEXI@Z:PROC	; UI::CRenderTarget::SetRenderTarget
EXTRN	?SetRenderHair@CRenderTarget@UI@@QAEXI@Z:PROC	; UI::CRenderTarget::SetRenderHair
EXTRN	?SetRenderArmor@CRenderTarget@UI@@QAEXI@Z:PROC	; UI::CRenderTarget::SetRenderArmor
EXTRN	?SetRenderWeapon@CRenderTarget@UI@@QAEXI@Z:PROC	; UI::CRenderTarget::SetRenderWeapon
EXTRN	?SetRenderSash@CRenderTarget@UI@@QAEXI@Z:PROC	; UI::CRenderTarget::SetRenderSash
EXTRN	?SetRendererMotion@CRenderTarget@UI@@QAEXI@Z:PROC ; UI::CRenderTarget::SetRendererMotion
EXTRN	?SetRenderDistance@CRenderTarget@UI@@QAEXM@Z:PROC ; UI::CRenderTarget::SetRenderDistance
EXTRN	?GetRenderDistance@CRenderTarget@UI@@QAEMXZ:PROC ; UI::CRenderTarget::GetRenderDistance
EXTRN	?SetLightPosition@CRenderTarget@UI@@QAEXUD3DXVECTOR3@@@Z:PROC ; UI::CRenderTarget::SetLightPosition
EXTRN	?GetLightPosition@CRenderTarget@UI@@QBEABUD3DXVECTOR3@@XZ:PROC ; UI::CRenderTarget::GetLightPosition
EXTRN	?SetRotation@CRenderTarget@UI@@QAEXM@Z:PROC	; UI::CRenderTarget::SetRotation
EXTRN	?GetRotation@CRenderTarget@UI@@QAEMXZ:PROC	; UI::CRenderTarget::GetRotation
EXTRN	?SetRotationMode@CRenderTarget@UI@@QAEX_N@Z:PROC ; UI::CRenderTarget::SetRotationMode
EXTRN	?DestroyRender@CRenderTarget@UI@@QAEXXZ:PROC	; UI::CRenderTarget::DestroyRender
EXTRN	?LoadImageA@CMarkBox@UI@@QAEXPBD@Z:PROC		; UI::CMarkBox::LoadImageA
EXTRN	?SetDiffuseColor@CMarkBox@UI@@QAEXMMMM@Z:PROC	; UI::CMarkBox::SetDiffuseColor
EXTRN	?SetIndex@CMarkBox@UI@@QAEXI@Z:PROC		; UI::CMarkBox::SetIndex
EXTRN	?SetScale@CMarkBox@UI@@QAEXM@Z:PROC		; UI::CMarkBox::SetScale
EXTRN	?Type@CExpandedImageBox@UI@@SAKXZ:PROC		; UI::CExpandedImageBox::Type
EXTRN	?SetScale@CExpandedImageBox@UI@@QAEXMM@Z:PROC	; UI::CExpandedImageBox::SetScale
EXTRN	?SetOrigin@CExpandedImageBox@UI@@QAEXMM@Z:PROC	; UI::CExpandedImageBox::SetOrigin
EXTRN	?SetRotation@CExpandedImageBox@UI@@QAEXM@Z:PROC	; UI::CExpandedImageBox::SetRotation
EXTRN	?SetRenderingMode@CExpandedImageBox@UI@@QAEXH@Z:PROC ; UI::CExpandedImageBox::SetRenderingMode
EXTRN	?Type@CAniImageBox@UI@@SAKXZ:PROC		; UI::CAniImageBox::Type
EXTRN	?SetDelay@CAniImageBox@UI@@QAEXH@Z:PROC		; UI::CAniImageBox::SetDelay
EXTRN	?AppendImage@CAniImageBox@UI@@QAEXPBD@Z:PROC	; UI::CAniImageBox::AppendImage
EXTRN	?ResetFrame@CAniImageBox@UI@@QAEXXZ:PROC	; UI::CAniImageBox::ResetFrame
EXTRN	?Type@CButton@UI@@SAKXZ:PROC			; UI::CButton::Type
EXTRN	?SetUpVisual@CButton@UI@@QAEHPBD@Z:PROC		; UI::CButton::SetUpVisual
EXTRN	?SetOverVisual@CButton@UI@@QAEHPBD@Z:PROC	; UI::CButton::SetOverVisual
EXTRN	?SetDownVisual@CButton@UI@@QAEHPBD@Z:PROC	; UI::CButton::SetDownVisual
EXTRN	?SetDisableVisual@CButton@UI@@QAEHPBD@Z:PROC	; UI::CButton::SetDisableVisual
EXTRN	?GetUpVisualFileName@CButton@UI@@QAEPBDXZ:PROC	; UI::CButton::GetUpVisualFileName
EXTRN	?GetOverVisualFileName@CButton@UI@@QAEPBDXZ:PROC ; UI::CButton::GetOverVisualFileName
EXTRN	?GetDownVisualFileName@CButton@UI@@QAEPBDXZ:PROC ; UI::CButton::GetDownVisualFileName
EXTRN	?Flash@CButton@UI@@QAEXXZ:PROC			; UI::CButton::Flash
EXTRN	?Enable@CButton@UI@@QAEXXZ:PROC			; UI::CButton::Enable
EXTRN	?Disable@CButton@UI@@QAEXXZ:PROC		; UI::CButton::Disable
EXTRN	?SetUp@CButton@UI@@QAEXXZ:PROC			; UI::CButton::SetUp
EXTRN	?Down@CButton@UI@@QAEXXZ:PROC			; UI::CButton::Down
EXTRN	?IsDisable@CButton@UI@@QAEHXZ:PROC		; UI::CButton::IsDisable
EXTRN	?IsPressed@CButton@UI@@QAEHXZ:PROC		; UI::CButton::IsPressed
EXTRN	?SetRestrictMovementArea@CDragButton@UI@@QAEXHHHH@Z:PROC ; UI::CDragButton::SetRestrictMovementArea
EXTRN	?Type@CSlotWindow@UI@@SAKXZ:PROC		; UI::CSlotWindow::Type
EXTRN	?SetSlotType@CSlotWindow@UI@@QAEXK@Z:PROC	; UI::CSlotWindow::SetSlotType
EXTRN	?SetSlotStyle@CSlotWindow@UI@@QAEXK@Z:PROC	; UI::CSlotWindow::SetSlotStyle
EXTRN	?SetSlotBaseImageScale@CSlotWindow@UI@@QAEXPBDMMMMMM@Z:PROC ; UI::CSlotWindow::SetSlotBaseImageScale
EXTRN	?SetSlotScale@CSlotWindow@UI@@QAEXKKEEPAVCGraphicImage@@MMAAUD3DXCOLOR@@@Z:PROC ; UI::CSlotWindow::SetSlotScale
EXTRN	?AppendSlot@CSlotWindow@UI@@QAEXKHHHH@Z:PROC	; UI::CSlotWindow::AppendSlot
EXTRN	?SetCoverButton@CSlotWindow@UI@@QAEXKPBD000HH@Z:PROC ; UI::CSlotWindow::SetCoverButton
EXTRN	?SetSlotBaseImage@CSlotWindow@UI@@QAEXPBDMMMM@Z:PROC ; UI::CSlotWindow::SetSlotBaseImage
EXTRN	?AppendSlotButton@CSlotWindow@UI@@QAEXPBD00@Z:PROC ; UI::CSlotWindow::AppendSlotButton
EXTRN	?AppendRequirementSignImage@CSlotWindow@UI@@QAEXPBD@Z:PROC ; UI::CSlotWindow::AppendRequirementSignImage
EXTRN	?DeleteCoverButton@CSlotWindow@UI@@QAEXK@Z:PROC	; UI::CSlotWindow::DeleteCoverButton
EXTRN	?EnableCoverButton@CSlotWindow@UI@@QAEXK@Z:PROC	; UI::CSlotWindow::EnableCoverButton
EXTRN	?DisableCoverButton@CSlotWindow@UI@@QAEXK@Z:PROC ; UI::CSlotWindow::DisableCoverButton
EXTRN	?SetAlwaysRenderCoverButton@CSlotWindow@UI@@QAEXK_N@Z:PROC ; UI::CSlotWindow::SetAlwaysRenderCoverButton
EXTRN	?ShowSlotBaseImage@CSlotWindow@UI@@QAEXK@Z:PROC	; UI::CSlotWindow::ShowSlotBaseImage
EXTRN	?HideSlotBaseImage@CSlotWindow@UI@@QAEXK@Z:PROC	; UI::CSlotWindow::HideSlotBaseImage
EXTRN	?IsDisableCoverButton@CSlotWindow@UI@@QAEHK@Z:PROC ; UI::CSlotWindow::IsDisableCoverButton
EXTRN	?HasSlot@CSlotWindow@UI@@QAEHK@Z:PROC		; UI::CSlotWindow::HasSlot
EXTRN	?ClearAllSlot@CSlotWindow@UI@@QAEXXZ:PROC	; UI::CSlotWindow::ClearAllSlot
EXTRN	?ClearSlot@CSlotWindow@UI@@QAEXK@Z:PROC		; UI::CSlotWindow::ClearSlot
EXTRN	?SetSlot@CSlotWindow@UI@@QAEXKKEEPAVCGraphicImage@@AAUD3DXCOLOR@@@Z:PROC ; UI::CSlotWindow::SetSlot
EXTRN	?SetSlotCount@CSlotWindow@UI@@QAEXKK@Z:PROC	; UI::CSlotWindow::SetSlotCount
EXTRN	?SetSlotCountNew@CSlotWindow@UI@@QAEXKKK@Z:PROC	; UI::CSlotWindow::SetSlotCountNew
EXTRN	?SetSlotCoolTime@CSlotWindow@UI@@QAEXKMM@Z:PROC	; UI::CSlotWindow::SetSlotCoolTime
EXTRN	?ActivateSlot@CSlotWindow@UI@@QAEXKABV?$vector@MV?$allocator@M@std@@@std@@@Z:PROC ; UI::CSlotWindow::ActivateSlot
EXTRN	?NewActivateSlot@CSlotWindow@UI@@QAEXK@Z:PROC	; UI::CSlotWindow::NewActivateSlot
EXTRN	?DeactivateSlot@CSlotWindow@UI@@QAEXK@Z:PROC	; UI::CSlotWindow::DeactivateSlot
EXTRN	?NewDeactivateSlot@CSlotWindow@UI@@QAEXK@Z:PROC	; UI::CSlotWindow::NewDeactivateSlot
EXTRN	?RefreshSlot@CSlotWindow@UI@@QAEXXZ:PROC	; UI::CSlotWindow::RefreshSlot
EXTRN	?GetSlotIndincies@CSlotWindow@UI@@QAE?AV?$vector@IV?$allocator@I@std@@@std@@XZ:PROC ; UI::CSlotWindow::GetSlotIndincies
EXTRN	?GetSlotCoolTime@CSlotWindow@UI@@QAEMKPAM@Z:PROC ; UI::CSlotWindow::GetSlotCoolTime
EXTRN	?IsActivatedSlot@CSlotWindow@UI@@QAE_NK@Z:PROC	; UI::CSlotWindow::IsActivatedSlot
EXTRN	?EnableSlotCoverImage@CSlotWindow@UI@@QAEXK@Z:PROC ; UI::CSlotWindow::EnableSlotCoverImage
EXTRN	?DisableSlotCoverImage@CSlotWindow@UI@@QAEXK@Z:PROC ; UI::CSlotWindow::DisableSlotCoverImage
EXTRN	?ActivateChangeLookSlot@CSlotWindow@UI@@QAEXKE@Z:PROC ; UI::CSlotWindow::ActivateChangeLookSlot
EXTRN	?DeactivateChangeLookSlot@CSlotWindow@UI@@QAEXK@Z:PROC ; UI::CSlotWindow::DeactivateChangeLookSlot
EXTRN	?GetSlotCount@CSlotWindow@UI@@QAEKXZ:PROC	; UI::CSlotWindow::GetSlotCount
EXTRN	?LockSlot@CSlotWindow@UI@@QAEXKPBM@Z:PROC	; UI::CSlotWindow::LockSlot
EXTRN	?UnlockSlot@CSlotWindow@UI@@QAEXK@Z:PROC	; UI::CSlotWindow::UnlockSlot
EXTRN	?EnableSlot@CSlotWindow@UI@@QAEXK@Z:PROC	; UI::CSlotWindow::EnableSlot
EXTRN	?DisableSlot@CSlotWindow@UI@@QAEXK@Z:PROC	; UI::CSlotWindow::DisableSlot
EXTRN	?SetUnusableSlot@CSlotWindow@UI@@QAEXK@Z:PROC	; UI::CSlotWindow::SetUnusableSlot
EXTRN	?SetUsableSlot@CSlotWindow@UI@@QAEXK@Z:PROC	; UI::CSlotWindow::SetUsableSlot
EXTRN	?DisableSlotHighlightedGreen@CSlotWindow@UI@@QAEXK@Z:PROC ; UI::CSlotWindow::DisableSlotHighlightedGreen
EXTRN	?SetSlotHighlightedGreeen@CSlotWindow@UI@@QAEXK@Z:PROC ; UI::CSlotWindow::SetSlotHighlightedGreeen
EXTRN	?GetItemIndex@CSlotWindow@UI@@QAEKK@Z:PROC	; UI::CSlotWindow::GetItemIndex
EXTRN	?ClearSelected@CSlotWindow@UI@@QAEXXZ:PROC	; UI::CSlotWindow::ClearSelected
EXTRN	?SelectSlot@CSlotWindow@UI@@QAEXK@Z:PROC	; UI::CSlotWindow::SelectSlot
EXTRN	?isSelectedSlot@CSlotWindow@UI@@QAEHK@Z:PROC	; UI::CSlotWindow::isSelectedSlot
EXTRN	?GetSelectedSlotCount@CSlotWindow@UI@@QAEKXZ:PROC ; UI::CSlotWindow::GetSelectedSlotCount
EXTRN	?GetSelectedSlotNumber@CSlotWindow@UI@@QAEKK@Z:PROC ; UI::CSlotWindow::GetSelectedSlotNumber
EXTRN	?ShowSlotButton@CSlotWindow@UI@@QAEXK@Z:PROC	; UI::CSlotWindow::ShowSlotButton
EXTRN	?HideAllSlotButton@CSlotWindow@UI@@QAEXXZ:PROC	; UI::CSlotWindow::HideAllSlotButton
EXTRN	?ShowRequirementSign@CSlotWindow@UI@@QAEXK@Z:PROC ; UI::CSlotWindow::ShowRequirementSign
EXTRN	?HideRequirementSign@CSlotWindow@UI@@QAEXK@Z:PROC ; UI::CSlotWindow::HideRequirementSign
EXTRN	?SetUseMode@CSlotWindow@UI@@QAEXH@Z:PROC	; UI::CSlotWindow::SetUseMode
EXTRN	?IsUseMode@CSlotWindow@UI@@QBEHXZ:PROC		; UI::CSlotWindow::IsUseMode
EXTRN	?SetUsableItem@CSlotWindow@UI@@QAEXH@Z:PROC	; UI::CSlotWindow::SetUsableItem
EXTRN	?IsUsableItem@CSlotWindow@UI@@QBEHXZ:PROC	; UI::CSlotWindow::IsUsableItem
EXTRN	?SetSwitchMode@CSlotWindow@UI@@QAEXH@Z:PROC	; UI::CSlotWindow::SetSwitchMode
EXTRN	?IsSwitchMode@CSlotWindow@UI@@QBEHXZ:PROC	; UI::CSlotWindow::IsSwitchMode
EXTRN	?SetSwitchableItem@CSlotWindow@UI@@QAEXH@Z:PROC	; UI::CSlotWindow::SetSwitchableItem
EXTRN	?IsSwitchableItem@CSlotWindow@UI@@QBEHXZ:PROC	; UI::CSlotWindow::IsSwitchableItem
EXTRN	?Type@CGridSlotWindow@UI@@SAKXZ:PROC		; UI::CGridSlotWindow::Type
EXTRN	?ArrangeGridSlot@CGridSlotWindow@UI@@QAEXKKKHHHH@Z:PROC ; UI::CGridSlotWindow::ArrangeGridSlot
EXTRN	?GetPickedSlotPointer@CGridSlotWindow@UI@@QAEHPAPAUSSlot@CSlotWindow@2@_N@Z:PROC ; UI::CGridSlotWindow::GetPickedSlotPointer
EXTRN	@__security_check_cookie@4:PROC
EXTRN	__CxxThrowException@8:PROC
EXTRN	___CxxFrameHandler3:PROC
EXTRN	_memset:PROC
EXTRN	??_7type_info@@6B@:QWORD			; type_info::`vftable'
EXTRN	__imp___Py_NoneStruct:QWORD
EXTRN	?g_bOutlineBoxEnable@@3HA:DWORD			; g_bOutlineBoxEnable
EXTRN	?g_bShowOverInWindowName@@3HA:DWORD		; g_bShowOverInWindowName
EXTRN	___security_cookie:DWORD
EXTRN	__fltused:DWORD
;	COMDAT ?_OptionsStorage@?1??__local_stdio_printf_options@@9@4_KA
_BSS	SEGMENT
?_OptionsStorage@?1??__local_stdio_printf_options@@9@4_KA DQ 01H DUP (?) ; `__local_stdio_printf_options'::`2'::_OptionsStorage
_BSS	ENDS
;	COMDAT ?ms_singleton@?$CSingleton@VCWindowManager@UI@@@@0PAVCWindowManager@UI@@A
_BSS	SEGMENT
?ms_singleton@?$CSingleton@VCWindowManager@UI@@@@0PAVCWindowManager@UI@@A DD 01H DUP (?) ; CSingleton<UI::CWindowManager>::ms_singleton
_BSS	ENDS
;	COMDAT __xmm@3f8000003f8000003f8000003f800000
CONST	SEGMENT
__xmm@3f8000003f8000003f8000003f800000 DB 00H, 00H, 080H, '?', 00H, 00H, 080H
	DB	'?', 00H, 00H, 080H, '?', 00H, 00H, 080H, '?'
CONST	ENDS
;	COMDAT __xmm@0000005b0000005c0000005d0000005e
CONST	SEGMENT
__xmm@0000005b0000005c0000005d0000005e DB '^', 00H, 00H, 00H, ']', 00H, 00H
	DB	00H, '\', 00H, 00H, 00H, '[', 00H, 00H, 00H
CONST	ENDS
;	COMDAT __xmm@0000005700000058000000590000005a
CONST	SEGMENT
__xmm@0000005700000058000000590000005a DB 'Z', 00H, 00H, 00H, 'Y', 00H, 00H
	DB	00H, 'X', 00H, 00H, 00H, 'W', 00H, 00H, 00H
CONST	ENDS
;	COMDAT __xmm@00000053000000540000005500000056
CONST	SEGMENT
__xmm@00000053000000540000005500000056 DB 'V', 00H, 00H, 00H, 'U', 00H, 00H
	DB	00H, 'T', 00H, 00H, 00H, 'S', 00H, 00H, 00H
CONST	ENDS
;	COMDAT __xmm@0000004f000000500000005100000052
CONST	SEGMENT
__xmm@0000004f000000500000005100000052 DB 'R', 00H, 00H, 00H, 'Q', 00H, 00H
	DB	00H, 'P', 00H, 00H, 00H, 'O', 00H, 00H, 00H
CONST	ENDS
;	COMDAT __xmm@0000004b0000004c0000004d0000004e
CONST	SEGMENT
__xmm@0000004b0000004c0000004d0000004e DB 'N', 00H, 00H, 00H, 'M', 00H, 00H
	DB	00H, 'L', 00H, 00H, 00H, 'K', 00H, 00H, 00H
CONST	ENDS
;	COMDAT __xmm@0000004700000048000000490000004a
CONST	SEGMENT
__xmm@0000004700000048000000490000004a DB 'J', 00H, 00H, 00H, 'I', 00H, 00H
	DB	00H, 'H', 00H, 00H, 00H, 'G', 00H, 00H, 00H
CONST	ENDS
;	COMDAT __xmm@00000043000000440000004500000046
CONST	SEGMENT
__xmm@00000043000000440000004500000046 DB 'F', 00H, 00H, 00H, 'E', 00H, 00H
	DB	00H, 'D', 00H, 00H, 00H, 'C', 00H, 00H, 00H
CONST	ENDS
;	COMDAT __xmm@0000003f000000400000004100000042
CONST	SEGMENT
__xmm@0000003f000000400000004100000042 DB 'B', 00H, 00H, 00H, 'A', 00H, 00H
	DB	00H, '@', 00H, 00H, 00H, '?', 00H, 00H, 00H
CONST	ENDS
;	COMDAT __xmm@0000003b0000003c0000003d0000003e
CONST	SEGMENT
__xmm@0000003b0000003c0000003d0000003e DB '>', 00H, 00H, 00H, '=', 00H, 00H
	DB	00H, '<', 00H, 00H, 00H, ';', 00H, 00H, 00H
CONST	ENDS
;	COMDAT __xmm@0000003700000038000000390000003a
CONST	SEGMENT
__xmm@0000003700000038000000390000003a DB ':', 00H, 00H, 00H, '9', 00H, 00H
	DB	00H, '8', 00H, 00H, 00H, '7', 00H, 00H, 00H
CONST	ENDS
;	COMDAT __xmm@00000033000000340000003500000036
CONST	SEGMENT
__xmm@00000033000000340000003500000036 DB '6', 00H, 00H, 00H, '5', 00H, 00H
	DB	00H, '4', 00H, 00H, 00H, '3', 00H, 00H, 00H
CONST	ENDS
;	COMDAT __xmm@0000002f000000300000003100000032
CONST	SEGMENT
__xmm@0000002f000000300000003100000032 DB '2', 00H, 00H, 00H, '1', 00H, 00H
	DB	00H, '0', 00H, 00H, 00H, '/', 00H, 00H, 00H
CONST	ENDS
;	COMDAT __xmm@0000002b0000002c0000002d0000002e
CONST	SEGMENT
__xmm@0000002b0000002c0000002d0000002e DB '.', 00H, 00H, 00H, '-', 00H, 00H
	DB	00H, ',', 00H, 00H, 00H, '+', 00H, 00H, 00H
CONST	ENDS
;	COMDAT __xmm@0000002700000028000000290000002a
CONST	SEGMENT
__xmm@0000002700000028000000290000002a DB '*', 00H, 00H, 00H, ')', 00H, 00H
	DB	00H, '(', 00H, 00H, 00H, '''', 00H, 00H, 00H
CONST	ENDS
;	COMDAT __xmm@00000023000000240000002500000026
CONST	SEGMENT
__xmm@00000023000000240000002500000026 DB '&', 00H, 00H, 00H, '%', 00H, 00H
	DB	00H, '$', 00H, 00H, 00H, '#', 00H, 00H, 00H
CONST	ENDS
;	COMDAT __xmm@0000001f000000200000002100000022
CONST	SEGMENT
__xmm@0000001f000000200000002100000022 DB '"', 00H, 00H, 00H, '!', 00H, 00H
	DB	00H, ' ', 00H, 00H, 00H, 01fH, 00H, 00H, 00H
CONST	ENDS
;	COMDAT __xmm@0000001b0000001c0000001d0000001e
CONST	SEGMENT
__xmm@0000001b0000001c0000001d0000001e DB 01eH, 00H, 00H, 00H, 01dH, 00H, 00H
	DB	00H, 01cH, 00H, 00H, 00H, 01bH, 00H, 00H, 00H
CONST	ENDS
;	COMDAT __xmm@0000001700000018000000190000001a
CONST	SEGMENT
__xmm@0000001700000018000000190000001a DB 01aH, 00H, 00H, 00H, 019H, 00H, 00H
	DB	00H, 018H, 00H, 00H, 00H, 017H, 00H, 00H, 00H
CONST	ENDS
;	COMDAT __xmm@00000013000000140000001500000016
CONST	SEGMENT
__xmm@00000013000000140000001500000016 DB 016H, 00H, 00H, 00H, 015H, 00H, 00H
	DB	00H, 014H, 00H, 00H, 00H, 013H, 00H, 00H, 00H
CONST	ENDS
;	COMDAT __xmm@0000000f000000100000001100000012
CONST	SEGMENT
__xmm@0000000f000000100000001100000012 DB 012H, 00H, 00H, 00H, 011H, 00H, 00H
	DB	00H, 010H, 00H, 00H, 00H, 0fH, 00H, 00H, 00H
CONST	ENDS
;	COMDAT __xmm@0000000b0000000c0000000d0000000e
CONST	SEGMENT
__xmm@0000000b0000000c0000000d0000000e DB 0eH, 00H, 00H, 00H, 0dH, 00H, 00H
	DB	00H, 0cH, 00H, 00H, 00H, 0bH, 00H, 00H, 00H
CONST	ENDS
;	COMDAT __xmm@0000000700000008000000090000000a
CONST	SEGMENT
__xmm@0000000700000008000000090000000a DB 0aH, 00H, 00H, 00H, 09H, 00H, 00H
	DB	00H, 08H, 00H, 00H, 00H, 07H, 00H, 00H, 00H
CONST	ENDS
;	COMDAT __xmm@00000003000000040000000500000006
CONST	SEGMENT
__xmm@00000003000000040000000500000006 DB 06H, 00H, 00H, 00H, 05H, 00H, 00H
	DB	00H, 04H, 00H, 00H, 00H, 03H, 00H, 00H, 00H
CONST	ENDS
;	COMDAT __real@c2be0000
CONST	SEGMENT
__real@c2be0000 DD 0c2be0000r			; -95
CONST	ENDS
;	COMDAT __real@437f0000
CONST	SEGMENT
__real@437f0000 DD 0437f0000r			; 255
CONST	ENDS
;	COMDAT ??_C@_0BI@BNOJCJOH@RENDERING_MODE_MODULATE@
CONST	SEGMENT
??_C@_0BI@BNOJCJOH@RENDERING_MODE_MODULATE@ DB 'RENDERING_MODE_MODULATE', 00H ; `string'
CONST	ENDS
;	COMDAT ??_C@_0BG@CBGLOKGH@VERTICAL_ALIGN_BOTTOM@
CONST	SEGMENT
??_C@_0BG@CBGLOKGH@VERTICAL_ALIGN_BOTTOM@ DB 'VERTICAL_ALIGN_BOTTOM', 00H ; `string'
CONST	ENDS
;	COMDAT ??_C@_0BG@MMBKMGNO@VERTICAL_ALIGN_CENTER@
CONST	SEGMENT
??_C@_0BG@MMBKMGNO@VERTICAL_ALIGN_CENTER@ DB 'VERTICAL_ALIGN_CENTER', 00H ; `string'
CONST	ENDS
;	COMDAT ??_C@_0BD@PBJDAEOI@VERTICAL_ALIGN_TOP@
CONST	SEGMENT
??_C@_0BD@PBJDAEOI@VERTICAL_ALIGN_TOP@ DB 'VERTICAL_ALIGN_TOP', 00H ; `string'
CONST	ENDS
;	COMDAT ??_C@_0BH@KFBGEAIA@HORIZONTAL_ALIGN_RIGHT@
CONST	SEGMENT
??_C@_0BH@KFBGEAIA@HORIZONTAL_ALIGN_RIGHT@ DB 'HORIZONTAL_ALIGN_RIGHT', 00H ; `string'
CONST	ENDS
;	COMDAT ??_C@_0BI@NJMALOKG@HORIZONTAL_ALIGN_CENTER@
CONST	SEGMENT
??_C@_0BI@NJMALOKG@HORIZONTAL_ALIGN_CENTER@ DB 'HORIZONTAL_ALIGN_CENTER', 00H ; `string'
CONST	ENDS
;	COMDAT ??_C@_0BG@CEANPPL@HORIZONTAL_ALIGN_LEFT@
CONST	SEGMENT
??_C@_0BG@CEANPPL@HORIZONTAL_ALIGN_LEFT@ DB 'HORIZONTAL_ALIGN_LEFT', 00H ; `string'
CONST	ENDS
;	COMDAT ??_C@_0BL@GHLEGJOB@TEXT_VERTICAL_ALIGN_CENTER@
CONST	SEGMENT
??_C@_0BL@GHLEGJOB@TEXT_VERTICAL_ALIGN_CENTER@ DB 'TEXT_VERTICAL_ALIGN_CE'
	DB	'NTER', 00H					; `string'
CONST	ENDS
;	COMDAT ??_C@_0BL@IKMFEFFI@TEXT_VERTICAL_ALIGN_BOTTOM@
CONST	SEGMENT
??_C@_0BL@IKMFEFFI@TEXT_VERTICAL_ALIGN_BOTTOM@ DB 'TEXT_VERTICAL_ALIGN_BO'
	DB	'TTOM', 00H					; `string'
CONST	ENDS
;	COMDAT ??_C@_0BI@PIKJCBDF@TEXT_VERTICAL_ALIGN_TOP@
CONST	SEGMENT
??_C@_0BI@PIKJCBDF@TEXT_VERTICAL_ALIGN_TOP@ DB 'TEXT_VERTICAL_ALIGN_TOP', 00H ; `string'
CONST	ENDS
;	COMDAT ??_C@_0BN@MHHHIBEN@TEXT_HORIZONTAL_ALIGN_CENTER@
CONST	SEGMENT
??_C@_0BN@MHHHIBEN@TEXT_HORIZONTAL_ALIGN_CENTER@ DB 'TEXT_HORIZONTAL_ALIG'
	DB	'N_CENTER', 00H				; `string'
CONST	ENDS
;	COMDAT ??_C@_0BM@BDNLMDBC@TEXT_HORIZONTAL_ALIGN_RIGHT@
CONST	SEGMENT
??_C@_0BM@BDNLMDBC@TEXT_HORIZONTAL_ALIGN_RIGHT@ DB 'TEXT_HORIZONTAL_ALIGN'
	DB	'_RIGHT', 00H				; `string'
CONST	ENDS
;	COMDAT ??_C@_0BL@KJOOHAME@TEXT_HORIZONTAL_ALIGN_LEFT@
CONST	SEGMENT
??_C@_0BL@KJOOHAME@TEXT_HORIZONTAL_ALIGN_LEFT@ DB 'TEXT_HORIZONTAL_ALIGN_'
	DB	'LEFT', 00H					; `string'
CONST	ENDS
;	COMDAT ??_C@_0BC@DPNNOEON@SLOT_STYLE_SELECT@
CONST	SEGMENT
??_C@_0BC@DPNNOEON@SLOT_STYLE_SELECT@ DB 'SLOT_STYLE_SELECT', 00H ; `string'
CONST	ENDS
;	COMDAT ??_C@_0BD@HIHLPNEG@SLOT_STYLE_PICK_UP@
CONST	SEGMENT
??_C@_0BD@HIHLPNEG@SLOT_STYLE_PICK_UP@ DB 'SLOT_STYLE_PICK_UP', 00H ; `string'
CONST	ENDS
;	COMDAT ??_C@_0BA@CEBPCJJF@SLOT_STYLE_NONE@
CONST	SEGMENT
??_C@_0BA@CEBPCJJF@SLOT_STYLE_NONE@ DB 'SLOT_STYLE_NONE', 00H ; `string'
CONST	ENDS
;	COMDAT ??_C@_06CMPPDHLC@wndMgr@
CONST	SEGMENT
??_C@_06CMPPDHLC@wndMgr@ DB 'wndMgr', 00H		; `string'
CONST	ENDS
;	COMDAT ??_C@_0BJ@OABJPDB@SetStartCoolTimeImageBox@
CONST	SEGMENT
??_C@_0BJ@OABJPDB@SetStartCoolTimeImageBox@ DB 'SetStartCoolTimeImageBox', 00H ; `string'
CONST	ENDS
;	COMDAT ??_C@_0BE@BJJEKGM@SetCoolTimeImageBox@
CONST	SEGMENT
??_C@_0BE@BJJEKGM@SetCoolTimeImageBox@ DB 'SetCoolTimeImageBox', 00H ; `string'
CONST	ENDS
;	COMDAT ??_C@_0BG@FBLNLMGI@SetSlotBaseImageScale@
CONST	SEGMENT
??_C@_0BG@FBLNLMGI@SetSlotBaseImageScale@ DB 'SetSlotBaseImageScale', 00H ; `string'
CONST	ENDS
;	COMDAT ??_C@_0N@MNAMJLHL@SetSlotScale@
CONST	SEGMENT
??_C@_0N@MNAMJLHL@SetSlotScale@ DB 'SetSlotScale', 00H	; `string'
CONST	ENDS
;	COMDAT ??_C@_0N@DNBGAAKF@UnlockCursor@
CONST	SEGMENT
??_C@_0N@DNBGAAKF@UnlockCursor@ DB 'UnlockCursor', 00H	; `string'
CONST	ENDS
;	COMDAT ??_C@_0L@KLPEDGI@LockCursor@
CONST	SEGMENT
??_C@_0L@KLPEDGI@LockCursor@ DB 'LockCursor', 00H	; `string'
CONST	ENDS
;	COMDAT ??_C@_0BB@NHPNOOEJ@RT_DestroyRender@
CONST	SEGMENT
??_C@_0BB@NHPNOOEJ@RT_DestroyRender@ DB 'RT_DestroyRender', 00H ; `string'
CONST	ENDS
;	COMDAT ??_C@_0BD@IFKGKLGB@RT_SetRotationMode@
CONST	SEGMENT
??_C@_0BD@IFKGKLGB@RT_SetRotationMode@ DB 'RT_SetRotationMode', 00H ; `string'
CONST	ENDS
;	COMDAT ??_C@_0P@PINNIJAM@RT_GetRotation@
CONST	SEGMENT
??_C@_0P@PINNIJAM@RT_GetRotation@ DB 'RT_GetRotation', 00H ; `string'
CONST	ENDS
;	COMDAT ??_C@_0P@PHMDFPIP@RT_SetRotation@
CONST	SEGMENT
??_C@_0P@PHMDFPIP@RT_SetRotation@ DB 'RT_SetRotation', 00H ; `string'
CONST	ENDS
;	COMDAT ??_C@_0BE@FIHLIPHJ@RT_GetLightPosition@
CONST	SEGMENT
??_C@_0BE@FIHLIPHJ@RT_GetLightPosition@ DB 'RT_GetLightPosition', 00H ; `string'
CONST	ENDS
;	COMDAT ??_C@_0BE@DMCCDBML@RT_SetLightPosition@
CONST	SEGMENT
??_C@_0BE@DMCCDBML@RT_SetLightPosition@ DB 'RT_SetLightPosition', 00H ; `string'
CONST	ENDS
;	COMDAT ??_C@_0BF@LKMFPJIH@RT_GetRenderDistance@
CONST	SEGMENT
??_C@_0BF@LKMFPJIH@RT_GetRenderDistance@ DB 'RT_GetRenderDistance', 00H ; `string'
CONST	ENDS
;	COMDAT ??_C@_0BF@JPMOHCJJ@RT_SetRenderDistance@
CONST	SEGMENT
??_C@_0BF@JPMOHCJJ@RT_SetRenderDistance@ DB 'RT_SetRenderDistance', 00H ; `string'
CONST	ENDS
;	COMDAT ??_C@_0BD@KKAOCHFF@RT_SetRenderMotion@
CONST	SEGMENT
??_C@_0BD@KKAOCHFF@RT_SetRenderMotion@ DB 'RT_SetRenderMotion', 00H ; `string'
CONST	ENDS
;	COMDAT ??_C@_0BB@EOHKHODF@RT_SetRenderSash@
CONST	SEGMENT
??_C@_0BB@EOHKHODF@RT_SetRenderSash@ DB 'RT_SetRenderSash', 00H ; `string'
CONST	ENDS
;	COMDAT ??_C@_0BD@ENCKMHFE@RT_SetRenderWeapon@
CONST	SEGMENT
??_C@_0BD@ENCKMHFE@RT_SetRenderWeapon@ DB 'RT_SetRenderWeapon', 00H ; `string'
CONST	ENDS
;	COMDAT ??_C@_0BC@JHCDNNMC@RT_SetRenderArmor@
CONST	SEGMENT
??_C@_0BC@JHCDNNMC@RT_SetRenderArmor@ DB 'RT_SetRenderArmor', 00H ; `string'
CONST	ENDS
;	COMDAT ??_C@_0BB@PINGAENL@RT_SetRenderHair@
CONST	SEGMENT
??_C@_0BB@PINGAENL@RT_SetRenderHair@ DB 'RT_SetRenderHair', 00H ; `string'
CONST	ENDS
;	COMDAT ??_C@_0BD@LAGHGCKG@RT_SetRenderTarget@
CONST	SEGMENT
??_C@_0BD@LAGHGCKG@RT_SetRenderTarget@ DB 'RT_SetRenderTarget', 00H ; `string'
CONST	ENDS
;	COMDAT ??_C@_0N@LGPPCICH@RT_LoadImage@
CONST	SEGMENT
??_C@_0N@LGPPCICH@RT_LoadImage@ DB 'RT_LoadImage', 00H	; `string'
CONST	ENDS
;	COMDAT ??_C@_0BF@FGJJGJFC@RegisterRenderTarget@
CONST	SEGMENT
??_C@_0BF@FGJJGJFC@RegisterRenderTarget@ DB 'RegisterRenderTarget', 00H ; `string'
CONST	ENDS
;	COMDAT ??_C@_0N@BFHCIAEF@IsShowCursor@
CONST	SEGMENT
??_C@_0N@BFHCIAEF@IsShowCursor@ DB 'IsShowCursor', 00H	; `string'
CONST	ENDS
;	COMDAT ??_C@_0M@JGJEPBJD@UnloadImage@
CONST	SEGMENT
??_C@_0M@JGJEPBJD@UnloadImage@ DB 'UnloadImage', 00H	; `string'
CONST	ENDS
;	COMDAT ??_C@_0N@IIENNIMK@GetRenderPos@
CONST	SEGMENT
??_C@_0N@IIENNIMK@GetRenderPos@ DB 'GetRenderPos', 00H	; `string'
CONST	ENDS
;	COMDAT ??_C@_0BC@FGODMHDE@SetFixedRenderPos@
CONST	SEGMENT
??_C@_0BC@FGODMHDE@SetFixedRenderPos@ DB 'SetFixedRenderPos', 00H ; `string'
CONST	ENDS
;	COMDAT ??_C@_0BE@OCBDOMML@SetWikiRenderTarget@
CONST	SEGMENT
??_C@_0BE@OCBDOMML@SetWikiRenderTarget@ DB 'SetWikiRenderTarget', 00H ; `string'
CONST	ENDS
;	COMDAT ??_C@_0N@JBKJJOBF@GetRenderBox@
CONST	SEGMENT
??_C@_0N@JBKJJOBF@GetRenderBox@ DB 'GetRenderBox', 00H	; `string'
CONST	ENDS
;	COMDAT ??_C@_0BB@LDNMLPHM@SetRenderingRect@
CONST	SEGMENT
??_C@_0BB@LDNMLPHM@SetRenderingRect@ DB 'SetRenderingRect', 00H ; `string'
CONST	ENDS
;	COMDAT ??_C@_0BA@HFECJDNA@SetInsideRender@
CONST	SEGMENT
??_C@_0BA@HFECJDNA@SetInsideRender@ DB 'SetInsideRender', 00H ; `string'
CONST	ENDS
;	COMDAT ??_C@_0BJ@HMEHNAEN@RegisterWikiRenderTarget@
CONST	SEGMENT
??_C@_0BJ@HMEHNAEN@RegisterWikiRenderTarget@ DB 'RegisterWikiRenderTarget'
	DB	00H						; `string'
CONST	ENDS
;	COMDAT ??_C@_0N@GABOCBEH@GetItemIndex@
CONST	SEGMENT
??_C@_0N@GABOCBEH@GetItemIndex@ DB 'GetItemIndex', 00H	; `string'
CONST	ENDS
;	COMDAT ??_C@_0BJ@MFMBAOFE@DeactivateChangeLookSlot@
CONST	SEGMENT
??_C@_0BJ@MFMBAOFE@DeactivateChangeLookSlot@ DB 'DeactivateChangeLookSlot'
	DB	00H						; `string'
CONST	ENDS
;	COMDAT ??_C@_0BH@CMPCAGLC@ActivateChangeLookSlot@
CONST	SEGMENT
??_C@_0BH@CMPCAGLC@ActivateChangeLookSlot@ DB 'ActivateChangeLookSlot', 00H ; `string'
CONST	ENDS
;	COMDAT ??_C@_0BG@CELKDGNF@DisableSlotCoverImage@
CONST	SEGMENT
??_C@_0BG@CELKDGNF@DisableSlotCoverImage@ DB 'DisableSlotCoverImage', 00H ; `string'
CONST	ENDS
;	COMDAT ??_C@_0BF@KNCMHHOE@EnableSlotCoverImage@
CONST	SEGMENT
??_C@_0BF@KNCMHHOE@EnableSlotCoverImage@ DB 'EnableSlotCoverImage', 00H ; `string'
CONST	ENDS
;	COMDAT ??_C@_0BA@NIALCINC@GetSlotCoolTime@
CONST	SEGMENT
??_C@_0BA@NIALCINC@GetSlotCoolTime@ DB 'GetSlotCoolTime', 00H ; `string'
CONST	ENDS
;	COMDAT ??_C@_0BA@EABPFCGJ@IsActivatedSlot@
CONST	SEGMENT
??_C@_0BA@EABPFCGJ@IsActivatedSlot@ DB 'IsActivatedSlot', 00H ; `string'
CONST	ENDS
;	COMDAT ??_C@_0BF@LFOINEDC@ShowOverInWindowName@
CONST	SEGMENT
??_C@_0BF@LFOINEDC@ShowOverInWindowName@ DB 'ShowOverInWindowName', 00H ; `string'
CONST	ENDS
;	COMDAT ??_C@_0P@MEHCKPID@SetOutlineFlag@
CONST	SEGMENT
??_C@_0P@MEHCKPID@SetOutlineFlag@ DB 'SetOutlineFlag', 00H ; `string'
CONST	ENDS
;	COMDAT ??_C@_0BI@KNEJFEOH@SetRestrictMovementArea@
CONST	SEGMENT
??_C@_0BI@KNEJFEOH@SetRestrictMovementArea@ DB 'SetRestrictMovementArea', 00H ; `string'
CONST	ENDS
;	COMDAT ??_C@_06FKEAEOGE@IsDown@
CONST	SEGMENT
??_C@_06FKEAEOGE@IsDown@ DB 'IsDown', 00H		; `string'
CONST	ENDS
;	COMDAT ??_C@_05DEOAHOFO@SetUp@
CONST	SEGMENT
??_C@_05DEOAHOFO@SetUp@ DB 'SetUp', 00H			; `string'
CONST	ENDS
;	COMDAT ??_C@_04FNCLCJMC@Down@
CONST	SEGMENT
??_C@_04FNCLCJMC@Down@ DB 'Down', 00H			; `string'
CONST	ENDS
;	COMDAT ??_C@_09BDCHKIMD@IsEnabled@
CONST	SEGMENT
??_C@_09BDCHKIMD@IsEnabled@ DB 'IsEnabled', 00H		; `string'
CONST	ENDS
;	COMDAT ??_C@_07MIKIFGAL@Disable@
CONST	SEGMENT
??_C@_07MIKIFGAL@Disable@ DB 'Disable', 00H		; `string'
CONST	ENDS
;	COMDAT ??_C@_06CKGENIKG@Enable@
CONST	SEGMENT
??_C@_06CKGENIKG@Enable@ DB 'Enable', 00H		; `string'
CONST	ENDS
;	COMDAT ??_C@_05LDPHIKKB@Flash@
CONST	SEGMENT
??_C@_05LDPHIKKB@Flash@ DB 'Flash', 00H			; `string'
CONST	ENDS
;	COMDAT ??_C@_0BG@FKDEILKI@GetDownVisualFileName@
CONST	SEGMENT
??_C@_0BG@FKDEILKI@GetDownVisualFileName@ DB 'GetDownVisualFileName', 00H ; `string'
CONST	ENDS
;	COMDAT ??_C@_0BG@KEALLAJN@GetOverVisualFileName@
CONST	SEGMENT
??_C@_0BG@KEALLAJN@GetOverVisualFileName@ DB 'GetOverVisualFileName', 00H ; `string'
CONST	ENDS
;	COMDAT ??_C@_0BE@PHOOFGJI@GetUpVisualFileName@
CONST	SEGMENT
??_C@_0BE@PHOOFGJI@GetUpVisualFileName@ DB 'GetUpVisualFileName', 00H ; `string'
CONST	ENDS
;	COMDAT ??_C@_0BB@JCGDBIB@SetDisableVisual@
CONST	SEGMENT
??_C@_0BB@JCGDBIB@SetDisableVisual@ DB 'SetDisableVisual', 00H ; `string'
CONST	ENDS
;	COMDAT ??_C@_0O@FLFAFPKP@SetDownVisual@
CONST	SEGMENT
??_C@_0O@FLFAFPKP@SetDownVisual@ DB 'SetDownVisual', 00H ; `string'
CONST	ENDS
;	COMDAT ??_C@_0O@KOIDMFK@SetOverVisual@
CONST	SEGMENT
??_C@_0O@KOIDMFK@SetOverVisual@ DB 'SetOverVisual', 00H	; `string'
CONST	ENDS
;	COMDAT ??_C@_0M@IIELPGEP@SetUpVisual@
CONST	SEGMENT
??_C@_0M@IIELPGEP@SetUpVisual@ DB 'SetUpVisual', 00H	; `string'
CONST	ENDS
;	COMDAT ??_C@_0L@ELGKENBM@ResetFrame@
CONST	SEGMENT
??_C@_0L@ELGKENBM@ResetFrame@ DB 'ResetFrame', 00H	; `string'
CONST	ENDS
;	COMDAT ??_C@_0M@BEJGDBIJ@AppendImage@
CONST	SEGMENT
??_C@_0M@BEJGDBIJ@AppendImage@ DB 'AppendImage', 00H	; `string'
CONST	ENDS
;	COMDAT ??_C@_08CACKEECM@GetDelay@
CONST	SEGMENT
??_C@_08CACKEECM@GetDelay@ DB 'GetDelay', 00H		; `string'
CONST	ENDS
;	COMDAT ??_C@_08NBAGFHFB@SetDelay@
CONST	SEGMENT
??_C@_08NBAGFHFB@SetDelay@ DB 'SetDelay', 00H		; `string'
CONST	ENDS
;	COMDAT ??_C@_0BB@GIEHGKNO@SetRenderingMode@
CONST	SEGMENT
??_C@_0BB@GIEHGKNO@SetRenderingMode@ DB 'SetRenderingMode', 00H ; `string'
CONST	ENDS
;	COMDAT ??_C@_0M@GNIHGJGG@SetRotation@
CONST	SEGMENT
??_C@_0M@GNIHGJGG@SetRotation@ DB 'SetRotation', 00H	; `string'
CONST	ENDS
;	COMDAT ??_C@_09KLKDEBJ@SetOrigin@
CONST	SEGMENT
??_C@_09KLKDEBJ@SetOrigin@ DB 'SetOrigin', 00H		; `string'
CONST	ENDS
;	COMDAT ??_C@_08FMFAIGAB@SetScale@
CONST	SEGMENT
??_C@_08FMFAIGAB@SetScale@ DB 'SetScale', 00H		; `string'
CONST	ENDS
;	COMDAT ??_C@_0O@IOPMOINL@GetTexturePtr@
CONST	SEGMENT
??_C@_0O@IOPMOINL@GetTexturePtr@ DB 'GetTexturePtr', 00H ; `string'
CONST	ENDS
;	COMDAT ??_C@_09EOGEIJMK@GetHeight@
CONST	SEGMENT
??_C@_09EOGEIJMK@GetHeight@ DB 'GetHeight', 00H		; `string'
CONST	ENDS
;	COMDAT ??_C@_08OMBILDHM@GetWidth@
CONST	SEGMENT
??_C@_08OMBILDHM@GetWidth@ DB 'GetWidth', 00H		; `string'
CONST	ENDS
;	COMDAT ??_C@_0BA@CAEBLOMF@SetDiffuseColor@
CONST	SEGMENT
??_C@_0BA@CAEBLOMF@SetDiffuseColor@ DB 'SetDiffuseColor', 00H ; `string'
CONST	ENDS
;	COMDAT ??_C@_09OHOMMMHI@LoadImage@
CONST	SEGMENT
??_C@_09OHOMMMHI@LoadImage@ DB 'LoadImage', 00H		; `string'
CONST	ENDS
;	COMDAT ??_C@_0BI@JCKPADLG@MarkBox_SetDiffuseColor@
CONST	SEGMENT
??_C@_0BI@JCKPADLG@MarkBox_SetDiffuseColor@ DB 'MarkBox_SetDiffuseColor', 00H ; `string'
CONST	ENDS
;	COMDAT ??_C@_0BB@ENLBNPPB@MarkBox_SetScale@
CONST	SEGMENT
??_C@_0BB@ENLBNPPB@MarkBox_SetScale@ DB 'MarkBox_SetScale', 00H ; `string'
CONST	ENDS
;	COMDAT ??_C@_0BB@NAAPJNBM@MarkBox_SetIndex@
CONST	SEGMENT
??_C@_0BB@NAAPJNBM@MarkBox_SetIndex@ DB 'MarkBox_SetIndex', 00H ; `string'
CONST	ENDS
;	COMDAT ??_C@_0N@FLKGJMCL@MarkBox_Load@
CONST	SEGMENT
??_C@_0N@FLKGJMCL@MarkBox_Load@ DB 'MarkBox_Load', 00H	; `string'
CONST	ENDS
;	COMDAT ??_C@_0BJ@PJODLBON@MarkBox_SetImageFilename@
CONST	SEGMENT
??_C@_0BJ@PJODLBON@MarkBox_SetImageFilename@ DB 'MarkBox_SetImageFilename'
	DB	00H						; `string'
CONST	ENDS
;	COMDAT ??_C@_0BB@FMJJKPIM@MarkBox_SetImage@
CONST	SEGMENT
??_C@_0BB@FMJJKPIM@MarkBox_SetImage@ DB 'MarkBox_SetImage', 00H ; `string'
CONST	ENDS
;	COMDAT ??_C@_07ENBMIGKI@SetPath@
CONST	SEGMENT
??_C@_07ENBMIGKI@SetPath@ DB 'SetPath', 00H		; `string'
CONST	ENDS
;	COMDAT ??_C@_0BN@MCDEBAKA@SetNumberVerticalAlignCenter@
CONST	SEGMENT
??_C@_0BN@MCDEBAKA@SetNumberVerticalAlignCenter@ DB 'SetNumberVerticalAli'
	DB	'gnCenter', 00H				; `string'
CONST	ENDS
;	COMDAT ??_C@_0BO@FBBAAHKK@SetNumberHorizontalAlignRight@
CONST	SEGMENT
??_C@_0BO@FBBAAHKK@SetNumberHorizontalAlignRight@ DB 'SetNumberHorizontal'
	DB	'AlignRight', 00H				; `string'
CONST	ENDS
;	COMDAT ??_C@_0BP@JHALFFJF@SetNumberHorizontalAlignCenter@
CONST	SEGMENT
??_C@_0BP@JHALFFJF@SetNumberHorizontalAlignCenter@ DB 'SetNumberHorizonta'
	DB	'lAlignCenter', 00H				; `string'
CONST	ENDS
;	COMDAT ??_C@_09JMPLPNNO@SetNumber@
CONST	SEGMENT
??_C@_09JMPLPNNO@SetNumber@ DB 'SetNumber', 00H		; `string'
CONST	ENDS
;	COMDAT ??_C@_0BN@OOPFPLJK@TextPositionToRenderPosition@
CONST	SEGMENT
??_C@_0BN@OOPFPLJK@TextPositionToRenderPosition@ DB 'TextPositionToRender'
	DB	'Position', 00H				; `string'
CONST	ENDS
;	COMDAT ??_C@_0BI@OPEAHLID@GetCharPositionByCursor@
CONST	SEGMENT
??_C@_0BI@OPEAHLID@GetCharPositionByCursor@ DB 'GetCharPositionByCursor', 00H ; `string'
CONST	ENDS
;	COMDAT ??_C@_0BC@DJJGDMOB@GetCursorPosition@
CONST	SEGMENT
??_C@_0BC@DJJGDMOB@GetCursorPosition@ DB 'GetCursorPosition', 00H ; `string'
CONST	ENDS
;	COMDAT ??_C@_0L@MGJDDPFG@HideCursor@
CONST	SEGMENT
??_C@_0L@MGJDDPFG@HideCursor@ DB 'HideCursor', 00H	; `string'
CONST	ENDS
;	COMDAT ??_C@_0L@BIENLPGM@ShowCursor@
CONST	SEGMENT
??_C@_0L@BIENLPGM@ShowCursor@ DB 'ShowCursor', 00H	; `string'
CONST	ENDS
;	COMDAT ??_C@_0M@JOAAGILP@GetTextSize@
CONST	SEGMENT
??_C@_0M@JOAAGILP@GetTextSize@ DB 'GetTextSize', 00H	; `string'
CONST	ENDS
;	COMDAT ??_C@_0M@CLFAHCCE@SetClipRect@
CONST	SEGMENT
??_C@_0M@CLFAHCCE@SetClipRect@ DB 'SetClipRect', 00H	; `string'
CONST	ENDS
;	COMDAT ??_C@_07CAGCCMNH@GetText@
CONST	SEGMENT
??_C@_07CAGCCMNH@GetText@ DB 'GetText', 00H		; `string'
CONST	ENDS
;	COMDAT ??_C@_0O@FIAFKHF@SetLimitWidth@
CONST	SEGMENT
??_C@_0O@FIAFKHF@SetLimitWidth@ DB 'SetLimitWidth', 00H	; `string'
CONST	ENDS
;	COMDAT ??_C@_0N@MKCFOAAE@SetFontColor@
CONST	SEGMENT
??_C@_0N@MKCFOAAE@SetFontColor@ DB 'SetFontColor', 00H	; `string'
CONST	ENDS
;	COMDAT ??_C@_0M@MCELKPNO@SetFontName@
CONST	SEGMENT
??_C@_0M@MCELKPNO@SetFontName@ DB 'SetFontName', 00H	; `string'
CONST	ENDS
;	COMDAT ??_C@_0BF@ECGKBOOD@GetSpecificTextWidth@
CONST	SEGMENT
??_C@_0BF@ECGKBOOD@GetSpecificTextWidth@ DB 'GetSpecificTextWidth', 00H ; `string'
CONST	ENDS
;	COMDAT ??_C@_07NIJDBDAG@SetText@
CONST	SEGMENT
??_C@_07NIJDBDAG@SetText@ DB 'SetText', 00H		; `string'
CONST	ENDS
;	COMDAT ??_C@_0N@FKMHLJHG@SetMultiLine@
CONST	SEGMENT
??_C@_0N@FKMHLJHG@SetMultiLine@ DB 'SetMultiLine', 00H	; `string'
CONST	ENDS
;	COMDAT ??_C@_0L@LLKEFHFA@SetFeather@
CONST	SEGMENT
??_C@_0L@LLKEFHFA@SetFeather@ DB 'SetFeather', 00H	; `string'
CONST	ENDS
;	COMDAT ??_C@_0L@HBNEJDMM@SetOutline@
CONST	SEGMENT
??_C@_0L@HBNEJDMM@SetOutline@ DB 'SetOutline', 00H	; `string'
CONST	ENDS
;	COMDAT ??_C@_09CAFHEMDD@SetSecret@
CONST	SEGMENT
??_C@_09CAFHEMDD@SetSecret@ DB 'SetSecret', 00H		; `string'
CONST	ENDS
;	COMDAT ??_C@_0BB@NKHPOFIC@SetVerticalAlign@
CONST	SEGMENT
??_C@_0BB@NKHPOFIC@SetVerticalAlign@ DB 'SetVerticalAlign', 00H ; `string'
CONST	ENDS
;	COMDAT ??_C@_0BD@FCLDCEMA@SetHorizontalAlign@
CONST	SEGMENT
??_C@_0BD@FCLDCEMA@SetHorizontalAlign@ DB 'SetHorizontalAlign', 00H ; `string'
CONST	ENDS
;	COMDAT ??_C@_06ODEINJEE@SetMax@
CONST	SEGMENT
??_C@_06ODEINJEE@SetMax@ DB 'SetMax', 00H		; `string'
CONST	ENDS
;	COMDAT ??_C@_08GPNJILIJ@SetColor@
CONST	SEGMENT
??_C@_08GPNJILIJ@SetColor@ DB 'SetColor', 00H		; `string'
CONST	ENDS
;	COMDAT ??_C@_0L@DPNFKPLP@UnlockSlot@
CONST	SEGMENT
??_C@_0L@DPNFKPLP@UnlockSlot@ DB 'UnlockSlot', 00H	; `string'
CONST	ENDS
;	COMDAT ??_C@_08PGGNMNPL@LockSlot@
CONST	SEGMENT
??_C@_08PGGNMNPL@LockSlot@ DB 'LockSlot', 00H		; `string'
CONST	ENDS
;	COMDAT ??_C@_0N@PALCIPBL@GetSlotCount@
CONST	SEGMENT
??_C@_0N@PALCIPBL@GetSlotCount@ DB 'GetSlotCount', 00H	; `string'
CONST	ENDS
;	COMDAT ??_C@_0P@GKJOEMLC@IsSelectedSlot@
CONST	SEGMENT
??_C@_0P@GKJOEMLC@IsSelectedSlot@ DB 'IsSelectedSlot', 00H ; `string'
CONST	ENDS
;	COMDAT ??_C@_0BG@DJKADEKA@GetSelectedSlotNumber@
CONST	SEGMENT
??_C@_0BG@DJKADEKA@GetSelectedSlotNumber@ DB 'GetSelectedSlotNumber', 00H ; `string'
CONST	ENDS
;	COMDAT ??_C@_0BF@EECMELAK@GetSelectedSlotCount@
CONST	SEGMENT
??_C@_0BF@EECMELAK@GetSelectedSlotCount@ DB 'GetSelectedSlotCount', 00H ; `string'
CONST	ENDS
;	COMDAT ??_C@_0O@OGHLMGNI@ClearSelected@
CONST	SEGMENT
??_C@_0O@OGHLMGNI@ClearSelected@ DB 'ClearSelected', 00H ; `string'
CONST	ENDS
;	COMDAT ??_C@_0L@EMMADCIN@SelectSlot@
CONST	SEGMENT
??_C@_0L@EMMADCIN@SelectSlot@ DB 'SelectSlot', 00H	; `string'
CONST	ENDS
;	COMDAT ??_C@_0BM@HGKBMEM@DisableSlotHighlightedGreen@
CONST	SEGMENT
??_C@_0BM@HGKBMEM@DisableSlotHighlightedGreen@ DB 'DisableSlotHighlighted'
	DB	'Green', 00H					; `string'
CONST	ENDS
;	COMDAT ??_C@_0BJ@MHPLGOEE@SetSlotHighlightedGreeen@
CONST	SEGMENT
??_C@_0BJ@MHPLGOEE@SetSlotHighlightedGreeen@ DB 'SetSlotHighlightedGreeen'
	DB	00H						; `string'
CONST	ENDS
;	COMDAT ??_C@_0BE@NIFHGONC@GetPickedSlotNumber@
CONST	SEGMENT
??_C@_0BE@NIFHGONC@GetPickedSlotNumber@ DB 'GetPickedSlotNumber', 00H ; `string'
CONST	ENDS
;	COMDAT ??_C@_0BB@KLCMDKEF@IsSwitchableItem@
CONST	SEGMENT
??_C@_0BB@KLCMDKEF@IsSwitchableItem@ DB 'IsSwitchableItem', 00H ; `string'
CONST	ENDS
;	COMDAT ??_C@_0BC@DNDCFHHB@SetSwitchableItem@
CONST	SEGMENT
??_C@_0BC@DNDCFHHB@SetSwitchableItem@ DB 'SetSwitchableItem', 00H ; `string'
CONST	ENDS
;	COMDAT ??_C@_0N@HONPKAJH@IsSwitchMode@
CONST	SEGMENT
??_C@_0N@HONPKAJH@IsSwitchMode@ DB 'IsSwitchMode', 00H	; `string'
CONST	ENDS
;	COMDAT ??_C@_0O@KGCGGKBF@SetSwitchMode@
CONST	SEGMENT
??_C@_0O@KGCGGKBF@SetSwitchMode@ DB 'SetSwitchMode', 00H ; `string'
CONST	ENDS
;	COMDAT ??_C@_0N@GPNIKFEM@IsUsableItem@
CONST	SEGMENT
??_C@_0N@GPNIKFEM@IsUsableItem@ DB 'IsUsableItem', 00H	; `string'
CONST	ENDS
;	COMDAT ??_C@_0O@LHCBGPMO@SetUsableItem@
CONST	SEGMENT
??_C@_0O@LHCBGPMO@SetUsableItem@ DB 'SetUsableItem', 00H ; `string'
CONST	ENDS
;	COMDAT ??_C@_09LLPJGKLN@IsUseMode@
CONST	SEGMENT
??_C@_09LLPJGKLN@IsUseMode@ DB 'IsUseMode', 00H		; `string'
CONST	ENDS
;	COMDAT ??_C@_0L@ODKIIGJF@SetUseMode@
CONST	SEGMENT
??_C@_0L@ODKIIGJF@SetUseMode@ DB 'SetUseMode', 00H	; `string'
CONST	ENDS
;	COMDAT ??_C@_0M@NAPCHMAM@RefreshSlot@
CONST	SEGMENT
??_C@_0M@NAPCHMAM@RefreshSlot@ DB 'RefreshSlot', 00H	; `string'
CONST	ENDS
;	COMDAT ??_C@_0BE@LNAIGOOK@HideRequirementSign@
CONST	SEGMENT
??_C@_0BE@LNAIGOOK@HideRequirementSign@ DB 'HideRequirementSign', 00H ; `string'
CONST	ENDS
;	COMDAT ??_C@_0BE@IGOEKEDL@ShowRequirementSign@
CONST	SEGMENT
??_C@_0BE@IGOEKEDL@ShowRequirementSign@ DB 'ShowRequirementSign', 00H ; `string'
CONST	ENDS
;	COMDAT ??_C@_0BC@IHMDJONI@HideAllSlotButton@
CONST	SEGMENT
??_C@_0BC@IHMDJONI@HideAllSlotButton@ DB 'HideAllSlotButton', 00H ; `string'
CONST	ENDS
;	COMDAT ??_C@_0P@CINLEJEK@ShowSlotButton@
CONST	SEGMENT
??_C@_0P@CINLEJEK@ShowSlotButton@ DB 'ShowSlotButton', 00H ; `string'
CONST	ENDS
;	COMDAT ??_C@_0BL@CCGBCIBD@AppendRequirementSignImage@
CONST	SEGMENT
??_C@_0BL@CCGBCIBD@AppendRequirementSignImage@ DB 'AppendRequirementSignI'
	DB	'mage', 00H					; `string'
CONST	ENDS
;	COMDAT ??_C@_0BB@LLDDGEIL@AppendSlotButton@
CONST	SEGMENT
??_C@_0BB@LLDDGEIL@AppendSlotButton@ DB 'AppendSlotButton', 00H ; `string'
CONST	ENDS
;	COMDAT ??_C@_0P@BOOMPDBD@GetSlotIndices@
CONST	SEGMENT
??_C@_0P@BOOMPDBD@GetSlotIndices@ DB 'GetSlotIndices', 00H ; `string'
CONST	ENDS
;	COMDAT ??_C@_0BC@POMJDPJH@DeleteCoverButton@
CONST	SEGMENT
??_C@_0BC@POMJDPJH@DeleteCoverButton@ DB 'DeleteCoverButton', 00H ; `string'
CONST	ENDS
;	COMDAT ??_C@_0BL@PAFAGEGB@SetAlwaysRenderCoverButton@
CONST	SEGMENT
??_C@_0BL@PAFAGEGB@SetAlwaysRenderCoverButton@ DB 'SetAlwaysRenderCoverBu'
	DB	'tton', 00H					; `string'
CONST	ENDS
;	COMDAT ??_C@_0BF@ILDMDDMH@IsDisableCoverButton@
CONST	SEGMENT
??_C@_0BF@ILDMDDMH@IsDisableCoverButton@ DB 'IsDisableCoverButton', 00H ; `string'
CONST	ENDS
;	COMDAT ??_C@_0BD@DOJCOOMI@DisableCoverButton@
CONST	SEGMENT
??_C@_0BD@DOJCOOMI@DisableCoverButton@ DB 'DisableCoverButton', 00H ; `string'
CONST	ENDS
;	COMDAT ??_C@_0BC@GDLBPCHF@EnableCoverButton@
CONST	SEGMENT
??_C@_0BC@GDLBPCHF@EnableCoverButton@ DB 'EnableCoverButton', 00H ; `string'
CONST	ENDS
;	COMDAT ??_C@_0P@JKHNGGPA@SetCoverButton@
CONST	SEGMENT
??_C@_0P@JKHNGGPA@SetCoverButton@ DB 'SetCoverButton', 00H ; `string'
CONST	ENDS
;	COMDAT ??_C@_0BB@IOMAJEMI@SetSlotBaseImage@
CONST	SEGMENT
??_C@_0BB@IOMAJEMI@SetSlotBaseImage@ DB 'SetSlotBaseImage', 00H ; `string'
CONST	ENDS
;	COMDAT ??_C@_0N@IKGBKPJJ@SetSlotStyle@
CONST	SEGMENT
??_C@_0N@IKGBKPJJ@SetSlotStyle@ DB 'SetSlotStyle', 00H	; `string'
CONST	ENDS
;	COMDAT ??_C@_0M@KHOHGEMH@SetSlotType@
CONST	SEGMENT
??_C@_0M@KHOHGEMH@SetSlotType@ DB 'SetSlotType', 00H	; `string'
CONST	ENDS
;	COMDAT ??_C@_0BC@NFMHNFLM@HideSlotBaseImage@
CONST	SEGMENT
??_C@_0BC@NFMHNFLM@HideSlotBaseImage@ DB 'HideSlotBaseImage', 00H ; `string'
CONST	ENDS
;	COMDAT ??_C@_0BC@DHCKDEOK@ShowSlotBaseImage@
CONST	SEGMENT
??_C@_0BC@DHCKDEOK@ShowSlotBaseImage@ DB 'ShowSlotBaseImage', 00H ; `string'
CONST	ENDS
;	COMDAT ??_C@_0O@JOELLDFD@SetUsableSlot@
CONST	SEGMENT
??_C@_0O@JOELLDFD@SetUsableSlot@ DB 'SetUsableSlot', 00H ; `string'
CONST	ENDS
;	COMDAT ??_C@_0BA@PMAALDEC@SetUnusableSlot@
CONST	SEGMENT
??_C@_0BA@PMAALDEC@SetUnusableSlot@ DB 'SetUnusableSlot', 00H ; `string'
CONST	ENDS
;	COMDAT ??_C@_0M@EKMKGECP@DisableSlot@
CONST	SEGMENT
??_C@_0M@EKMKGECP@DisableSlot@ DB 'DisableSlot', 00H	; `string'
CONST	ENDS
;	COMDAT ??_C@_0L@DHCLIIGL@EnableSlot@
CONST	SEGMENT
??_C@_0L@DHCLIIGL@EnableSlot@ DB 'EnableSlot', 00H	; `string'
CONST	ENDS
;	COMDAT ??_C@_0BC@OALEFDOD@NewDeactivateSlot@
CONST	SEGMENT
??_C@_0BC@OALEFDOD@NewDeactivateSlot@ DB 'NewDeactivateSlot', 00H ; `string'
CONST	ENDS
;	COMDAT ??_C@_0BA@GGAABDOP@NewActivateSlot@
CONST	SEGMENT
??_C@_0BA@GGAABDOP@NewActivateSlot@ DB 'NewActivateSlot', 00H ; `string'
CONST	ENDS
;	COMDAT ??_C@_0P@FGAIANEO@DeactivateSlot@
CONST	SEGMENT
??_C@_0P@FGAIANEO@DeactivateSlot@ DB 'DeactivateSlot', 00H ; `string'
CONST	ENDS
;	COMDAT ??_C@_0N@HFCIPMIE@ActivateSlot@
CONST	SEGMENT
??_C@_0N@HFCIPMIE@ActivateSlot@ DB 'ActivateSlot', 00H	; `string'
CONST	ENDS
;	COMDAT ??_C@_0O@FJKNHKBL@SetToggleSlot@
CONST	SEGMENT
??_C@_0O@FJKNHKBL@SetToggleSlot@ DB 'SetToggleSlot', 00H ; `string'
CONST	ENDS
;	COMDAT ??_C@_0BA@OKBNFKML@SetSlotCoolTime@
CONST	SEGMENT
??_C@_0BA@OKBNFKML@SetSlotCoolTime@ DB 'SetSlotCoolTime', 00H ; `string'
CONST	ENDS
;	COMDAT ??_C@_0BA@OOLIKBKI@SetSlotCountNew@
CONST	SEGMENT
??_C@_0BA@OOLIKBKI@SetSlotCountNew@ DB 'SetSlotCountNew', 00H ; `string'
CONST	ENDS
;	COMDAT ??_C@_0N@IEAMEDFH@SetSlotCount@
CONST	SEGMENT
??_C@_0N@IEAMEDFH@SetSlotCount@ DB 'SetSlotCount', 00H	; `string'
CONST	ENDS
;	COMDAT ??_C@_07ONCDFGJ@SetSlot@
CONST	SEGMENT
??_C@_07ONCDFGJ@SetSlot@ DB 'SetSlot', 00H		; `string'
CONST	ENDS
;	COMDAT ??_C@_07MGEJAMLP@HasSlot@
CONST	SEGMENT
??_C@_07MGEJAMLP@HasSlot@ DB 'HasSlot', 00H		; `string'
CONST	ENDS
;	COMDAT ??_C@_0N@MMOLDNHK@ClearAllSlot@
CONST	SEGMENT
??_C@_0N@MMOLDNHK@ClearAllSlot@ DB 'ClearAllSlot', 00H	; `string'
CONST	ENDS
;	COMDAT ??_C@_09CGBENBJB@ClearSlot@
CONST	SEGMENT
??_C@_09CGBENBJB@ClearSlot@ DB 'ClearSlot', 00H		; `string'
CONST	ENDS
;	COMDAT ??_C@_0M@OFNEHKDL@ArrangeSlot@
CONST	SEGMENT
??_C@_0M@OFNEHKDL@ArrangeSlot@ DB 'ArrangeSlot', 00H	; `string'
CONST	ENDS
;	COMDAT ??_C@_0L@FDCINHBF@AppendSlot@
CONST	SEGMENT
??_C@_0L@FDCINHBF@AppendSlot@ DB 'AppendSlot', 00H	; `string'
CONST	ENDS
;	COMDAT ??_C@_0L@HJOBPCKA@UpdateRect@
CONST	SEGMENT
??_C@_0L@HJOBPCKA@UpdateRect@ DB 'UpdateRect', 00H	; `string'
CONST	ENDS
;	COMDAT ??_C@_0N@CCOOMDHD@SetLimitBias@
CONST	SEGMENT
??_C@_0N@CCOOMDHD@SetLimitBias@ DB 'SetLimitBias', 00H	; `string'
CONST	ENDS
;	COMDAT ??_C@_0L@HEPBODCJ@IsDragging@
CONST	SEGMENT
??_C@_0L@HEPBODCJ@IsDragging@ DB 'IsDragging', 00H	; `string'
CONST	ENDS
;	COMDAT ??_C@_0BB@MMLACOLH@GetMousePosition@
CONST	SEGMENT
??_C@_0BB@MMLACOLH@GetMousePosition@ DB 'GetMousePosition', 00H ; `string'
CONST	ENDS
;	COMDAT ??_C@_0BG@NHBHOLBI@GetMouseLocalPosition@
CONST	SEGMENT
??_C@_0BG@NHBHOLBI@GetMouseLocalPosition@ DB 'GetMouseLocalPosition', 00H ; `string'
CONST	ENDS
;	COMDAT ??_C@_04JBIBMNMO@IsIn@
CONST	SEGMENT
??_C@_04JBIBMNMO@IsIn@ DB 'IsIn', 00H			; `string'
CONST	ENDS
;	COMDAT ??_C@_0P@GEIEEBJH@IsPickedWindow@
CONST	SEGMENT
??_C@_0P@GEIEEBJH@IsPickedWindow@ DB 'IsPickedWindow', 00H ; `string'
CONST	ENDS
;	COMDAT ??_C@_0O@HMBCELHA@GetChildCount@
CONST	SEGMENT
??_C@_0O@HMBCELHA@GetChildCount@ DB 'GetChildCount', 00H ; `string'
CONST	ENDS
;	COMDAT ??_C@_0BH@KDPMNJIB@SetWindowVerticalAlign@
CONST	SEGMENT
??_C@_0BH@KDPMNJIB@SetWindowVerticalAlign@ DB 'SetWindowVerticalAlign', 00H ; `string'
CONST	ENDS
;	COMDAT ??_C@_0BJ@FGPBHCAH@SetWindowHorizontalAlign@
CONST	SEGMENT
??_C@_0BJ@FGPBHCAH@SetWindowHorizontalAlign@ DB 'SetWindowHorizontalAlign'
	DB	00H						; `string'
CONST	ENDS
;	COMDAT ??_C@_0O@KGOHEIMB@GetWindowRect@
CONST	SEGMENT
??_C@_0O@KGOHEIMB@GetWindowRect@ DB 'GetWindowRect', 00H ; `string'
CONST	ENDS
;	COMDAT ??_C@_0BI@NOJPNPDO@GetWindowGlobalPosition@
CONST	SEGMENT
??_C@_0BI@NOJPNPDO@GetWindowGlobalPosition@ DB 'GetWindowGlobalPosition', 00H ; `string'
CONST	ENDS
;	COMDAT ??_C@_0BH@KEOBHEHD@GetWindowLocalPosition@
CONST	SEGMENT
??_C@_0BH@KEOBHEHD@GetWindowLocalPosition@ DB 'GetWindowLocalPosition', 00H ; `string'
CONST	ENDS
;	COMDAT ??_C@_0BA@GMMDIMHA@GetWindowHeight@
CONST	SEGMENT
??_C@_0BA@GMMDIMHA@GetWindowHeight@ DB 'GetWindowHeight', 00H ; `string'
CONST	ENDS
;	COMDAT ??_C@_0P@EJALLAMK@GetWindowWidth@
CONST	SEGMENT
??_C@_0P@EJALLAMK@GetWindowWidth@ DB 'GetWindowWidth', 00H ; `string'
CONST	ENDS
;	COMDAT ??_C@_0BC@CONADAIE@SetWindowPosition@
CONST	SEGMENT
??_C@_0BC@CONADAIE@SetWindowPosition@ DB 'SetWindowPosition', 00H ; `string'
CONST	ENDS
;	COMDAT ??_C@_0O@OOGBNGFB@SetWindowSize@
CONST	SEGMENT
??_C@_0O@OOGBNGFB@SetWindowSize@ DB 'SetWindowSize', 00H ; `string'
CONST	ENDS
;	COMDAT ??_C@_06NCJPDCLH@Unlock@
CONST	SEGMENT
??_C@_06NCJPDCLH@Unlock@ DB 'Unlock', 00H		; `string'
CONST	ENDS
;	COMDAT ??_C@_04LADJNOK@Lock@
CONST	SEGMENT
??_C@_04LADJNOK@Lock@ DB 'Lock', 00H			; `string'
CONST	ENDS
;	COMDAT ??_C@_09PMGFBOMK@KillFocus@
CONST	SEGMENT
??_C@_09PMGFBOMK@KillFocus@ DB 'KillFocus', 00H		; `string'
CONST	ENDS
;	COMDAT ??_C@_08GPNNBNIL@SetFocus@
CONST	SEGMENT
??_C@_08GPNNBNIL@SetFocus@ DB 'SetFocus', 00H		; `string'
CONST	ENDS
;	COMDAT ??_C@_07MMFHOCGI@IsFocus@
CONST	SEGMENT
??_C@_07MMFHOCGI@IsFocus@ DB 'IsFocus', 00H		; `string'
CONST	ENDS
;	COMDAT ??_C@_0O@PGINCMBF@SetPickAlways@
CONST	SEGMENT
??_C@_0O@PGINCMBF@SetPickAlways@ DB 'SetPickAlways', 00H ; `string'
CONST	ENDS
;	COMDAT ??_C@_09BGDFCKEN@SetParent@
CONST	SEGMENT
??_C@_09BGDFCKEN@SetParent@ DB 'SetParent', 00H		; `string'
CONST	ENDS
;	COMDAT ??_C@_06JMGCGGJP@IsShow@
CONST	SEGMENT
??_C@_06JMGCGGJP@IsShow@ DB 'IsShow', 00H		; `string'
CONST	ENDS
;	COMDAT ??_C@_04EACEFPPN@Hide@
CONST	SEGMENT
??_C@_04EACEFPPN@Hide@ DB 'Hide', 00H			; `string'
CONST	ENDS
;	COMDAT ??_C@_04JLAJABDJ@Show@
CONST	SEGMENT
??_C@_04JLAJABDJ@Show@ DB 'Show', 00H			; `string'
CONST	ENDS
;	COMDAT ??_C@_05PAMDPCPJ@IsTop@
CONST	SEGMENT
??_C@_05PAMDPCPJ@IsTop@ DB 'IsTop', 00H			; `string'
CONST	ENDS
;	COMDAT ??_C@_06MBOGGFD@SetTop@
CONST	SEGMENT
??_C@_06MBOGGFD@SetTop@ DB 'SetTop', 00H		; `string'
CONST	ENDS
;	COMDAT ??_C@_07MMGEHGCI@GetName@
CONST	SEGMENT
??_C@_07MMGEHGCI@GetName@ DB 'GetName', 00H		; `string'
CONST	ENDS
;	COMDAT ??_C@_07DEJFEJPJ@SetName@
CONST	SEGMENT
??_C@_07DEJFEJPJ@SetName@ DB 'SetName', 00H		; `string'
CONST	ENDS
;	COMDAT ??_C@_05IOGFNOKL@IsRTL@
CONST	SEGMENT
??_C@_05IOGFNOKL@IsRTL@ DB 'IsRTL', 00H			; `string'
CONST	ENDS
;	COMDAT ??_C@_0L@DFOIPDPL@RemoveFlag@
CONST	SEGMENT
??_C@_0L@DFOIPDPL@RemoveFlag@ DB 'RemoveFlag', 00H	; `string'
CONST	ENDS
;	COMDAT ??_C@_07FGJMHOHK@AddFlag@
CONST	SEGMENT
??_C@_07FGJMHOHK@AddFlag@ DB 'AddFlag', 00H		; `string'
CONST	ENDS
;	COMDAT ??_C@_07BDCAJABG@Destroy@
CONST	SEGMENT
??_C@_07BDCAJABG@Destroy@ DB 'Destroy', 00H		; `string'
CONST	ENDS
;	COMDAT ??_C@_0BD@DBAMBKME@RegisterNumberLine@
CONST	SEGMENT
??_C@_0BD@DBAMBKME@RegisterNumberLine@ DB 'RegisterNumberLine', 00H ; `string'
CONST	ENDS
;	COMDAT ??_C@_0O@EKKPECKF@RegisterBar3D@
CONST	SEGMENT
??_C@_0O@EKKPECKF@RegisterBar3D@ DB 'RegisterBar3D', 00H ; `string'
CONST	ENDS
;	COMDAT ??_C@_0N@ICAPFHKF@RegisterLine@
CONST	SEGMENT
??_C@_0N@ICAPFHKF@RegisterLine@ DB 'RegisterLine', 00H	; `string'
CONST	ENDS
;	COMDAT ??_C@_0M@DCMAIKFH@RegisterBar@
CONST	SEGMENT
??_C@_0M@DCMAIKFH@RegisterBar@ DB 'RegisterBar', 00H	; `string'
CONST	ENDS
;	COMDAT ??_C@_0M@MCLBEPNH@RegisterBox@
CONST	SEGMENT
??_C@_0M@MCLBEPNH@RegisterBox@ DB 'RegisterBox', 00H	; `string'
CONST	ENDS
;	COMDAT ??_C@_0BD@FJKAFMBK@RegisterDragButton@
CONST	SEGMENT
??_C@_0BD@FJKAFMBK@RegisterDragButton@ DB 'RegisterDragButton', 00H ; `string'
CONST	ENDS
;	COMDAT ??_C@_0BF@LKPDMOKE@RegisterToggleButton@
CONST	SEGMENT
??_C@_0BF@LKPDMOKE@RegisterToggleButton@ DB 'RegisterToggleButton', 00H ; `string'
CONST	ENDS
;	COMDAT ??_C@_0BE@LOKOGAFI@RegisterRadioButton@
CONST	SEGMENT
??_C@_0BE@LOKOGAFI@RegisterRadioButton@ DB 'RegisterRadioButton', 00H ; `string'
CONST	ENDS
;	COMDAT ??_C@_0P@HIFEMCKE@RegisterButton@
CONST	SEGMENT
??_C@_0P@HIFEMCKE@RegisterButton@ DB 'RegisterButton', 00H ; `string'
CONST	ENDS
;	COMDAT ??_C@_0BE@EHOJIJPF@RegisterAniImageBox@
CONST	SEGMENT
??_C@_0BE@EHOJIJPF@RegisterAniImageBox@ DB 'RegisterAniImageBox', 00H ; `string'
CONST	ENDS
;	COMDAT ??_C@_0BJ@HCLPCLBM@RegisterExpandedImageBox@
CONST	SEGMENT
??_C@_0BJ@HCLPCLBM@RegisterExpandedImageBox@ DB 'RegisterExpandedImageBox'
	DB	00H						; `string'
CONST	ENDS
;	COMDAT ??_C@_0BB@CGJHKCPO@RegisterImageBox@
CONST	SEGMENT
??_C@_0BB@CGJHKCPO@RegisterImageBox@ DB 'RegisterImageBox', 00H ; `string'
CONST	ENDS
;	COMDAT ??_C@_0BA@BLOHJECG@RegisterMarkBox@
CONST	SEGMENT
??_C@_0BA@BLOHJECG@RegisterMarkBox@ DB 'RegisterMarkBox', 00H ; `string'
CONST	ENDS
;	COMDAT ??_C@_0BB@JKLFNGCE@RegisterTextLine@
CONST	SEGMENT
??_C@_0BB@JKLFNGCE@RegisterTextLine@ DB 'RegisterTextLine', 00H ; `string'
CONST	ENDS
;	COMDAT ??_C@_0BH@HHDOCCCO@RegisterGridSlotWindow@
CONST	SEGMENT
??_C@_0BH@HHDOCCCO@RegisterGridSlotWindow@ DB 'RegisterGridSlotWindow', 00H ; `string'
CONST	ENDS
;	COMDAT ??_C@_0BD@HNEHNBHO@RegisterSlotWindow@
CONST	SEGMENT
??_C@_0BD@HNEHNBHO@RegisterSlotWindow@ DB 'RegisterSlotWindow', 00H ; `string'
CONST	ENDS
;	COMDAT ??_C@_08LFIJLPOM@Register@
CONST	SEGMENT
??_C@_08LFIJLPOM@Register@ DB 'Register', 00H		; `string'
CONST	ENDS
;	COMDAT ??_C@_0CB@JDNFNFMG@OnceIgnoreMouseLeftButtonUpEven@
CONST	SEGMENT
??_C@_0CB@JDNFNFMG@OnceIgnoreMouseLeftButtonUpEven@ DB 'OnceIgnoreMouseLe'
	DB	'ftButtonUpEvent', 00H			; `string'
CONST	ENDS
;	COMDAT ??_C@_0N@PCIKAOKG@GetHyperlink@
CONST	SEGMENT
??_C@_0N@PCIKAOKG@GetHyperlink@ DB 'GetHyperlink', 00H	; `string'
CONST	ENDS
;	COMDAT ??_C@_09MFNPPPAG@GetAspect@
CONST	SEGMENT
??_C@_09MFNPPPAG@GetAspect@ DB 'GetAspect', 00H		; `string'
CONST	ENDS
;	COMDAT ??_C@_0BB@OJBFCDNH@SetAttachingFlag@
CONST	SEGMENT
??_C@_0BB@OJBFCDNH@SetAttachingFlag@ DB 'SetAttachingFlag', 00H ; `string'
CONST	ENDS
;	COMDAT ??_C@_0N@HIMEHEBA@DeattachIcon@
CONST	SEGMENT
??_C@_0N@HIMEHEBA@DeattachIcon@ DB 'DeattachIcon', 00H	; `string'
CONST	ENDS
;	COMDAT ??_C@_0L@FHGOOMIM@AttachIcon@
CONST	SEGMENT
??_C@_0L@FHGOOMIM@AttachIcon@ DB 'AttachIcon', 00H	; `string'
CONST	ENDS
;	COMDAT ??_C@_0BA@PLLJJDCL@GetScreenHeight@
CONST	SEGMENT
??_C@_0BA@PLLJJDCL@GetScreenHeight@ DB 'GetScreenHeight', 00H ; `string'
CONST	ENDS
;	COMDAT ??_C@_0P@OBMNGDMB@GetScreenWidth@
CONST	SEGMENT
??_C@_0P@OBMNGDMB@GetScreenWidth@ DB 'GetScreenWidth', 00H ; `string'
CONST	ENDS
;	COMDAT ??_C@_0O@EPGNIIPM@SetScreenSize@
CONST	SEGMENT
??_C@_0O@EPGNIIPM@SetScreenSize@ DB 'SetScreenSize', 00H ; `string'
CONST	ENDS
;	COMDAT ??_C@_0BA@PPCHHCMN@SetMouseHandler@
CONST	SEGMENT
??_C@_0BA@PPCHHCMN@SetMouseHandler@ DB 'SetMouseHandler', 00H ; `string'
CONST	ENDS
;	COMDAT ?s_methods@?1??initwndMgr@@YAXXZ@4PAUPyMethodDef@@A
_DATA	SEGMENT
?s_methods@?1??initwndMgr@@YAXXZ@4PAUPyMethodDef@@A DD FLAT:??_C@_0BA@PPCHHCMN@SetMouseHandler@ ; `initwndMgr'::`2'::s_methods
	DD	FLAT:?wndMgrSetMouseHandler@@YAPAU_object@@PAU1@0@Z
	DD	01H
	ORG $+4
	DD	FLAT:??_C@_0O@EPGNIIPM@SetScreenSize@
	DD	FLAT:?wndMgrSetScreenSize@@YAPAU_object@@PAU1@0@Z
	DD	01H
	ORG $+4
	DD	FLAT:??_C@_0P@OBMNGDMB@GetScreenWidth@
	DD	FLAT:?wndMgrGetScreenWidth@@YAPAU_object@@PAU1@0@Z
	DD	01H
	ORG $+4
	DD	FLAT:??_C@_0BA@PLLJJDCL@GetScreenHeight@
	DD	FLAT:?wndMgrGetScreenHeight@@YAPAU_object@@PAU1@0@Z
	DD	01H
	ORG $+4
	DD	FLAT:??_C@_0L@FHGOOMIM@AttachIcon@
	DD	FLAT:?wndMgrAttachIcon@@YAPAU_object@@PAU1@0@Z
	DD	01H
	ORG $+4
	DD	FLAT:??_C@_0N@HIMEHEBA@DeattachIcon@
	DD	FLAT:?wndMgrDeattachIcon@@YAPAU_object@@PAU1@0@Z
	DD	01H
	ORG $+4
	DD	FLAT:??_C@_0BB@OJBFCDNH@SetAttachingFlag@
	DD	FLAT:?wndMgrSetAttachingFlag@@YAPAU_object@@PAU1@0@Z
	DD	01H
	ORG $+4
	DD	FLAT:??_C@_09MFNPPPAG@GetAspect@
	DD	FLAT:?wndMgrGetAspect@@YAPAU_object@@PAU1@0@Z
	DD	01H
	ORG $+4
	DD	FLAT:??_C@_0N@PCIKAOKG@GetHyperlink@
	DD	FLAT:?wndMgrGetHyperlink@@YAPAU_object@@PAU1@0@Z
	DD	01H
	ORG $+4
	DD	FLAT:??_C@_0CB@JDNFNFMG@OnceIgnoreMouseLeftButtonUpEven@
	DD	FLAT:?wndMgrOnceIgnoreMouseLeftButtonUpEvent@@YAPAU_object@@PAU1@0@Z
	DD	01H
	ORG $+4
	DD	FLAT:??_C@_08LFIJLPOM@Register@
	DD	FLAT:?wndMgrRegister@@YAPAU_object@@PAU1@0@Z
	DD	01H
	ORG $+4
	DD	FLAT:??_C@_0BD@HNEHNBHO@RegisterSlotWindow@
	DD	FLAT:?wndMgrRegisterSlotWindow@@YAPAU_object@@PAU1@0@Z
	DD	01H
	ORG $+4
	DD	FLAT:??_C@_0BH@HHDOCCCO@RegisterGridSlotWindow@
	DD	FLAT:?wndMgrRegisterGridSlotWindow@@YAPAU_object@@PAU1@0@Z
	DD	01H
	ORG $+4
	DD	FLAT:??_C@_0BB@JKLFNGCE@RegisterTextLine@
	DD	FLAT:?wndMgrRegisterTextLine@@YAPAU_object@@PAU1@0@Z
	DD	01H
	ORG $+4
	DD	FLAT:??_C@_0BA@BLOHJECG@RegisterMarkBox@
	DD	FLAT:?wndMgrRegisterMarkBox@@YAPAU_object@@PAU1@0@Z
	DD	01H
	ORG $+4
	DD	FLAT:??_C@_0BB@CGJHKCPO@RegisterImageBox@
	DD	FLAT:?wndMgrRegisterImageBox@@YAPAU_object@@PAU1@0@Z
	DD	01H
	ORG $+4
	DD	FLAT:??_C@_0BJ@HCLPCLBM@RegisterExpandedImageBox@
	DD	FLAT:?wndMgrRegisterExpandedImageBox@@YAPAU_object@@PAU1@0@Z
	DD	01H
	ORG $+4
	DD	FLAT:??_C@_0BE@EHOJIJPF@RegisterAniImageBox@
	DD	FLAT:?wndMgrRegisterAniImageBox@@YAPAU_object@@PAU1@0@Z
	DD	01H
	ORG $+4
	DD	FLAT:??_C@_0P@HIFEMCKE@RegisterButton@
	DD	FLAT:?wndMgrRegisterButton@@YAPAU_object@@PAU1@0@Z
	DD	01H
	ORG $+4
	DD	FLAT:??_C@_0BE@LOKOGAFI@RegisterRadioButton@
	DD	FLAT:?wndMgrRegisterRadioButton@@YAPAU_object@@PAU1@0@Z
	DD	01H
	ORG $+4
	DD	FLAT:??_C@_0BF@LKPDMOKE@RegisterToggleButton@
	DD	FLAT:?wndMgrRegisterToggleButton@@YAPAU_object@@PAU1@0@Z
	DD	01H
	ORG $+4
	DD	FLAT:??_C@_0BD@FJKAFMBK@RegisterDragButton@
	DD	FLAT:?wndMgrRegisterDragButton@@YAPAU_object@@PAU1@0@Z
	DD	01H
	ORG $+4
	DD	FLAT:??_C@_0M@MCLBEPNH@RegisterBox@
	DD	FLAT:?wndMgrRegisterBox@@YAPAU_object@@PAU1@0@Z
	DD	01H
	ORG $+4
	DD	FLAT:??_C@_0M@DCMAIKFH@RegisterBar@
	DD	FLAT:?wndMgrRegisterBar@@YAPAU_object@@PAU1@0@Z
	DD	01H
	ORG $+4
	DD	FLAT:??_C@_0N@ICAPFHKF@RegisterLine@
	DD	FLAT:?wndMgrRegisterLine@@YAPAU_object@@PAU1@0@Z
	DD	01H
	ORG $+4
	DD	FLAT:??_C@_0O@EKKPECKF@RegisterBar3D@
	DD	FLAT:?wndMgrRegisterBar3D@@YAPAU_object@@PAU1@0@Z
	DD	01H
	ORG $+4
	DD	FLAT:??_C@_0BD@DBAMBKME@RegisterNumberLine@
	DD	FLAT:?wndMgrRegisterNumberLine@@YAPAU_object@@PAU1@0@Z
	DD	01H
	ORG $+4
	DD	FLAT:??_C@_07BDCAJABG@Destroy@
	DD	FLAT:?wndMgrDestroy@@YAPAU_object@@PAU1@0@Z
	DD	01H
	ORG $+4
	DD	FLAT:??_C@_07FGJMHOHK@AddFlag@
	DD	FLAT:?wndMgrAddFlag@@YAPAU_object@@PAU1@0@Z
	DD	01H
	ORG $+4
	DD	FLAT:??_C@_0L@DFOIPDPL@RemoveFlag@
	DD	FLAT:?wndMgrRemoveFlag@@YAPAU_object@@PAU1@0@Z
	DD	01H
	ORG $+4
	DD	FLAT:??_C@_05IOGFNOKL@IsRTL@
	DD	FLAT:?wndMgrIsRTL@@YAPAU_object@@PAU1@0@Z
	DD	01H
	ORG $+4
	DD	FLAT:??_C@_07DEJFEJPJ@SetName@
	DD	FLAT:?wndMgrSetName@@YAPAU_object@@PAU1@0@Z
	DD	01H
	ORG $+4
	DD	FLAT:??_C@_07MMGEHGCI@GetName@
	DD	FLAT:?wndMgrGetName@@YAPAU_object@@PAU1@0@Z
	DD	01H
	ORG $+4
	DD	FLAT:??_C@_06MBOGGFD@SetTop@
	DD	FLAT:?wndMgrSetTop@@YAPAU_object@@PAU1@0@Z
	DD	01H
	ORG $+4
	DD	FLAT:??_C@_05PAMDPCPJ@IsTop@
	DD	FLAT:?wndMgrIsTop@@YAPAU_object@@PAU1@0@Z
	DD	01H
	ORG $+4
	DD	FLAT:??_C@_04JLAJABDJ@Show@
	DD	FLAT:?wndMgrShow@@YAPAU_object@@PAU1@0@Z
	DD	01H
	ORG $+4
	DD	FLAT:??_C@_04EACEFPPN@Hide@
	DD	FLAT:?wndMgrHide@@YAPAU_object@@PAU1@0@Z
	DD	01H
	ORG $+4
	DD	FLAT:??_C@_06JMGCGGJP@IsShow@
	DD	FLAT:?wndMgrIsShow@@YAPAU_object@@PAU1@0@Z
	DD	01H
	ORG $+4
	DD	FLAT:??_C@_09BGDFCKEN@SetParent@
	DD	FLAT:?wndMgrSetParent@@YAPAU_object@@PAU1@0@Z
	DD	01H
	ORG $+4
	DD	FLAT:??_C@_0O@PGINCMBF@SetPickAlways@
	DD	FLAT:?wndMgrSetPickAlways@@YAPAU_object@@PAU1@0@Z
	DD	01H
	ORG $+4
	DD	FLAT:??_C@_07MMFHOCGI@IsFocus@
	DD	FLAT:?wndMgrIsFocus@@YAPAU_object@@PAU1@0@Z
	DD	01H
	ORG $+4
	DD	FLAT:??_C@_08GPNNBNIL@SetFocus@
	DD	FLAT:?wndMgrSetFocus@@YAPAU_object@@PAU1@0@Z
	DD	01H
	ORG $+4
	DD	FLAT:??_C@_09PMGFBOMK@KillFocus@
	DD	FLAT:?wndMgrKillFocus@@YAPAU_object@@PAU1@0@Z
	DD	01H
	ORG $+4
	DD	FLAT:??_C@_04LADJNOK@Lock@
	DD	FLAT:?wndMgrLock@@YAPAU_object@@PAU1@0@Z
	DD	01H
	ORG $+4
	DD	FLAT:??_C@_06NCJPDCLH@Unlock@
	DD	FLAT:?wndMgrUnlock@@YAPAU_object@@PAU1@0@Z
	DD	01H
	ORG $+4
	DD	FLAT:??_C@_0O@OOGBNGFB@SetWindowSize@
	DD	FLAT:?wndMgrSetWndSize@@YAPAU_object@@PAU1@0@Z
	DD	01H
	ORG $+4
	DD	FLAT:??_C@_0BC@CONADAIE@SetWindowPosition@
	DD	FLAT:?wndMgrSetWndPosition@@YAPAU_object@@PAU1@0@Z
	DD	01H
	ORG $+4
	DD	FLAT:??_C@_0P@EJALLAMK@GetWindowWidth@
	DD	FLAT:?wndMgrGetWndWidth@@YAPAU_object@@PAU1@0@Z
	DD	01H
	ORG $+4
	DD	FLAT:??_C@_0BA@GMMDIMHA@GetWindowHeight@
	DD	FLAT:?wndMgrGetWndHeight@@YAPAU_object@@PAU1@0@Z
	DD	01H
	ORG $+4
	DD	FLAT:??_C@_0BH@KEOBHEHD@GetWindowLocalPosition@
	DD	FLAT:?wndMgrGetWndLocalPosition@@YAPAU_object@@PAU1@0@Z
	DD	01H
	ORG $+4
	DD	FLAT:??_C@_0BI@NOJPNPDO@GetWindowGlobalPosition@
	DD	FLAT:?wndMgrGetWndGlobalPosition@@YAPAU_object@@PAU1@0@Z
	DD	01H
	ORG $+4
	DD	FLAT:??_C@_0O@KGOHEIMB@GetWindowRect@
	DD	FLAT:?wndMgrGetWindowRect@@YAPAU_object@@PAU1@0@Z
	DD	01H
	ORG $+4
	DD	FLAT:??_C@_0BJ@FGPBHCAH@SetWindowHorizontalAlign@
	DD	FLAT:?wndMgrSetWindowHorizontalAlign@@YAPAU_object@@PAU1@0@Z
	DD	01H
	ORG $+4
	DD	FLAT:??_C@_0BH@KDPMNJIB@SetWindowVerticalAlign@
	DD	FLAT:?wndMgrSetWindowVerticalAlign@@YAPAU_object@@PAU1@0@Z
	DD	01H
	ORG $+4
	DD	FLAT:??_C@_0O@HMBCELHA@GetChildCount@
	DD	FLAT:?wndMgrGetChildCount@@YAPAU_object@@PAU1@0@Z
	DD	01H
	ORG $+4
	DD	FLAT:??_C@_0P@GEIEEBJH@IsPickedWindow@
	DD	FLAT:?wndMgrIsPickedWindow@@YAPAU_object@@PAU1@0@Z
	DD	01H
	ORG $+4
	DD	FLAT:??_C@_04JBIBMNMO@IsIn@
	DD	FLAT:?wndMgrIsIn@@YAPAU_object@@PAU1@0@Z
	DD	01H
	ORG $+4
	DD	FLAT:??_C@_0BG@NHBHOLBI@GetMouseLocalPosition@
	DD	FLAT:?wndMgrGetMouseLocalPosition@@YAPAU_object@@PAU1@0@Z
	DD	01H
	ORG $+4
	DD	FLAT:??_C@_0BB@MMLACOLH@GetMousePosition@
	DD	FLAT:?wndMgrGetMousePosition@@YAPAU_object@@PAU1@0@Z
	DD	01H
	ORG $+4
	DD	FLAT:??_C@_0L@HEPBODCJ@IsDragging@
	DD	FLAT:?wndMgrIsDragging@@YAPAU_object@@PAU1@0@Z
	DD	01H
	ORG $+4
	DD	FLAT:??_C@_0N@CCOOMDHD@SetLimitBias@
	DD	FLAT:?wndMgrSetLimitBias@@YAPAU_object@@PAU1@0@Z
	DD	01H
	ORG $+4
	DD	FLAT:??_C@_0L@HJOBPCKA@UpdateRect@
	DD	FLAT:?wndMgrUpdateRect@@YAPAU_object@@PAU1@0@Z
	DD	01H
	ORG $+4
	DD	FLAT:??_C@_0L@FDCINHBF@AppendSlot@
	DD	FLAT:?wndMgrAppendSlot@@YAPAU_object@@PAU1@0@Z
	DD	01H
	ORG $+4
	DD	FLAT:??_C@_0M@OFNEHKDL@ArrangeSlot@
	DD	FLAT:?wndMgrArrangeSlot@@YAPAU_object@@PAU1@0@Z
	DD	01H
	ORG $+4
	DD	FLAT:??_C@_09CGBENBJB@ClearSlot@
	DD	FLAT:?wndMgrClearSlot@@YAPAU_object@@PAU1@0@Z
	DD	01H
	ORG $+4
	DD	FLAT:??_C@_0N@MMOLDNHK@ClearAllSlot@
	DD	FLAT:?wndMgrClearAllSlot@@YAPAU_object@@PAU1@0@Z
	DD	01H
	ORG $+4
	DD	FLAT:??_C@_07MGEJAMLP@HasSlot@
	DD	FLAT:?wndMgrHasSlot@@YAPAU_object@@PAU1@0@Z
	DD	01H
	ORG $+4
	DD	FLAT:??_C@_07ONCDFGJ@SetSlot@
	DD	FLAT:?wndMgrSetSlot@@YAPAU_object@@PAU1@0@Z
	DD	01H
	ORG $+4
	DD	FLAT:??_C@_0N@IEAMEDFH@SetSlotCount@
	DD	FLAT:?wndMgrSetSlotCount@@YAPAU_object@@PAU1@0@Z
	DD	01H
	ORG $+4
	DD	FLAT:??_C@_0BA@OOLIKBKI@SetSlotCountNew@
	DD	FLAT:?wndMgrSetSlotCountNew@@YAPAU_object@@PAU1@0@Z
	DD	01H
	ORG $+4
	DD	FLAT:??_C@_0BA@OKBNFKML@SetSlotCoolTime@
	DD	FLAT:?wndMgrSetSlotCoolTime@@YAPAU_object@@PAU1@0@Z
	DD	01H
	ORG $+4
	DD	FLAT:??_C@_0O@FJKNHKBL@SetToggleSlot@
	DD	FLAT:?wndMgrSetToggleSlot@@YAPAU_object@@PAU1@0@Z
	DD	01H
	ORG $+4
	DD	FLAT:??_C@_0N@HFCIPMIE@ActivateSlot@
	DD	FLAT:?wndMgrActivateSlot@@YAPAU_object@@PAU1@0@Z
	DD	01H
	ORG $+4
	DD	FLAT:??_C@_0P@FGAIANEO@DeactivateSlot@
	DD	FLAT:?wndMgrDeactivateSlot@@YAPAU_object@@PAU1@0@Z
	DD	01H
	ORG $+4
	DD	FLAT:??_C@_0BA@GGAABDOP@NewActivateSlot@
	DD	FLAT:?wndMgrNewActivateSlot@@YAPAU_object@@PAU1@0@Z
	DD	01H
	ORG $+4
	DD	FLAT:??_C@_0BC@OALEFDOD@NewDeactivateSlot@
	DD	FLAT:?wndMgrNewDeactivateSlot@@YAPAU_object@@PAU1@0@Z
	DD	01H
	ORG $+4
	DD	FLAT:??_C@_0L@DHCLIIGL@EnableSlot@
	DD	FLAT:?wndMgrEnableSlot@@YAPAU_object@@PAU1@0@Z
	DD	01H
	ORG $+4
	DD	FLAT:??_C@_0M@EKMKGECP@DisableSlot@
	DD	FLAT:?wndMgrDisableSlot@@YAPAU_object@@PAU1@0@Z
	DD	01H
	ORG $+4
	DD	FLAT:??_C@_0BA@PMAALDEC@SetUnusableSlot@
	DD	FLAT:?wndMgrSetUnusableSlot@@YAPAU_object@@PAU1@0@Z
	DD	01H
	ORG $+4
	DD	FLAT:??_C@_0O@JOELLDFD@SetUsableSlot@
	DD	FLAT:?wndMgrSetUsableSlot@@YAPAU_object@@PAU1@0@Z
	DD	01H
	ORG $+4
	DD	FLAT:??_C@_0BC@DHCKDEOK@ShowSlotBaseImage@
	DD	FLAT:?wndMgrShowSlotBaseImage@@YAPAU_object@@PAU1@0@Z
	DD	01H
	ORG $+4
	DD	FLAT:??_C@_0BC@NFMHNFLM@HideSlotBaseImage@
	DD	FLAT:?wndMgrHideSlotBaseImage@@YAPAU_object@@PAU1@0@Z
	DD	01H
	ORG $+4
	DD	FLAT:??_C@_0M@KHOHGEMH@SetSlotType@
	DD	FLAT:?wndMgrSetSlotType@@YAPAU_object@@PAU1@0@Z
	DD	01H
	ORG $+4
	DD	FLAT:??_C@_0N@IKGBKPJJ@SetSlotStyle@
	DD	FLAT:?wndMgrSetSlotStyle@@YAPAU_object@@PAU1@0@Z
	DD	01H
	ORG $+4
	DD	FLAT:??_C@_0BB@IOMAJEMI@SetSlotBaseImage@
	DD	FLAT:?wndMgrSetSlotBaseImage@@YAPAU_object@@PAU1@0@Z
	DD	01H
	ORG $+4
	DD	FLAT:??_C@_0P@JKHNGGPA@SetCoverButton@
	DD	FLAT:?wndMgrSetCoverButton@@YAPAU_object@@PAU1@0@Z
	DD	01H
	ORG $+4
	DD	FLAT:??_C@_0BC@GDLBPCHF@EnableCoverButton@
	DD	FLAT:?wndMgrEnableCoverButton@@YAPAU_object@@PAU1@0@Z
	DD	01H
	ORG $+4
	DD	FLAT:??_C@_0BD@DOJCOOMI@DisableCoverButton@
	DD	FLAT:?wndMgrDisableCoverButton@@YAPAU_object@@PAU1@0@Z
	DD	01H
	ORG $+4
	DD	FLAT:??_C@_0BF@ILDMDDMH@IsDisableCoverButton@
	DD	FLAT:?wndMgrIsDisableCoverButton@@YAPAU_object@@PAU1@0@Z
	DD	01H
	ORG $+4
	DD	FLAT:??_C@_0BL@PAFAGEGB@SetAlwaysRenderCoverButton@
	DD	FLAT:?wndMgrSetAlwaysRenderCoverButton@@YAPAU_object@@PAU1@0@Z
	DD	01H
	ORG $+4
	DD	FLAT:??_C@_0BC@POMJDPJH@DeleteCoverButton@
	DD	FLAT:?wndMgrDeleteCoverButton@@YAPAU_object@@PAU1@0@Z
	DD	01H
	ORG $+4
	DD	FLAT:??_C@_0P@BOOMPDBD@GetSlotIndices@
	DD	FLAT:?wndMgrGetSlotIndices@@YAPAU_object@@PAU1@0@Z
	DD	01H
	ORG $+4
	DD	FLAT:??_C@_0BB@LLDDGEIL@AppendSlotButton@
	DD	FLAT:?wndMgrAppendSlotButton@@YAPAU_object@@PAU1@0@Z
	DD	01H
	ORG $+4
	DD	FLAT:??_C@_0BL@CCGBCIBD@AppendRequirementSignImage@
	DD	FLAT:?wndMgrAppendRequirementSignImage@@YAPAU_object@@PAU1@0@Z
	DD	01H
	ORG $+4
	DD	FLAT:??_C@_0P@CINLEJEK@ShowSlotButton@
	DD	FLAT:?wndMgrShowSlotButton@@YAPAU_object@@PAU1@0@Z
	DD	01H
	ORG $+4
	DD	FLAT:??_C@_0BC@IHMDJONI@HideAllSlotButton@
	DD	FLAT:?wndMgrHideAllSlotButton@@YAPAU_object@@PAU1@0@Z
	DD	01H
	ORG $+4
	DD	FLAT:??_C@_0BE@IGOEKEDL@ShowRequirementSign@
	DD	FLAT:?wndMgrShowRequirementSign@@YAPAU_object@@PAU1@0@Z
	DD	01H
	ORG $+4
	DD	FLAT:??_C@_0BE@LNAIGOOK@HideRequirementSign@
	DD	FLAT:?wndMgrHideRequirementSign@@YAPAU_object@@PAU1@0@Z
	DD	01H
	ORG $+4
	DD	FLAT:??_C@_0M@NAPCHMAM@RefreshSlot@
	DD	FLAT:?wndMgrRefreshSlot@@YAPAU_object@@PAU1@0@Z
	DD	01H
	ORG $+4
	DD	FLAT:??_C@_0L@ODKIIGJF@SetUseMode@
	DD	FLAT:?wndMgrSetUseMode@@YAPAU_object@@PAU1@0@Z
	DD	01H
	ORG $+4
	DD	FLAT:??_C@_09LLPJGKLN@IsUseMode@
	DD	FLAT:?wndMgrIsUseMode@@YAPAU_object@@PAU1@0@Z
	DD	01H
	ORG $+4
	DD	FLAT:??_C@_0O@LHCBGPMO@SetUsableItem@
	DD	FLAT:?wndMgrSetUsableItem@@YAPAU_object@@PAU1@0@Z
	DD	01H
	ORG $+4
	DD	FLAT:??_C@_0N@GPNIKFEM@IsUsableItem@
	DD	FLAT:?wndMgrIsUsableItem@@YAPAU_object@@PAU1@0@Z
	DD	01H
	ORG $+4
	DD	FLAT:??_C@_0O@KGCGGKBF@SetSwitchMode@
	DD	FLAT:?wndMgrSetSwitchMode@@YAPAU_object@@PAU1@0@Z
	DD	01H
	ORG $+4
	DD	FLAT:??_C@_0N@HONPKAJH@IsSwitchMode@
	DD	FLAT:?wndMgrIsSwitchMode@@YAPAU_object@@PAU1@0@Z
	DD	01H
	ORG $+4
	DD	FLAT:??_C@_0BC@DNDCFHHB@SetSwitchableItem@
	DD	FLAT:?wndMgrSetSwitchableItem@@YAPAU_object@@PAU1@0@Z
	DD	01H
	ORG $+4
	DD	FLAT:??_C@_0BB@KLCMDKEF@IsSwitchableItem@
	DD	FLAT:?wndMgrIsSwitchableItem@@YAPAU_object@@PAU1@0@Z
	DD	01H
	ORG $+4
	DD	FLAT:??_C@_0BE@NIFHGONC@GetPickedSlotNumber@
	DD	FLAT:?wndMgrGetPickedSlotNumber@@YAPAU_object@@PAU1@0@Z
	DD	01H
	ORG $+4
	DD	FLAT:??_C@_0BJ@MHPLGOEE@SetSlotHighlightedGreeen@
	DD	FLAT:?wndMgrSetSlotHighlightedGreeen@@YAPAU_object@@PAU1@0@Z
	DD	01H
	ORG $+4
	DD	FLAT:??_C@_0BM@HGKBMEM@DisableSlotHighlightedGreen@
	DD	FLAT:?wndMgrDisableSlotHighlightedGreen@@YAPAU_object@@PAU1@0@Z
	DD	01H
	ORG $+4
	DD	FLAT:??_C@_0L@EMMADCIN@SelectSlot@
	DD	FLAT:?wndMgrSelectSlot@@YAPAU_object@@PAU1@0@Z
	DD	01H
	ORG $+4
	DD	FLAT:??_C@_0O@OGHLMGNI@ClearSelected@
	DD	FLAT:?wndMgrClearSelected@@YAPAU_object@@PAU1@0@Z
	DD	01H
	ORG $+4
	DD	FLAT:??_C@_0BF@EECMELAK@GetSelectedSlotCount@
	DD	FLAT:?wndMgrGetSelectedSlotCount@@YAPAU_object@@PAU1@0@Z
	DD	01H
	ORG $+4
	DD	FLAT:??_C@_0BG@DJKADEKA@GetSelectedSlotNumber@
	DD	FLAT:?wndMgrGetSelectedSlotNumber@@YAPAU_object@@PAU1@0@Z
	DD	01H
	ORG $+4
	DD	FLAT:??_C@_0P@GKJOEMLC@IsSelectedSlot@
	DD	FLAT:?wndMgrIsSelectedSlot@@YAPAU_object@@PAU1@0@Z
	DD	01H
	ORG $+4
	DD	FLAT:??_C@_0N@PALCIPBL@GetSlotCount@
	DD	FLAT:?wndMgrGetSlotCount@@YAPAU_object@@PAU1@0@Z
	DD	01H
	ORG $+4
	DD	FLAT:??_C@_08PGGNMNPL@LockSlot@
	DD	FLAT:?wndMgrLockSlot@@YAPAU_object@@PAU1@0@Z
	DD	01H
	ORG $+4
	DD	FLAT:??_C@_0L@DPNFKPLP@UnlockSlot@
	DD	FLAT:?wndMgrUnlockSlot@@YAPAU_object@@PAU1@0@Z
	DD	01H
	ORG $+4
	DD	FLAT:??_C@_08GPNJILIJ@SetColor@
	DD	FLAT:?wndBarSetColor@@YAPAU_object@@PAU1@0@Z
	DD	01H
	ORG $+4
	DD	FLAT:??_C@_06ODEINJEE@SetMax@
	DD	FLAT:?wndTextSetMax@@YAPAU_object@@PAU1@0@Z
	DD	01H
	ORG $+4
	DD	FLAT:??_C@_0BD@FCLDCEMA@SetHorizontalAlign@
	DD	FLAT:?wndTextSetHorizontalAlign@@YAPAU_object@@PAU1@0@Z
	DD	01H
	ORG $+4
	DD	FLAT:??_C@_0BB@NKHPOFIC@SetVerticalAlign@
	DD	FLAT:?wndTextSetVerticalAlign@@YAPAU_object@@PAU1@0@Z
	DD	01H
	ORG $+4
	DD	FLAT:??_C@_09CAFHEMDD@SetSecret@
	DD	FLAT:?wndTextSetSecret@@YAPAU_object@@PAU1@0@Z
	DD	01H
	ORG $+4
	DD	FLAT:??_C@_0L@HBNEJDMM@SetOutline@
	DD	FLAT:?wndTextSetOutline@@YAPAU_object@@PAU1@0@Z
	DD	01H
	ORG $+4
	DD	FLAT:??_C@_0L@LLKEFHFA@SetFeather@
	DD	FLAT:?wndTextSetFeather@@YAPAU_object@@PAU1@0@Z
	DD	01H
	ORG $+4
	DD	FLAT:??_C@_0N@FKMHLJHG@SetMultiLine@
	DD	FLAT:?wndTextSetMultiLine@@YAPAU_object@@PAU1@0@Z
	DD	01H
	ORG $+4
	DD	FLAT:??_C@_07NIJDBDAG@SetText@
	DD	FLAT:?wndTextSetText@@YAPAU_object@@PAU1@0@Z
	DD	01H
	ORG $+4
	DD	FLAT:??_C@_0BF@ECGKBOOD@GetSpecificTextWidth@
	DD	FLAT:?wndTextGetSpecificTextWidth@@YAPAU_object@@PAU1@0@Z
	DD	01H
	ORG $+4
	DD	FLAT:??_C@_0M@MCELKPNO@SetFontName@
	DD	FLAT:?wndTextSetFontName@@YAPAU_object@@PAU1@0@Z
	DD	01H
	ORG $+4
	DD	FLAT:??_C@_0N@MKCFOAAE@SetFontColor@
	DD	FLAT:?wndTextSetFontColor@@YAPAU_object@@PAU1@0@Z
	DD	01H
	ORG $+4
	DD	FLAT:??_C@_0O@FIAFKHF@SetLimitWidth@
	DD	FLAT:?wndTextSetLimitWidth@@YAPAU_object@@PAU1@0@Z
	DD	01H
	ORG $+4
	DD	FLAT:??_C@_07CAGCCMNH@GetText@
	DD	FLAT:?wndTextGetText@@YAPAU_object@@PAU1@0@Z
	DD	01H
	ORG $+4
	DD	FLAT:??_C@_0M@CLFAHCCE@SetClipRect@
	DD	FLAT:?wndTextSetTextClip@@YAPAU_object@@PAU1@0@Z
	DD	01H
	ORG $+4
	DD	FLAT:??_C@_0M@JOAAGILP@GetTextSize@
	DD	FLAT:?wndTextGetTextSize@@YAPAU_object@@PAU1@0@Z
	DD	01H
	ORG $+4
	DD	FLAT:??_C@_0L@BIENLPGM@ShowCursor@
	DD	FLAT:?wndTextShowCursor@@YAPAU_object@@PAU1@0@Z
	DD	01H
	ORG $+4
	DD	FLAT:??_C@_0L@MGJDDPFG@HideCursor@
	DD	FLAT:?wndTextHideCursor@@YAPAU_object@@PAU1@0@Z
	DD	01H
	ORG $+4
	DD	FLAT:??_C@_0BC@DJJGDMOB@GetCursorPosition@
	DD	FLAT:?wndTextGetCursorPosition@@YAPAU_object@@PAU1@0@Z
	DD	01H
	ORG $+4
	DD	FLAT:??_C@_0BI@OPEAHLID@GetCharPositionByCursor@
	DD	FLAT:?wndTextGetCharPositionByCursor@@YAPAU_object@@PAU1@0@Z
	DD	01H
	ORG $+4
	DD	FLAT:??_C@_0BN@OOPFPLJK@TextPositionToRenderPosition@
	DD	FLAT:?wndTextPositionToRenderPosition@@YAPAU_object@@PAU1@0@Z
	DD	01H
	ORG $+4
	DD	FLAT:??_C@_09JMPLPNNO@SetNumber@
	DD	FLAT:?wndNumberSetNumber@@YAPAU_object@@PAU1@0@Z
	DD	01H
	ORG $+4
	DD	FLAT:??_C@_0BP@JHALFFJF@SetNumberHorizontalAlignCenter@
	DD	FLAT:?wndNumberSetNumberHorizontalAlignCenter@@YAPAU_object@@PAU1@0@Z
	DD	01H
	ORG $+4
	DD	FLAT:??_C@_0BO@FBBAAHKK@SetNumberHorizontalAlignRight@
	DD	FLAT:?wndNumberSetNumberHorizontalAlignRight@@YAPAU_object@@PAU1@0@Z
	DD	01H
	ORG $+4
	DD	FLAT:??_C@_0BN@MCDEBAKA@SetNumberVerticalAlignCenter@
	DD	FLAT:?wndNumberSetNumberVerticalAlignCenter@@YAPAU_object@@PAU1@0@Z
	DD	01H
	ORG $+4
	DD	FLAT:??_C@_07ENBMIGKI@SetPath@
	DD	FLAT:?wndNumberSetPath@@YAPAU_object@@PAU1@0@Z
	DD	01H
	ORG $+4
	DD	FLAT:??_C@_0BB@FMJJKPIM@MarkBox_SetImage@
	DD	FLAT:?wndMarkBox_SetImage@@YAPAU_object@@PAU1@0@Z
	DD	01H
	ORG $+4
	DD	FLAT:??_C@_0BJ@PJODLBON@MarkBox_SetImageFilename@
	DD	FLAT:?wndMarkBox_SetImageFilename@@YAPAU_object@@PAU1@0@Z
	DD	01H
	ORG $+4
	DD	FLAT:??_C@_0N@FLKGJMCL@MarkBox_Load@
	DD	FLAT:?wndMarkBox_Load@@YAPAU_object@@PAU1@0@Z
	DD	01H
	ORG $+4
	DD	FLAT:??_C@_0BB@NAAPJNBM@MarkBox_SetIndex@
	DD	FLAT:?wndMarkBox_SetIndex@@YAPAU_object@@PAU1@0@Z
	DD	01H
	ORG $+4
	DD	FLAT:??_C@_0BB@ENLBNPPB@MarkBox_SetScale@
	DD	FLAT:?wndMarkBox_SetScale@@YAPAU_object@@PAU1@0@Z
	DD	01H
	ORG $+4
	DD	FLAT:??_C@_0BI@JCKPADLG@MarkBox_SetDiffuseColor@
	DD	FLAT:?wndMarkBox_SetDiffuseColor@@YAPAU_object@@PAU1@0@Z
	DD	01H
	ORG $+4
	DD	FLAT:??_C@_09OHOMMMHI@LoadImage@
	DD	FLAT:?wndImageLoadImage@@YAPAU_object@@PAU1@0@Z
	DD	01H
	ORG $+4
	DD	FLAT:??_C@_0BA@CAEBLOMF@SetDiffuseColor@
	DD	FLAT:?wndImageSetDiffuseColor@@YAPAU_object@@PAU1@0@Z
	DD	01H
	ORG $+4
	DD	FLAT:??_C@_08OMBILDHM@GetWidth@
	DD	FLAT:?wndImageGetWidth@@YAPAU_object@@PAU1@0@Z
	DD	01H
	ORG $+4
	DD	FLAT:??_C@_09EOGEIJMK@GetHeight@
	DD	FLAT:?wndImageGetHeight@@YAPAU_object@@PAU1@0@Z
	DD	01H
	ORG $+4
	DD	FLAT:??_C@_0O@IOPMOINL@GetTexturePtr@
	DD	FLAT:?wndImageGetTexturePtr@@YAPAU_object@@PAU1@0@Z
	DD	01H
	ORG $+4
	DD	FLAT:??_C@_08FMFAIGAB@SetScale@
	DD	FLAT:?wndImageSetScale@@YAPAU_object@@PAU1@0@Z
	DD	01H
	ORG $+4
	DD	FLAT:??_C@_09KLKDEBJ@SetOrigin@
	DD	FLAT:?wndImageSetOrigin@@YAPAU_object@@PAU1@0@Z
	DD	01H
	ORG $+4
	DD	FLAT:??_C@_0M@GNIHGJGG@SetRotation@
	DD	FLAT:?wndImageSetRotation@@YAPAU_object@@PAU1@0@Z
	DD	01H
	ORG $+4
	DD	FLAT:??_C@_0BB@GIEHGKNO@SetRenderingMode@
	DD	FLAT:?wndImageSetRenderingMode@@YAPAU_object@@PAU1@0@Z
	DD	01H
	ORG $+4
	DD	FLAT:??_C@_08NBAGFHFB@SetDelay@
	DD	FLAT:?wndImageSetDelay@@YAPAU_object@@PAU1@0@Z
	DD	01H
	ORG $+4
	DD	FLAT:??_C@_08CACKEECM@GetDelay@
	DD	FLAT:?wndImageGetDelay@@YAPAU_object@@PAU1@0@Z
	DD	01H
	ORG $+4
	DD	FLAT:??_C@_0M@BEJGDBIJ@AppendImage@
	DD	FLAT:?wndImageAppendImage@@YAPAU_object@@PAU1@0@Z
	DD	01H
	ORG $+4
	DD	FLAT:??_C@_0L@ELGKENBM@ResetFrame@
	DD	FLAT:?wndImageResetFrame@@YAPAU_object@@PAU1@0@Z
	DD	01H
	ORG $+4
	DD	FLAT:??_C@_0M@IIELPGEP@SetUpVisual@
	DD	FLAT:?wndButtonSetUpVisual@@YAPAU_object@@PAU1@0@Z
	DD	01H
	ORG $+4
	DD	FLAT:??_C@_0O@KOIDMFK@SetOverVisual@
	DD	FLAT:?wndButtonSetOverVisual@@YAPAU_object@@PAU1@0@Z
	DD	01H
	ORG $+4
	DD	FLAT:??_C@_0O@FLFAFPKP@SetDownVisual@
	DD	FLAT:?wndButtonSetDownVisual@@YAPAU_object@@PAU1@0@Z
	DD	01H
	ORG $+4
	DD	FLAT:??_C@_0BB@JCGDBIB@SetDisableVisual@
	DD	FLAT:?wndButtonSetDisableVisual@@YAPAU_object@@PAU1@0@Z
	DD	01H
	ORG $+4
	DD	FLAT:??_C@_0BE@PHOOFGJI@GetUpVisualFileName@
	DD	FLAT:?wndButtonGetUpVisualFileName@@YAPAU_object@@PAU1@0@Z
	DD	01H
	ORG $+4
	DD	FLAT:??_C@_0BG@KEALLAJN@GetOverVisualFileName@
	DD	FLAT:?wndButtonGetOverVisualFileName@@YAPAU_object@@PAU1@0@Z
	DD	01H
	ORG $+4
	DD	FLAT:??_C@_0BG@FKDEILKI@GetDownVisualFileName@
	DD	FLAT:?wndButtonGetDownVisualFileName@@YAPAU_object@@PAU1@0@Z
	DD	01H
	ORG $+4
	DD	FLAT:??_C@_05LDPHIKKB@Flash@
	DD	FLAT:?wndButtonFlash@@YAPAU_object@@PAU1@0@Z
	DD	01H
	ORG $+4
	DD	FLAT:??_C@_06CKGENIKG@Enable@
	DD	FLAT:?wndButtonEnable@@YAPAU_object@@PAU1@0@Z
	DD	01H
	ORG $+4
	DD	FLAT:??_C@_07MIKIFGAL@Disable@
	DD	FLAT:?wndButtonDisable@@YAPAU_object@@PAU1@0@Z
	DD	01H
	ORG $+4
	DD	FLAT:??_C@_09BDCHKIMD@IsEnabled@
	DD	FLAT:?wndButtonIsEnabled@@YAPAU_object@@PAU1@0@Z
	DD	01H
	ORG $+4
	DD	FLAT:??_C@_04FNCLCJMC@Down@
	DD	FLAT:?wndButtonDown@@YAPAU_object@@PAU1@0@Z
	DD	01H
	ORG $+4
	DD	FLAT:??_C@_05DEOAHOFO@SetUp@
	DD	FLAT:?wndButtonSetUp@@YAPAU_object@@PAU1@0@Z
	DD	01H
	ORG $+4
	DD	FLAT:??_C@_06FKEAEOGE@IsDown@
	DD	FLAT:?wndButtonIsDown@@YAPAU_object@@PAU1@0@Z
	DD	01H
	ORG $+4
	DD	FLAT:??_C@_0BI@KNEJFEOH@SetRestrictMovementArea@
	DD	FLAT:?wndButtonSetRestrictMovementArea@@YAPAU_object@@PAU1@0@Z
	DD	01H
	ORG $+4
	DD	FLAT:??_C@_0P@MEHCKPID@SetOutlineFlag@
	DD	FLAT:?wndMgrSetOutlineFlag@@YAPAU_object@@PAU1@0@Z
	DD	01H
	ORG $+4
	DD	FLAT:??_C@_0BF@LFOINEDC@ShowOverInWindowName@
	DD	FLAT:?wndMgrShowOverInWindowName@@YAPAU_object@@PAU1@0@Z
	DD	01H
	ORG $+4
	DD	FLAT:??_C@_0BA@EABPFCGJ@IsActivatedSlot@
	DD	FLAT:?wndMgrIsActivatedSlot@@YAPAU_object@@PAU1@0@Z
	DD	01H
	ORG $+4
	DD	FLAT:??_C@_0BA@NIALCINC@GetSlotCoolTime@
	DD	FLAT:?wndMgrGetSlotCoolTime@@YAPAU_object@@PAU1@0@Z
	DD	01H
	ORG $+4
	DD	FLAT:??_C@_0BF@KNCMHHOE@EnableSlotCoverImage@
	DD	FLAT:?wndMgrEnableSlotCoverImage@@YAPAU_object@@PAU1@0@Z
	DD	01H
	ORG $+4
	DD	FLAT:??_C@_0BG@CELKDGNF@DisableSlotCoverImage@
	DD	FLAT:?wndMgrDisableSlotCoverImage@@YAPAU_object@@PAU1@0@Z
	DD	01H
	ORG $+4
	DD	FLAT:??_C@_0BH@CMPCAGLC@ActivateChangeLookSlot@
	DD	FLAT:?wndMgrActivateChangeLookSlot@@YAPAU_object@@PAU1@0@Z
	DD	01H
	ORG $+4
	DD	FLAT:??_C@_0BJ@MFMBAOFE@DeactivateChangeLookSlot@
	DD	FLAT:?wndMgrDeactivateChangeLookSlot@@YAPAU_object@@PAU1@0@Z
	DD	01H
	ORG $+4
	DD	FLAT:??_C@_0N@GABOCBEH@GetItemIndex@
	DD	FLAT:?wndMgrGetItemIndex@@YAPAU_object@@PAU1@0@Z
	DD	01H
	ORG $+4
	DD	FLAT:??_C@_0BJ@HMEHNAEN@RegisterWikiRenderTarget@
	DD	FLAT:?wndMgrRegisterWikiRenderTarget@@YAPAU_object@@PAU1@0@Z
	DD	01H
	ORG $+4
	DD	FLAT:??_C@_0BA@HFECJDNA@SetInsideRender@
	DD	FLAT:?wndMgrSetInsideRender@@YAPAU_object@@PAU1@0@Z
	DD	01H
	ORG $+4
	DD	FLAT:??_C@_0BB@LDNMLPHM@SetRenderingRect@
	DD	FLAT:?wndSetRenderingRect@@YAPAU_object@@PAU1@0@Z
	DD	01H
	ORG $+4
	DD	FLAT:??_C@_0N@JBKJJOBF@GetRenderBox@
	DD	FLAT:?wndMgrGetRenderBox@@YAPAU_object@@PAU1@0@Z
	DD	01H
	ORG $+4
	DD	FLAT:??_C@_0BE@OCBDOMML@SetWikiRenderTarget@
	DD	FLAT:?wndMgrSetWikiRenderTarget@@YAPAU_object@@PAU1@0@Z
	DD	01H
	ORG $+4
	DD	FLAT:??_C@_0BC@FGODMHDE@SetFixedRenderPos@
	DD	FLAT:?wndTextSetFixedRenderPos@@YAPAU_object@@PAU1@0@Z
	DD	01H
	ORG $+4
	DD	FLAT:??_C@_0N@IIENNIMK@GetRenderPos@
	DD	FLAT:?wndTextGetRenderPos@@YAPAU_object@@PAU1@0@Z
	DD	01H
	ORG $+4
	DD	FLAT:??_C@_0M@JGJEPBJD@UnloadImage@
	DD	FLAT:?wndImageUnloadImage@@YAPAU_object@@PAU1@0@Z
	DD	01H
	ORG $+4
	DD	FLAT:??_C@_0N@BFHCIAEF@IsShowCursor@
	DD	FLAT:?wndTextIsShowCursor@@YAPAU_object@@PAU1@0@Z
	DD	01H
	ORG $+4
	DD	FLAT:??_C@_0BF@FGJJGJFC@RegisterRenderTarget@
	DD	FLAT:?wndMgrRegisterRenderTarget@@YAPAU_object@@PAU1@0@Z
	DD	01H
	ORG $+4
	DD	FLAT:??_C@_0N@LGPPCICH@RT_LoadImage@
	DD	FLAT:?wndRenderTargetLoadImage@@YAPAU_object@@PAU1@0@Z
	DD	01H
	ORG $+4
	DD	FLAT:??_C@_0BD@LAGHGCKG@RT_SetRenderTarget@
	DD	FLAT:?wndRenderTargetSetRenderTarget@@YAPAU_object@@PAU1@0@Z
	DD	01H
	ORG $+4
	DD	FLAT:??_C@_0BB@PINGAENL@RT_SetRenderHair@
	DD	FLAT:?wndRenderTargetSetRenderHair@@YAPAU_object@@PAU1@0@Z
	DD	01H
	ORG $+4
	DD	FLAT:??_C@_0BC@JHCDNNMC@RT_SetRenderArmor@
	DD	FLAT:?wndRenderTargetSetRenderArmor@@YAPAU_object@@PAU1@0@Z
	DD	01H
	ORG $+4
	DD	FLAT:??_C@_0BD@ENCKMHFE@RT_SetRenderWeapon@
	DD	FLAT:?wndRenderTargetSetRenderWeapon@@YAPAU_object@@PAU1@0@Z
	DD	01H
	ORG $+4
	DD	FLAT:??_C@_0BB@EOHKHODF@RT_SetRenderSash@
	DD	FLAT:?wndRenderTargetSetRenderSash@@YAPAU_object@@PAU1@0@Z
	DD	01H
	ORG $+4
	DD	FLAT:??_C@_0BD@KKAOCHFF@RT_SetRenderMotion@
	DD	FLAT:?wndRenderTargetSetRendererMotion@@YAPAU_object@@PAU1@0@Z
	DD	01H
	ORG $+4
	DD	FLAT:??_C@_0BF@JPMOHCJJ@RT_SetRenderDistance@
	DD	FLAT:?wndRenderTargetSetRenderDistance@@YAPAU_object@@PAU1@0@Z
	DD	01H
	ORG $+4
	DD	FLAT:??_C@_0BF@LKMFPJIH@RT_GetRenderDistance@
	DD	FLAT:?wndRenderTargetGetRenderDistance@@YAPAU_object@@PAU1@0@Z
	DD	01H
	ORG $+4
	DD	FLAT:??_C@_0BE@DMCCDBML@RT_SetLightPosition@
	DD	FLAT:?wndRenderTargetSetLightPosition@@YAPAU_object@@PAU1@0@Z
	DD	01H
	ORG $+4
	DD	FLAT:??_C@_0BE@FIHLIPHJ@RT_GetLightPosition@
	DD	FLAT:?wndRenderTargetGetLightPosition@@YAPAU_object@@PAU1@0@Z
	DD	01H
	ORG $+4
	DD	FLAT:??_C@_0P@PHMDFPIP@RT_SetRotation@
	DD	FLAT:?wndRenderTargetSetRotation@@YAPAU_object@@PAU1@0@Z
	DD	01H
	ORG $+4
	DD	FLAT:??_C@_0P@PINNIJAM@RT_GetRotation@
	DD	FLAT:?wndRenderTargetGetRotation@@YAPAU_object@@PAU1@0@Z
	DD	01H
	ORG $+4
	DD	FLAT:??_C@_0BD@IFKGKLGB@RT_SetRotationMode@
	DD	FLAT:?wndRenderTargetSetRotationMode@@YAPAU_object@@PAU1@0@Z
	DD	01H
	ORG $+4
	DD	FLAT:??_C@_0BB@NHPNOOEJ@RT_DestroyRender@
	DD	FLAT:?wndRenderTargetDestroyRender@@YAPAU_object@@PAU1@0@Z
	DD	01H
	ORG $+4
	DD	FLAT:??_C@_0L@KLPEDGI@LockCursor@
	DD	FLAT:?wndMgrLockCursor@@YAPAU_object@@PAU1@0@Z
	DD	01H
	ORG $+4
	DD	FLAT:??_C@_0N@DNBGAAKF@UnlockCursor@
	DD	FLAT:?wndMgrUnlockCursor@@YAPAU_object@@PAU1@0@Z
	DD	01H
	ORG $+4
	DD	FLAT:??_C@_0N@MNAMJLHL@SetSlotScale@
	DD	FLAT:?wndMgrSetSlotScale@@YAPAU_object@@PAU1@0@Z
	DD	01H
	ORG $+4
	DD	FLAT:??_C@_0BG@FBLNLMGI@SetSlotBaseImageScale@
	DD	FLAT:?wndMgrSetSlotBaseImageScale@@YAPAU_object@@PAU1@0@Z
	DD	01H
	ORG $+4
	DD	FLAT:??_C@_0BE@BJJEKGM@SetCoolTimeImageBox@
	DD	FLAT:?wndMgrSetCoolTimeImageBox@@YAPAU_object@@PAU1@0@Z
	DD	01H
	ORG $+4
	DD	FLAT:??_C@_0BJ@OABJPDB@SetStartCoolTimeImageBox@
	DD	FLAT:?wndMgrSetStartCoolTimeImageBox@@YAPAU_object@@PAU1@0@Z
	DD	01H
	ORG $+4
	DD	00H
	DD	00H
	DD	00H
	ORG $+4
_DATA	ENDS
;	COMDAT ??_C@_0DB@CIHHCLAG@d?3?1ymir?5work?1ui?1game?112zi?1time_@
CONST	SEGMENT
??_C@_0DB@CIHHCLAG@d?3?1ymir?5work?1ui?1game?112zi?1time_@ DB 'd:/ymir wo'
	DB	'rk/ui/game/12zi/time_image/time_%d.tga', 00H ; `string'
CONST	ENDS
;	COMDAT ??_C@_0DC@NJMLLDNJ@d?3?1ymir?5work?1ui?1game?112zi?1time_@
CONST	SEGMENT
??_C@_0DC@NJMLLDNJ@d?3?1ymir?5work?1ui?1game?112zi?1time_@ DB 'd:/ymir wo'
	DB	'rk/ui/game/12zi/time_image/time_0%d.tga', 00H ; `string'
CONST	ENDS
;	COMDAT ??_C@_0CF@BAOIDONM@wndMgr?4ArrangeSlot?3not?5a?5slot?5w@
CONST	SEGMENT
??_C@_0CF@BAOIDONM@wndMgr?4ArrangeSlot?3not?5a?5slot?5w@ DB 'wndMgr.Arran'
	DB	'geSlot:not a slot window', 00H		; `string'
CONST	ENDS
;	COMDAT ??_C@_03LPALPDIP@fff@
CONST	SEGMENT
??_C@_03LPALPDIP@fff@ DB 'fff', 00H			; `string'
CONST	ENDS
;	COMDAT ??_C@_0BJ@DFGPKJEH@Failed?5to?5load?5image?3?5?$CFs@
CONST	SEGMENT
??_C@_0BJ@DFGPKJEH@Failed?5to?5load?5image?3?5?$CFs@ DB 'Failed to load i'
	DB	'mage: %s', 00H				; `string'
CONST	ENDS
;	COMDAT ??_C@_02HPEDFNFO@ff@
CONST	SEGMENT
??_C@_02HPEDFNFO@ff@ DB 'ff', 00H			; `string'
CONST	ENDS
;	COMDAT ??_C@_0CE@HBOEBFCG@Failed?5to?5load?5image?5?$CIfilename?3@
CONST	SEGMENT
??_C@_0CE@HBOEBFCG@Failed?5to?5load?5image?5?$CIfilename?3@ DB 'Failed to'
	DB	' load image (filename: %s)', 00H		; `string'
CONST	ENDS
;	COMDAT ??_C@_03GLKMLICL@iii@
CONST	SEGMENT
??_C@_03GLKMLICL@iii@ DB 'iii', 00H			; `string'
CONST	ENDS
;	COMDAT ??_C@_04INACLLOK@?$CIii?$CJ@
CONST	SEGMENT
??_C@_04INACLLOK@?$CIii?$CJ@ DB '(ii)', 00H		; `string'
CONST	ENDS
;	COMDAT ??_C@_0CH@HCFLPGH@wndMgr?4ArrangeSlot?5?3?5not?5a?5slot@
CONST	SEGMENT
??_C@_0CH@HCFLPGH@wndMgr?4ArrangeSlot?5?3?5not?5a?5slot@ DB 'wndMgr.Arran'
	DB	'geSlot : not a slot window', 00H		; `string'
CONST	ENDS
;	COMDAT ??_C@_0CH@FFGFLEBP@wndMgr?4ArrangeSlot?5?3?5not?5a?5grid@
CONST	SEGMENT
??_C@_0CH@FFGFLEBP@wndMgr?4ArrangeSlot?5?3?5not?5a?5grid@ DB 'wndMgr.Arra'
	DB	'ngeSlot : not a grid window', 00H		; `string'
CONST	ENDS
;	COMDAT ??_C@_0BH@KIGIHPAM@Unknown?5window?5flag?5?$CFs@
CONST	SEGMENT
??_C@_0BH@KIGIHPAM@Unknown?5window?5flag?5?$CFs@ DB 'Unknown window flag '
	DB	'%s', 00H					; `string'
CONST	ENDS
;	COMDAT ??_C@_03OBLKLDKA@ltr@
CONST	SEGMENT
??_C@_03OBLKLDKA@ltr@ DB 'ltr', 00H			; `string'
CONST	ENDS
;	COMDAT ??_C@_05GADAOHMC@limit@
CONST	SEGMENT
??_C@_05GADAOHMC@limit@ DB 'limit', 00H			; `string'
CONST	ENDS
;	COMDAT ??_C@_07BNIMILPP@movable@
CONST	SEGMENT
??_C@_07BNIMILPP@movable@ DB 'movable', 00H		; `string'
CONST	ENDS
;	COMDAT ??_C@_07NLKEJFGN@animate@
CONST	SEGMENT
??_C@_07NLKEJFGN@animate@ DB 'animate', 00H		; `string'
CONST	ENDS
;	COMDAT ??_C@_03IFDNKMND@rtl@
CONST	SEGMENT
??_C@_03IFDNKMND@rtl@ DB 'rtl', 00H			; `string'
CONST	ENDS
;	COMDAT ??_C@_0M@HHFJIJHL@ignore_size@
CONST	SEGMENT
??_C@_0M@HHFJIJHL@ignore_size@ DB 'ignore_size', 00H	; `string'
CONST	ENDS
;	COMDAT ??_C@_08BCAHNCDJ@not_pick@
CONST	SEGMENT
??_C@_08BCAHNCDJ@not_pick@ DB 'not_pick', 00H		; `string'
CONST	ENDS
;	COMDAT ??_C@_05KNFBNCOH@float@
CONST	SEGMENT
??_C@_05KNFBNCOH@float@ DB 'float', 00H			; `string'
CONST	ENDS
;	COMDAT ??_C@_0L@BDBCAEJL@restrict_y@
CONST	SEGMENT
??_C@_0L@BDBCAEJL@restrict_y@ DB 'restrict_y', 00H	; `string'
CONST	ENDS
;	COMDAT ??_C@_0L@KAJDFNK@restrict_x@
CONST	SEGMENT
??_C@_0L@KAJDFNK@restrict_x@ DB 'restrict_x', 00H	; `string'
CONST	ENDS
;	COMDAT ??_C@_06LHJMGKLI@attach@
CONST	SEGMENT
??_C@_06LHJMGKLI@attach@ DB 'attach', 00H		; `string'
CONST	ENDS
;	COMDAT ??_C@_08KCAGBJHE@dragable@
CONST	SEGMENT
??_C@_08KCAGBJHE@dragable@ DB 'dragable', 00H		; `string'
CONST	ENDS
;	COMDAT ??_C@_08GKKIIJO@moveable@
CONST	SEGMENT
??_C@_08GKKIIJO@moveable@ DB 'moveable', 00H		; `string'
CONST	ENDS
;	COMDAT ??_C@_02OIKAIHIF@s?$CD@
CONST	SEGMENT
??_C@_02OIKAIHIF@s?$CD@ DB 's#', 00H			; `string'
CONST	ENDS
;	COMDAT ??_C@_04BIOIIFBG@iiii@
CONST	SEGMENT
??_C@_04BIOIIFBG@iiii@ DB 'iiii', 00H			; `string'
CONST	ENDS
;	COMDAT ??_C@_02PDIHAGKM@ii@
CONST	SEGMENT
??_C@_02PDIHAGKM@ii@ DB 'ii', 00H			; `string'
CONST	ENDS
;	COMDAT ??_C@_01LKDEMHDF@s@
CONST	SEGMENT
??_C@_01LKDEMHDF@s@ DB 's', 00H				; `string'
CONST	ENDS
;	COMDAT ??_C@_01OJONOECF@b@
CONST	SEGMENT
??_C@_01OJONOECF@b@ DB 'b', 00H				; `string'
CONST	ENDS
;	COMDAT ??_C@_01KBJDNOO@i@
CONST	SEGMENT
??_C@_01KBJDNOO@i@ DB 'i', 00H				; `string'
CONST	ENDS
;	COMDAT ??_C@_01INIBCBCB@f@
CONST	SEGMENT
??_C@_01INIBCBCB@f@ DB 'f', 00H				; `string'
CONST	ENDS
;	COMDAT ??_R1A@?0A@EA@bad_array_new_length@std@@8
rdata$r	SEGMENT
??_R1A@?0A@EA@bad_array_new_length@std@@8 DD FLAT:??_R0?AVbad_array_new_length@std@@@8 ; std::bad_array_new_length::`RTTI Base Class Descriptor at (0,-1,0,64)'
	DD	02H
	DD	00H
	DD	0ffffffffH
	DD	00H
	DD	040H
	DD	FLAT:??_R3bad_array_new_length@std@@8
rdata$r	ENDS
;	COMDAT ??_R2bad_array_new_length@std@@8
rdata$r	SEGMENT
??_R2bad_array_new_length@std@@8 DD FLAT:??_R1A@?0A@EA@bad_array_new_length@std@@8 ; std::bad_array_new_length::`RTTI Base Class Array'
	DD	FLAT:??_R1A@?0A@EA@bad_alloc@std@@8
	DD	FLAT:??_R1A@?0A@EA@exception@std@@8
rdata$r	ENDS
;	COMDAT ??_R3bad_array_new_length@std@@8
rdata$r	SEGMENT
??_R3bad_array_new_length@std@@8 DD 00H			; std::bad_array_new_length::`RTTI Class Hierarchy Descriptor'
	DD	00H
	DD	03H
	DD	FLAT:??_R2bad_array_new_length@std@@8
rdata$r	ENDS
;	COMDAT ??_R4bad_array_new_length@std@@6B@
rdata$r	SEGMENT
??_R4bad_array_new_length@std@@6B@ DD 00H		; std::bad_array_new_length::`RTTI Complete Object Locator'
	DD	00H
	DD	00H
	DD	FLAT:??_R0?AVbad_array_new_length@std@@@8
	DD	FLAT:??_R3bad_array_new_length@std@@8
rdata$r	ENDS
;	COMDAT ??_R1A@?0A@EA@bad_alloc@std@@8
rdata$r	SEGMENT
??_R1A@?0A@EA@bad_alloc@std@@8 DD FLAT:??_R0?AVbad_alloc@std@@@8 ; std::bad_alloc::`RTTI Base Class Descriptor at (0,-1,0,64)'
	DD	01H
	DD	00H
	DD	0ffffffffH
	DD	00H
	DD	040H
	DD	FLAT:??_R3bad_alloc@std@@8
rdata$r	ENDS
;	COMDAT ??_R2bad_alloc@std@@8
rdata$r	SEGMENT
??_R2bad_alloc@std@@8 DD FLAT:??_R1A@?0A@EA@bad_alloc@std@@8 ; std::bad_alloc::`RTTI Base Class Array'
	DD	FLAT:??_R1A@?0A@EA@exception@std@@8
rdata$r	ENDS
;	COMDAT ??_R3bad_alloc@std@@8
rdata$r	SEGMENT
??_R3bad_alloc@std@@8 DD 00H				; std::bad_alloc::`RTTI Class Hierarchy Descriptor'
	DD	00H
	DD	02H
	DD	FLAT:??_R2bad_alloc@std@@8
rdata$r	ENDS
;	COMDAT ??_R4bad_alloc@std@@6B@
rdata$r	SEGMENT
??_R4bad_alloc@std@@6B@ DD 00H				; std::bad_alloc::`RTTI Complete Object Locator'
	DD	00H
	DD	00H
	DD	FLAT:??_R0?AVbad_alloc@std@@@8
	DD	FLAT:??_R3bad_alloc@std@@8
rdata$r	ENDS
;	COMDAT ??_R1A@?0A@EA@exception@std@@8
rdata$r	SEGMENT
??_R1A@?0A@EA@exception@std@@8 DD FLAT:??_R0?AVexception@std@@@8 ; std::exception::`RTTI Base Class Descriptor at (0,-1,0,64)'
	DD	00H
	DD	00H
	DD	0ffffffffH
	DD	00H
	DD	040H
	DD	FLAT:??_R3exception@std@@8
rdata$r	ENDS
;	COMDAT ??_R2exception@std@@8
rdata$r	SEGMENT
??_R2exception@std@@8 DD FLAT:??_R1A@?0A@EA@exception@std@@8 ; std::exception::`RTTI Base Class Array'
rdata$r	ENDS
;	COMDAT ??_R3exception@std@@8
rdata$r	SEGMENT
??_R3exception@std@@8 DD 00H				; std::exception::`RTTI Class Hierarchy Descriptor'
	DD	00H
	DD	01H
	DD	FLAT:??_R2exception@std@@8
rdata$r	ENDS
;	COMDAT ??_R4exception@std@@6B@
rdata$r	SEGMENT
??_R4exception@std@@6B@ DD 00H				; std::exception::`RTTI Complete Object Locator'
	DD	00H
	DD	00H
	DD	FLAT:??_R0?AVexception@std@@@8
	DD	FLAT:??_R3exception@std@@8
rdata$r	ENDS
;	COMDAT ??_C@_0BA@FOIKENOD@vector?5too?5long@
CONST	SEGMENT
??_C@_0BA@FOIKENOD@vector?5too?5long@ DB 'vector too long', 00H ; `string'
CONST	ENDS
;	COMDAT __CT??_R0?AVexception@std@@@8??0exception@std@@QAE@ABV01@@Z12
xdata$x	SEGMENT
__CT??_R0?AVexception@std@@@8??0exception@std@@QAE@ABV01@@Z12 DD 00H
	DD	FLAT:??_R0?AVexception@std@@@8
	DD	00H
	DD	0ffffffffH
	ORG $+4
	DD	0cH
	DD	FLAT:??0exception@std@@QAE@ABV01@@Z
xdata$x	ENDS
;	COMDAT ??_R0?AVexception@std@@@8
data$r	SEGMENT
??_R0?AVexception@std@@@8 DD FLAT:??_7type_info@@6B@	; std::exception `RTTI Type Descriptor'
	DD	00H
	DB	'.?AVexception@std@@', 00H
data$r	ENDS
;	COMDAT __CT??_R0?AVbad_alloc@std@@@8??0bad_alloc@std@@QAE@ABV01@@Z12
xdata$x	SEGMENT
__CT??_R0?AVbad_alloc@std@@@8??0bad_alloc@std@@QAE@ABV01@@Z12 DD 010H
	DD	FLAT:??_R0?AVbad_alloc@std@@@8
	DD	00H
	DD	0ffffffffH
	ORG $+4
	DD	0cH
	DD	FLAT:??0bad_alloc@std@@QAE@ABV01@@Z
xdata$x	ENDS
;	COMDAT ??_R0?AVbad_alloc@std@@@8
data$r	SEGMENT
??_R0?AVbad_alloc@std@@@8 DD FLAT:??_7type_info@@6B@	; std::bad_alloc `RTTI Type Descriptor'
	DD	00H
	DB	'.?AVbad_alloc@std@@', 00H
data$r	ENDS
;	COMDAT __CT??_R0?AVbad_array_new_length@std@@@8??0bad_array_new_length@std@@QAE@ABV01@@Z12
xdata$x	SEGMENT
__CT??_R0?AVbad_array_new_length@std@@@8??0bad_array_new_length@std@@QAE@ABV01@@Z12 DD 00H
	DD	FLAT:??_R0?AVbad_array_new_length@std@@@8
	DD	00H
	DD	0ffffffffH
	ORG $+4
	DD	0cH
	DD	FLAT:??0bad_array_new_length@std@@QAE@ABV01@@Z
xdata$x	ENDS
;	COMDAT ??_R0?AVbad_array_new_length@std@@@8
data$r	SEGMENT
??_R0?AVbad_array_new_length@std@@@8 DD FLAT:??_7type_info@@6B@ ; std::bad_array_new_length `RTTI Type Descriptor'
	DD	00H
	DB	'.?AVbad_array_new_length@std@@', 00H
data$r	ENDS
;	COMDAT __CTA3?AVbad_array_new_length@std@@
xdata$x	SEGMENT
__CTA3?AVbad_array_new_length@std@@ DD 03H
	DD	FLAT:__CT??_R0?AVbad_array_new_length@std@@@8??0bad_array_new_length@std@@QAE@ABV01@@Z12
	DD	FLAT:__CT??_R0?AVbad_alloc@std@@@8??0bad_alloc@std@@QAE@ABV01@@Z12
	DD	FLAT:__CT??_R0?AVexception@std@@@8??0exception@std@@QAE@ABV01@@Z12
xdata$x	ENDS
;	COMDAT __TI3?AVbad_array_new_length@std@@
xdata$x	SEGMENT
__TI3?AVbad_array_new_length@std@@ DD 00H
	DD	FLAT:??1bad_array_new_length@std@@UAE@XZ
	DD	00H
	DD	FLAT:__CTA3?AVbad_array_new_length@std@@
xdata$x	ENDS
;	COMDAT ??_C@_0BF@KINCDENJ@bad?5array?5new?5length@
CONST	SEGMENT
??_C@_0BF@KINCDENJ@bad?5array?5new?5length@ DB 'bad array new length', 00H ; `string'
CONST	ENDS
;	COMDAT ??_7bad_array_new_length@std@@6B@
CONST	SEGMENT
??_7bad_array_new_length@std@@6B@ DD FLAT:??_R4bad_array_new_length@std@@6B@ ; std::bad_array_new_length::`vftable'
	DD	FLAT:??_Ebad_array_new_length@std@@UAEPAXI@Z
	DD	FLAT:?what@exception@std@@UBEPBDXZ
CONST	ENDS
;	COMDAT ??_7bad_alloc@std@@6B@
CONST	SEGMENT
??_7bad_alloc@std@@6B@ DD FLAT:??_R4bad_alloc@std@@6B@	; std::bad_alloc::`vftable'
	DD	FLAT:??_Ebad_alloc@std@@UAEPAXI@Z
	DD	FLAT:?what@exception@std@@UBEPBDXZ
CONST	ENDS
;	COMDAT ??_C@_0BC@EOODALEL@Unknown?5exception@
CONST	SEGMENT
??_C@_0BC@EOODALEL@Unknown?5exception@ DB 'Unknown exception', 00H ; `string'
CONST	ENDS
;	COMDAT ??_7exception@std@@6B@
CONST	SEGMENT
??_7exception@std@@6B@ DD FLAT:??_R4exception@std@@6B@	; std::exception::`vftable'
	DD	FLAT:??_Eexception@std@@UAEPAXI@Z
	DD	FLAT:?what@exception@std@@UBEPBDXZ
CONST	ENDS
;	COMDAT xdata$x
xdata$x	SEGMENT
__unwindtable$?wndMgrActivateSlot@@YAPAU_object@@PAU1@0@Z DD 0ffffffffH
	DD	FLAT:__unwindfunclet$?wndMgrActivateSlot@@YAPAU_object@@PAU1@0@Z$0
__ehfuncinfo$?wndMgrActivateSlot@@YAPAU_object@@PAU1@0@Z DD 019930522H
	DD	01H
	DD	FLAT:__unwindtable$?wndMgrActivateSlot@@YAPAU_object@@PAU1@0@Z
	DD	2 DUP(00H)
	DD	2 DUP(00H)
	DD	00H
	DD	01H
xdata$x	ENDS
; Function compile flags: /Ogtp
; File C:\Program Files\Microsoft Visual Studio\2022\Community\VC\Tools\MSVC\14.34.31933\include\xutility
;	COMDAT ??$_Fill_zero_memset@PAM@std@@YAXPAMI@Z
_TEXT	SEGMENT
__Dest$ = 8						; size = 4
__Count$ = 12						; size = 4
??$_Fill_zero_memset@PAM@std@@YAXPAMI@Z PROC		; std::_Fill_zero_memset<float *>, COMDAT

; 4329 : void _Fill_zero_memset(_CtgIt _Dest, const size_t _Count) {

  00000	55		 push	 ebp
  00001	8b ec		 mov	 ebp, esp

; 4330 :     _CSTD memset(_To_address(_Dest), 0, _Count * sizeof(_Iter_value_t<_CtgIt>));

  00003	8b 45 0c	 mov	 eax, DWORD PTR __Count$[ebp]
  00006	c1 e0 02	 shl	 eax, 2
  00009	50		 push	 eax
  0000a	6a 00		 push	 0
  0000c	ff 75 08	 push	 DWORD PTR __Dest$[ebp]
  0000f	e8 00 00 00 00	 call	 _memset
  00014	83 c4 0c	 add	 esp, 12			; 0000000cH

; 4331 : }

  00017	5d		 pop	 ebp
  00018	c3		 ret	 0
??$_Fill_zero_memset@PAM@std@@YAXPAMI@Z ENDP		; std::_Fill_zero_memset<float *>
_TEXT	ENDS
; Function compile flags: /Ogtp
; File C:\Program Files\Microsoft Visual Studio\2022\Community\VC\Tools\MSVC\14.34.31933\include\xutility
;	COMDAT ??$_Is_all_bits_zero@M@std@@YA_NABM@Z
_TEXT	SEGMENT
__Zero$1 = -4						; size = 4
__Val$ = 8						; size = 4
??$_Is_all_bits_zero@M@std@@YA_NABM@Z PROC		; std::_Is_all_bits_zero<float>, COMDAT

; 4334 : _NODISCARD bool _Is_all_bits_zero(const _Ty& _Val) {

  00000	55		 push	 ebp
  00001	8b ec		 mov	 ebp, esp
  00003	51		 push	 ecx

; 4335 :     // checks if scalar type has all bits set to zero
; 4336 :     _STL_INTERNAL_STATIC_ASSERT(is_scalar_v<_Ty> && !is_member_pointer_v<_Ty>);
; 4337 :     if constexpr (is_same_v<_Ty, nullptr_t>) {
; 4338 :         return true;
; 4339 :     } else {
; 4340 :         constexpr _Ty _Zero{};
; 4341 :         return _CSTD memcmp(&_Val, &_Zero, sizeof(_Ty)) == 0;

  00004	8b 45 08	 mov	 eax, DWORD PTR __Val$[ebp]
  00007	8d 4d fc	 lea	 ecx, DWORD PTR __Zero$1[ebp]
  0000a	c7 45 fc 00 00
	00 00		 mov	 DWORD PTR __Zero$1[ebp], 0
  00011	8b 00		 mov	 eax, DWORD PTR [eax]
  00013	3b 01		 cmp	 eax, DWORD PTR [ecx]
  00015	0f 94 c0	 sete	 al

; 4342 :     }
; 4343 : }

  00018	8b e5		 mov	 esp, ebp
  0001a	5d		 pop	 ebp
  0001b	c3		 ret	 0
??$_Is_all_bits_zero@M@std@@YA_NABM@Z ENDP		; std::_Is_all_bits_zero<float>
_TEXT	ENDS
; Function compile flags: /Ogtp
; File C:\Users\flourine\Desktop\Xantios\client-src\Code\eterPythonLib\PythonWindowManagerModule.cpp
;	COMDAT ?wndMgrSetStartCoolTimeImageBox@@YAPAU_object@@PAU1@0@Z
_TEXT	SEGMENT
_pWindow$ = -652					; size = 4
_fPercent$ = -648					; size = 4
_img_value_reverse$ = -644				; size = 380
_szBuf$ = -264						; size = 257
__$ArrayPad$ = -4					; size = 4
_poSelf$ = 8						; size = 4
_poArgs$ = 12						; size = 4
?wndMgrSetStartCoolTimeImageBox@@YAPAU_object@@PAU1@0@Z PROC ; wndMgrSetStartCoolTimeImageBox, COMDAT

; 4389 : {

  00000	55		 push	 ebp
  00001	8b ec		 mov	 ebp, esp
  00003	81 ec 8c 02 00
	00		 sub	 esp, 652		; 0000028cH
  00009	a1 00 00 00 00	 mov	 eax, DWORD PTR ___security_cookie
  0000e	33 c5		 xor	 eax, ebp
  00010	89 45 fc	 mov	 DWORD PTR __$ArrayPad$[ebp], eax
  00013	56		 push	 esi
  00014	8b 75 0c	 mov	 esi, DWORD PTR _poArgs$[ebp]

; 4390 : 	UI::CWindow* pWindow;
; 4391 : 	if (!PyTuple_GetWindow(poArgs, 0, &pWindow))

  00017	8d 85 74 fd ff
	ff		 lea	 eax, DWORD PTR _pWindow$[ebp]
  0001d	50		 push	 eax
  0001e	6a 00		 push	 0
  00020	56		 push	 esi
  00021	e8 00 00 00 00	 call	 ?PyTuple_GetWindow@@YA_NPAU_object@@HPAPAVCWindow@UI@@@Z ; PyTuple_GetWindow
  00026	83 c4 0c	 add	 esp, 12			; 0000000cH
  00029	84 c0		 test	 al, al
  0002b	75 19		 jne	 SHORT $LN2@wndMgrSetS
$LN9@wndMgrSetS:

; 4435 : }

  0002d	6a 00		 push	 0
  0002f	e8 00 00 00 00	 call	 ?Py_BuildException@@YAPAU_object@@PBDZZ ; Py_BuildException
  00034	83 c4 04	 add	 esp, 4
  00037	5e		 pop	 esi
  00038	8b 4d fc	 mov	 ecx, DWORD PTR __$ArrayPad$[ebp]
  0003b	33 cd		 xor	 ecx, ebp
  0003d	e8 00 00 00 00	 call	 @__security_check_cookie@4
  00042	8b e5		 mov	 esp, ebp
  00044	5d		 pop	 ebp
  00045	c3		 ret	 0
$LN2@wndMgrSetS:

; 4392 : 	{
; 4393 : 		return Py_BuildException();
; 4394 : 	}
; 4395 : 
; 4396 : 	float fPercent;
; 4397 : 	if (!PyTuple_GetFloat(poArgs, 1, &fPercent))

  00046	8d 85 78 fd ff
	ff		 lea	 eax, DWORD PTR _fPercent$[ebp]
  0004c	50		 push	 eax
  0004d	6a 01		 push	 1
  0004f	56		 push	 esi
  00050	e8 00 00 00 00	 call	 ?PyTuple_GetFloat@@YA_NPAU_object@@HPAM@Z ; PyTuple_GetFloat
  00055	83 c4 0c	 add	 esp, 12			; 0000000cH
  00058	84 c0		 test	 al, al
  0005a	74 d1		 je	 SHORT $LN9@wndMgrSetS

; 4398 : 	{
; 4399 : 		return Py_BuildException();
; 4400 : 	}
; 4401 : 
; 4402 : 	const int img_value_reverse[] =
; 4403 : 	{
; 4404 : 		94, 93, 92, 91, 90, 89, 88, 87, 86, 85, 84, 83, 82, 81, 80, 79, 78, 77, 76, 75,

  0005c	0f 28 05 00 00
	00 00		 movaps	 xmm0, XMMWORD PTR __xmm@0000005b0000005c0000005d0000005e

; 4405 : 		74, 73, 72, 71, 70, 69, 68, 67, 66, 65, 64, 63, 62, 61, 60, 59, 58, 57, 56, 55,
; 4406 : 		54, 53, 52, 51, 50, 49, 48, 47, 46, 45, 44, 43, 42, 41, 40, 39, 38, 37, 36, 35,
; 4407 : 		34, 33, 32, 31, 30, 29, 28, 27, 26, 25, 24, 23, 22, 21, 20, 19, 18, 17, 16, 15,
; 4408 : 		14, 13, 12, 11, 10, 9, 8, 7, 6, 5, 4, 3, 2, 1, 0
; 4409 : 	};
; 4410 : 
; 4411 : 	int iPercent = fPercent * 95.0f;

  00063	8d 85 7c fd ff
	ff		 lea	 eax, DWORD PTR _img_value_reverse$[ebp]
  00069	0f 11 85 7c fd
	ff ff		 movups	 XMMWORD PTR _img_value_reverse$[ebp], xmm0

; 4412 : 	int images = img_value_reverse[iPercent - 1];
; 4413 : 
; 4414 : 	char szBuf[256 + 1];
; 4415 : 	if (images < 10)
; 4416 : 	{
; 4417 : 		_snprintf(szBuf, sizeof(szBuf), "d:/ymir work/ui/game/12zi/time_image/time_0%d.tga", images);
; 4418 : 	}
; 4419 : 	else
; 4420 : 	{
; 4421 : 		_snprintf(szBuf, sizeof(szBuf), "d:/ymir work/ui/game/12zi/time_image/time_%d.tga", images);
; 4422 : 	}
; 4423 : 
; 4424 : 	if (szBuf == NULL)

  00070	ba 00 00 00 00	 mov	 edx, OFFSET ??_C@_0DC@NJMLLDNJ@d?3?1ymir?5work?1ui?1game?112zi?1time_@
  00075	c7 85 ec fe ff
	ff 02 00 00 00	 mov	 DWORD PTR _img_value_reverse$[ebp+368], 2
  0007f	0f 28 05 00 00
	00 00		 movaps	 xmm0, XMMWORD PTR __xmm@0000005700000058000000590000005a
  00086	0f 11 85 8c fd
	ff ff		 movups	 XMMWORD PTR _img_value_reverse$[ebp+16], xmm0
  0008d	c7 85 f0 fe ff
	ff 01 00 00 00	 mov	 DWORD PTR _img_value_reverse$[ebp+372], 1
  00097	0f 28 05 00 00
	00 00		 movaps	 xmm0, XMMWORD PTR __xmm@00000053000000540000005500000056
  0009e	0f 11 85 9c fd
	ff ff		 movups	 XMMWORD PTR _img_value_reverse$[ebp+32], xmm0
  000a5	c7 85 f4 fe ff
	ff 00 00 00 00	 mov	 DWORD PTR _img_value_reverse$[ebp+376], 0
  000af	0f 28 05 00 00
	00 00		 movaps	 xmm0, XMMWORD PTR __xmm@0000004f000000500000005100000052
  000b6	0f 11 85 ac fd
	ff ff		 movups	 XMMWORD PTR _img_value_reverse$[ebp+48], xmm0
  000bd	0f 28 05 00 00
	00 00		 movaps	 xmm0, XMMWORD PTR __xmm@0000004b0000004c0000004d0000004e
  000c4	0f 11 85 bc fd
	ff ff		 movups	 XMMWORD PTR _img_value_reverse$[ebp+64], xmm0
  000cb	0f 28 05 00 00
	00 00		 movaps	 xmm0, XMMWORD PTR __xmm@0000004700000048000000490000004a
  000d2	0f 11 85 cc fd
	ff ff		 movups	 XMMWORD PTR _img_value_reverse$[ebp+80], xmm0
  000d9	0f 28 05 00 00
	00 00		 movaps	 xmm0, XMMWORD PTR __xmm@00000043000000440000004500000046
  000e0	0f 11 85 dc fd
	ff ff		 movups	 XMMWORD PTR _img_value_reverse$[ebp+96], xmm0
  000e7	0f 28 05 00 00
	00 00		 movaps	 xmm0, XMMWORD PTR __xmm@0000003f000000400000004100000042
  000ee	0f 11 85 ec fd
	ff ff		 movups	 XMMWORD PTR _img_value_reverse$[ebp+112], xmm0
  000f5	0f 28 05 00 00
	00 00		 movaps	 xmm0, XMMWORD PTR __xmm@0000003b0000003c0000003d0000003e
  000fc	0f 11 85 fc fd
	ff ff		 movups	 XMMWORD PTR _img_value_reverse$[ebp+128], xmm0
  00103	0f 28 05 00 00
	00 00		 movaps	 xmm0, XMMWORD PTR __xmm@0000003700000038000000390000003a
  0010a	0f 11 85 0c fe
	ff ff		 movups	 XMMWORD PTR _img_value_reverse$[ebp+144], xmm0
  00111	0f 28 05 00 00
	00 00		 movaps	 xmm0, XMMWORD PTR __xmm@00000033000000340000003500000036
  00118	0f 11 85 1c fe
	ff ff		 movups	 XMMWORD PTR _img_value_reverse$[ebp+160], xmm0
  0011f	0f 28 05 00 00
	00 00		 movaps	 xmm0, XMMWORD PTR __xmm@0000002f000000300000003100000032
  00126	0f 11 85 2c fe
	ff ff		 movups	 XMMWORD PTR _img_value_reverse$[ebp+176], xmm0
  0012d	0f 28 05 00 00
	00 00		 movaps	 xmm0, XMMWORD PTR __xmm@0000002b0000002c0000002d0000002e
  00134	0f 11 85 3c fe
	ff ff		 movups	 XMMWORD PTR _img_value_reverse$[ebp+192], xmm0
  0013b	0f 28 05 00 00
	00 00		 movaps	 xmm0, XMMWORD PTR __xmm@0000002700000028000000290000002a
  00142	0f 11 85 4c fe
	ff ff		 movups	 XMMWORD PTR _img_value_reverse$[ebp+208], xmm0
  00149	0f 28 05 00 00
	00 00		 movaps	 xmm0, XMMWORD PTR __xmm@00000023000000240000002500000026
  00150	0f 11 85 5c fe
	ff ff		 movups	 XMMWORD PTR _img_value_reverse$[ebp+224], xmm0
  00157	0f 28 05 00 00
	00 00		 movaps	 xmm0, XMMWORD PTR __xmm@0000001f000000200000002100000022
  0015e	0f 11 85 6c fe
	ff ff		 movups	 XMMWORD PTR _img_value_reverse$[ebp+240], xmm0
  00165	0f 28 05 00 00
	00 00		 movaps	 xmm0, XMMWORD PTR __xmm@0000001b0000001c0000001d0000001e
  0016c	0f 11 85 7c fe
	ff ff		 movups	 XMMWORD PTR _img_value_reverse$[ebp+256], xmm0
  00173	0f 28 05 00 00
	00 00		 movaps	 xmm0, XMMWORD PTR __xmm@0000001700000018000000190000001a
  0017a	0f 11 85 8c fe
	ff ff		 movups	 XMMWORD PTR _img_value_reverse$[ebp+272], xmm0
  00181	0f 28 05 00 00
	00 00		 movaps	 xmm0, XMMWORD PTR __xmm@00000013000000140000001500000016
  00188	0f 11 85 9c fe
	ff ff		 movups	 XMMWORD PTR _img_value_reverse$[ebp+288], xmm0
  0018f	0f 28 05 00 00
	00 00		 movaps	 xmm0, XMMWORD PTR __xmm@0000000f000000100000001100000012
  00196	0f 11 85 ac fe
	ff ff		 movups	 XMMWORD PTR _img_value_reverse$[ebp+304], xmm0
  0019d	0f 28 05 00 00
	00 00		 movaps	 xmm0, XMMWORD PTR __xmm@0000000b0000000c0000000d0000000e
  001a4	0f 11 85 bc fe
	ff ff		 movups	 XMMWORD PTR _img_value_reverse$[ebp+320], xmm0
  001ab	0f 28 05 00 00
	00 00		 movaps	 xmm0, XMMWORD PTR __xmm@0000000700000008000000090000000a
  001b2	0f 11 85 cc fe
	ff ff		 movups	 XMMWORD PTR _img_value_reverse$[ebp+336], xmm0
  001b9	0f 28 05 00 00
	00 00		 movaps	 xmm0, XMMWORD PTR __xmm@00000003000000040000000500000006
  001c0	0f 11 85 dc fe
	ff ff		 movups	 XMMWORD PTR _img_value_reverse$[ebp+352], xmm0
  001c7	f3 0f 10 85 78
	fd ff ff	 movss	 xmm0, DWORD PTR _fPercent$[ebp]
  001cf	f3 0f 59 05 00
	00 00 00	 mulss	 xmm0, DWORD PTR __real@c2be0000
  001d7	f3 0f 2c c8	 cvttss2si ecx, xmm0
  001db	c1 e1 02	 shl	 ecx, 2
  001de	2b c1		 sub	 eax, ecx
  001e0	b9 00 00 00 00	 mov	 ecx, OFFSET ??_C@_0DB@CIHHCLAG@d?3?1ymir?5work?1ui?1game?112zi?1time_@
  001e5	8b 40 fc	 mov	 eax, DWORD PTR [eax-4]
  001e8	83 f8 0a	 cmp	 eax, 10			; 0000000aH
  001eb	50		 push	 eax
  001ec	0f 4c ca	 cmovl	 ecx, edx
  001ef	8d 85 f8 fe ff
	ff		 lea	 eax, DWORD PTR _szBuf$[ebp]
  001f5	51		 push	 ecx
  001f6	68 01 01 00 00	 push	 257			; 00000101H
  001fb	50		 push	 eax
  001fc	e8 00 00 00 00	 call	 __snprintf

; 4425 : 	{
; 4426 : 		return Py_BuildException();
; 4427 : 	}
; 4428 : 
; 4429 : 	if (!((UI::CImageBox*)pWindow)->LoadImage(szBuf))

  00201	8b 8d 74 fd ff
	ff		 mov	 ecx, DWORD PTR _pWindow$[ebp]
  00207	8d 85 f8 fe ff
	ff		 lea	 eax, DWORD PTR _szBuf$[ebp]
  0020d	83 c4 10	 add	 esp, 16			; 00000010H
  00210	50		 push	 eax
  00211	e8 00 00 00 00	 call	 ?LoadImageA@CImageBox@UI@@QAEHPBD@Z ; UI::CImageBox::LoadImageA
  00216	85 c0		 test	 eax, eax
  00218	0f 84 0f fe ff
	ff		 je	 $LN9@wndMgrSetS

; 4430 : 	{
; 4431 : 		return Py_BuildException();
; 4432 : 	}
; 4433 : 
; 4434 : 	return Py_BuildNone();

  0021e	e8 00 00 00 00	 call	 ?Py_BuildNone@@YAPAU_object@@XZ ; Py_BuildNone

; 4435 : }

  00223	8b 4d fc	 mov	 ecx, DWORD PTR __$ArrayPad$[ebp]
  00226	33 cd		 xor	 ecx, ebp
  00228	5e		 pop	 esi
  00229	e8 00 00 00 00	 call	 @__security_check_cookie@4
  0022e	8b e5		 mov	 esp, ebp
  00230	5d		 pop	 ebp
  00231	c3		 ret	 0
?wndMgrSetStartCoolTimeImageBox@@YAPAU_object@@PAU1@0@Z ENDP ; wndMgrSetStartCoolTimeImageBox
_TEXT	ENDS
; Function compile flags: /Ogtp
; File C:\Users\flourine\Desktop\Xantios\client-src\Code\eterPythonLib\PythonWindowManagerModule.cpp
;	COMDAT ?wndMgrSetCoolTimeImageBox@@YAPAU_object@@PAU1@0@Z
_TEXT	SEGMENT
_pWindow$ = -272					; size = 4
_iPercent$ = -268					; size = 4
_szFileName$ = -264					; size = 257
__$ArrayPad$ = -4					; size = 4
_poSelf$ = 8						; size = 4
_poArgs$ = 12						; size = 4
?wndMgrSetCoolTimeImageBox@@YAPAU_object@@PAU1@0@Z PROC	; wndMgrSetCoolTimeImageBox, COMDAT

; 4358 : {

  00000	55		 push	 ebp
  00001	8b ec		 mov	 ebp, esp
  00003	81 ec 10 01 00
	00		 sub	 esp, 272		; 00000110H
  00009	a1 00 00 00 00	 mov	 eax, DWORD PTR ___security_cookie
  0000e	33 c5		 xor	 eax, ebp
  00010	89 45 fc	 mov	 DWORD PTR __$ArrayPad$[ebp], eax
  00013	56		 push	 esi
  00014	8b 75 0c	 mov	 esi, DWORD PTR _poArgs$[ebp]

; 4359 : 	UI::CWindow* pWindow;
; 4360 : 	if (!PyTuple_GetWindow(poArgs, 0, &pWindow))

  00017	8d 85 f0 fe ff
	ff		 lea	 eax, DWORD PTR _pWindow$[ebp]
  0001d	50		 push	 eax
  0001e	6a 00		 push	 0
  00020	56		 push	 esi
  00021	e8 00 00 00 00	 call	 ?PyTuple_GetWindow@@YA_NPAU_object@@HPAPAVCWindow@UI@@@Z ; PyTuple_GetWindow
  00026	83 c4 0c	 add	 esp, 12			; 0000000cH
  00029	84 c0		 test	 al, al
  0002b	75 19		 jne	 SHORT $LN2@wndMgrSetC
$LN7@wndMgrSetC:

; 4386 : }

  0002d	6a 00		 push	 0
  0002f	e8 00 00 00 00	 call	 ?Py_BuildException@@YAPAU_object@@PBDZZ ; Py_BuildException
  00034	83 c4 04	 add	 esp, 4
  00037	5e		 pop	 esi
  00038	8b 4d fc	 mov	 ecx, DWORD PTR __$ArrayPad$[ebp]
  0003b	33 cd		 xor	 ecx, ebp
  0003d	e8 00 00 00 00	 call	 @__security_check_cookie@4
  00042	8b e5		 mov	 esp, ebp
  00044	5d		 pop	 ebp
  00045	c3		 ret	 0
$LN2@wndMgrSetC:

; 4361 : 	{
; 4362 : 		return Py_BuildException();
; 4363 : 	}
; 4364 : 
; 4365 : 	int iPercent;
; 4366 : 	if (!PyTuple_GetInteger(poArgs, 1, &iPercent))

  00046	8d 85 f4 fe ff
	ff		 lea	 eax, DWORD PTR _iPercent$[ebp]
  0004c	50		 push	 eax
  0004d	6a 01		 push	 1
  0004f	56		 push	 esi
  00050	e8 00 00 00 00	 call	 ?PyTuple_GetInteger@@YA_NPAU_object@@HPAH@Z ; PyTuple_GetInteger
  00055	8b 8d f4 fe ff
	ff		 mov	 ecx, DWORD PTR _iPercent$[ebp]
  0005b	84 c0		 test	 al, al
  0005d	ba 01 00 00 00	 mov	 edx, 1

; 4367 : 
; 4368 : 	{
; 4369 : 		iPercent = 1;
; 4370 : 	}
; 4371 : 
; 4372 : 	char szFileName[256 + 1];
; 4373 : 	_snprintf(szFileName, sizeof(szFileName), "d:/ymir work/ui/game/12zi/time_image/time_0%d.tga", iPercent);

  00062	8d 85 f8 fe ff
	ff		 lea	 eax, DWORD PTR _szFileName$[ebp]
  00068	0f 44 ca	 cmove	 ecx, edx
  0006b	51		 push	 ecx
  0006c	68 00 00 00 00	 push	 OFFSET ??_C@_0DC@NJMLLDNJ@d?3?1ymir?5work?1ui?1game?112zi?1time_@
  00071	68 01 01 00 00	 push	 257			; 00000101H
  00076	50		 push	 eax
  00077	89 8d f4 fe ff
	ff		 mov	 DWORD PTR _iPercent$[ebp], ecx
  0007d	e8 00 00 00 00	 call	 __snprintf

; 4374 : 
; 4375 : 	if (szFileName == NULL)
; 4376 : 	{
; 4377 : 		return Py_BuildException();
; 4378 : 	}
; 4379 : 
; 4380 : 	if (!((UI::CImageBox*)pWindow)->LoadImage(szFileName))

  00082	8b 8d f0 fe ff
	ff		 mov	 ecx, DWORD PTR _pWindow$[ebp]
  00088	8d 85 f8 fe ff
	ff		 lea	 eax, DWORD PTR _szFileName$[ebp]
  0008e	83 c4 1c	 add	 esp, 28			; 0000001cH
  00091	50		 push	 eax
  00092	e8 00 00 00 00	 call	 ?LoadImageA@CImageBox@UI@@QAEHPBD@Z ; UI::CImageBox::LoadImageA
  00097	85 c0		 test	 eax, eax
  00099	74 92		 je	 SHORT $LN7@wndMgrSetC

; 4381 : 	{
; 4382 : 		return Py_BuildException();
; 4383 : 	}
; 4384 : 
; 4385 : 	return Py_BuildNone();

  0009b	e8 00 00 00 00	 call	 ?Py_BuildNone@@YAPAU_object@@XZ ; Py_BuildNone

; 4386 : }

  000a0	8b 4d fc	 mov	 ecx, DWORD PTR __$ArrayPad$[ebp]
  000a3	33 cd		 xor	 ecx, ebp
  000a5	5e		 pop	 esi
  000a6	e8 00 00 00 00	 call	 @__security_check_cookie@4
  000ab	8b e5		 mov	 esp, ebp
  000ad	5d		 pop	 ebp
  000ae	c3		 ret	 0
?wndMgrSetCoolTimeImageBox@@YAPAU_object@@PAU1@0@Z ENDP	; wndMgrSetCoolTimeImageBox
_TEXT	ENDS
; Function compile flags: /Ogtp
; File C:\Users\flourine\Desktop\Xantios\client-src\Code\eterPythonLib\PythonWindowManagerModule.cpp
;	COMDAT ?wndMgrSetSlotScale@@YAPAU_object@@PAU1@0@Z
_TEXT	SEGMENT
_diffuseColor$ = -52					; size = 16
_iSlotIndex$ = -36					; size = 4
_iItemIndex$ = -32					; size = 4
_iWidth$ = -28						; size = 4
_iHeight$ = -24						; size = 4
_iImageHandle$ = -20					; size = 4
_sx$ = -16						; size = 4
_sy$ = -12						; size = 4
_pWin$ = -8						; size = 4
_pTuple$ = -4						; size = 4
_poSelf$ = 8						; size = 4
_poArgs$ = 12						; size = 4
?wndMgrSetSlotScale@@YAPAU_object@@PAU1@0@Z PROC	; wndMgrSetSlotScale, COMDAT

; 4263 : {

  00000	55		 push	 ebp
  00001	8b ec		 mov	 ebp, esp
  00003	83 ec 34	 sub	 esp, 52			; 00000034H

; 4264 : 	UI::CWindow* pWin;
; 4265 : 	if (!PyTuple_GetWindow(poArgs, 0, &pWin))

  00006	8d 45 f8	 lea	 eax, DWORD PTR _pWin$[ebp]
  00009	56		 push	 esi
  0000a	8b 75 0c	 mov	 esi, DWORD PTR _poArgs$[ebp]
  0000d	50		 push	 eax
  0000e	6a 00		 push	 0
  00010	56		 push	 esi
  00011	e8 00 00 00 00	 call	 ?PyTuple_GetWindow@@YA_NPAU_object@@HPAPAVCWindow@UI@@@Z ; PyTuple_GetWindow
  00016	83 c4 0c	 add	 esp, 12			; 0000000cH
  00019	84 c0		 test	 al, al
  0001b	75 0f		 jne	 SHORT $LN2@wndMgrSetS
$LN32@wndMgrSetS:

; 4354 : }

  0001d	6a 00		 push	 0
  0001f	e8 00 00 00 00	 call	 ?Py_BuildException@@YAPAU_object@@PBDZZ ; Py_BuildException
  00024	83 c4 04	 add	 esp, 4
  00027	5e		 pop	 esi
  00028	8b e5		 mov	 esp, ebp
  0002a	5d		 pop	 ebp
  0002b	c3		 ret	 0
$LN2@wndMgrSetS:

; 4266 : 	{
; 4267 : 		return Py_BuildException();
; 4268 : 	}
; 4269 : 
; 4270 : 	int iSlotIndex;
; 4271 : 	if (!PyTuple_GetInteger(poArgs, 1, &iSlotIndex))

  0002c	8d 45 dc	 lea	 eax, DWORD PTR _iSlotIndex$[ebp]
  0002f	50		 push	 eax
  00030	6a 01		 push	 1
  00032	56		 push	 esi
  00033	e8 00 00 00 00	 call	 ?PyTuple_GetInteger@@YA_NPAU_object@@HPAH@Z ; PyTuple_GetInteger
  00038	83 c4 0c	 add	 esp, 12			; 0000000cH
  0003b	84 c0		 test	 al, al
  0003d	74 de		 je	 SHORT $LN32@wndMgrSetS

; 4272 : 	{
; 4273 : 		return Py_BuildException();
; 4274 : 	}
; 4275 : 
; 4276 : 	int iItemIndex;
; 4277 : 	if (!PyTuple_GetInteger(poArgs, 2, &iItemIndex))

  0003f	8d 45 e0	 lea	 eax, DWORD PTR _iItemIndex$[ebp]
  00042	50		 push	 eax
  00043	6a 02		 push	 2
  00045	56		 push	 esi
  00046	e8 00 00 00 00	 call	 ?PyTuple_GetInteger@@YA_NPAU_object@@HPAH@Z ; PyTuple_GetInteger
  0004b	83 c4 0c	 add	 esp, 12			; 0000000cH
  0004e	84 c0		 test	 al, al
  00050	74 cb		 je	 SHORT $LN32@wndMgrSetS

; 4278 : 	{
; 4279 : 		return Py_BuildException();
; 4280 : 	}
; 4281 : 
; 4282 : 	int iWidth;
; 4283 : 	if (!PyTuple_GetInteger(poArgs, 3, &iWidth))

  00052	8d 45 e4	 lea	 eax, DWORD PTR _iWidth$[ebp]
  00055	50		 push	 eax
  00056	6a 03		 push	 3
  00058	56		 push	 esi
  00059	e8 00 00 00 00	 call	 ?PyTuple_GetInteger@@YA_NPAU_object@@HPAH@Z ; PyTuple_GetInteger
  0005e	83 c4 0c	 add	 esp, 12			; 0000000cH
  00061	84 c0		 test	 al, al
  00063	74 b8		 je	 SHORT $LN32@wndMgrSetS

; 4284 : 	{
; 4285 : 		return Py_BuildException();
; 4286 : 	}
; 4287 : 
; 4288 : 	int iHeight;
; 4289 : 	if (!PyTuple_GetInteger(poArgs, 4, &iHeight))

  00065	8d 45 e8	 lea	 eax, DWORD PTR _iHeight$[ebp]
  00068	50		 push	 eax
  00069	6a 04		 push	 4
  0006b	56		 push	 esi
  0006c	e8 00 00 00 00	 call	 ?PyTuple_GetInteger@@YA_NPAU_object@@HPAH@Z ; PyTuple_GetInteger
  00071	83 c4 0c	 add	 esp, 12			; 0000000cH
  00074	84 c0		 test	 al, al
  00076	74 a5		 je	 SHORT $LN32@wndMgrSetS

; 4290 : 	{
; 4291 : 		return Py_BuildException();
; 4292 : 	}
; 4293 : 
; 4294 : 	int iImageHandle;
; 4295 : 	if (!PyTuple_GetInteger(poArgs, 5, &iImageHandle))

  00078	8d 45 ec	 lea	 eax, DWORD PTR _iImageHandle$[ebp]
  0007b	50		 push	 eax
  0007c	6a 05		 push	 5
  0007e	56		 push	 esi
  0007f	e8 00 00 00 00	 call	 ?PyTuple_GetInteger@@YA_NPAU_object@@HPAH@Z ; PyTuple_GetInteger
  00084	83 c4 0c	 add	 esp, 12			; 0000000cH
  00087	84 c0		 test	 al, al
  00089	74 92		 je	 SHORT $LN32@wndMgrSetS

; 4296 : 	{
; 4297 : 		return Py_BuildException();
; 4298 : 	}
; 4299 : 
; 4300 : 	D3DXCOLOR diffuseColor;
; 4301 : 
; 4302 : 	PyObject* pTuple;
; 4303 : 	if (!PyTuple_GetObject(poArgs, 6, &pTuple))

  0008b	8d 45 fc	 lea	 eax, DWORD PTR _pTuple$[ebp]
  0008e	50		 push	 eax
  0008f	6a 06		 push	 6
  00091	56		 push	 esi
  00092	e8 00 00 00 00	 call	 ?PyTuple_GetObject@@YA_NPAU_object@@HPAPAU1@@Z ; PyTuple_GetObject
  00097	83 c4 0c	 add	 esp, 12			; 0000000cH
  0009a	84 c0		 test	 al, al
  0009c	75 0d		 jne	 SHORT $LN8@wndMgrSetS

; 4304 : 	{
; 4305 : 		diffuseColor = D3DXCOLOR(1.0, 1.0, 1.0, 1.0);

  0009e	0f 28 05 00 00
	00 00		 movaps	 xmm0, XMMWORD PTR __xmm@3f8000003f8000003f8000003f800000
  000a5	0f 11 45 cc	 movups	 XMMWORD PTR _diffuseColor$[ebp], xmm0

; 4306 : 	}

  000a9	eb 79		 jmp	 SHORT $LN14@wndMgrSetS
$LN8@wndMgrSetS:

; 4307 : 	else
; 4308 : 	{
; 4309 : 		if (PyTuple_Size(pTuple) != 4)

  000ab	ff 75 fc	 push	 DWORD PTR _pTuple$[ebp]
  000ae	ff 15 00 00 00
	00		 call	 DWORD PTR __imp__PyTuple_Size
  000b4	83 c4 04	 add	 esp, 4
  000b7	83 f8 04	 cmp	 eax, 4
  000ba	0f 85 5d ff ff
	ff		 jne	 $LN32@wndMgrSetS

; 4310 : 		{
; 4311 : 			return Py_BuildException();
; 4312 : 		}
; 4313 : 		if (!PyTuple_GetFloat(pTuple, 0, &diffuseColor.r))

  000c0	8d 45 cc	 lea	 eax, DWORD PTR _diffuseColor$[ebp]
  000c3	50		 push	 eax
  000c4	6a 00		 push	 0
  000c6	ff 75 fc	 push	 DWORD PTR _pTuple$[ebp]
  000c9	e8 00 00 00 00	 call	 ?PyTuple_GetFloat@@YA_NPAU_object@@HPAM@Z ; PyTuple_GetFloat
  000ce	83 c4 0c	 add	 esp, 12			; 0000000cH
  000d1	84 c0		 test	 al, al
  000d3	0f 84 44 ff ff
	ff		 je	 $LN32@wndMgrSetS

; 4314 : 		{
; 4315 : 			return Py_BuildException();
; 4316 : 		}
; 4317 : 		if (!PyTuple_GetFloat(pTuple, 1, &diffuseColor.g))

  000d9	8d 45 d0	 lea	 eax, DWORD PTR _diffuseColor$[ebp+4]
  000dc	50		 push	 eax
  000dd	6a 01		 push	 1
  000df	ff 75 fc	 push	 DWORD PTR _pTuple$[ebp]
  000e2	e8 00 00 00 00	 call	 ?PyTuple_GetFloat@@YA_NPAU_object@@HPAM@Z ; PyTuple_GetFloat
  000e7	83 c4 0c	 add	 esp, 12			; 0000000cH
  000ea	84 c0		 test	 al, al
  000ec	0f 84 2b ff ff
	ff		 je	 $LN32@wndMgrSetS

; 4318 : 		{
; 4319 : 			return Py_BuildException();
; 4320 : 		}
; 4321 : 		if (!PyTuple_GetFloat(pTuple, 2, &diffuseColor.b))

  000f2	8d 45 d4	 lea	 eax, DWORD PTR _diffuseColor$[ebp+8]
  000f5	50		 push	 eax
  000f6	6a 02		 push	 2
  000f8	ff 75 fc	 push	 DWORD PTR _pTuple$[ebp]
  000fb	e8 00 00 00 00	 call	 ?PyTuple_GetFloat@@YA_NPAU_object@@HPAM@Z ; PyTuple_GetFloat
  00100	83 c4 0c	 add	 esp, 12			; 0000000cH
  00103	84 c0		 test	 al, al
  00105	0f 84 12 ff ff
	ff		 je	 $LN32@wndMgrSetS

; 4322 : 		{
; 4323 : 			return Py_BuildException();
; 4324 : 		}
; 4325 : 		if (!PyTuple_GetFloat(pTuple, 3, &diffuseColor.a))

  0010b	8d 45 d8	 lea	 eax, DWORD PTR _diffuseColor$[ebp+12]
  0010e	50		 push	 eax
  0010f	6a 03		 push	 3
  00111	ff 75 fc	 push	 DWORD PTR _pTuple$[ebp]
  00114	e8 00 00 00 00	 call	 ?PyTuple_GetFloat@@YA_NPAU_object@@HPAM@Z ; PyTuple_GetFloat
  00119	83 c4 0c	 add	 esp, 12			; 0000000cH
  0011c	84 c0		 test	 al, al
  0011e	0f 84 f9 fe ff
	ff		 je	 $LN32@wndMgrSetS
$LN14@wndMgrSetS:

; 4326 : 		{
; 4327 : 			return Py_BuildException();
; 4328 : 		}
; 4329 : 	}
; 4330 : 
; 4331 : 	float sx, sy;
; 4332 : 	if (!PyTuple_GetFloat(poArgs, 7, &sx))

  00124	8d 45 f0	 lea	 eax, DWORD PTR _sx$[ebp]
  00127	50		 push	 eax
  00128	6a 07		 push	 7
  0012a	56		 push	 esi
  0012b	e8 00 00 00 00	 call	 ?PyTuple_GetFloat@@YA_NPAU_object@@HPAM@Z ; PyTuple_GetFloat
  00130	83 c4 0c	 add	 esp, 12			; 0000000cH
  00133	84 c0		 test	 al, al
  00135	0f 84 e2 fe ff
	ff		 je	 $LN32@wndMgrSetS

; 4333 : 	{
; 4334 : 
; 4335 : 		return Py_BuildException();
; 4336 : 	}
; 4337 : 
; 4338 : 	if (!PyTuple_GetFloat(poArgs, 8, &sy))

  0013b	8d 45 f4	 lea	 eax, DWORD PTR _sy$[ebp]
  0013e	50		 push	 eax
  0013f	6a 08		 push	 8
  00141	56		 push	 esi
  00142	e8 00 00 00 00	 call	 ?PyTuple_GetFloat@@YA_NPAU_object@@HPAM@Z ; PyTuple_GetFloat
  00147	83 c4 0c	 add	 esp, 12			; 0000000cH
  0014a	84 c0		 test	 al, al
  0014c	0f 84 cb fe ff
	ff		 je	 $LN32@wndMgrSetS

; 4339 : 	{
; 4340 : 
; 4341 : 		return Py_BuildException();
; 4342 : 	}
; 4343 : 
; 4344 : 
; 4345 : 	if (!pWin->IsType(UI::CSlotWindow::Type()))

  00152	e8 00 00 00 00	 call	 ?Type@CSlotWindow@UI@@SAKXZ ; UI::CSlotWindow::Type
  00157	8b 75 f8	 mov	 esi, DWORD PTR _pWin$[ebp]
  0015a	8b ce		 mov	 ecx, esi
  0015c	50		 push	 eax
  0015d	e8 00 00 00 00	 call	 ?IsType@CWindow@UI@@QAEHK@Z ; UI::CWindow::IsType
  00162	85 c0		 test	 eax, eax
  00164	0f 84 b3 fe ff
	ff		 je	 $LN32@wndMgrSetS

; 4346 : 	{
; 4347 : 		return Py_BuildException();
; 4348 : 	}
; 4349 : 
; 4350 : 	UI::CSlotWindow* pSlotWin = (UI::CSlotWindow*)pWin;
; 4351 : 	pSlotWin->SetSlotScale(iSlotIndex, iItemIndex, iWidth, iHeight, (CGraphicImage*)iImageHandle, sx, sy, diffuseColor);

  0016a	f3 0f 10 45 f4	 movss	 xmm0, DWORD PTR _sy$[ebp]
  0016f	8d 45 cc	 lea	 eax, DWORD PTR _diffuseColor$[ebp]
  00172	50		 push	 eax
  00173	83 ec 08	 sub	 esp, 8
  00176	8b ce		 mov	 ecx, esi
  00178	f3 0f 11 44 24
	04		 movss	 DWORD PTR [esp+4], xmm0
  0017e	f3 0f 10 45 f0	 movss	 xmm0, DWORD PTR _sx$[ebp]
  00183	f3 0f 11 04 24	 movss	 DWORD PTR [esp], xmm0
  00188	ff 75 ec	 push	 DWORD PTR _iImageHandle$[ebp]
  0018b	ff 75 e8	 push	 DWORD PTR _iHeight$[ebp]
  0018e	ff 75 e4	 push	 DWORD PTR _iWidth$[ebp]
  00191	ff 75 e0	 push	 DWORD PTR _iItemIndex$[ebp]
  00194	ff 75 dc	 push	 DWORD PTR _iSlotIndex$[ebp]
  00197	e8 00 00 00 00	 call	 ?SetSlotScale@CSlotWindow@UI@@QAEXKKEEPAVCGraphicImage@@MMAAUD3DXCOLOR@@@Z ; UI::CSlotWindow::SetSlotScale

; 4352 : 
; 4353 : 	return Py_BuildNone();

  0019c	e8 00 00 00 00	 call	 ?Py_BuildNone@@YAPAU_object@@XZ ; Py_BuildNone
  001a1	5e		 pop	 esi

; 4354 : }

  001a2	8b e5		 mov	 esp, ebp
  001a4	5d		 pop	 ebp
  001a5	c3		 ret	 0
?wndMgrSetSlotScale@@YAPAU_object@@PAU1@0@Z ENDP	; wndMgrSetSlotScale
_TEXT	ENDS
; Function compile flags: /Ogtp
; File C:\Users\flourine\Desktop\Xantios\client-src\Code\eterPythonLib\PythonWindowManagerModule.cpp
;	COMDAT ?wndMgrSetSlotBaseImageScale@@YAPAU_object@@PAU1@0@Z
_TEXT	SEGMENT
_szFileName$ = -32					; size = 4
_fr$ = -28						; size = 4
_fg$ = -24						; size = 4
_fb$ = -20						; size = 4
_fa$ = -16						; size = 4
_scale_x$ = -12						; size = 4
_scale_y$ = -8						; size = 4
_pWin$ = -4						; size = 4
_poSelf$ = 8						; size = 4
_poArgs$ = 12						; size = 4
?wndMgrSetSlotBaseImageScale@@YAPAU_object@@PAU1@0@Z PROC ; wndMgrSetSlotBaseImageScale, COMDAT

; 4203 : {

  00000	55		 push	 ebp
  00001	8b ec		 mov	 ebp, esp
  00003	83 ec 20	 sub	 esp, 32			; 00000020H

; 4204 : 	UI::CWindow* pWin;
; 4205 : 	if (!PyTuple_GetWindow(poArgs, 0, &pWin))

  00006	8d 45 fc	 lea	 eax, DWORD PTR _pWin$[ebp]
  00009	56		 push	 esi
  0000a	8b 75 0c	 mov	 esi, DWORD PTR _poArgs$[ebp]
  0000d	50		 push	 eax
  0000e	6a 00		 push	 0
  00010	56		 push	 esi
  00011	e8 00 00 00 00	 call	 ?PyTuple_GetWindow@@YA_NPAU_object@@HPAPAVCWindow@UI@@@Z ; PyTuple_GetWindow
  00016	83 c4 0c	 add	 esp, 12			; 0000000cH
  00019	84 c0		 test	 al, al
  0001b	75 0f		 jne	 SHORT $LN2@wndMgrSetS
$LN12@wndMgrSetS:

; 4260 : }

  0001d	6a 00		 push	 0
  0001f	e8 00 00 00 00	 call	 ?Py_BuildException@@YAPAU_object@@PBDZZ ; Py_BuildException
  00024	83 c4 04	 add	 esp, 4
  00027	5e		 pop	 esi
  00028	8b e5		 mov	 esp, ebp
  0002a	5d		 pop	 ebp
  0002b	c3		 ret	 0
$LN2@wndMgrSetS:

; 4206 : 	{
; 4207 : 		return Py_BuildException();
; 4208 : 	}
; 4209 : 
; 4210 : 	char* szFileName;
; 4211 : 	if (!PyTuple_GetString(poArgs, 1, &szFileName))

  0002c	8d 45 e0	 lea	 eax, DWORD PTR _szFileName$[ebp]
  0002f	50		 push	 eax
  00030	6a 01		 push	 1
  00032	56		 push	 esi
  00033	e8 00 00 00 00	 call	 ?PyTuple_GetString@@YA_NPAU_object@@HPAPAD@Z ; PyTuple_GetString
  00038	83 c4 0c	 add	 esp, 12			; 0000000cH
  0003b	84 c0		 test	 al, al
  0003d	74 de		 je	 SHORT $LN12@wndMgrSetS

; 4212 : 	{
; 4213 : 		return Py_BuildException();
; 4214 : 	}
; 4215 : 
; 4216 : 	float fr;
; 4217 : 	if (!PyTuple_GetFloat(poArgs, 2, &fr))

  0003f	8d 45 e4	 lea	 eax, DWORD PTR _fr$[ebp]
  00042	50		 push	 eax
  00043	6a 02		 push	 2
  00045	56		 push	 esi
  00046	e8 00 00 00 00	 call	 ?PyTuple_GetFloat@@YA_NPAU_object@@HPAM@Z ; PyTuple_GetFloat
  0004b	83 c4 0c	 add	 esp, 12			; 0000000cH
  0004e	84 c0		 test	 al, al
  00050	74 cb		 je	 SHORT $LN12@wndMgrSetS

; 4218 : 	{
; 4219 : 		return Py_BuildException();
; 4220 : 	}
; 4221 : 
; 4222 : 	float fg;
; 4223 : 	if (!PyTuple_GetFloat(poArgs, 3, &fg))

  00052	8d 45 e8	 lea	 eax, DWORD PTR _fg$[ebp]
  00055	50		 push	 eax
  00056	6a 03		 push	 3
  00058	56		 push	 esi
  00059	e8 00 00 00 00	 call	 ?PyTuple_GetFloat@@YA_NPAU_object@@HPAM@Z ; PyTuple_GetFloat
  0005e	83 c4 0c	 add	 esp, 12			; 0000000cH
  00061	84 c0		 test	 al, al
  00063	74 b8		 je	 SHORT $LN12@wndMgrSetS

; 4224 : 	{
; 4225 : 		return Py_BuildException();
; 4226 : 	}
; 4227 : 
; 4228 : 	float fb;
; 4229 : 	if (!PyTuple_GetFloat(poArgs, 4, &fb))

  00065	8d 45 ec	 lea	 eax, DWORD PTR _fb$[ebp]
  00068	50		 push	 eax
  00069	6a 04		 push	 4
  0006b	56		 push	 esi
  0006c	e8 00 00 00 00	 call	 ?PyTuple_GetFloat@@YA_NPAU_object@@HPAM@Z ; PyTuple_GetFloat
  00071	83 c4 0c	 add	 esp, 12			; 0000000cH
  00074	84 c0		 test	 al, al
  00076	74 a5		 je	 SHORT $LN12@wndMgrSetS

; 4230 : 	{
; 4231 : 		return Py_BuildException();
; 4232 : 	}
; 4233 : 
; 4234 : 	float fa;
; 4235 : 	if (!PyTuple_GetFloat(poArgs, 5, &fa))

  00078	8d 45 f0	 lea	 eax, DWORD PTR _fa$[ebp]
  0007b	50		 push	 eax
  0007c	6a 05		 push	 5
  0007e	56		 push	 esi
  0007f	e8 00 00 00 00	 call	 ?PyTuple_GetFloat@@YA_NPAU_object@@HPAM@Z ; PyTuple_GetFloat
  00084	83 c4 0c	 add	 esp, 12			; 0000000cH
  00087	84 c0		 test	 al, al
  00089	74 92		 je	 SHORT $LN12@wndMgrSetS

; 4236 : 	{
; 4237 : 		return Py_BuildException();
; 4238 : 	}
; 4239 : 
; 4240 : 	float scale_x, scale_y;
; 4241 : 	if (!PyTuple_GetFloat(poArgs, 6, &scale_x))

  0008b	8d 45 f4	 lea	 eax, DWORD PTR _scale_x$[ebp]
  0008e	50		 push	 eax
  0008f	6a 06		 push	 6
  00091	56		 push	 esi
  00092	e8 00 00 00 00	 call	 ?PyTuple_GetFloat@@YA_NPAU_object@@HPAM@Z ; PyTuple_GetFloat
  00097	83 c4 0c	 add	 esp, 12			; 0000000cH
  0009a	84 c0		 test	 al, al
  0009c	0f 84 7b ff ff
	ff		 je	 $LN12@wndMgrSetS

; 4242 : 	{
; 4243 : 		return Py_BuildException();
; 4244 : 	}
; 4245 : 
; 4246 : 	if (!PyTuple_GetFloat(poArgs, 7, &scale_y))

  000a2	8d 45 f8	 lea	 eax, DWORD PTR _scale_y$[ebp]
  000a5	50		 push	 eax
  000a6	6a 07		 push	 7
  000a8	56		 push	 esi
  000a9	e8 00 00 00 00	 call	 ?PyTuple_GetFloat@@YA_NPAU_object@@HPAM@Z ; PyTuple_GetFloat
  000ae	83 c4 0c	 add	 esp, 12			; 0000000cH
  000b1	84 c0		 test	 al, al
  000b3	0f 84 64 ff ff
	ff		 je	 $LN12@wndMgrSetS

; 4247 : 	{
; 4248 : 		return Py_BuildException();
; 4249 : 	}
; 4250 : 
; 4251 : 	if (!pWin->IsType(UI::CSlotWindow::Type()))

  000b9	e8 00 00 00 00	 call	 ?Type@CSlotWindow@UI@@SAKXZ ; UI::CSlotWindow::Type
  000be	8b 75 fc	 mov	 esi, DWORD PTR _pWin$[ebp]
  000c1	8b ce		 mov	 ecx, esi
  000c3	50		 push	 eax
  000c4	e8 00 00 00 00	 call	 ?IsType@CWindow@UI@@QAEHK@Z ; UI::CWindow::IsType
  000c9	85 c0		 test	 eax, eax
  000cb	75 19		 jne	 SHORT $LN10@wndMgrSetS

; 4252 : 	{
; 4253 : 		TraceError("wndMgr.ArrangeSlot:not a slot window");

  000cd	68 00 00 00 00	 push	 OFFSET ??_C@_0CF@BAOIDONM@wndMgr?4ArrangeSlot?3not?5a?5slot?5w@
  000d2	e8 00 00 00 00	 call	 ?TraceError@@YAXPBDZZ	; TraceError

; 4254 : 		return Py_BuildException();

  000d7	6a 00		 push	 0
  000d9	e8 00 00 00 00	 call	 ?Py_BuildException@@YAPAU_object@@PBDZZ ; Py_BuildException
  000de	83 c4 08	 add	 esp, 8
  000e1	5e		 pop	 esi

; 4260 : }

  000e2	8b e5		 mov	 esp, ebp
  000e4	5d		 pop	 ebp
  000e5	c3		 ret	 0
$LN10@wndMgrSetS:

; 4255 : 	}
; 4256 : 
; 4257 : 	UI::CSlotWindow* pSlotWin = (UI::CSlotWindow*)pWin;
; 4258 : 	pSlotWin->SetSlotBaseImageScale(szFileName, fr, fg, fb, fa, scale_x, scale_y);

  000e6	f3 0f 10 45 f8	 movss	 xmm0, DWORD PTR _scale_y$[ebp]
  000eb	83 ec 18	 sub	 esp, 24			; 00000018H
  000ee	8b ce		 mov	 ecx, esi
  000f0	f3 0f 11 44 24
	14		 movss	 DWORD PTR [esp+20], xmm0
  000f6	f3 0f 10 45 f4	 movss	 xmm0, DWORD PTR _scale_x$[ebp]
  000fb	f3 0f 11 44 24
	10		 movss	 DWORD PTR [esp+16], xmm0
  00101	f3 0f 10 45 f0	 movss	 xmm0, DWORD PTR _fa$[ebp]
  00106	f3 0f 11 44 24
	0c		 movss	 DWORD PTR [esp+12], xmm0
  0010c	f3 0f 10 45 ec	 movss	 xmm0, DWORD PTR _fb$[ebp]
  00111	f3 0f 11 44 24
	08		 movss	 DWORD PTR [esp+8], xmm0
  00117	f3 0f 10 45 e8	 movss	 xmm0, DWORD PTR _fg$[ebp]
  0011c	f3 0f 11 44 24
	04		 movss	 DWORD PTR [esp+4], xmm0
  00122	f3 0f 10 45 e4	 movss	 xmm0, DWORD PTR _fr$[ebp]
  00127	f3 0f 11 04 24	 movss	 DWORD PTR [esp], xmm0
  0012c	ff 75 e0	 push	 DWORD PTR _szFileName$[ebp]
  0012f	e8 00 00 00 00	 call	 ?SetSlotBaseImageScale@CSlotWindow@UI@@QAEXPBDMMMMMM@Z ; UI::CSlotWindow::SetSlotBaseImageScale

; 4259 : 	return Py_BuildNone();

  00134	e8 00 00 00 00	 call	 ?Py_BuildNone@@YAPAU_object@@XZ ; Py_BuildNone
  00139	5e		 pop	 esi

; 4260 : }

  0013a	8b e5		 mov	 esp, ebp
  0013c	5d		 pop	 ebp
  0013d	c3		 ret	 0
?wndMgrSetSlotBaseImageScale@@YAPAU_object@@PAU1@0@Z ENDP ; wndMgrSetSlotBaseImageScale
_TEXT	ENDS
; Function compile flags: /Ogtp
; File C:\Users\flourine\Desktop\Xantios\client-src\Code\eterPythonLib\PythonWindowManagerModule.cpp
;	COMDAT ?wndMgrUnlockCursor@@YAPAU_object@@PAU1@0@Z
_TEXT	SEGMENT
_window$ = -4						; size = 4
_poSelf$ = 8						; size = 4
_poArgs$ = 12						; size = 4
?wndMgrUnlockCursor@@YAPAU_object@@PAU1@0@Z PROC	; wndMgrUnlockCursor, COMDAT

; 4189 : {

  00000	55		 push	 ebp
  00001	8b ec		 mov	 ebp, esp
  00003	51		 push	 ecx

; 4190 : 	UI::CWindow* window;
; 4191 : 	if (!PyTuple_GetWindow(poArgs, 0, &window))

  00004	8d 45 fc	 lea	 eax, DWORD PTR _window$[ebp]
  00007	50		 push	 eax
  00008	6a 00		 push	 0
  0000a	ff 75 0c	 push	 DWORD PTR _poArgs$[ebp]
  0000d	e8 00 00 00 00	 call	 ?PyTuple_GetWindow@@YA_NPAU_object@@HPAPAVCWindow@UI@@@Z ; PyTuple_GetWindow
  00012	83 c4 0c	 add	 esp, 12			; 0000000cH
  00015	84 c0		 test	 al, al
  00017	75 09		 jne	 SHORT $LN2@wndMgrUnlo

; 4192 : 	{
; 4193 : 		return Py_BadArgument();

  00019	e8 00 00 00 00	 call	 ?Py_BadArgument@@YAPAU_object@@XZ ; Py_BadArgument

; 4198 : }

  0001e	8b e5		 mov	 esp, ebp
  00020	5d		 pop	 ebp
  00021	c3		 ret	 0
$LN2@wndMgrUnlo:

; 4194 : 	}
; 4195 : 
; 4196 : 	UI::CWindowManager::Instance().UnlockCursor(window);

  00022	ff 75 fc	 push	 DWORD PTR _window$[ebp]
  00025	8b 0d 00 00 00
	00		 mov	 ecx, DWORD PTR ?ms_singleton@?$CSingleton@VCWindowManager@UI@@@@0PAVCWindowManager@UI@@A ; CSingleton<UI::CWindowManager>::ms_singleton
  0002b	e8 00 00 00 00	 call	 ?UnlockCursor@CWindowManager@UI@@QAEXPAVCWindow@2@@Z ; UI::CWindowManager::UnlockCursor

; 4197 : 	return Py_BuildNone();

  00030	e8 00 00 00 00	 call	 ?Py_BuildNone@@YAPAU_object@@XZ ; Py_BuildNone

; 4198 : }

  00035	8b e5		 mov	 esp, ebp
  00037	5d		 pop	 ebp
  00038	c3		 ret	 0
?wndMgrUnlockCursor@@YAPAU_object@@PAU1@0@Z ENDP	; wndMgrUnlockCursor
_TEXT	ENDS
; Function compile flags: /Ogtp
; File C:\Users\flourine\Desktop\Xantios\client-src\Code\eterPythonLib\PythonWindowManagerModule.cpp
;	COMDAT ?wndMgrLockCursor@@YAPAU_object@@PAU1@0@Z
_TEXT	SEGMENT
_window$ = -4						; size = 4
_poSelf$ = 8						; size = 4
_poArgs$ = 12						; size = 4
?wndMgrLockCursor@@YAPAU_object@@PAU1@0@Z PROC		; wndMgrLockCursor, COMDAT

; 4177 : {

  00000	55		 push	 ebp
  00001	8b ec		 mov	 ebp, esp
  00003	51		 push	 ecx

; 4178 : 	UI::CWindow* window;
; 4179 : 	if (!PyTuple_GetWindow(poArgs, 0, &window))

  00004	8d 45 fc	 lea	 eax, DWORD PTR _window$[ebp]
  00007	50		 push	 eax
  00008	6a 00		 push	 0
  0000a	ff 75 0c	 push	 DWORD PTR _poArgs$[ebp]
  0000d	e8 00 00 00 00	 call	 ?PyTuple_GetWindow@@YA_NPAU_object@@HPAPAVCWindow@UI@@@Z ; PyTuple_GetWindow
  00012	83 c4 0c	 add	 esp, 12			; 0000000cH
  00015	84 c0		 test	 al, al
  00017	75 09		 jne	 SHORT $LN2@wndMgrLock

; 4180 : 	{
; 4181 : 		return Py_BadArgument();

  00019	e8 00 00 00 00	 call	 ?Py_BadArgument@@YAPAU_object@@XZ ; Py_BadArgument

; 4186 : }

  0001e	8b e5		 mov	 esp, ebp
  00020	5d		 pop	 ebp
  00021	c3		 ret	 0
$LN2@wndMgrLock:

; 4182 : 	}
; 4183 : 
; 4184 : 	UI::CWindowManager::Instance().LockCursorOnWindow(window);

  00022	ff 75 fc	 push	 DWORD PTR _window$[ebp]
  00025	8b 0d 00 00 00
	00		 mov	 ecx, DWORD PTR ?ms_singleton@?$CSingleton@VCWindowManager@UI@@@@0PAVCWindowManager@UI@@A ; CSingleton<UI::CWindowManager>::ms_singleton
  0002b	e8 00 00 00 00	 call	 ?LockCursorOnWindow@CWindowManager@UI@@QAEXPAVCWindow@2@@Z ; UI::CWindowManager::LockCursorOnWindow

; 4185 : 	return Py_BuildNone();

  00030	e8 00 00 00 00	 call	 ?Py_BuildNone@@YAPAU_object@@XZ ; Py_BuildNone

; 4186 : }

  00035	8b e5		 mov	 esp, ebp
  00037	5d		 pop	 ebp
  00038	c3		 ret	 0
?wndMgrLockCursor@@YAPAU_object@@PAU1@0@Z ENDP		; wndMgrLockCursor
_TEXT	ENDS
; Function compile flags: /Ogtp
; File C:\Users\flourine\Desktop\Xantios\client-src\Code\eterPythonLib\PythonWindowManagerModule.cpp
;	COMDAT ?wndRenderTargetDestroyRender@@YAPAU_object@@PAU1@0@Z
_TEXT	SEGMENT
_window$ = -4						; size = 4
_self$ = 8						; size = 4
_args$ = 12						; size = 4
?wndRenderTargetDestroyRender@@YAPAU_object@@PAU1@0@Z PROC ; wndRenderTargetDestroyRender, COMDAT

; 4162 : {

  00000	55		 push	 ebp
  00001	8b ec		 mov	 ebp, esp
  00003	51		 push	 ecx

; 4163 : 	UI::CWindow* window;
; 4164 : 
; 4165 : 	if (!PyTuple_GetWindow(args, 0, &window))

  00004	8d 45 fc	 lea	 eax, DWORD PTR _window$[ebp]
  00007	50		 push	 eax
  00008	6a 00		 push	 0
  0000a	ff 75 0c	 push	 DWORD PTR _args$[ebp]
  0000d	e8 00 00 00 00	 call	 ?PyTuple_GetWindow@@YA_NPAU_object@@HPAPAVCWindow@UI@@@Z ; PyTuple_GetWindow
  00012	83 c4 0c	 add	 esp, 12			; 0000000cH
  00015	84 c0		 test	 al, al
  00017	75 09		 jne	 SHORT $LN2@wndRenderT

; 4166 : 	{
; 4167 : 		return Py_BadArgument();

  00019	e8 00 00 00 00	 call	 ?Py_BadArgument@@YAPAU_object@@XZ ; Py_BadArgument

; 4174 : }

  0001e	8b e5		 mov	 esp, ebp
  00020	5d		 pop	 ebp
  00021	c3		 ret	 0
$LN2@wndRenderT:

; 4168 : 	}
; 4169 : 
; 4170 : 	auto renderTarget = static_cast<UI::CRenderTarget*>(window);
; 4171 : 	renderTarget->DestroyRender();

  00022	8b 4d fc	 mov	 ecx, DWORD PTR _window$[ebp]
  00025	e8 00 00 00 00	 call	 ?DestroyRender@CRenderTarget@UI@@QAEXXZ ; UI::CRenderTarget::DestroyRender

; 4172 : 
; 4173 : 	return Py_BuildNone();

  0002a	e8 00 00 00 00	 call	 ?Py_BuildNone@@YAPAU_object@@XZ ; Py_BuildNone

; 4174 : }

  0002f	8b e5		 mov	 esp, ebp
  00031	5d		 pop	 ebp
  00032	c3		 ret	 0
?wndRenderTargetDestroyRender@@YAPAU_object@@PAU1@0@Z ENDP ; wndRenderTargetDestroyRender
_TEXT	ENDS
; Function compile flags: /Ogtp
; File C:\Users\flourine\Desktop\Xantios\client-src\Code\eterPythonLib\PythonWindowManagerModule.cpp
;	COMDAT ?wndRenderTargetSetRotationMode@@YAPAU_object@@PAU1@0@Z
_TEXT	SEGMENT
_window$ = -8						; size = 4
_rotation$ = -4						; size = 1
_self$ = 8						; size = 4
_args$ = 12						; size = 4
?wndRenderTargetSetRotationMode@@YAPAU_object@@PAU1@0@Z PROC ; wndRenderTargetSetRotationMode, COMDAT

; 4145 : {

  00000	55		 push	 ebp
  00001	8b ec		 mov	 ebp, esp
  00003	83 ec 08	 sub	 esp, 8

; 4146 : 	UI::CWindow* window;
; 4147 : 	bool rotation;
; 4148 : 
; 4149 : 	if (!PyTuple_GetWindow(args, 0, &window) ||

  00006	8d 45 f8	 lea	 eax, DWORD PTR _window$[ebp]
  00009	50		 push	 eax
  0000a	6a 00		 push	 0
  0000c	ff 75 0c	 push	 DWORD PTR _args$[ebp]
  0000f	e8 00 00 00 00	 call	 ?PyTuple_GetWindow@@YA_NPAU_object@@HPAPAVCWindow@UI@@@Z ; PyTuple_GetWindow
  00014	83 c4 0c	 add	 esp, 12			; 0000000cH
  00017	84 c0		 test	 al, al
  00019	74 29		 je	 SHORT $LN3@wndRenderT
  0001b	8d 45 fc	 lea	 eax, DWORD PTR _rotation$[ebp]
  0001e	50		 push	 eax
  0001f	6a 01		 push	 1
  00021	ff 75 0c	 push	 DWORD PTR _args$[ebp]
  00024	e8 00 00 00 00	 call	 ?PyTuple_GetBoolean@@YA_NPAU_object@@HPA_N@Z ; PyTuple_GetBoolean
  00029	83 c4 0c	 add	 esp, 12			; 0000000cH
  0002c	84 c0		 test	 al, al
  0002e	74 14		 je	 SHORT $LN3@wndRenderT

; 4153 : 	}
; 4154 : 
; 4155 : 	auto renderTarget = static_cast<UI::CRenderTarget*>(window);
; 4156 : 	renderTarget->SetRotationMode(rotation);

  00030	ff 75 fc	 push	 DWORD PTR _rotation$[ebp]
  00033	8b 4d f8	 mov	 ecx, DWORD PTR _window$[ebp]
  00036	e8 00 00 00 00	 call	 ?SetRotationMode@CRenderTarget@UI@@QAEX_N@Z ; UI::CRenderTarget::SetRotationMode

; 4157 : 
; 4158 : 	return Py_BuildNone();

  0003b	e8 00 00 00 00	 call	 ?Py_BuildNone@@YAPAU_object@@XZ ; Py_BuildNone

; 4159 : }

  00040	8b e5		 mov	 esp, ebp
  00042	5d		 pop	 ebp
  00043	c3		 ret	 0
$LN3@wndRenderT:

; 4150 : 			!PyTuple_GetBoolean(args, 1, &rotation))
; 4151 : 	{
; 4152 : 		return Py_BadArgument();

  00044	e8 00 00 00 00	 call	 ?Py_BadArgument@@YAPAU_object@@XZ ; Py_BadArgument

; 4159 : }

  00049	8b e5		 mov	 esp, ebp
  0004b	5d		 pop	 ebp
  0004c	c3		 ret	 0
?wndRenderTargetSetRotationMode@@YAPAU_object@@PAU1@0@Z ENDP ; wndRenderTargetSetRotationMode
_TEXT	ENDS
; Function compile flags: /Ogtp
; File C:\Users\flourine\Desktop\Xantios\client-src\Code\eterPythonLib\PythonWindowManagerModule.cpp
;	COMDAT ?wndRenderTargetGetRotation@@YAPAU_object@@PAU1@0@Z
_TEXT	SEGMENT
_rotation$ = -4						; size = 4
_window$ = -4						; size = 4
_self$ = 8						; size = 4
_args$ = 12						; size = 4
?wndRenderTargetGetRotation@@YAPAU_object@@PAU1@0@Z PROC ; wndRenderTargetGetRotation, COMDAT

; 4130 : {

  00000	55		 push	 ebp
  00001	8b ec		 mov	 ebp, esp
  00003	51		 push	 ecx

; 4131 : 	UI::CWindow* window;
; 4132 : 
; 4133 : 	if (!PyTuple_GetWindow(args, 0, &window))

  00004	8d 45 fc	 lea	 eax, DWORD PTR _window$[ebp]
  00007	50		 push	 eax
  00008	6a 00		 push	 0
  0000a	ff 75 0c	 push	 DWORD PTR _args$[ebp]
  0000d	e8 00 00 00 00	 call	 ?PyTuple_GetWindow@@YA_NPAU_object@@HPAPAVCWindow@UI@@@Z ; PyTuple_GetWindow
  00012	83 c4 0c	 add	 esp, 12			; 0000000cH
  00015	84 c0		 test	 al, al
  00017	75 09		 jne	 SHORT $LN2@wndRenderT

; 4134 : 	{
; 4135 : 		return Py_BadArgument();

  00019	e8 00 00 00 00	 call	 ?Py_BadArgument@@YAPAU_object@@XZ ; Py_BadArgument

; 4142 : }

  0001e	8b e5		 mov	 esp, ebp
  00020	5d		 pop	 ebp
  00021	c3		 ret	 0
$LN2@wndRenderT:

; 4136 : 	}
; 4137 : 
; 4138 : 	auto renderTarget = static_cast<UI::CRenderTarget*>(window);
; 4139 : 	float rotation = renderTarget->GetRotation();

  00022	8b 4d fc	 mov	 ecx, DWORD PTR _window$[ebp]
  00025	e8 00 00 00 00	 call	 ?GetRotation@CRenderTarget@UI@@QAEMXZ ; UI::CRenderTarget::GetRotation
  0002a	d9 5d fc	 fstp	 DWORD PTR _rotation$[ebp]
  0002d	f3 0f 10 45 fc	 movss	 xmm0, DWORD PTR _rotation$[ebp]

; 4140 : 
; 4141 : 	return Py_BuildValue("f", rotation);

  00032	83 ec 08	 sub	 esp, 8
  00035	0f 5a c0	 cvtps2pd xmm0, xmm0
  00038	f2 0f 11 04 24	 movsd	 QWORD PTR [esp], xmm0
  0003d	68 00 00 00 00	 push	 OFFSET ??_C@_01INIBCBCB@f@
  00042	ff 15 00 00 00
	00		 call	 DWORD PTR __imp__Py_BuildValue
  00048	83 c4 0c	 add	 esp, 12			; 0000000cH

; 4142 : }

  0004b	8b e5		 mov	 esp, ebp
  0004d	5d		 pop	 ebp
  0004e	c3		 ret	 0
?wndRenderTargetGetRotation@@YAPAU_object@@PAU1@0@Z ENDP ; wndRenderTargetGetRotation
_TEXT	ENDS
; Function compile flags: /Ogtp
; File C:\Users\flourine\Desktop\Xantios\client-src\Code\eterPythonLib\PythonWindowManagerModule.cpp
;	COMDAT ?wndRenderTargetSetRotation@@YAPAU_object@@PAU1@0@Z
_TEXT	SEGMENT
_window$ = -8						; size = 4
_rotation$ = -4						; size = 4
_self$ = 8						; size = 4
_args$ = 12						; size = 4
?wndRenderTargetSetRotation@@YAPAU_object@@PAU1@0@Z PROC ; wndRenderTargetSetRotation, COMDAT

; 4113 : {

  00000	55		 push	 ebp
  00001	8b ec		 mov	 ebp, esp
  00003	83 ec 08	 sub	 esp, 8

; 4114 : 	UI::CWindow* window;
; 4115 : 	float rotation;
; 4116 : 
; 4117 : 	if (!PyTuple_GetWindow(args, 0, &window) ||

  00006	8d 45 f8	 lea	 eax, DWORD PTR _window$[ebp]
  00009	50		 push	 eax
  0000a	6a 00		 push	 0
  0000c	ff 75 0c	 push	 DWORD PTR _args$[ebp]
  0000f	e8 00 00 00 00	 call	 ?PyTuple_GetWindow@@YA_NPAU_object@@HPAPAVCWindow@UI@@@Z ; PyTuple_GetWindow
  00014	83 c4 0c	 add	 esp, 12			; 0000000cH
  00017	84 c0		 test	 al, al
  00019	74 31		 je	 SHORT $LN3@wndRenderT
  0001b	8d 45 fc	 lea	 eax, DWORD PTR _rotation$[ebp]
  0001e	50		 push	 eax
  0001f	6a 01		 push	 1
  00021	ff 75 0c	 push	 DWORD PTR _args$[ebp]
  00024	e8 00 00 00 00	 call	 ?PyTuple_GetFloat@@YA_NPAU_object@@HPAM@Z ; PyTuple_GetFloat
  00029	83 c4 0c	 add	 esp, 12			; 0000000cH
  0002c	84 c0		 test	 al, al
  0002e	74 1c		 je	 SHORT $LN3@wndRenderT

; 4121 : 	}
; 4122 : 
; 4123 : 	auto renderTarget = static_cast<UI::CRenderTarget*>(window);
; 4124 : 	renderTarget->SetRotation(rotation);

  00030	f3 0f 10 45 fc	 movss	 xmm0, DWORD PTR _rotation$[ebp]
  00035	51		 push	 ecx
  00036	8b 4d f8	 mov	 ecx, DWORD PTR _window$[ebp]
  00039	f3 0f 11 04 24	 movss	 DWORD PTR [esp], xmm0
  0003e	e8 00 00 00 00	 call	 ?SetRotation@CRenderTarget@UI@@QAEXM@Z ; UI::CRenderTarget::SetRotation

; 4125 : 
; 4126 : 	return Py_BuildNone();

  00043	e8 00 00 00 00	 call	 ?Py_BuildNone@@YAPAU_object@@XZ ; Py_BuildNone

; 4127 : }

  00048	8b e5		 mov	 esp, ebp
  0004a	5d		 pop	 ebp
  0004b	c3		 ret	 0
$LN3@wndRenderT:

; 4118 : 			!PyTuple_GetFloat(args, 1, &rotation))
; 4119 : 	{
; 4120 : 		return Py_BadArgument();

  0004c	e8 00 00 00 00	 call	 ?Py_BadArgument@@YAPAU_object@@XZ ; Py_BadArgument

; 4127 : }

  00051	8b e5		 mov	 esp, ebp
  00053	5d		 pop	 ebp
  00054	c3		 ret	 0
?wndRenderTargetSetRotation@@YAPAU_object@@PAU1@0@Z ENDP ; wndRenderTargetSetRotation
_TEXT	ENDS
; Function compile flags: /Ogtp
; File C:\Users\flourine\Desktop\Xantios\client-src\Code\eterPythonLib\PythonWindowManagerModule.cpp
;	COMDAT ?wndRenderTargetGetLightPosition@@YAPAU_object@@PAU1@0@Z
_TEXT	SEGMENT
_window$ = -4						; size = 4
_self$ = 8						; size = 4
_args$ = 12						; size = 4
?wndRenderTargetGetLightPosition@@YAPAU_object@@PAU1@0@Z PROC ; wndRenderTargetGetLightPosition, COMDAT

; 4098 : {

  00000	55		 push	 ebp
  00001	8b ec		 mov	 ebp, esp
  00003	51		 push	 ecx

; 4099 : 	UI::CWindow* window;
; 4100 : 
; 4101 : 	if (!PyTuple_GetWindow(args, 0, &window))

  00004	8d 45 fc	 lea	 eax, DWORD PTR _window$[ebp]
  00007	50		 push	 eax
  00008	6a 00		 push	 0
  0000a	ff 75 0c	 push	 DWORD PTR _args$[ebp]
  0000d	e8 00 00 00 00	 call	 ?PyTuple_GetWindow@@YA_NPAU_object@@HPAPAVCWindow@UI@@@Z ; PyTuple_GetWindow
  00012	83 c4 0c	 add	 esp, 12			; 0000000cH
  00015	84 c0		 test	 al, al
  00017	75 09		 jne	 SHORT $LN2@wndRenderT

; 4102 : 	{
; 4103 : 		return Py_BadArgument();

  00019	e8 00 00 00 00	 call	 ?Py_BadArgument@@YAPAU_object@@XZ ; Py_BadArgument

; 4110 : }

  0001e	8b e5		 mov	 esp, ebp
  00020	5d		 pop	 ebp
  00021	c3		 ret	 0
$LN2@wndRenderT:

; 4104 : 	}
; 4105 : 
; 4106 : 	auto renderTarget = static_cast<UI::CRenderTarget*>(window);
; 4107 : 	auto& position = renderTarget->GetLightPosition();

  00022	8b 4d fc	 mov	 ecx, DWORD PTR _window$[ebp]
  00025	e8 00 00 00 00	 call	 ?GetLightPosition@CRenderTarget@UI@@QBEABUD3DXVECTOR3@@XZ ; UI::CRenderTarget::GetLightPosition

; 4108 : 
; 4109 : 	return Py_BuildValue("fff", position.x, position.y, position.z);

  0002a	83 ec 18	 sub	 esp, 24			; 00000018H
  0002d	f3 0f 10 40 08	 movss	 xmm0, DWORD PTR [eax+8]
  00032	0f 5a c0	 cvtps2pd xmm0, xmm0
  00035	f2 0f 11 44 24
	10		 movsd	 QWORD PTR [esp+16], xmm0
  0003b	f3 0f 10 40 04	 movss	 xmm0, DWORD PTR [eax+4]
  00040	0f 5a c0	 cvtps2pd xmm0, xmm0
  00043	f2 0f 11 44 24
	08		 movsd	 QWORD PTR [esp+8], xmm0
  00049	f3 0f 10 00	 movss	 xmm0, DWORD PTR [eax]
  0004d	0f 5a c0	 cvtps2pd xmm0, xmm0
  00050	f2 0f 11 04 24	 movsd	 QWORD PTR [esp], xmm0
  00055	68 00 00 00 00	 push	 OFFSET ??_C@_03LPALPDIP@fff@
  0005a	ff 15 00 00 00
	00		 call	 DWORD PTR __imp__Py_BuildValue
  00060	83 c4 1c	 add	 esp, 28			; 0000001cH

; 4110 : }

  00063	8b e5		 mov	 esp, ebp
  00065	5d		 pop	 ebp
  00066	c3		 ret	 0
?wndRenderTargetGetLightPosition@@YAPAU_object@@PAU1@0@Z ENDP ; wndRenderTargetGetLightPosition
_TEXT	ENDS
; Function compile flags: /Ogtp
; File C:\Users\flourine\Desktop\Xantios\client-src\Code\eterPythonLib\PythonWindowManagerModule.cpp
; File C:\Users\flourine\Desktop\Xantios\client-src\extern\include\directX\d3dx9math.inl
; File C:\Users\flourine\Desktop\Xantios\client-src\Code\eterPythonLib\PythonWindowManagerModule.cpp
; File C:\Users\flourine\Desktop\Xantios\client-src\extern\include\directX\d3dx9math.inl
; File C:\Users\flourine\Desktop\Xantios\client-src\Code\eterPythonLib\PythonWindowManagerModule.cpp
; File C:\Users\flourine\Desktop\Xantios\client-src\extern\include\directX\d3dx9math.inl
; File C:\Users\flourine\Desktop\Xantios\client-src\Code\eterPythonLib\PythonWindowManagerModule.cpp
; File C:\Users\flourine\Desktop\Xantios\client-src\extern\include\directX\d3dx9math.inl
; File C:\Users\flourine\Desktop\Xantios\client-src\Code\eterPythonLib\PythonWindowManagerModule.cpp
;	COMDAT ?wndRenderTargetSetLightPosition@@YAPAU_object@@PAU1@0@Z
_TEXT	SEGMENT
$T1 = -28						; size = 12
_window$ = -16						; size = 4
_z$ = -12						; size = 4
_y$ = -8						; size = 4
_x$ = -4						; size = 4
_self$ = 8						; size = 4
_args$ = 12						; size = 4
?wndRenderTargetSetLightPosition@@YAPAU_object@@PAU1@0@Z PROC ; wndRenderTargetSetLightPosition, COMDAT

; 4079 : {

  00000	55		 push	 ebp
  00001	8b ec		 mov	 ebp, esp
  00003	83 ec 1c	 sub	 esp, 28			; 0000001cH

; 4080 : 	UI::CWindow* window;
; 4081 : 	float x, y, z;
; 4082 : 
; 4083 : 	if (!PyTuple_GetWindow(args, 0, &window) ||
; 4084 : 			!PyTuple_GetFloat(args, 1, &x) ||
; 4085 : 			!PyTuple_GetFloat(args, 2, &y) ||

  00006	8d 45 f0	 lea	 eax, DWORD PTR _window$[ebp]
  00009	56		 push	 esi
  0000a	8b 75 0c	 mov	 esi, DWORD PTR _args$[ebp]
  0000d	50		 push	 eax
  0000e	6a 00		 push	 0
  00010	56		 push	 esi
  00011	e8 00 00 00 00	 call	 ?PyTuple_GetWindow@@YA_NPAU_object@@HPAPAVCWindow@UI@@@Z ; PyTuple_GetWindow
  00016	83 c4 0c	 add	 esp, 12			; 0000000cH
  00019	84 c0		 test	 al, al
  0001b	74 71		 je	 SHORT $LN3@wndRenderT
  0001d	8d 45 fc	 lea	 eax, DWORD PTR _x$[ebp]
  00020	50		 push	 eax
  00021	6a 01		 push	 1
  00023	56		 push	 esi
  00024	e8 00 00 00 00	 call	 ?PyTuple_GetFloat@@YA_NPAU_object@@HPAM@Z ; PyTuple_GetFloat
  00029	83 c4 0c	 add	 esp, 12			; 0000000cH
  0002c	84 c0		 test	 al, al
  0002e	74 5e		 je	 SHORT $LN3@wndRenderT
  00030	8d 45 f8	 lea	 eax, DWORD PTR _y$[ebp]
  00033	50		 push	 eax
  00034	6a 02		 push	 2
  00036	56		 push	 esi
  00037	e8 00 00 00 00	 call	 ?PyTuple_GetFloat@@YA_NPAU_object@@HPAM@Z ; PyTuple_GetFloat
  0003c	83 c4 0c	 add	 esp, 12			; 0000000cH
  0003f	84 c0		 test	 al, al
  00041	74 4b		 je	 SHORT $LN3@wndRenderT
  00043	8d 45 f4	 lea	 eax, DWORD PTR _z$[ebp]
  00046	50		 push	 eax
  00047	6a 03		 push	 3
  00049	56		 push	 esi
  0004a	e8 00 00 00 00	 call	 ?PyTuple_GetFloat@@YA_NPAU_object@@HPAM@Z ; PyTuple_GetFloat
  0004f	83 c4 0c	 add	 esp, 12			; 0000000cH
  00052	84 c0		 test	 al, al
  00054	74 38		 je	 SHORT $LN3@wndRenderT
; File C:\Users\flourine\Desktop\Xantios\client-src\extern\include\directX\d3dx9math.inl

; 304  :     x = fx;

  00056	f3 0f 10 55 fc	 movss	 xmm2, DWORD PTR _x$[ebp]
; File C:\Users\flourine\Desktop\Xantios\client-src\Code\eterPythonLib\PythonWindowManagerModule.cpp

; 4092 : 	renderTarget->SetLightPosition(D3DXVECTOR3(x, y, z));

  0005b	83 ec 0c	 sub	 esp, 12			; 0000000cH
; File C:\Users\flourine\Desktop\Xantios\client-src\extern\include\directX\d3dx9math.inl

; 305  :     y = fy;

  0005e	f3 0f 10 4d f8	 movss	 xmm1, DWORD PTR _y$[ebp]
; File C:\Users\flourine\Desktop\Xantios\client-src\Code\eterPythonLib\PythonWindowManagerModule.cpp

; 4092 : 	renderTarget->SetLightPosition(D3DXVECTOR3(x, y, z));

  00063	8b cc		 mov	 ecx, esp
; File C:\Users\flourine\Desktop\Xantios\client-src\extern\include\directX\d3dx9math.inl

; 306  :     z = fz;

  00065	f3 0f 10 45 f4	 movss	 xmm0, DWORD PTR _z$[ebp]
; File C:\Users\flourine\Desktop\Xantios\client-src\Code\eterPythonLib\PythonWindowManagerModule.cpp

; 4092 : 	renderTarget->SetLightPosition(D3DXVECTOR3(x, y, z));

  0006a	0f 14 d1	 unpcklps xmm2, xmm1
; File C:\Users\flourine\Desktop\Xantios\client-src\extern\include\directX\d3dx9math.inl

; 306  :     z = fz;

  0006d	f3 0f 11 45 ec	 movss	 DWORD PTR $T1[ebp+8], xmm0
; File C:\Users\flourine\Desktop\Xantios\client-src\Code\eterPythonLib\PythonWindowManagerModule.cpp

; 4092 : 	renderTarget->SetLightPosition(D3DXVECTOR3(x, y, z));

  00072	8b 45 ec	 mov	 eax, DWORD PTR $T1[ebp+8]
  00075	66 0f d6 11	 movq	 QWORD PTR [ecx], xmm2
  00079	89 41 08	 mov	 DWORD PTR [ecx+8], eax
  0007c	8b 4d f0	 mov	 ecx, DWORD PTR _window$[ebp]
  0007f	e8 00 00 00 00	 call	 ?SetLightPosition@CRenderTarget@UI@@QAEXUD3DXVECTOR3@@@Z ; UI::CRenderTarget::SetLightPosition

; 4093 : 
; 4094 : 	return Py_BuildNone();

  00084	e8 00 00 00 00	 call	 ?Py_BuildNone@@YAPAU_object@@XZ ; Py_BuildNone

; 4095 : }

  00089	5e		 pop	 esi
  0008a	8b e5		 mov	 esp, ebp
  0008c	5d		 pop	 ebp
  0008d	c3		 ret	 0
$LN3@wndRenderT:

; 4086 : 			!PyTuple_GetFloat(args, 3, &z))
; 4087 : 	{
; 4088 : 		return Py_BadArgument();

  0008e	e8 00 00 00 00	 call	 ?Py_BadArgument@@YAPAU_object@@XZ ; Py_BadArgument

; 4095 : }

  00093	5e		 pop	 esi
  00094	8b e5		 mov	 esp, ebp
  00096	5d		 pop	 ebp
  00097	c3		 ret	 0
?wndRenderTargetSetLightPosition@@YAPAU_object@@PAU1@0@Z ENDP ; wndRenderTargetSetLightPosition
_TEXT	ENDS
; Function compile flags: /Ogtp
; File C:\Users\flourine\Desktop\Xantios\client-src\Code\eterPythonLib\PythonWindowManagerModule.cpp
;	COMDAT ?wndRenderTargetGetRenderDistance@@YAPAU_object@@PAU1@0@Z
_TEXT	SEGMENT
_rotation$ = -4						; size = 4
_window$ = -4						; size = 4
_self$ = 8						; size = 4
_args$ = 12						; size = 4
?wndRenderTargetGetRenderDistance@@YAPAU_object@@PAU1@0@Z PROC ; wndRenderTargetGetRenderDistance, COMDAT

; 4064 : {

  00000	55		 push	 ebp
  00001	8b ec		 mov	 ebp, esp
  00003	51		 push	 ecx

; 4065 : 	UI::CWindow* window;
; 4066 : 
; 4067 : 	if (!PyTuple_GetWindow(args, 0, &window))

  00004	8d 45 fc	 lea	 eax, DWORD PTR _window$[ebp]
  00007	50		 push	 eax
  00008	6a 00		 push	 0
  0000a	ff 75 0c	 push	 DWORD PTR _args$[ebp]
  0000d	e8 00 00 00 00	 call	 ?PyTuple_GetWindow@@YA_NPAU_object@@HPAPAVCWindow@UI@@@Z ; PyTuple_GetWindow
  00012	83 c4 0c	 add	 esp, 12			; 0000000cH
  00015	84 c0		 test	 al, al
  00017	75 09		 jne	 SHORT $LN2@wndRenderT

; 4068 : 	{
; 4069 : 		return Py_BadArgument();

  00019	e8 00 00 00 00	 call	 ?Py_BadArgument@@YAPAU_object@@XZ ; Py_BadArgument

; 4076 : }

  0001e	8b e5		 mov	 esp, ebp
  00020	5d		 pop	 ebp
  00021	c3		 ret	 0
$LN2@wndRenderT:

; 4070 : 	}
; 4071 : 
; 4072 : 	auto renderTarget = static_cast<UI::CRenderTarget*>(window);
; 4073 : 	float rotation = renderTarget->GetRenderDistance();

  00022	8b 4d fc	 mov	 ecx, DWORD PTR _window$[ebp]
  00025	e8 00 00 00 00	 call	 ?GetRenderDistance@CRenderTarget@UI@@QAEMXZ ; UI::CRenderTarget::GetRenderDistance
  0002a	d9 5d fc	 fstp	 DWORD PTR _rotation$[ebp]
  0002d	f3 0f 10 45 fc	 movss	 xmm0, DWORD PTR _rotation$[ebp]

; 4074 : 
; 4075 : 	return Py_BuildValue("f", rotation);

  00032	83 ec 08	 sub	 esp, 8
  00035	0f 5a c0	 cvtps2pd xmm0, xmm0
  00038	f2 0f 11 04 24	 movsd	 QWORD PTR [esp], xmm0
  0003d	68 00 00 00 00	 push	 OFFSET ??_C@_01INIBCBCB@f@
  00042	ff 15 00 00 00
	00		 call	 DWORD PTR __imp__Py_BuildValue
  00048	83 c4 0c	 add	 esp, 12			; 0000000cH

; 4076 : }

  0004b	8b e5		 mov	 esp, ebp
  0004d	5d		 pop	 ebp
  0004e	c3		 ret	 0
?wndRenderTargetGetRenderDistance@@YAPAU_object@@PAU1@0@Z ENDP ; wndRenderTargetGetRenderDistance
_TEXT	ENDS
; Function compile flags: /Ogtp
; File C:\Users\flourine\Desktop\Xantios\client-src\Code\eterPythonLib\PythonWindowManagerModule.cpp
;	COMDAT ?wndRenderTargetSetRenderDistance@@YAPAU_object@@PAU1@0@Z
_TEXT	SEGMENT
_window$ = -8						; size = 4
_distance$ = -4						; size = 4
_self$ = 8						; size = 4
_args$ = 12						; size = 4
?wndRenderTargetSetRenderDistance@@YAPAU_object@@PAU1@0@Z PROC ; wndRenderTargetSetRenderDistance, COMDAT

; 4047 : {

  00000	55		 push	 ebp
  00001	8b ec		 mov	 ebp, esp
  00003	83 ec 08	 sub	 esp, 8

; 4048 : 	UI::CWindow* window;
; 4049 : 	float distance;
; 4050 : 
; 4051 : 	if (!PyTuple_GetWindow(args, 0, &window) ||

  00006	8d 45 f8	 lea	 eax, DWORD PTR _window$[ebp]
  00009	50		 push	 eax
  0000a	6a 00		 push	 0
  0000c	ff 75 0c	 push	 DWORD PTR _args$[ebp]
  0000f	e8 00 00 00 00	 call	 ?PyTuple_GetWindow@@YA_NPAU_object@@HPAPAVCWindow@UI@@@Z ; PyTuple_GetWindow
  00014	83 c4 0c	 add	 esp, 12			; 0000000cH
  00017	84 c0		 test	 al, al
  00019	74 31		 je	 SHORT $LN3@wndRenderT
  0001b	8d 45 fc	 lea	 eax, DWORD PTR _distance$[ebp]
  0001e	50		 push	 eax
  0001f	6a 01		 push	 1
  00021	ff 75 0c	 push	 DWORD PTR _args$[ebp]
  00024	e8 00 00 00 00	 call	 ?PyTuple_GetFloat@@YA_NPAU_object@@HPAM@Z ; PyTuple_GetFloat
  00029	83 c4 0c	 add	 esp, 12			; 0000000cH
  0002c	84 c0		 test	 al, al
  0002e	74 1c		 je	 SHORT $LN3@wndRenderT

; 4055 : 	}
; 4056 : 
; 4057 : 	auto renderTarget = static_cast<UI::CRenderTarget*>(window);
; 4058 : 	renderTarget->SetRenderDistance(distance);

  00030	f3 0f 10 45 fc	 movss	 xmm0, DWORD PTR _distance$[ebp]
  00035	51		 push	 ecx
  00036	8b 4d f8	 mov	 ecx, DWORD PTR _window$[ebp]
  00039	f3 0f 11 04 24	 movss	 DWORD PTR [esp], xmm0
  0003e	e8 00 00 00 00	 call	 ?SetRenderDistance@CRenderTarget@UI@@QAEXM@Z ; UI::CRenderTarget::SetRenderDistance

; 4059 : 
; 4060 : 	return Py_BuildNone();

  00043	e8 00 00 00 00	 call	 ?Py_BuildNone@@YAPAU_object@@XZ ; Py_BuildNone

; 4061 : }

  00048	8b e5		 mov	 esp, ebp
  0004a	5d		 pop	 ebp
  0004b	c3		 ret	 0
$LN3@wndRenderT:

; 4052 : 			!PyTuple_GetFloat(args, 1, &distance))
; 4053 : 	{
; 4054 : 		return Py_BadArgument();

  0004c	e8 00 00 00 00	 call	 ?Py_BadArgument@@YAPAU_object@@XZ ; Py_BadArgument

; 4061 : }

  00051	8b e5		 mov	 esp, ebp
  00053	5d		 pop	 ebp
  00054	c3		 ret	 0
?wndRenderTargetSetRenderDistance@@YAPAU_object@@PAU1@0@Z ENDP ; wndRenderTargetSetRenderDistance
_TEXT	ENDS
; Function compile flags: /Ogtp
; File C:\Users\flourine\Desktop\Xantios\client-src\Code\eterPythonLib\PythonWindowManagerModule.cpp
;	COMDAT ?wndRenderTargetSetRendererMotion@@YAPAU_object@@PAU1@0@Z
_TEXT	SEGMENT
_window$ = -8						; size = 4
_vnum$ = -4						; size = 4
_self$ = 8						; size = 4
_args$ = 12						; size = 4
?wndRenderTargetSetRendererMotion@@YAPAU_object@@PAU1@0@Z PROC ; wndRenderTargetSetRendererMotion, COMDAT

; 4030 : {

  00000	55		 push	 ebp
  00001	8b ec		 mov	 ebp, esp
  00003	83 ec 08	 sub	 esp, 8

; 4031 : 	UI::CWindow* window;
; 4032 : 	int32_t vnum;
; 4033 : 
; 4034 : 	if (!PyTuple_GetWindow(args, 0, &window) ||

  00006	8d 45 f8	 lea	 eax, DWORD PTR _window$[ebp]
  00009	50		 push	 eax
  0000a	6a 00		 push	 0
  0000c	ff 75 0c	 push	 DWORD PTR _args$[ebp]
  0000f	e8 00 00 00 00	 call	 ?PyTuple_GetWindow@@YA_NPAU_object@@HPAPAVCWindow@UI@@@Z ; PyTuple_GetWindow
  00014	83 c4 0c	 add	 esp, 12			; 0000000cH
  00017	84 c0		 test	 al, al
  00019	74 29		 je	 SHORT $LN3@wndRenderT
  0001b	8d 45 fc	 lea	 eax, DWORD PTR _vnum$[ebp]
  0001e	50		 push	 eax
  0001f	6a 01		 push	 1
  00021	ff 75 0c	 push	 DWORD PTR _args$[ebp]
  00024	e8 00 00 00 00	 call	 ?PyTuple_GetInteger@@YA_NPAU_object@@HPAH@Z ; PyTuple_GetInteger
  00029	83 c4 0c	 add	 esp, 12			; 0000000cH
  0002c	84 c0		 test	 al, al
  0002e	74 14		 je	 SHORT $LN3@wndRenderT

; 4038 : 	}
; 4039 : 
; 4040 : 	auto renderTarget = static_cast<UI::CRenderTarget*>(window);
; 4041 : 	renderTarget->SetRendererMotion(vnum);

  00030	ff 75 fc	 push	 DWORD PTR _vnum$[ebp]
  00033	8b 4d f8	 mov	 ecx, DWORD PTR _window$[ebp]
  00036	e8 00 00 00 00	 call	 ?SetRendererMotion@CRenderTarget@UI@@QAEXI@Z ; UI::CRenderTarget::SetRendererMotion

; 4042 : 
; 4043 : 	return Py_BuildNone();

  0003b	e8 00 00 00 00	 call	 ?Py_BuildNone@@YAPAU_object@@XZ ; Py_BuildNone

; 4044 : }

  00040	8b e5		 mov	 esp, ebp
  00042	5d		 pop	 ebp
  00043	c3		 ret	 0
$LN3@wndRenderT:

; 4035 : 		!PyTuple_GetInteger(args, 1, &vnum))
; 4036 : 	{
; 4037 : 		return Py_BadArgument();

  00044	e8 00 00 00 00	 call	 ?Py_BadArgument@@YAPAU_object@@XZ ; Py_BadArgument

; 4044 : }

  00049	8b e5		 mov	 esp, ebp
  0004b	5d		 pop	 ebp
  0004c	c3		 ret	 0
?wndRenderTargetSetRendererMotion@@YAPAU_object@@PAU1@0@Z ENDP ; wndRenderTargetSetRendererMotion
_TEXT	ENDS
; Function compile flags: /Ogtp
; File C:\Users\flourine\Desktop\Xantios\client-src\Code\eterPythonLib\PythonWindowManagerModule.cpp
;	COMDAT ?wndRenderTargetSetRenderSash@@YAPAU_object@@PAU1@0@Z
_TEXT	SEGMENT
_window$ = -8						; size = 4
_vnum$ = -4						; size = 4
_self$ = 8						; size = 4
_args$ = 12						; size = 4
?wndRenderTargetSetRenderSash@@YAPAU_object@@PAU1@0@Z PROC ; wndRenderTargetSetRenderSash, COMDAT

; 3986 : {

  00000	55		 push	 ebp
  00001	8b ec		 mov	 ebp, esp
  00003	83 ec 08	 sub	 esp, 8

; 3987 : 	UI::CWindow* window;
; 3988 : 	int32_t vnum;
; 3989 : 
; 3990 : 	if (!PyTuple_GetWindow(args, 0, &window) ||

  00006	8d 45 f8	 lea	 eax, DWORD PTR _window$[ebp]
  00009	50		 push	 eax
  0000a	6a 00		 push	 0
  0000c	ff 75 0c	 push	 DWORD PTR _args$[ebp]
  0000f	e8 00 00 00 00	 call	 ?PyTuple_GetWindow@@YA_NPAU_object@@HPAPAVCWindow@UI@@@Z ; PyTuple_GetWindow
  00014	83 c4 0c	 add	 esp, 12			; 0000000cH
  00017	84 c0		 test	 al, al
  00019	74 29		 je	 SHORT $LN3@wndRenderT
  0001b	8d 45 fc	 lea	 eax, DWORD PTR _vnum$[ebp]
  0001e	50		 push	 eax
  0001f	6a 01		 push	 1
  00021	ff 75 0c	 push	 DWORD PTR _args$[ebp]
  00024	e8 00 00 00 00	 call	 ?PyTuple_GetInteger@@YA_NPAU_object@@HPAH@Z ; PyTuple_GetInteger
  00029	83 c4 0c	 add	 esp, 12			; 0000000cH
  0002c	84 c0		 test	 al, al
  0002e	74 14		 je	 SHORT $LN3@wndRenderT

; 3994 : 	}
; 3995 : 
; 3996 : 	auto renderTarget = static_cast<UI::CRenderTarget*>(window);
; 3997 : 	renderTarget->SetRenderSash(vnum);

  00030	ff 75 fc	 push	 DWORD PTR _vnum$[ebp]
  00033	8b 4d f8	 mov	 ecx, DWORD PTR _window$[ebp]
  00036	e8 00 00 00 00	 call	 ?SetRenderSash@CRenderTarget@UI@@QAEXI@Z ; UI::CRenderTarget::SetRenderSash

; 3998 : 
; 3999 : 	return Py_BuildNone();

  0003b	e8 00 00 00 00	 call	 ?Py_BuildNone@@YAPAU_object@@XZ ; Py_BuildNone

; 4000 : }

  00040	8b e5		 mov	 esp, ebp
  00042	5d		 pop	 ebp
  00043	c3		 ret	 0
$LN3@wndRenderT:

; 3991 : 			!PyTuple_GetInteger(args, 1, &vnum))
; 3992 : 	{
; 3993 : 		return Py_BadArgument();

  00044	e8 00 00 00 00	 call	 ?Py_BadArgument@@YAPAU_object@@XZ ; Py_BadArgument

; 4000 : }

  00049	8b e5		 mov	 esp, ebp
  0004b	5d		 pop	 ebp
  0004c	c3		 ret	 0
?wndRenderTargetSetRenderSash@@YAPAU_object@@PAU1@0@Z ENDP ; wndRenderTargetSetRenderSash
_TEXT	ENDS
; Function compile flags: /Ogtp
; File C:\Users\flourine\Desktop\Xantios\client-src\Code\eterPythonLib\PythonWindowManagerModule.cpp
;	COMDAT ?wndRenderTargetSetRenderWeapon@@YAPAU_object@@PAU1@0@Z
_TEXT	SEGMENT
_window$ = -8						; size = 4
_vnum$ = -4						; size = 4
_self$ = 8						; size = 4
_args$ = 12						; size = 4
?wndRenderTargetSetRenderWeapon@@YAPAU_object@@PAU1@0@Z PROC ; wndRenderTargetSetRenderWeapon, COMDAT

; 3968 : {

  00000	55		 push	 ebp
  00001	8b ec		 mov	 ebp, esp
  00003	83 ec 08	 sub	 esp, 8

; 3969 : 	UI::CWindow* window;
; 3970 : 	int32_t vnum;
; 3971 : 
; 3972 : 	if (!PyTuple_GetWindow(args, 0, &window) ||

  00006	8d 45 f8	 lea	 eax, DWORD PTR _window$[ebp]
  00009	50		 push	 eax
  0000a	6a 00		 push	 0
  0000c	ff 75 0c	 push	 DWORD PTR _args$[ebp]
  0000f	e8 00 00 00 00	 call	 ?PyTuple_GetWindow@@YA_NPAU_object@@HPAPAVCWindow@UI@@@Z ; PyTuple_GetWindow
  00014	83 c4 0c	 add	 esp, 12			; 0000000cH
  00017	84 c0		 test	 al, al
  00019	74 29		 je	 SHORT $LN3@wndRenderT
  0001b	8d 45 fc	 lea	 eax, DWORD PTR _vnum$[ebp]
  0001e	50		 push	 eax
  0001f	6a 01		 push	 1
  00021	ff 75 0c	 push	 DWORD PTR _args$[ebp]
  00024	e8 00 00 00 00	 call	 ?PyTuple_GetInteger@@YA_NPAU_object@@HPAH@Z ; PyTuple_GetInteger
  00029	83 c4 0c	 add	 esp, 12			; 0000000cH
  0002c	84 c0		 test	 al, al
  0002e	74 14		 je	 SHORT $LN3@wndRenderT

; 3976 : 	}
; 3977 : 
; 3978 : 	auto renderTarget = static_cast<UI::CRenderTarget*>(window);
; 3979 : 	renderTarget->SetRenderWeapon(vnum);

  00030	ff 75 fc	 push	 DWORD PTR _vnum$[ebp]
  00033	8b 4d f8	 mov	 ecx, DWORD PTR _window$[ebp]
  00036	e8 00 00 00 00	 call	 ?SetRenderWeapon@CRenderTarget@UI@@QAEXI@Z ; UI::CRenderTarget::SetRenderWeapon

; 3980 : 
; 3981 : 	return Py_BuildNone();

  0003b	e8 00 00 00 00	 call	 ?Py_BuildNone@@YAPAU_object@@XZ ; Py_BuildNone

; 3982 : }

  00040	8b e5		 mov	 esp, ebp
  00042	5d		 pop	 ebp
  00043	c3		 ret	 0
$LN3@wndRenderT:

; 3973 : 			!PyTuple_GetInteger(args, 1, &vnum))
; 3974 : 	{
; 3975 : 		return Py_BadArgument();

  00044	e8 00 00 00 00	 call	 ?Py_BadArgument@@YAPAU_object@@XZ ; Py_BadArgument

; 3982 : }

  00049	8b e5		 mov	 esp, ebp
  0004b	5d		 pop	 ebp
  0004c	c3		 ret	 0
?wndRenderTargetSetRenderWeapon@@YAPAU_object@@PAU1@0@Z ENDP ; wndRenderTargetSetRenderWeapon
_TEXT	ENDS
; Function compile flags: /Ogtp
; File C:\Users\flourine\Desktop\Xantios\client-src\Code\eterPythonLib\PythonWindowManagerModule.cpp
;	COMDAT ?wndRenderTargetSetRenderArmor@@YAPAU_object@@PAU1@0@Z
_TEXT	SEGMENT
_window$ = -8						; size = 4
_vnum$ = -4						; size = 4
_self$ = 8						; size = 4
_args$ = 12						; size = 4
?wndRenderTargetSetRenderArmor@@YAPAU_object@@PAU1@0@Z PROC ; wndRenderTargetSetRenderArmor, COMDAT

; 3951 : {

  00000	55		 push	 ebp
  00001	8b ec		 mov	 ebp, esp
  00003	83 ec 08	 sub	 esp, 8

; 3952 : 	UI::CWindow* window;
; 3953 : 	int32_t vnum;
; 3954 : 
; 3955 : 	if (!PyTuple_GetWindow(args, 0, &window) ||

  00006	8d 45 f8	 lea	 eax, DWORD PTR _window$[ebp]
  00009	50		 push	 eax
  0000a	6a 00		 push	 0
  0000c	ff 75 0c	 push	 DWORD PTR _args$[ebp]
  0000f	e8 00 00 00 00	 call	 ?PyTuple_GetWindow@@YA_NPAU_object@@HPAPAVCWindow@UI@@@Z ; PyTuple_GetWindow
  00014	83 c4 0c	 add	 esp, 12			; 0000000cH
  00017	84 c0		 test	 al, al
  00019	74 29		 je	 SHORT $LN3@wndRenderT
  0001b	8d 45 fc	 lea	 eax, DWORD PTR _vnum$[ebp]
  0001e	50		 push	 eax
  0001f	6a 01		 push	 1
  00021	ff 75 0c	 push	 DWORD PTR _args$[ebp]
  00024	e8 00 00 00 00	 call	 ?PyTuple_GetInteger@@YA_NPAU_object@@HPAH@Z ; PyTuple_GetInteger
  00029	83 c4 0c	 add	 esp, 12			; 0000000cH
  0002c	84 c0		 test	 al, al
  0002e	74 14		 je	 SHORT $LN3@wndRenderT

; 3959 : 	}
; 3960 : 
; 3961 : 	auto renderTarget = static_cast<UI::CRenderTarget*>(window);
; 3962 : 	renderTarget->SetRenderArmor(vnum);

  00030	ff 75 fc	 push	 DWORD PTR _vnum$[ebp]
  00033	8b 4d f8	 mov	 ecx, DWORD PTR _window$[ebp]
  00036	e8 00 00 00 00	 call	 ?SetRenderArmor@CRenderTarget@UI@@QAEXI@Z ; UI::CRenderTarget::SetRenderArmor

; 3963 : 
; 3964 : 	return Py_BuildNone();

  0003b	e8 00 00 00 00	 call	 ?Py_BuildNone@@YAPAU_object@@XZ ; Py_BuildNone

; 3965 : }

  00040	8b e5		 mov	 esp, ebp
  00042	5d		 pop	 ebp
  00043	c3		 ret	 0
$LN3@wndRenderT:

; 3956 : 			!PyTuple_GetInteger(args, 1, &vnum))
; 3957 : 	{
; 3958 : 		return Py_BadArgument();

  00044	e8 00 00 00 00	 call	 ?Py_BadArgument@@YAPAU_object@@XZ ; Py_BadArgument

; 3965 : }

  00049	8b e5		 mov	 esp, ebp
  0004b	5d		 pop	 ebp
  0004c	c3		 ret	 0
?wndRenderTargetSetRenderArmor@@YAPAU_object@@PAU1@0@Z ENDP ; wndRenderTargetSetRenderArmor
_TEXT	ENDS
; Function compile flags: /Ogtp
; File C:\Users\flourine\Desktop\Xantios\client-src\Code\eterPythonLib\PythonWindowManagerModule.cpp
;	COMDAT ?wndRenderTargetSetRenderHair@@YAPAU_object@@PAU1@0@Z
_TEXT	SEGMENT
_window$ = -8						; size = 4
_vnum$ = -4						; size = 4
_self$ = 8						; size = 4
_args$ = 12						; size = 4
?wndRenderTargetSetRenderHair@@YAPAU_object@@PAU1@0@Z PROC ; wndRenderTargetSetRenderHair, COMDAT

; 3934 : {

  00000	55		 push	 ebp
  00001	8b ec		 mov	 ebp, esp
  00003	83 ec 08	 sub	 esp, 8

; 3935 : 	UI::CWindow* window;
; 3936 : 	int32_t vnum;
; 3937 : 
; 3938 : 	if (!PyTuple_GetWindow(args, 0, &window) ||

  00006	8d 45 f8	 lea	 eax, DWORD PTR _window$[ebp]
  00009	50		 push	 eax
  0000a	6a 00		 push	 0
  0000c	ff 75 0c	 push	 DWORD PTR _args$[ebp]
  0000f	e8 00 00 00 00	 call	 ?PyTuple_GetWindow@@YA_NPAU_object@@HPAPAVCWindow@UI@@@Z ; PyTuple_GetWindow
  00014	83 c4 0c	 add	 esp, 12			; 0000000cH
  00017	84 c0		 test	 al, al
  00019	74 29		 je	 SHORT $LN3@wndRenderT
  0001b	8d 45 fc	 lea	 eax, DWORD PTR _vnum$[ebp]
  0001e	50		 push	 eax
  0001f	6a 01		 push	 1
  00021	ff 75 0c	 push	 DWORD PTR _args$[ebp]
  00024	e8 00 00 00 00	 call	 ?PyTuple_GetInteger@@YA_NPAU_object@@HPAH@Z ; PyTuple_GetInteger
  00029	83 c4 0c	 add	 esp, 12			; 0000000cH
  0002c	84 c0		 test	 al, al
  0002e	74 14		 je	 SHORT $LN3@wndRenderT

; 3942 : 	}
; 3943 : 
; 3944 : 	auto renderTarget = static_cast<UI::CRenderTarget*>(window);
; 3945 : 	renderTarget->SetRenderHair(vnum);

  00030	ff 75 fc	 push	 DWORD PTR _vnum$[ebp]
  00033	8b 4d f8	 mov	 ecx, DWORD PTR _window$[ebp]
  00036	e8 00 00 00 00	 call	 ?SetRenderHair@CRenderTarget@UI@@QAEXI@Z ; UI::CRenderTarget::SetRenderHair

; 3946 : 
; 3947 : 	return Py_BuildNone();

  0003b	e8 00 00 00 00	 call	 ?Py_BuildNone@@YAPAU_object@@XZ ; Py_BuildNone

; 3948 : }

  00040	8b e5		 mov	 esp, ebp
  00042	5d		 pop	 ebp
  00043	c3		 ret	 0
$LN3@wndRenderT:

; 3939 : 			!PyTuple_GetInteger(args, 1, &vnum))
; 3940 : 	{
; 3941 : 		return Py_BadArgument();

  00044	e8 00 00 00 00	 call	 ?Py_BadArgument@@YAPAU_object@@XZ ; Py_BadArgument

; 3948 : }

  00049	8b e5		 mov	 esp, ebp
  0004b	5d		 pop	 ebp
  0004c	c3		 ret	 0
?wndRenderTargetSetRenderHair@@YAPAU_object@@PAU1@0@Z ENDP ; wndRenderTargetSetRenderHair
_TEXT	ENDS
; Function compile flags: /Ogtp
; File C:\Users\flourine\Desktop\Xantios\client-src\Code\eterPythonLib\PythonWindowManagerModule.cpp
;	COMDAT ?wndRenderTargetSetRenderTarget@@YAPAU_object@@PAU1@0@Z
_TEXT	SEGMENT
_window$ = -8						; size = 4
_race$ = -4						; size = 4
_self$ = 8						; size = 4
_args$ = 12						; size = 4
?wndRenderTargetSetRenderTarget@@YAPAU_object@@PAU1@0@Z PROC ; wndRenderTargetSetRenderTarget, COMDAT

; 3917 : {

  00000	55		 push	 ebp
  00001	8b ec		 mov	 ebp, esp
  00003	83 ec 08	 sub	 esp, 8

; 3918 : 	UI::CWindow* window;
; 3919 : 	int32_t race;
; 3920 : 
; 3921 : 	if (!PyTuple_GetWindow(args, 0, &window) ||

  00006	8d 45 f8	 lea	 eax, DWORD PTR _window$[ebp]
  00009	50		 push	 eax
  0000a	6a 00		 push	 0
  0000c	ff 75 0c	 push	 DWORD PTR _args$[ebp]
  0000f	e8 00 00 00 00	 call	 ?PyTuple_GetWindow@@YA_NPAU_object@@HPAPAVCWindow@UI@@@Z ; PyTuple_GetWindow
  00014	83 c4 0c	 add	 esp, 12			; 0000000cH
  00017	84 c0		 test	 al, al
  00019	74 29		 je	 SHORT $LN3@wndRenderT
  0001b	8d 45 fc	 lea	 eax, DWORD PTR _race$[ebp]
  0001e	50		 push	 eax
  0001f	6a 01		 push	 1
  00021	ff 75 0c	 push	 DWORD PTR _args$[ebp]
  00024	e8 00 00 00 00	 call	 ?PyTuple_GetInteger@@YA_NPAU_object@@HPAH@Z ; PyTuple_GetInteger
  00029	83 c4 0c	 add	 esp, 12			; 0000000cH
  0002c	84 c0		 test	 al, al
  0002e	74 14		 je	 SHORT $LN3@wndRenderT

; 3925 : 	}
; 3926 : 
; 3927 : 	auto renderTarget = static_cast<UI::CRenderTarget*>(window);
; 3928 : 	renderTarget->SetRenderTarget(race);

  00030	ff 75 fc	 push	 DWORD PTR _race$[ebp]
  00033	8b 4d f8	 mov	 ecx, DWORD PTR _window$[ebp]
  00036	e8 00 00 00 00	 call	 ?SetRenderTarget@CRenderTarget@UI@@QAEXI@Z ; UI::CRenderTarget::SetRenderTarget

; 3929 : 
; 3930 : 	return Py_BuildNone();

  0003b	e8 00 00 00 00	 call	 ?Py_BuildNone@@YAPAU_object@@XZ ; Py_BuildNone

; 3931 : }

  00040	8b e5		 mov	 esp, ebp
  00042	5d		 pop	 ebp
  00043	c3		 ret	 0
$LN3@wndRenderT:

; 3922 : 			!PyTuple_GetInteger(args, 1, &race))
; 3923 : 	{
; 3924 : 		return Py_BadArgument();

  00044	e8 00 00 00 00	 call	 ?Py_BadArgument@@YAPAU_object@@XZ ; Py_BadArgument

; 3931 : }

  00049	8b e5		 mov	 esp, ebp
  0004b	5d		 pop	 ebp
  0004c	c3		 ret	 0
?wndRenderTargetSetRenderTarget@@YAPAU_object@@PAU1@0@Z ENDP ; wndRenderTargetSetRenderTarget
_TEXT	ENDS
; Function compile flags: /Ogtp
; File C:\Users\flourine\Desktop\Xantios\client-src\Code\eterPythonLib\PythonWindowManagerModule.cpp
;	COMDAT ?wndRenderTargetLoadImage@@YAPAU_object@@PAU1@0@Z
_TEXT	SEGMENT
_window$ = -8						; size = 4
_fileName$ = -4						; size = 4
_self$ = 8						; size = 4
_args$ = 12						; size = 4
?wndRenderTargetLoadImage@@YAPAU_object@@PAU1@0@Z PROC	; wndRenderTargetLoadImage, COMDAT

; 3896 : {

  00000	55		 push	 ebp
  00001	8b ec		 mov	 ebp, esp
  00003	83 ec 08	 sub	 esp, 8

; 3897 : 	UI::CWindow* window;
; 3898 : 	char* fileName;
; 3899 : 
; 3900 : 	if (!PyTuple_GetWindow(args, 0, &window) ||

  00006	8d 45 f8	 lea	 eax, DWORD PTR _window$[ebp]
  00009	50		 push	 eax
  0000a	6a 00		 push	 0
  0000c	ff 75 0c	 push	 DWORD PTR _args$[ebp]
  0000f	e8 00 00 00 00	 call	 ?PyTuple_GetWindow@@YA_NPAU_object@@HPAPAVCWindow@UI@@@Z ; PyTuple_GetWindow
  00014	83 c4 0c	 add	 esp, 12			; 0000000cH
  00017	84 c0		 test	 al, al
  00019	74 34		 je	 SHORT $LN3@wndRenderT
  0001b	8d 45 fc	 lea	 eax, DWORD PTR _fileName$[ebp]
  0001e	50		 push	 eax
  0001f	6a 01		 push	 1
  00021	ff 75 0c	 push	 DWORD PTR _args$[ebp]
  00024	e8 00 00 00 00	 call	 ?PyTuple_GetString@@YA_NPAU_object@@HPAPAD@Z ; PyTuple_GetString
  00029	83 c4 0c	 add	 esp, 12			; 0000000cH
  0002c	84 c0		 test	 al, al
  0002e	74 1f		 je	 SHORT $LN3@wndRenderT

; 3901 : 			!PyTuple_GetString(args, 1, &fileName))
; 3902 : 	{
; 3903 : 		return Py_BadArgument();
; 3904 : 	}
; 3905 : 
; 3906 : 	auto renderTarget = static_cast<UI::CRenderTarget*>(window);
; 3907 : 	if (!renderTarget->LoadImage(fileName))

  00030	ff 75 fc	 push	 DWORD PTR _fileName$[ebp]
  00033	8b 4d f8	 mov	 ecx, DWORD PTR _window$[ebp]
  00036	e8 00 00 00 00	 call	 ?LoadImageA@CImageBox@UI@@QAEHPBD@Z ; UI::CImageBox::LoadImageA
  0003b	85 c0		 test	 eax, eax
  0003d	75 19		 jne	 SHORT $LN4@wndRenderT

; 3908 : 	{
; 3909 : 		TraceError("Failed to load image: %s", fileName);

  0003f	ff 75 fc	 push	 DWORD PTR _fileName$[ebp]
  00042	68 00 00 00 00	 push	 OFFSET ??_C@_0BJ@DFGPKJEH@Failed?5to?5load?5image?3?5?$CFs@
  00047	e8 00 00 00 00	 call	 ?TraceError@@YAXPBDZZ	; TraceError
  0004c	83 c4 08	 add	 esp, 8
$LN3@wndRenderT:

; 3914 : }

  0004f	e8 00 00 00 00	 call	 ?Py_BadArgument@@YAPAU_object@@XZ ; Py_BadArgument
  00054	8b e5		 mov	 esp, ebp
  00056	5d		 pop	 ebp
  00057	c3		 ret	 0
$LN4@wndRenderT:

; 3910 : 		return Py_BadArgument();
; 3911 : 	}
; 3912 : 
; 3913 : 	return Py_BuildNone();

  00058	e8 00 00 00 00	 call	 ?Py_BuildNone@@YAPAU_object@@XZ ; Py_BuildNone

; 3914 : }

  0005d	8b e5		 mov	 esp, ebp
  0005f	5d		 pop	 ebp
  00060	c3		 ret	 0
?wndRenderTargetLoadImage@@YAPAU_object@@PAU1@0@Z ENDP	; wndRenderTargetLoadImage
_TEXT	ENDS
; Function compile flags: /Ogtp
; File C:\Users\flourine\Desktop\Xantios\client-src\Code\eterPythonLib\PythonWindowManagerModule.cpp
;	COMDAT ?wndMgrRegisterRenderTarget@@YAPAU_object@@PAU1@0@Z
_TEXT	SEGMENT
_po$ = -8						; size = 4
_layer$ = -4						; size = 4
_poSelf$ = 8						; size = 4
_poArgs$ = 12						; size = 4
?wndMgrRegisterRenderTarget@@YAPAU_object@@PAU1@0@Z PROC ; wndMgrRegisterRenderTarget, COMDAT

; 3881 : {

  00000	55		 push	 ebp
  00001	8b ec		 mov	 ebp, esp
  00003	83 ec 08	 sub	 esp, 8

; 3882 : 	PyObject* po;
; 3883 : 	char* layer;
; 3884 : 
; 3885 : 	if (!PyTuple_GetObject(poArgs, 0, &po) ||

  00006	8d 45 f8	 lea	 eax, DWORD PTR _po$[ebp]
  00009	50		 push	 eax
  0000a	6a 00		 push	 0
  0000c	ff 75 0c	 push	 DWORD PTR _poArgs$[ebp]
  0000f	e8 00 00 00 00	 call	 ?PyTuple_GetObject@@YA_NPAU_object@@HPAPAU1@@Z ; PyTuple_GetObject
  00014	83 c4 0c	 add	 esp, 12			; 0000000cH
  00017	84 c0		 test	 al, al
  00019	74 39		 je	 SHORT $LN3@wndMgrRegi
  0001b	8d 45 fc	 lea	 eax, DWORD PTR _layer$[ebp]
  0001e	50		 push	 eax
  0001f	6a 01		 push	 1
  00021	ff 75 0c	 push	 DWORD PTR _poArgs$[ebp]
  00024	e8 00 00 00 00	 call	 ?PyTuple_GetString@@YA_NPAU_object@@HPAPAD@Z ; PyTuple_GetString
  00029	83 c4 0c	 add	 esp, 12			; 0000000cH
  0002c	84 c0		 test	 al, al
  0002e	74 24		 je	 SHORT $LN3@wndMgrRegi

; 3889 : 	}
; 3890 : 
; 3891 : 	auto pWindow = UI::CWindowManager::Instance().RegisterRenderTarget(po, layer);

  00030	ff 75 fc	 push	 DWORD PTR _layer$[ebp]
  00033	8b 0d 00 00 00
	00		 mov	 ecx, DWORD PTR ?ms_singleton@?$CSingleton@VCWindowManager@UI@@@@0PAVCWindowManager@UI@@A ; CSingleton<UI::CWindowManager>::ms_singleton
  00039	ff 75 f8	 push	 DWORD PTR _po$[ebp]
  0003c	e8 00 00 00 00	 call	 ?RegisterRenderTarget@CWindowManager@UI@@QAEPAVCWindow@2@PAU_object@@PBD@Z ; UI::CWindowManager::RegisterRenderTarget

; 3892 : 	return Py_BuildValue("i", pWindow);

  00041	50		 push	 eax
  00042	68 00 00 00 00	 push	 OFFSET ??_C@_01KBJDNOO@i@
  00047	ff 15 00 00 00
	00		 call	 DWORD PTR __imp__Py_BuildValue
  0004d	83 c4 08	 add	 esp, 8

; 3893 : }

  00050	8b e5		 mov	 esp, ebp
  00052	5d		 pop	 ebp
  00053	c3		 ret	 0
$LN3@wndMgrRegi:

; 3886 : 			!PyTuple_GetString(poArgs, 1, &layer))
; 3887 : 	{
; 3888 : 		return Py_BadArgument();

  00054	e8 00 00 00 00	 call	 ?Py_BadArgument@@YAPAU_object@@XZ ; Py_BadArgument

; 3893 : }

  00059	8b e5		 mov	 esp, ebp
  0005b	5d		 pop	 ebp
  0005c	c3		 ret	 0
?wndMgrRegisterRenderTarget@@YAPAU_object@@PAU1@0@Z ENDP ; wndMgrRegisterRenderTarget
_TEXT	ENDS
; Function compile flags: /Ogtp
; File C:\Users\flourine\Desktop\Xantios\client-src\Code\eterPythonLib\PythonWindowManagerModule.cpp
; File C:\Users\flourine\Desktop\Xantios\client-src\Code\eterPythonLib\PythonWindow.h
; File C:\Users\flourine\Desktop\Xantios\client-src\Code\eterPythonLib\PythonWindowManagerModule.cpp
;	COMDAT ?wndImageUnloadImage@@YAPAU_object@@PAU1@0@Z
_TEXT	SEGMENT
_pWindow$ = -4						; size = 4
_poSelf$ = 8						; size = 4
_poArgs$ = 12						; size = 4
?wndImageUnloadImage@@YAPAU_object@@PAU1@0@Z PROC	; wndImageUnloadImage, COMDAT

; 3866 : {

  00000	55		 push	 ebp
  00001	8b ec		 mov	 ebp, esp
  00003	51		 push	 ecx

; 3867 : 	UI::CWindow* pWindow;
; 3868 : 	if (!PyTuple_GetWindow(poArgs, 0, &pWindow))

  00004	8d 45 fc	 lea	 eax, DWORD PTR _pWindow$[ebp]
  00007	50		 push	 eax
  00008	6a 00		 push	 0
  0000a	ff 75 0c	 push	 DWORD PTR _poArgs$[ebp]
  0000d	e8 00 00 00 00	 call	 ?PyTuple_GetWindow@@YA_NPAU_object@@HPAPAVCWindow@UI@@@Z ; PyTuple_GetWindow
  00012	83 c4 0c	 add	 esp, 12			; 0000000cH
  00015	84 c0		 test	 al, al
  00017	75 0e		 jne	 SHORT $LN2@wndImageUn

; 3869 : 	{
; 3870 : 		return Py_BuildException();

  00019	6a 00		 push	 0
  0001b	e8 00 00 00 00	 call	 ?Py_BuildException@@YAPAU_object@@PBDZZ ; Py_BuildException
  00020	83 c4 04	 add	 esp, 4

; 3875 : }

  00023	8b e5		 mov	 esp, ebp
  00025	5d		 pop	 ebp
  00026	c3		 ret	 0
$LN2@wndImageUn:
  00027	56		 push	 esi
  00028	57		 push	 edi
; File C:\Users\flourine\Desktop\Xantios\client-src\Code\eterPythonLib\PythonWindow.h

; 500  : 		OnDestroyInstance();

  00029	8b 7d fc	 mov	 edi, DWORD PTR _pWindow$[ebp]
  0002c	8b cf		 mov	 ecx, edi
  0002e	8b 07		 mov	 eax, DWORD PTR [edi]
  00030	ff 90 c8 00 00
	00		 call	 DWORD PTR [eax+200]

; 501  : 		SetSize(GetWidth(), GetHeight());

  00036	8b cf		 mov	 ecx, edi
  00038	e8 00 00 00 00	 call	 ?GetHeight@CImageBox@UI@@QAEHXZ ; UI::CImageBox::GetHeight
  0003d	8b cf		 mov	 ecx, edi
  0003f	8b f0		 mov	 esi, eax
  00041	e8 00 00 00 00	 call	 ?GetWidth@CImageBox@UI@@QAEHXZ ; UI::CImageBox::GetWidth
  00046	56		 push	 esi
  00047	50		 push	 eax
  00048	8b cf		 mov	 ecx, edi
  0004a	e8 00 00 00 00	 call	 ?SetSize@CWindow@UI@@QAEXJJ@Z ; UI::CWindow::SetSize

; 502  : 		UpdateRect();

  0004f	8b cf		 mov	 ecx, edi
  00051	e8 00 00 00 00	 call	 ?UpdateRect@CWindow@UI@@QAEJXZ ; UI::CWindow::UpdateRect
; File C:\Users\flourine\Desktop\Xantios\client-src\Code\eterPythonLib\PythonWindowManagerModule.cpp

; 3874 : 	return Py_BuildNone();

  00056	e8 00 00 00 00	 call	 ?Py_BuildNone@@YAPAU_object@@XZ ; Py_BuildNone
  0005b	5f		 pop	 edi
  0005c	5e		 pop	 esi

; 3875 : }

  0005d	8b e5		 mov	 esp, ebp
  0005f	5d		 pop	 ebp
  00060	c3		 ret	 0
?wndImageUnloadImage@@YAPAU_object@@PAU1@0@Z ENDP	; wndImageUnloadImage
_TEXT	ENDS
; Function compile flags: /Ogtp
; File C:\Users\flourine\Desktop\Xantios\client-src\Code\eterPythonLib\PythonWindowManagerModule.cpp
; File C:\Users\flourine\Desktop\Xantios\client-src\Code\eterPythonLib\PythonWindow.h
; File C:\Users\flourine\Desktop\Xantios\client-src\Code\eterlib\GrpTextInstance.h
; File C:\Users\flourine\Desktop\Xantios\client-src\Code\eterPythonLib\PythonWindowManagerModule.cpp
;	COMDAT ?wndTextGetRenderPos@@YAPAU_object@@PAU1@0@Z
_TEXT	SEGMENT
_pWindow$ = -4						; size = 4
_poSelf$ = 8						; size = 4
_poArgs$ = 12						; size = 4
?wndTextGetRenderPos@@YAPAU_object@@PAU1@0@Z PROC	; wndTextGetRenderPos, COMDAT

; 3853 : {

  00000	55		 push	 ebp
  00001	8b ec		 mov	 ebp, esp
  00003	51		 push	 ecx

; 3854 : 	UI::CWindow* pWindow;
; 3855 : 	if (!PyTuple_GetWindow(poArgs, 0, &pWindow))

  00004	8d 45 fc	 lea	 eax, DWORD PTR _pWindow$[ebp]
  00007	50		 push	 eax
  00008	6a 00		 push	 0
  0000a	ff 75 0c	 push	 DWORD PTR _poArgs$[ebp]
  0000d	e8 00 00 00 00	 call	 ?PyTuple_GetWindow@@YA_NPAU_object@@HPAPAVCWindow@UI@@@Z ; PyTuple_GetWindow
  00012	83 c4 0c	 add	 esp, 12			; 0000000cH
  00015	84 c0		 test	 al, al
  00017	75 0e		 jne	 SHORT $LN2@wndTextGet

; 3856 : 	{
; 3857 : 		return Py_BuildException();

  00019	6a 00		 push	 0
  0001b	e8 00 00 00 00	 call	 ?Py_BuildException@@YAPAU_object@@PBDZZ ; Py_BuildException
  00020	83 c4 04	 add	 esp, 4

; 3863 : }

  00023	8b e5		 mov	 esp, ebp
  00025	5d		 pop	 ebp
  00026	c3		 ret	 0
$LN2@wndTextGet:
; File C:\Users\flourine\Desktop\Xantios\client-src\Code\eterPythonLib\PythonWindow.h

; 402  : 	void GetRenderPositions(WORD& startPos, WORD& endPos) { m_TextInstance.GetRenderPositions(startPos, endPos); }

  00027	8b 45 fc	 mov	 eax, DWORD PTR _pWindow$[ebp]
; File C:\Users\flourine\Desktop\Xantios\client-src\Code\eterlib\GrpTextInstance.h

; 45   : 	void GetRenderPositions(WORD& startPos, WORD& endPos) { startPos = m_startPos; endPos = m_endPos; }

  0002a	0f b7 88 42 01
	00 00		 movzx	 ecx, WORD PTR [eax+322]
  00031	0f b7 80 44 01
	00 00		 movzx	 eax, WORD PTR [eax+324]
; File C:\Users\flourine\Desktop\Xantios\client-src\Code\eterPythonLib\PythonWindowManagerModule.cpp

; 3862 : 	return Py_BuildValue("ii", startPos, endPos);

  00038	50		 push	 eax
  00039	51		 push	 ecx
  0003a	68 00 00 00 00	 push	 OFFSET ??_C@_02PDIHAGKM@ii@
  0003f	ff 15 00 00 00
	00		 call	 DWORD PTR __imp__Py_BuildValue
  00045	83 c4 0c	 add	 esp, 12			; 0000000cH

; 3863 : }

  00048	8b e5		 mov	 esp, ebp
  0004a	5d		 pop	 ebp
  0004b	c3		 ret	 0
?wndTextGetRenderPos@@YAPAU_object@@PAU1@0@Z ENDP	; wndTextGetRenderPos
_TEXT	ENDS
; Function compile flags: /Ogtp
; File C:\Users\flourine\Desktop\Xantios\client-src\Code\eterPythonLib\PythonWindowManagerModule.cpp
; File C:\Users\flourine\Desktop\Xantios\client-src\Code\eterPythonLib\PythonWindow.h
; File C:\Users\flourine\Desktop\Xantios\client-src\Code\eterPythonLib\PythonWindowManagerModule.cpp
; File C:\Users\flourine\Desktop\Xantios\client-src\Code\eterlib\GrpTextInstance.h
; File C:\Users\flourine\Desktop\Xantios\client-src\Code\eterPythonLib\PythonWindowManagerModule.cpp
;	COMDAT ?wndTextSetFixedRenderPos@@YAPAU_object@@PAU1@0@Z
_TEXT	SEGMENT
_startPos$ = -12					; size = 4
_pWindow$ = -8						; size = 4
_endPos$ = -4						; size = 4
_poSelf$ = 8						; size = 4
_poArgs$ = 12						; size = 4
?wndTextSetFixedRenderPos@@YAPAU_object@@PAU1@0@Z PROC	; wndTextSetFixedRenderPos, COMDAT

; 3832 : {

  00000	55		 push	 ebp
  00001	8b ec		 mov	 ebp, esp
  00003	83 ec 0c	 sub	 esp, 12			; 0000000cH

; 3833 : 	UI::CWindow* pWindow;
; 3834 : 	if (!PyTuple_GetWindow(poArgs, 0, &pWindow))

  00006	8d 45 f8	 lea	 eax, DWORD PTR _pWindow$[ebp]
  00009	56		 push	 esi
  0000a	8b 75 0c	 mov	 esi, DWORD PTR _poArgs$[ebp]
  0000d	50		 push	 eax
  0000e	6a 00		 push	 0
  00010	56		 push	 esi
  00011	e8 00 00 00 00	 call	 ?PyTuple_GetWindow@@YA_NPAU_object@@HPAPAVCWindow@UI@@@Z ; PyTuple_GetWindow
  00016	83 c4 0c	 add	 esp, 12			; 0000000cH
  00019	84 c0		 test	 al, al
  0001b	75 0f		 jne	 SHORT $LN2@wndTextSet
$LN10@wndTextSet:

; 3850 : }

  0001d	6a 00		 push	 0
  0001f	e8 00 00 00 00	 call	 ?Py_BuildException@@YAPAU_object@@PBDZZ ; Py_BuildException
  00024	83 c4 04	 add	 esp, 4
  00027	5e		 pop	 esi
  00028	8b e5		 mov	 esp, ebp
  0002a	5d		 pop	 ebp
  0002b	c3		 ret	 0
$LN2@wndTextSet:

; 3835 : 	{
; 3836 : 		return Py_BuildException();
; 3837 : 	}
; 3838 : 	int startPos, endPos;
; 3839 : 	if (!PyTuple_GetInteger(poArgs, 1, &startPos))

  0002c	8d 45 f4	 lea	 eax, DWORD PTR _startPos$[ebp]
  0002f	50		 push	 eax
  00030	6a 01		 push	 1
  00032	56		 push	 esi
  00033	e8 00 00 00 00	 call	 ?PyTuple_GetInteger@@YA_NPAU_object@@HPAH@Z ; PyTuple_GetInteger
  00038	83 c4 0c	 add	 esp, 12			; 0000000cH
  0003b	84 c0		 test	 al, al
  0003d	74 de		 je	 SHORT $LN10@wndTextSet

; 3840 : 	{
; 3841 : 		return Py_BuildException();
; 3842 : 	}
; 3843 : 	if (!PyTuple_GetInteger(poArgs, 2, &endPos))

  0003f	8d 45 fc	 lea	 eax, DWORD PTR _endPos$[ebp]
  00042	50		 push	 eax
  00043	6a 02		 push	 2
  00045	56		 push	 esi
  00046	e8 00 00 00 00	 call	 ?PyTuple_GetInteger@@YA_NPAU_object@@HPAH@Z ; PyTuple_GetInteger
  0004b	83 c4 0c	 add	 esp, 12			; 0000000cH
  0004e	84 c0		 test	 al, al
  00050	74 cb		 je	 SHORT $LN10@wndTextSet
; File C:\Users\flourine\Desktop\Xantios\client-src\Code\eterPythonLib\PythonWindow.h

; 401  : 	void SetFixedRenderPos(WORD startPos, WORD endPos) { m_TextInstance.SetFixedRenderPos(startPos, endPos); }

  00052	8b 55 f8	 mov	 edx, DWORD PTR _pWindow$[ebp]
; File C:\Users\flourine\Desktop\Xantios\client-src\Code\eterPythonLib\PythonWindowManagerModule.cpp

; 3848 : 	((UI::CTextLine*)pWindow)->SetFixedRenderPos(startPos, endPos);

  00055	0f b7 4d fc	 movzx	 ecx, WORD PTR _endPos$[ebp]
; File C:\Users\flourine\Desktop\Xantios\client-src\Code\eterlib\GrpTextInstance.h

; 44   : 	void SetFixedRenderPos(WORD startPos, WORD endPos) { m_startPos = startPos; m_endPos = endPos; m_isFixedRenderPos = true; }

  00059	66 8b 45 f4	 mov	 ax, WORD PTR _startPos$[ebp]
  0005d	66 89 82 42 01
	00 00		 mov	 WORD PTR [edx+322], ax
  00064	66 89 8a 44 01
	00 00		 mov	 WORD PTR [edx+324], cx
  0006b	c6 82 46 01 00
	00 01		 mov	 BYTE PTR [edx+326], 1
; File C:\Users\flourine\Desktop\Xantios\client-src\Code\eterPythonLib\PythonWindowManagerModule.cpp

; 3849 : 	return Py_BuildNone();

  00072	e8 00 00 00 00	 call	 ?Py_BuildNone@@YAPAU_object@@XZ ; Py_BuildNone
  00077	5e		 pop	 esi

; 3850 : }

  00078	8b e5		 mov	 esp, ebp
  0007a	5d		 pop	 ebp
  0007b	c3		 ret	 0
?wndTextSetFixedRenderPos@@YAPAU_object@@PAU1@0@Z ENDP	; wndTextSetFixedRenderPos
_TEXT	ENDS
; Function compile flags: /Ogtp
; File C:\Users\flourine\Desktop\Xantios\client-src\Code\eterPythonLib\PythonWindowManagerModule.cpp
;	COMDAT ?wndMgrSetWikiRenderTarget@@YAPAU_object@@PAU1@0@Z
_TEXT	SEGMENT
_pWin$ = -8						; size = 4
_renderWindow$ = -4					; size = 4
_poSelf$ = 8						; size = 4
_poArgs$ = 12						; size = 4
?wndMgrSetWikiRenderTarget@@YAPAU_object@@PAU1@0@Z PROC	; wndMgrSetWikiRenderTarget, COMDAT

; 3814 : {

  00000	55		 push	 ebp
  00001	8b ec		 mov	 ebp, esp
  00003	83 ec 08	 sub	 esp, 8

; 3815 : 	UI::CWindow* pWin;
; 3816 : 	if (!PyTuple_GetWindow(poArgs, 0, &pWin))

  00006	8d 45 f8	 lea	 eax, DWORD PTR _pWin$[ebp]
  00009	50		 push	 eax
  0000a	6a 00		 push	 0
  0000c	ff 75 0c	 push	 DWORD PTR _poArgs$[ebp]
  0000f	e8 00 00 00 00	 call	 ?PyTuple_GetWindow@@YA_NPAU_object@@HPAPAVCWindow@UI@@@Z ; PyTuple_GetWindow
  00014	83 c4 0c	 add	 esp, 12			; 0000000cH
  00017	84 c0		 test	 al, al
  00019	75 0e		 jne	 SHORT $LN2@wndMgrSetW
$LN5@wndMgrSetW:

; 3829 : }

  0001b	6a 00		 push	 0
  0001d	e8 00 00 00 00	 call	 ?Py_BuildException@@YAPAU_object@@PBDZZ ; Py_BuildException
  00022	83 c4 04	 add	 esp, 4
  00025	8b e5		 mov	 esp, ebp
  00027	5d		 pop	 ebp
  00028	c3		 ret	 0
$LN2@wndMgrSetW:

; 3817 : 	{
; 3818 : 		return Py_BuildException();
; 3819 : 	}
; 3820 : 
; 3821 : 	int renderWindow = -1;
; 3822 : 	if (!PyTuple_GetInteger(poArgs, 1, &renderWindow))

  00029	8d 45 fc	 lea	 eax, DWORD PTR _renderWindow$[ebp]
  0002c	c7 45 fc ff ff
	ff ff		 mov	 DWORD PTR _renderWindow$[ebp], -1
  00033	50		 push	 eax
  00034	6a 01		 push	 1
  00036	ff 75 0c	 push	 DWORD PTR _poArgs$[ebp]
  00039	e8 00 00 00 00	 call	 ?PyTuple_GetInteger@@YA_NPAU_object@@HPAH@Z ; PyTuple_GetInteger
  0003e	83 c4 0c	 add	 esp, 12			; 0000000cH
  00041	84 c0		 test	 al, al
  00043	74 d6		 je	 SHORT $LN5@wndMgrSetW

; 3823 : 	{
; 3824 : 		return Py_BuildException();
; 3825 : 	}
; 3826 : 
; 3827 : 	((UI::CUiWikiRenderTarget*)pWin)->SetWikiRenderTargetModule(renderWindow);

  00045	ff 75 fc	 push	 DWORD PTR _renderWindow$[ebp]
  00048	8b 4d f8	 mov	 ecx, DWORD PTR _pWin$[ebp]
  0004b	e8 00 00 00 00	 call	 ?SetWikiRenderTargetModule@CUiWikiRenderTarget@UI@@QAE_NH@Z ; UI::CUiWikiRenderTarget::SetWikiRenderTargetModule

; 3828 : 	return Py_BuildNone();

  00050	e8 00 00 00 00	 call	 ?Py_BuildNone@@YAPAU_object@@XZ ; Py_BuildNone

; 3829 : }

  00055	8b e5		 mov	 esp, ebp
  00057	5d		 pop	 ebp
  00058	c3		 ret	 0
?wndMgrSetWikiRenderTarget@@YAPAU_object@@PAU1@0@Z ENDP	; wndMgrSetWikiRenderTarget
_TEXT	ENDS
; Function compile flags: /Ogtp
; File C:\Users\flourine\Desktop\Xantios\client-src\Code\eterPythonLib\PythonWindowManagerModule.cpp
;	COMDAT ?wndMgrGetRenderBox@@YAPAU_object@@PAU1@0@Z
_TEXT	SEGMENT
_pWin$ = -24						; size = 4
_val$ = -20						; size = 16
__$ArrayPad$ = -4					; size = 4
_poSelf$ = 8						; size = 4
_poArgs$ = 12						; size = 4
?wndMgrGetRenderBox@@YAPAU_object@@PAU1@0@Z PROC	; wndMgrGetRenderBox, COMDAT

; 3801 : {

  00000	55		 push	 ebp
  00001	8b ec		 mov	 ebp, esp
  00003	83 ec 18	 sub	 esp, 24			; 00000018H
  00006	a1 00 00 00 00	 mov	 eax, DWORD PTR ___security_cookie
  0000b	33 c5		 xor	 eax, ebp
  0000d	89 45 fc	 mov	 DWORD PTR __$ArrayPad$[ebp], eax
  00010	8b 45 0c	 mov	 eax, DWORD PTR _poArgs$[ebp]

; 3802 : 	UI::CWindow* pWin;
; 3803 : 	if (!PyTuple_GetWindow(poArgs, 0, &pWin))

  00013	8d 4d e8	 lea	 ecx, DWORD PTR _pWin$[ebp]
  00016	51		 push	 ecx
  00017	6a 00		 push	 0
  00019	50		 push	 eax
  0001a	e8 00 00 00 00	 call	 ?PyTuple_GetWindow@@YA_NPAU_object@@HPAPAVCWindow@UI@@@Z ; PyTuple_GetWindow
  0001f	83 c4 0c	 add	 esp, 12			; 0000000cH
  00022	84 c0		 test	 al, al
  00024	75 18		 jne	 SHORT $LN2@wndMgrGetR

; 3804 : 	{
; 3805 : 		return Py_BuildException();

  00026	6a 00		 push	 0
  00028	e8 00 00 00 00	 call	 ?Py_BuildException@@YAPAU_object@@PBDZZ ; Py_BuildException
  0002d	83 c4 04	 add	 esp, 4

; 3811 : }

  00030	8b 4d fc	 mov	 ecx, DWORD PTR __$ArrayPad$[ebp]
  00033	33 cd		 xor	 ecx, ebp
  00035	e8 00 00 00 00	 call	 @__security_check_cookie@4
  0003a	8b e5		 mov	 esp, ebp
  0003c	5d		 pop	 ebp
  0003d	c3		 ret	 0
$LN2@wndMgrGetR:

; 3806 : 	}
; 3807 : 
; 3808 : 	RECT val;
; 3809 : 	pWin->GetRenderBox(&val);

  0003e	8b 4d e8	 mov	 ecx, DWORD PTR _pWin$[ebp]
  00041	8d 45 ec	 lea	 eax, DWORD PTR _val$[ebp]
  00044	50		 push	 eax
  00045	e8 00 00 00 00	 call	 ?GetRenderBox@CWindow@UI@@QAEXPAUtagRECT@@@Z ; UI::CWindow::GetRenderBox

; 3810 : 	return Py_BuildValue("iiii", val.left, val.top, val.right, val.bottom);

  0004a	ff 75 f8	 push	 DWORD PTR _val$[ebp+12]
  0004d	ff 75 f4	 push	 DWORD PTR _val$[ebp+8]
  00050	ff 75 f0	 push	 DWORD PTR _val$[ebp+4]
  00053	ff 75 ec	 push	 DWORD PTR _val$[ebp]
  00056	68 00 00 00 00	 push	 OFFSET ??_C@_04BIOIIFBG@iiii@
  0005b	ff 15 00 00 00
	00		 call	 DWORD PTR __imp__Py_BuildValue

; 3811 : }

  00061	8b 4d fc	 mov	 ecx, DWORD PTR __$ArrayPad$[ebp]
  00064	83 c4 14	 add	 esp, 20			; 00000014H
  00067	33 cd		 xor	 ecx, ebp
  00069	e8 00 00 00 00	 call	 @__security_check_cookie@4
  0006e	8b e5		 mov	 esp, ebp
  00070	5d		 pop	 ebp
  00071	c3		 ret	 0
?wndMgrGetRenderBox@@YAPAU_object@@PAU1@0@Z ENDP	; wndMgrGetRenderBox
_TEXT	ENDS
; Function compile flags: /Ogtp
; File C:\Users\flourine\Desktop\Xantios\client-src\Code\eterPythonLib\PythonWindowManagerModule.cpp
;	COMDAT ?wndSetRenderingRect@@YAPAU_object@@PAU1@0@Z
_TEXT	SEGMENT
_pWindow$ = -20						; size = 4
_fLeft$ = -16						; size = 4
_fTop$ = -12						; size = 4
_fRight$ = -8						; size = 4
_fBottom$ = -4						; size = 4
_poSelf$ = 8						; size = 4
_poArgs$ = 12						; size = 4
?wndSetRenderingRect@@YAPAU_object@@PAU1@0@Z PROC	; wndSetRenderingRect, COMDAT

; 3761 : {

  00000	55		 push	 ebp
  00001	8b ec		 mov	 ebp, esp
  00003	83 ec 14	 sub	 esp, 20			; 00000014H

; 3762 : 	UI::CWindow* pWindow;
; 3763 : 	if (!PyTuple_GetWindow(poArgs, 0, &pWindow))

  00006	8d 45 ec	 lea	 eax, DWORD PTR _pWindow$[ebp]
  00009	56		 push	 esi
  0000a	8b 75 0c	 mov	 esi, DWORD PTR _poArgs$[ebp]
  0000d	50		 push	 eax
  0000e	6a 00		 push	 0
  00010	56		 push	 esi
  00011	e8 00 00 00 00	 call	 ?PyTuple_GetWindow@@YA_NPAU_object@@HPAPAVCWindow@UI@@@Z ; PyTuple_GetWindow
  00016	83 c4 0c	 add	 esp, 12			; 0000000cH
  00019	84 c0		 test	 al, al
  0001b	75 0f		 jne	 SHORT $LN2@wndSetRend
$LN16@wndSetRend:

; 3798 : }

  0001d	6a 00		 push	 0
  0001f	e8 00 00 00 00	 call	 ?Py_BuildException@@YAPAU_object@@PBDZZ ; Py_BuildException
  00024	83 c4 04	 add	 esp, 4
  00027	5e		 pop	 esi
  00028	8b e5		 mov	 esp, ebp
  0002a	5d		 pop	 ebp
  0002b	c3		 ret	 0
$LN2@wndSetRend:

; 3764 : 	{
; 3765 : 		return Py_BuildException();
; 3766 : 	}
; 3767 : 	float fLeft;
; 3768 : 	if (!PyTuple_GetFloat(poArgs, 1, &fLeft))

  0002c	8d 45 f0	 lea	 eax, DWORD PTR _fLeft$[ebp]
  0002f	50		 push	 eax
  00030	6a 01		 push	 1
  00032	56		 push	 esi
  00033	e8 00 00 00 00	 call	 ?PyTuple_GetFloat@@YA_NPAU_object@@HPAM@Z ; PyTuple_GetFloat
  00038	83 c4 0c	 add	 esp, 12			; 0000000cH
  0003b	84 c0		 test	 al, al
  0003d	74 de		 je	 SHORT $LN16@wndSetRend

; 3769 : 	{
; 3770 : 		return Py_BuildException();
; 3771 : 	}
; 3772 : 	float fTop;
; 3773 : 	if (!PyTuple_GetFloat(poArgs, 2, &fTop))

  0003f	8d 45 f4	 lea	 eax, DWORD PTR _fTop$[ebp]
  00042	50		 push	 eax
  00043	6a 02		 push	 2
  00045	56		 push	 esi
  00046	e8 00 00 00 00	 call	 ?PyTuple_GetFloat@@YA_NPAU_object@@HPAM@Z ; PyTuple_GetFloat
  0004b	83 c4 0c	 add	 esp, 12			; 0000000cH
  0004e	84 c0		 test	 al, al
  00050	74 cb		 je	 SHORT $LN16@wndSetRend

; 3774 : 	{
; 3775 : 		return Py_BuildException();
; 3776 : 	}
; 3777 : 	float fRight;
; 3778 : 	if (!PyTuple_GetFloat(poArgs, 3, &fRight))

  00052	8d 45 f8	 lea	 eax, DWORD PTR _fRight$[ebp]
  00055	50		 push	 eax
  00056	6a 03		 push	 3
  00058	56		 push	 esi
  00059	e8 00 00 00 00	 call	 ?PyTuple_GetFloat@@YA_NPAU_object@@HPAM@Z ; PyTuple_GetFloat
  0005e	83 c4 0c	 add	 esp, 12			; 0000000cH
  00061	84 c0		 test	 al, al
  00063	74 b8		 je	 SHORT $LN16@wndSetRend

; 3779 : 	{
; 3780 : 		return Py_BuildException();
; 3781 : 	}
; 3782 : 	float fBottom;
; 3783 : 	if (!PyTuple_GetFloat(poArgs, 4, &fBottom))

  00065	8d 45 fc	 lea	 eax, DWORD PTR _fBottom$[ebp]
  00068	50		 push	 eax
  00069	6a 04		 push	 4
  0006b	56		 push	 esi
  0006c	e8 00 00 00 00	 call	 ?PyTuple_GetFloat@@YA_NPAU_object@@HPAM@Z ; PyTuple_GetFloat
  00071	83 c4 0c	 add	 esp, 12			; 0000000cH
  00074	84 c0		 test	 al, al
  00076	74 a5		 je	 SHORT $LN16@wndSetRend

; 3784 : 	{
; 3785 : 		return Py_BuildException();
; 3786 : 	}
; 3787 : 
; 3788 : 	if (pWindow->IsType(UI::CExpandedImageBox::Type()))

  00078	e8 00 00 00 00	 call	 ?Type@CExpandedImageBox@UI@@SAKXZ ; UI::CExpandedImageBox::Type
  0007d	8b 75 ec	 mov	 esi, DWORD PTR _pWindow$[ebp]
  00080	8b ce		 mov	 ecx, esi
  00082	50		 push	 eax
  00083	e8 00 00 00 00	 call	 ?IsType@CWindow@UI@@QAEHK@Z ; UI::CWindow::IsType
  00088	85 c0		 test	 eax, eax
  0008a	75 33		 jne	 SHORT $LN15@wndSetRend

; 3789 : 		((UI::CExpandedImageBox*)pWindow)->SetRenderingRect(fLeft, fTop, fRight, fBottom);
; 3790 : 	else if (pWindow->IsType(UI::CAniImageBox::Type()))

  0008c	e8 00 00 00 00	 call	 ?Type@CAniImageBox@UI@@SAKXZ ; UI::CAniImageBox::Type
  00091	50		 push	 eax
  00092	8b ce		 mov	 ecx, esi
  00094	e8 00 00 00 00	 call	 ?IsType@CWindow@UI@@QAEHK@Z ; UI::CWindow::IsType
  00099	85 c0		 test	 eax, eax
  0009b	75 22		 jne	 SHORT $LN15@wndSetRend

; 3791 : 		((UI::CAniImageBox*)pWindow)->SetRenderingRect(fLeft, fTop, fRight, fBottom);
; 3792 : 	else if (pWindow->IsType(UI::CButton::Type()))

  0009d	e8 00 00 00 00	 call	 ?Type@CButton@UI@@SAKXZ	; UI::CButton::Type
  000a2	50		 push	 eax
  000a3	8b ce		 mov	 ecx, esi
  000a5	e8 00 00 00 00	 call	 ?IsType@CWindow@UI@@QAEHK@Z ; UI::CWindow::IsType
  000aa	85 c0		 test	 eax, eax
  000ac	75 11		 jne	 SHORT $LN15@wndSetRend

; 3793 : 		((UI::CButton*)pWindow)->SetRenderingRect(fLeft, fTop, fRight, fBottom);
; 3794 : 	else if (pWindow->IsType(UI::CTextLine::Type()))

  000ae	e8 00 00 00 00	 call	 ?Type@CTextLine@UI@@SAKXZ ; UI::CTextLine::Type
  000b3	50		 push	 eax
  000b4	8b ce		 mov	 ecx, esi
  000b6	e8 00 00 00 00	 call	 ?IsType@CWindow@UI@@QAEHK@Z ; UI::CWindow::IsType
  000bb	85 c0		 test	 eax, eax
  000bd	74 38		 je	 SHORT $LN13@wndSetRend
$LN15@wndSetRend:

; 3795 : 		((UI::CTextLine*)pWindow)->SetRenderingRect(fLeft, fTop, fRight, fBottom);
; 3796 : 
; 3797 : 	return Py_BuildNone();

  000bf	f3 0f 10 45 fc	 movss	 xmm0, DWORD PTR _fBottom$[ebp]
  000c4	83 ec 10	 sub	 esp, 16			; 00000010H
  000c7	8b 06		 mov	 eax, DWORD PTR [esi]
  000c9	8b ce		 mov	 ecx, esi
  000cb	f3 0f 11 44 24
	0c		 movss	 DWORD PTR [esp+12], xmm0
  000d1	f3 0f 10 45 f8	 movss	 xmm0, DWORD PTR _fRight$[ebp]
  000d6	f3 0f 11 44 24
	08		 movss	 DWORD PTR [esp+8], xmm0
  000dc	f3 0f 10 45 f4	 movss	 xmm0, DWORD PTR _fTop$[ebp]
  000e1	f3 0f 11 44 24
	04		 movss	 DWORD PTR [esp+4], xmm0
  000e7	f3 0f 10 45 f0	 movss	 xmm0, DWORD PTR _fLeft$[ebp]
  000ec	f3 0f 11 04 24	 movss	 DWORD PTR [esp], xmm0
  000f1	ff 90 b4 00 00
	00		 call	 DWORD PTR [eax+180]
$LN13@wndSetRend:
  000f7	e8 00 00 00 00	 call	 ?Py_BuildNone@@YAPAU_object@@XZ ; Py_BuildNone
  000fc	5e		 pop	 esi

; 3798 : }

  000fd	8b e5		 mov	 esp, ebp
  000ff	5d		 pop	 ebp
  00100	c3		 ret	 0
?wndSetRenderingRect@@YAPAU_object@@PAU1@0@Z ENDP	; wndSetRenderingRect
_TEXT	ENDS
; Function compile flags: /Ogtp
; File C:\Users\flourine\Desktop\Xantios\client-src\Code\eterPythonLib\PythonWindowManagerModule.cpp
;	COMDAT ?wndMgrSetInsideRender@@YAPAU_object@@PAU1@0@Z
_TEXT	SEGMENT
_pWin$ = -8						; size = 4
_val$ = -1						; size = 1
_poSelf$ = 8						; size = 4
_poArgs$ = 12						; size = 4
?wndMgrSetInsideRender@@YAPAU_object@@PAU1@0@Z PROC	; wndMgrSetInsideRender, COMDAT

; 3739 : {

  00000	55		 push	 ebp
  00001	8b ec		 mov	 ebp, esp
  00003	83 ec 08	 sub	 esp, 8

; 3740 : 	UI::CWindow* pWin;
; 3741 : 	if (!PyTuple_GetWindow(poArgs, 0, &pWin))

  00006	8d 45 f8	 lea	 eax, DWORD PTR _pWin$[ebp]
  00009	50		 push	 eax
  0000a	6a 00		 push	 0
  0000c	ff 75 0c	 push	 DWORD PTR _poArgs$[ebp]
  0000f	e8 00 00 00 00	 call	 ?PyTuple_GetWindow@@YA_NPAU_object@@HPAPAVCWindow@UI@@@Z ; PyTuple_GetWindow
  00014	83 c4 0c	 add	 esp, 12			; 0000000cH
  00017	84 c0		 test	 al, al
  00019	75 0e		 jne	 SHORT $LN2@wndMgrSetI
$LN5@wndMgrSetI:

; 3758 : }

  0001b	6a 00		 push	 0
  0001d	e8 00 00 00 00	 call	 ?Py_BuildException@@YAPAU_object@@PBDZZ ; Py_BuildException
  00022	83 c4 04	 add	 esp, 4
  00025	8b e5		 mov	 esp, ebp
  00027	5d		 pop	 ebp
  00028	c3		 ret	 0
$LN2@wndMgrSetI:

; 3742 : 	{
; 3743 : 		return Py_BuildException();
; 3744 : 	}
; 3745 : 
; 3746 : 	bool val;
; 3747 : 	if (!PyTuple_GetBoolean(poArgs, 1, &val))

  00029	8d 45 ff	 lea	 eax, DWORD PTR _val$[ebp]
  0002c	50		 push	 eax
  0002d	6a 01		 push	 1
  0002f	ff 75 0c	 push	 DWORD PTR _poArgs$[ebp]
  00032	e8 00 00 00 00	 call	 ?PyTuple_GetBoolean@@YA_NPAU_object@@HPA_N@Z ; PyTuple_GetBoolean
  00037	83 c4 0c	 add	 esp, 12			; 0000000cH
  0003a	84 c0		 test	 al, al
  0003c	74 dd		 je	 SHORT $LN5@wndMgrSetI

; 3748 : 	{
; 3749 : 		return Py_BuildException();
; 3750 : 	}
; 3751 : 
; 3752 : 	pWin->SetInsideRender(val);

  0003e	0f b6 45 ff	 movzx	 eax, BYTE PTR _val$[ebp]
  00042	8b 4d f8	 mov	 ecx, DWORD PTR _pWin$[ebp]
  00045	50		 push	 eax
  00046	e8 00 00 00 00	 call	 ?SetInsideRender@CWindow@UI@@QAEXH@Z ; UI::CWindow::SetInsideRender

; 3753 : 
; 3754 : 	//if (pWin->IsType(UI::CTextLine::Type()))
; 3755 : 	//	((UI::CTextLine*)pWin)->SetFlagRenderingWiki(val);
; 3756 : 
; 3757 : 	return Py_BuildNone();

  0004b	e8 00 00 00 00	 call	 ?Py_BuildNone@@YAPAU_object@@XZ ; Py_BuildNone

; 3758 : }

  00050	8b e5		 mov	 esp, ebp
  00052	5d		 pop	 ebp
  00053	c3		 ret	 0
?wndMgrSetInsideRender@@YAPAU_object@@PAU1@0@Z ENDP	; wndMgrSetInsideRender
_TEXT	ENDS
; Function compile flags: /Ogtp
; File C:\Users\flourine\Desktop\Xantios\client-src\Code\eterPythonLib\PythonWindowManagerModule.cpp
;	COMDAT ?wndMgrRegisterWikiRenderTarget@@YAPAU_object@@PAU1@0@Z
_TEXT	SEGMENT
_po$ = -8						; size = 4
_szLayer$ = -4						; size = 4
_poSelf$ = 8						; size = 4
_poArgs$ = 12						; size = 4
?wndMgrRegisterWikiRenderTarget@@YAPAU_object@@PAU1@0@Z PROC ; wndMgrRegisterWikiRenderTarget, COMDAT

; 3722 : {

  00000	55		 push	 ebp
  00001	8b ec		 mov	 ebp, esp
  00003	83 ec 08	 sub	 esp, 8

; 3723 : 	PyObject* po;
; 3724 : 	if (!PyTuple_GetObject(poArgs, 0, &po))

  00006	8d 45 f8	 lea	 eax, DWORD PTR _po$[ebp]
  00009	50		 push	 eax
  0000a	6a 00		 push	 0
  0000c	ff 75 0c	 push	 DWORD PTR _poArgs$[ebp]
  0000f	e8 00 00 00 00	 call	 ?PyTuple_GetObject@@YA_NPAU_object@@HPAPAU1@@Z ; PyTuple_GetObject
  00014	83 c4 0c	 add	 esp, 12			; 0000000cH
  00017	84 c0		 test	 al, al
  00019	75 0e		 jne	 SHORT $LN2@wndMgrRegi
$LN5@wndMgrRegi:

; 3736 : }

  0001b	6a 00		 push	 0
  0001d	e8 00 00 00 00	 call	 ?Py_BuildException@@YAPAU_object@@PBDZZ ; Py_BuildException
  00022	83 c4 04	 add	 esp, 4
  00025	8b e5		 mov	 esp, ebp
  00027	5d		 pop	 ebp
  00028	c3		 ret	 0
$LN2@wndMgrRegi:

; 3725 : 	{
; 3726 : 		return Py_BuildException();
; 3727 : 	}
; 3728 : 	char* szLayer;
; 3729 : 	if (!PyTuple_GetString(poArgs, 1, &szLayer))

  00029	8d 45 fc	 lea	 eax, DWORD PTR _szLayer$[ebp]
  0002c	50		 push	 eax
  0002d	6a 01		 push	 1
  0002f	ff 75 0c	 push	 DWORD PTR _poArgs$[ebp]
  00032	e8 00 00 00 00	 call	 ?PyTuple_GetString@@YA_NPAU_object@@HPAPAD@Z ; PyTuple_GetString
  00037	83 c4 0c	 add	 esp, 12			; 0000000cH
  0003a	84 c0		 test	 al, al
  0003c	74 dd		 je	 SHORT $LN5@wndMgrRegi

; 3730 : 	{
; 3731 : 		return Py_BuildException();
; 3732 : 	}
; 3733 : 
; 3734 : 	UI::CWindow* pWindow = UI::CWindowManager::Instance().RegisterWikiRenderTarget(po, szLayer);

  0003e	ff 75 fc	 push	 DWORD PTR _szLayer$[ebp]
  00041	8b 0d 00 00 00
	00		 mov	 ecx, DWORD PTR ?ms_singleton@?$CSingleton@VCWindowManager@UI@@@@0PAVCWindowManager@UI@@A ; CSingleton<UI::CWindowManager>::ms_singleton
  00047	ff 75 f8	 push	 DWORD PTR _po$[ebp]
  0004a	e8 00 00 00 00	 call	 ?RegisterWikiRenderTarget@CWindowManager@UI@@QAEPAVCWindow@2@PAU_object@@PBD@Z ; UI::CWindowManager::RegisterWikiRenderTarget

; 3735 : 	return Py_BuildValue("i", pWindow);

  0004f	50		 push	 eax
  00050	68 00 00 00 00	 push	 OFFSET ??_C@_01KBJDNOO@i@
  00055	ff 15 00 00 00
	00		 call	 DWORD PTR __imp__Py_BuildValue
  0005b	83 c4 08	 add	 esp, 8

; 3736 : }

  0005e	8b e5		 mov	 esp, ebp
  00060	5d		 pop	 ebp
  00061	c3		 ret	 0
?wndMgrRegisterWikiRenderTarget@@YAPAU_object@@PAU1@0@Z ENDP ; wndMgrRegisterWikiRenderTarget
_TEXT	ENDS
; Function compile flags: /Ogtp
; File C:\Users\flourine\Desktop\Xantios\client-src\Code\eterPythonLib\PythonWindowManagerModule.cpp
;	COMDAT ?wndMgrGetItemIndex@@YAPAU_object@@PAU1@0@Z
_TEXT	SEGMENT
_iSlotIndex$ = -8					; size = 4
_pWin$ = -4						; size = 4
_poSelf$ = 8						; size = 4
_poArgs$ = 12						; size = 4
?wndMgrGetItemIndex@@YAPAU_object@@PAU1@0@Z PROC	; wndMgrGetItemIndex, COMDAT

; 3697 : {

  00000	55		 push	 ebp
  00001	8b ec		 mov	 ebp, esp
  00003	83 ec 08	 sub	 esp, 8

; 3698 : 	UI::CWindow * pWin;
; 3699 : 	if (!PyTuple_GetWindow(poArgs, 0, &pWin))

  00006	8d 45 fc	 lea	 eax, DWORD PTR _pWin$[ebp]
  00009	56		 push	 esi
  0000a	8b 75 0c	 mov	 esi, DWORD PTR _poArgs$[ebp]
  0000d	50		 push	 eax
  0000e	6a 00		 push	 0
  00010	56		 push	 esi
  00011	e8 00 00 00 00	 call	 ?PyTuple_GetWindow@@YA_NPAU_object@@HPAPAVCWindow@UI@@@Z ; PyTuple_GetWindow
  00016	83 c4 0c	 add	 esp, 12			; 0000000cH
  00019	84 c0		 test	 al, al
  0001b	75 0f		 jne	 SHORT $LN2@wndMgrGetI
$LN6@wndMgrGetI:

; 3718 : }

  0001d	6a 00		 push	 0
  0001f	e8 00 00 00 00	 call	 ?Py_BuildException@@YAPAU_object@@PBDZZ ; Py_BuildException
  00024	83 c4 04	 add	 esp, 4
  00027	5e		 pop	 esi
  00028	8b e5		 mov	 esp, ebp
  0002a	5d		 pop	 ebp
  0002b	c3		 ret	 0
$LN2@wndMgrGetI:

; 3700 : 	{
; 3701 : 		return Py_BuildException();
; 3702 : 	}
; 3703 : 
; 3704 : 	int iSlotIndex;
; 3705 : 	if (!PyTuple_GetInteger(poArgs, 1, &iSlotIndex))

  0002c	8d 45 f8	 lea	 eax, DWORD PTR _iSlotIndex$[ebp]
  0002f	50		 push	 eax
  00030	6a 01		 push	 1
  00032	56		 push	 esi
  00033	e8 00 00 00 00	 call	 ?PyTuple_GetInteger@@YA_NPAU_object@@HPAH@Z ; PyTuple_GetInteger
  00038	83 c4 0c	 add	 esp, 12			; 0000000cH
  0003b	84 c0		 test	 al, al
  0003d	74 de		 je	 SHORT $LN6@wndMgrGetI

; 3706 : 	{
; 3707 : 		return Py_BuildException();
; 3708 : 	}
; 3709 : 
; 3710 : 	if (!pWin->IsType(UI::CSlotWindow::Type()))

  0003f	e8 00 00 00 00	 call	 ?Type@CSlotWindow@UI@@SAKXZ ; UI::CSlotWindow::Type
  00044	8b 75 fc	 mov	 esi, DWORD PTR _pWin$[ebp]
  00047	8b ce		 mov	 ecx, esi
  00049	50		 push	 eax
  0004a	e8 00 00 00 00	 call	 ?IsType@CWindow@UI@@QAEHK@Z ; UI::CWindow::IsType
  0004f	85 c0		 test	 eax, eax
  00051	74 ca		 je	 SHORT $LN6@wndMgrGetI

; 3711 : 	{
; 3712 : 		return Py_BuildException();
; 3713 : 	}
; 3714 : 
; 3715 : 	UI::CSlotWindow * pSlotWin = (UI::CSlotWindow *)pWin;
; 3716 : 
; 3717 : 	return Py_BuildValue("i", pSlotWin->GetItemIndex(iSlotIndex));

  00053	ff 75 f8	 push	 DWORD PTR _iSlotIndex$[ebp]
  00056	8b ce		 mov	 ecx, esi
  00058	e8 00 00 00 00	 call	 ?GetItemIndex@CSlotWindow@UI@@QAEKK@Z ; UI::CSlotWindow::GetItemIndex
  0005d	50		 push	 eax
  0005e	68 00 00 00 00	 push	 OFFSET ??_C@_01KBJDNOO@i@
  00063	ff 15 00 00 00
	00		 call	 DWORD PTR __imp__Py_BuildValue
  00069	83 c4 08	 add	 esp, 8
  0006c	5e		 pop	 esi

; 3718 : }

  0006d	8b e5		 mov	 esp, ebp
  0006f	5d		 pop	 ebp
  00070	c3		 ret	 0
?wndMgrGetItemIndex@@YAPAU_object@@PAU1@0@Z ENDP	; wndMgrGetItemIndex
_TEXT	ENDS
; Function compile flags: /Ogtp
; File C:\Users\flourine\Desktop\Xantios\client-src\Code\eterPythonLib\PythonWindowManagerModule.cpp
;	COMDAT ?wndMgrDeactivateChangeLookSlot@@YAPAU_object@@PAU1@0@Z
_TEXT	SEGMENT
_iSlotIndex$ = -8					; size = 4
_pWin$ = -4						; size = 4
_poSelf$ = 8						; size = 4
_poArgs$ = 12						; size = 4
?wndMgrDeactivateChangeLookSlot@@YAPAU_object@@PAU1@0@Z PROC ; wndMgrDeactivateChangeLookSlot, COMDAT

; 3672 : {

  00000	55		 push	 ebp
  00001	8b ec		 mov	 ebp, esp
  00003	83 ec 08	 sub	 esp, 8

; 3673 : 	UI::CWindow* pWin;
; 3674 : 	if (!PyTuple_GetWindow(poArgs, 0, &pWin))

  00006	8d 45 fc	 lea	 eax, DWORD PTR _pWin$[ebp]
  00009	56		 push	 esi
  0000a	8b 75 0c	 mov	 esi, DWORD PTR _poArgs$[ebp]
  0000d	50		 push	 eax
  0000e	6a 00		 push	 0
  00010	56		 push	 esi
  00011	e8 00 00 00 00	 call	 ?PyTuple_GetWindow@@YA_NPAU_object@@HPAPAVCWindow@UI@@@Z ; PyTuple_GetWindow
  00016	83 c4 0c	 add	 esp, 12			; 0000000cH
  00019	84 c0		 test	 al, al
  0001b	75 0f		 jne	 SHORT $LN2@wndMgrDeac
$LN6@wndMgrDeac:

; 3693 : }

  0001d	6a 00		 push	 0
  0001f	e8 00 00 00 00	 call	 ?Py_BuildException@@YAPAU_object@@PBDZZ ; Py_BuildException
  00024	83 c4 04	 add	 esp, 4
  00027	5e		 pop	 esi
  00028	8b e5		 mov	 esp, ebp
  0002a	5d		 pop	 ebp
  0002b	c3		 ret	 0
$LN2@wndMgrDeac:

; 3675 : 	{
; 3676 : 		return Py_BuildException();
; 3677 : 	}
; 3678 : 
; 3679 : 	int iSlotIndex;
; 3680 : 	if (!PyTuple_GetInteger(poArgs, 1, &iSlotIndex))

  0002c	8d 45 f8	 lea	 eax, DWORD PTR _iSlotIndex$[ebp]
  0002f	50		 push	 eax
  00030	6a 01		 push	 1
  00032	56		 push	 esi
  00033	e8 00 00 00 00	 call	 ?PyTuple_GetInteger@@YA_NPAU_object@@HPAH@Z ; PyTuple_GetInteger
  00038	83 c4 0c	 add	 esp, 12			; 0000000cH
  0003b	84 c0		 test	 al, al
  0003d	74 de		 je	 SHORT $LN6@wndMgrDeac

; 3681 : 	{
; 3682 : 		return Py_BuildException();
; 3683 : 	}
; 3684 : 
; 3685 : 	if (!pWin->IsType(UI::CSlotWindow::Type()))

  0003f	e8 00 00 00 00	 call	 ?Type@CSlotWindow@UI@@SAKXZ ; UI::CSlotWindow::Type
  00044	8b 75 fc	 mov	 esi, DWORD PTR _pWin$[ebp]
  00047	8b ce		 mov	 ecx, esi
  00049	50		 push	 eax
  0004a	e8 00 00 00 00	 call	 ?IsType@CWindow@UI@@QAEHK@Z ; UI::CWindow::IsType
  0004f	85 c0		 test	 eax, eax
  00051	74 ca		 je	 SHORT $LN6@wndMgrDeac

; 3686 : 	{
; 3687 : 		return Py_BuildException();
; 3688 : 	}
; 3689 : 
; 3690 : 	UI::CSlotWindow* pSlotWin = (UI::CSlotWindow*)pWin;
; 3691 : 	pSlotWin->DeactivateChangeLookSlot(iSlotIndex);

  00053	ff 75 f8	 push	 DWORD PTR _iSlotIndex$[ebp]
  00056	8b ce		 mov	 ecx, esi
  00058	e8 00 00 00 00	 call	 ?DeactivateChangeLookSlot@CSlotWindow@UI@@QAEXK@Z ; UI::CSlotWindow::DeactivateChangeLookSlot

; 3692 : 	return Py_BuildNone();

  0005d	e8 00 00 00 00	 call	 ?Py_BuildNone@@YAPAU_object@@XZ ; Py_BuildNone
  00062	5e		 pop	 esi

; 3693 : }

  00063	8b e5		 mov	 esp, ebp
  00065	5d		 pop	 ebp
  00066	c3		 ret	 0
?wndMgrDeactivateChangeLookSlot@@YAPAU_object@@PAU1@0@Z ENDP ; wndMgrDeactivateChangeLookSlot
_TEXT	ENDS
; Function compile flags: /Ogtp
; File C:\Users\flourine\Desktop\Xantios\client-src\Code\eterPythonLib\PythonWindowManagerModule.cpp
;	COMDAT ?wndMgrActivateChangeLookSlot@@YAPAU_object@@PAU1@0@Z
_TEXT	SEGMENT
_pWin$ = -12						; size = 4
_iSlotIndex$ = -8					; size = 4
_bDiffuseType$ = -4					; size = 1
_poSelf$ = 8						; size = 4
_poArgs$ = 12						; size = 4
?wndMgrActivateChangeLookSlot@@YAPAU_object@@PAU1@0@Z PROC ; wndMgrActivateChangeLookSlot, COMDAT

; 3647 : {

  00000	55		 push	 ebp
  00001	8b ec		 mov	 ebp, esp
  00003	83 ec 0c	 sub	 esp, 12			; 0000000cH

; 3648 : 	UI::CWindow* pWin;
; 3649 : 	if (!PyTuple_GetWindow(poArgs, 0, &pWin))

  00006	8d 45 f4	 lea	 eax, DWORD PTR _pWin$[ebp]
  00009	56		 push	 esi
  0000a	8b 75 0c	 mov	 esi, DWORD PTR _poArgs$[ebp]
  0000d	50		 push	 eax
  0000e	6a 00		 push	 0
  00010	56		 push	 esi
  00011	e8 00 00 00 00	 call	 ?PyTuple_GetWindow@@YA_NPAU_object@@HPAPAVCWindow@UI@@@Z ; PyTuple_GetWindow
  00016	83 c4 0c	 add	 esp, 12			; 0000000cH
  00019	84 c0		 test	 al, al
  0001b	75 0f		 jne	 SHORT $LN2@wndMgrActi
$LN6@wndMgrActi:

; 3669 : }

  0001d	6a 00		 push	 0
  0001f	e8 00 00 00 00	 call	 ?Py_BuildException@@YAPAU_object@@PBDZZ ; Py_BuildException
  00024	83 c4 04	 add	 esp, 4
  00027	5e		 pop	 esi
  00028	8b e5		 mov	 esp, ebp
  0002a	5d		 pop	 ebp
  0002b	c3		 ret	 0
$LN2@wndMgrActi:

; 3650 : 	{
; 3651 : 		return Py_BuildException();
; 3652 : 	}
; 3653 : 
; 3654 : 	int iSlotIndex;
; 3655 : 	if (!PyTuple_GetInteger(poArgs, 1, &iSlotIndex))

  0002c	8d 45 f8	 lea	 eax, DWORD PTR _iSlotIndex$[ebp]
  0002f	50		 push	 eax
  00030	6a 01		 push	 1
  00032	56		 push	 esi
  00033	e8 00 00 00 00	 call	 ?PyTuple_GetInteger@@YA_NPAU_object@@HPAH@Z ; PyTuple_GetInteger
  00038	83 c4 0c	 add	 esp, 12			; 0000000cH
  0003b	84 c0		 test	 al, al
  0003d	74 de		 je	 SHORT $LN6@wndMgrActi

; 3656 : 	{
; 3657 : 		return Py_BuildException();
; 3658 : 	}
; 3659 : 
; 3660 : 	BYTE bDiffuseType;
; 3661 : 	if (!PyTuple_GetByte(poArgs, 2, &bDiffuseType))

  0003f	8d 45 fc	 lea	 eax, DWORD PTR _bDiffuseType$[ebp]
  00042	50		 push	 eax
  00043	6a 02		 push	 2
  00045	56		 push	 esi
  00046	e8 00 00 00 00	 call	 ?PyTuple_GetByte@@YA_NPAU_object@@HPAE@Z ; PyTuple_GetByte

; 3662 : 	{
; 3663 : 		bDiffuseType = 0;
; 3664 : 	}
; 3665 : 
; 3666 : 	UI::CSlotWindow* pSlotWin = (UI::CSlotWindow*)pWin;
; 3667 : 	pSlotWin->ActivateChangeLookSlot(iSlotIndex, bDiffuseType);

  0004b	8b 4d f4	 mov	 ecx, DWORD PTR _pWin$[ebp]
  0004e	83 c4 0c	 add	 esp, 12			; 0000000cH
  00051	f6 d8		 neg	 al
  00053	1a c0		 sbb	 al, al
  00055	20 45 fc	 and	 BYTE PTR _bDiffuseType$[ebp], al
  00058	ff 75 fc	 push	 DWORD PTR _bDiffuseType$[ebp]
  0005b	ff 75 f8	 push	 DWORD PTR _iSlotIndex$[ebp]
  0005e	e8 00 00 00 00	 call	 ?ActivateChangeLookSlot@CSlotWindow@UI@@QAEXKE@Z ; UI::CSlotWindow::ActivateChangeLookSlot

; 3668 : 	return Py_BuildNone();

  00063	e8 00 00 00 00	 call	 ?Py_BuildNone@@YAPAU_object@@XZ ; Py_BuildNone
  00068	5e		 pop	 esi

; 3669 : }

  00069	8b e5		 mov	 esp, ebp
  0006b	5d		 pop	 ebp
  0006c	c3		 ret	 0
?wndMgrActivateChangeLookSlot@@YAPAU_object@@PAU1@0@Z ENDP ; wndMgrActivateChangeLookSlot
_TEXT	ENDS
; Function compile flags: /Ogtp
; File C:\Users\flourine\Desktop\Xantios\client-src\Code\eterPythonLib\PythonWindowManagerModule.cpp
;	COMDAT ?wndMgrDisableSlotCoverImage@@YAPAU_object@@PAU1@0@Z
_TEXT	SEGMENT
_iSlotIndex$ = -8					; size = 4
_pWin$ = -4						; size = 4
_poSelf$ = 8						; size = 4
_poArgs$ = 12						; size = 4
?wndMgrDisableSlotCoverImage@@YAPAU_object@@PAU1@0@Z PROC ; wndMgrDisableSlotCoverImage, COMDAT

; 3622 : {

  00000	55		 push	 ebp
  00001	8b ec		 mov	 ebp, esp
  00003	83 ec 08	 sub	 esp, 8

; 3623 : 	UI::CWindow* pWin;
; 3624 : 	if (!PyTuple_GetWindow(poArgs, 0, &pWin))

  00006	8d 45 fc	 lea	 eax, DWORD PTR _pWin$[ebp]
  00009	56		 push	 esi
  0000a	8b 75 0c	 mov	 esi, DWORD PTR _poArgs$[ebp]
  0000d	50		 push	 eax
  0000e	6a 00		 push	 0
  00010	56		 push	 esi
  00011	e8 00 00 00 00	 call	 ?PyTuple_GetWindow@@YA_NPAU_object@@HPAPAVCWindow@UI@@@Z ; PyTuple_GetWindow
  00016	83 c4 0c	 add	 esp, 12			; 0000000cH
  00019	84 c0		 test	 al, al
  0001b	75 0f		 jne	 SHORT $LN2@wndMgrDisa
$LN6@wndMgrDisa:

; 3644 : }

  0001d	6a 00		 push	 0
  0001f	e8 00 00 00 00	 call	 ?Py_BuildException@@YAPAU_object@@PBDZZ ; Py_BuildException
  00024	83 c4 04	 add	 esp, 4
  00027	5e		 pop	 esi
  00028	8b e5		 mov	 esp, ebp
  0002a	5d		 pop	 ebp
  0002b	c3		 ret	 0
$LN2@wndMgrDisa:

; 3625 : 	{
; 3626 : 		return Py_BuildException();
; 3627 : 	}
; 3628 : 
; 3629 : 	int iSlotIndex;
; 3630 : 	if (!PyTuple_GetInteger(poArgs, 1, &iSlotIndex))

  0002c	8d 45 f8	 lea	 eax, DWORD PTR _iSlotIndex$[ebp]
  0002f	50		 push	 eax
  00030	6a 01		 push	 1
  00032	56		 push	 esi
  00033	e8 00 00 00 00	 call	 ?PyTuple_GetInteger@@YA_NPAU_object@@HPAH@Z ; PyTuple_GetInteger
  00038	83 c4 0c	 add	 esp, 12			; 0000000cH
  0003b	84 c0		 test	 al, al
  0003d	74 de		 je	 SHORT $LN6@wndMgrDisa

; 3631 : 	{
; 3632 : 		return Py_BuildException();
; 3633 : 	}
; 3634 : 
; 3635 : 	if (!pWin->IsType(UI::CSlotWindow::Type()))

  0003f	e8 00 00 00 00	 call	 ?Type@CSlotWindow@UI@@SAKXZ ; UI::CSlotWindow::Type
  00044	8b 75 fc	 mov	 esi, DWORD PTR _pWin$[ebp]
  00047	8b ce		 mov	 ecx, esi
  00049	50		 push	 eax
  0004a	e8 00 00 00 00	 call	 ?IsType@CWindow@UI@@QAEHK@Z ; UI::CWindow::IsType
  0004f	85 c0		 test	 eax, eax
  00051	74 ca		 je	 SHORT $LN6@wndMgrDisa

; 3636 : 	{
; 3637 : 		return Py_BuildException();
; 3638 : 	}
; 3639 : 
; 3640 : 	UI::CSlotWindow* pSlotWin = (UI::CSlotWindow*)pWin;
; 3641 : 	pSlotWin->DisableSlotCoverImage(iSlotIndex);

  00053	ff 75 f8	 push	 DWORD PTR _iSlotIndex$[ebp]
  00056	8b ce		 mov	 ecx, esi
  00058	e8 00 00 00 00	 call	 ?DisableSlotCoverImage@CSlotWindow@UI@@QAEXK@Z ; UI::CSlotWindow::DisableSlotCoverImage

; 3642 : 
; 3643 : 	return Py_BuildNone();

  0005d	e8 00 00 00 00	 call	 ?Py_BuildNone@@YAPAU_object@@XZ ; Py_BuildNone
  00062	5e		 pop	 esi

; 3644 : }

  00063	8b e5		 mov	 esp, ebp
  00065	5d		 pop	 ebp
  00066	c3		 ret	 0
?wndMgrDisableSlotCoverImage@@YAPAU_object@@PAU1@0@Z ENDP ; wndMgrDisableSlotCoverImage
_TEXT	ENDS
; Function compile flags: /Ogtp
; File C:\Users\flourine\Desktop\Xantios\client-src\Code\eterPythonLib\PythonWindowManagerModule.cpp
;	COMDAT ?wndMgrEnableSlotCoverImage@@YAPAU_object@@PAU1@0@Z
_TEXT	SEGMENT
_iSlotIndex$ = -8					; size = 4
_pWin$ = -4						; size = 4
_poSelf$ = 8						; size = 4
_poArgs$ = 12						; size = 4
?wndMgrEnableSlotCoverImage@@YAPAU_object@@PAU1@0@Z PROC ; wndMgrEnableSlotCoverImage, COMDAT

; 3597 : {

  00000	55		 push	 ebp
  00001	8b ec		 mov	 ebp, esp
  00003	83 ec 08	 sub	 esp, 8

; 3598 : 	UI::CWindow* pWin;
; 3599 : 	if (!PyTuple_GetWindow(poArgs, 0, &pWin))

  00006	8d 45 fc	 lea	 eax, DWORD PTR _pWin$[ebp]
  00009	56		 push	 esi
  0000a	8b 75 0c	 mov	 esi, DWORD PTR _poArgs$[ebp]
  0000d	50		 push	 eax
  0000e	6a 00		 push	 0
  00010	56		 push	 esi
  00011	e8 00 00 00 00	 call	 ?PyTuple_GetWindow@@YA_NPAU_object@@HPAPAVCWindow@UI@@@Z ; PyTuple_GetWindow
  00016	83 c4 0c	 add	 esp, 12			; 0000000cH
  00019	84 c0		 test	 al, al
  0001b	75 0f		 jne	 SHORT $LN2@wndMgrEnab
$LN6@wndMgrEnab:

; 3619 : }

  0001d	6a 00		 push	 0
  0001f	e8 00 00 00 00	 call	 ?Py_BuildException@@YAPAU_object@@PBDZZ ; Py_BuildException
  00024	83 c4 04	 add	 esp, 4
  00027	5e		 pop	 esi
  00028	8b e5		 mov	 esp, ebp
  0002a	5d		 pop	 ebp
  0002b	c3		 ret	 0
$LN2@wndMgrEnab:

; 3600 : 	{
; 3601 : 		return Py_BuildException();
; 3602 : 	}
; 3603 : 
; 3604 : 	int iSlotIndex;
; 3605 : 	if (!PyTuple_GetInteger(poArgs, 1, &iSlotIndex))

  0002c	8d 45 f8	 lea	 eax, DWORD PTR _iSlotIndex$[ebp]
  0002f	50		 push	 eax
  00030	6a 01		 push	 1
  00032	56		 push	 esi
  00033	e8 00 00 00 00	 call	 ?PyTuple_GetInteger@@YA_NPAU_object@@HPAH@Z ; PyTuple_GetInteger
  00038	83 c4 0c	 add	 esp, 12			; 0000000cH
  0003b	84 c0		 test	 al, al
  0003d	74 de		 je	 SHORT $LN6@wndMgrEnab

; 3606 : 	{
; 3607 : 		return Py_BuildException();
; 3608 : 	}
; 3609 : 
; 3610 : 	if (!pWin->IsType(UI::CSlotWindow::Type()))

  0003f	e8 00 00 00 00	 call	 ?Type@CSlotWindow@UI@@SAKXZ ; UI::CSlotWindow::Type
  00044	8b 75 fc	 mov	 esi, DWORD PTR _pWin$[ebp]
  00047	8b ce		 mov	 ecx, esi
  00049	50		 push	 eax
  0004a	e8 00 00 00 00	 call	 ?IsType@CWindow@UI@@QAEHK@Z ; UI::CWindow::IsType
  0004f	85 c0		 test	 eax, eax
  00051	74 ca		 je	 SHORT $LN6@wndMgrEnab

; 3611 : 	{
; 3612 : 		return Py_BuildException();
; 3613 : 	}
; 3614 : 
; 3615 : 	UI::CSlotWindow* pSlotWin = (UI::CSlotWindow*)pWin;
; 3616 : 	pSlotWin->EnableSlotCoverImage(iSlotIndex);

  00053	ff 75 f8	 push	 DWORD PTR _iSlotIndex$[ebp]
  00056	8b ce		 mov	 ecx, esi
  00058	e8 00 00 00 00	 call	 ?EnableSlotCoverImage@CSlotWindow@UI@@QAEXK@Z ; UI::CSlotWindow::EnableSlotCoverImage

; 3617 : 
; 3618 : 	return Py_BuildNone();

  0005d	e8 00 00 00 00	 call	 ?Py_BuildNone@@YAPAU_object@@XZ ; Py_BuildNone
  00062	5e		 pop	 esi

; 3619 : }

  00063	8b e5		 mov	 esp, ebp
  00065	5d		 pop	 ebp
  00066	c3		 ret	 0
