; Listing generated by Microsoft (R) Optimizing Compiler Version 19.34.31942.0 

	TITLE	C:\Users\flourine\Desktop\Xantios\client-src\Code\eterPythonLib\Distribute\PythonWindow.obj
	.686P
	.XMM
	include listing.inc
	.model	flat

INCLUDELIB LIBCMT
INCLUDELIB OLDNAMES

PUBLIC	?g_XMSinCoefficients0@DirectX@UI@@3UXMVECTORF32@12@B ; UI::DirectX::g_XMSinCoefficients0
PUBLIC	?g_XMSinCoefficients1@DirectX@UI@@3UXMVECTORF32@12@B ; UI::DirectX::g_XMSinCoefficients1
PUBLIC	?g_XMCosCoefficients0@DirectX@UI@@3UXMVECTORF32@12@B ; UI::DirectX::g_XMCosCoefficients0
PUBLIC	?g_XMCosCoefficients1@DirectX@UI@@3UXMVECTORF32@12@B ; UI::DirectX::g_XMCosCoefficients1
PUBLIC	?g_XMTanCoefficients0@DirectX@UI@@3UXMVECTORF32@12@B ; UI::DirectX::g_XMTanCoefficients0
PUBLIC	?g_XMTanCoefficients1@DirectX@UI@@3UXMVECTORF32@12@B ; UI::DirectX::g_XMTanCoefficients1
PUBLIC	?g_XMTanCoefficients2@DirectX@UI@@3UXMVECTORF32@12@B ; UI::DirectX::g_XMTanCoefficients2
PUBLIC	?g_XMArcCoefficients0@DirectX@UI@@3UXMVECTORF32@12@B ; UI::DirectX::g_XMArcCoefficients0
PUBLIC	?g_XMArcCoefficients1@DirectX@UI@@3UXMVECTORF32@12@B ; UI::DirectX::g_XMArcCoefficients1
PUBLIC	?g_XMATanCoefficients0@DirectX@UI@@3UXMVECTORF32@12@B ; UI::DirectX::g_XMATanCoefficients0
PUBLIC	?g_XMATanCoefficients1@DirectX@UI@@3UXMVECTORF32@12@B ; UI::DirectX::g_XMATanCoefficients1
PUBLIC	?g_XMATanEstCoefficients0@DirectX@UI@@3UXMVECTORF32@12@B ; UI::DirectX::g_XMATanEstCoefficients0
PUBLIC	?g_XMATanEstCoefficients1@DirectX@UI@@3UXMVECTORF32@12@B ; UI::DirectX::g_XMATanEstCoefficients1
PUBLIC	?g_XMTanEstCoefficients@DirectX@UI@@3UXMVECTORF32@12@B ; UI::DirectX::g_XMTanEstCoefficients
PUBLIC	?g_XMArcEstCoefficients@DirectX@UI@@3UXMVECTORF32@12@B ; UI::DirectX::g_XMArcEstCoefficients
PUBLIC	?g_XMPiConstants0@DirectX@UI@@3UXMVECTORF32@12@B ; UI::DirectX::g_XMPiConstants0
PUBLIC	?g_XMIdentityR0@DirectX@UI@@3UXMVECTORF32@12@B	; UI::DirectX::g_XMIdentityR0
PUBLIC	?g_XMIdentityR1@DirectX@UI@@3UXMVECTORF32@12@B	; UI::DirectX::g_XMIdentityR1
PUBLIC	?g_XMIdentityR2@DirectX@UI@@3UXMVECTORF32@12@B	; UI::DirectX::g_XMIdentityR2
PUBLIC	?g_XMIdentityR3@DirectX@UI@@3UXMVECTORF32@12@B	; UI::DirectX::g_XMIdentityR3
PUBLIC	?g_XMNegIdentityR0@DirectX@UI@@3UXMVECTORF32@12@B ; UI::DirectX::g_XMNegIdentityR0
PUBLIC	?g_XMNegIdentityR1@DirectX@UI@@3UXMVECTORF32@12@B ; UI::DirectX::g_XMNegIdentityR1
PUBLIC	?g_XMNegIdentityR2@DirectX@UI@@3UXMVECTORF32@12@B ; UI::DirectX::g_XMNegIdentityR2
PUBLIC	?g_XMNegIdentityR3@DirectX@UI@@3UXMVECTORF32@12@B ; UI::DirectX::g_XMNegIdentityR3
PUBLIC	?g_XMNegativeZero@DirectX@UI@@3UXMVECTORU32@12@B ; UI::DirectX::g_XMNegativeZero
PUBLIC	?g_XMNegate3@DirectX@UI@@3UXMVECTORU32@12@B	; UI::DirectX::g_XMNegate3
PUBLIC	?g_XMMaskXY@DirectX@UI@@3UXMVECTORU32@12@B	; UI::DirectX::g_XMMaskXY
PUBLIC	?g_XMMask3@DirectX@UI@@3UXMVECTORU32@12@B	; UI::DirectX::g_XMMask3
PUBLIC	?g_XMMaskX@DirectX@UI@@3UXMVECTORU32@12@B	; UI::DirectX::g_XMMaskX
PUBLIC	?g_XMMaskY@DirectX@UI@@3UXMVECTORU32@12@B	; UI::DirectX::g_XMMaskY
PUBLIC	?g_XMMaskZ@DirectX@UI@@3UXMVECTORU32@12@B	; UI::DirectX::g_XMMaskZ
PUBLIC	?g_XMMaskW@DirectX@UI@@3UXMVECTORU32@12@B	; UI::DirectX::g_XMMaskW
PUBLIC	?g_XMOne@DirectX@UI@@3UXMVECTORF32@12@B		; UI::DirectX::g_XMOne
PUBLIC	?g_XMOne3@DirectX@UI@@3UXMVECTORF32@12@B	; UI::DirectX::g_XMOne3
PUBLIC	?g_XMZero@DirectX@UI@@3UXMVECTORF32@12@B	; UI::DirectX::g_XMZero
PUBLIC	?g_XMTwo@DirectX@UI@@3UXMVECTORF32@12@B		; UI::DirectX::g_XMTwo
PUBLIC	?g_XMFour@DirectX@UI@@3UXMVECTORF32@12@B	; UI::DirectX::g_XMFour
PUBLIC	?g_XMSix@DirectX@UI@@3UXMVECTORF32@12@B		; UI::DirectX::g_XMSix
PUBLIC	?g_XMNegativeOne@DirectX@UI@@3UXMVECTORF32@12@B	; UI::DirectX::g_XMNegativeOne
PUBLIC	?g_XMOneHalf@DirectX@UI@@3UXMVECTORF32@12@B	; UI::DirectX::g_XMOneHalf
PUBLIC	?g_XMNegativeOneHalf@DirectX@UI@@3UXMVECTORF32@12@B ; UI::DirectX::g_XMNegativeOneHalf
PUBLIC	?g_XMNegativeTwoPi@DirectX@UI@@3UXMVECTORF32@12@B ; UI::DirectX::g_XMNegativeTwoPi
PUBLIC	?g_XMNegativePi@DirectX@UI@@3UXMVECTORF32@12@B	; UI::DirectX::g_XMNegativePi
PUBLIC	?g_XMHalfPi@DirectX@UI@@3UXMVECTORF32@12@B	; UI::DirectX::g_XMHalfPi
PUBLIC	?g_XMPi@DirectX@UI@@3UXMVECTORF32@12@B		; UI::DirectX::g_XMPi
PUBLIC	?g_XMReciprocalPi@DirectX@UI@@3UXMVECTORF32@12@B ; UI::DirectX::g_XMReciprocalPi
PUBLIC	?g_XMTwoPi@DirectX@UI@@3UXMVECTORF32@12@B	; UI::DirectX::g_XMTwoPi
PUBLIC	?g_XMReciprocalTwoPi@DirectX@UI@@3UXMVECTORF32@12@B ; UI::DirectX::g_XMReciprocalTwoPi
PUBLIC	?g_XMEpsilon@DirectX@UI@@3UXMVECTORF32@12@B	; UI::DirectX::g_XMEpsilon
PUBLIC	?g_XMInfinity@DirectX@UI@@3UXMVECTORI32@12@B	; UI::DirectX::g_XMInfinity
PUBLIC	?g_XMQNaN@DirectX@UI@@3UXMVECTORI32@12@B	; UI::DirectX::g_XMQNaN
PUBLIC	?g_XMQNaNTest@DirectX@UI@@3UXMVECTORI32@12@B	; UI::DirectX::g_XMQNaNTest
PUBLIC	?g_XMAbsMask@DirectX@UI@@3UXMVECTORI32@12@B	; UI::DirectX::g_XMAbsMask
PUBLIC	?g_XMFltMin@DirectX@UI@@3UXMVECTORI32@12@B	; UI::DirectX::g_XMFltMin
PUBLIC	?g_XMFltMax@DirectX@UI@@3UXMVECTORI32@12@B	; UI::DirectX::g_XMFltMax
PUBLIC	?g_XMNegOneMask@DirectX@UI@@3UXMVECTORU32@12@B	; UI::DirectX::g_XMNegOneMask
PUBLIC	?g_XMMaskA8R8G8B8@DirectX@UI@@3UXMVECTORU32@12@B ; UI::DirectX::g_XMMaskA8R8G8B8
PUBLIC	?g_XMFlipA8R8G8B8@DirectX@UI@@3UXMVECTORU32@12@B ; UI::DirectX::g_XMFlipA8R8G8B8
PUBLIC	?g_XMFixAA8R8G8B8@DirectX@UI@@3UXMVECTORF32@12@B ; UI::DirectX::g_XMFixAA8R8G8B8
PUBLIC	?g_XMNormalizeA8R8G8B8@DirectX@UI@@3UXMVECTORF32@12@B ; UI::DirectX::g_XMNormalizeA8R8G8B8
PUBLIC	?g_XMMaskA2B10G10R10@DirectX@UI@@3UXMVECTORU32@12@B ; UI::DirectX::g_XMMaskA2B10G10R10
PUBLIC	?g_XMFlipA2B10G10R10@DirectX@UI@@3UXMVECTORU32@12@B ; UI::DirectX::g_XMFlipA2B10G10R10
PUBLIC	?g_XMFixAA2B10G10R10@DirectX@UI@@3UXMVECTORF32@12@B ; UI::DirectX::g_XMFixAA2B10G10R10
PUBLIC	?g_XMNormalizeA2B10G10R10@DirectX@UI@@3UXMVECTORF32@12@B ; UI::DirectX::g_XMNormalizeA2B10G10R10
PUBLIC	?g_XMMaskX16Y16@DirectX@UI@@3UXMVECTORU32@12@B	; UI::DirectX::g_XMMaskX16Y16
PUBLIC	?g_XMFlipX16Y16@DirectX@UI@@3UXMVECTORI32@12@B	; UI::DirectX::g_XMFlipX16Y16
PUBLIC	?g_XMFixX16Y16@DirectX@UI@@3UXMVECTORF32@12@B	; UI::DirectX::g_XMFixX16Y16
PUBLIC	?g_XMNormalizeX16Y16@DirectX@UI@@3UXMVECTORF32@12@B ; UI::DirectX::g_XMNormalizeX16Y16
PUBLIC	?g_XMMaskX16Y16Z16W16@DirectX@UI@@3UXMVECTORU32@12@B ; UI::DirectX::g_XMMaskX16Y16Z16W16
PUBLIC	?g_XMFlipX16Y16Z16W16@DirectX@UI@@3UXMVECTORI32@12@B ; UI::DirectX::g_XMFlipX16Y16Z16W16
PUBLIC	?g_XMFixX16Y16Z16W16@DirectX@UI@@3UXMVECTORF32@12@B ; UI::DirectX::g_XMFixX16Y16Z16W16
PUBLIC	?g_XMNormalizeX16Y16Z16W16@DirectX@UI@@3UXMVECTORF32@12@B ; UI::DirectX::g_XMNormalizeX16Y16Z16W16
PUBLIC	?g_XMNoFraction@DirectX@UI@@3UXMVECTORF32@12@B	; UI::DirectX::g_XMNoFraction
PUBLIC	?g_XMMaskByte@DirectX@UI@@3UXMVECTORI32@12@B	; UI::DirectX::g_XMMaskByte
PUBLIC	?g_XMNegateX@DirectX@UI@@3UXMVECTORF32@12@B	; UI::DirectX::g_XMNegateX
PUBLIC	?g_XMNegateY@DirectX@UI@@3UXMVECTORF32@12@B	; UI::DirectX::g_XMNegateY
PUBLIC	?g_XMNegateZ@DirectX@UI@@3UXMVECTORF32@12@B	; UI::DirectX::g_XMNegateZ
PUBLIC	?g_XMNegateW@DirectX@UI@@3UXMVECTORF32@12@B	; UI::DirectX::g_XMNegateW
PUBLIC	?g_XMSelect0101@DirectX@UI@@3UXMVECTORU32@12@B	; UI::DirectX::g_XMSelect0101
PUBLIC	?g_XMSelect1010@DirectX@UI@@3UXMVECTORU32@12@B	; UI::DirectX::g_XMSelect1010
PUBLIC	?g_XMOneHalfMinusEpsilon@DirectX@UI@@3UXMVECTORI32@12@B ; UI::DirectX::g_XMOneHalfMinusEpsilon
PUBLIC	?g_XMSelect1000@DirectX@UI@@3UXMVECTORU32@12@B	; UI::DirectX::g_XMSelect1000
PUBLIC	?g_XMSelect1100@DirectX@UI@@3UXMVECTORU32@12@B	; UI::DirectX::g_XMSelect1100
PUBLIC	?g_XMSelect1110@DirectX@UI@@3UXMVECTORU32@12@B	; UI::DirectX::g_XMSelect1110
PUBLIC	?g_XMSelect1011@DirectX@UI@@3UXMVECTORU32@12@B	; UI::DirectX::g_XMSelect1011
PUBLIC	?g_XMFixupY16@DirectX@UI@@3UXMVECTORF32@12@B	; UI::DirectX::g_XMFixupY16
PUBLIC	?g_XMFixupY16W16@DirectX@UI@@3UXMVECTORF32@12@B	; UI::DirectX::g_XMFixupY16W16
PUBLIC	?g_XMFlipY@DirectX@UI@@3UXMVECTORU32@12@B	; UI::DirectX::g_XMFlipY
PUBLIC	?g_XMFlipZ@DirectX@UI@@3UXMVECTORU32@12@B	; UI::DirectX::g_XMFlipZ
PUBLIC	?g_XMFlipW@DirectX@UI@@3UXMVECTORU32@12@B	; UI::DirectX::g_XMFlipW
PUBLIC	?g_XMFlipYZ@DirectX@UI@@3UXMVECTORU32@12@B	; UI::DirectX::g_XMFlipYZ
PUBLIC	?g_XMFlipZW@DirectX@UI@@3UXMVECTORU32@12@B	; UI::DirectX::g_XMFlipZW
PUBLIC	?g_XMFlipYW@DirectX@UI@@3UXMVECTORU32@12@B	; UI::DirectX::g_XMFlipYW
PUBLIC	?g_XMMaskDec4@DirectX@UI@@3UXMVECTORI32@12@B	; UI::DirectX::g_XMMaskDec4
PUBLIC	?g_XMXorDec4@DirectX@UI@@3UXMVECTORI32@12@B	; UI::DirectX::g_XMXorDec4
PUBLIC	?g_XMAddUDec4@DirectX@UI@@3UXMVECTORF32@12@B	; UI::DirectX::g_XMAddUDec4
PUBLIC	?g_XMAddDec4@DirectX@UI@@3UXMVECTORF32@12@B	; UI::DirectX::g_XMAddDec4
PUBLIC	?g_XMMulDec4@DirectX@UI@@3UXMVECTORF32@12@B	; UI::DirectX::g_XMMulDec4
PUBLIC	?g_XMMaskByte4@DirectX@UI@@3UXMVECTORU32@12@B	; UI::DirectX::g_XMMaskByte4
PUBLIC	?g_XMXorByte4@DirectX@UI@@3UXMVECTORI32@12@B	; UI::DirectX::g_XMXorByte4
PUBLIC	?g_XMAddByte4@DirectX@UI@@3UXMVECTORF32@12@B	; UI::DirectX::g_XMAddByte4
PUBLIC	?g_XMFixUnsigned@DirectX@UI@@3UXMVECTORF32@12@B	; UI::DirectX::g_XMFixUnsigned
PUBLIC	?g_XMMaxInt@DirectX@UI@@3UXMVECTORF32@12@B	; UI::DirectX::g_XMMaxInt
PUBLIC	?g_XMMaxUInt@DirectX@UI@@3UXMVECTORF32@12@B	; UI::DirectX::g_XMMaxUInt
PUBLIC	?g_XMUnsignedFix@DirectX@UI@@3UXMVECTORF32@12@B	; UI::DirectX::g_XMUnsignedFix
PUBLIC	?g_XMsrgbScale@DirectX@UI@@3UXMVECTORF32@12@B	; UI::DirectX::g_XMsrgbScale
PUBLIC	?g_XMsrgbA@DirectX@UI@@3UXMVECTORF32@12@B	; UI::DirectX::g_XMsrgbA
PUBLIC	?g_XMsrgbA1@DirectX@UI@@3UXMVECTORF32@12@B	; UI::DirectX::g_XMsrgbA1
PUBLIC	?g_XMExponentBias@DirectX@UI@@3UXMVECTORI32@12@B ; UI::DirectX::g_XMExponentBias
PUBLIC	?g_XMSubnormalExponent@DirectX@UI@@3UXMVECTORI32@12@B ; UI::DirectX::g_XMSubnormalExponent
PUBLIC	?g_XMNumTrailing@DirectX@UI@@3UXMVECTORI32@12@B	; UI::DirectX::g_XMNumTrailing
PUBLIC	?g_XMMinNormal@DirectX@UI@@3UXMVECTORI32@12@B	; UI::DirectX::g_XMMinNormal
PUBLIC	?g_XMNegInfinity@DirectX@UI@@3UXMVECTORU32@12@B	; UI::DirectX::g_XMNegInfinity
PUBLIC	?g_XMNegQNaN@DirectX@UI@@3UXMVECTORU32@12@B	; UI::DirectX::g_XMNegQNaN
PUBLIC	?g_XMBin128@DirectX@UI@@3UXMVECTORI32@12@B	; UI::DirectX::g_XMBin128
PUBLIC	?g_XMBinNeg150@DirectX@UI@@3UXMVECTORU32@12@B	; UI::DirectX::g_XMBinNeg150
PUBLIC	?g_XM253@DirectX@UI@@3UXMVECTORI32@12@B		; UI::DirectX::g_XM253
PUBLIC	?g_XMExpEst1@DirectX@UI@@3UXMVECTORF32@12@B	; UI::DirectX::g_XMExpEst1
PUBLIC	?g_XMExpEst2@DirectX@UI@@3UXMVECTORF32@12@B	; UI::DirectX::g_XMExpEst2
PUBLIC	?g_XMExpEst3@DirectX@UI@@3UXMVECTORF32@12@B	; UI::DirectX::g_XMExpEst3
PUBLIC	?g_XMExpEst4@DirectX@UI@@3UXMVECTORF32@12@B	; UI::DirectX::g_XMExpEst4
PUBLIC	?g_XMExpEst5@DirectX@UI@@3UXMVECTORF32@12@B	; UI::DirectX::g_XMExpEst5
PUBLIC	?g_XMExpEst6@DirectX@UI@@3UXMVECTORF32@12@B	; UI::DirectX::g_XMExpEst6
PUBLIC	?g_XMExpEst7@DirectX@UI@@3UXMVECTORF32@12@B	; UI::DirectX::g_XMExpEst7
PUBLIC	?g_XMLogEst0@DirectX@UI@@3UXMVECTORF32@12@B	; UI::DirectX::g_XMLogEst0
PUBLIC	?g_XMLogEst1@DirectX@UI@@3UXMVECTORF32@12@B	; UI::DirectX::g_XMLogEst1
PUBLIC	?g_XMLogEst2@DirectX@UI@@3UXMVECTORF32@12@B	; UI::DirectX::g_XMLogEst2
PUBLIC	?g_XMLogEst3@DirectX@UI@@3UXMVECTORF32@12@B	; UI::DirectX::g_XMLogEst3
PUBLIC	?g_XMLogEst4@DirectX@UI@@3UXMVECTORF32@12@B	; UI::DirectX::g_XMLogEst4
PUBLIC	?g_XMLogEst5@DirectX@UI@@3UXMVECTORF32@12@B	; UI::DirectX::g_XMLogEst5
PUBLIC	?g_XMLogEst6@DirectX@UI@@3UXMVECTORF32@12@B	; UI::DirectX::g_XMLogEst6
PUBLIC	?g_XMLogEst7@DirectX@UI@@3UXMVECTORF32@12@B	; UI::DirectX::g_XMLogEst7
PUBLIC	?g_XMLgE@DirectX@UI@@3UXMVECTORF32@12@B		; UI::DirectX::g_XMLgE
PUBLIC	?g_XMInvLgE@DirectX@UI@@3UXMVECTORF32@12@B	; UI::DirectX::g_XMInvLgE
PUBLIC	?g_XMLg10@DirectX@UI@@3UXMVECTORF32@12@B	; UI::DirectX::g_XMLg10
PUBLIC	?g_XMInvLg10@DirectX@UI@@3UXMVECTORF32@12@B	; UI::DirectX::g_XMInvLg10
PUBLIC	?g_UByteMax@DirectX@UI@@3UXMVECTORF32@12@B	; UI::DirectX::g_UByteMax
PUBLIC	?g_ByteMin@DirectX@UI@@3UXMVECTORF32@12@B	; UI::DirectX::g_ByteMin
PUBLIC	?g_ByteMax@DirectX@UI@@3UXMVECTORF32@12@B	; UI::DirectX::g_ByteMax
PUBLIC	?g_ShortMin@DirectX@UI@@3UXMVECTORF32@12@B	; UI::DirectX::g_ShortMin
PUBLIC	?g_ShortMax@DirectX@UI@@3UXMVECTORF32@12@B	; UI::DirectX::g_ShortMax
PUBLIC	?g_UShortMax@DirectX@UI@@3UXMVECTORF32@12@B	; UI::DirectX::g_UShortMax
PUBLIC	_IID_IAMFilterGraphCallback
PUBLIC	?g_bOutlineBoxEnable@@3HA			; g_bOutlineBoxEnable
PUBLIC	_CLSID_VideoEffects1Category
PUBLIC	_CLSID_VideoEffects2Category
PUBLIC	_CLSID_AudioEffects1Category
PUBLIC	_CLSID_AudioEffects2Category
_BSS	SEGMENT
?g_bOutlineBoxEnable@@3HA DD 01H DUP (?)		; g_bOutlineBoxEnable
_BSS	ENDS
;	COMDAT _CLSID_AudioEffects2Category
CONST	SEGMENT
_CLSID_AudioEffects2Category DD 0cc7bfb45H
	DW	0f175H
	DW	011d1H
	DB	0a3H
	DB	092H
	DB	00H
	DB	0e0H
	DB	029H
	DB	01fH
	DB	039H
	DB	059H
CONST	ENDS
;	COMDAT _CLSID_AudioEffects1Category
CONST	SEGMENT
_CLSID_AudioEffects1Category DD 0cc7bfb44H
	DW	0f175H
	DW	011d1H
	DB	0a3H
	DB	092H
	DB	00H
	DB	0e0H
	DB	029H
	DB	01fH
	DB	039H
	DB	059H
CONST	ENDS
;	COMDAT _CLSID_VideoEffects2Category
CONST	SEGMENT
_CLSID_VideoEffects2Category DD 0cc7bfb43H
	DW	0f175H
	DW	011d1H
	DB	0a3H
	DB	092H
	DB	00H
	DB	0e0H
	DB	029H
	DB	01fH
	DB	039H
	DB	059H
CONST	ENDS
;	COMDAT _CLSID_VideoEffects1Category
CONST	SEGMENT
_CLSID_VideoEffects1Category DD 0cc7bfb42H
	DW	0f175H
	DW	011d1H
	DB	0a3H
	DB	092H
	DB	00H
	DB	0e0H
	DB	029H
	DB	01fH
	DB	039H
	DB	059H
CONST	ENDS
;	COMDAT _IID_IAMFilterGraphCallback
CONST	SEGMENT
_IID_IAMFilterGraphCallback DD 056a868fdH
	DW	0ad4H
	DW	011ceH
	DB	0b0H
	DB	0a3H
	DB	00H
	DB	020H
	DB	0afH
	DB	0bH
	DB	0a7H
	DB	070H
CONST	ENDS
;	COMDAT ?g_UShortMax@DirectX@UI@@3UXMVECTORF32@12@B
CONST	SEGMENT
?g_UShortMax@DirectX@UI@@3UXMVECTORF32@12@B DD 0477fff00r ; 65535 ; UI::DirectX::g_UShortMax
	DD	0477fff00r			; 65535
	DD	0477fff00r			; 65535
	DD	0477fff00r			; 65535
CONST	ENDS
;	COMDAT ?g_ShortMax@DirectX@UI@@3UXMVECTORF32@12@B
CONST	SEGMENT
?g_ShortMax@DirectX@UI@@3UXMVECTORF32@12@B DD 046fffe00r ; 32767 ; UI::DirectX::g_ShortMax
	DD	046fffe00r			; 32767
	DD	046fffe00r			; 32767
	DD	046fffe00r			; 32767
CONST	ENDS
;	COMDAT ?g_ShortMin@DirectX@UI@@3UXMVECTORF32@12@B
CONST	SEGMENT
?g_ShortMin@DirectX@UI@@3UXMVECTORF32@12@B DD 0c6fffe00r ; -32767 ; UI::DirectX::g_ShortMin
	DD	0c6fffe00r			; -32767
	DD	0c6fffe00r			; -32767
	DD	0c6fffe00r			; -32767
CONST	ENDS
;	COMDAT ?g_ByteMax@DirectX@UI@@3UXMVECTORF32@12@B
CONST	SEGMENT
?g_ByteMax@DirectX@UI@@3UXMVECTORF32@12@B DD 042fe0000r ; 127 ; UI::DirectX::g_ByteMax
	DD	042fe0000r			; 127
	DD	042fe0000r			; 127
	DD	042fe0000r			; 127
CONST	ENDS
;	COMDAT ?g_ByteMin@DirectX@UI@@3UXMVECTORF32@12@B
CONST	SEGMENT
?g_ByteMin@DirectX@UI@@3UXMVECTORF32@12@B DD 0c2fe0000r ; -127 ; UI::DirectX::g_ByteMin
	DD	0c2fe0000r			; -127
	DD	0c2fe0000r			; -127
	DD	0c2fe0000r			; -127
CONST	ENDS
;	COMDAT ?g_UByteMax@DirectX@UI@@3UXMVECTORF32@12@B
CONST	SEGMENT
?g_UByteMax@DirectX@UI@@3UXMVECTORF32@12@B DD 0437f0000r ; 255 ; UI::DirectX::g_UByteMax
	DD	0437f0000r			; 255
	DD	0437f0000r			; 255
	DD	0437f0000r			; 255
CONST	ENDS
;	COMDAT ?g_XMInvLg10@DirectX@UI@@3UXMVECTORF32@12@B
CONST	SEGMENT
?g_XMInvLg10@DirectX@UI@@3UXMVECTORF32@12@B DD 03e9a209br ; 0.30103 ; UI::DirectX::g_XMInvLg10
	DD	03e9a209br			; 0.30103
	DD	03e9a209br			; 0.30103
	DD	03e9a209br			; 0.30103
CONST	ENDS
;	COMDAT ?g_XMLg10@DirectX@UI@@3UXMVECTORF32@12@B
CONST	SEGMENT
?g_XMLg10@DirectX@UI@@3UXMVECTORF32@12@B DD 040549a78r ; 3.32193 ; UI::DirectX::g_XMLg10
	DD	040549a78r			; 3.32193
	DD	040549a78r			; 3.32193
	DD	040549a78r			; 3.32193
CONST	ENDS
;	COMDAT ?g_XMInvLgE@DirectX@UI@@3UXMVECTORF32@12@B
CONST	SEGMENT
?g_XMInvLgE@DirectX@UI@@3UXMVECTORF32@12@B DD 03f317218r ; 0.693147 ; UI::DirectX::g_XMInvLgE
	DD	03f317218r			; 0.693147
	DD	03f317218r			; 0.693147
	DD	03f317218r			; 0.693147
CONST	ENDS
;	COMDAT ?g_XMLgE@DirectX@UI@@3UXMVECTORF32@12@B
CONST	SEGMENT
?g_XMLgE@DirectX@UI@@3UXMVECTORF32@12@B DD 03fb8aa3br ; 1.4427 ; UI::DirectX::g_XMLgE
	DD	03fb8aa3br			; 1.4427
	DD	03fb8aa3br			; 1.4427
	DD	03fb8aa3br			; 1.4427
CONST	ENDS
;	COMDAT ?g_XMLogEst7@DirectX@UI@@3UXMVECTORF32@12@B
CONST	SEGMENT
?g_XMLogEst7@DirectX@UI@@3UXMVECTORF32@12@B DD 0bc2d4f59r ; -0.010578 ; UI::DirectX::g_XMLogEst7
	DD	0bc2d4f59r			; -0.010578
	DD	0bc2d4f59r			; -0.010578
	DD	0bc2d4f59r			; -0.010578
CONST	ENDS
;	COMDAT ?g_XMLogEst6@DirectX@UI@@3UXMVECTORF32@12@B
CONST	SEGMENT
?g_XMLogEst6@DirectX@UI@@3UXMVECTORF32@12@B DD 03d6a1405r ; 0.057148 ; UI::DirectX::g_XMLogEst6
	DD	03d6a1405r			; 0.057148
	DD	03d6a1405r			; 0.057148
	DD	03d6a1405r			; 0.057148
CONST	ENDS
;	COMDAT ?g_XMLogEst5@DirectX@UI@@3UXMVECTORF32@12@B
CONST	SEGMENT
?g_XMLogEst5@DirectX@UI@@3UXMVECTORF32@12@B DD 0be153261r ; -0.1457 ; UI::DirectX::g_XMLogEst5
	DD	0be153261r			; -0.1457
	DD	0be153261r			; -0.1457
	DD	0be153261r			; -0.1457
CONST	ENDS
;	COMDAT ?g_XMLogEst4@DirectX@UI@@3UXMVECTORF32@12@B
CONST	SEGMENT
?g_XMLogEst4@DirectX@UI@@3UXMVECTORF32@12@B DD 03e7e8e61r ; 0.24859 ; UI::DirectX::g_XMLogEst4
	DD	03e7e8e61r			; 0.24859
	DD	03e7e8e61r			; 0.24859
	DD	03e7e8e61r			; 0.24859
CONST	ENDS
;	COMDAT ?g_XMLogEst3@DirectX@UI@@3UXMVECTORF32@12@B
CONST	SEGMENT
?g_XMLogEst3@DirectX@UI@@3UXMVECTORF32@12@B DD 0beb359der ; -0.350295 ; UI::DirectX::g_XMLogEst3
	DD	0beb359der			; -0.350295
	DD	0beb359der			; -0.350295
	DD	0beb359der			; -0.350295
CONST	ENDS
;	COMDAT ?g_XMLogEst2@DirectX@UI@@3UXMVECTORF32@12@B
CONST	SEGMENT
?g_XMLogEst2@DirectX@UI@@3UXMVECTORF32@12@B DD 03ef571d2r ; 0.479384 ; UI::DirectX::g_XMLogEst2
	DD	03ef571d2r			; 0.479384
	DD	03ef571d2r			; 0.479384
	DD	03ef571d2r			; 0.479384
CONST	ENDS
;	COMDAT ?g_XMLogEst1@DirectX@UI@@3UXMVECTORF32@12@B
CONST	SEGMENT
?g_XMLogEst1@DirectX@UI@@3UXMVECTORF32@12@B DD 0bf38a351r ; -0.721242 ; UI::DirectX::g_XMLogEst1
	DD	0bf38a351r			; -0.721242
	DD	0bf38a351r			; -0.721242
	DD	0bf38a351r			; -0.721242
CONST	ENDS
;	COMDAT ?g_XMLogEst0@DirectX@UI@@3UXMVECTORF32@12@B
CONST	SEGMENT
?g_XMLogEst0@DirectX@UI@@3UXMVECTORF32@12@B DD 03fb8aa2ar ; 1.44269 ; UI::DirectX::g_XMLogEst0
	DD	03fb8aa2ar			; 1.44269
	DD	03fb8aa2ar			; 1.44269
	DD	03fb8aa2ar			; 1.44269
CONST	ENDS
;	COMDAT ?g_XMExpEst7@DirectX@UI@@3UXMVECTORF32@12@B
CONST	SEGMENT
?g_XMExpEst7@DirectX@UI@@3UXMVECTORF32@12@B DD 0b7364261r ; -1.08635e-05 ; UI::DirectX::g_XMExpEst7
	DD	0b7364261r			; -1.08635e-05
	DD	0b7364261r			; -1.08635e-05
	DD	0b7364261r			; -1.08635e-05
CONST	ENDS
;	COMDAT ?g_XMExpEst6@DirectX@UI@@3UXMVECTORF32@12@B
CONST	SEGMENT
?g_XMExpEst6@DirectX@UI@@3UXMVECTORF32@12@B DD 0391aa7d7r ; 0.000147491 ; UI::DirectX::g_XMExpEst6
	DD	0391aa7d7r			; 0.000147491
	DD	0391aa7d7r			; 0.000147491
	DD	0391aa7d7r			; 0.000147491
CONST	ENDS
;	COMDAT ?g_XMExpEst5@DirectX@UI@@3UXMVECTORF32@12@B
CONST	SEGMENT
?g_XMExpEst5@DirectX@UI@@3UXMVECTORF32@12@B DD 0baae1854r ; -0.00132824 ; UI::DirectX::g_XMExpEst5
	DD	0baae1854r			; -0.00132824
	DD	0baae1854r			; -0.00132824
	DD	0baae1854r			; -0.00132824
CONST	ENDS
;	COMDAT ?g_XMExpEst4@DirectX@UI@@3UXMVECTORF32@12@B
CONST	SEGMENT
?g_XMExpEst4@DirectX@UI@@3UXMVECTORF32@12@B DD 03c1d8c54r ; 0.00961598 ; UI::DirectX::g_XMExpEst4
	DD	03c1d8c54r			; 0.00961598
	DD	03c1d8c54r			; 0.00961598
	DD	03c1d8c54r			; 0.00961598
CONST	ENDS
;	COMDAT ?g_XMExpEst3@DirectX@UI@@3UXMVECTORF32@12@B
CONST	SEGMENT
?g_XMExpEst3@DirectX@UI@@3UXMVECTORF32@12@B DD 0bd6357car ; -0.0555036 ; UI::DirectX::g_XMExpEst3
	DD	0bd6357car			; -0.0555036
	DD	0bd6357car			; -0.0555036
	DD	0bd6357car			; -0.0555036
CONST	ENDS
;	COMDAT ?g_XMExpEst2@DirectX@UI@@3UXMVECTORF32@12@B
CONST	SEGMENT
?g_XMExpEst2@DirectX@UI@@3UXMVECTORF32@12@B DD 03e75fdedr ; 0.240226 ; UI::DirectX::g_XMExpEst2
	DD	03e75fdedr			; 0.240226
	DD	03e75fdedr			; 0.240226
	DD	03e75fdedr			; 0.240226
CONST	ENDS
;	COMDAT ?g_XMExpEst1@DirectX@UI@@3UXMVECTORF32@12@B
CONST	SEGMENT
?g_XMExpEst1@DirectX@UI@@3UXMVECTORF32@12@B DD 0bf317218r ; -0.693147 ; UI::DirectX::g_XMExpEst1
	DD	0bf317218r			; -0.693147
	DD	0bf317218r			; -0.693147
	DD	0bf317218r			; -0.693147
CONST	ENDS
;	COMDAT ?g_XM253@DirectX@UI@@3UXMVECTORI32@12@B
CONST	SEGMENT
?g_XM253@DirectX@UI@@3UXMVECTORI32@12@B DD 0fdH		; UI::DirectX::g_XM253
	DD	0fdH
	DD	0fdH
	DD	0fdH
CONST	ENDS
;	COMDAT ?g_XMBinNeg150@DirectX@UI@@3UXMVECTORU32@12@B
CONST	SEGMENT
?g_XMBinNeg150@DirectX@UI@@3UXMVECTORU32@12@B DD 0c3160000H ; UI::DirectX::g_XMBinNeg150
	DD	0c3160000H
	DD	0c3160000H
	DD	0c3160000H
CONST	ENDS
;	COMDAT ?g_XMBin128@DirectX@UI@@3UXMVECTORI32@12@B
CONST	SEGMENT
?g_XMBin128@DirectX@UI@@3UXMVECTORI32@12@B DD 043000000H ; UI::DirectX::g_XMBin128
	DD	043000000H
	DD	043000000H
	DD	043000000H
CONST	ENDS
;	COMDAT ?g_XMNegQNaN@DirectX@UI@@3UXMVECTORU32@12@B
CONST	SEGMENT
?g_XMNegQNaN@DirectX@UI@@3UXMVECTORU32@12@B DD 0ffc00000H ; UI::DirectX::g_XMNegQNaN
	DD	0ffc00000H
	DD	0ffc00000H
	DD	0ffc00000H
CONST	ENDS
;	COMDAT ?g_XMNegInfinity@DirectX@UI@@3UXMVECTORU32@12@B
CONST	SEGMENT
?g_XMNegInfinity@DirectX@UI@@3UXMVECTORU32@12@B DD 0ff800000H ; UI::DirectX::g_XMNegInfinity
	DD	0ff800000H
	DD	0ff800000H
	DD	0ff800000H
CONST	ENDS
;	COMDAT ?g_XMMinNormal@DirectX@UI@@3UXMVECTORI32@12@B
CONST	SEGMENT
?g_XMMinNormal@DirectX@UI@@3UXMVECTORI32@12@B DD 0800000H ; UI::DirectX::g_XMMinNormal
	DD	0800000H
	DD	0800000H
	DD	0800000H
CONST	ENDS
;	COMDAT ?g_XMNumTrailing@DirectX@UI@@3UXMVECTORI32@12@B
CONST	SEGMENT
?g_XMNumTrailing@DirectX@UI@@3UXMVECTORI32@12@B DD 017H	; UI::DirectX::g_XMNumTrailing
	DD	017H
	DD	017H
	DD	017H
CONST	ENDS
;	COMDAT ?g_XMSubnormalExponent@DirectX@UI@@3UXMVECTORI32@12@B
CONST	SEGMENT
?g_XMSubnormalExponent@DirectX@UI@@3UXMVECTORI32@12@B DD 0ffffff82H ; UI::DirectX::g_XMSubnormalExponent
	DD	0ffffff82H
	DD	0ffffff82H
	DD	0ffffff82H
CONST	ENDS
;	COMDAT ?g_XMExponentBias@DirectX@UI@@3UXMVECTORI32@12@B
CONST	SEGMENT
?g_XMExponentBias@DirectX@UI@@3UXMVECTORI32@12@B DD 07fH ; UI::DirectX::g_XMExponentBias
	DD	07fH
	DD	07fH
	DD	07fH
CONST	ENDS
;	COMDAT ?g_XMsrgbA1@DirectX@UI@@3UXMVECTORF32@12@B
CONST	SEGMENT
?g_XMsrgbA1@DirectX@UI@@3UXMVECTORF32@12@B DD 03f870a3dr ; 1.055 ; UI::DirectX::g_XMsrgbA1
	DD	03f870a3dr			; 1.055
	DD	03f870a3dr			; 1.055
	DD	03f800000r			; 1
CONST	ENDS
;	COMDAT ?g_XMsrgbA@DirectX@UI@@3UXMVECTORF32@12@B
CONST	SEGMENT
?g_XMsrgbA@DirectX@UI@@3UXMVECTORF32@12@B DD 03d6147aer ; 0.055 ; UI::DirectX::g_XMsrgbA
	DD	03d6147aer			; 0.055
	DD	03d6147aer			; 0.055
	DD	000000000r			; 0
CONST	ENDS
;	COMDAT ?g_XMsrgbScale@DirectX@UI@@3UXMVECTORF32@12@B
CONST	SEGMENT
?g_XMsrgbScale@DirectX@UI@@3UXMVECTORF32@12@B DD 0414eb852r ; 12.92 ; UI::DirectX::g_XMsrgbScale
	DD	0414eb852r			; 12.92
	DD	0414eb852r			; 12.92
	DD	03f800000r			; 1
CONST	ENDS
;	COMDAT ?g_XMUnsignedFix@DirectX@UI@@3UXMVECTORF32@12@B
CONST	SEGMENT
?g_XMUnsignedFix@DirectX@UI@@3UXMVECTORF32@12@B DD 04f000000r ; 2.14748e+09 ; UI::DirectX::g_XMUnsignedFix
	DD	04f000000r			; 2.14748e+09
	DD	04f000000r			; 2.14748e+09
	DD	04f000000r			; 2.14748e+09
CONST	ENDS
;	COMDAT ?g_XMMaxUInt@DirectX@UI@@3UXMVECTORF32@12@B
CONST	SEGMENT
?g_XMMaxUInt@DirectX@UI@@3UXMVECTORF32@12@B DD 04f7fffffr ; 4.29497e+09 ; UI::DirectX::g_XMMaxUInt
	DD	04f7fffffr			; 4.29497e+09
	DD	04f7fffffr			; 4.29497e+09
	DD	04f7fffffr			; 4.29497e+09
CONST	ENDS
;	COMDAT ?g_XMMaxInt@DirectX@UI@@3UXMVECTORF32@12@B
CONST	SEGMENT
?g_XMMaxInt@DirectX@UI@@3UXMVECTORF32@12@B DD 04effffffr ; 2.14748e+09 ; UI::DirectX::g_XMMaxInt
	DD	04effffffr			; 2.14748e+09
	DD	04effffffr			; 2.14748e+09
	DD	04effffffr			; 2.14748e+09
CONST	ENDS
;	COMDAT ?g_XMFixUnsigned@DirectX@UI@@3UXMVECTORF32@12@B
CONST	SEGMENT
?g_XMFixUnsigned@DirectX@UI@@3UXMVECTORF32@12@B DD 04f000000r ; 2.14748e+09 ; UI::DirectX::g_XMFixUnsigned
	DD	04f000000r			; 2.14748e+09
	DD	04f000000r			; 2.14748e+09
	DD	04f000000r			; 2.14748e+09
CONST	ENDS
;	COMDAT ?g_XMAddByte4@DirectX@UI@@3UXMVECTORF32@12@B
CONST	SEGMENT
?g_XMAddByte4@DirectX@UI@@3UXMVECTORF32@12@B DD 0c3000000r ; -128 ; UI::DirectX::g_XMAddByte4
	DD	0c7000000r			; -32768
	DD	0cb000000r			; -8.38861e+06
	DD	000000000r			; 0
CONST	ENDS
;	COMDAT ?g_XMXorByte4@DirectX@UI@@3UXMVECTORI32@12@B
CONST	SEGMENT
?g_XMXorByte4@DirectX@UI@@3UXMVECTORI32@12@B DD 080H	; UI::DirectX::g_XMXorByte4
	DD	08000H
	DD	0800000H
	DD	00H
CONST	ENDS
;	COMDAT ?g_XMMaskByte4@DirectX@UI@@3UXMVECTORU32@12@B
CONST	SEGMENT
?g_XMMaskByte4@DirectX@UI@@3UXMVECTORU32@12@B DD 0ffH	; UI::DirectX::g_XMMaskByte4
	DD	0ff00H
	DD	0ff0000H
	DD	0ff000000H
CONST	ENDS
;	COMDAT ?g_XMMulDec4@DirectX@UI@@3UXMVECTORF32@12@B
CONST	SEGMENT
?g_XMMulDec4@DirectX@UI@@3UXMVECTORF32@12@B DD 03f800000r ; 1 ; UI::DirectX::g_XMMulDec4
	DD	03a800000r			; 0.000976562
	DD	035800000r			; 9.53674e-07
	DD	030800000r			; 9.31323e-10
CONST	ENDS
;	COMDAT ?g_XMAddDec4@DirectX@UI@@3UXMVECTORF32@12@B
CONST	SEGMENT
?g_XMAddDec4@DirectX@UI@@3UXMVECTORF32@12@B DD 0c4000000r ; -512 ; UI::DirectX::g_XMAddDec4
	DD	0c9000000r			; -524288
	DD	0ce000000r			; -5.36871e+08
	DD	000000000r			; 0
CONST	ENDS
;	COMDAT ?g_XMAddUDec4@DirectX@UI@@3UXMVECTORF32@12@B
CONST	SEGMENT
?g_XMAddUDec4@DirectX@UI@@3UXMVECTORF32@12@B DD 000000000r ; 0 ; UI::DirectX::g_XMAddUDec4
	DD	000000000r			; 0
	DD	000000000r			; 0
	DD	04f000000r			; 2.14748e+09
CONST	ENDS
;	COMDAT ?g_XMXorDec4@DirectX@UI@@3UXMVECTORI32@12@B
CONST	SEGMENT
?g_XMXorDec4@DirectX@UI@@3UXMVECTORI32@12@B DD 0200H	; UI::DirectX::g_XMXorDec4
	DD	080000H
	DD	020000000H
	DD	00H
CONST	ENDS
;	COMDAT ?g_XMMaskDec4@DirectX@UI@@3UXMVECTORI32@12@B
CONST	SEGMENT
?g_XMMaskDec4@DirectX@UI@@3UXMVECTORI32@12@B DD 03ffH	; UI::DirectX::g_XMMaskDec4
	DD	0ffc00H
	DD	03ff00000H
	DD	0c0000000H
CONST	ENDS
;	COMDAT ?g_XMFlipYW@DirectX@UI@@3UXMVECTORU32@12@B
CONST	SEGMENT
?g_XMFlipYW@DirectX@UI@@3UXMVECTORU32@12@B DD 00H	; UI::DirectX::g_XMFlipYW
	DD	080000000H
	DD	00H
	DD	080000000H
CONST	ENDS
;	COMDAT ?g_XMFlipZW@DirectX@UI@@3UXMVECTORU32@12@B
CONST	SEGMENT
?g_XMFlipZW@DirectX@UI@@3UXMVECTORU32@12@B DD 00H	; UI::DirectX::g_XMFlipZW
	DD	00H
	DD	080000000H
	DD	080000000H
CONST	ENDS
;	COMDAT ?g_XMFlipYZ@DirectX@UI@@3UXMVECTORU32@12@B
CONST	SEGMENT
?g_XMFlipYZ@DirectX@UI@@3UXMVECTORU32@12@B DD 00H	; UI::DirectX::g_XMFlipYZ
	DD	080000000H
	DD	080000000H
	DD	00H
CONST	ENDS
;	COMDAT ?g_XMFlipW@DirectX@UI@@3UXMVECTORU32@12@B
CONST	SEGMENT
?g_XMFlipW@DirectX@UI@@3UXMVECTORU32@12@B DD 00H	; UI::DirectX::g_XMFlipW
	DD	00H
	DD	00H
	DD	080000000H
CONST	ENDS
;	COMDAT ?g_XMFlipZ@DirectX@UI@@3UXMVECTORU32@12@B
CONST	SEGMENT
?g_XMFlipZ@DirectX@UI@@3UXMVECTORU32@12@B DD 00H	; UI::DirectX::g_XMFlipZ
	DD	00H
	DD	080000000H
	DD	00H
CONST	ENDS
;	COMDAT ?g_XMFlipY@DirectX@UI@@3UXMVECTORU32@12@B
CONST	SEGMENT
?g_XMFlipY@DirectX@UI@@3UXMVECTORU32@12@B DD 00H	; UI::DirectX::g_XMFlipY
	DD	080000000H
	DD	00H
	DD	00H
CONST	ENDS
;	COMDAT ?g_XMFixupY16W16@DirectX@UI@@3UXMVECTORF32@12@B
CONST	SEGMENT
?g_XMFixupY16W16@DirectX@UI@@3UXMVECTORF32@12@B DD 03f800000r ; 1 ; UI::DirectX::g_XMFixupY16W16
	DD	03f800000r			; 1
	DD	037800000r			; 1.52588e-05
	DD	037800000r			; 1.52588e-05
CONST	ENDS
;	COMDAT ?g_XMFixupY16@DirectX@UI@@3UXMVECTORF32@12@B
CONST	SEGMENT
?g_XMFixupY16@DirectX@UI@@3UXMVECTORF32@12@B DD 03f800000r ; 1 ; UI::DirectX::g_XMFixupY16
	DD	037800000r			; 1.52588e-05
	DD	000000000r			; 0
	DD	000000000r			; 0
CONST	ENDS
;	COMDAT ?g_XMSelect1011@DirectX@UI@@3UXMVECTORU32@12@B
CONST	SEGMENT
?g_XMSelect1011@DirectX@UI@@3UXMVECTORU32@12@B DD 0ffffffffH ; UI::DirectX::g_XMSelect1011
	DD	00H
	DD	0ffffffffH
	DD	0ffffffffH
CONST	ENDS
;	COMDAT ?g_XMSelect1110@DirectX@UI@@3UXMVECTORU32@12@B
CONST	SEGMENT
?g_XMSelect1110@DirectX@UI@@3UXMVECTORU32@12@B DD 0ffffffffH ; UI::DirectX::g_XMSelect1110
	DD	0ffffffffH
	DD	0ffffffffH
	DD	00H
CONST	ENDS
;	COMDAT ?g_XMSelect1100@DirectX@UI@@3UXMVECTORU32@12@B
CONST	SEGMENT
?g_XMSelect1100@DirectX@UI@@3UXMVECTORU32@12@B DD 0ffffffffH ; UI::DirectX::g_XMSelect1100
	DD	0ffffffffH
	DD	00H
	DD	00H
CONST	ENDS
;	COMDAT ?g_XMSelect1000@DirectX@UI@@3UXMVECTORU32@12@B
CONST	SEGMENT
?g_XMSelect1000@DirectX@UI@@3UXMVECTORU32@12@B DD 0ffffffffH ; UI::DirectX::g_XMSelect1000
	DD	00H
	DD	00H
	DD	00H
CONST	ENDS
;	COMDAT ?g_XMOneHalfMinusEpsilon@DirectX@UI@@3UXMVECTORI32@12@B
CONST	SEGMENT
?g_XMOneHalfMinusEpsilon@DirectX@UI@@3UXMVECTORI32@12@B DD 03efffffdH ; UI::DirectX::g_XMOneHalfMinusEpsilon
	DD	03efffffdH
	DD	03efffffdH
	DD	03efffffdH
CONST	ENDS
;	COMDAT ?g_XMSelect1010@DirectX@UI@@3UXMVECTORU32@12@B
CONST	SEGMENT
?g_XMSelect1010@DirectX@UI@@3UXMVECTORU32@12@B DD 0ffffffffH ; UI::DirectX::g_XMSelect1010
	DD	00H
	DD	0ffffffffH
	DD	00H
CONST	ENDS
;	COMDAT ?g_XMSelect0101@DirectX@UI@@3UXMVECTORU32@12@B
CONST	SEGMENT
?g_XMSelect0101@DirectX@UI@@3UXMVECTORU32@12@B DD 00H	; UI::DirectX::g_XMSelect0101
	DD	0ffffffffH
	DD	00H
	DD	0ffffffffH
CONST	ENDS
;	COMDAT ?g_XMNegateW@DirectX@UI@@3UXMVECTORF32@12@B
CONST	SEGMENT
?g_XMNegateW@DirectX@UI@@3UXMVECTORF32@12@B DD 03f800000r ; 1 ; UI::DirectX::g_XMNegateW
	DD	03f800000r			; 1
	DD	03f800000r			; 1
	DD	0bf800000r			; -1
CONST	ENDS
;	COMDAT ?g_XMNegateZ@DirectX@UI@@3UXMVECTORF32@12@B
CONST	SEGMENT
?g_XMNegateZ@DirectX@UI@@3UXMVECTORF32@12@B DD 03f800000r ; 1 ; UI::DirectX::g_XMNegateZ
	DD	03f800000r			; 1
	DD	0bf800000r			; -1
	DD	03f800000r			; 1
CONST	ENDS
;	COMDAT ?g_XMNegateY@DirectX@UI@@3UXMVECTORF32@12@B
CONST	SEGMENT
?g_XMNegateY@DirectX@UI@@3UXMVECTORF32@12@B DD 03f800000r ; 1 ; UI::DirectX::g_XMNegateY
	DD	0bf800000r			; -1
	DD	03f800000r			; 1
	DD	03f800000r			; 1
CONST	ENDS
;	COMDAT ?g_XMNegateX@DirectX@UI@@3UXMVECTORF32@12@B
CONST	SEGMENT
?g_XMNegateX@DirectX@UI@@3UXMVECTORF32@12@B DD 0bf800000r ; -1 ; UI::DirectX::g_XMNegateX
	DD	03f800000r			; 1
	DD	03f800000r			; 1
	DD	03f800000r			; 1
CONST	ENDS
;	COMDAT ?g_XMMaskByte@DirectX@UI@@3UXMVECTORI32@12@B
CONST	SEGMENT
?g_XMMaskByte@DirectX@UI@@3UXMVECTORI32@12@B DD 0ffH	; UI::DirectX::g_XMMaskByte
	DD	0ffH
	DD	0ffH
	DD	0ffH
CONST	ENDS
;	COMDAT ?g_XMNoFraction@DirectX@UI@@3UXMVECTORF32@12@B
CONST	SEGMENT
?g_XMNoFraction@DirectX@UI@@3UXMVECTORF32@12@B DD 04b000000r ; 8.38861e+06 ; UI::DirectX::g_XMNoFraction
	DD	04b000000r			; 8.38861e+06
	DD	04b000000r			; 8.38861e+06
	DD	04b000000r			; 8.38861e+06
CONST	ENDS
;	COMDAT ?g_XMNormalizeX16Y16Z16W16@DirectX@UI@@3UXMVECTORF32@12@B
CONST	SEGMENT
?g_XMNormalizeX16Y16Z16W16@DirectX@UI@@3UXMVECTORF32@12@B DD 038000100r ; 3.05185e-05 ; UI::DirectX::g_XMNormalizeX16Y16Z16W16
	DD	038000100r			; 3.05185e-05
	DD	030000100r			; 4.65675e-10
	DD	030000100r			; 4.65675e-10
CONST	ENDS
;	COMDAT ?g_XMFixX16Y16Z16W16@DirectX@UI@@3UXMVECTORF32@12@B
CONST	SEGMENT
?g_XMFixX16Y16Z16W16@DirectX@UI@@3UXMVECTORF32@12@B DD 0c7000000r ; -32768 ; UI::DirectX::g_XMFixX16Y16Z16W16
	DD	0c7000000r			; -32768
	DD	000000000r			; 0
	DD	000000000r			; 0
CONST	ENDS
;	COMDAT ?g_XMFlipX16Y16Z16W16@DirectX@UI@@3UXMVECTORI32@12@B
CONST	SEGMENT
?g_XMFlipX16Y16Z16W16@DirectX@UI@@3UXMVECTORI32@12@B DD 08000H ; UI::DirectX::g_XMFlipX16Y16Z16W16
	DD	08000H
	DD	00H
	DD	00H
CONST	ENDS
;	COMDAT ?g_XMMaskX16Y16Z16W16@DirectX@UI@@3UXMVECTORU32@12@B
CONST	SEGMENT
?g_XMMaskX16Y16Z16W16@DirectX@UI@@3UXMVECTORU32@12@B DD 0ffffH ; UI::DirectX::g_XMMaskX16Y16Z16W16
	DD	0ffffH
	DD	0ffff0000H
	DD	0ffff0000H
CONST	ENDS
;	COMDAT ?g_XMNormalizeX16Y16@DirectX@UI@@3UXMVECTORF32@12@B
CONST	SEGMENT
?g_XMNormalizeX16Y16@DirectX@UI@@3UXMVECTORF32@12@B DD 038000100r ; 3.05185e-05 ; UI::DirectX::g_XMNormalizeX16Y16
	DD	030000100r			; 4.65675e-10
	DD	000000000r			; 0
	DD	000000000r			; 0
CONST	ENDS
;	COMDAT ?g_XMFixX16Y16@DirectX@UI@@3UXMVECTORF32@12@B
CONST	SEGMENT
?g_XMFixX16Y16@DirectX@UI@@3UXMVECTORF32@12@B DD 0c7000000r ; -32768 ; UI::DirectX::g_XMFixX16Y16
	DD	000000000r			; 0
	DD	000000000r			; 0
	DD	000000000r			; 0
CONST	ENDS
;	COMDAT ?g_XMFlipX16Y16@DirectX@UI@@3UXMVECTORI32@12@B
CONST	SEGMENT
?g_XMFlipX16Y16@DirectX@UI@@3UXMVECTORI32@12@B DD 08000H ; UI::DirectX::g_XMFlipX16Y16
	DD	00H
	DD	00H
	DD	00H
CONST	ENDS
;	COMDAT ?g_XMMaskX16Y16@DirectX@UI@@3UXMVECTORU32@12@B
CONST	SEGMENT
?g_XMMaskX16Y16@DirectX@UI@@3UXMVECTORU32@12@B DD 0ffffH ; UI::DirectX::g_XMMaskX16Y16
	DD	0ffff0000H
	DD	00H
	DD	00H
CONST	ENDS
;	COMDAT ?g_XMNormalizeA2B10G10R10@DirectX@UI@@3UXMVECTORF32@12@B
CONST	SEGMENT
?g_XMNormalizeA2B10G10R10@DirectX@UI@@3UXMVECTORF32@12@B DD 03b004020r ; 0.00195695 ; UI::DirectX::g_XMNormalizeA2B10G10R10
	DD	036004020r			; 1.91108e-06
	DD	031004020r			; 1.86629e-09
	DD	02faaaaabr			; 3.10441e-10
CONST	ENDS
;	COMDAT ?g_XMFixAA2B10G10R10@DirectX@UI@@3UXMVECTORF32@12@B
CONST	SEGMENT
?g_XMFixAA2B10G10R10@DirectX@UI@@3UXMVECTORF32@12@B DD 0c4000000r ; -512 ; UI::DirectX::g_XMFixAA2B10G10R10
	DD	0c9000000r			; -524288
	DD	0ce000000r			; -5.36871e+08
	DD	04f000000r			; 2.14748e+09
CONST	ENDS
;	COMDAT ?g_XMFlipA2B10G10R10@DirectX@UI@@3UXMVECTORU32@12@B
CONST	SEGMENT
?g_XMFlipA2B10G10R10@DirectX@UI@@3UXMVECTORU32@12@B DD 0200H ; UI::DirectX::g_XMFlipA2B10G10R10
	DD	080000H
	DD	020000000H
	DD	080000000H
CONST	ENDS
;	COMDAT ?g_XMMaskA2B10G10R10@DirectX@UI@@3UXMVECTORU32@12@B
CONST	SEGMENT
?g_XMMaskA2B10G10R10@DirectX@UI@@3UXMVECTORU32@12@B DD 03ffH ; UI::DirectX::g_XMMaskA2B10G10R10
	DD	0ffc00H
	DD	03ff00000H
	DD	0c0000000H
CONST	ENDS
;	COMDAT ?g_XMNormalizeA8R8G8B8@DirectX@UI@@3UXMVECTORF32@12@B
CONST	SEGMENT
?g_XMNormalizeA8R8G8B8@DirectX@UI@@3UXMVECTORF32@12@B DD 033808081r ; 5.98384e-08 ; UI::DirectX::g_XMNormalizeA8R8G8B8
	DD	037808081r			; 1.53186e-05
	DD	03b808081r			; 0.00392157
	DD	02f808081r			; 2.33744e-10
CONST	ENDS
;	COMDAT ?g_XMFixAA8R8G8B8@DirectX@UI@@3UXMVECTORF32@12@B
CONST	SEGMENT
?g_XMFixAA8R8G8B8@DirectX@UI@@3UXMVECTORF32@12@B DD 000000000r ; 0 ; UI::DirectX::g_XMFixAA8R8G8B8
	DD	000000000r			; 0
	DD	000000000r			; 0
	DD	04f000000r			; 2.14748e+09
CONST	ENDS
;	COMDAT ?g_XMFlipA8R8G8B8@DirectX@UI@@3UXMVECTORU32@12@B
CONST	SEGMENT
?g_XMFlipA8R8G8B8@DirectX@UI@@3UXMVECTORU32@12@B DD 00H	; UI::DirectX::g_XMFlipA8R8G8B8
	DD	00H
	DD	00H
	DD	080000000H
CONST	ENDS
;	COMDAT ?g_XMMaskA8R8G8B8@DirectX@UI@@3UXMVECTORU32@12@B
CONST	SEGMENT
?g_XMMaskA8R8G8B8@DirectX@UI@@3UXMVECTORU32@12@B DD 0ff0000H ; UI::DirectX::g_XMMaskA8R8G8B8
	DD	0ff00H
	DD	0ffH
	DD	0ff000000H
CONST	ENDS
;	COMDAT ?g_XMNegOneMask@DirectX@UI@@3UXMVECTORU32@12@B
CONST	SEGMENT
?g_XMNegOneMask@DirectX@UI@@3UXMVECTORU32@12@B DD 0ffffffffH ; UI::DirectX::g_XMNegOneMask
	DD	0ffffffffH
	DD	0ffffffffH
	DD	0ffffffffH
CONST	ENDS
;	COMDAT ?g_XMFltMax@DirectX@UI@@3UXMVECTORI32@12@B
CONST	SEGMENT
?g_XMFltMax@DirectX@UI@@3UXMVECTORI32@12@B DD 07f7fffffH ; UI::DirectX::g_XMFltMax
	DD	07f7fffffH
	DD	07f7fffffH
	DD	07f7fffffH
CONST	ENDS
;	COMDAT ?g_XMFltMin@DirectX@UI@@3UXMVECTORI32@12@B
CONST	SEGMENT
?g_XMFltMin@DirectX@UI@@3UXMVECTORI32@12@B DD 0800000H	; UI::DirectX::g_XMFltMin
	DD	0800000H
	DD	0800000H
	DD	0800000H
CONST	ENDS
;	COMDAT ?g_XMAbsMask@DirectX@UI@@3UXMVECTORI32@12@B
CONST	SEGMENT
?g_XMAbsMask@DirectX@UI@@3UXMVECTORI32@12@B DD 07fffffffH ; UI::DirectX::g_XMAbsMask
	DD	07fffffffH
	DD	07fffffffH
	DD	07fffffffH
CONST	ENDS
;	COMDAT ?g_XMQNaNTest@DirectX@UI@@3UXMVECTORI32@12@B
CONST	SEGMENT
?g_XMQNaNTest@DirectX@UI@@3UXMVECTORI32@12@B DD 07fffffH ; UI::DirectX::g_XMQNaNTest
	DD	07fffffH
	DD	07fffffH
	DD	07fffffH
CONST	ENDS
;	COMDAT ?g_XMQNaN@DirectX@UI@@3UXMVECTORI32@12@B
CONST	SEGMENT
?g_XMQNaN@DirectX@UI@@3UXMVECTORI32@12@B DD 07fc00000H	; UI::DirectX::g_XMQNaN
	DD	07fc00000H
	DD	07fc00000H
	DD	07fc00000H
CONST	ENDS
;	COMDAT ?g_XMInfinity@DirectX@UI@@3UXMVECTORI32@12@B
CONST	SEGMENT
?g_XMInfinity@DirectX@UI@@3UXMVECTORI32@12@B DD 07f800000H ; UI::DirectX::g_XMInfinity
	DD	07f800000H
	DD	07f800000H
	DD	07f800000H
CONST	ENDS
;	COMDAT ?g_XMEpsilon@DirectX@UI@@3UXMVECTORF32@12@B
CONST	SEGMENT
?g_XMEpsilon@DirectX@UI@@3UXMVECTORF32@12@B DD 034000000r ; 1.19209e-07 ; UI::DirectX::g_XMEpsilon
	DD	034000000r			; 1.19209e-07
	DD	034000000r			; 1.19209e-07
	DD	034000000r			; 1.19209e-07
CONST	ENDS
;	COMDAT ?g_XMReciprocalTwoPi@DirectX@UI@@3UXMVECTORF32@12@B
CONST	SEGMENT
?g_XMReciprocalTwoPi@DirectX@UI@@3UXMVECTORF32@12@B DD 03e22f983r ; 0.159155 ; UI::DirectX::g_XMReciprocalTwoPi
	DD	03e22f983r			; 0.159155
	DD	03e22f983r			; 0.159155
	DD	03e22f983r			; 0.159155
CONST	ENDS
;	COMDAT ?g_XMTwoPi@DirectX@UI@@3UXMVECTORF32@12@B
CONST	SEGMENT
?g_XMTwoPi@DirectX@UI@@3UXMVECTORF32@12@B DD 040c90fdbr ; 6.28319 ; UI::DirectX::g_XMTwoPi
	DD	040c90fdbr			; 6.28319
	DD	040c90fdbr			; 6.28319
	DD	040c90fdbr			; 6.28319
CONST	ENDS
;	COMDAT ?g_XMReciprocalPi@DirectX@UI@@3UXMVECTORF32@12@B
CONST	SEGMENT
?g_XMReciprocalPi@DirectX@UI@@3UXMVECTORF32@12@B DD 03ea2f983r ; 0.31831 ; UI::DirectX::g_XMReciprocalPi
	DD	03ea2f983r			; 0.31831
	DD	03ea2f983r			; 0.31831
	DD	03ea2f983r			; 0.31831
CONST	ENDS
;	COMDAT ?g_XMPi@DirectX@UI@@3UXMVECTORF32@12@B
CONST	SEGMENT
?g_XMPi@DirectX@UI@@3UXMVECTORF32@12@B DD 040490fdbr ; 3.14159 ; UI::DirectX::g_XMPi
	DD	040490fdbr			; 3.14159
	DD	040490fdbr			; 3.14159
	DD	040490fdbr			; 3.14159
CONST	ENDS
;	COMDAT ?g_XMHalfPi@DirectX@UI@@3UXMVECTORF32@12@B
CONST	SEGMENT
?g_XMHalfPi@DirectX@UI@@3UXMVECTORF32@12@B DD 03fc90fdbr ; 1.5708 ; UI::DirectX::g_XMHalfPi
	DD	03fc90fdbr			; 1.5708
	DD	03fc90fdbr			; 1.5708
	DD	03fc90fdbr			; 1.5708
CONST	ENDS
;	COMDAT ?g_XMNegativePi@DirectX@UI@@3UXMVECTORF32@12@B
CONST	SEGMENT
?g_XMNegativePi@DirectX@UI@@3UXMVECTORF32@12@B DD 0c0490fdbr ; -3.14159 ; UI::DirectX::g_XMNegativePi
	DD	0c0490fdbr			; -3.14159
	DD	0c0490fdbr			; -3.14159
	DD	0c0490fdbr			; -3.14159
CONST	ENDS
;	COMDAT ?g_XMNegativeTwoPi@DirectX@UI@@3UXMVECTORF32@12@B
CONST	SEGMENT
?g_XMNegativeTwoPi@DirectX@UI@@3UXMVECTORF32@12@B DD 0c0c90fdbr ; -6.28319 ; UI::DirectX::g_XMNegativeTwoPi
	DD	0c0c90fdbr			; -6.28319
	DD	0c0c90fdbr			; -6.28319
	DD	0c0c90fdbr			; -6.28319
CONST	ENDS
;	COMDAT ?g_XMNegativeOneHalf@DirectX@UI@@3UXMVECTORF32@12@B
CONST	SEGMENT
?g_XMNegativeOneHalf@DirectX@UI@@3UXMVECTORF32@12@B DD 0bf000000r ; -0.5 ; UI::DirectX::g_XMNegativeOneHalf
	DD	0bf000000r			; -0.5
	DD	0bf000000r			; -0.5
	DD	0bf000000r			; -0.5
CONST	ENDS
;	COMDAT ?g_XMOneHalf@DirectX@UI@@3UXMVECTORF32@12@B
CONST	SEGMENT
?g_XMOneHalf@DirectX@UI@@3UXMVECTORF32@12@B DD 03f000000r ; 0.5 ; UI::DirectX::g_XMOneHalf
	DD	03f000000r			; 0.5
	DD	03f000000r			; 0.5
	DD	03f000000r			; 0.5
CONST	ENDS
;	COMDAT ?g_XMNegativeOne@DirectX@UI@@3UXMVECTORF32@12@B
CONST	SEGMENT
?g_XMNegativeOne@DirectX@UI@@3UXMVECTORF32@12@B DD 0bf800000r ; -1 ; UI::DirectX::g_XMNegativeOne
	DD	0bf800000r			; -1
	DD	0bf800000r			; -1
	DD	0bf800000r			; -1
CONST	ENDS
;	COMDAT ?g_XMSix@DirectX@UI@@3UXMVECTORF32@12@B
CONST	SEGMENT
?g_XMSix@DirectX@UI@@3UXMVECTORF32@12@B DD 040c00000r ; 6 ; UI::DirectX::g_XMSix
	DD	040c00000r			; 6
	DD	040c00000r			; 6
	DD	040c00000r			; 6
CONST	ENDS
;	COMDAT ?g_XMFour@DirectX@UI@@3UXMVECTORF32@12@B
CONST	SEGMENT
?g_XMFour@DirectX@UI@@3UXMVECTORF32@12@B DD 040800000r ; 4 ; UI::DirectX::g_XMFour
	DD	040800000r			; 4
	DD	040800000r			; 4
	DD	040800000r			; 4
CONST	ENDS
;	COMDAT ?g_XMTwo@DirectX@UI@@3UXMVECTORF32@12@B
CONST	SEGMENT
?g_XMTwo@DirectX@UI@@3UXMVECTORF32@12@B DD 040000000r ; 2 ; UI::DirectX::g_XMTwo
	DD	040000000r			; 2
	DD	040000000r			; 2
	DD	040000000r			; 2
CONST	ENDS
;	COMDAT ?g_XMZero@DirectX@UI@@3UXMVECTORF32@12@B
CONST	SEGMENT
?g_XMZero@DirectX@UI@@3UXMVECTORF32@12@B DD 000000000r ; 0 ; UI::DirectX::g_XMZero
	DD	000000000r			; 0
	DD	000000000r			; 0
	DD	000000000r			; 0
CONST	ENDS
;	COMDAT ?g_XMOne3@DirectX@UI@@3UXMVECTORF32@12@B
CONST	SEGMENT
?g_XMOne3@DirectX@UI@@3UXMVECTORF32@12@B DD 03f800000r ; 1 ; UI::DirectX::g_XMOne3
	DD	03f800000r			; 1
	DD	03f800000r			; 1
	DD	000000000r			; 0
CONST	ENDS
;	COMDAT ?g_XMOne@DirectX@UI@@3UXMVECTORF32@12@B
CONST	SEGMENT
?g_XMOne@DirectX@UI@@3UXMVECTORF32@12@B DD 03f800000r ; 1 ; UI::DirectX::g_XMOne
	DD	03f800000r			; 1
	DD	03f800000r			; 1
	DD	03f800000r			; 1
CONST	ENDS
;	COMDAT ?g_XMMaskW@DirectX@UI@@3UXMVECTORU32@12@B
CONST	SEGMENT
?g_XMMaskW@DirectX@UI@@3UXMVECTORU32@12@B DD 00H	; UI::DirectX::g_XMMaskW
	DD	00H
	DD	00H
	DD	0ffffffffH
CONST	ENDS
;	COMDAT ?g_XMMaskZ@DirectX@UI@@3UXMVECTORU32@12@B
CONST	SEGMENT
?g_XMMaskZ@DirectX@UI@@3UXMVECTORU32@12@B DD 00H	; UI::DirectX::g_XMMaskZ
	DD	00H
	DD	0ffffffffH
	DD	00H
CONST	ENDS
;	COMDAT ?g_XMMaskY@DirectX@UI@@3UXMVECTORU32@12@B
CONST	SEGMENT
?g_XMMaskY@DirectX@UI@@3UXMVECTORU32@12@B DD 00H	; UI::DirectX::g_XMMaskY
	DD	0ffffffffH
	DD	00H
	DD	00H
CONST	ENDS
;	COMDAT ?g_XMMaskX@DirectX@UI@@3UXMVECTORU32@12@B
CONST	SEGMENT
?g_XMMaskX@DirectX@UI@@3UXMVECTORU32@12@B DD 0ffffffffH	; UI::DirectX::g_XMMaskX
	DD	00H
	DD	00H
	DD	00H
CONST	ENDS
;	COMDAT ?g_XMMask3@DirectX@UI@@3UXMVECTORU32@12@B
CONST	SEGMENT
?g_XMMask3@DirectX@UI@@3UXMVECTORU32@12@B DD 0ffffffffH	; UI::DirectX::g_XMMask3
	DD	0ffffffffH
	DD	0ffffffffH
	DD	00H
CONST	ENDS
;	COMDAT ?g_XMMaskXY@DirectX@UI@@3UXMVECTORU32@12@B
CONST	SEGMENT
?g_XMMaskXY@DirectX@UI@@3UXMVECTORU32@12@B DD 0ffffffffH ; UI::DirectX::g_XMMaskXY
	DD	0ffffffffH
	DD	00H
	DD	00H
CONST	ENDS
;	COMDAT ?g_XMNegate3@DirectX@UI@@3UXMVECTORU32@12@B
CONST	SEGMENT
?g_XMNegate3@DirectX@UI@@3UXMVECTORU32@12@B DD 080000000H ; UI::DirectX::g_XMNegate3
	DD	080000000H
	DD	080000000H
	DD	00H
CONST	ENDS
;	COMDAT ?g_XMNegativeZero@DirectX@UI@@3UXMVECTORU32@12@B
CONST	SEGMENT
?g_XMNegativeZero@DirectX@UI@@3UXMVECTORU32@12@B DD 080000000H ; UI::DirectX::g_XMNegativeZero
	DD	080000000H
	DD	080000000H
	DD	080000000H
CONST	ENDS
;	COMDAT ?g_XMNegIdentityR3@DirectX@UI@@3UXMVECTORF32@12@B
CONST	SEGMENT
?g_XMNegIdentityR3@DirectX@UI@@3UXMVECTORF32@12@B DD 000000000r ; 0 ; UI::DirectX::g_XMNegIdentityR3
	DD	000000000r			; 0
	DD	000000000r			; 0
	DD	0bf800000r			; -1
CONST	ENDS
;	COMDAT ?g_XMNegIdentityR2@DirectX@UI@@3UXMVECTORF32@12@B
CONST	SEGMENT
?g_XMNegIdentityR2@DirectX@UI@@3UXMVECTORF32@12@B DD 000000000r ; 0 ; UI::DirectX::g_XMNegIdentityR2
	DD	000000000r			; 0
	DD	0bf800000r			; -1
	DD	000000000r			; 0
CONST	ENDS
;	COMDAT ?g_XMNegIdentityR1@DirectX@UI@@3UXMVECTORF32@12@B
CONST	SEGMENT
?g_XMNegIdentityR1@DirectX@UI@@3UXMVECTORF32@12@B DD 000000000r ; 0 ; UI::DirectX::g_XMNegIdentityR1
	DD	0bf800000r			; -1
	DD	000000000r			; 0
	DD	000000000r			; 0
CONST	ENDS
;	COMDAT ?g_XMNegIdentityR0@DirectX@UI@@3UXMVECTORF32@12@B
CONST	SEGMENT
?g_XMNegIdentityR0@DirectX@UI@@3UXMVECTORF32@12@B DD 0bf800000r ; -1 ; UI::DirectX::g_XMNegIdentityR0
	DD	000000000r			; 0
	DD	000000000r			; 0
	DD	000000000r			; 0
CONST	ENDS
;	COMDAT ?g_XMIdentityR3@DirectX@UI@@3UXMVECTORF32@12@B
CONST	SEGMENT
?g_XMIdentityR3@DirectX@UI@@3UXMVECTORF32@12@B DD 000000000r ; 0 ; UI::DirectX::g_XMIdentityR3
	DD	000000000r			; 0
	DD	000000000r			; 0
	DD	03f800000r			; 1
CONST	ENDS
;	COMDAT ?g_XMIdentityR2@DirectX@UI@@3UXMVECTORF32@12@B
CONST	SEGMENT
?g_XMIdentityR2@DirectX@UI@@3UXMVECTORF32@12@B DD 000000000r ; 0 ; UI::DirectX::g_XMIdentityR2
	DD	000000000r			; 0
	DD	03f800000r			; 1
	DD	000000000r			; 0
CONST	ENDS
;	COMDAT ?g_XMIdentityR1@DirectX@UI@@3UXMVECTORF32@12@B
CONST	SEGMENT
?g_XMIdentityR1@DirectX@UI@@3UXMVECTORF32@12@B DD 000000000r ; 0 ; UI::DirectX::g_XMIdentityR1
	DD	03f800000r			; 1
	DD	000000000r			; 0
	DD	000000000r			; 0
CONST	ENDS
;	COMDAT ?g_XMIdentityR0@DirectX@UI@@3UXMVECTORF32@12@B
CONST	SEGMENT
?g_XMIdentityR0@DirectX@UI@@3UXMVECTORF32@12@B DD 03f800000r ; 1 ; UI::DirectX::g_XMIdentityR0
	DD	000000000r			; 0
	DD	000000000r			; 0
	DD	000000000r			; 0
CONST	ENDS
;	COMDAT ?g_XMPiConstants0@DirectX@UI@@3UXMVECTORF32@12@B
CONST	SEGMENT
?g_XMPiConstants0@DirectX@UI@@3UXMVECTORF32@12@B DD 040490fdbr ; 3.14159 ; UI::DirectX::g_XMPiConstants0
	DD	040c90fdbr			; 6.28319
	DD	03ea2f983r			; 0.31831
	DD	03e22f983r			; 0.159155
CONST	ENDS
;	COMDAT ?g_XMArcEstCoefficients@DirectX@UI@@3UXMVECTORF32@12@B
CONST	SEGMENT
?g_XMArcEstCoefficients@DirectX@UI@@3UXMVECTORF32@12@B DD 03fc90da4r ; 1.57073 ; UI::DirectX::g_XMArcEstCoefficients
	DD	0be593484r			; -0.212114
	DD	03d981627r			; 0.074261
	DD	0bc996e30r			; -0.0187293
CONST	ENDS
;	COMDAT ?g_XMTanEstCoefficients@DirectX@UI@@3UXMVECTORF32@12@B
CONST	SEGMENT
?g_XMTanEstCoefficients@DirectX@UI@@3UXMVECTORF32@12@B DD 0401ef9dbr ; 2.484 ; UI::DirectX::g_XMTanEstCoefficients
	DD	0be482f23r			; -0.195492
	DD	0401de9e6r			; 2.4674
	DD	03ea2f983r			; 0.31831
CONST	ENDS
;	COMDAT ?g_XMATanEstCoefficients1@DirectX@UI@@3UXMVECTORF32@12@B
CONST	SEGMENT
?g_XMATanEstCoefficients1@DirectX@UI@@3UXMVECTORF32@12@B DD 0bea91d04r ; -0.330299 ; UI::DirectX::g_XMATanEstCoefficients1
	DD	03e3876e2r			; 0.180141
	DD	0bdae5a36r			; -0.085133
	DD	03caaae5fr			; 0.0208351
CONST	ENDS
;	COMDAT ?g_XMATanEstCoefficients0@DirectX@UI@@3UXMVECTORF32@12@B
CONST	SEGMENT
?g_XMATanEstCoefficients0@DirectX@UI@@3UXMVECTORF32@12@B DD 03f7ff738r ; 0.999866 ; UI::DirectX::g_XMATanEstCoefficients0
	DD	03f7ff738r			; 0.999866
	DD	03f7ff738r			; 0.999866
	DD	03f7ff738r			; 0.999866
CONST	ENDS
;	COMDAT ?g_XMATanCoefficients1@DirectX@UI@@3UXMVECTORF32@12@B
CONST	SEGMENT
?g_XMATanCoefficients1@DirectX@UI@@3UXMVECTORF32@12@B DD 0bd9a3174r ; -0.0752896 ; UI::DirectX::g_XMATanCoefficients1
	DD	03d2fc1fer			; 0.0429096
	DD	0bc846e02r			; -0.0161657
	DD	03b3bd74ar			; 0.00286623
CONST	ENDS
;	COMDAT ?g_XMATanCoefficients0@DirectX@UI@@3UXMVECTORF32@12@B
CONST	SEGMENT
?g_XMATanCoefficients0@DirectX@UI@@3UXMVECTORF32@12@B DD 0beaaaa6cr ; -0.333331 ; UI::DirectX::g_XMATanCoefficients0
	DD	03e4cbbe5r			; 0.199936
	DD	0be117fc7r			; -0.142089
	DD	03dda3d83r			; 0.106563
CONST	ENDS
;	COMDAT ?g_XMArcCoefficients1@DirectX@UI@@3UXMVECTORF32@12@B
CONST	SEGMENT
?g_XMArcCoefficients1@DirectX@UI@@3UXMVECTORF32@12@B DD 03cfd10f8r ; 0.0308919 ; UI::DirectX::g_XMArcCoefficients1
	DD	0bc8bfc66r			; -0.0170881
	DD	03bda90c5r			; 0.00667009
	DD	0baa57a2cr			; -0.00126249
CONST	ENDS
;	COMDAT ?g_XMArcCoefficients0@DirectX@UI@@3UXMVECTORF32@12@B
CONST	SEGMENT
?g_XMArcCoefficients0@DirectX@UI@@3UXMVECTORF32@12@B DD 03fc90fdar ; 1.5708 ; UI::DirectX::g_XMArcCoefficients0
	DD	0be5bbfcar			; -0.214599
	DD	03db63a9er			; 0.088979
	DD	0bd4d8392r			; -0.0501743
CONST	ENDS
;	COMDAT ?g_XMTanCoefficients2@DirectX@UI@@3UXMVECTORF32@12@B
CONST	SEGMENT
?g_XMTanCoefficients2@DirectX@UI@@3UXMVECTORF32@12@B DD 03a1aac12r ; 0.000590027 ; UI::DirectX::g_XMTanCoefficients2
	DD	0397abeb9r			; 0.000239129
	DD	038cb3f0cr			; 9.69154e-05
	DD	03824bec9r			; 3.92783e-05
CONST	ENDS
;	COMDAT ?g_XMTanCoefficients1@DirectX@UI@@3UXMVECTORF32@12@B
CONST	SEGMENT
?g_XMTanCoefficients1@DirectX@UI@@3UXMVECTORF32@12@B DD 03cb327a4r ; 0.0218695 ; UI::DirectX::g_XMTanCoefficients1
	DD	03c11371br			; 0.00886324
	DD	03b6b69e9r			; 0.00359213
	DD	03abed1b3r			; 0.00145583
CONST	ENDS
;	COMDAT ?g_XMTanCoefficients0@DirectX@UI@@3UXMVECTORF32@12@B
CONST	SEGMENT
?g_XMTanCoefficients0@DirectX@UI@@3UXMVECTORF32@12@B DD 03f800000r ; 1 ; UI::DirectX::g_XMTanCoefficients0
	DD	03eaaaaabr			; 0.333333
	DD	03e088889r			; 0.133333
	DD	03d5d0dd1r			; 0.0539683
CONST	ENDS
;	COMDAT ?g_XMCosCoefficients1@DirectX@UI@@3UXMVECTORF32@12@B
CONST	SEGMENT
?g_XMCosCoefficients1@DirectX@UI@@3UXMVECTORF32@12@B DD 0b48bdd11r ; -2.60516e-07 ; UI::DirectX::g_XMCosCoefficients1
	DD	0befff67er			; -0.499927
	DD	03d29f587r			; 0.0414939
	DD	0baa69fdbr			; -0.00127124
CONST	ENDS
;	COMDAT ?g_XMCosCoefficients0@DirectX@UI@@3UXMVECTORF32@12@B
CONST	SEGMENT
?g_XMCosCoefficients0@DirectX@UI@@3UXMVECTORF32@12@B DD 0bf000000r ; -0.5 ; UI::DirectX::g_XMCosCoefficients0
	DD	03d2aaaa3r			; 0.0416666
	DD	0bab609aar			; -0.00138884
	DD	037cfb4c2r			; 2.47605e-05
CONST	ENDS
;	COMDAT ?g_XMSinCoefficients1@DirectX@UI@@3UXMVECTORF32@12@B
CONST	SEGMENT
?g_XMSinCoefficients1@DirectX@UI@@3UXMVECTORF32@12@B DD 0b2cd365br ; -2.38899e-08 ; UI::DirectX::g_XMSinCoefficients1
	DD	0be2aa888r			; -0.166659
	DD	03c08373cr			; 0.00831395
	DD	0b9423ec8r			; -0.000185247
CONST	ENDS
;	COMDAT ?g_XMSinCoefficients0@DirectX@UI@@3UXMVECTORF32@12@B
CONST	SEGMENT
?g_XMSinCoefficients0@DirectX@UI@@3UXMVECTORF32@12@B DD 0be2aaaabr ; -0.166667 ; UI::DirectX::g_XMSinCoefficients0
	DD	03c088886r			; 0.00833333
	DD	0b9500bf1r			; -0.000198409
	DD	03638b88er			; 2.75256e-06
CONST	ENDS
PUBLIC	??_H@YGXPAXIIP6EPAX0@Z@Z			; `vector constructor iterator'
PUBLIC	??0exception@std@@QAE@ABV01@@Z			; std::exception::exception
PUBLIC	??1exception@std@@UAE@XZ			; std::exception::~exception
PUBLIC	?what@exception@std@@UBEPBDXZ			; std::exception::what
PUBLIC	??_Gexception@std@@UAEPAXI@Z			; std::exception::`scalar deleting destructor'
PUBLIC	??0bad_alloc@std@@QAE@ABV01@@Z			; std::bad_alloc::bad_alloc
PUBLIC	??_Gbad_alloc@std@@UAEPAXI@Z			; std::bad_alloc::`scalar deleting destructor'
PUBLIC	??0bad_array_new_length@std@@QAE@XZ		; std::bad_array_new_length::bad_array_new_length
PUBLIC	??1bad_array_new_length@std@@UAE@XZ		; std::bad_array_new_length::~bad_array_new_length
PUBLIC	??0bad_array_new_length@std@@QAE@ABV01@@Z	; std::bad_array_new_length::bad_array_new_length
PUBLIC	??_Gbad_array_new_length@std@@UAEPAXI@Z		; std::bad_array_new_length::`scalar deleting destructor'
PUBLIC	?_Throw_bad_array_new_length@std@@YAXXZ		; std::_Throw_bad_array_new_length
PUBLIC	?_Xlen_string@std@@YAXXZ			; std::_Xlen_string
PUBLIC	??0?$basic_string@DU?$char_traits@D@std@@V?$allocator@D@2@@std@@QAE@QBD@Z ; std::basic_string<char,std::char_traits<char>,std::allocator<char> >::basic_string<char,std::char_traits<char>,std::allocator<char> >
PUBLIC	??1?$basic_string@DU?$char_traits@D@std@@V?$allocator@D@2@@std@@QAE@XZ ; std::basic_string<char,std::char_traits<char>,std::allocator<char> >::~basic_string<char,std::char_traits<char>,std::allocator<char> >
PUBLIC	?append@?$basic_string@DU?$char_traits@D@std@@V?$allocator@D@2@@std@@QAEAAV12@QBDI@Z ; std::basic_string<char,std::char_traits<char>,std::allocator<char> >::append
PUBLIC	?assign@?$basic_string@DU?$char_traits@D@std@@V?$allocator@D@2@@std@@QAEAAV12@QBDI@Z ; std::basic_string<char,std::char_traits<char>,std::allocator<char> >::assign
PUBLIC	??0D3DXMATRIX@@QAE@XZ				; D3DXMATRIX::D3DXMATRIX
PUBLIC	??0logic_error@std@@QAE@ABV01@@Z		; std::logic_error::logic_error
PUBLIC	??_Glogic_error@std@@UAEPAXI@Z			; std::logic_error::`scalar deleting destructor'
PUBLIC	??1?$vector@IV?$allocator@I@std@@@std@@QAE@XZ	; std::vector<unsigned int,std::allocator<unsigned int> >::~vector<unsigned int,std::allocator<unsigned int> >
PUBLIC	?_Xlength@?$vector@IV?$allocator@I@std@@@std@@CAXXZ ; std::vector<unsigned int,std::allocator<unsigned int> >::_Xlength
PUBLIC	?DeleteExpandedImageInstance@CGraphicExpandedImageInstance@@SAXPAV1@@Z ; CGraphicExpandedImageInstance::DeleteExpandedImageInstance
PUBLIC	?_Xlength@?$vector@PAVCGraphicExpandedImageInstance@@V?$allocator@PAVCGraphicExpandedImageInstance@@@std@@@std@@CAXXZ ; std::vector<CGraphicExpandedImageInstance *,std::allocator<CGraphicExpandedImageInstance *> >::_Xlength
PUBLIC	??1?$list@PAVCWindow@UI@@V?$allocator@PAVCWindow@UI@@@std@@@std@@QAE@XZ ; std::list<UI::CWindow *,std::allocator<UI::CWindow *> >::~list<UI::CWindow *,std::allocator<UI::CWindow *> >
PUBLIC	?push_back@?$list@PAVCWindow@UI@@V?$allocator@PAVCWindow@UI@@@std@@@std@@QAEXABQAVCWindow@UI@@@Z ; std::list<UI::CWindow *,std::allocator<UI::CWindow *> >::push_back
PUBLIC	?remove@?$list@PAVCWindow@UI@@V?$allocator@PAVCWindow@UI@@@std@@@std@@QAE@ABQAVCWindow@UI@@@Z ; std::list<UI::CWindow *,std::allocator<UI::CWindow *> >::remove
PUBLIC	??$_Emplace_reallocate@ABQAVCGraphicExpandedImageInstance@@@?$vector@PAVCGraphicExpandedImageInstance@@V?$allocator@PAVCGraphicExpandedImageInstance@@@std@@@std@@AAEPAPAVCGraphicExpandedImageInstance@@QAPAV2@ABQAV2@@Z ; std::vector<CGraphicExpandedImageInstance *,std::allocator<CGraphicExpandedImageInstance *> >::_Emplace_reallocate<CGraphicExpandedImageInstance * const &>
PUBLIC	??$_Allocate_manually_vector_aligned@U_Default_allocate_traits@std@@@std@@YAPAXI@Z ; std::_Allocate_manually_vector_aligned<std::_Default_allocate_traits>
PUBLIC	??$_Copy_memmove@PAPAVCGraphicExpandedImageInstance@@PAPAV1@@std@@YAPAPAVCGraphicExpandedImageInstance@@PAPAV1@00@Z ; std::_Copy_memmove<CGraphicExpandedImageInstance * *,CGraphicExpandedImageInstance * *>
PUBLIC	??0bad_optional_access@experimental@std@@QAE@PBD@Z ; std::experimental::bad_optional_access::bad_optional_access
PUBLIC	??1bad_optional_access@experimental@std@@UAE@XZ	; std::experimental::bad_optional_access::~bad_optional_access
PUBLIC	??0bad_optional_access@experimental@std@@QAE@ABV012@@Z ; std::experimental::bad_optional_access::bad_optional_access
PUBLIC	??_Gbad_optional_access@experimental@std@@UAEPAXI@Z ; std::experimental::bad_optional_access::`scalar deleting destructor'
PUBLIC	?Type@CWindow@UI@@SAKXZ				; UI::CWindow::Type
PUBLIC	?IsType@CWindow@UI@@QAEHK@Z			; UI::CWindow::IsType
PUBLIC	??0CWindow@UI@@QAE@PAU_object@@@Z		; UI::CWindow::CWindow
PUBLIC	??1CWindow@UI@@UAE@XZ				; UI::CWindow::~CWindow
PUBLIC	?AddChild@CWindow@UI@@QAEXPAV12@@Z		; UI::CWindow::AddChild
PUBLIC	?Clear@CWindow@UI@@QAEXXZ			; UI::CWindow::Clear
PUBLIC	?DestroyHandle@CWindow@UI@@QAEXXZ		; UI::CWindow::DestroyHandle
PUBLIC	?Update@CWindow@UI@@QAEXXZ			; UI::CWindow::Update
PUBLIC	?Render@CWindow@UI@@QAEXXZ			; UI::CWindow::Render
PUBLIC	?SetScale@CWindow@UI@@QAEXMM@Z			; UI::CWindow::SetScale
PUBLIC	?SetName@CWindow@UI@@QAEXPBD@Z			; UI::CWindow::SetName
PUBLIC	?SetSize@CWindow@UI@@QAEXJJ@Z			; UI::CWindow::SetSize
PUBLIC	?SetHorizontalAlign@CWindow@UI@@QAEXK@Z		; UI::CWindow::SetHorizontalAlign
PUBLIC	?SetVerticalAlign@CWindow@UI@@QAEXK@Z		; UI::CWindow::SetVerticalAlign
PUBLIC	?SetPosition@CWindow@UI@@QAEXJJ@Z		; UI::CWindow::SetPosition
PUBLIC	?GetPosition@CWindow@UI@@QAEXPAJ0@Z		; UI::CWindow::GetPosition
PUBLIC	?GetLocalPosition@CWindow@UI@@QAEXAAJ0@Z	; UI::CWindow::GetLocalPosition
PUBLIC	?GetMouseLocalPosition@CWindow@UI@@QAEXAAJ0@Z	; UI::CWindow::GetMouseLocalPosition
PUBLIC	?UpdateRect@CWindow@UI@@QAEJXZ			; UI::CWindow::UpdateRect
PUBLIC	?Show@CWindow@UI@@QAEXXZ			; UI::CWindow::Show
PUBLIC	?Hide@CWindow@UI@@QAEXXZ			; UI::CWindow::Hide
PUBLIC	?IsShow@CWindow@UI@@UAE_NXZ			; UI::CWindow::IsShow
PUBLIC	?OnHideWithChilds@CWindow@UI@@QAEXXZ		; UI::CWindow::OnHideWithChilds
PUBLIC	?OnHide@CWindow@UI@@QAEXXZ			; UI::CWindow::OnHide
PUBLIC	?IsRendering@CWindow@UI@@QAE_NXZ		; UI::CWindow::IsRendering
PUBLIC	?GetRoot@CWindow@UI@@QAEPAV12@XZ		; UI::CWindow::GetRoot
PUBLIC	?GetParent@CWindow@UI@@QAEPAV12@XZ		; UI::CWindow::GetParent
PUBLIC	?IsChild@CWindow@UI@@QAE_NPAV12@_N@Z		; UI::CWindow::IsChild
PUBLIC	?DeleteChild@CWindow@UI@@QAEXPAV12@@Z		; UI::CWindow::DeleteChild
PUBLIC	?SetTop@CWindow@UI@@QAEXPAV12@@Z		; UI::CWindow::SetTop
PUBLIC	?IsTop@CWindow@UI@@QAE_NPAV12@@Z		; UI::CWindow::IsTop
PUBLIC	?IsIn@CWindow@UI@@QAE_NJJ@Z			; UI::CWindow::IsIn
PUBLIC	?IsIn@CWindow@UI@@QAE_NXZ			; UI::CWindow::IsIn
PUBLIC	?PickWindow@CWindow@UI@@QAEPAV12@JJ@Z		; UI::CWindow::PickWindow
PUBLIC	?PickTopWindow@CWindow@UI@@QAEPAV12@JJ@Z	; UI::CWindow::PickTopWindow
PUBLIC	?__RemoveReserveChildren@CWindow@UI@@QAEXXZ	; UI::CWindow::__RemoveReserveChildren
PUBLIC	?SetInsideRender@CWindow@UI@@QAEXH@Z		; UI::CWindow::SetInsideRender
PUBLIC	?GetRenderBox@CWindow@UI@@QAEXPAUtagRECT@@@Z	; UI::CWindow::GetRenderBox
PUBLIC	?UpdateTextLineRenderBox@CWindow@UI@@QAEXXZ	; UI::CWindow::UpdateTextLineRenderBox
PUBLIC	?UpdateRenderBox@CWindow@UI@@QAEXXZ		; UI::CWindow::UpdateRenderBox
PUBLIC	?UpdateRenderBoxRecursive@CWindow@UI@@QAEXXZ	; UI::CWindow::UpdateRenderBoxRecursive
PUBLIC	?OnRender@CWindow@UI@@UAEXXZ			; UI::CWindow::OnRender
PUBLIC	?OnAfterRender@CWindow@UI@@UAEXXZ		; UI::CWindow::OnAfterRender
PUBLIC	?OnUpdateRenderBox@CWindow@UI@@UAEXXZ		; UI::CWindow::OnUpdateRenderBox
PUBLIC	?OnUpdate@CWindow@UI@@UAEXXZ			; UI::CWindow::OnUpdate
PUBLIC	?OnUpdateLockedCursor@CWindow@UI@@UAEXHJ@Z	; UI::CWindow::OnUpdateLockedCursor
PUBLIC	?OnChangePosition@CWindow@UI@@UAEXXZ		; UI::CWindow::OnChangePosition
PUBLIC	?OnSetFocus@CWindow@UI@@UAEXXZ			; UI::CWindow::OnSetFocus
PUBLIC	?OnKillFocus@CWindow@UI@@UAEXXZ			; UI::CWindow::OnKillFocus
PUBLIC	?OnMouseDrag@CWindow@UI@@UAEXJJ@Z		; UI::CWindow::OnMouseDrag
PUBLIC	?OnMouseOverIn@CWindow@UI@@UAEXXZ		; UI::CWindow::OnMouseOverIn
PUBLIC	?OnMouseOverOut@CWindow@UI@@UAEXXZ		; UI::CWindow::OnMouseOverOut
PUBLIC	?OnMouseOver@CWindow@UI@@UAEXXZ			; UI::CWindow::OnMouseOver
PUBLIC	?OnDrop@CWindow@UI@@UAEXXZ			; UI::CWindow::OnDrop
PUBLIC	?OnTop@CWindow@UI@@UAEXXZ			; UI::CWindow::OnTop
PUBLIC	?OnIMEUpdate@CWindow@UI@@UAEXXZ			; UI::CWindow::OnIMEUpdate
PUBLIC	?OnMoveWindow@CWindow@UI@@UAEXJJ@Z		; UI::CWindow::OnMoveWindow
PUBLIC	?RunIMETabEvent@CWindow@UI@@QAEHXZ		; UI::CWindow::RunIMETabEvent
PUBLIC	?RunIMEReturnEvent@CWindow@UI@@QAEHXZ		; UI::CWindow::RunIMEReturnEvent
PUBLIC	?RunIMEKeyDownEvent@CWindow@UI@@QAEHH@Z		; UI::CWindow::RunIMEKeyDownEvent
PUBLIC	?RunKeyDownEvent@CWindow@UI@@QAEPAV12@H@Z	; UI::CWindow::RunKeyDownEvent
PUBLIC	?RunKeyUpEvent@CWindow@UI@@QAEHH@Z		; UI::CWindow::RunKeyUpEvent
PUBLIC	?RunPressReturnKeyEvent@CWindow@UI@@QAEHXZ	; UI::CWindow::RunPressReturnKeyEvent
PUBLIC	?RunPressEscapeKeyEvent@CWindow@UI@@QAEHXZ	; UI::CWindow::RunPressEscapeKeyEvent
PUBLIC	?RunPressExitKeyEvent@CWindow@UI@@QAEHXZ	; UI::CWindow::RunPressExitKeyEvent
PUBLIC	?OnIMETabEvent@CWindow@UI@@UAEHXZ		; UI::CWindow::OnIMETabEvent
PUBLIC	?OnIMEReturnEvent@CWindow@UI@@UAEHXZ		; UI::CWindow::OnIMEReturnEvent
PUBLIC	?OnIMEUpdateSelectionEvent@CWindow@UI@@UAEHXZ	; UI::CWindow::OnIMEUpdateSelectionEvent
PUBLIC	?OnIMEKeyDownEvent@CWindow@UI@@UAEHH@Z		; UI::CWindow::OnIMEKeyDownEvent
PUBLIC	?OnIMEChangeCodePage@CWindow@UI@@UAEHXZ		; UI::CWindow::OnIMEChangeCodePage
PUBLIC	?OnIMEOpenCandidateListEvent@CWindow@UI@@UAEHXZ	; UI::CWindow::OnIMEOpenCandidateListEvent
PUBLIC	?OnIMECloseCandidateListEvent@CWindow@UI@@UAEHXZ ; UI::CWindow::OnIMECloseCandidateListEvent
PUBLIC	?OnIMEOpenReadingWndEvent@CWindow@UI@@UAEHXZ	; UI::CWindow::OnIMEOpenReadingWndEvent
PUBLIC	?OnIMECloseReadingWndEvent@CWindow@UI@@UAEHXZ	; UI::CWindow::OnIMECloseReadingWndEvent
PUBLIC	?OnMouseLeftButtonDown@CWindow@UI@@UAEHXZ	; UI::CWindow::OnMouseLeftButtonDown
PUBLIC	?OnMouseLeftButtonUp@CWindow@UI@@UAEHXZ		; UI::CWindow::OnMouseLeftButtonUp
PUBLIC	?OnMouseLeftButtonDoubleClick@CWindow@UI@@UAEHXZ ; UI::CWindow::OnMouseLeftButtonDoubleClick
PUBLIC	?OnMouseRightButtonDown@CWindow@UI@@UAEHXZ	; UI::CWindow::OnMouseRightButtonDown
PUBLIC	?OnMouseRightButtonUp@CWindow@UI@@UAEHXZ	; UI::CWindow::OnMouseRightButtonUp
PUBLIC	?OnMouseRightButtonDoubleClick@CWindow@UI@@UAEHXZ ; UI::CWindow::OnMouseRightButtonDoubleClick
PUBLIC	?OnMouseMiddleButtonDown@CWindow@UI@@UAEHXZ	; UI::CWindow::OnMouseMiddleButtonDown
PUBLIC	?OnMouseMiddleButtonUp@CWindow@UI@@UAEHXZ	; UI::CWindow::OnMouseMiddleButtonUp
PUBLIC	?OnScrollEvent@CWindow@UI@@UAEHABH@Z		; UI::CWindow::OnScrollEvent
PUBLIC	?OnKeyDown@CWindow@UI@@UAEHH@Z			; UI::CWindow::OnKeyDown
PUBLIC	?OnKeyUp@CWindow@UI@@UAEHH@Z			; UI::CWindow::OnKeyUp
PUBLIC	?OnPressReturnKey@CWindow@UI@@UAEHXZ		; UI::CWindow::OnPressReturnKey
PUBLIC	?OnPressEscapeKey@CWindow@UI@@UAEHXZ		; UI::CWindow::OnPressEscapeKey
PUBLIC	?OnPressExitKey@CWindow@UI@@UAEHXZ		; UI::CWindow::OnPressExitKey
PUBLIC	?SetColor@CWindow@UI@@UAEXK@Z			; UI::CWindow::SetColor
PUBLIC	?OnIsType@CWindow@UI@@UAEHK@Z			; UI::CWindow::OnIsType
PUBLIC	?IsWindow@CWindow@UI@@UAEHXZ			; UI::CWindow::IsWindow
PUBLIC	?iSetRenderingRect@CWindow@UI@@UAEXHHHH@Z	; UI::CWindow::iSetRenderingRect
PUBLIC	?SetRenderingRect@CWindow@UI@@UAEXMMMM@Z	; UI::CWindow::SetRenderingRect
PUBLIC	?GetRenderingWidth@CWindow@UI@@UAEHXZ		; UI::CWindow::GetRenderingWidth
PUBLIC	?GetRenderingHeight@CWindow@UI@@UAEHXZ		; UI::CWindow::GetRenderingHeight
PUBLIC	?ResetRenderingRect@CWindow@UI@@QAEX_N@Z	; UI::CWindow::ResetRenderingRect
PUBLIC	?OnSetRenderingRect@CWindow@UI@@EAEXXZ		; UI::CWindow::OnSetRenderingRect
PUBLIC	?to@?$tween@M$$V@tweeny@@QAEAAV12@M@Z		; tweeny::tween<float>::to
PUBLIC	?step@?$tween@M$$V@tweeny@@QAEABMM_N@Z		; tweeny::tween<float>::step
PUBLIC	?onStep@?$tween@M$$V@tweeny@@QAEAAV12@V?$function@$$A6A_NAAV?$tween@M$$V@tweeny@@M@Z@std@@@Z ; tweeny::tween<float>::onStep
PUBLIC	?progress@?$tween@M$$V@tweeny@@QBEMXZ		; tweeny::tween<float>::progress
PUBLIC	??1?$vector@U?$tweenpoint@M@detail@tweeny@@V?$allocator@U?$tweenpoint@M@detail@tweeny@@@std@@@std@@QAE@XZ ; std::vector<tweeny::detail::tweenpoint<float>,std::allocator<tweeny::detail::tweenpoint<float> > >::~vector<tweeny::detail::tweenpoint<float>,std::allocator<tweeny::detail::tweenpoint<float> > >
PUBLIC	?_Buy_raw@?$vector@U?$tweenpoint@M@detail@tweeny@@V?$allocator@U?$tweenpoint@M@detail@tweeny@@@std@@@std@@AAEXI@Z ; std::vector<tweeny::detail::tweenpoint<float>,std::allocator<tweeny::detail::tweenpoint<float> > >::_Buy_raw
PUBLIC	?_Tidy@?$vector@U?$tweenpoint@M@detail@tweeny@@V?$allocator@U?$tweenpoint@M@detail@tweeny@@@std@@@std@@AAEXXZ ; std::vector<tweeny::detail::tweenpoint<float>,std::allocator<tweeny::detail::tweenpoint<float> > >::_Tidy
PUBLIC	?_Xlength@?$vector@U?$tweenpoint@M@detail@tweeny@@V?$allocator@U?$tweenpoint@M@detail@tweeny@@@std@@@std@@CAXXZ ; std::vector<tweeny::detail::tweenpoint<float>,std::allocator<tweeny::detail::tweenpoint<float> > >::_Xlength
PUBLIC	?_Xrange@?$vector@U?$tweenpoint@M@detail@tweeny@@V?$allocator@U?$tweenpoint@M@detail@tweeny@@@std@@@std@@CAXXZ ; std::vector<tweeny::detail::tweenpoint<float>,std::allocator<tweeny::detail::tweenpoint<float> > >::_Xrange
PUBLIC	?deallocate@?$allocator@V?$function@$$A6A_NAAV?$tween@M$$V@tweeny@@M@Z@std@@@std@@QAEXQAV?$function@$$A6A_NAAV?$tween@M$$V@tweeny@@M@Z@2@I@Z ; std::allocator<std::function<bool __cdecl(tweeny::tween<float> &,float)> >::deallocate
PUBLIC	??0?$vector@V?$function@$$A6A_NAAV?$tween@M$$V@tweeny@@M@Z@std@@V?$allocator@V?$function@$$A6A_NAAV?$tween@M$$V@tweeny@@M@Z@std@@@2@@std@@QAE@ABV01@@Z ; std::vector<std::function<bool __cdecl(tweeny::tween<float> &,float)>,std::allocator<std::function<bool __cdecl(tweeny::tween<float> &,float)> > >::vector<std::function<bool __cdecl(tweeny::tween<float> &,float)>,std::allocator<std::function<bool __cdecl(tweeny::tween<float> &,float)> > >
PUBLIC	??1?$vector@V?$function@$$A6A_NAAV?$tween@M$$V@tweeny@@M@Z@std@@V?$allocator@V?$function@$$A6A_NAAV?$tween@M$$V@tweeny@@M@Z@std@@@2@@std@@QAE@XZ ; std::vector<std::function<bool __cdecl(tweeny::tween<float> &,float)>,std::allocator<std::function<bool __cdecl(tweeny::tween<float> &,float)> > >::~vector<std::function<bool __cdecl(tweeny::tween<float> &,float)>,std::allocator<std::function<bool __cdecl(tweeny::tween<float> &,float)> > >
PUBLIC	?_Buy_raw@?$vector@V?$function@$$A6A_NAAV?$tween@M$$V@tweeny@@M@Z@std@@V?$allocator@V?$function@$$A6A_NAAV?$tween@M$$V@tweeny@@M@Z@std@@@2@@std@@AAEXI@Z ; std::vector<std::function<bool __cdecl(tweeny::tween<float> &,float)>,std::allocator<std::function<bool __cdecl(tweeny::tween<float> &,float)> > >::_Buy_raw
PUBLIC	?_Change_array@?$vector@V?$function@$$A6A_NAAV?$tween@M$$V@tweeny@@M@Z@std@@V?$allocator@V?$function@$$A6A_NAAV?$tween@M$$V@tweeny@@M@Z@std@@@2@@std@@AAEXQAV?$function@$$A6A_NAAV?$tween@M$$V@tweeny@@M@Z@2@II@Z ; std::vector<std::function<bool __cdecl(tweeny::tween<float> &,float)>,std::allocator<std::function<bool __cdecl(tweeny::tween<float> &,float)> > >::_Change_array
PUBLIC	?_Tidy@?$vector@V?$function@$$A6A_NAAV?$tween@M$$V@tweeny@@M@Z@std@@V?$allocator@V?$function@$$A6A_NAAV?$tween@M$$V@tweeny@@M@Z@std@@@2@@std@@AAEXXZ ; std::vector<std::function<bool __cdecl(tweeny::tween<float> &,float)>,std::allocator<std::function<bool __cdecl(tweeny::tween<float> &,float)> > >::_Tidy
PUBLIC	?_Xlength@?$vector@V?$function@$$A6A_NAAV?$tween@M$$V@tweeny@@M@Z@std@@V?$allocator@V?$function@$$A6A_NAAV?$tween@M$$V@tweeny@@M@Z@std@@@2@@std@@CAXXZ ; std::vector<std::function<bool __cdecl(tweeny::tween<float> &,float)>,std::allocator<std::function<bool __cdecl(tweeny::tween<float> &,float)> > >::_Xlength
PUBLIC	?_Xrange@?$vector@V?$function@$$A6A_NAAV?$tween@M$$V@tweeny@@M@Z@std@@V?$allocator@V?$function@$$A6A_NAAV?$tween@M$$V@tweeny@@M@Z@std@@@2@@std@@CAXXZ ; std::vector<std::function<bool __cdecl(tweeny::tween<float> &,float)>,std::allocator<std::function<bool __cdecl(tweeny::tween<float> &,float)> > >::_Xrange
PUBLIC	?interpolate@?$tween@M$$V@tweeny@@ABEXMIAAM@Z	; tweeny::tween<float>::interpolate
PUBLIC	?dispatch@?$tween@M$$V@tweeny@@AAEXAAV?$vector@V?$function@$$A6A_NAAV?$tween@M$$V@tweeny@@M@Z@std@@V?$allocator@V?$function@$$A6A_NAAV?$tween@M$$V@tweeny@@M@Z@std@@@2@@std@@@Z ; tweeny::tween<float>::dispatch
PUBLIC	??1?$tween@M$$V@tweeny@@QAE@XZ			; tweeny::tween<float>::~tween<float>
PUBLIC	??0?$tween@M$$V@tweeny@@QAE@ABV01@@Z		; tweeny::tween<float>::tween<float>
PUBLIC	??_GCWindow@UI@@UAEPAXI@Z			; UI::CWindow::`scalar deleting destructor'
PUBLIC	??0CUiWikiRenderTarget@UI@@QAE@PAU_object@@@Z	; UI::CUiWikiRenderTarget::CUiWikiRenderTarget
PUBLIC	??1CUiWikiRenderTarget@UI@@UAE@XZ		; UI::CUiWikiRenderTarget::~CUiWikiRenderTarget
PUBLIC	?SetWikiRenderTargetModule@CUiWikiRenderTarget@UI@@QAE_NH@Z ; UI::CUiWikiRenderTarget::SetWikiRenderTargetModule
PUBLIC	?OnUpdateRenderBox@CUiWikiRenderTarget@UI@@UAEXXZ ; UI::CUiWikiRenderTarget::OnUpdateRenderBox
PUBLIC	?OnRender@CUiWikiRenderTarget@UI@@MAEXXZ	; UI::CUiWikiRenderTarget::OnRender
PUBLIC	??_GCUiWikiRenderTarget@UI@@UAEPAXI@Z		; UI::CUiWikiRenderTarget::`scalar deleting destructor'
PUBLIC	??0CBox@UI@@QAE@PAU_object@@@Z			; UI::CBox::CBox
PUBLIC	??1CBox@UI@@UAE@XZ				; UI::CBox::~CBox
PUBLIC	?SetColor@CBox@UI@@UAEXK@Z			; UI::CBox::SetColor
PUBLIC	?OnRender@CBox@UI@@MAEXXZ			; UI::CBox::OnRender
PUBLIC	??_GCBox@UI@@UAEPAXI@Z				; UI::CBox::`scalar deleting destructor'
PUBLIC	??0CBar@UI@@QAE@PAU_object@@@Z			; UI::CBar::CBar
PUBLIC	??1CBar@UI@@UAE@XZ				; UI::CBar::~CBar
PUBLIC	?SetColor@CBar@UI@@UAEXK@Z			; UI::CBar::SetColor
PUBLIC	?OnRender@CBar@UI@@MAEXXZ			; UI::CBar::OnRender
PUBLIC	??_GCBar@UI@@UAEPAXI@Z				; UI::CBar::`scalar deleting destructor'
PUBLIC	??0CLine@UI@@QAE@PAU_object@@@Z			; UI::CLine::CLine
PUBLIC	??1CLine@UI@@UAE@XZ				; UI::CLine::~CLine
PUBLIC	?SetColor@CLine@UI@@UAEXK@Z			; UI::CLine::SetColor
PUBLIC	?OnRender@CLine@UI@@MAEXXZ			; UI::CLine::OnRender
PUBLIC	??_GCLine@UI@@UAEPAXI@Z				; UI::CLine::`scalar deleting destructor'
PUBLIC	?Type@CBar3D@UI@@SAKXZ				; UI::CBar3D::Type
PUBLIC	??0CBar3D@UI@@QAE@PAU_object@@@Z		; UI::CBar3D::CBar3D
PUBLIC	??1CBar3D@UI@@UAE@XZ				; UI::CBar3D::~CBar3D
PUBLIC	?SetColor@CBar3D@UI@@QAEXKKK@Z			; UI::CBar3D::SetColor
PUBLIC	?OnRender@CBar3D@UI@@MAEXXZ			; UI::CBar3D::OnRender
PUBLIC	??_GCBar3D@UI@@UAEPAXI@Z			; UI::CBar3D::`scalar deleting destructor'
PUBLIC	?Type@CTextLine@UI@@SAKXZ			; UI::CTextLine::Type
PUBLIC	??0CTextLine@UI@@QAE@PAU_object@@@Z		; UI::CTextLine::CTextLine
PUBLIC	??1CTextLine@UI@@UAE@XZ				; UI::CTextLine::~CTextLine
PUBLIC	?SetMax@CTextLine@UI@@QAEXH@Z			; UI::CTextLine::SetMax
PUBLIC	?SetHorizontalAlign@CTextLine@UI@@QAEXH@Z	; UI::CTextLine::SetHorizontalAlign
PUBLIC	?SetVerticalAlign@CTextLine@UI@@QAEXH@Z		; UI::CTextLine::SetVerticalAlign
PUBLIC	?SetSecret@CTextLine@UI@@QAEXH@Z		; UI::CTextLine::SetSecret
PUBLIC	?SetOutline@CTextLine@UI@@QAEXH@Z		; UI::CTextLine::SetOutline
PUBLIC	?SetFeather@CTextLine@UI@@QAEXH@Z		; UI::CTextLine::SetFeather
PUBLIC	?SetMultiLine@CTextLine@UI@@QAEXH@Z		; UI::CTextLine::SetMultiLine
PUBLIC	?SetFontName@CTextLine@UI@@QAEXPBD@Z		; UI::CTextLine::SetFontName
PUBLIC	?SetFontColor@CTextLine@UI@@QAEXK@Z		; UI::CTextLine::SetFontColor
PUBLIC	?SetLimitWidth@CTextLine@UI@@QAEXM@Z		; UI::CTextLine::SetLimitWidth
PUBLIC	?ShowCursor@CTextLine@UI@@QAEXXZ		; UI::CTextLine::ShowCursor
PUBLIC	?HideCursor@CTextLine@UI@@QAEXXZ		; UI::CTextLine::HideCursor
PUBLIC	?IsShowCursor@CTextLine@UI@@QAE_NXZ		; UI::CTextLine::IsShowCursor
PUBLIC	?GetCursorPosition@CTextLine@UI@@QAEHXZ		; UI::CTextLine::GetCursorPosition
PUBLIC	?GetMultilineCursorPosition@CTextLine@UI@@QAEHXZ ; UI::CTextLine::GetMultilineCursorPosition
PUBLIC	?GetCharPositionByCursor@CTextLine@UI@@QAE?AV?$tuple@HHH@std@@H@Z ; UI::CTextLine::GetCharPositionByCursor
PUBLIC	?TextPositionToRenderPosition@CTextLine@UI@@QAEHH@Z ; UI::CTextLine::TextPositionToRenderPosition
PUBLIC	?SetText@CTextLine@UI@@QAEXPBD@Z		; UI::CTextLine::SetText
PUBLIC	?GetText@CTextLine@UI@@QAEPBDXZ			; UI::CTextLine::GetText
PUBLIC	?GetSpecificTextWidth@CTextLine@UI@@QAEHPBD@Z	; UI::CTextLine::GetSpecificTextWidth
PUBLIC	?GetTextSize@CTextLine@UI@@QAEXPAH0@Z		; UI::CTextLine::GetTextSize
PUBLIC	?IsShow@CTextLine@UI@@UAE_NXZ			; UI::CTextLine::IsShow
PUBLIC	?GetRenderingWidth@CTextLine@UI@@UAEHXZ		; UI::CTextLine::GetRenderingWidth
PUBLIC	?GetRenderingHeight@CTextLine@UI@@UAEHXZ	; UI::CTextLine::GetRenderingHeight
PUBLIC	?OnSetRenderingRect@CTextLine@UI@@UAEXXZ	; UI::CTextLine::OnSetRenderingRect
PUBLIC	?SetRenderingRect@CTextLine@UI@@UAEXMMMM@Z	; UI::CTextLine::SetRenderingRect
PUBLIC	?OnUpdate@CTextLine@UI@@MAEXXZ			; UI::CTextLine::OnUpdate
PUBLIC	?OnRender@CTextLine@UI@@MAEXXZ			; UI::CTextLine::OnRender
PUBLIC	?OnChangePosition@CTextLine@UI@@MAEXXZ		; UI::CTextLine::OnChangePosition
PUBLIC	?OnSetText@CTextLine@UI@@MAEXPBD@Z		; UI::CTextLine::OnSetText
PUBLIC	?OnUpdateRenderBox@CTextLine@UI@@MAEXXZ		; UI::CTextLine::OnUpdateRenderBox
PUBLIC	?OnIsType@CTextLine@UI@@MAEHK@Z			; UI::CTextLine::OnIsType
PUBLIC	??_GCTextLine@UI@@UAEPAXI@Z			; UI::CTextLine::`scalar deleting destructor'
PUBLIC	?Type@CNumberLine@UI@@SAKXZ			; UI::CNumberLine::Type
PUBLIC	??0CNumberLine@UI@@QAE@PAU_object@@@Z		; UI::CNumberLine::CNumberLine
PUBLIC	??0CNumberLine@UI@@QAE@PAVCWindow@1@@Z		; UI::CNumberLine::CNumberLine
PUBLIC	??1CNumberLine@UI@@UAE@XZ			; UI::CNumberLine::~CNumberLine
PUBLIC	?SetPath@CNumberLine@UI@@QAEXPBD@Z		; UI::CNumberLine::SetPath
PUBLIC	?SetHorizontalAlign@CNumberLine@UI@@QAEXH@Z	; UI::CNumberLine::SetHorizontalAlign
PUBLIC	?SetVerticalAlign@CNumberLine@UI@@QAEXH@Z	; UI::CNumberLine::SetVerticalAlign
PUBLIC	?SetNumber@CNumberLine@UI@@QAEXPBD@Z		; UI::CNumberLine::SetNumber
PUBLIC	?SetDiffuseColor@CNumberLine@UI@@QAEXMMMM@Z	; UI::CNumberLine::SetDiffuseColor
PUBLIC	?ClearNumber@CNumberLine@UI@@IAEXXZ		; UI::CNumberLine::ClearNumber
PUBLIC	?OnRender@CNumberLine@UI@@MAEXXZ		; UI::CNumberLine::OnRender
PUBLIC	?OnChangePosition@CNumberLine@UI@@MAEXXZ	; UI::CNumberLine::OnChangePosition
PUBLIC	?OnIsType@CNumberLine@UI@@MAEHK@Z		; UI::CNumberLine::OnIsType
PUBLIC	??1?$vector@PAVCGraphicImageInstance@@V?$allocator@PAVCGraphicImageInstance@@@std@@@std@@QAE@XZ ; std::vector<CGraphicImageInstance *,std::allocator<CGraphicImageInstance *> >::~vector<CGraphicImageInstance *,std::allocator<CGraphicImageInstance *> >
PUBLIC	?_Xlength@?$vector@PAVCGraphicImageInstance@@V?$allocator@PAVCGraphicImageInstance@@@std@@@std@@CAXXZ ; std::vector<CGraphicImageInstance *,std::allocator<CGraphicImageInstance *> >::_Xlength
PUBLIC	??_GCNumberLine@UI@@UAEPAXI@Z			; UI::CNumberLine::`scalar deleting destructor'
PUBLIC	?Type@CImageBox@UI@@SAKXZ			; UI::CImageBox::Type
PUBLIC	??0CImageBox@UI@@QAE@PAU_object@@@Z		; UI::CImageBox::CImageBox
PUBLIC	??1CImageBox@UI@@UAE@XZ				; UI::CImageBox::~CImageBox
PUBLIC	?LoadImageA@CImageBox@UI@@QAEHPBD@Z		; UI::CImageBox::LoadImageA
PUBLIC	?SetDiffuseColor@CImageBox@UI@@QAEXMMMM@Z	; UI::CImageBox::SetDiffuseColor
PUBLIC	?GetWidth@CImageBox@UI@@QAEHXZ			; UI::CImageBox::GetWidth
PUBLIC	?GetHeight@CImageBox@UI@@QAEHXZ			; UI::CImageBox::GetHeight
PUBLIC	?SetCoolTimeImageBox@CImageBox@UI@@QAEXM@Z	; UI::CImageBox::SetCoolTimeImageBox
PUBLIC	?SetStartCoolTimeImageBox@CImageBox@UI@@QAEXM@Z	; UI::CImageBox::SetStartCoolTimeImageBox
PUBLIC	?OnCreateInstance@CImageBox@UI@@MAEXXZ		; UI::CImageBox::OnCreateInstance
PUBLIC	?OnDestroyInstance@CImageBox@UI@@MAEXXZ		; UI::CImageBox::OnDestroyInstance
PUBLIC	?OnUpdate@CImageBox@UI@@MAEXXZ			; UI::CImageBox::OnUpdate
PUBLIC	?OnRender@CImageBox@UI@@MAEXXZ			; UI::CImageBox::OnRender
PUBLIC	?OnChangePosition@CImageBox@UI@@MAEXXZ		; UI::CImageBox::OnChangePosition
PUBLIC	?OnIsType@CImageBox@UI@@MAEHK@Z			; UI::CImageBox::OnIsType
PUBLIC	??_GCImageBox@UI@@UAEPAXI@Z			; UI::CImageBox::`scalar deleting destructor'
PUBLIC	??0CRenderTarget@UI@@QAE@PAU_object@@@Z		; UI::CRenderTarget::CRenderTarget
PUBLIC	?SetRenderTarget@CRenderTarget@UI@@QAEXI@Z	; UI::CRenderTarget::SetRenderTarget
PUBLIC	?SetRenderHair@CRenderTarget@UI@@QAEXI@Z	; UI::CRenderTarget::SetRenderHair
PUBLIC	?SetRenderArmor@CRenderTarget@UI@@QAEXI@Z	; UI::CRenderTarget::SetRenderArmor
PUBLIC	?SetRenderWeapon@CRenderTarget@UI@@QAEXI@Z	; UI::CRenderTarget::SetRenderWeapon
PUBLIC	?SetRenderSash@CRenderTarget@UI@@QAEXI@Z	; UI::CRenderTarget::SetRenderSash
PUBLIC	?SetRendererMotion@CRenderTarget@UI@@QAEXI@Z	; UI::CRenderTarget::SetRendererMotion
PUBLIC	?SetRenderDistance@CRenderTarget@UI@@QAEXM@Z	; UI::CRenderTarget::SetRenderDistance
PUBLIC	?GetRenderDistance@CRenderTarget@UI@@QAEMXZ	; UI::CRenderTarget::GetRenderDistance
PUBLIC	?SetLightPosition@CRenderTarget@UI@@QAEXUD3DXVECTOR3@@@Z ; UI::CRenderTarget::SetLightPosition
PUBLIC	?GetLightPosition@CRenderTarget@UI@@QBEABUD3DXVECTOR3@@XZ ; UI::CRenderTarget::GetLightPosition
PUBLIC	?SetRotation@CRenderTarget@UI@@QAEXM@Z		; UI::CRenderTarget::SetRotation
PUBLIC	?GetRotation@CRenderTarget@UI@@QAEMXZ		; UI::CRenderTarget::GetRotation
PUBLIC	?SetRotationMode@CRenderTarget@UI@@QAEX_N@Z	; UI::CRenderTarget::SetRotationMode
PUBLIC	?DestroyRender@CRenderTarget@UI@@QAEXXZ		; UI::CRenderTarget::DestroyRender
PUBLIC	?OnUpdate@CRenderTarget@UI@@MAEXXZ		; UI::CRenderTarget::OnUpdate
PUBLIC	?OnRender@CRenderTarget@UI@@MAEXXZ		; UI::CRenderTarget::OnRender
PUBLIC	??_GCRenderTarget@UI@@UAEPAXI@Z			; UI::CRenderTarget::`scalar deleting destructor'
PUBLIC	??0CMarkBox@UI@@QAE@PAU_object@@@Z		; UI::CMarkBox::CMarkBox
PUBLIC	??1CMarkBox@UI@@UAE@XZ				; UI::CMarkBox::~CMarkBox
PUBLIC	?LoadImageA@CMarkBox@UI@@QAEXPBD@Z		; UI::CMarkBox::LoadImageA
PUBLIC	?SetDiffuseColor@CMarkBox@UI@@QAEXMMMM@Z	; UI::CMarkBox::SetDiffuseColor
PUBLIC	?SetIndex@CMarkBox@UI@@QAEXI@Z			; UI::CMarkBox::SetIndex
PUBLIC	?SetScale@CMarkBox@UI@@QAEXM@Z			; UI::CMarkBox::SetScale
PUBLIC	?OnCreateInstance@CMarkBox@UI@@MAEXXZ		; UI::CMarkBox::OnCreateInstance
PUBLIC	?OnDestroyInstance@CMarkBox@UI@@MAEXXZ		; UI::CMarkBox::OnDestroyInstance
PUBLIC	?OnUpdate@CMarkBox@UI@@MAEXXZ			; UI::CMarkBox::OnUpdate
PUBLIC	?OnRender@CMarkBox@UI@@MAEXXZ			; UI::CMarkBox::OnRender
PUBLIC	?OnChangePosition@CMarkBox@UI@@MAEXXZ		; UI::CMarkBox::OnChangePosition
PUBLIC	??_GCMarkBox@UI@@UAEPAXI@Z			; UI::CMarkBox::`scalar deleting destructor'
PUBLIC	?Type@CExpandedImageBox@UI@@SAKXZ		; UI::CExpandedImageBox::Type
PUBLIC	??0CExpandedImageBox@UI@@QAE@PAU_object@@@Z	; UI::CExpandedImageBox::CExpandedImageBox
PUBLIC	??1CExpandedImageBox@UI@@UAE@XZ			; UI::CExpandedImageBox::~CExpandedImageBox
PUBLIC	?SetScale@CExpandedImageBox@UI@@QAEXMM@Z	; UI::CExpandedImageBox::SetScale
PUBLIC	?SetOrigin@CExpandedImageBox@UI@@QAEXMM@Z	; UI::CExpandedImageBox::SetOrigin
PUBLIC	?SetRotation@CExpandedImageBox@UI@@QAEXM@Z	; UI::CExpandedImageBox::SetRotation
PUBLIC	?SetRenderingRect@CExpandedImageBox@UI@@UAEXMMMM@Z ; UI::CExpandedImageBox::SetRenderingRect
PUBLIC	?SetRenderingMode@CExpandedImageBox@UI@@QAEXH@Z	; UI::CExpandedImageBox::SetRenderingMode
PUBLIC	?GetRenderingWidth@CExpandedImageBox@UI@@UAEHXZ	; UI::CExpandedImageBox::GetRenderingWidth
PUBLIC	?GetRenderingHeight@CExpandedImageBox@UI@@UAEHXZ ; UI::CExpandedImageBox::GetRenderingHeight
PUBLIC	?OnSetRenderingRect@CExpandedImageBox@UI@@UAEXXZ ; UI::CExpandedImageBox::OnSetRenderingRect
PUBLIC	?SetExpandedRenderingRect@CExpandedImageBox@UI@@QAEXMMMMMMMM@Z ; UI::CExpandedImageBox::SetExpandedRenderingRect
PUBLIC	?SetTextureRenderingRect@CExpandedImageBox@UI@@QAEXMMMM@Z ; UI::CExpandedImageBox::SetTextureRenderingRect
PUBLIC	?GetPixelColor@CExpandedImageBox@UI@@QAEKKK@Z	; UI::CExpandedImageBox::GetPixelColor
PUBLIC	?OnCreateInstance@CExpandedImageBox@UI@@MAEXXZ	; UI::CExpandedImageBox::OnCreateInstance
PUBLIC	?OnDestroyInstance@CExpandedImageBox@UI@@MAEXXZ	; UI::CExpandedImageBox::OnDestroyInstance
PUBLIC	?OnUpdateRenderBox@CExpandedImageBox@UI@@MAEXXZ	; UI::CExpandedImageBox::OnUpdateRenderBox
PUBLIC	?OnUpdate@CExpandedImageBox@UI@@MAEXXZ		; UI::CExpandedImageBox::OnUpdate
PUBLIC	?OnRender@CExpandedImageBox@UI@@MAEXXZ		; UI::CExpandedImageBox::OnRender
PUBLIC	?OnIsType@CExpandedImageBox@UI@@MAEHK@Z		; UI::CExpandedImageBox::OnIsType
PUBLIC	??_GCExpandedImageBox@UI@@UAEPAXI@Z		; UI::CExpandedImageBox::`scalar deleting destructor'
PUBLIC	?Type@CAniImageBox@UI@@SAKXZ			; UI::CAniImageBox::Type
PUBLIC	??0CAniImageBox@UI@@QAE@PAU_object@@@Z		; UI::CAniImageBox::CAniImageBox
PUBLIC	??1CAniImageBox@UI@@UAE@XZ			; UI::CAniImageBox::~CAniImageBox
PUBLIC	?SetDelay@CAniImageBox@UI@@QAEXH@Z		; UI::CAniImageBox::SetDelay
PUBLIC	?AppendImage@CAniImageBox@UI@@QAEXPBD@Z		; UI::CAniImageBox::AppendImage
PUBLIC	?SetRenderingRect@CAniImageBox@UI@@UAEXMMMM@Z	; UI::CAniImageBox::SetRenderingRect
PUBLIC	?SetRenderingMode@CAniImageBox@UI@@QAEXH@Z	; UI::CAniImageBox::SetRenderingMode
PUBLIC	?ResetFrame@CAniImageBox@UI@@QAEXXZ		; UI::CAniImageBox::ResetFrame
PUBLIC	?GetRealWidth@CAniImageBox@UI@@QAEJXZ		; UI::CAniImageBox::GetRealWidth
PUBLIC	?GetRealHeight@CAniImageBox@UI@@QAEJXZ		; UI::CAniImageBox::GetRealHeight
PUBLIC	?SetSlotDiffuseColor@CAniImageBox@UI@@QAEXPBDE@Z ; UI::CAniImageBox::SetSlotDiffuseColor
PUBLIC	?SetSlotActivatedDiffuseColor@CAniImageBox@UI@@QAEXABV?$vector@MV?$allocator@M@std@@@std@@@Z ; UI::CAniImageBox::SetSlotActivatedDiffuseColor
PUBLIC	?OnUpdate@CAniImageBox@UI@@MAEXXZ		; UI::CAniImageBox::OnUpdate
PUBLIC	?OnRender@CAniImageBox@UI@@MAEXXZ		; UI::CAniImageBox::OnRender
PUBLIC	?OnChangePosition@CAniImageBox@UI@@MAEXXZ	; UI::CAniImageBox::OnChangePosition
PUBLIC	?OnEndFrame@CAniImageBox@UI@@MAEXXZ		; UI::CAniImageBox::OnEndFrame
PUBLIC	?OnKeyFrame@CAniImageBox@UI@@MAEXE@Z		; UI::CAniImageBox::OnKeyFrame
PUBLIC	?OnIsType@CAniImageBox@UI@@MAEHK@Z		; UI::CAniImageBox::OnIsType
PUBLIC	??_GCAniImageBox@UI@@UAEPAXI@Z			; UI::CAniImageBox::`scalar deleting destructor'
PUBLIC	?Type@CButton@UI@@SAKXZ				; UI::CButton::Type
PUBLIC	??0CButton@UI@@QAE@PAU_object@@@Z		; UI::CButton::CButton
PUBLIC	??1CButton@UI@@UAE@XZ				; UI::CButton::~CButton
PUBLIC	?SetUpVisual@CButton@UI@@QAEHPBD@Z		; UI::CButton::SetUpVisual
PUBLIC	?SetOverVisual@CButton@UI@@QAEHPBD@Z		; UI::CButton::SetOverVisual
PUBLIC	?SetDownVisual@CButton@UI@@QAEHPBD@Z		; UI::CButton::SetDownVisual
PUBLIC	?SetDisableVisual@CButton@UI@@QAEHPBD@Z		; UI::CButton::SetDisableVisual
PUBLIC	?GetUpVisualFileName@CButton@UI@@QAEPBDXZ	; UI::CButton::GetUpVisualFileName
PUBLIC	?GetOverVisualFileName@CButton@UI@@QAEPBDXZ	; UI::CButton::GetOverVisualFileName
PUBLIC	?GetDownVisualFileName@CButton@UI@@QAEPBDXZ	; UI::CButton::GetDownVisualFileName
PUBLIC	?Flash@CButton@UI@@QAEXXZ			; UI::CButton::Flash
PUBLIC	?Enable@CButton@UI@@QAEXXZ			; UI::CButton::Enable
PUBLIC	?Disable@CButton@UI@@QAEXXZ			; UI::CButton::Disable
PUBLIC	?SetUp@CButton@UI@@QAEXXZ			; UI::CButton::SetUp
PUBLIC	?Up@CButton@UI@@QAEXXZ				; UI::CButton::Up
PUBLIC	?Over@CButton@UI@@QAEXXZ			; UI::CButton::Over
PUBLIC	?Down@CButton@UI@@QAEXXZ			; UI::CButton::Down
PUBLIC	?IsDisable@CButton@UI@@QAEHXZ			; UI::CButton::IsDisable
PUBLIC	?IsPressed@CButton@UI@@QAEHXZ			; UI::CButton::IsPressed
PUBLIC	?OnSetRenderingRect@CButton@UI@@UAEXXZ		; UI::CButton::OnSetRenderingRect
PUBLIC	?OnUpdateRenderBox@CButton@UI@@UAEXXZ		; UI::CButton::OnUpdateRenderBox
PUBLIC	?SetRenderingRect@CButton@UI@@UAEXMMMM@Z	; UI::CButton::SetRenderingRect
PUBLIC	?OnUpdate@CButton@UI@@MAEXXZ			; UI::CButton::OnUpdate
PUBLIC	?OnRender@CButton@UI@@MAEXXZ			; UI::CButton::OnRender
PUBLIC	?OnChangePosition@CButton@UI@@MAEXXZ		; UI::CButton::OnChangePosition
PUBLIC	?OnMouseLeftButtonDown@CButton@UI@@MAEHXZ	; UI::CButton::OnMouseLeftButtonDown
PUBLIC	?OnMouseLeftButtonDoubleClick@CButton@UI@@MAEHXZ ; UI::CButton::OnMouseLeftButtonDoubleClick
PUBLIC	?OnMouseLeftButtonUp@CButton@UI@@MAEHXZ		; UI::CButton::OnMouseLeftButtonUp
PUBLIC	?OnMouseRightButtonDoubleClick@CButton@UI@@MAEHXZ ; UI::CButton::OnMouseRightButtonDoubleClick
PUBLIC	?OnMouseRightButtonUp@CButton@UI@@MAEHXZ	; UI::CButton::OnMouseRightButtonUp
PUBLIC	?OnMouseOverIn@CButton@UI@@MAEXXZ		; UI::CButton::OnMouseOverIn
PUBLIC	?OnMouseOverOut@CButton@UI@@MAEXXZ		; UI::CButton::OnMouseOverOut
PUBLIC	?IsEnable@CButton@UI@@IAEHXZ			; UI::CButton::IsEnable
PUBLIC	?SetCurrentVisual@CButton@UI@@IAEXPAVCGraphicExpandedImageInstance@@@Z ; UI::CButton::SetCurrentVisual
PUBLIC	?OnIsType@CButton@UI@@MAEHK@Z			; UI::CButton::OnIsType
PUBLIC	??_GCButton@UI@@UAEPAXI@Z			; UI::CButton::`scalar deleting destructor'
PUBLIC	??0CRadioButton@UI@@QAE@PAU_object@@@Z		; UI::CRadioButton::CRadioButton
PUBLIC	??1CRadioButton@UI@@UAE@XZ			; UI::CRadioButton::~CRadioButton
PUBLIC	?OnMouseLeftButtonDown@CRadioButton@UI@@MAEHXZ	; UI::CRadioButton::OnMouseLeftButtonDown
PUBLIC	?OnMouseLeftButtonUp@CRadioButton@UI@@MAEHXZ	; UI::CRadioButton::OnMouseLeftButtonUp
PUBLIC	?OnMouseOverIn@CRadioButton@UI@@MAEXXZ		; UI::CRadioButton::OnMouseOverIn
PUBLIC	?OnMouseOverOut@CRadioButton@UI@@MAEXXZ		; UI::CRadioButton::OnMouseOverOut
PUBLIC	??_GCRadioButton@UI@@UAEPAXI@Z			; UI::CRadioButton::`scalar deleting destructor'
PUBLIC	??0CToggleButton@UI@@QAE@PAU_object@@@Z		; UI::CToggleButton::CToggleButton
PUBLIC	??1CToggleButton@UI@@UAE@XZ			; UI::CToggleButton::~CToggleButton
PUBLIC	?OnMouseLeftButtonDown@CToggleButton@UI@@MAEHXZ	; UI::CToggleButton::OnMouseLeftButtonDown
PUBLIC	?OnMouseLeftButtonUp@CToggleButton@UI@@MAEHXZ	; UI::CToggleButton::OnMouseLeftButtonUp
PUBLIC	?OnMouseOverIn@CToggleButton@UI@@MAEXXZ		; UI::CToggleButton::OnMouseOverIn
PUBLIC	?OnMouseOverOut@CToggleButton@UI@@MAEXXZ	; UI::CToggleButton::OnMouseOverOut
PUBLIC	??_GCToggleButton@UI@@UAEPAXI@Z			; UI::CToggleButton::`scalar deleting destructor'
PUBLIC	??0CDragButton@UI@@QAE@PAU_object@@@Z		; UI::CDragButton::CDragButton
PUBLIC	??1CDragButton@UI@@UAE@XZ			; UI::CDragButton::~CDragButton
PUBLIC	?SetRestrictMovementArea@CDragButton@UI@@QAEXHHHH@Z ; UI::CDragButton::SetRestrictMovementArea
PUBLIC	?OnChangePosition@CDragButton@UI@@MAEXXZ	; UI::CDragButton::OnChangePosition
PUBLIC	?OnMouseOverIn@CDragButton@UI@@MAEXXZ		; UI::CDragButton::OnMouseOverIn
PUBLIC	?OnMouseOverOut@CDragButton@UI@@MAEXXZ		; UI::CDragButton::OnMouseOverOut
PUBLIC	??_GCDragButton@UI@@UAEPAXI@Z			; UI::CDragButton::`scalar deleting destructor'
PUBLIC	??$?8DU?$char_traits@D@std@@V?$allocator@D@1@@std@@YA_NABV?$basic_string@DU?$char_traits@D@std@@V?$allocator@D@2@@0@QBD@Z ; std::operator==<char,std::char_traits<char>,std::allocator<char> >
PUBLIC	??$from@M@tweeny@@YA?AV?$tween@M$$V@0@M@Z	; tweeny::from<float>
PUBLIC	??$during@H@?$tween@M$$V@tweeny@@QAEAAV01@H@Z	; tweeny::tween<float>::during<int>
PUBLIC	??$via@UcubicOutEasing@easing@tweeny@@@?$tween@M$$V@tweeny@@QAEAAV01@UcubicOutEasing@easing@1@@Z ; tweeny::tween<float>::via<tweeny::easing::cubicOutEasing>
PUBLIC	??1?$_Func_class@_NAAV?$tween@M$$V@tweeny@@M@std@@QAE@XZ ; std::_Func_class<bool,tweeny::tween<float> &,float>::~_Func_class<bool,tweeny::tween<float> &,float>
PUBLIC	??4?$function@$$A6A_NAAV?$tween@M$$V@tweeny@@M@Z@std@@QAEAAV01@ABV01@@Z ; std::function<bool __cdecl(tweeny::tween<float> &,float)>::operator=
PUBLIC	??1?$function@$$A6A_NAAV?$tween@M$$V@tweeny@@M@Z@std@@QAE@XZ ; std::function<bool __cdecl(tweeny::tween<float> &,float)>::~function<bool __cdecl(tweeny::tween<float> &,float)>
PUBLIC	??$?4AAV?$tween@M$$V@tweeny@@@?$optional@V?$tween@M$$V@tweeny@@@experimental@std@@QAEAAV012@AAV?$tween@M$$V@tweeny@@@Z ; std::experimental::optional<tweeny::tween<float> >::operator=<tweeny::tween<float> &>
PUBLIC	?XMMatrixTransformation2D@DirectX@UI@@YQ?AUXMMATRIX@12@T__m128@2@M00M0@Z ; UI::DirectX::XMMatrixTransformation2D
PUBLIC	?XMScalarSinCos@DirectX@UI@@YAXPAM0M@Z		; UI::DirectX::XMScalarSinCos
PUBLIC	??1?$shared_ptr@VCWikiRenderTarget@@@std@@QAE@XZ ; std::shared_ptr<CWikiRenderTarget>::~shared_ptr<CWikiRenderTarget>
PUBLIC	??$?HDU?$char_traits@D@std@@V?$allocator@D@1@@std@@YA?AV?$basic_string@DU?$char_traits@D@std@@V?$allocator@D@2@@0@ABV10@QBD@Z ; std::operator+<char,std::char_traits<char>,std::allocator<char> >
PUBLIC	??$_Destroy_range@V?$allocator@V?$function@$$A6A_NAAV?$tween@M$$V@tweeny@@M@Z@std@@@std@@@std@@YAXPAV?$function@$$A6A_NAAV?$tween@M$$V@tweeny@@M@Z@0@QAV10@AAV?$allocator@V?$function@$$A6A_NAAV?$tween@M$$V@tweeny@@M@Z@std@@@0@@Z ; std::_Destroy_range<std::allocator<std::function<bool __cdecl(tweeny::tween<float> &,float)> > >
PUBLIC	??1?$_Func_class@MMMM@std@@QAE@XZ		; std::_Func_class<float,float,float,float>::~_Func_class<float,float,float,float>
PUBLIC	?swap@?$function@$$A6AMMMM@Z@std@@QAEXAAV12@@Z	; std::function<float __cdecl(float,float,float)>::swap
PUBLIC	??1?$function@$$A6AMMMM@Z@std@@QAE@XZ		; std::function<float __cdecl(float,float,float)>::~function<float __cdecl(float,float,float)>
PUBLIC	??1?$tuple@V?$function@$$A6AMMMM@Z@std@@@std@@QAE@XZ ; std::tuple<std::function<float __cdecl(float,float,float)> >::~tuple<std::function<float __cdecl(float,float,float)> >
PUBLIC	??4?$tweenpoint@M@detail@tweeny@@QAEAAU012@ABU012@@Z ; tweeny::detail::tweenpoint<float>::operator=
PUBLIC	??$_Destroy_range@V?$allocator@U?$tweenpoint@M@detail@tweeny@@@std@@@std@@YAXPAU?$tweenpoint@M@detail@tweeny@@QAU123@AAV?$allocator@U?$tweenpoint@M@detail@tweeny@@@0@@Z ; std::_Destroy_range<std::allocator<tweeny::detail::tweenpoint<float> > >
PUBLIC	??$during@H@?$tweenpoint@M@detail@tweeny@@QAEXH@Z ; tweeny::detail::tweenpoint<float>::during<int>
PUBLIC	??$via@UcubicOutEasing@easing@tweeny@@@?$tweenpoint@M@detail@tweeny@@QAEXUcubicOutEasing@easing@2@@Z ; tweeny::detail::tweenpoint<float>::via<tweeny::easing::cubicOutEasing>
PUBLIC	??$_Emplace_reallocate@ABQAVCGraphicImageInstance@@@?$vector@PAVCGraphicImageInstance@@V?$allocator@PAVCGraphicImageInstance@@@std@@@std@@AAEPAPAVCGraphicImageInstance@@QAPAV2@ABQAV2@@Z ; std::vector<CGraphicImageInstance *,std::allocator<CGraphicImageInstance *> >::_Emplace_reallocate<CGraphicImageInstance * const &>
PUBLIC	??1?$_Alloc_construct_ptr@V?$allocator@U?$_List_node@PAVCWindow@UI@@PAX@std@@@std@@@std@@QAE@XZ ; std::_Alloc_construct_ptr<std::allocator<std::_List_node<UI::CWindow *,void *> > >::~_Alloc_construct_ptr<std::allocator<std::_List_node<UI::CWindow *,void *> > >
PUBLIC	??$_Assign_counted_range@PAV?$function@$$A6A_NAAV?$tween@M$$V@tweeny@@M@Z@std@@@?$vector@V?$function@$$A6A_NAAV?$tween@M$$V@tweeny@@M@Z@std@@V?$allocator@V?$function@$$A6A_NAAV?$tween@M$$V@tweeny@@M@Z@std@@@2@@std@@AAEXPAV?$function@$$A6A_NAAV?$tween@M$$V@tweeny@@M@Z@1@I@Z ; std::vector<std::function<bool __cdecl(tweeny::tween<float> &,float)>,std::allocator<std::function<bool __cdecl(tweeny::tween<float> &,float)> > >::_Assign_counted_range<std::function<bool __cdecl(tweeny::tween<float> &,float)> *>
PUBLIC	??$_Assign_counted_range@PAU?$tweenpoint@M@detail@tweeny@@@?$vector@U?$tweenpoint@M@detail@tweeny@@V?$allocator@U?$tweenpoint@M@detail@tweeny@@@std@@@std@@AAEXPAU?$tweenpoint@M@detail@tweeny@@I@Z ; std::vector<tweeny::detail::tweenpoint<float>,std::allocator<tweeny::detail::tweenpoint<float> > >::_Assign_counted_range<tweeny::detail::tweenpoint<float> *>
PUBLIC	??$clip@M@detail@tweeny@@YAMABM00@Z		; tweeny::detail::clip<float>
PUBLIC	??$_Emplace_reallocate@AAM@?$vector@U?$tweenpoint@M@detail@tweeny@@V?$allocator@U?$tweenpoint@M@detail@tweeny@@@std@@@std@@AAEPAU?$tweenpoint@M@detail@tweeny@@QAU234@AAM@Z ; std::vector<tweeny::detail::tweenpoint<float>,std::allocator<tweeny::detail::tweenpoint<float> > >::_Emplace_reallocate<float &>
PUBLIC	??$easingfill@V?$array@M$00@std@@V?$tuple@V?$function@$$A6AMMMM@Z@std@@@2@UcubicOutEasing@easing@tweeny@@@detail@tweeny@@YAXAAV?$tuple@V?$function@$$A6AMMMM@Z@std@@@std@@UcubicOutEasing@easing@1@U?$int2type@$0A@@01@@Z ; tweeny::detail::easingfill<std::array<float,1>,std::tuple<std::function<float __cdecl(float,float,float)> >,tweeny::easing::cubicOutEasing>
PUBLIC	??$_Uninitialized_copy_n@PAV?$function@$$A6A_NAAV?$tween@M$$V@tweeny@@M@Z@std@@V?$allocator@V?$function@$$A6A_NAAV?$tween@M$$V@tweeny@@M@Z@std@@@2@@std@@YAPAV?$function@$$A6A_NAAV?$tween@M$$V@tweeny@@M@Z@0@PAV10@I0AAV?$allocator@V?$function@$$A6A_NAAV?$tween@M$$V@tweeny@@M@Z@std@@@0@@Z ; std::_Uninitialized_copy_n<std::function<bool __cdecl(tweeny::tween<float> &,float)> *,std::allocator<std::function<bool __cdecl(tweeny::tween<float> &,float)> > >
PUBLIC	??$_Copy_n_unchecked4@PAV?$function@$$A6A_NAAV?$tween@M$$V@tweeny@@M@Z@std@@IPAV12@@std@@YAPAV?$function@$$A6A_NAAV?$tween@M$$V@tweeny@@M@Z@0@PAV10@I0@Z ; std::_Copy_n_unchecked4<std::function<bool __cdecl(tweeny::tween<float> &,float)> *,unsigned int,std::function<bool __cdecl(tweeny::tween<float> &,float)> *>
PUBLIC	??$_Emplace_reallocate@ABV?$function@$$A6A_NAAV?$tween@M$$V@tweeny@@M@Z@std@@@?$vector@V?$function@$$A6A_NAAV?$tween@M$$V@tweeny@@M@Z@std@@V?$allocator@V?$function@$$A6A_NAAV?$tween@M$$V@tweeny@@M@Z@std@@@2@@std@@AAEPAV?$function@$$A6A_NAAV?$tween@M$$V@tweeny@@M@Z@1@QAV21@ABV21@@Z ; std::vector<std::function<bool __cdecl(tweeny::tween<float> &,float)>,std::allocator<std::function<bool __cdecl(tweeny::tween<float> &,float)> > >::_Emplace_reallocate<std::function<bool __cdecl(tweeny::tween<float> &,float)> const &>
PUBLIC	??1?$_Tidy_guard@V?$vector@V?$function@$$A6A_NAAV?$tween@M$$V@tweeny@@M@Z@std@@V?$allocator@V?$function@$$A6A_NAAV?$tween@M$$V@tweeny@@M@Z@std@@@2@@std@@@std@@QAE@XZ ; std::_Tidy_guard<std::vector<std::function<bool __cdecl(tweeny::tween<float> &,float)>,std::allocator<std::function<bool __cdecl(tweeny::tween<float> &,float)> > > >::~_Tidy_guard<std::vector<std::function<bool __cdecl(tweeny::tween<float> &,float)>,std::allocator<std::function<bool __cdecl(tweeny::tween<float> &,float)> > > >
PUBLIC	??$_Uninitialized_copy_n@PAU?$tweenpoint@M@detail@tweeny@@V?$allocator@U?$tweenpoint@M@detail@tweeny@@@std@@@std@@YAPAU?$tweenpoint@M@detail@tweeny@@PAU123@I0AAV?$allocator@U?$tweenpoint@M@detail@tweeny@@@0@@Z ; std::_Uninitialized_copy_n<tweeny::detail::tweenpoint<float> *,std::allocator<tweeny::detail::tweenpoint<float> > >
PUBLIC	??1?$_Tidy_guard@V?$vector@U?$tweenpoint@M@detail@tweeny@@V?$allocator@U?$tweenpoint@M@detail@tweeny@@@std@@@std@@@std@@QAE@XZ ; std::_Tidy_guard<std::vector<tweeny::detail::tweenpoint<float>,std::allocator<tweeny::detail::tweenpoint<float> > > >::~_Tidy_guard<std::vector<tweeny::detail::tweenpoint<float>,std::allocator<tweeny::detail::tweenpoint<float> > > >
PUBLIC	??$_Uninitialized_move@PAU?$tweenpoint@M@detail@tweeny@@V?$allocator@U?$tweenpoint@M@detail@tweeny@@@std@@@std@@YAPAU?$tweenpoint@M@detail@tweeny@@QAU123@0PAU123@AAV?$allocator@U?$tweenpoint@M@detail@tweeny@@@0@@Z ; std::_Uninitialized_move<tweeny::detail::tweenpoint<float> *,std::allocator<tweeny::detail::tweenpoint<float> > >
PUBLIC	??$_Copy_memmove@PAPAVCGraphicImageInstance@@PAPAV1@@std@@YAPAPAVCGraphicImageInstance@@PAPAV1@00@Z ; std::_Copy_memmove<CGraphicImageInstance * *,CGraphicImageInstance * *>
PUBLIC	??1?$_Uninitialized_backout_al@V?$allocator@V?$function@$$A6A_NAAV?$tween@M$$V@tweeny@@M@Z@std@@@std@@@std@@QAE@XZ ; std::_Uninitialized_backout_al<std::allocator<std::function<bool __cdecl(tweeny::tween<float> &,float)> > >::~_Uninitialized_backout_al<std::allocator<std::function<bool __cdecl(tweeny::tween<float> &,float)> > >
PUBLIC	??$_Uninitialized_move@PAV?$function@$$A6A_NAAV?$tween@M$$V@tweeny@@M@Z@std@@V?$allocator@V?$function@$$A6A_NAAV?$tween@M$$V@tweeny@@M@Z@std@@@2@@std@@YAPAV?$function@$$A6A_NAAV?$tween@M$$V@tweeny@@M@Z@0@QAV10@0PAV10@AAV?$allocator@V?$function@$$A6A_NAAV?$tween@M$$V@tweeny@@M@Z@std@@@0@@Z ; std::_Uninitialized_move<std::function<bool __cdecl(tweeny::tween<float> &,float)> *,std::allocator<std::function<bool __cdecl(tweeny::tween<float> &,float)> > >
PUBLIC	??1?$_Uninitialized_backout_al@V?$allocator@U?$tweenpoint@M@detail@tweeny@@@std@@@std@@QAE@XZ ; std::_Uninitialized_backout_al<std::allocator<tweeny::detail::tweenpoint<float> > >::~_Uninitialized_backout_al<std::allocator<tweeny::detail::tweenpoint<float> > >
PUBLIC	??$_Resize_reallocate@U_Value_init_tag@std@@@?$vector@V?$function@$$A6A_NAAV?$tween@M$$V@tweeny@@M@Z@std@@V?$allocator@V?$function@$$A6A_NAAV?$tween@M$$V@tweeny@@M@Z@std@@@2@@std@@AAEXIABU_Value_init_tag@1@@Z ; std::vector<std::function<bool __cdecl(tweeny::tween<float> &,float)>,std::allocator<std::function<bool __cdecl(tweeny::tween<float> &,float)> > >::_Resize_reallocate<std::_Value_init_tag>
PUBLIC	??$_Emplace_reallocate@ABI@?$vector@IV?$allocator@I@std@@@std@@AAEPAIQAIABI@Z ; std::vector<unsigned int,std::allocator<unsigned int> >::_Emplace_reallocate<unsigned int const &>
PUBLIC	??$run@M@cubicOutEasing@easing@tweeny@@SAMMMM@Z	; tweeny::easing::cubicOutEasing::run<float>
PUBLIC	??$during@G@?$tweenpoint@M@detail@tweeny@@QAEXG@Z ; tweeny::detail::tweenpoint<float>::during<unsigned short>
PUBLIC	??$via@UdefaultEasing@easing@tweeny@@@?$tweenpoint@M@detail@tweeny@@QAEXUdefaultEasing@easing@2@@Z ; tweeny::detail::tweenpoint<float>::via<tweeny::easing::defaultEasing>
PUBLIC	??$__std_max_element@$$CBG@@YAPBGPBG0@Z		; __std_max_element<unsigned short const >
PUBLIC	??$_Copy_memmove@PAIPAI@std@@YAPAIPAI00@Z	; std::_Copy_memmove<unsigned int *,unsigned int *>
PUBLIC	??$easingfill@V?$array@M$00@std@@V?$tuple@V?$function@$$A6AMMMM@Z@std@@@2@UdefaultEasing@easing@tweeny@@@detail@tweeny@@YAXAAV?$tuple@V?$function@$$A6AMMMM@Z@std@@@std@@UdefaultEasing@easing@1@U?$int2type@$0A@@01@@Z ; tweeny::detail::easingfill<std::array<float,1>,std::tuple<std::function<float __cdecl(float,float,float)> >,tweeny::easing::defaultEasing>
PUBLIC	??$_Test_callable@$$A6AMMMM@Z@std@@YA_NA6AMMMM@Z@Z ; std::_Test_callable<float __cdecl(float,float,float)>
PUBLIC	?_Copy@?$_Func_impl_no_alloc@P6AMMMM@ZMMMM@std@@EBEPAV?$_Func_base@MMMM@2@PAX@Z ; std::_Func_impl_no_alloc<float (__cdecl*)(float,float,float),float,float,float,float>::_Copy
PUBLIC	?_Move@?$_Func_impl_no_alloc@P6AMMMM@ZMMMM@std@@EAEPAV?$_Func_base@MMMM@2@PAX@Z ; std::_Func_impl_no_alloc<float (__cdecl*)(float,float,float),float,float,float,float>::_Move
PUBLIC	?_Do_call@?$_Func_impl_no_alloc@P6AMMMM@ZMMMM@std@@EAEM$$QAM00@Z ; std::_Func_impl_no_alloc<float (__cdecl*)(float,float,float),float,float,float,float>::_Do_call
PUBLIC	?_Target_type@?$_Func_impl_no_alloc@P6AMMMM@ZMMMM@std@@EBEABVtype_info@@XZ ; std::_Func_impl_no_alloc<float (__cdecl*)(float,float,float),float,float,float,float>::_Target_type
PUBLIC	?_Get@?$_Func_impl_no_alloc@P6AMMMM@ZMMMM@std@@EBEPBXXZ ; std::_Func_impl_no_alloc<float (__cdecl*)(float,float,float),float,float,float,float>::_Get
PUBLIC	?_Delete_this@?$_Func_impl_no_alloc@P6AMMMM@ZMMMM@std@@EAEX_N@Z ; std::_Func_impl_no_alloc<float (__cdecl*)(float,float,float),float,float,float,float>::_Delete_this
PUBLIC	??$run@M@defaultEasing@easing@tweeny@@SAMMMM@Z	; tweeny::easing::defaultEasing::run<float>
PUBLIC	??_7exception@std@@6B@				; std::exception::`vftable'
PUBLIC	??_C@_0BC@EOODALEL@Unknown?5exception@		; `string'
PUBLIC	??_7bad_alloc@std@@6B@				; std::bad_alloc::`vftable'
PUBLIC	??_7bad_array_new_length@std@@6B@		; std::bad_array_new_length::`vftable'
PUBLIC	??_C@_0BF@KINCDENJ@bad?5array?5new?5length@	; `string'
PUBLIC	__TI3?AVbad_array_new_length@std@@
PUBLIC	__CTA3?AVbad_array_new_length@std@@
PUBLIC	??_R0?AVbad_array_new_length@std@@@8		; std::bad_array_new_length `RTTI Type Descriptor'
PUBLIC	__CT??_R0?AVbad_array_new_length@std@@@8??0bad_array_new_length@std@@QAE@ABV01@@Z12
PUBLIC	??_R0?AVbad_alloc@std@@@8			; std::bad_alloc `RTTI Type Descriptor'
PUBLIC	__CT??_R0?AVbad_alloc@std@@@8??0bad_alloc@std@@QAE@ABV01@@Z12
PUBLIC	??_R0?AVexception@std@@@8			; std::exception `RTTI Type Descriptor'
PUBLIC	__CT??_R0?AVexception@std@@@8??0exception@std@@QAE@ABV01@@Z12
PUBLIC	??_C@_0BA@JFNIOLAK@string?5too?5long@		; `string'
PUBLIC	??_7logic_error@std@@6B@			; std::logic_error::`vftable'
PUBLIC	??_C@_00CNPNBAHC@@				; `string'
PUBLIC	?ms_singleton@?$CSingleton@VCTimer@@@@0PAVCTimer@@A ; CSingleton<CTimer>::ms_singleton
PUBLIC	?ms_singleton@?$CSingleton@VCResourceManager@@@@0PAVCResourceManager@@A ; CSingleton<CResourceManager>::ms_singleton
PUBLIC	?ms_singleton@?$CSingleton@VCPythonGraphic@@@@0PAVCPythonGraphic@@A ; CSingleton<CPythonGraphic>::ms_singleton
PUBLIC	?ms_singleton@?$CSingleton@VCWindowManager@UI@@@@0PAVCWindowManager@UI@@A ; CSingleton<UI::CWindowManager>::ms_singleton
PUBLIC	??_C@_0BA@FOIKENOD@vector?5too?5long@		; `string'
PUBLIC	??_R4exception@std@@6B@				; std::exception::`RTTI Complete Object Locator'
PUBLIC	??_R3exception@std@@8				; std::exception::`RTTI Class Hierarchy Descriptor'
PUBLIC	??_R2exception@std@@8				; std::exception::`RTTI Base Class Array'
PUBLIC	??_R1A@?0A@EA@exception@std@@8			; std::exception::`RTTI Base Class Descriptor at (0,-1,0,64)'
PUBLIC	??_R4bad_alloc@std@@6B@				; std::bad_alloc::`RTTI Complete Object Locator'
PUBLIC	??_R3bad_alloc@std@@8				; std::bad_alloc::`RTTI Class Hierarchy Descriptor'
PUBLIC	??_R2bad_alloc@std@@8				; std::bad_alloc::`RTTI Base Class Array'
PUBLIC	??_R1A@?0A@EA@bad_alloc@std@@8			; std::bad_alloc::`RTTI Base Class Descriptor at (0,-1,0,64)'
PUBLIC	??_R4bad_array_new_length@std@@6B@		; std::bad_array_new_length::`RTTI Complete Object Locator'
PUBLIC	??_R3bad_array_new_length@std@@8		; std::bad_array_new_length::`RTTI Class Hierarchy Descriptor'
PUBLIC	??_R2bad_array_new_length@std@@8		; std::bad_array_new_length::`RTTI Base Class Array'
PUBLIC	??_R1A@?0A@EA@bad_array_new_length@std@@8	; std::bad_array_new_length::`RTTI Base Class Descriptor at (0,-1,0,64)'
PUBLIC	??_R4logic_error@std@@6B@			; std::logic_error::`RTTI Complete Object Locator'
PUBLIC	??_R0?AVlogic_error@std@@@8			; std::logic_error `RTTI Type Descriptor'
PUBLIC	??_R3logic_error@std@@8				; std::logic_error::`RTTI Class Hierarchy Descriptor'
PUBLIC	??_R2logic_error@std@@8				; std::logic_error::`RTTI Base Class Array'
PUBLIC	??_R1A@?0A@EA@logic_error@std@@8		; std::logic_error::`RTTI Base Class Descriptor at (0,-1,0,64)'
PUBLIC	??_7bad_optional_access@experimental@std@@6B@	; std::experimental::bad_optional_access::`vftable'
PUBLIC	?def@easing@tweeny@@2UdefaultEasing@12@B	; tweeny::easing::def
PUBLIC	?cubicOut@easing@tweeny@@2UcubicOutEasing@12@B	; tweeny::easing::cubicOut
PUBLIC	??_7CWindow@UI@@6B@				; UI::CWindow::`vftable'
PUBLIC	??_7CUiWikiRenderTarget@UI@@6B@			; UI::CUiWikiRenderTarget::`vftable'
PUBLIC	??_7CBox@UI@@6B@				; UI::CBox::`vftable'
PUBLIC	??_7CBar@UI@@6B@				; UI::CBar::`vftable'
PUBLIC	??_7CLine@UI@@6B@				; UI::CLine::`vftable'
PUBLIC	??_7CBar3D@UI@@6B@				; UI::CBar3D::`vftable'
PUBLIC	??_7CTextLine@UI@@6B@				; UI::CTextLine::`vftable'
PUBLIC	??_7CNumberLine@UI@@6B@				; UI::CNumberLine::`vftable'
PUBLIC	??_7CImageBox@UI@@6B@				; UI::CImageBox::`vftable'
PUBLIC	??_7CRenderTarget@UI@@6B@			; UI::CRenderTarget::`vftable'
PUBLIC	??_7CMarkBox@UI@@6B@				; UI::CMarkBox::`vftable'
PUBLIC	??_7CExpandedImageBox@UI@@6B@			; UI::CExpandedImageBox::`vftable'
PUBLIC	??_7CAniImageBox@UI@@6B@			; UI::CAniImageBox::`vftable'
PUBLIC	??_7CButton@UI@@6B@				; UI::CButton::`vftable'
PUBLIC	??_7CRadioButton@UI@@6B@			; UI::CRadioButton::`vftable'
PUBLIC	??_7CToggleButton@UI@@6B@			; UI::CToggleButton::`vftable'
PUBLIC	??_7CDragButton@UI@@6B@				; UI::CDragButton::`vftable'
PUBLIC	?ms_singleton@?$CSingleton@VCStateManager@@@@0PAVCStateManager@@A ; CSingleton<CStateManager>::ms_singleton
PUBLIC	?ms_singleton@?$CSingleton@VCWikiRenderTargetManager@@@@0PAVCWikiRenderTargetManager@@A ; CSingleton<CWikiRenderTargetManager>::ms_singleton
PUBLIC	?ms_singleton@?$CSingleton@VCPythonConfig@@@@0PAVCPythonConfig@@A ; CSingleton<CPythonConfig>::ms_singleton
PUBLIC	??_C@_07EFPFKGGH@CWindow@			; `string'
PUBLIC	??_C@_01HIHLOKLC@1@				; `string'
PUBLIC	??_C@_01GBGANLPD@0@				; `string'
PUBLIC	??_C@_0P@BAAKKIGI@ANIMATION_MODE@		; `string'
PUBLIC	??_C@_06JLNHBMCE@OnHide@			; `string'
PUBLIC	??_C@_08DCJEAFK@OnUpdate@			; `string'
PUBLIC	??_C@_02PDIHAGKM@ii@				; `string'
PUBLIC	??_C@_0BF@NPECNJEC@OnUpdateLockedCursor@	; `string'
PUBLIC	??_C@_08PAJMEILO@OnRender@			; `string'
PUBLIC	??_C@_0O@PENIBOGB@OnAfterRender@		; `string'
PUBLIC	??_C@_0DA@NEIGMJK@?5CWindow?3?3SetTop?5?9?5Failed?5to?5fi@ ; `string'
PUBLIC	??_C@_04INACLLOK@?$CIii?$CJ@			; `string'
PUBLIC	??_C@_0M@ECAEGPAI@OnMouseDrag@			; `string'
PUBLIC	??_C@_0N@PFKNBOJP@OnMoveWindow@			; `string'
PUBLIC	??_C@_0L@GIMNGBCD@OnSetFocus@			; `string'
PUBLIC	??_C@_0M@CEGPCFGM@OnKillFocus@			; `string'
PUBLIC	??_C@_0O@JKDAFDCC@OnMouseOverIn@		; `string'
PUBLIC	??_C@_0P@KLLBNOAI@OnMouseOverOut@		; `string'
PUBLIC	??_C@_0M@MGDIFFEM@OnMouseMove@			; `string'
PUBLIC	??_C@_06OCNPCIEO@OnDrop@			; `string'
PUBLIC	??_C@_05LOOKECNH@OnTop@				; `string'
PUBLIC	??_C@_0M@DGOFHNMI@OnIMEUpdate@			; `string'
PUBLIC	??_C@_0BG@DNDHJHBD@OnMouseLeftButtonDown@	; `string'
PUBLIC	??_C@_0BE@MJALGMGL@OnMouseLeftButtonUp@		; `string'
PUBLIC	??_C@_0BN@KEKGIMMP@OnMouseLeftButtonDoubleClick@ ; `string'
PUBLIC	??_C@_0BH@ELECPAKA@OnMouseRightButtonDown@	; `string'
PUBLIC	??_C@_0BF@FDIGHPIH@OnMouseRightButtonUp@	; `string'
PUBLIC	??_C@_0BO@NPKMHGOP@OnMouseRightButtonDoubleClick@ ; `string'
PUBLIC	??_C@_0BI@LKFMHNKP@OnMouseMiddleButtonDown@	; `string'
PUBLIC	??_C@_0BG@IGAJCEHG@OnMouseMiddleButtonUp@	; `string'
PUBLIC	??_C@_03LIHNMIHG@?$CIi?$CJ@			; `string'
PUBLIC	??_C@_0BD@GMLJAJMG@OnScrollWheelEvent@		; `string'
PUBLIC	??_C@_08HFELFLOI@OnIMETab@			; `string'
PUBLIC	??_C@_0M@PILLCCFN@OnIMEReturn@			; `string'
PUBLIC	??_C@_0BF@NBAFCOEB@OnIMEUpdateSelection@	; `string'
PUBLIC	??_C@_0N@BMPDGPBH@OnIMEKeyDown@			; `string'
PUBLIC	??_C@_0BE@EHKLBB@OnIMEChangeCodePage@		; `string'
PUBLIC	??_C@_0BH@HEDPBKEK@OnIMEOpenCandidateList@	; `string'
PUBLIC	??_C@_0BI@LOIKIPJ@OnIMECloseCandidateList@	; `string'
PUBLIC	??_C@_0BE@KDCLEDDC@OnIMEOpenReadingWnd@		; `string'
PUBLIC	??_C@_0BF@DEOILJPB@OnIMECloseReadingWnd@	; `string'
PUBLIC	??_C@_09CMHFBEC@OnKeyDown@			; `string'
PUBLIC	??_C@_07NGNLLPEG@OnKeyUp@			; `string'
PUBLIC	??_C@_0BB@LHAEDNPI@OnPressReturnKey@		; `string'
PUBLIC	??_C@_0BB@HCFLIMGH@OnPressEscapeKey@		; `string'
PUBLIC	??_C@_0P@KEJGBDKK@OnPressExitKey@		; `string'
PUBLIC	??_C@_0EB@OFBMEDEK@CWikiRenderTargetManager?5could?5@ ; `string'
PUBLIC	??_C@_06ICLMADCA@CBar3D@			; `string'
PUBLIC	??_C@_09BAJHDABN@CTextLine@			; `string'
PUBLIC	??_C@_04FAHLGLIA@?4fnt@				; `string'
PUBLIC	??_C@_0BB@CELBIPME@OnRenderSelected@		; `string'
PUBLIC	??_C@_0M@HGOBFKBB@CNumberLine@			; `string'
PUBLIC	??_C@_0BO@GPCBPBEE@d?3?1ymir?5work?1ui?1game?1taskbar?1@ ; `string'
PUBLIC	??_C@_09GPLBLMNE@colon?4sub@			; `string'
PUBLIC	??_C@_0BB@POBNNLPJ@questionmark?4sub@		; `string'
PUBLIC	??_C@_09JMLAABIP@slash?4sub@			; `string'
PUBLIC	??_C@_0M@MHAKIBOD@percent?4sub@			; `string'
PUBLIC	??_C@_08FPHNCABK@plus?4sub@			; `string'
PUBLIC	??_C@_05PINNHPFB@m?4sub@			; `string'
PUBLIC	??_C@_05FJEGFMDH@g?4sub@			; `string'
PUBLIC	??_C@_05EHJFGOBE@p?4sub@			; `string'
PUBLIC	??_C@_04DLFHDFGL@?4sub@				; `string'
PUBLIC	??_C@_09KMLFEEMH@CImageBox@			; `string'
PUBLIC	??_C@_0BC@DJHPPMGJ@CExpandedImageBox@		; `string'
PUBLIC	??_C@_0N@LBBHECOO@CAniImageBox@			; `string'
PUBLIC	??_C@_0L@LBHHAGOH@OnEndFrame@			; `string'
PUBLIC	??_C@_0L@CCNGDMCN@OnKeyFrame@			; `string'
PUBLIC	??_C@_07OFEOKGEK@CButton@			; `string'
PUBLIC	??_C@_09MFFHPOPB@CallEvent@			; `string'
PUBLIC	??_C@_09FJAHACEO@DownEvent@			; `string'
PUBLIC	??_C@_0M@LEFCMAKP@ShowToolTip@			; `string'
PUBLIC	??_C@_0M@HCIAMHJN@HideToolTip@			; `string'
PUBLIC	??_C@_0O@MBBNNMAO@OnSetUpVisual@		; `string'
PUBLIC	??_C@_0BA@DIDBMCJO@OnSetOverVisual@		; `string'
PUBLIC	??_C@_0BA@GJIJKBGL@OnSetDownVisual@		; `string'
PUBLIC	??_C@_0BD@OKLAKJGM@OnSetDisableVisual@		; `string'
PUBLIC	??_C@_0L@HGABHAMN@OnToggleUp@			; `string'
PUBLIC	??_C@_0N@NBGLGPDJ@OnToggleDown@			; `string'
PUBLIC	??_C@_06GJPOLLJG@OnMove@			; `string'
PUBLIC	__TI3?AVbad_optional_access@experimental@std@@
PUBLIC	__CTA3?AVbad_optional_access@experimental@std@@
PUBLIC	??_R0?AVbad_optional_access@experimental@std@@@8 ; std::experimental::bad_optional_access `RTTI Type Descriptor'
PUBLIC	__CT??_R0?AVbad_optional_access@experimental@std@@@8??0bad_optional_access@experimental@std@@QAE@ABV012@@Z12
PUBLIC	__CT??_R0?AVlogic_error@std@@@8??0logic_error@std@@QAE@ABV01@@Z12
PUBLIC	??_C@_0BE@KGBCPEAI@bad?5optional?5access@	; `string'
PUBLIC	??_C@_0O@NKNMEGII@list?5too?5long@		; `string'
PUBLIC	??_C@_0BJ@DHFDPMIM@invalid?5vector?5subscript@	; `string'
PUBLIC	??_7?$_Func_impl_no_alloc@P6AMMMM@ZMMMM@std@@6B@ ; std::_Func_impl_no_alloc<float (__cdecl*)(float,float,float),float,float,float,float>::`vftable'
PUBLIC	??_R0P6AMMMM@Z@8				; float (__cdecl*)(float,float,float) `RTTI Type Descriptor'
PUBLIC	??_R4CWindow@UI@@6B@				; UI::CWindow::`RTTI Complete Object Locator'
PUBLIC	??_R0?AVCWindow@UI@@@8				; UI::CWindow `RTTI Type Descriptor'
PUBLIC	??_R3CWindow@UI@@8				; UI::CWindow::`RTTI Class Hierarchy Descriptor'
PUBLIC	??_R2CWindow@UI@@8				; UI::CWindow::`RTTI Base Class Array'
PUBLIC	??_R1A@?0A@EA@CWindow@UI@@8			; UI::CWindow::`RTTI Base Class Descriptor at (0,-1,0,64)'
PUBLIC	??_R4bad_optional_access@experimental@std@@6B@	; std::experimental::bad_optional_access::`RTTI Complete Object Locator'
PUBLIC	??_R3bad_optional_access@experimental@std@@8	; std::experimental::bad_optional_access::`RTTI Class Hierarchy Descriptor'
PUBLIC	??_R2bad_optional_access@experimental@std@@8	; std::experimental::bad_optional_access::`RTTI Base Class Array'
PUBLIC	??_R1A@?0A@EA@bad_optional_access@experimental@std@@8 ; std::experimental::bad_optional_access::`RTTI Base Class Descriptor at (0,-1,0,64)'
PUBLIC	??_R4CUiWikiRenderTarget@UI@@6B@		; UI::CUiWikiRenderTarget::`RTTI Complete Object Locator'
PUBLIC	??_R0?AVCUiWikiRenderTarget@UI@@@8		; UI::CUiWikiRenderTarget `RTTI Type Descriptor'
PUBLIC	??_R3CUiWikiRenderTarget@UI@@8			; UI::CUiWikiRenderTarget::`RTTI Class Hierarchy Descriptor'
PUBLIC	??_R2CUiWikiRenderTarget@UI@@8			; UI::CUiWikiRenderTarget::`RTTI Base Class Array'
PUBLIC	??_R1A@?0A@EA@CUiWikiRenderTarget@UI@@8		; UI::CUiWikiRenderTarget::`RTTI Base Class Descriptor at (0,-1,0,64)'
PUBLIC	??_R4CBox@UI@@6B@				; UI::CBox::`RTTI Complete Object Locator'
PUBLIC	??_R0?AVCBox@UI@@@8				; UI::CBox `RTTI Type Descriptor'
PUBLIC	??_R3CBox@UI@@8					; UI::CBox::`RTTI Class Hierarchy Descriptor'
PUBLIC	??_R2CBox@UI@@8					; UI::CBox::`RTTI Base Class Array'
PUBLIC	??_R1A@?0A@EA@CBox@UI@@8			; UI::CBox::`RTTI Base Class Descriptor at (0,-1,0,64)'
PUBLIC	??_R4CBar@UI@@6B@				; UI::CBar::`RTTI Complete Object Locator'
PUBLIC	??_R0?AVCBar@UI@@@8				; UI::CBar `RTTI Type Descriptor'
PUBLIC	??_R3CBar@UI@@8					; UI::CBar::`RTTI Class Hierarchy Descriptor'
PUBLIC	??_R2CBar@UI@@8					; UI::CBar::`RTTI Base Class Array'
PUBLIC	??_R1A@?0A@EA@CBar@UI@@8			; UI::CBar::`RTTI Base Class Descriptor at (0,-1,0,64)'
PUBLIC	??_R4CLine@UI@@6B@				; UI::CLine::`RTTI Complete Object Locator'
PUBLIC	??_R0?AVCLine@UI@@@8				; UI::CLine `RTTI Type Descriptor'
PUBLIC	??_R3CLine@UI@@8				; UI::CLine::`RTTI Class Hierarchy Descriptor'
PUBLIC	??_R2CLine@UI@@8				; UI::CLine::`RTTI Base Class Array'
PUBLIC	??_R1A@?0A@EA@CLine@UI@@8			; UI::CLine::`RTTI Base Class Descriptor at (0,-1,0,64)'
PUBLIC	??_R4CBar3D@UI@@6B@				; UI::CBar3D::`RTTI Complete Object Locator'
PUBLIC	??_R0?AVCBar3D@UI@@@8				; UI::CBar3D `RTTI Type Descriptor'
PUBLIC	??_R3CBar3D@UI@@8				; UI::CBar3D::`RTTI Class Hierarchy Descriptor'
PUBLIC	??_R2CBar3D@UI@@8				; UI::CBar3D::`RTTI Base Class Array'
PUBLIC	??_R1A@?0A@EA@CBar3D@UI@@8			; UI::CBar3D::`RTTI Base Class Descriptor at (0,-1,0,64)'
PUBLIC	??_R4CTextLine@UI@@6B@				; UI::CTextLine::`RTTI Complete Object Locator'
PUBLIC	??_R0?AVCTextLine@UI@@@8			; UI::CTextLine `RTTI Type Descriptor'
PUBLIC	??_R3CTextLine@UI@@8				; UI::CTextLine::`RTTI Class Hierarchy Descriptor'
PUBLIC	??_R2CTextLine@UI@@8				; UI::CTextLine::`RTTI Base Class Array'
PUBLIC	??_R1A@?0A@EA@CTextLine@UI@@8			; UI::CTextLine::`RTTI Base Class Descriptor at (0,-1,0,64)'
PUBLIC	??_R4CNumberLine@UI@@6B@			; UI::CNumberLine::`RTTI Complete Object Locator'
PUBLIC	??_R0?AVCNumberLine@UI@@@8			; UI::CNumberLine `RTTI Type Descriptor'
PUBLIC	??_R3CNumberLine@UI@@8				; UI::CNumberLine::`RTTI Class Hierarchy Descriptor'
PUBLIC	??_R2CNumberLine@UI@@8				; UI::CNumberLine::`RTTI Base Class Array'
PUBLIC	??_R1A@?0A@EA@CNumberLine@UI@@8			; UI::CNumberLine::`RTTI Base Class Descriptor at (0,-1,0,64)'
PUBLIC	??_R4CImageBox@UI@@6B@				; UI::CImageBox::`RTTI Complete Object Locator'
PUBLIC	??_R0?AVCImageBox@UI@@@8			; UI::CImageBox `RTTI Type Descriptor'
PUBLIC	??_R3CImageBox@UI@@8				; UI::CImageBox::`RTTI Class Hierarchy Descriptor'
PUBLIC	??_R2CImageBox@UI@@8				; UI::CImageBox::`RTTI Base Class Array'
PUBLIC	??_R1A@?0A@EA@CImageBox@UI@@8			; UI::CImageBox::`RTTI Base Class Descriptor at (0,-1,0,64)'
PUBLIC	??_R4CRenderTarget@UI@@6B@			; UI::CRenderTarget::`RTTI Complete Object Locator'
PUBLIC	??_R0?AVCRenderTarget@UI@@@8			; UI::CRenderTarget `RTTI Type Descriptor'
PUBLIC	??_R3CRenderTarget@UI@@8			; UI::CRenderTarget::`RTTI Class Hierarchy Descriptor'
PUBLIC	??_R2CRenderTarget@UI@@8			; UI::CRenderTarget::`RTTI Base Class Array'
PUBLIC	??_R1A@?0A@EA@CRenderTarget@UI@@8		; UI::CRenderTarget::`RTTI Base Class Descriptor at (0,-1,0,64)'
PUBLIC	??_R4CMarkBox@UI@@6B@				; UI::CMarkBox::`RTTI Complete Object Locator'
PUBLIC	??_R0?AVCMarkBox@UI@@@8				; UI::CMarkBox `RTTI Type Descriptor'
PUBLIC	??_R3CMarkBox@UI@@8				; UI::CMarkBox::`RTTI Class Hierarchy Descriptor'
PUBLIC	??_R2CMarkBox@UI@@8				; UI::CMarkBox::`RTTI Base Class Array'
PUBLIC	??_R1A@?0A@EA@CMarkBox@UI@@8			; UI::CMarkBox::`RTTI Base Class Descriptor at (0,-1,0,64)'
PUBLIC	??_R4CExpandedImageBox@UI@@6B@			; UI::CExpandedImageBox::`RTTI Complete Object Locator'
PUBLIC	??_R0?AVCExpandedImageBox@UI@@@8		; UI::CExpandedImageBox `RTTI Type Descriptor'
PUBLIC	??_R3CExpandedImageBox@UI@@8			; UI::CExpandedImageBox::`RTTI Class Hierarchy Descriptor'
PUBLIC	??_R2CExpandedImageBox@UI@@8			; UI::CExpandedImageBox::`RTTI Base Class Array'
PUBLIC	??_R1A@?0A@EA@CExpandedImageBox@UI@@8		; UI::CExpandedImageBox::`RTTI Base Class Descriptor at (0,-1,0,64)'
PUBLIC	??_R4CAniImageBox@UI@@6B@			; UI::CAniImageBox::`RTTI Complete Object Locator'
PUBLIC	??_R0?AVCAniImageBox@UI@@@8			; UI::CAniImageBox `RTTI Type Descriptor'
PUBLIC	??_R3CAniImageBox@UI@@8				; UI::CAniImageBox::`RTTI Class Hierarchy Descriptor'
PUBLIC	??_R2CAniImageBox@UI@@8				; UI::CAniImageBox::`RTTI Base Class Array'
PUBLIC	??_R1A@?0A@EA@CAniImageBox@UI@@8		; UI::CAniImageBox::`RTTI Base Class Descriptor at (0,-1,0,64)'
PUBLIC	??_R4CButton@UI@@6B@				; UI::CButton::`RTTI Complete Object Locator'
PUBLIC	??_R0?AVCButton@UI@@@8				; UI::CButton `RTTI Type Descriptor'
PUBLIC	??_R3CButton@UI@@8				; UI::CButton::`RTTI Class Hierarchy Descriptor'
PUBLIC	??_R2CButton@UI@@8				; UI::CButton::`RTTI Base Class Array'
PUBLIC	??_R1A@?0A@EA@CButton@UI@@8			; UI::CButton::`RTTI Base Class Descriptor at (0,-1,0,64)'
PUBLIC	??_R4CRadioButton@UI@@6B@			; UI::CRadioButton::`RTTI Complete Object Locator'
PUBLIC	??_R0?AVCRadioButton@UI@@@8			; UI::CRadioButton `RTTI Type Descriptor'
PUBLIC	??_R3CRadioButton@UI@@8				; UI::CRadioButton::`RTTI Class Hierarchy Descriptor'
PUBLIC	??_R2CRadioButton@UI@@8				; UI::CRadioButton::`RTTI Base Class Array'
PUBLIC	??_R1A@?0A@EA@CRadioButton@UI@@8		; UI::CRadioButton::`RTTI Base Class Descriptor at (0,-1,0,64)'
PUBLIC	??_R4CToggleButton@UI@@6B@			; UI::CToggleButton::`RTTI Complete Object Locator'
PUBLIC	??_R0?AVCToggleButton@UI@@@8			; UI::CToggleButton `RTTI Type Descriptor'
PUBLIC	??_R3CToggleButton@UI@@8			; UI::CToggleButton::`RTTI Class Hierarchy Descriptor'
PUBLIC	??_R2CToggleButton@UI@@8			; UI::CToggleButton::`RTTI Base Class Array'
PUBLIC	??_R1A@?0A@EA@CToggleButton@UI@@8		; UI::CToggleButton::`RTTI Base Class Descriptor at (0,-1,0,64)'
PUBLIC	??_R4CDragButton@UI@@6B@			; UI::CDragButton::`RTTI Complete Object Locator'
PUBLIC	??_R0?AVCDragButton@UI@@@8			; UI::CDragButton `RTTI Type Descriptor'
PUBLIC	??_R3CDragButton@UI@@8				; UI::CDragButton::`RTTI Class Hierarchy Descriptor'
PUBLIC	??_R2CDragButton@UI@@8				; UI::CDragButton::`RTTI Base Class Array'
PUBLIC	??_R1A@?0A@EA@CDragButton@UI@@8			; UI::CDragButton::`RTTI Base Class Descriptor at (0,-1,0,64)'
PUBLIC	??_R0?AV?$_Func_base@_NAAV?$tween@M$$V@tweeny@@M@std@@@8 ; std::_Func_base<bool,tweeny::tween<float> &,float> `RTTI Type Descriptor'
PUBLIC	??_R3?$_Func_base@_NAAV?$tween@M$$V@tweeny@@M@std@@8 ; std::_Func_base<bool,tweeny::tween<float> &,float>::`RTTI Class Hierarchy Descriptor'
PUBLIC	??_R2?$_Func_base@_NAAV?$tween@M$$V@tweeny@@M@std@@8 ; std::_Func_base<bool,tweeny::tween<float> &,float>::`RTTI Base Class Array'
PUBLIC	??_R1A@?0A@EA@?$_Func_base@_NAAV?$tween@M$$V@tweeny@@M@std@@8 ; std::_Func_base<bool,tweeny::tween<float> &,float>::`RTTI Base Class Descriptor at (0,-1,0,64)'
PUBLIC	??_R0?AV?$_Func_base@MMMM@std@@@8		; std::_Func_base<float,float,float,float> `RTTI Type Descriptor'
PUBLIC	??_R3?$_Func_base@MMMM@std@@8			; std::_Func_base<float,float,float,float>::`RTTI Class Hierarchy Descriptor'
PUBLIC	??_R2?$_Func_base@MMMM@std@@8			; std::_Func_base<float,float,float,float>::`RTTI Base Class Array'
PUBLIC	??_R1A@?0A@EA@?$_Func_base@MMMM@std@@8		; std::_Func_base<float,float,float,float>::`RTTI Base Class Descriptor at (0,-1,0,64)'
PUBLIC	??_R4?$_Func_impl_no_alloc@P6AMMMM@ZMMMM@std@@6B@ ; std::_Func_impl_no_alloc<float (__cdecl*)(float,float,float),float,float,float,float>::`RTTI Complete Object Locator'
PUBLIC	??_R0?AV?$_Func_impl_no_alloc@P6AMMMM@ZMMMM@std@@@8 ; std::_Func_impl_no_alloc<float (__cdecl*)(float,float,float),float,float,float,float> `RTTI Type Descriptor'
PUBLIC	??_R3?$_Func_impl_no_alloc@P6AMMMM@ZMMMM@std@@8	; std::_Func_impl_no_alloc<float (__cdecl*)(float,float,float),float,float,float,float>::`RTTI Class Hierarchy Descriptor'
PUBLIC	??_R2?$_Func_impl_no_alloc@P6AMMMM@ZMMMM@std@@8	; std::_Func_impl_no_alloc<float (__cdecl*)(float,float,float),float,float,float,float>::`RTTI Base Class Array'
PUBLIC	??_R1A@?0A@EA@?$_Func_impl_no_alloc@P6AMMMM@ZMMMM@std@@8 ; std::_Func_impl_no_alloc<float (__cdecl*)(float,float,float),float,float,float,float>::`RTTI Base Class Descriptor at (0,-1,0,64)'
PUBLIC	__real@00000000
PUBLIC	__real@32cd365b
PUBLIC	__real@348bdd11
PUBLIC	__real@3638b88e
PUBLIC	__real@37cfb4c2
PUBLIC	__real@39500bf1
PUBLIC	__real@3ab609aa
PUBLIC	__real@3c088886
PUBLIC	__real@3d2aaaa3
PUBLIC	__real@3e22f983
PUBLIC	__real@3e2aaaab
PUBLIC	__real@3f000000
PUBLIC	__real@3f800000
PUBLIC	__real@3fc90fdb
PUBLIC	__real@40490fdb
PUBLIC	__real@40c90fdb
PUBLIC	__real@41800000
PUBLIC	__real@bf800000
PUBLIC	__real@bfc90fdb
PUBLIC	__real@c0490fdb
PUBLIC	__xmm@41f00000000000000000000000000000
EXTRN	??2@YAPAXI@Z:PROC				; operator new
EXTRN	??3@YAXPAXI@Z:PROC				; operator delete
EXTRN	__Init_thread_header:PROC
EXTRN	__Init_thread_abort:PROC
EXTRN	__Init_thread_footer:PROC
EXTRN	__invalid_parameter_noinfo_noreturn:PROC
EXTRN	_rand:PROC
EXTRN	___std_exception_copy:PROC
EXTRN	___std_exception_destroy:PROC
EXTRN	??_Eexception@std@@UAEPAXI@Z:PROC		; std::exception::`vector deleting destructor'
EXTRN	??_Ebad_alloc@std@@UAEPAXI@Z:PROC		; std::bad_alloc::`vector deleting destructor'
EXTRN	??_Ebad_array_new_length@std@@UAEPAXI@Z:PROC	; std::bad_array_new_length::`vector deleting destructor'
EXTRN	?_Xlength_error@std@@YAXPBD@Z:PROC		; std::_Xlength_error
EXTRN	?_Xout_of_range@std@@YAXPBD@Z:PROC		; std::_Xout_of_range
EXTRN	_D3DXMatrixMultiply@12:PROC
EXTRN	__imp__timeGetTime@0:PROC
EXTRN	___std_max_element_2@12:PROC
EXTRN	?TraceError@@YAXPBDZZ:PROC			; TraceError
EXTRN	?_Xbad_function_call@std@@YAXXZ:PROC		; std::_Xbad_function_call
EXTRN	??_Elogic_error@std@@UAEPAXI@Z:PROC		; std::logic_error::`vector deleting destructor'
EXTRN	__imp__PyString_InternFromString:PROC
EXTRN	__imp__Py_BuildValue:PROC
EXTRN	?PyCallClassMemberFunc@@YA_NPAU_object@@PBD0@Z:PROC ; PyCallClassMemberFunc
EXTRN	?PyCallClassMemberFunc@@YA_NPAU_object@@PBD0PAJ@Z:PROC ; PyCallClassMemberFunc
EXTRN	?PyCallClassMemberFunc_ByPyString@@YA_NPAU_object@@00@Z:PROC ; PyCallClassMemberFunc_ByPyString
EXTRN	?GetCurrentSecond@CTimer@@QAEMXZ:PROC		; CTimer::GetCurrentSecond
EXTRN	?GetElapsedMilliecond@CTimer@@QAEKXZ:PROC	; CTimer::GetElapsedMilliecond
EXTRN	?GetCRC32@@YAKPBDI@Z:PROC			; GetCRC32
EXTRN	?IsType@CResource@@QAE_NK@Z:PROC		; CResource::IsType
EXTRN	?GetResourcePointer@CResourceManager@@QAEPAVCResource@@PBD@Z:PROC ; CResourceManager::GetResourcePointer
EXTRN	?GetTypeResourcePointer@CResourceManager@@QAEPAVCResource@@PBDH@Z:PROC ; CResourceManager::GetTypeResourcePointer
EXTRN	?IsFileExist@CResourceManager@@SA_NPBD@Z:PROC	; CResourceManager::IsFileExist
EXTRN	?Type@CGraphicImage@@SAKXZ:PROC			; CGraphicImage::Type
EXTRN	?Render@CGraphicImageInstance@@QAEXXZ:PROC	; CGraphicImageInstance::Render
EXTRN	?SetDiffuseColor@CGraphicImageInstance@@QAEXMMMM@Z:PROC ; CGraphicImageInstance::SetDiffuseColor
EXTRN	?SetPosition@CGraphicImageInstance@@QAEXMM@Z:PROC ; CGraphicImageInstance::SetPosition
EXTRN	?SetImagePointer@CGraphicImageInstance@@QAEXPAVCGraphicImage@@@Z:PROC ; CGraphicImageInstance::SetImagePointer
EXTRN	?IsEmpty@CGraphicImageInstance@@QBE_NXZ:PROC	; CGraphicImageInstance::IsEmpty
EXTRN	?GetWidth@CGraphicImageInstance@@QAEHXZ:PROC	; CGraphicImageInstance::GetWidth
EXTRN	?GetHeight@CGraphicImageInstance@@QAEHXZ:PROC	; CGraphicImageInstance::GetHeight
EXTRN	?GetGraphicImagePointer@CGraphicImageInstance@@QAEPAVCGraphicImage@@XZ:PROC ; CGraphicImageInstance::GetGraphicImagePointer
EXTRN	?New@CGraphicImageInstance@@SAPAV1@XZ:PROC	; CGraphicImageInstance::New
EXTRN	?Delete@CGraphicImageInstance@@SAXPAV1@@Z:PROC	; CGraphicImageInstance::Delete
EXTRN	??0CGraphicTextInstance@@QAE@XZ:PROC		; CGraphicTextInstance::CGraphicTextInstance
EXTRN	??1CGraphicTextInstance@@UAE@XZ:PROC		; CGraphicTextInstance::~CGraphicTextInstance
EXTRN	?Destroy@CGraphicTextInstance@@QAEXXZ:PROC	; CGraphicTextInstance::Destroy
EXTRN	?Update@CGraphicTextInstance@@QAEXXZ:PROC	; CGraphicTextInstance::Update
EXTRN	?Render@CGraphicTextInstance@@QAEXPAUtagRECT@@@Z:PROC ; CGraphicTextInstance::Render
EXTRN	?ShowCursor@CGraphicTextInstance@@QAEXXZ:PROC	; CGraphicTextInstance::ShowCursor
EXTRN	?HideCursor@CGraphicTextInstance@@QAEXXZ:PROC	; CGraphicTextInstance::HideCursor
EXTRN	?IsShowCursor@CGraphicTextInstance@@QAE_NXZ:PROC ; CGraphicTextInstance::IsShowCursor
EXTRN	?SetColor@CGraphicTextInstance@@QAEXK@Z:PROC	; CGraphicTextInstance::SetColor
EXTRN	?SetColor@CGraphicTextInstance@@QAEXMMMM@Z:PROC	; CGraphicTextInstance::SetColor
EXTRN	?SetHorizonalAlign@CGraphicTextInstance@@QAEXH@Z:PROC ; CGraphicTextInstance::SetHorizonalAlign
EXTRN	?SetVerticalAlign@CGraphicTextInstance@@QAEXH@Z:PROC ; CGraphicTextInstance::SetVerticalAlign
EXTRN	?SetMax@CGraphicTextInstance@@QAEXH@Z:PROC	; CGraphicTextInstance::SetMax
EXTRN	?SetTextPointer@CGraphicTextInstance@@QAEXPAVCGraphicText@@@Z:PROC ; CGraphicTextInstance::SetTextPointer
EXTRN	?SetValue@CGraphicTextInstance@@QAEXPBDI@Z:PROC	; CGraphicTextInstance::SetValue
EXTRN	?SetPosition@CGraphicTextInstance@@QAEXMMM@Z:PROC ; CGraphicTextInstance::SetPosition
EXTRN	?GetSpecificTextWidth@CGraphicTextInstance@@QAEHPBD@Z:PROC ; CGraphicTextInstance::GetSpecificTextWidth
EXTRN	?SetSecret@CGraphicTextInstance@@QAEX_N@Z:PROC	; CGraphicTextInstance::SetSecret
EXTRN	?SetOutline@CGraphicTextInstance@@QAEX_N@Z:PROC	; CGraphicTextInstance::SetOutline
EXTRN	?SetFeather@CGraphicTextInstance@@QAEX_N@Z:PROC	; CGraphicTextInstance::SetFeather
EXTRN	?SetMultiLine@CGraphicTextInstance@@QAEX_N@Z:PROC ; CGraphicTextInstance::SetMultiLine
EXTRN	?SetLimitWidth@CGraphicTextInstance@@QAEXM@Z:PROC ; CGraphicTextInstance::SetLimitWidth
EXTRN	?GetTextSize@CGraphicTextInstance@@QAEXPAH0@Z:PROC ; CGraphicTextInstance::GetTextSize
EXTRN	?GetValueStringReference@CGraphicTextInstance@@QAEABV?$basic_string@DU?$char_traits@D@std@@V?$allocator@D@2@@std@@XZ:PROC ; CGraphicTextInstance::GetValueStringReference
EXTRN	?PixelPositionToCharacterPosition@CGraphicTextInstance@@QAEHH@Z:PROC ; CGraphicTextInstance::PixelPositionToCharacterPosition
EXTRN	?PixelPositionToCharacterPosition@CGraphicTextInstance@@QAEHHH@Z:PROC ; CGraphicTextInstance::PixelPositionToCharacterPosition
EXTRN	?CharacterPositionToPixelPosition@CGraphicTextInstance@@QAE?AV?$tuple@HHH@std@@H@Z:PROC ; CGraphicTextInstance::CharacterPositionToPixelPosition
EXTRN	?TextPositionToRenderPosition@CGraphicTextInstance@@QAEHH@Z:PROC ; CGraphicTextInstance::TextPositionToRenderPosition
EXTRN	?SetRenderingRect@CGraphicTextInstance@@QAEXMMMM@Z:PROC ; CGraphicTextInstance::SetRenderingRect
EXTRN	?iSetRenderingRect@CGraphicTextInstance@@QAEXHHHH@Z:PROC ; CGraphicTextInstance::iSetRenderingRect
EXTRN	?SetRenderBox@CGraphicTextInstance@@QAEXAAUtagRECT@@@Z:PROC ; CGraphicTextInstance::SetRenderBox
EXTRN	?SetImageFileName@CGraphicMarkInstance@@QAEXPBD@Z:PROC ; CGraphicMarkInstance::SetImageFileName
EXTRN	?Render@CGraphicMarkInstance@@QAEXXZ:PROC	; CGraphicMarkInstance::Render
EXTRN	?SetDiffuseColor@CGraphicMarkInstance@@QAEXMMMM@Z:PROC ; CGraphicMarkInstance::SetDiffuseColor
EXTRN	?SetPosition@CGraphicMarkInstance@@QAEXMM@Z:PROC ; CGraphicMarkInstance::SetPosition
EXTRN	?SetIndex@CGraphicMarkInstance@@QAEXI@Z:PROC	; CGraphicMarkInstance::SetIndex
EXTRN	?SetScale@CGraphicMarkInstance@@QAEXM@Z:PROC	; CGraphicMarkInstance::SetScale
EXTRN	?Load@CGraphicMarkInstance@@QAEXXZ:PROC		; CGraphicMarkInstance::Load
EXTRN	?GetWidth@CGraphicMarkInstance@@QAEHXZ:PROC	; CGraphicMarkInstance::GetWidth
EXTRN	?GetHeight@CGraphicMarkInstance@@QAEHXZ:PROC	; CGraphicMarkInstance::GetHeight
EXTRN	?New@CGraphicMarkInstance@@SAPAV1@XZ:PROC	; CGraphicMarkInstance::New
EXTRN	?Delete@CGraphicMarkInstance@@SAXPAV1@@Z:PROC	; CGraphicMarkInstance::Delete
EXTRN	??0CGraphicExpandedImageInstance@@QAE@XZ:PROC	; CGraphicExpandedImageInstance::CGraphicExpandedImageInstance
EXTRN	??1CGraphicExpandedImageInstance@@UAE@XZ:PROC	; CGraphicExpandedImageInstance::~CGraphicExpandedImageInstance
EXTRN	?Destroy@CGraphicExpandedImageInstance@@QAEXXZ:PROC ; CGraphicExpandedImageInstance::Destroy
EXTRN	?SetOrigin@CGraphicExpandedImageInstance@@QAEXMM@Z:PROC ; CGraphicExpandedImageInstance::SetOrigin
EXTRN	?SetRotation@CGraphicExpandedImageInstance@@QAEXM@Z:PROC ; CGraphicExpandedImageInstance::SetRotation
EXTRN	?SetScale@CGraphicExpandedImageInstance@@QAEXMM@Z:PROC ; CGraphicExpandedImageInstance::SetScale
EXTRN	?SetRenderingRect@CGraphicExpandedImageInstance@@QAEXMMMM@Z:PROC ; CGraphicExpandedImageInstance::SetRenderingRect
EXTRN	?SetRenderingMode@CGraphicExpandedImageInstance@@QAEXH@Z:PROC ; CGraphicExpandedImageInstance::SetRenderingMode
EXTRN	?SetRenderBox@CGraphicExpandedImageInstance@@QAEXAAUtagRECT@@@Z:PROC ; CGraphicExpandedImageInstance::SetRenderBox
EXTRN	?GetPixelColor@CGraphicExpandedImageInstance@@QAEKKK@Z:PROC ; CGraphicExpandedImageInstance::GetPixelColor
EXTRN	?SetExpandedRenderingRect@CGraphicExpandedImageInstance@@QAEXMMMMMMMM@Z:PROC ; CGraphicExpandedImageInstance::SetExpandedRenderingRect
EXTRN	?iSetRenderingRect@CGraphicExpandedImageInstance@@QAEXHHHH@Z:PROC ; CGraphicExpandedImageInstance::iSetRenderingRect
EXTRN	?SetTextureRenderingRect@CGraphicExpandedImageInstance@@QAEXMMMM@Z:PROC ; CGraphicExpandedImageInstance::SetTextureRenderingRect
EXTRN	?New@CGraphicExpandedImageInstance@@SAPAV1@XZ:PROC ; CGraphicExpandedImageInstance::New
EXTRN	?Delete@CGraphicExpandedImageInstance@@SAXPAV1@@Z:PROC ; CGraphicExpandedImageInstance::Delete
EXTRN	?RenderLine2d@CScreen@@QAEXMMMMM@Z:PROC		; CScreen::RenderLine2d
EXTRN	?RenderBox2d@CScreen@@QAEXMMMMM@Z:PROC		; CScreen::RenderBox2d
EXTRN	?RenderBar2d@CScreen@@QAEXMMMMM@Z:PROC		; CScreen::RenderBar2d
EXTRN	?SetDiffuseColor@CScreen@@QAEXK@Z:PROC		; CScreen::SetDiffuseColor
EXTRN	?SetDiffuseColor@CScreen@@QAEXMMMM@Z:PROC	; CScreen::SetDiffuseColor
EXTRN	?RenderCoolTimeBox@CPythonGraphic@@QAEXMMMM@Z:PROC ; CPythonGraphic::RenderCoolTimeBox
EXTRN	?GetMousePosition@CWindowManager@UI@@QAEXAAJ0@Z:PROC ; UI::CWindowManager::GetMousePosition
EXTRN	?BuildEmptyTuple@UI@@YAPAU_object@@XZ:PROC	; UI::BuildEmptyTuple
EXTRN	??_Ebad_optional_access@experimental@std@@UAEPAXI@Z:PROC ; std::experimental::bad_optional_access::`vector deleting destructor'
EXTRN	??0CGraphicRenderTarget@@QAE@XZ:PROC		; CGraphicRenderTarget::CGraphicRenderTarget
EXTRN	??1CGraphicRenderTarget@@QAE@XZ:PROC		; CGraphicRenderTarget::~CGraphicRenderTarget
EXTRN	?SetRenderTarget@CGraphicRenderTarget@@QAEXI@Z:PROC ; CGraphicRenderTarget::SetRenderTarget
EXTRN	?SetRenderHair@CGraphicRenderTarget@@QAEXI@Z:PROC ; CGraphicRenderTarget::SetRenderHair
EXTRN	?SetRenderArmor@CGraphicRenderTarget@@QAEXI@Z:PROC ; CGraphicRenderTarget::SetRenderArmor
EXTRN	?SetRenderWeapon@CGraphicRenderTarget@@QAEXI@Z:PROC ; CGraphicRenderTarget::SetRenderWeapon
EXTRN	?SetRenderSash@CGraphicRenderTarget@@QAEXI@Z:PROC ; CGraphicRenderTarget::SetRenderSash
EXTRN	?SetRendererMotion@CGraphicRenderTarget@@QAEXI@Z:PROC ; CGraphicRenderTarget::SetRendererMotion
EXTRN	?SetLightPosition@CGraphicRenderTarget@@QAEXUD3DXVECTOR3@@@Z:PROC ; CGraphicRenderTarget::SetLightPosition
EXTRN	?GetLightPosition@CGraphicRenderTarget@@QBEABUD3DXVECTOR3@@XZ:PROC ; CGraphicRenderTarget::GetLightPosition
EXTRN	?SetRenderDistance@CGraphicRenderTarget@@QAEXM@Z:PROC ; CGraphicRenderTarget::SetRenderDistance
EXTRN	?GetRenderDistance@CGraphicRenderTarget@@QAEMXZ:PROC ; CGraphicRenderTarget::GetRenderDistance
EXTRN	?SetRotation@CGraphicRenderTarget@@QAEXM@Z:PROC	; CGraphicRenderTarget::SetRotation
EXTRN	?GetRotation@CGraphicRenderTarget@@QAEMXZ:PROC	; CGraphicRenderTarget::GetRotation
EXTRN	?SetRotationMode@CGraphicRenderTarget@@QAEX_N@Z:PROC ; CGraphicRenderTarget::SetRotationMode
EXTRN	?Update@CGraphicRenderTarget@@QAEXXZ:PROC	; CGraphicRenderTarget::Update
EXTRN	?Render@CGraphicRenderTarget@@QAEXMMMM@Z:PROC	; CGraphicRenderTarget::Render
EXTRN	?Destroy@CGraphicRenderTarget@@QAEXXZ:PROC	; CGraphicRenderTarget::Destroy
EXTRN	??_ECWindow@UI@@UAEPAXI@Z:PROC			; UI::CWindow::`vector deleting destructor'
EXTRN	??_ECUiWikiRenderTarget@UI@@UAEPAXI@Z:PROC	; UI::CUiWikiRenderTarget::`vector deleting destructor'
EXTRN	??_ECBox@UI@@UAEPAXI@Z:PROC			; UI::CBox::`vector deleting destructor'
EXTRN	??_ECBar@UI@@UAEPAXI@Z:PROC			; UI::CBar::`vector deleting destructor'
EXTRN	??_ECLine@UI@@UAEPAXI@Z:PROC			; UI::CLine::`vector deleting destructor'
EXTRN	??_ECBar3D@UI@@UAEPAXI@Z:PROC			; UI::CBar3D::`vector deleting destructor'
EXTRN	??_ECTextLine@UI@@UAEPAXI@Z:PROC		; UI::CTextLine::`vector deleting destructor'
EXTRN	??_ECNumberLine@UI@@UAEPAXI@Z:PROC		; UI::CNumberLine::`vector deleting destructor'
EXTRN	??_ECImageBox@UI@@UAEPAXI@Z:PROC		; UI::CImageBox::`vector deleting destructor'
EXTRN	??_ECRenderTarget@UI@@UAEPAXI@Z:PROC		; UI::CRenderTarget::`vector deleting destructor'
EXTRN	??_ECMarkBox@UI@@UAEPAXI@Z:PROC			; UI::CMarkBox::`vector deleting destructor'
EXTRN	??_ECExpandedImageBox@UI@@UAEPAXI@Z:PROC	; UI::CExpandedImageBox::`vector deleting destructor'
EXTRN	??_ECAniImageBox@UI@@UAEPAXI@Z:PROC		; UI::CAniImageBox::`vector deleting destructor'
EXTRN	??_ECButton@UI@@UAEPAXI@Z:PROC			; UI::CButton::`vector deleting destructor'
EXTRN	??_ECRadioButton@UI@@UAEPAXI@Z:PROC		; UI::CRadioButton::`vector deleting destructor'
EXTRN	??_ECToggleButton@UI@@UAEPAXI@Z:PROC		; UI::CToggleButton::`vector deleting destructor'
EXTRN	??_ECDragButton@UI@@UAEPAXI@Z:PROC		; UI::CDragButton::`vector deleting destructor'
EXTRN	?SetTransform@CStateManager@@QAEXW4_D3DTRANSFORMSTATETYPE@@PBU_D3DMATRIX@@@Z:PROC ; CStateManager::SetTransform
EXTRN	?GetTransform@CStateManager@@QAEXW4_D3DTRANSFORMSTATETYPE@@PAU_D3DMATRIX@@@Z:PROC ; CStateManager::GetTransform
EXTRN	?RenderTexture@CWikiRenderTarget@@QBEXXZ:PROC	; CWikiRenderTarget::RenderTexture
EXTRN	?SetRenderingRect@CWikiRenderTarget@@QBEXPAUtagRECT@@@Z:PROC ; CWikiRenderTarget::SetRenderingRect
EXTRN	?SetRenderingBox@CWikiRenderTarget@@QBEXPAUtagRECT@@@Z:PROC ; CWikiRenderTarget::SetRenderingBox
EXTRN	?GetRenderTarget@CWikiRenderTargetManager@@QAE?AV?$shared_ptr@VCWikiRenderTarget@@@std@@H@Z:PROC ; CWikiRenderTargetManager::GetRenderTarget
EXTRN	?CreateRenderTarget@CWikiRenderTargetManager@@QAE_NHHH@Z:PROC ; CWikiRenderTargetManager::CreateRenderTarget
EXTRN	?GetString@CPythonConfig@@QBE?AV?$basic_string@DU?$char_traits@D@std@@V?$allocator@D@2@@std@@W4EClassTypes@1@ABV23@1@Z:PROC ; CPythonConfig::GetString
EXTRN	@__security_check_cookie@4:PROC
EXTRN	__CxxThrowException@8:PROC
EXTRN	___CxxFrameHandler3:PROC
EXTRN	__ftol3:PROC
EXTRN	_memcpy:PROC
EXTRN	_memmove:PROC
EXTRN	__Init_thread_epoch:DWORD
EXTRN	??_7type_info@@6B@:QWORD			; type_info::`vftable'
EXTRN	?ms_kPool@CGraphicExpandedImageInstance@@2V?$CDynamicPool@VCGraphicExpandedImageInstance@@@@A:BYTE ; CGraphicExpandedImageInstance::ms_kPool
EXTRN	___security_cookie:DWORD
EXTRN	__fltused:DWORD
EXTRN	__tls_array:DWORD
EXTRN	__tls_index:DWORD
;	COMDAT ?ms_singleton@?$CSingleton@VCTimer@@@@0PAVCTimer@@A
_BSS	SEGMENT
?ms_singleton@?$CSingleton@VCTimer@@@@0PAVCTimer@@A DD 01H DUP (?) ; CSingleton<CTimer>::ms_singleton
_BSS	ENDS
;	COMDAT ?ms_singleton@?$CSingleton@VCResourceManager@@@@0PAVCResourceManager@@A
_BSS	SEGMENT
?ms_singleton@?$CSingleton@VCResourceManager@@@@0PAVCResourceManager@@A DD 01H DUP (?) ; CSingleton<CResourceManager>::ms_singleton
_BSS	ENDS
;	COMDAT ?ms_singleton@?$CSingleton@VCPythonGraphic@@@@0PAVCPythonGraphic@@A
_BSS	SEGMENT
?ms_singleton@?$CSingleton@VCPythonGraphic@@@@0PAVCPythonGraphic@@A DD 01H DUP (?) ; CSingleton<CPythonGraphic>::ms_singleton
_BSS	ENDS
;	COMDAT ?ms_singleton@?$CSingleton@VCWindowManager@UI@@@@0PAVCWindowManager@UI@@A
_BSS	SEGMENT
?ms_singleton@?$CSingleton@VCWindowManager@UI@@@@0PAVCWindowManager@UI@@A DD 01H DUP (?) ; CSingleton<UI::CWindowManager>::ms_singleton
_BSS	ENDS
;	COMDAT ?ms_singleton@?$CSingleton@VCStateManager@@@@0PAVCStateManager@@A
_BSS	SEGMENT
?ms_singleton@?$CSingleton@VCStateManager@@@@0PAVCStateManager@@A DD 01H DUP (?) ; CSingleton<CStateManager>::ms_singleton
_BSS	ENDS
;	COMDAT ?ms_singleton@?$CSingleton@VCWikiRenderTargetManager@@@@0PAVCWikiRenderTargetManager@@A
_BSS	SEGMENT
?ms_singleton@?$CSingleton@VCWikiRenderTargetManager@@@@0PAVCWikiRenderTargetManager@@A DD 01H DUP (?) ; CSingleton<CWikiRenderTargetManager>::ms_singleton
_BSS	ENDS
;	COMDAT ?ms_singleton@?$CSingleton@VCPythonConfig@@@@0PAVCPythonConfig@@A
_BSS	SEGMENT
?ms_singleton@?$CSingleton@VCPythonConfig@@@@0PAVCPythonConfig@@A DD 01H DUP (?) ; CSingleton<CPythonConfig>::ms_singleton
_BSS	ENDS
;	COMDAT ?s_dwType@?1??Type@CWindow@UI@@SAKXZ@4KA
_BSS	SEGMENT
?s_dwType@?1??Type@CWindow@UI@@SAKXZ@4KA DD 01H DUP (?)	; `UI::CWindow::Type'::`2'::s_dwType
_BSS	ENDS
;	COMDAT ?$TSS0@?1??Type@CWindow@UI@@SAKXZ@4HA
_BSS	SEGMENT
?$TSS0@?1??Type@CWindow@UI@@SAKXZ@4HA DD 01H DUP (?)	; `UI::CWindow::Type'::`2'::$TSS0
_BSS	ENDS
;	COMDAT ?poFuncName_OnUpdate@?1??OnUpdate@CWindow@UI@@UAEXXZ@4PAU_object@@A
_BSS	SEGMENT
?poFuncName_OnUpdate@?1??OnUpdate@CWindow@UI@@UAEXXZ@4PAU_object@@A DD 01H DUP (?) ; `UI::CWindow::OnUpdate'::`2'::poFuncName_OnUpdate
_BSS	ENDS
;	COMDAT ?$TSS0@?1??OnUpdate@CWindow@UI@@UAEXXZ@4HA
_BSS	SEGMENT
?$TSS0@?1??OnUpdate@CWindow@UI@@UAEXXZ@4HA DD 01H DUP (?) ; `UI::CWindow::OnUpdate'::`2'::$TSS0
_BSS	ENDS
;	COMDAT ?s_dwType@?1??Type@CBar3D@UI@@SAKXZ@4KA
_BSS	SEGMENT
?s_dwType@?1??Type@CBar3D@UI@@SAKXZ@4KA DD 01H DUP (?)	; `UI::CBar3D::Type'::`2'::s_dwType
_BSS	ENDS
;	COMDAT ?$TSS0@?1??Type@CBar3D@UI@@SAKXZ@4HA
_BSS	SEGMENT
?$TSS0@?1??Type@CBar3D@UI@@SAKXZ@4HA DD 01H DUP (?)	; `UI::CBar3D::Type'::`2'::$TSS0
_BSS	ENDS
;	COMDAT ?s_dwType@?1??Type@CTextLine@UI@@SAKXZ@4KA
_BSS	SEGMENT
?s_dwType@?1??Type@CTextLine@UI@@SAKXZ@4KA DD 01H DUP (?) ; `UI::CTextLine::Type'::`2'::s_dwType
_BSS	ENDS
;	COMDAT ?$TSS0@?1??Type@CTextLine@UI@@SAKXZ@4HA
_BSS	SEGMENT
?$TSS0@?1??Type@CTextLine@UI@@SAKXZ@4HA DD 01H DUP (?)	; `UI::CTextLine::Type'::`2'::$TSS0
_BSS	ENDS
;	COMDAT ?s_dwType@?1??Type@CNumberLine@UI@@SAKXZ@4KA
_BSS	SEGMENT
?s_dwType@?1??Type@CNumberLine@UI@@SAKXZ@4KA DD 01H DUP (?) ; `UI::CNumberLine::Type'::`2'::s_dwType
_BSS	ENDS
;	COMDAT ?$TSS0@?1??Type@CNumberLine@UI@@SAKXZ@4HA
_BSS	SEGMENT
?$TSS0@?1??Type@CNumberLine@UI@@SAKXZ@4HA DD 01H DUP (?) ; `UI::CNumberLine::Type'::`2'::$TSS0
_BSS	ENDS
;	COMDAT ?s_dwType@?1??Type@CImageBox@UI@@SAKXZ@4KA
_BSS	SEGMENT
?s_dwType@?1??Type@CImageBox@UI@@SAKXZ@4KA DD 01H DUP (?) ; `UI::CImageBox::Type'::`2'::s_dwType
_BSS	ENDS
;	COMDAT ?$TSS0@?1??Type@CImageBox@UI@@SAKXZ@4HA
_BSS	SEGMENT
?$TSS0@?1??Type@CImageBox@UI@@SAKXZ@4HA DD 01H DUP (?)	; `UI::CImageBox::Type'::`2'::$TSS0
_BSS	ENDS
;	COMDAT ?s_dwType@?1??Type@CExpandedImageBox@UI@@SAKXZ@4KA
_BSS	SEGMENT
?s_dwType@?1??Type@CExpandedImageBox@UI@@SAKXZ@4KA DD 01H DUP (?) ; `UI::CExpandedImageBox::Type'::`2'::s_dwType
_BSS	ENDS
;	COMDAT ?$TSS0@?1??Type@CExpandedImageBox@UI@@SAKXZ@4HA
_BSS	SEGMENT
?$TSS0@?1??Type@CExpandedImageBox@UI@@SAKXZ@4HA DD 01H DUP (?) ; `UI::CExpandedImageBox::Type'::`2'::$TSS0
_BSS	ENDS
;	COMDAT ?s_dwType@?1??Type@CAniImageBox@UI@@SAKXZ@4KA
_BSS	SEGMENT
?s_dwType@?1??Type@CAniImageBox@UI@@SAKXZ@4KA DD 01H DUP (?) ; `UI::CAniImageBox::Type'::`2'::s_dwType
_BSS	ENDS
;	COMDAT ?$TSS0@?1??Type@CAniImageBox@UI@@SAKXZ@4HA
_BSS	SEGMENT
?$TSS0@?1??Type@CAniImageBox@UI@@SAKXZ@4HA DD 01H DUP (?) ; `UI::CAniImageBox::Type'::`2'::$TSS0
_BSS	ENDS
;	COMDAT ?s_dwType@?1??Type@CButton@UI@@SAKXZ@4KA
_BSS	SEGMENT
?s_dwType@?1??Type@CButton@UI@@SAKXZ@4KA DD 01H DUP (?)	; `UI::CButton::Type'::`2'::s_dwType
_BSS	ENDS
;	COMDAT ?$TSS0@?1??Type@CButton@UI@@SAKXZ@4HA
_BSS	SEGMENT
?$TSS0@?1??Type@CButton@UI@@SAKXZ@4HA DD 01H DUP (?)	; `UI::CButton::Type'::`2'::$TSS0
_BSS	ENDS
;	COMDAT __xmm@41f00000000000000000000000000000
CONST	SEGMENT
__xmm@41f00000000000000000000000000000 DB 00H, 00H, 00H, 00H, 00H, 00H, 00H
	DB	00H, 00H, 00H, 00H, 00H, 00H, 00H, 0f0H, 'A'
CONST	ENDS
;	COMDAT __real@c0490fdb
CONST	SEGMENT
__real@c0490fdb DD 0c0490fdbr			; -3.14159
CONST	ENDS
;	COMDAT __real@bfc90fdb
CONST	SEGMENT
__real@bfc90fdb DD 0bfc90fdbr			; -1.5708
CONST	ENDS
;	COMDAT __real@bf800000
CONST	SEGMENT
__real@bf800000 DD 0bf800000r			; -1
CONST	ENDS
;	COMDAT __real@41800000
CONST	SEGMENT
__real@41800000 DD 041800000r			; 16
CONST	ENDS
;	COMDAT __real@40c90fdb
CONST	SEGMENT
__real@40c90fdb DD 040c90fdbr			; 6.28319
CONST	ENDS
;	COMDAT __real@40490fdb
CONST	SEGMENT
__real@40490fdb DD 040490fdbr			; 3.14159
CONST	ENDS
;	COMDAT __real@3fc90fdb
CONST	SEGMENT
__real@3fc90fdb DD 03fc90fdbr			; 1.5708
CONST	ENDS
;	COMDAT __real@3f800000
CONST	SEGMENT
__real@3f800000 DD 03f800000r			; 1
CONST	ENDS
;	COMDAT __real@3f000000
CONST	SEGMENT
__real@3f000000 DD 03f000000r			; 0.5
CONST	ENDS
;	COMDAT __real@3e2aaaab
CONST	SEGMENT
__real@3e2aaaab DD 03e2aaaabr			; 0.166667
CONST	ENDS
;	COMDAT __real@3e22f983
CONST	SEGMENT
__real@3e22f983 DD 03e22f983r			; 0.159155
CONST	ENDS
;	COMDAT __real@3d2aaaa3
CONST	SEGMENT
__real@3d2aaaa3 DD 03d2aaaa3r			; 0.0416666
CONST	ENDS
;	COMDAT __real@3c088886
CONST	SEGMENT
__real@3c088886 DD 03c088886r			; 0.00833333
CONST	ENDS
;	COMDAT __real@3ab609aa
CONST	SEGMENT
__real@3ab609aa DD 03ab609aar			; 0.00138884
CONST	ENDS
;	COMDAT __real@39500bf1
CONST	SEGMENT
__real@39500bf1 DD 039500bf1r			; 0.000198409
CONST	ENDS
;	COMDAT __real@37cfb4c2
CONST	SEGMENT
__real@37cfb4c2 DD 037cfb4c2r			; 2.47605e-05
CONST	ENDS
;	COMDAT __real@3638b88e
CONST	SEGMENT
__real@3638b88e DD 03638b88er			; 2.75256e-06
CONST	ENDS
;	COMDAT __real@348bdd11
CONST	SEGMENT
__real@348bdd11 DD 0348bdd11r			; 2.60516e-07
CONST	ENDS
;	COMDAT __real@32cd365b
CONST	SEGMENT
__real@32cd365b DD 032cd365br			; 2.38899e-08
CONST	ENDS
;	COMDAT __real@00000000
CONST	SEGMENT
__real@00000000 DD 000000000r			; 0
CONST	ENDS
;	COMDAT ??_R1A@?0A@EA@?$_Func_impl_no_alloc@P6AMMMM@ZMMMM@std@@8
rdata$r	SEGMENT
??_R1A@?0A@EA@?$_Func_impl_no_alloc@P6AMMMM@ZMMMM@std@@8 DD FLAT:??_R0?AV?$_Func_impl_no_alloc@P6AMMMM@ZMMMM@std@@@8 ; std::_Func_impl_no_alloc<float (__cdecl*)(float,float,float),float,float,float,float>::`RTTI Base Class Descriptor at (0,-1,0,64)'
	DD	01H
	DD	00H
	DD	0ffffffffH
	DD	00H
	DD	040H
	DD	FLAT:??_R3?$_Func_impl_no_alloc@P6AMMMM@ZMMMM@std@@8
rdata$r	ENDS
;	COMDAT ??_R2?$_Func_impl_no_alloc@P6AMMMM@ZMMMM@std@@8
rdata$r	SEGMENT
??_R2?$_Func_impl_no_alloc@P6AMMMM@ZMMMM@std@@8 DD FLAT:??_R1A@?0A@EA@?$_Func_impl_no_alloc@P6AMMMM@ZMMMM@std@@8 ; std::_Func_impl_no_alloc<float (__cdecl*)(float,float,float),float,float,float,float>::`RTTI Base Class Array'
	DD	FLAT:??_R1A@?0A@EA@?$_Func_base@MMMM@std@@8
rdata$r	ENDS
;	COMDAT ??_R3?$_Func_impl_no_alloc@P6AMMMM@ZMMMM@std@@8
rdata$r	SEGMENT
??_R3?$_Func_impl_no_alloc@P6AMMMM@ZMMMM@std@@8 DD 00H	; std::_Func_impl_no_alloc<float (__cdecl*)(float,float,float),float,float,float,float>::`RTTI Class Hierarchy Descriptor'
	DD	00H
	DD	02H
	DD	FLAT:??_R2?$_Func_impl_no_alloc@P6AMMMM@ZMMMM@std@@8
rdata$r	ENDS
;	COMDAT ??_R0?AV?$_Func_impl_no_alloc@P6AMMMM@ZMMMM@std@@@8
data$rs	SEGMENT
??_R0?AV?$_Func_impl_no_alloc@P6AMMMM@ZMMMM@std@@@8 DD FLAT:??_7type_info@@6B@ ; std::_Func_impl_no_alloc<float (__cdecl*)(float,float,float),float,float,float,float> `RTTI Type Descriptor'
	DD	00H
	DB	'.?AV?$_Func_impl_no_alloc@P6AMMMM@ZMMMM@std@@', 00H
data$rs	ENDS
;	COMDAT ??_R4?$_Func_impl_no_alloc@P6AMMMM@ZMMMM@std@@6B@
rdata$r	SEGMENT
??_R4?$_Func_impl_no_alloc@P6AMMMM@ZMMMM@std@@6B@ DD 00H ; std::_Func_impl_no_alloc<float (__cdecl*)(float,float,float),float,float,float,float>::`RTTI Complete Object Locator'
	DD	00H
	DD	00H
	DD	FLAT:??_R0?AV?$_Func_impl_no_alloc@P6AMMMM@ZMMMM@std@@@8
	DD	FLAT:??_R3?$_Func_impl_no_alloc@P6AMMMM@ZMMMM@std@@8
rdata$r	ENDS
;	COMDAT ??_R1A@?0A@EA@?$_Func_impl_no_alloc@V<lambda_4e53bff9a6aeda8ea50dcd08e066d322>@@_NAAV?$tween@M$$V@tweeny@@M@std@@8
rdata$r	SEGMENT
??_R1A@?0A@EA@?$_Func_impl_no_alloc@V<lambda_4e53bff9a6aeda8ea50dcd08e066d322>@@_NAAV?$tween@M$$V@tweeny@@M@std@@8 DD FLAT:??_R0?AV?$_Func_impl_no_alloc@V<lambda_4e53bff9a6aeda8ea50dcd08e066d322>@@_NAAV?$tween@M$$V@tweeny@@M@std@@@8 ; std::_Func_impl_no_alloc<<lambda_4e53bff9a6aeda8ea50dcd08e066d322>,bool,tweeny::tween<float> &,float>::`RTTI Base Class Descriptor at (0,-1,0,64)'
	DD	01H
	DD	00H
	DD	0ffffffffH
	DD	00H
	DD	040H
	DD	FLAT:??_R3?$_Func_impl_no_alloc@V<lambda_4e53bff9a6aeda8ea50dcd08e066d322>@@_NAAV?$tween@M$$V@tweeny@@M@std@@8
rdata$r	ENDS
;	COMDAT ??_R2?$_Func_impl_no_alloc@V<lambda_4e53bff9a6aeda8ea50dcd08e066d322>@@_NAAV?$tween@M$$V@tweeny@@M@std@@8
rdata$r	SEGMENT
??_R2?$_Func_impl_no_alloc@V<lambda_4e53bff9a6aeda8ea50dcd08e066d322>@@_NAAV?$tween@M$$V@tweeny@@M@std@@8 DD FLAT:??_R1A@?0A@EA@?$_Func_impl_no_alloc@V<lambda_4e53bff9a6aeda8ea50dcd08e066d322>@@_NAAV?$tween@M$$V@tweeny@@M@std@@8 ; std::_Func_impl_no_alloc<<lambda_4e53bff9a6aeda8ea50dcd08e066d322>,bool,tweeny::tween<float> &,float>::`RTTI Base Class Array'
	DD	FLAT:??_R1A@?0A@EA@?$_Func_base@_NAAV?$tween@M$$V@tweeny@@M@std@@8
rdata$r	ENDS
;	COMDAT ??_R3?$_Func_impl_no_alloc@V<lambda_4e53bff9a6aeda8ea50dcd08e066d322>@@_NAAV?$tween@M$$V@tweeny@@M@std@@8
rdata$r	SEGMENT
??_R3?$_Func_impl_no_alloc@V<lambda_4e53bff9a6aeda8ea50dcd08e066d322>@@_NAAV?$tween@M$$V@tweeny@@M@std@@8 DD 00H ; std::_Func_impl_no_alloc<<lambda_4e53bff9a6aeda8ea50dcd08e066d322>,bool,tweeny::tween<float> &,float>::`RTTI Class Hierarchy Descriptor'
	DD	00H
	DD	02H
	DD	FLAT:??_R2?$_Func_impl_no_alloc@V<lambda_4e53bff9a6aeda8ea50dcd08e066d322>@@_NAAV?$tween@M$$V@tweeny@@M@std@@8
rdata$r	ENDS
;	COMDAT ??_R0?AV?$_Func_impl_no_alloc@V<lambda_4e53bff9a6aeda8ea50dcd08e066d322>@@_NAAV?$tween@M$$V@tweeny@@M@std@@@8
data$rs	SEGMENT
??_R0?AV?$_Func_impl_no_alloc@V<lambda_4e53bff9a6aeda8ea50dcd08e066d322>@@_NAAV?$tween@M$$V@tweeny@@M@std@@@8 DD FLAT:??_7type_info@@6B@ ; std::_Func_impl_no_alloc<<lambda_4e53bff9a6aeda8ea50dcd08e066d322>,bool,tweeny::tween<float> &,float> `RTTI Type Descriptor'
	DD	00H
	DB	'.?AV?$_Func_impl_no_alloc@V<lambda_4e53bff9a6aeda8ea50dc'
	DB	'd08e066d322>@@_NAAV?$tween@M$$V@tweeny@@M@std@@', 00H
data$rs	ENDS
;	COMDAT ??_R4?$_Func_impl_no_alloc@V<lambda_4e53bff9a6aeda8ea50dcd08e066d322>@@_NAAV?$tween@M$$V@tweeny@@M@std@@6B@
rdata$r	SEGMENT
??_R4?$_Func_impl_no_alloc@V<lambda_4e53bff9a6aeda8ea50dcd08e066d322>@@_NAAV?$tween@M$$V@tweeny@@M@std@@6B@ DD 00H ; std::_Func_impl_no_alloc<<lambda_4e53bff9a6aeda8ea50dcd08e066d322>,bool,tweeny::tween<float> &,float>::`RTTI Complete Object Locator'
	DD	00H
	DD	00H
	DD	FLAT:??_R0?AV?$_Func_impl_no_alloc@V<lambda_4e53bff9a6aeda8ea50dcd08e066d322>@@_NAAV?$tween@M$$V@tweeny@@M@std@@@8
	DD	FLAT:??_R3?$_Func_impl_no_alloc@V<lambda_4e53bff9a6aeda8ea50dcd08e066d322>@@_NAAV?$tween@M$$V@tweeny@@M@std@@8
rdata$r	ENDS
;	COMDAT ??_R1A@?0A@EA@?$_Func_impl_no_alloc@V<lambda_3ac3554338970f4f53a10d6f6ce8edc5>@@_NAAV?$tween@M$$V@tweeny@@M@std@@8
rdata$r	SEGMENT
??_R1A@?0A@EA@?$_Func_impl_no_alloc@V<lambda_3ac3554338970f4f53a10d6f6ce8edc5>@@_NAAV?$tween@M$$V@tweeny@@M@std@@8 DD FLAT:??_R0?AV?$_Func_impl_no_alloc@V<lambda_3ac3554338970f4f53a10d6f6ce8edc5>@@_NAAV?$tween@M$$V@tweeny@@M@std@@@8 ; std::_Func_impl_no_alloc<<lambda_3ac3554338970f4f53a10d6f6ce8edc5>,bool,tweeny::tween<float> &,float>::`RTTI Base Class Descriptor at (0,-1,0,64)'
	DD	01H
	DD	00H
	DD	0ffffffffH
	DD	00H
	DD	040H
	DD	FLAT:??_R3?$_Func_impl_no_alloc@V<lambda_3ac3554338970f4f53a10d6f6ce8edc5>@@_NAAV?$tween@M$$V@tweeny@@M@std@@8
rdata$r	ENDS
;	COMDAT ??_R2?$_Func_impl_no_alloc@V<lambda_3ac3554338970f4f53a10d6f6ce8edc5>@@_NAAV?$tween@M$$V@tweeny@@M@std@@8
rdata$r	SEGMENT
??_R2?$_Func_impl_no_alloc@V<lambda_3ac3554338970f4f53a10d6f6ce8edc5>@@_NAAV?$tween@M$$V@tweeny@@M@std@@8 DD FLAT:??_R1A@?0A@EA@?$_Func_impl_no_alloc@V<lambda_3ac3554338970f4f53a10d6f6ce8edc5>@@_NAAV?$tween@M$$V@tweeny@@M@std@@8 ; std::_Func_impl_no_alloc<<lambda_3ac3554338970f4f53a10d6f6ce8edc5>,bool,tweeny::tween<float> &,float>::`RTTI Base Class Array'
	DD	FLAT:??_R1A@?0A@EA@?$_Func_base@_NAAV?$tween@M$$V@tweeny@@M@std@@8
rdata$r	ENDS
;	COMDAT ??_R3?$_Func_impl_no_alloc@V<lambda_3ac3554338970f4f53a10d6f6ce8edc5>@@_NAAV?$tween@M$$V@tweeny@@M@std@@8
rdata$r	SEGMENT
??_R3?$_Func_impl_no_alloc@V<lambda_3ac3554338970f4f53a10d6f6ce8edc5>@@_NAAV?$tween@M$$V@tweeny@@M@std@@8 DD 00H ; std::_Func_impl_no_alloc<<lambda_3ac3554338970f4f53a10d6f6ce8edc5>,bool,tweeny::tween<float> &,float>::`RTTI Class Hierarchy Descriptor'
	DD	00H
	DD	02H
	DD	FLAT:??_R2?$_Func_impl_no_alloc@V<lambda_3ac3554338970f4f53a10d6f6ce8edc5>@@_NAAV?$tween@M$$V@tweeny@@M@std@@8
rdata$r	ENDS
;	COMDAT ??_R0?AV?$_Func_impl_no_alloc@V<lambda_3ac3554338970f4f53a10d6f6ce8edc5>@@_NAAV?$tween@M$$V@tweeny@@M@std@@@8
data$rs	SEGMENT
??_R0?AV?$_Func_impl_no_alloc@V<lambda_3ac3554338970f4f53a10d6f6ce8edc5>@@_NAAV?$tween@M$$V@tweeny@@M@std@@@8 DD FLAT:??_7type_info@@6B@ ; std::_Func_impl_no_alloc<<lambda_3ac3554338970f4f53a10d6f6ce8edc5>,bool,tweeny::tween<float> &,float> `RTTI Type Descriptor'
	DD	00H
	DB	'.?AV?$_Func_impl_no_alloc@V<lambda_3ac3554338970f4f53a10'
	DB	'd6f6ce8edc5>@@_NAAV?$tween@M$$V@tweeny@@M@std@@', 00H
data$rs	ENDS
;	COMDAT ??_R4?$_Func_impl_no_alloc@V<lambda_3ac3554338970f4f53a10d6f6ce8edc5>@@_NAAV?$tween@M$$V@tweeny@@M@std@@6B@
rdata$r	SEGMENT
??_R4?$_Func_impl_no_alloc@V<lambda_3ac3554338970f4f53a10d6f6ce8edc5>@@_NAAV?$tween@M$$V@tweeny@@M@std@@6B@ DD 00H ; std::_Func_impl_no_alloc<<lambda_3ac3554338970f4f53a10d6f6ce8edc5>,bool,tweeny::tween<float> &,float>::`RTTI Complete Object Locator'
	DD	00H
	DD	00H
	DD	FLAT:??_R0?AV?$_Func_impl_no_alloc@V<lambda_3ac3554338970f4f53a10d6f6ce8edc5>@@_NAAV?$tween@M$$V@tweeny@@M@std@@@8
	DD	FLAT:??_R3?$_Func_impl_no_alloc@V<lambda_3ac3554338970f4f53a10d6f6ce8edc5>@@_NAAV?$tween@M$$V@tweeny@@M@std@@8
rdata$r	ENDS
;	COMDAT ??_R1A@?0A@EA@?$_Func_base@MMMM@std@@8
rdata$r	SEGMENT
??_R1A@?0A@EA@?$_Func_base@MMMM@std@@8 DD FLAT:??_R0?AV?$_Func_base@MMMM@std@@@8 ; std::_Func_base<float,float,float,float>::`RTTI Base Class Descriptor at (0,-1,0,64)'
	DD	00H
	DD	00H
	DD	0ffffffffH
	DD	00H
	DD	040H
	DD	FLAT:??_R3?$_Func_base@MMMM@std@@8
rdata$r	ENDS
;	COMDAT ??_R2?$_Func_base@MMMM@std@@8
rdata$r	SEGMENT
??_R2?$_Func_base@MMMM@std@@8 DD FLAT:??_R1A@?0A@EA@?$_Func_base@MMMM@std@@8 ; std::_Func_base<float,float,float,float>::`RTTI Base Class Array'
rdata$r	ENDS
;	COMDAT ??_R3?$_Func_base@MMMM@std@@8
rdata$r	SEGMENT
??_R3?$_Func_base@MMMM@std@@8 DD 00H			; std::_Func_base<float,float,float,float>::`RTTI Class Hierarchy Descriptor'
	DD	00H
	DD	01H
	DD	FLAT:??_R2?$_Func_base@MMMM@std@@8
rdata$r	ENDS
;	COMDAT ??_R0?AV?$_Func_base@MMMM@std@@@8
data$rs	SEGMENT
??_R0?AV?$_Func_base@MMMM@std@@@8 DD FLAT:??_7type_info@@6B@ ; std::_Func_base<float,float,float,float> `RTTI Type Descriptor'
	DD	00H
	DB	'.?AV?$_Func_base@MMMM@std@@', 00H
data$rs	ENDS
;	COMDAT ??_R1A@?0A@EA@?$_Func_base@_NAAV?$tween@M$$V@tweeny@@M@std@@8
rdata$r	SEGMENT
??_R1A@?0A@EA@?$_Func_base@_NAAV?$tween@M$$V@tweeny@@M@std@@8 DD FLAT:??_R0?AV?$_Func_base@_NAAV?$tween@M$$V@tweeny@@M@std@@@8 ; std::_Func_base<bool,tweeny::tween<float> &,float>::`RTTI Base Class Descriptor at (0,-1,0,64)'
	DD	00H
	DD	00H
	DD	0ffffffffH
	DD	00H
	DD	040H
	DD	FLAT:??_R3?$_Func_base@_NAAV?$tween@M$$V@tweeny@@M@std@@8
rdata$r	ENDS
;	COMDAT ??_R2?$_Func_base@_NAAV?$tween@M$$V@tweeny@@M@std@@8
rdata$r	SEGMENT
??_R2?$_Func_base@_NAAV?$tween@M$$V@tweeny@@M@std@@8 DD FLAT:??_R1A@?0A@EA@?$_Func_base@_NAAV?$tween@M$$V@tweeny@@M@std@@8 ; std::_Func_base<bool,tweeny::tween<float> &,float>::`RTTI Base Class Array'
rdata$r	ENDS
;	COMDAT ??_R3?$_Func_base@_NAAV?$tween@M$$V@tweeny@@M@std@@8
rdata$r	SEGMENT
??_R3?$_Func_base@_NAAV?$tween@M$$V@tweeny@@M@std@@8 DD 00H ; std::_Func_base<bool,tweeny::tween<float> &,float>::`RTTI Class Hierarchy Descriptor'
	DD	00H
	DD	01H
	DD	FLAT:??_R2?$_Func_base@_NAAV?$tween@M$$V@tweeny@@M@std@@8
rdata$r	ENDS
;	COMDAT ??_R0?AV?$_Func_base@_NAAV?$tween@M$$V@tweeny@@M@std@@@8
data$rs	SEGMENT
??_R0?AV?$_Func_base@_NAAV?$tween@M$$V@tweeny@@M@std@@@8 DD FLAT:??_7type_info@@6B@ ; std::_Func_base<bool,tweeny::tween<float> &,float> `RTTI Type Descriptor'
	DD	00H
	DB	'.?AV?$_Func_base@_NAAV?$tween@M$$V@tweeny@@M@std@@', 00H
data$rs	ENDS
;	COMDAT ??_R1A@?0A@EA@CDragButton@UI@@8
rdata$r	SEGMENT
??_R1A@?0A@EA@CDragButton@UI@@8 DD FLAT:??_R0?AVCDragButton@UI@@@8 ; UI::CDragButton::`RTTI Base Class Descriptor at (0,-1,0,64)'
	DD	02H
	DD	00H
	DD	0ffffffffH
	DD	00H
	DD	040H
	DD	FLAT:??_R3CDragButton@UI@@8
rdata$r	ENDS
;	COMDAT ??_R2CDragButton@UI@@8
rdata$r	SEGMENT
??_R2CDragButton@UI@@8 DD FLAT:??_R1A@?0A@EA@CDragButton@UI@@8 ; UI::CDragButton::`RTTI Base Class Array'
	DD	FLAT:??_R1A@?0A@EA@CButton@UI@@8
	DD	FLAT:??_R1A@?0A@EA@CWindow@UI@@8
rdata$r	ENDS
;	COMDAT ??_R3CDragButton@UI@@8
rdata$r	SEGMENT
??_R3CDragButton@UI@@8 DD 00H				; UI::CDragButton::`RTTI Class Hierarchy Descriptor'
	DD	00H
	DD	03H
	DD	FLAT:??_R2CDragButton@UI@@8
rdata$r	ENDS
;	COMDAT ??_R0?AVCDragButton@UI@@@8
data$rs	SEGMENT
??_R0?AVCDragButton@UI@@@8 DD FLAT:??_7type_info@@6B@	; UI::CDragButton `RTTI Type Descriptor'
	DD	00H
	DB	'.?AVCDragButton@UI@@', 00H
data$rs	ENDS
;	COMDAT ??_R4CDragButton@UI@@6B@
rdata$r	SEGMENT
??_R4CDragButton@UI@@6B@ DD 00H				; UI::CDragButton::`RTTI Complete Object Locator'
	DD	00H
	DD	00H
	DD	FLAT:??_R0?AVCDragButton@UI@@@8
	DD	FLAT:??_R3CDragButton@UI@@8
rdata$r	ENDS
;	COMDAT ??_R1A@?0A@EA@CToggleButton@UI@@8
rdata$r	SEGMENT
??_R1A@?0A@EA@CToggleButton@UI@@8 DD FLAT:??_R0?AVCToggleButton@UI@@@8 ; UI::CToggleButton::`RTTI Base Class Descriptor at (0,-1,0,64)'
	DD	02H
	DD	00H
	DD	0ffffffffH
	DD	00H
	DD	040H
	DD	FLAT:??_R3CToggleButton@UI@@8
rdata$r	ENDS
;	COMDAT ??_R2CToggleButton@UI@@8
rdata$r	SEGMENT
??_R2CToggleButton@UI@@8 DD FLAT:??_R1A@?0A@EA@CToggleButton@UI@@8 ; UI::CToggleButton::`RTTI Base Class Array'
	DD	FLAT:??_R1A@?0A@EA@CButton@UI@@8
	DD	FLAT:??_R1A@?0A@EA@CWindow@UI@@8
rdata$r	ENDS
;	COMDAT ??_R3CToggleButton@UI@@8
rdata$r	SEGMENT
??_R3CToggleButton@UI@@8 DD 00H				; UI::CToggleButton::`RTTI Class Hierarchy Descriptor'
	DD	00H
	DD	03H
	DD	FLAT:??_R2CToggleButton@UI@@8
rdata$r	ENDS
;	COMDAT ??_R0?AVCToggleButton@UI@@@8
data$rs	SEGMENT
??_R0?AVCToggleButton@UI@@@8 DD FLAT:??_7type_info@@6B@	; UI::CToggleButton `RTTI Type Descriptor'
	DD	00H
	DB	'.?AVCToggleButton@UI@@', 00H
data$rs	ENDS
;	COMDAT ??_R4CToggleButton@UI@@6B@
rdata$r	SEGMENT
??_R4CToggleButton@UI@@6B@ DD 00H			; UI::CToggleButton::`RTTI Complete Object Locator'
	DD	00H
	DD	00H
	DD	FLAT:??_R0?AVCToggleButton@UI@@@8
	DD	FLAT:??_R3CToggleButton@UI@@8
rdata$r	ENDS
;	COMDAT ??_R1A@?0A@EA@CRadioButton@UI@@8
rdata$r	SEGMENT
??_R1A@?0A@EA@CRadioButton@UI@@8 DD FLAT:??_R0?AVCRadioButton@UI@@@8 ; UI::CRadioButton::`RTTI Base Class Descriptor at (0,-1,0,64)'
	DD	02H
	DD	00H
	DD	0ffffffffH
	DD	00H
	DD	040H
	DD	FLAT:??_R3CRadioButton@UI@@8
rdata$r	ENDS
;	COMDAT ??_R2CRadioButton@UI@@8
rdata$r	SEGMENT
??_R2CRadioButton@UI@@8 DD FLAT:??_R1A@?0A@EA@CRadioButton@UI@@8 ; UI::CRadioButton::`RTTI Base Class Array'
	DD	FLAT:??_R1A@?0A@EA@CButton@UI@@8
	DD	FLAT:??_R1A@?0A@EA@CWindow@UI@@8
rdata$r	ENDS
;	COMDAT ??_R3CRadioButton@UI@@8
rdata$r	SEGMENT
??_R3CRadioButton@UI@@8 DD 00H				; UI::CRadioButton::`RTTI Class Hierarchy Descriptor'
	DD	00H
	DD	03H
	DD	FLAT:??_R2CRadioButton@UI@@8
rdata$r	ENDS
;	COMDAT ??_R0?AVCRadioButton@UI@@@8
data$rs	SEGMENT
??_R0?AVCRadioButton@UI@@@8 DD FLAT:??_7type_info@@6B@	; UI::CRadioButton `RTTI Type Descriptor'
	DD	00H
	DB	'.?AVCRadioButton@UI@@', 00H
data$rs	ENDS
;	COMDAT ??_R4CRadioButton@UI@@6B@
rdata$r	SEGMENT
??_R4CRadioButton@UI@@6B@ DD 00H			; UI::CRadioButton::`RTTI Complete Object Locator'
	DD	00H
	DD	00H
	DD	FLAT:??_R0?AVCRadioButton@UI@@@8
	DD	FLAT:??_R3CRadioButton@UI@@8
rdata$r	ENDS
;	COMDAT ??_R1A@?0A@EA@CButton@UI@@8
rdata$r	SEGMENT
??_R1A@?0A@EA@CButton@UI@@8 DD FLAT:??_R0?AVCButton@UI@@@8 ; UI::CButton::`RTTI Base Class Descriptor at (0,-1,0,64)'
	DD	01H
	DD	00H
	DD	0ffffffffH
	DD	00H
	DD	040H
	DD	FLAT:??_R3CButton@UI@@8
rdata$r	ENDS
;	COMDAT ??_R2CButton@UI@@8
rdata$r	SEGMENT
??_R2CButton@UI@@8 DD FLAT:??_R1A@?0A@EA@CButton@UI@@8	; UI::CButton::`RTTI Base Class Array'
	DD	FLAT:??_R1A@?0A@EA@CWindow@UI@@8
rdata$r	ENDS
;	COMDAT ??_R3CButton@UI@@8
rdata$r	SEGMENT
??_R3CButton@UI@@8 DD 00H				; UI::CButton::`RTTI Class Hierarchy Descriptor'
	DD	00H
	DD	02H
	DD	FLAT:??_R2CButton@UI@@8
rdata$r	ENDS
;	COMDAT ??_R0?AVCButton@UI@@@8
data$rs	SEGMENT
??_R0?AVCButton@UI@@@8 DD FLAT:??_7type_info@@6B@	; UI::CButton `RTTI Type Descriptor'
	DD	00H
	DB	'.?AVCButton@UI@@', 00H
data$rs	ENDS
;	COMDAT ??_R4CButton@UI@@6B@
rdata$r	SEGMENT
??_R4CButton@UI@@6B@ DD 00H				; UI::CButton::`RTTI Complete Object Locator'
	DD	00H
	DD	00H
	DD	FLAT:??_R0?AVCButton@UI@@@8
	DD	FLAT:??_R3CButton@UI@@8
rdata$r	ENDS
;	COMDAT ??_R1A@?0A@EA@CAniImageBox@UI@@8
rdata$r	SEGMENT
??_R1A@?0A@EA@CAniImageBox@UI@@8 DD FLAT:??_R0?AVCAniImageBox@UI@@@8 ; UI::CAniImageBox::`RTTI Base Class Descriptor at (0,-1,0,64)'
	DD	01H
	DD	00H
	DD	0ffffffffH
	DD	00H
	DD	040H
	DD	FLAT:??_R3CAniImageBox@UI@@8
rdata$r	ENDS
;	COMDAT ??_R2CAniImageBox@UI@@8
rdata$r	SEGMENT
??_R2CAniImageBox@UI@@8 DD FLAT:??_R1A@?0A@EA@CAniImageBox@UI@@8 ; UI::CAniImageBox::`RTTI Base Class Array'
	DD	FLAT:??_R1A@?0A@EA@CWindow@UI@@8
rdata$r	ENDS
;	COMDAT ??_R3CAniImageBox@UI@@8
rdata$r	SEGMENT
??_R3CAniImageBox@UI@@8 DD 00H				; UI::CAniImageBox::`RTTI Class Hierarchy Descriptor'
	DD	00H
	DD	02H
	DD	FLAT:??_R2CAniImageBox@UI@@8
rdata$r	ENDS
;	COMDAT ??_R0?AVCAniImageBox@UI@@@8
data$rs	SEGMENT
??_R0?AVCAniImageBox@UI@@@8 DD FLAT:??_7type_info@@6B@	; UI::CAniImageBox `RTTI Type Descriptor'
	DD	00H
	DB	'.?AVCAniImageBox@UI@@', 00H
data$rs	ENDS
;	COMDAT ??_R4CAniImageBox@UI@@6B@
rdata$r	SEGMENT
??_R4CAniImageBox@UI@@6B@ DD 00H			; UI::CAniImageBox::`RTTI Complete Object Locator'
	DD	00H
	DD	00H
	DD	FLAT:??_R0?AVCAniImageBox@UI@@@8
	DD	FLAT:??_R3CAniImageBox@UI@@8
rdata$r	ENDS
;	COMDAT ??_R1A@?0A@EA@CExpandedImageBox@UI@@8
rdata$r	SEGMENT
??_R1A@?0A@EA@CExpandedImageBox@UI@@8 DD FLAT:??_R0?AVCExpandedImageBox@UI@@@8 ; UI::CExpandedImageBox::`RTTI Base Class Descriptor at (0,-1,0,64)'
	DD	02H
	DD	00H
	DD	0ffffffffH
	DD	00H
	DD	040H
	DD	FLAT:??_R3CExpandedImageBox@UI@@8
rdata$r	ENDS
;	COMDAT ??_R2CExpandedImageBox@UI@@8
rdata$r	SEGMENT
??_R2CExpandedImageBox@UI@@8 DD FLAT:??_R1A@?0A@EA@CExpandedImageBox@UI@@8 ; UI::CExpandedImageBox::`RTTI Base Class Array'
	DD	FLAT:??_R1A@?0A@EA@CImageBox@UI@@8
	DD	FLAT:??_R1A@?0A@EA@CWindow@UI@@8
rdata$r	ENDS
;	COMDAT ??_R3CExpandedImageBox@UI@@8
rdata$r	SEGMENT
??_R3CExpandedImageBox@UI@@8 DD 00H			; UI::CExpandedImageBox::`RTTI Class Hierarchy Descriptor'
	DD	00H
	DD	03H
	DD	FLAT:??_R2CExpandedImageBox@UI@@8
rdata$r	ENDS
;	COMDAT ??_R0?AVCExpandedImageBox@UI@@@8
data$rs	SEGMENT
??_R0?AVCExpandedImageBox@UI@@@8 DD FLAT:??_7type_info@@6B@ ; UI::CExpandedImageBox `RTTI Type Descriptor'
	DD	00H
	DB	'.?AVCExpandedImageBox@UI@@', 00H
data$rs	ENDS
;	COMDAT ??_R4CExpandedImageBox@UI@@6B@
rdata$r	SEGMENT
??_R4CExpandedImageBox@UI@@6B@ DD 00H			; UI::CExpandedImageBox::`RTTI Complete Object Locator'
	DD	00H
	DD	00H
	DD	FLAT:??_R0?AVCExpandedImageBox@UI@@@8
	DD	FLAT:??_R3CExpandedImageBox@UI@@8
rdata$r	ENDS
;	COMDAT ??_R1A@?0A@EA@CMarkBox@UI@@8
rdata$r	SEGMENT
??_R1A@?0A@EA@CMarkBox@UI@@8 DD FLAT:??_R0?AVCMarkBox@UI@@@8 ; UI::CMarkBox::`RTTI Base Class Descriptor at (0,-1,0,64)'
	DD	01H
	DD	00H
	DD	0ffffffffH
	DD	00H
	DD	040H
	DD	FLAT:??_R3CMarkBox@UI@@8
rdata$r	ENDS
;	COMDAT ??_R2CMarkBox@UI@@8
rdata$r	SEGMENT
??_R2CMarkBox@UI@@8 DD FLAT:??_R1A@?0A@EA@CMarkBox@UI@@8 ; UI::CMarkBox::`RTTI Base Class Array'
	DD	FLAT:??_R1A@?0A@EA@CWindow@UI@@8
rdata$r	ENDS
;	COMDAT ??_R3CMarkBox@UI@@8
rdata$r	SEGMENT
??_R3CMarkBox@UI@@8 DD 00H				; UI::CMarkBox::`RTTI Class Hierarchy Descriptor'
	DD	00H
	DD	02H
	DD	FLAT:??_R2CMarkBox@UI@@8
rdata$r	ENDS
;	COMDAT ??_R0?AVCMarkBox@UI@@@8
data$rs	SEGMENT
??_R0?AVCMarkBox@UI@@@8 DD FLAT:??_7type_info@@6B@	; UI::CMarkBox `RTTI Type Descriptor'
	DD	00H
	DB	'.?AVCMarkBox@UI@@', 00H
data$rs	ENDS
;	COMDAT ??_R4CMarkBox@UI@@6B@
rdata$r	SEGMENT
??_R4CMarkBox@UI@@6B@ DD 00H				; UI::CMarkBox::`RTTI Complete Object Locator'
	DD	00H
	DD	00H
	DD	FLAT:??_R0?AVCMarkBox@UI@@@8
	DD	FLAT:??_R3CMarkBox@UI@@8
rdata$r	ENDS
;	COMDAT ??_R1A@?0A@EA@CRenderTarget@UI@@8
rdata$r	SEGMENT
??_R1A@?0A@EA@CRenderTarget@UI@@8 DD FLAT:??_R0?AVCRenderTarget@UI@@@8 ; UI::CRenderTarget::`RTTI Base Class Descriptor at (0,-1,0,64)'
	DD	02H
	DD	00H
	DD	0ffffffffH
	DD	00H
	DD	040H
	DD	FLAT:??_R3CRenderTarget@UI@@8
rdata$r	ENDS
;	COMDAT ??_R2CRenderTarget@UI@@8
rdata$r	SEGMENT
??_R2CRenderTarget@UI@@8 DD FLAT:??_R1A@?0A@EA@CRenderTarget@UI@@8 ; UI::CRenderTarget::`RTTI Base Class Array'
	DD	FLAT:??_R1A@?0A@EA@CImageBox@UI@@8
	DD	FLAT:??_R1A@?0A@EA@CWindow@UI@@8
rdata$r	ENDS
;	COMDAT ??_R3CRenderTarget@UI@@8
rdata$r	SEGMENT
??_R3CRenderTarget@UI@@8 DD 00H				; UI::CRenderTarget::`RTTI Class Hierarchy Descriptor'
	DD	00H
	DD	03H
	DD	FLAT:??_R2CRenderTarget@UI@@8
rdata$r	ENDS
;	COMDAT ??_R0?AVCRenderTarget@UI@@@8
data$rs	SEGMENT
??_R0?AVCRenderTarget@UI@@@8 DD FLAT:??_7type_info@@6B@	; UI::CRenderTarget `RTTI Type Descriptor'
	DD	00H
	DB	'.?AVCRenderTarget@UI@@', 00H
data$rs	ENDS
;	COMDAT ??_R4CRenderTarget@UI@@6B@
rdata$r	SEGMENT
??_R4CRenderTarget@UI@@6B@ DD 00H			; UI::CRenderTarget::`RTTI Complete Object Locator'
	DD	00H
	DD	00H
	DD	FLAT:??_R0?AVCRenderTarget@UI@@@8
	DD	FLAT:??_R3CRenderTarget@UI@@8
rdata$r	ENDS
;	COMDAT ??_R1A@?0A@EA@CImageBox@UI@@8
rdata$r	SEGMENT
??_R1A@?0A@EA@CImageBox@UI@@8 DD FLAT:??_R0?AVCImageBox@UI@@@8 ; UI::CImageBox::`RTTI Base Class Descriptor at (0,-1,0,64)'
	DD	01H
	DD	00H
	DD	0ffffffffH
	DD	00H
	DD	040H
	DD	FLAT:??_R3CImageBox@UI@@8
rdata$r	ENDS
;	COMDAT ??_R2CImageBox@UI@@8
rdata$r	SEGMENT
??_R2CImageBox@UI@@8 DD FLAT:??_R1A@?0A@EA@CImageBox@UI@@8 ; UI::CImageBox::`RTTI Base Class Array'
	DD	FLAT:??_R1A@?0A@EA@CWindow@UI@@8
rdata$r	ENDS
;	COMDAT ??_R3CImageBox@UI@@8
rdata$r	SEGMENT
??_R3CImageBox@UI@@8 DD 00H				; UI::CImageBox::`RTTI Class Hierarchy Descriptor'
	DD	00H
	DD	02H
	DD	FLAT:??_R2CImageBox@UI@@8
rdata$r	ENDS
;	COMDAT ??_R0?AVCImageBox@UI@@@8
data$rs	SEGMENT
??_R0?AVCImageBox@UI@@@8 DD FLAT:??_7type_info@@6B@	; UI::CImageBox `RTTI Type Descriptor'
	DD	00H
	DB	'.?AVCImageBox@UI@@', 00H
data$rs	ENDS
;	COMDAT ??_R4CImageBox@UI@@6B@
rdata$r	SEGMENT
??_R4CImageBox@UI@@6B@ DD 00H				; UI::CImageBox::`RTTI Complete Object Locator'
	DD	00H
	DD	00H
	DD	FLAT:??_R0?AVCImageBox@UI@@@8
	DD	FLAT:??_R3CImageBox@UI@@8
rdata$r	ENDS
;	COMDAT ??_R1A@?0A@EA@CNumberLine@UI@@8
rdata$r	SEGMENT
??_R1A@?0A@EA@CNumberLine@UI@@8 DD FLAT:??_R0?AVCNumberLine@UI@@@8 ; UI::CNumberLine::`RTTI Base Class Descriptor at (0,-1,0,64)'
	DD	01H
	DD	00H
	DD	0ffffffffH
	DD	00H
	DD	040H
	DD	FLAT:??_R3CNumberLine@UI@@8
rdata$r	ENDS
;	COMDAT ??_R2CNumberLine@UI@@8
rdata$r	SEGMENT
??_R2CNumberLine@UI@@8 DD FLAT:??_R1A@?0A@EA@CNumberLine@UI@@8 ; UI::CNumberLine::`RTTI Base Class Array'
	DD	FLAT:??_R1A@?0A@EA@CWindow@UI@@8
rdata$r	ENDS
;	COMDAT ??_R3CNumberLine@UI@@8
rdata$r	SEGMENT
??_R3CNumberLine@UI@@8 DD 00H				; UI::CNumberLine::`RTTI Class Hierarchy Descriptor'
	DD	00H
	DD	02H
	DD	FLAT:??_R2CNumberLine@UI@@8
rdata$r	ENDS
;	COMDAT ??_R0?AVCNumberLine@UI@@@8
data$rs	SEGMENT
??_R0?AVCNumberLine@UI@@@8 DD FLAT:??_7type_info@@6B@	; UI::CNumberLine `RTTI Type Descriptor'
	DD	00H
	DB	'.?AVCNumberLine@UI@@', 00H
data$rs	ENDS
;	COMDAT ??_R4CNumberLine@UI@@6B@
rdata$r	SEGMENT
??_R4CNumberLine@UI@@6B@ DD 00H				; UI::CNumberLine::`RTTI Complete Object Locator'
	DD	00H
	DD	00H
	DD	FLAT:??_R0?AVCNumberLine@UI@@@8
	DD	FLAT:??_R3CNumberLine@UI@@8
rdata$r	ENDS
;	COMDAT ??_R1A@?0A@EA@CTextLine@UI@@8
rdata$r	SEGMENT
??_R1A@?0A@EA@CTextLine@UI@@8 DD FLAT:??_R0?AVCTextLine@UI@@@8 ; UI::CTextLine::`RTTI Base Class Descriptor at (0,-1,0,64)'
	DD	01H
	DD	00H
	DD	0ffffffffH
	DD	00H
	DD	040H
	DD	FLAT:??_R3CTextLine@UI@@8
rdata$r	ENDS
;	COMDAT ??_R2CTextLine@UI@@8
rdata$r	SEGMENT
??_R2CTextLine@UI@@8 DD FLAT:??_R1A@?0A@EA@CTextLine@UI@@8 ; UI::CTextLine::`RTTI Base Class Array'
	DD	FLAT:??_R1A@?0A@EA@CWindow@UI@@8
rdata$r	ENDS
;	COMDAT ??_R3CTextLine@UI@@8
rdata$r	SEGMENT
??_R3CTextLine@UI@@8 DD 00H				; UI::CTextLine::`RTTI Class Hierarchy Descriptor'
	DD	00H
	DD	02H
	DD	FLAT:??_R2CTextLine@UI@@8
rdata$r	ENDS
;	COMDAT ??_R0?AVCTextLine@UI@@@8
data$rs	SEGMENT
??_R0?AVCTextLine@UI@@@8 DD FLAT:??_7type_info@@6B@	; UI::CTextLine `RTTI Type Descriptor'
	DD	00H
	DB	'.?AVCTextLine@UI@@', 00H
data$rs	ENDS
;	COMDAT ??_R4CTextLine@UI@@6B@
rdata$r	SEGMENT
??_R4CTextLine@UI@@6B@ DD 00H				; UI::CTextLine::`RTTI Complete Object Locator'
	DD	00H
	DD	00H
	DD	FLAT:??_R0?AVCTextLine@UI@@@8
	DD	FLAT:??_R3CTextLine@UI@@8
rdata$r	ENDS
;	COMDAT ??_R1A@?0A@EA@CBar3D@UI@@8
rdata$r	SEGMENT
??_R1A@?0A@EA@CBar3D@UI@@8 DD FLAT:??_R0?AVCBar3D@UI@@@8 ; UI::CBar3D::`RTTI Base Class Descriptor at (0,-1,0,64)'
	DD	01H
	DD	00H
	DD	0ffffffffH
	DD	00H
	DD	040H
	DD	FLAT:??_R3CBar3D@UI@@8
rdata$r	ENDS
;	COMDAT ??_R2CBar3D@UI@@8
rdata$r	SEGMENT
??_R2CBar3D@UI@@8 DD FLAT:??_R1A@?0A@EA@CBar3D@UI@@8	; UI::CBar3D::`RTTI Base Class Array'
	DD	FLAT:??_R1A@?0A@EA@CWindow@UI@@8
rdata$r	ENDS
;	COMDAT ??_R3CBar3D@UI@@8
rdata$r	SEGMENT
??_R3CBar3D@UI@@8 DD 00H				; UI::CBar3D::`RTTI Class Hierarchy Descriptor'
	DD	00H
	DD	02H
	DD	FLAT:??_R2CBar3D@UI@@8
rdata$r	ENDS
;	COMDAT ??_R0?AVCBar3D@UI@@@8
data$rs	SEGMENT
??_R0?AVCBar3D@UI@@@8 DD FLAT:??_7type_info@@6B@	; UI::CBar3D `RTTI Type Descriptor'
	DD	00H
	DB	'.?AVCBar3D@UI@@', 00H
data$rs	ENDS
;	COMDAT ??_R4CBar3D@UI@@6B@
rdata$r	SEGMENT
??_R4CBar3D@UI@@6B@ DD 00H				; UI::CBar3D::`RTTI Complete Object Locator'
	DD	00H
	DD	00H
	DD	FLAT:??_R0?AVCBar3D@UI@@@8
	DD	FLAT:??_R3CBar3D@UI@@8
rdata$r	ENDS
;	COMDAT ??_R1A@?0A@EA@CLine@UI@@8
rdata$r	SEGMENT
??_R1A@?0A@EA@CLine@UI@@8 DD FLAT:??_R0?AVCLine@UI@@@8	; UI::CLine::`RTTI Base Class Descriptor at (0,-1,0,64)'
	DD	01H
	DD	00H
	DD	0ffffffffH
	DD	00H
	DD	040H
	DD	FLAT:??_R3CLine@UI@@8
rdata$r	ENDS
;	COMDAT ??_R2CLine@UI@@8
rdata$r	SEGMENT
??_R2CLine@UI@@8 DD FLAT:??_R1A@?0A@EA@CLine@UI@@8	; UI::CLine::`RTTI Base Class Array'
	DD	FLAT:??_R1A@?0A@EA@CWindow@UI@@8
rdata$r	ENDS
;	COMDAT ??_R3CLine@UI@@8
rdata$r	SEGMENT
??_R3CLine@UI@@8 DD 00H					; UI::CLine::`RTTI Class Hierarchy Descriptor'
	DD	00H
	DD	02H
	DD	FLAT:??_R2CLine@UI@@8
rdata$r	ENDS
;	COMDAT ??_R0?AVCLine@UI@@@8
data$rs	SEGMENT
??_R0?AVCLine@UI@@@8 DD FLAT:??_7type_info@@6B@		; UI::CLine `RTTI Type Descriptor'
	DD	00H
	DB	'.?AVCLine@UI@@', 00H
data$rs	ENDS
;	COMDAT ??_R4CLine@UI@@6B@
rdata$r	SEGMENT
??_R4CLine@UI@@6B@ DD 00H				; UI::CLine::`RTTI Complete Object Locator'
	DD	00H
	DD	00H
	DD	FLAT:??_R0?AVCLine@UI@@@8
	DD	FLAT:??_R3CLine@UI@@8
rdata$r	ENDS
;	COMDAT ??_R1A@?0A@EA@CBar@UI@@8
rdata$r	SEGMENT
??_R1A@?0A@EA@CBar@UI@@8 DD FLAT:??_R0?AVCBar@UI@@@8	; UI::CBar::`RTTI Base Class Descriptor at (0,-1,0,64)'
	DD	01H
	DD	00H
	DD	0ffffffffH
	DD	00H
	DD	040H
	DD	FLAT:??_R3CBar@UI@@8
rdata$r	ENDS
;	COMDAT ??_R2CBar@UI@@8
rdata$r	SEGMENT
??_R2CBar@UI@@8 DD FLAT:??_R1A@?0A@EA@CBar@UI@@8	; UI::CBar::`RTTI Base Class Array'
	DD	FLAT:??_R1A@?0A@EA@CWindow@UI@@8
rdata$r	ENDS
;	COMDAT ??_R3CBar@UI@@8
rdata$r	SEGMENT
??_R3CBar@UI@@8 DD 00H					; UI::CBar::`RTTI Class Hierarchy Descriptor'
	DD	00H
	DD	02H
	DD	FLAT:??_R2CBar@UI@@8
rdata$r	ENDS
;	COMDAT ??_R0?AVCBar@UI@@@8
data$rs	SEGMENT
??_R0?AVCBar@UI@@@8 DD FLAT:??_7type_info@@6B@		; UI::CBar `RTTI Type Descriptor'
	DD	00H
	DB	'.?AVCBar@UI@@', 00H
data$rs	ENDS
;	COMDAT ??_R4CBar@UI@@6B@
rdata$r	SEGMENT
??_R4CBar@UI@@6B@ DD 00H				; UI::CBar::`RTTI Complete Object Locator'
	DD	00H
	DD	00H
	DD	FLAT:??_R0?AVCBar@UI@@@8
	DD	FLAT:??_R3CBar@UI@@8
rdata$r	ENDS
;	COMDAT ??_R1A@?0A@EA@CBox@UI@@8
rdata$r	SEGMENT
??_R1A@?0A@EA@CBox@UI@@8 DD FLAT:??_R0?AVCBox@UI@@@8	; UI::CBox::`RTTI Base Class Descriptor at (0,-1,0,64)'
	DD	01H
	DD	00H
	DD	0ffffffffH
	DD	00H
	DD	040H
	DD	FLAT:??_R3CBox@UI@@8
rdata$r	ENDS
;	COMDAT ??_R2CBox@UI@@8
rdata$r	SEGMENT
??_R2CBox@UI@@8 DD FLAT:??_R1A@?0A@EA@CBox@UI@@8	; UI::CBox::`RTTI Base Class Array'
	DD	FLAT:??_R1A@?0A@EA@CWindow@UI@@8
rdata$r	ENDS
;	COMDAT ??_R3CBox@UI@@8
rdata$r	SEGMENT
??_R3CBox@UI@@8 DD 00H					; UI::CBox::`RTTI Class Hierarchy Descriptor'
	DD	00H
	DD	02H
	DD	FLAT:??_R2CBox@UI@@8
rdata$r	ENDS
;	COMDAT ??_R0?AVCBox@UI@@@8
data$rs	SEGMENT
??_R0?AVCBox@UI@@@8 DD FLAT:??_7type_info@@6B@		; UI::CBox `RTTI Type Descriptor'
	DD	00H
	DB	'.?AVCBox@UI@@', 00H
data$rs	ENDS
;	COMDAT ??_R4CBox@UI@@6B@
rdata$r	SEGMENT
??_R4CBox@UI@@6B@ DD 00H				; UI::CBox::`RTTI Complete Object Locator'
	DD	00H
	DD	00H
	DD	FLAT:??_R0?AVCBox@UI@@@8
	DD	FLAT:??_R3CBox@UI@@8
rdata$r	ENDS
;	COMDAT ??_R1A@?0A@EA@CUiWikiRenderTarget@UI@@8
rdata$r	SEGMENT
??_R1A@?0A@EA@CUiWikiRenderTarget@UI@@8 DD FLAT:??_R0?AVCUiWikiRenderTarget@UI@@@8 ; UI::CUiWikiRenderTarget::`RTTI Base Class Descriptor at (0,-1,0,64)'
	DD	01H
	DD	00H
	DD	0ffffffffH
	DD	00H
	DD	040H
	DD	FLAT:??_R3CUiWikiRenderTarget@UI@@8
rdata$r	ENDS
;	COMDAT ??_R2CUiWikiRenderTarget@UI@@8
rdata$r	SEGMENT
??_R2CUiWikiRenderTarget@UI@@8 DD FLAT:??_R1A@?0A@EA@CUiWikiRenderTarget@UI@@8 ; UI::CUiWikiRenderTarget::`RTTI Base Class Array'
	DD	FLAT:??_R1A@?0A@EA@CWindow@UI@@8
rdata$r	ENDS
;	COMDAT ??_R3CUiWikiRenderTarget@UI@@8
rdata$r	SEGMENT
??_R3CUiWikiRenderTarget@UI@@8 DD 00H			; UI::CUiWikiRenderTarget::`RTTI Class Hierarchy Descriptor'
	DD	00H
	DD	02H
	DD	FLAT:??_R2CUiWikiRenderTarget@UI@@8
rdata$r	ENDS
;	COMDAT ??_R0?AVCUiWikiRenderTarget@UI@@@8
data$rs	SEGMENT
??_R0?AVCUiWikiRenderTarget@UI@@@8 DD FLAT:??_7type_info@@6B@ ; UI::CUiWikiRenderTarget `RTTI Type Descriptor'
	DD	00H
	DB	'.?AVCUiWikiRenderTarget@UI@@', 00H
data$rs	ENDS
;	COMDAT ??_R4CUiWikiRenderTarget@UI@@6B@
rdata$r	SEGMENT
??_R4CUiWikiRenderTarget@UI@@6B@ DD 00H			; UI::CUiWikiRenderTarget::`RTTI Complete Object Locator'
	DD	00H
	DD	00H
	DD	FLAT:??_R0?AVCUiWikiRenderTarget@UI@@@8
	DD	FLAT:??_R3CUiWikiRenderTarget@UI@@8
rdata$r	ENDS
;	COMDAT ??_R1A@?0A@EA@bad_optional_access@experimental@std@@8
rdata$r	SEGMENT
??_R1A@?0A@EA@bad_optional_access@experimental@std@@8 DD FLAT:??_R0?AVbad_optional_access@experimental@std@@@8 ; std::experimental::bad_optional_access::`RTTI Base Class Descriptor at (0,-1,0,64)'
	DD	02H
	DD	00H
	DD	0ffffffffH
	DD	00H
	DD	040H
	DD	FLAT:??_R3bad_optional_access@experimental@std@@8
rdata$r	ENDS
;	COMDAT ??_R2bad_optional_access@experimental@std@@8
rdata$r	SEGMENT
??_R2bad_optional_access@experimental@std@@8 DD FLAT:??_R1A@?0A@EA@bad_optional_access@experimental@std@@8 ; std::experimental::bad_optional_access::`RTTI Base Class Array'
	DD	FLAT:??_R1A@?0A@EA@logic_error@std@@8
	DD	FLAT:??_R1A@?0A@EA@exception@std@@8
rdata$r	ENDS
;	COMDAT ??_R3bad_optional_access@experimental@std@@8
rdata$r	SEGMENT
??_R3bad_optional_access@experimental@std@@8 DD 00H	; std::experimental::bad_optional_access::`RTTI Class Hierarchy Descriptor'
	DD	00H
	DD	03H
	DD	FLAT:??_R2bad_optional_access@experimental@std@@8
rdata$r	ENDS
;	COMDAT ??_R4bad_optional_access@experimental@std@@6B@
rdata$r	SEGMENT
??_R4bad_optional_access@experimental@std@@6B@ DD 00H	; std::experimental::bad_optional_access::`RTTI Complete Object Locator'
	DD	00H
	DD	00H
	DD	FLAT:??_R0?AVbad_optional_access@experimental@std@@@8
	DD	FLAT:??_R3bad_optional_access@experimental@std@@8
rdata$r	ENDS
;	COMDAT ??_R1A@?0A@EA@CWindow@UI@@8
rdata$r	SEGMENT
??_R1A@?0A@EA@CWindow@UI@@8 DD FLAT:??_R0?AVCWindow@UI@@@8 ; UI::CWindow::`RTTI Base Class Descriptor at (0,-1,0,64)'
	DD	00H
	DD	00H
	DD	0ffffffffH
	DD	00H
	DD	040H
	DD	FLAT:??_R3CWindow@UI@@8
rdata$r	ENDS
;	COMDAT ??_R2CWindow@UI@@8
rdata$r	SEGMENT
??_R2CWindow@UI@@8 DD FLAT:??_R1A@?0A@EA@CWindow@UI@@8	; UI::CWindow::`RTTI Base Class Array'
rdata$r	ENDS
;	COMDAT ??_R3CWindow@UI@@8
rdata$r	SEGMENT
??_R3CWindow@UI@@8 DD 00H				; UI::CWindow::`RTTI Class Hierarchy Descriptor'
	DD	00H
	DD	01H
	DD	FLAT:??_R2CWindow@UI@@8
rdata$r	ENDS
;	COMDAT ??_R0?AVCWindow@UI@@@8
data$rs	SEGMENT
??_R0?AVCWindow@UI@@@8 DD FLAT:??_7type_info@@6B@	; UI::CWindow `RTTI Type Descriptor'
	DD	00H
	DB	'.?AVCWindow@UI@@', 00H
data$rs	ENDS
;	COMDAT ??_R4CWindow@UI@@6B@
rdata$r	SEGMENT
??_R4CWindow@UI@@6B@ DD 00H				; UI::CWindow::`RTTI Complete Object Locator'
	DD	00H
	DD	00H
	DD	FLAT:??_R0?AVCWindow@UI@@@8
	DD	FLAT:??_R3CWindow@UI@@8
rdata$r	ENDS
;	COMDAT ??_R0P6AMMMM@Z@8
data$r	SEGMENT
??_R0P6AMMMM@Z@8 DD FLAT:??_7type_info@@6B@		; float (__cdecl*)(float,float,float) `RTTI Type Descriptor'
	DD	00H
	DB	'.P6AMMMM@Z', 00H
data$r	ENDS
;	COMDAT ??_7?$_Func_impl_no_alloc@P6AMMMM@ZMMMM@std@@6B@
CONST	SEGMENT
??_7?$_Func_impl_no_alloc@P6AMMMM@ZMMMM@std@@6B@ DD FLAT:??_R4?$_Func_impl_no_alloc@P6AMMMM@ZMMMM@std@@6B@ ; std::_Func_impl_no_alloc<float (__cdecl*)(float,float,float),float,float,float,float>::`vftable'
	DD	FLAT:?_Copy@?$_Func_impl_no_alloc@P6AMMMM@ZMMMM@std@@EBEPAV?$_Func_base@MMMM@2@PAX@Z
	DD	FLAT:?_Move@?$_Func_impl_no_alloc@P6AMMMM@ZMMMM@std@@EAEPAV?$_Func_base@MMMM@2@PAX@Z
	DD	FLAT:?_Do_call@?$_Func_impl_no_alloc@P6AMMMM@ZMMMM@std@@EAEM$$QAM00@Z
	DD	FLAT:?_Target_type@?$_Func_impl_no_alloc@P6AMMMM@ZMMMM@std@@EBEABVtype_info@@XZ
	DD	FLAT:?_Delete_this@?$_Func_impl_no_alloc@P6AMMMM@ZMMMM@std@@EAEX_N@Z
	DD	FLAT:?_Get@?$_Func_impl_no_alloc@P6AMMMM@ZMMMM@std@@EBEPBXXZ
CONST	ENDS
;	COMDAT ??_R0?AV<lambda_3ac3554338970f4f53a10d6f6ce8edc5>@@@8
data$r	SEGMENT
??_R0?AV<lambda_3ac3554338970f4f53a10d6f6ce8edc5>@@@8 DD FLAT:??_7type_info@@6B@ ; <lambda_3ac3554338970f4f53a10d6f6ce8edc5> `RTTI Type Descriptor'
	DD	00H
	DB	'.?AV<lambda_3ac3554338970f4f53a10d6f6ce8edc5>@@', 00H
data$r	ENDS
;	COMDAT ??_R0?AV<lambda_4e53bff9a6aeda8ea50dcd08e066d322>@@@8
data$r	SEGMENT
??_R0?AV<lambda_4e53bff9a6aeda8ea50dcd08e066d322>@@@8 DD FLAT:??_7type_info@@6B@ ; <lambda_4e53bff9a6aeda8ea50dcd08e066d322> `RTTI Type Descriptor'
	DD	00H
	DB	'.?AV<lambda_4e53bff9a6aeda8ea50dcd08e066d322>@@', 00H
data$r	ENDS
;	COMDAT ??_7?$_Func_impl_no_alloc@V<lambda_4e53bff9a6aeda8ea50dcd08e066d322>@@_NAAV?$tween@M$$V@tweeny@@M@std@@6B@
CONST	SEGMENT
??_7?$_Func_impl_no_alloc@V<lambda_4e53bff9a6aeda8ea50dcd08e066d322>@@_NAAV?$tween@M$$V@tweeny@@M@std@@6B@ DD FLAT:??_R4?$_Func_impl_no_alloc@V<lambda_4e53bff9a6aeda8ea50dcd08e066d322>@@_NAAV?$tween@M$$V@tweeny@@M@std@@6B@ ; std::_Func_impl_no_alloc<<lambda_4e53bff9a6aeda8ea50dcd08e066d322>,bool,tweeny::tween<float> &,float>::`vftable'
	DD	FLAT:?_Copy@?$_Func_impl_no_alloc@V<lambda_4e53bff9a6aeda8ea50dcd08e066d322>@@_NAAV?$tween@M$$V@tweeny@@M@std@@EBEPAV?$_Func_base@_NAAV?$tween@M$$V@tweeny@@M@2@PAX@Z
	DD	FLAT:?_Move@?$_Func_impl_no_alloc@V<lambda_4e53bff9a6aeda8ea50dcd08e066d322>@@_NAAV?$tween@M$$V@tweeny@@M@std@@EAEPAV?$_Func_base@_NAAV?$tween@M$$V@tweeny@@M@2@PAX@Z
	DD	FLAT:?_Do_call@?$_Func_impl_no_alloc@V<lambda_4e53bff9a6aeda8ea50dcd08e066d322>@@_NAAV?$tween@M$$V@tweeny@@M@std@@EAE_NAAV?$tween@M$$V@tweeny@@$$QAM@Z
	DD	FLAT:?_Target_type@?$_Func_impl_no_alloc@V<lambda_4e53bff9a6aeda8ea50dcd08e066d322>@@_NAAV?$tween@M$$V@tweeny@@M@std@@EBEABVtype_info@@XZ
	DD	FLAT:?_Delete_this@?$_Func_impl_no_alloc@V<lambda_4e53bff9a6aeda8ea50dcd08e066d322>@@_NAAV?$tween@M$$V@tweeny@@M@std@@EAEX_N@Z
	DD	FLAT:?_Get@?$_Func_impl_no_alloc@V<lambda_4e53bff9a6aeda8ea50dcd08e066d322>@@_NAAV?$tween@M$$V@tweeny@@M@std@@EBEPBXXZ
CONST	ENDS
;	COMDAT ??_7?$_Func_impl_no_alloc@V<lambda_3ac3554338970f4f53a10d6f6ce8edc5>@@_NAAV?$tween@M$$V@tweeny@@M@std@@6B@
CONST	SEGMENT
??_7?$_Func_impl_no_alloc@V<lambda_3ac3554338970f4f53a10d6f6ce8edc5>@@_NAAV?$tween@M$$V@tweeny@@M@std@@6B@ DD FLAT:??_R4?$_Func_impl_no_alloc@V<lambda_3ac3554338970f4f53a10d6f6ce8edc5>@@_NAAV?$tween@M$$V@tweeny@@M@std@@6B@ ; std::_Func_impl_no_alloc<<lambda_3ac3554338970f4f53a10d6f6ce8edc5>,bool,tweeny::tween<float> &,float>::`vftable'
	DD	FLAT:?_Copy@?$_Func_impl_no_alloc@V<lambda_3ac3554338970f4f53a10d6f6ce8edc5>@@_NAAV?$tween@M$$V@tweeny@@M@std@@EBEPAV?$_Func_base@_NAAV?$tween@M$$V@tweeny@@M@2@PAX@Z
	DD	FLAT:?_Move@?$_Func_impl_no_alloc@V<lambda_3ac3554338970f4f53a10d6f6ce8edc5>@@_NAAV?$tween@M$$V@tweeny@@M@std@@EAEPAV?$_Func_base@_NAAV?$tween@M$$V@tweeny@@M@2@PAX@Z
	DD	FLAT:?_Do_call@?$_Func_impl_no_alloc@V<lambda_3ac3554338970f4f53a10d6f6ce8edc5>@@_NAAV?$tween@M$$V@tweeny@@M@std@@EAE_NAAV?$tween@M$$V@tweeny@@$$QAM@Z
	DD	FLAT:?_Target_type@?$_Func_impl_no_alloc@V<lambda_3ac3554338970f4f53a10d6f6ce8edc5>@@_NAAV?$tween@M$$V@tweeny@@M@std@@EBEABVtype_info@@XZ
	DD	FLAT:?_Delete_this@?$_Func_impl_no_alloc@V<lambda_3ac3554338970f4f53a10d6f6ce8edc5>@@_NAAV?$tween@M$$V@tweeny@@M@std@@EAEX_N@Z
	DD	FLAT:?_Get@?$_Func_impl_no_alloc@V<lambda_3ac3554338970f4f53a10d6f6ce8edc5>@@_NAAV?$tween@M$$V@tweeny@@M@std@@EBEPBXXZ
CONST	ENDS
;	COMDAT ??_C@_0BJ@DHFDPMIM@invalid?5vector?5subscript@
CONST	SEGMENT
??_C@_0BJ@DHFDPMIM@invalid?5vector?5subscript@ DB 'invalid vector subscri'
	DB	'pt', 00H					; `string'
CONST	ENDS
;	COMDAT ??_C@_0O@NKNMEGII@list?5too?5long@
CONST	SEGMENT
??_C@_0O@NKNMEGII@list?5too?5long@ DB 'list too long', 00H ; `string'
CONST	ENDS
;	COMDAT ??_C@_0BE@KGBCPEAI@bad?5optional?5access@
CONST	SEGMENT
??_C@_0BE@KGBCPEAI@bad?5optional?5access@ DB 'bad optional access', 00H ; `string'
CONST	ENDS
;	COMDAT __CT??_R0?AVlogic_error@std@@@8??0logic_error@std@@QAE@ABV01@@Z12
xdata$x	SEGMENT
__CT??_R0?AVlogic_error@std@@@8??0logic_error@std@@QAE@ABV01@@Z12 DD 00H
	DD	FLAT:??_R0?AVlogic_error@std@@@8
	DD	00H
	DD	0ffffffffH
	ORG $+4
	DD	0cH
	DD	FLAT:??0logic_error@std@@QAE@ABV01@@Z
xdata$x	ENDS
;	COMDAT __CT??_R0?AVbad_optional_access@experimental@std@@@8??0bad_optional_access@experimental@std@@QAE@ABV012@@Z12
xdata$x	SEGMENT
__CT??_R0?AVbad_optional_access@experimental@std@@@8??0bad_optional_access@experimental@std@@QAE@ABV012@@Z12 DD 00H
	DD	FLAT:??_R0?AVbad_optional_access@experimental@std@@@8
	DD	00H
	DD	0ffffffffH
	ORG $+4
	DD	0cH
	DD	FLAT:??0bad_optional_access@experimental@std@@QAE@ABV012@@Z
xdata$x	ENDS
;	COMDAT ??_R0?AVbad_optional_access@experimental@std@@@8
data$r	SEGMENT
??_R0?AVbad_optional_access@experimental@std@@@8 DD FLAT:??_7type_info@@6B@ ; std::experimental::bad_optional_access `RTTI Type Descriptor'
	DD	00H
	DB	'.?AVbad_optional_access@experimental@std@@', 00H
data$r	ENDS
;	COMDAT __CTA3?AVbad_optional_access@experimental@std@@
xdata$x	SEGMENT
__CTA3?AVbad_optional_access@experimental@std@@ DD 03H
	DD	FLAT:__CT??_R0?AVbad_optional_access@experimental@std@@@8??0bad_optional_access@experimental@std@@QAE@ABV012@@Z12
	DD	FLAT:__CT??_R0?AVlogic_error@std@@@8??0logic_error@std@@QAE@ABV01@@Z12
	DD	FLAT:__CT??_R0?AVexception@std@@@8??0exception@std@@QAE@ABV01@@Z12
xdata$x	ENDS
;	COMDAT __TI3?AVbad_optional_access@experimental@std@@
xdata$x	SEGMENT
__TI3?AVbad_optional_access@experimental@std@@ DD 00H
	DD	FLAT:??1bad_optional_access@experimental@std@@UAE@XZ
	DD	00H
	DD	FLAT:__CTA3?AVbad_optional_access@experimental@std@@
xdata$x	ENDS
;	COMDAT ?DIFFUSE_COLOR@?1??SetSlotDiffuseColor@CAniImageBox@UI@@QAEXPBDE@Z@4QAY03$$CBMA
CONST	SEGMENT
?DIFFUSE_COLOR@?1??SetSlotDiffuseColor@CAniImageBox@UI@@QAEXPBDE@Z@4QAY03$$CBMA DD 03f6eeeefr ; 0.933333 ; `UI::CAniImageBox::SetSlotDiffuseColor'::`2'::DIFFUSE_COLOR
	DD	03d30b0b1r			; 0.0431373
	DD	03d30b0b1r			; 0.0431373
	DD	03f800000r			; 1
	DD	03f800000r			; 1
	DD	03f800000r			; 1
	DD	000000000r			; 0
	DD	03f800000r			; 1
CONST	ENDS
;	COMDAT ??_C@_06GJPOLLJG@OnMove@
CONST	SEGMENT
??_C@_06GJPOLLJG@OnMove@ DB 'OnMove', 00H		; `string'
CONST	ENDS
;	COMDAT ??_C@_0N@NBGLGPDJ@OnToggleDown@
CONST	SEGMENT
??_C@_0N@NBGLGPDJ@OnToggleDown@ DB 'OnToggleDown', 00H	; `string'
CONST	ENDS
;	COMDAT ??_C@_0L@HGABHAMN@OnToggleUp@
CONST	SEGMENT
??_C@_0L@HGABHAMN@OnToggleUp@ DB 'OnToggleUp', 00H	; `string'
CONST	ENDS
;	COMDAT ??_C@_0BD@OKLAKJGM@OnSetDisableVisual@
CONST	SEGMENT
??_C@_0BD@OKLAKJGM@OnSetDisableVisual@ DB 'OnSetDisableVisual', 00H ; `string'
CONST	ENDS
;	COMDAT ??_C@_0BA@GJIJKBGL@OnSetDownVisual@
CONST	SEGMENT
??_C@_0BA@GJIJKBGL@OnSetDownVisual@ DB 'OnSetDownVisual', 00H ; `string'
CONST	ENDS
;	COMDAT ??_C@_0BA@DIDBMCJO@OnSetOverVisual@
CONST	SEGMENT
??_C@_0BA@DIDBMCJO@OnSetOverVisual@ DB 'OnSetOverVisual', 00H ; `string'
CONST	ENDS
;	COMDAT ??_C@_0O@MBBNNMAO@OnSetUpVisual@
CONST	SEGMENT
??_C@_0O@MBBNNMAO@OnSetUpVisual@ DB 'OnSetUpVisual', 00H ; `string'
CONST	ENDS
;	COMDAT ??_C@_0M@HCIAMHJN@HideToolTip@
CONST	SEGMENT
??_C@_0M@HCIAMHJN@HideToolTip@ DB 'HideToolTip', 00H	; `string'
CONST	ENDS
;	COMDAT ??_C@_0M@LEFCMAKP@ShowToolTip@
CONST	SEGMENT
??_C@_0M@LEFCMAKP@ShowToolTip@ DB 'ShowToolTip', 00H	; `string'
CONST	ENDS
;	COMDAT ??_C@_09FJAHACEO@DownEvent@
CONST	SEGMENT
??_C@_09FJAHACEO@DownEvent@ DB 'DownEvent', 00H		; `string'
CONST	ENDS
;	COMDAT ??_C@_09MFFHPOPB@CallEvent@
CONST	SEGMENT
??_C@_09MFFHPOPB@CallEvent@ DB 'CallEvent', 00H		; `string'
CONST	ENDS
;	COMDAT ??_C@_07OFEOKGEK@CButton@
CONST	SEGMENT
??_C@_07OFEOKGEK@CButton@ DB 'CButton', 00H		; `string'
CONST	ENDS
;	COMDAT ??_C@_0L@CCNGDMCN@OnKeyFrame@
CONST	SEGMENT
??_C@_0L@CCNGDMCN@OnKeyFrame@ DB 'OnKeyFrame', 00H	; `string'
CONST	ENDS
;	COMDAT ??_C@_0L@LBHHAGOH@OnEndFrame@
CONST	SEGMENT
??_C@_0L@LBHHAGOH@OnEndFrame@ DB 'OnEndFrame', 00H	; `string'
CONST	ENDS
;	COMDAT ??_C@_0N@LBBHECOO@CAniImageBox@
CONST	SEGMENT
??_C@_0N@LBBHECOO@CAniImageBox@ DB 'CAniImageBox', 00H	; `string'
CONST	ENDS
;	COMDAT ??_C@_0BC@DJHPPMGJ@CExpandedImageBox@
CONST	SEGMENT
??_C@_0BC@DJHPPMGJ@CExpandedImageBox@ DB 'CExpandedImageBox', 00H ; `string'
CONST	ENDS
;	COMDAT ??_C@_09KMLFEEMH@CImageBox@
CONST	SEGMENT
??_C@_09KMLFEEMH@CImageBox@ DB 'CImageBox', 00H		; `string'
CONST	ENDS
;	COMDAT ??_C@_04DLFHDFGL@?4sub@
CONST	SEGMENT
??_C@_04DLFHDFGL@?4sub@ DB '.sub', 00H			; `string'
CONST	ENDS
;	COMDAT ??_C@_05EHJFGOBE@p?4sub@
CONST	SEGMENT
??_C@_05EHJFGOBE@p?4sub@ DB 'p.sub', 00H		; `string'
CONST	ENDS
;	COMDAT ??_C@_05FJEGFMDH@g?4sub@
CONST	SEGMENT
??_C@_05FJEGFMDH@g?4sub@ DB 'g.sub', 00H		; `string'
CONST	ENDS
;	COMDAT ??_C@_05PINNHPFB@m?4sub@
CONST	SEGMENT
??_C@_05PINNHPFB@m?4sub@ DB 'm.sub', 00H		; `string'
CONST	ENDS
;	COMDAT ??_C@_08FPHNCABK@plus?4sub@
CONST	SEGMENT
??_C@_08FPHNCABK@plus?4sub@ DB 'plus.sub', 00H		; `string'
CONST	ENDS
;	COMDAT ??_C@_0M@MHAKIBOD@percent?4sub@
CONST	SEGMENT
??_C@_0M@MHAKIBOD@percent?4sub@ DB 'percent.sub', 00H	; `string'
CONST	ENDS
;	COMDAT ??_C@_09JMLAABIP@slash?4sub@
CONST	SEGMENT
??_C@_09JMLAABIP@slash?4sub@ DB 'slash.sub', 00H	; `string'
CONST	ENDS
;	COMDAT ??_C@_0BB@POBNNLPJ@questionmark?4sub@
CONST	SEGMENT
??_C@_0BB@POBNNLPJ@questionmark?4sub@ DB 'questionmark.sub', 00H ; `string'
CONST	ENDS
;	COMDAT ??_C@_09GPLBLMNE@colon?4sub@
CONST	SEGMENT
??_C@_09GPLBLMNE@colon?4sub@ DB 'colon.sub', 00H	; `string'
CONST	ENDS
;	COMDAT ??_C@_0BO@GPCBPBEE@d?3?1ymir?5work?1ui?1game?1taskbar?1@
CONST	SEGMENT
??_C@_0BO@GPCBPBEE@d?3?1ymir?5work?1ui?1game?1taskbar?1@ DB 'd:/ymir work'
	DB	'/ui/game/taskbar/', 00H			; `string'
CONST	ENDS
;	COMDAT ??_C@_0M@HGOBFKBB@CNumberLine@
CONST	SEGMENT
??_C@_0M@HGOBFKBB@CNumberLine@ DB 'CNumberLine', 00H	; `string'
CONST	ENDS
;	COMDAT ??_C@_0BB@CELBIPME@OnRenderSelected@
CONST	SEGMENT
??_C@_0BB@CELBIPME@OnRenderSelected@ DB 'OnRenderSelected', 00H ; `string'
CONST	ENDS
;	COMDAT ??_C@_04FAHLGLIA@?4fnt@
CONST	SEGMENT
??_C@_04FAHLGLIA@?4fnt@ DB '.fnt', 00H			; `string'
CONST	ENDS
;	COMDAT ??_C@_09BAJHDABN@CTextLine@
CONST	SEGMENT
??_C@_09BAJHDABN@CTextLine@ DB 'CTextLine', 00H		; `string'
CONST	ENDS
;	COMDAT ??_C@_06ICLMADCA@CBar3D@
CONST	SEGMENT
??_C@_06ICLMADCA@CBar3D@ DB 'CBar3D', 00H		; `string'
CONST	ENDS
;	COMDAT ??_C@_0EB@OFBMEDEK@CWikiRenderTargetManager?5could?5@
CONST	SEGMENT
??_C@_0EB@OFBMEDEK@CWikiRenderTargetManager?5could?5@ DB 'CWikiRenderTarg'
	DB	'etManager could not create the texture. w %d h %d', 00H ; `string'
CONST	ENDS
;	COMDAT ??_C@_0P@KEJGBDKK@OnPressExitKey@
CONST	SEGMENT
??_C@_0P@KEJGBDKK@OnPressExitKey@ DB 'OnPressExitKey', 00H ; `string'
CONST	ENDS
;	COMDAT ??_C@_0BB@HCFLIMGH@OnPressEscapeKey@
CONST	SEGMENT
??_C@_0BB@HCFLIMGH@OnPressEscapeKey@ DB 'OnPressEscapeKey', 00H ; `string'
CONST	ENDS
;	COMDAT ??_C@_0BB@LHAEDNPI@OnPressReturnKey@
CONST	SEGMENT
??_C@_0BB@LHAEDNPI@OnPressReturnKey@ DB 'OnPressReturnKey', 00H ; `string'
CONST	ENDS
;	COMDAT ??_C@_07NGNLLPEG@OnKeyUp@
CONST	SEGMENT
??_C@_07NGNLLPEG@OnKeyUp@ DB 'OnKeyUp', 00H		; `string'
CONST	ENDS
;	COMDAT ??_C@_09CMHFBEC@OnKeyDown@
CONST	SEGMENT
??_C@_09CMHFBEC@OnKeyDown@ DB 'OnKeyDown', 00H		; `string'
CONST	ENDS
;	COMDAT ??_C@_0BF@DEOILJPB@OnIMECloseReadingWnd@
CONST	SEGMENT
??_C@_0BF@DEOILJPB@OnIMECloseReadingWnd@ DB 'OnIMECloseReadingWnd', 00H ; `string'
CONST	ENDS
;	COMDAT ??_C@_0BE@KDCLEDDC@OnIMEOpenReadingWnd@
CONST	SEGMENT
??_C@_0BE@KDCLEDDC@OnIMEOpenReadingWnd@ DB 'OnIMEOpenReadingWnd', 00H ; `string'
CONST	ENDS
;	COMDAT ??_C@_0BI@LOIKIPJ@OnIMECloseCandidateList@
CONST	SEGMENT
??_C@_0BI@LOIKIPJ@OnIMECloseCandidateList@ DB 'OnIMECloseCandidateList', 00H ; `string'
CONST	ENDS
;	COMDAT ??_C@_0BH@HEDPBKEK@OnIMEOpenCandidateList@
CONST	SEGMENT
??_C@_0BH@HEDPBKEK@OnIMEOpenCandidateList@ DB 'OnIMEOpenCandidateList', 00H ; `string'
CONST	ENDS
;	COMDAT ??_C@_0BE@EHKLBB@OnIMEChangeCodePage@
CONST	SEGMENT
??_C@_0BE@EHKLBB@OnIMEChangeCodePage@ DB 'OnIMEChangeCodePage', 00H ; `string'
CONST	ENDS
;	COMDAT ??_C@_0N@BMPDGPBH@OnIMEKeyDown@
CONST	SEGMENT
??_C@_0N@BMPDGPBH@OnIMEKeyDown@ DB 'OnIMEKeyDown', 00H	; `string'
CONST	ENDS
;	COMDAT ??_C@_0BF@NBAFCOEB@OnIMEUpdateSelection@
CONST	SEGMENT
??_C@_0BF@NBAFCOEB@OnIMEUpdateSelection@ DB 'OnIMEUpdateSelection', 00H ; `string'
CONST	ENDS
;	COMDAT ??_C@_0M@PILLCCFN@OnIMEReturn@
CONST	SEGMENT
??_C@_0M@PILLCCFN@OnIMEReturn@ DB 'OnIMEReturn', 00H	; `string'
CONST	ENDS
;	COMDAT ??_C@_08HFELFLOI@OnIMETab@
CONST	SEGMENT
??_C@_08HFELFLOI@OnIMETab@ DB 'OnIMETab', 00H		; `string'
CONST	ENDS
;	COMDAT ??_C@_0BD@GMLJAJMG@OnScrollWheelEvent@
CONST	SEGMENT
??_C@_0BD@GMLJAJMG@OnScrollWheelEvent@ DB 'OnScrollWheelEvent', 00H ; `string'
CONST	ENDS
;	COMDAT ??_C@_03LIHNMIHG@?$CIi?$CJ@
CONST	SEGMENT
??_C@_03LIHNMIHG@?$CIi?$CJ@ DB '(i)', 00H		; `string'
CONST	ENDS
;	COMDAT ??_C@_0BG@IGAJCEHG@OnMouseMiddleButtonUp@
CONST	SEGMENT
??_C@_0BG@IGAJCEHG@OnMouseMiddleButtonUp@ DB 'OnMouseMiddleButtonUp', 00H ; `string'
CONST	ENDS
;	COMDAT ??_C@_0BI@LKFMHNKP@OnMouseMiddleButtonDown@
CONST	SEGMENT
??_C@_0BI@LKFMHNKP@OnMouseMiddleButtonDown@ DB 'OnMouseMiddleButtonDown', 00H ; `string'
CONST	ENDS
;	COMDAT ??_C@_0BO@NPKMHGOP@OnMouseRightButtonDoubleClick@
CONST	SEGMENT
??_C@_0BO@NPKMHGOP@OnMouseRightButtonDoubleClick@ DB 'OnMouseRightButtonD'
	DB	'oubleClick', 00H				; `string'
CONST	ENDS
;	COMDAT ??_C@_0BF@FDIGHPIH@OnMouseRightButtonUp@
CONST	SEGMENT
??_C@_0BF@FDIGHPIH@OnMouseRightButtonUp@ DB 'OnMouseRightButtonUp', 00H ; `string'
CONST	ENDS
;	COMDAT ??_C@_0BH@ELECPAKA@OnMouseRightButtonDown@
CONST	SEGMENT
??_C@_0BH@ELECPAKA@OnMouseRightButtonDown@ DB 'OnMouseRightButtonDown', 00H ; `string'
CONST	ENDS
;	COMDAT ??_C@_0BN@KEKGIMMP@OnMouseLeftButtonDoubleClick@
CONST	SEGMENT
??_C@_0BN@KEKGIMMP@OnMouseLeftButtonDoubleClick@ DB 'OnMouseLeftButtonDou'
	DB	'bleClick', 00H				; `string'
CONST	ENDS
;	COMDAT ??_C@_0BE@MJALGMGL@OnMouseLeftButtonUp@
CONST	SEGMENT
??_C@_0BE@MJALGMGL@OnMouseLeftButtonUp@ DB 'OnMouseLeftButtonUp', 00H ; `string'
CONST	ENDS
;	COMDAT ??_C@_0BG@DNDHJHBD@OnMouseLeftButtonDown@
CONST	SEGMENT
??_C@_0BG@DNDHJHBD@OnMouseLeftButtonDown@ DB 'OnMouseLeftButtonDown', 00H ; `string'
CONST	ENDS
;	COMDAT ??_C@_0M@DGOFHNMI@OnIMEUpdate@
CONST	SEGMENT
??_C@_0M@DGOFHNMI@OnIMEUpdate@ DB 'OnIMEUpdate', 00H	; `string'
CONST	ENDS
;	COMDAT ??_C@_05LOOKECNH@OnTop@
CONST	SEGMENT
??_C@_05LOOKECNH@OnTop@ DB 'OnTop', 00H			; `string'
CONST	ENDS
;	COMDAT ??_C@_06OCNPCIEO@OnDrop@
CONST	SEGMENT
??_C@_06OCNPCIEO@OnDrop@ DB 'OnDrop', 00H		; `string'
CONST	ENDS
;	COMDAT ??_C@_0M@MGDIFFEM@OnMouseMove@
CONST	SEGMENT
??_C@_0M@MGDIFFEM@OnMouseMove@ DB 'OnMouseMove', 00H	; `string'
CONST	ENDS
;	COMDAT ??_C@_0P@KLLBNOAI@OnMouseOverOut@
CONST	SEGMENT
??_C@_0P@KLLBNOAI@OnMouseOverOut@ DB 'OnMouseOverOut', 00H ; `string'
CONST	ENDS
;	COMDAT ??_C@_0O@JKDAFDCC@OnMouseOverIn@
CONST	SEGMENT
??_C@_0O@JKDAFDCC@OnMouseOverIn@ DB 'OnMouseOverIn', 00H ; `string'
CONST	ENDS
;	COMDAT ??_C@_0M@CEGPCFGM@OnKillFocus@
CONST	SEGMENT
??_C@_0M@CEGPCFGM@OnKillFocus@ DB 'OnKillFocus', 00H	; `string'
CONST	ENDS
;	COMDAT ??_C@_0L@GIMNGBCD@OnSetFocus@
CONST	SEGMENT
??_C@_0L@GIMNGBCD@OnSetFocus@ DB 'OnSetFocus', 00H	; `string'
CONST	ENDS
;	COMDAT ??_C@_0N@PFKNBOJP@OnMoveWindow@
CONST	SEGMENT
??_C@_0N@PFKNBOJP@OnMoveWindow@ DB 'OnMoveWindow', 00H	; `string'
CONST	ENDS
;	COMDAT ??_C@_0M@ECAEGPAI@OnMouseDrag@
CONST	SEGMENT
??_C@_0M@ECAEGPAI@OnMouseDrag@ DB 'OnMouseDrag', 00H	; `string'
CONST	ENDS
;	COMDAT ??_C@_04INACLLOK@?$CIii?$CJ@
CONST	SEGMENT
??_C@_04INACLLOK@?$CIii?$CJ@ DB '(ii)', 00H		; `string'
CONST	ENDS
;	COMDAT ??_C@_0DA@NEIGMJK@?5CWindow?3?3SetTop?5?9?5Failed?5to?5fi@
CONST	SEGMENT
??_C@_0DA@NEIGMJK@?5CWindow?3?3SetTop?5?9?5Failed?5to?5fi@ DB ' CWindow::'
	DB	'SetTop - Failed to find child window', 0aH, 00H ; `string'
CONST	ENDS
;	COMDAT ??_C@_0O@PENIBOGB@OnAfterRender@
CONST	SEGMENT
??_C@_0O@PENIBOGB@OnAfterRender@ DB 'OnAfterRender', 00H ; `string'
CONST	ENDS
;	COMDAT ??_C@_08PAJMEILO@OnRender@
CONST	SEGMENT
??_C@_08PAJMEILO@OnRender@ DB 'OnRender', 00H		; `string'
CONST	ENDS
;	COMDAT ??_C@_0BF@NPECNJEC@OnUpdateLockedCursor@
CONST	SEGMENT
??_C@_0BF@NPECNJEC@OnUpdateLockedCursor@ DB 'OnUpdateLockedCursor', 00H ; `string'
CONST	ENDS
;	COMDAT ??_C@_02PDIHAGKM@ii@
CONST	SEGMENT
??_C@_02PDIHAGKM@ii@ DB 'ii', 00H			; `string'
CONST	ENDS
;	COMDAT ??_C@_08DCJEAFK@OnUpdate@
CONST	SEGMENT
??_C@_08DCJEAFK@OnUpdate@ DB 'OnUpdate', 00H		; `string'
CONST	ENDS
;	COMDAT ??_C@_06JLNHBMCE@OnHide@
CONST	SEGMENT
??_C@_06JLNHBMCE@OnHide@ DB 'OnHide', 00H		; `string'
CONST	ENDS
;	COMDAT ??_C@_0P@BAAKKIGI@ANIMATION_MODE@
CONST	SEGMENT
??_C@_0P@BAAKKIGI@ANIMATION_MODE@ DB 'ANIMATION_MODE', 00H ; `string'
CONST	ENDS
;	COMDAT ??_C@_01GBGANLPD@0@
CONST	SEGMENT
??_C@_01GBGANLPD@0@ DB '0', 00H				; `string'
CONST	ENDS
;	COMDAT ??_C@_01HIHLOKLC@1@
CONST	SEGMENT
??_C@_01HIHLOKLC@1@ DB '1', 00H				; `string'
CONST	ENDS
;	COMDAT ??_C@_07EFPFKGGH@CWindow@
CONST	SEGMENT
??_C@_07EFPFKGGH@CWindow@ DB 'CWindow', 00H		; `string'
CONST	ENDS
;	COMDAT ??_7CDragButton@UI@@6B@
CONST	SEGMENT
??_7CDragButton@UI@@6B@ DD FLAT:??_R4CDragButton@UI@@6B@ ; UI::CDragButton::`vftable'
	DD	FLAT:??_ECDragButton@UI@@UAEPAXI@Z
	DD	FLAT:?IsShow@CWindow@UI@@UAE_NXZ
	DD	FLAT:?OnRender@CButton@UI@@MAEXXZ
	DD	FLAT:?OnAfterRender@CWindow@UI@@UAEXXZ
	DD	FLAT:?OnUpdateRenderBox@CButton@UI@@UAEXXZ
	DD	FLAT:?OnUpdate@CButton@UI@@MAEXXZ
	DD	FLAT:?OnUpdateLockedCursor@CWindow@UI@@UAEXHJ@Z
	DD	FLAT:?OnChangePosition@CDragButton@UI@@MAEXXZ
	DD	FLAT:?OnSetFocus@CWindow@UI@@UAEXXZ
	DD	FLAT:?OnKillFocus@CWindow@UI@@UAEXXZ
	DD	FLAT:?OnMouseDrag@CWindow@UI@@UAEXJJ@Z
	DD	FLAT:?OnMouseOverIn@CDragButton@UI@@MAEXXZ
	DD	FLAT:?OnMouseOverOut@CDragButton@UI@@MAEXXZ
	DD	FLAT:?OnMouseOver@CWindow@UI@@UAEXXZ
	DD	FLAT:?OnDrop@CWindow@UI@@UAEXXZ
	DD	FLAT:?OnTop@CWindow@UI@@UAEXXZ
	DD	FLAT:?OnIMEUpdate@CWindow@UI@@UAEXXZ
	DD	FLAT:?OnMoveWindow@CWindow@UI@@UAEXJJ@Z
	DD	FLAT:?OnIMETabEvent@CWindow@UI@@UAEHXZ
	DD	FLAT:?OnIMEReturnEvent@CWindow@UI@@UAEHXZ
	DD	FLAT:?OnIMEUpdateSelectionEvent@CWindow@UI@@UAEHXZ
	DD	FLAT:?OnIMEKeyDownEvent@CWindow@UI@@UAEHH@Z
	DD	FLAT:?OnIMEChangeCodePage@CWindow@UI@@UAEHXZ
	DD	FLAT:?OnIMEOpenCandidateListEvent@CWindow@UI@@UAEHXZ
	DD	FLAT:?OnIMECloseCandidateListEvent@CWindow@UI@@UAEHXZ
	DD	FLAT:?OnIMEOpenReadingWndEvent@CWindow@UI@@UAEHXZ
	DD	FLAT:?OnIMECloseReadingWndEvent@CWindow@UI@@UAEHXZ
	DD	FLAT:?OnMouseLeftButtonDown@CButton@UI@@MAEHXZ
	DD	FLAT:?OnMouseLeftButtonUp@CButton@UI@@MAEHXZ
	DD	FLAT:?OnMouseLeftButtonDoubleClick@CButton@UI@@MAEHXZ
	DD	FLAT:?OnMouseRightButtonDown@CWindow@UI@@UAEHXZ
	DD	FLAT:?OnMouseRightButtonUp@CButton@UI@@MAEHXZ
	DD	FLAT:?OnMouseRightButtonDoubleClick@CButton@UI@@MAEHXZ
	DD	FLAT:?OnMouseMiddleButtonDown@CWindow@UI@@UAEHXZ
	DD	FLAT:?OnMouseMiddleButtonUp@CWindow@UI@@UAEHXZ
	DD	FLAT:?OnScrollEvent@CWindow@UI@@UAEHABH@Z
	DD	FLAT:?OnKeyDown@CWindow@UI@@UAEHH@Z
	DD	FLAT:?OnKeyUp@CWindow@UI@@UAEHH@Z
	DD	FLAT:?OnPressReturnKey@CWindow@UI@@UAEHXZ
	DD	FLAT:?OnPressEscapeKey@CWindow@UI@@UAEHXZ
	DD	FLAT:?OnPressExitKey@CWindow@UI@@UAEHXZ
	DD	FLAT:?SetColor@CWindow@UI@@UAEXK@Z
	DD	FLAT:?OnIsType@CButton@UI@@MAEHK@Z
	DD	FLAT:?IsWindow@CWindow@UI@@UAEHXZ
	DD	FLAT:?iSetRenderingRect@CWindow@UI@@UAEXHHHH@Z
	DD	FLAT:?SetRenderingRect@CButton@UI@@UAEXMMMM@Z
	DD	FLAT:?GetRenderingWidth@CWindow@UI@@UAEHXZ
	DD	FLAT:?GetRenderingHeight@CWindow@UI@@UAEHXZ
	DD	FLAT:?OnSetRenderingRect@CButton@UI@@UAEXXZ
CONST	ENDS
;	COMDAT ??_7CToggleButton@UI@@6B@
CONST	SEGMENT
??_7CToggleButton@UI@@6B@ DD FLAT:??_R4CToggleButton@UI@@6B@ ; UI::CToggleButton::`vftable'
	DD	FLAT:??_ECToggleButton@UI@@UAEPAXI@Z
	DD	FLAT:?IsShow@CWindow@UI@@UAE_NXZ
	DD	FLAT:?OnRender@CButton@UI@@MAEXXZ
	DD	FLAT:?OnAfterRender@CWindow@UI@@UAEXXZ
	DD	FLAT:?OnUpdateRenderBox@CButton@UI@@UAEXXZ
	DD	FLAT:?OnUpdate@CButton@UI@@MAEXXZ
	DD	FLAT:?OnUpdateLockedCursor@CWindow@UI@@UAEXHJ@Z
	DD	FLAT:?OnChangePosition@CButton@UI@@MAEXXZ
	DD	FLAT:?OnSetFocus@CWindow@UI@@UAEXXZ
	DD	FLAT:?OnKillFocus@CWindow@UI@@UAEXXZ
	DD	FLAT:?OnMouseDrag@CWindow@UI@@UAEXJJ@Z
	DD	FLAT:?OnMouseOverIn@CToggleButton@UI@@MAEXXZ
	DD	FLAT:?OnMouseOverOut@CToggleButton@UI@@MAEXXZ
	DD	FLAT:?OnMouseOver@CWindow@UI@@UAEXXZ
	DD	FLAT:?OnDrop@CWindow@UI@@UAEXXZ
	DD	FLAT:?OnTop@CWindow@UI@@UAEXXZ
	DD	FLAT:?OnIMEUpdate@CWindow@UI@@UAEXXZ
	DD	FLAT:?OnMoveWindow@CWindow@UI@@UAEXJJ@Z
	DD	FLAT:?OnIMETabEvent@CWindow@UI@@UAEHXZ
	DD	FLAT:?OnIMEReturnEvent@CWindow@UI@@UAEHXZ
	DD	FLAT:?OnIMEUpdateSelectionEvent@CWindow@UI@@UAEHXZ
	DD	FLAT:?OnIMEKeyDownEvent@CWindow@UI@@UAEHH@Z
	DD	FLAT:?OnIMEChangeCodePage@CWindow@UI@@UAEHXZ
	DD	FLAT:?OnIMEOpenCandidateListEvent@CWindow@UI@@UAEHXZ
	DD	FLAT:?OnIMECloseCandidateListEvent@CWindow@UI@@UAEHXZ
	DD	FLAT:?OnIMEOpenReadingWndEvent@CWindow@UI@@UAEHXZ
	DD	FLAT:?OnIMECloseReadingWndEvent@CWindow@UI@@UAEHXZ
	DD	FLAT:?OnMouseLeftButtonDown@CToggleButton@UI@@MAEHXZ
	DD	FLAT:?OnMouseLeftButtonUp@CToggleButton@UI@@MAEHXZ
	DD	FLAT:?OnMouseLeftButtonDoubleClick@CButton@UI@@MAEHXZ
	DD	FLAT:?OnMouseRightButtonDown@CWindow@UI@@UAEHXZ
	DD	FLAT:?OnMouseRightButtonUp@CButton@UI@@MAEHXZ
	DD	FLAT:?OnMouseRightButtonDoubleClick@CButton@UI@@MAEHXZ
	DD	FLAT:?OnMouseMiddleButtonDown@CWindow@UI@@UAEHXZ
	DD	FLAT:?OnMouseMiddleButtonUp@CWindow@UI@@UAEHXZ
	DD	FLAT:?OnScrollEvent@CWindow@UI@@UAEHABH@Z
	DD	FLAT:?OnKeyDown@CWindow@UI@@UAEHH@Z
	DD	FLAT:?OnKeyUp@CWindow@UI@@UAEHH@Z
	DD	FLAT:?OnPressReturnKey@CWindow@UI@@UAEHXZ
	DD	FLAT:?OnPressEscapeKey@CWindow@UI@@UAEHXZ
	DD	FLAT:?OnPressExitKey@CWindow@UI@@UAEHXZ
	DD	FLAT:?SetColor@CWindow@UI@@UAEXK@Z
	DD	FLAT:?OnIsType@CButton@UI@@MAEHK@Z
	DD	FLAT:?IsWindow@CWindow@UI@@UAEHXZ
	DD	FLAT:?iSetRenderingRect@CWindow@UI@@UAEXHHHH@Z
	DD	FLAT:?SetRenderingRect@CButton@UI@@UAEXMMMM@Z
	DD	FLAT:?GetRenderingWidth@CWindow@UI@@UAEHXZ
	DD	FLAT:?GetRenderingHeight@CWindow@UI@@UAEHXZ
	DD	FLAT:?OnSetRenderingRect@CButton@UI@@UAEXXZ
CONST	ENDS
;	COMDAT ??_7CRadioButton@UI@@6B@
CONST	SEGMENT
??_7CRadioButton@UI@@6B@ DD FLAT:??_R4CRadioButton@UI@@6B@ ; UI::CRadioButton::`vftable'
	DD	FLAT:??_ECRadioButton@UI@@UAEPAXI@Z
	DD	FLAT:?IsShow@CWindow@UI@@UAE_NXZ
	DD	FLAT:?OnRender@CButton@UI@@MAEXXZ
	DD	FLAT:?OnAfterRender@CWindow@UI@@UAEXXZ
	DD	FLAT:?OnUpdateRenderBox@CButton@UI@@UAEXXZ
	DD	FLAT:?OnUpdate@CButton@UI@@MAEXXZ
	DD	FLAT:?OnUpdateLockedCursor@CWindow@UI@@UAEXHJ@Z
	DD	FLAT:?OnChangePosition@CButton@UI@@MAEXXZ
	DD	FLAT:?OnSetFocus@CWindow@UI@@UAEXXZ
	DD	FLAT:?OnKillFocus@CWindow@UI@@UAEXXZ
	DD	FLAT:?OnMouseDrag@CWindow@UI@@UAEXJJ@Z
	DD	FLAT:?OnMouseOverIn@CRadioButton@UI@@MAEXXZ
	DD	FLAT:?OnMouseOverOut@CRadioButton@UI@@MAEXXZ
	DD	FLAT:?OnMouseOver@CWindow@UI@@UAEXXZ
	DD	FLAT:?OnDrop@CWindow@UI@@UAEXXZ
	DD	FLAT:?OnTop@CWindow@UI@@UAEXXZ
	DD	FLAT:?OnIMEUpdate@CWindow@UI@@UAEXXZ
	DD	FLAT:?OnMoveWindow@CWindow@UI@@UAEXJJ@Z
	DD	FLAT:?OnIMETabEvent@CWindow@UI@@UAEHXZ
	DD	FLAT:?OnIMEReturnEvent@CWindow@UI@@UAEHXZ
	DD	FLAT:?OnIMEUpdateSelectionEvent@CWindow@UI@@UAEHXZ
	DD	FLAT:?OnIMEKeyDownEvent@CWindow@UI@@UAEHH@Z
	DD	FLAT:?OnIMEChangeCodePage@CWindow@UI@@UAEHXZ
	DD	FLAT:?OnIMEOpenCandidateListEvent@CWindow@UI@@UAEHXZ
	DD	FLAT:?OnIMECloseCandidateListEvent@CWindow@UI@@UAEHXZ
	DD	FLAT:?OnIMEOpenReadingWndEvent@CWindow@UI@@UAEHXZ
	DD	FLAT:?OnIMECloseReadingWndEvent@CWindow@UI@@UAEHXZ
	DD	FLAT:?OnMouseLeftButtonDown@CRadioButton@UI@@MAEHXZ
	DD	FLAT:?OnMouseLeftButtonUp@CRadioButton@UI@@MAEHXZ
	DD	FLAT:?OnMouseLeftButtonDoubleClick@CButton@UI@@MAEHXZ
	DD	FLAT:?OnMouseRightButtonDown@CWindow@UI@@UAEHXZ
	DD	FLAT:?OnMouseRightButtonUp@CButton@UI@@MAEHXZ
	DD	FLAT:?OnMouseRightButtonDoubleClick@CButton@UI@@MAEHXZ
	DD	FLAT:?OnMouseMiddleButtonDown@CWindow@UI@@UAEHXZ
	DD	FLAT:?OnMouseMiddleButtonUp@CWindow@UI@@UAEHXZ
	DD	FLAT:?OnScrollEvent@CWindow@UI@@UAEHABH@Z
	DD	FLAT:?OnKeyDown@CWindow@UI@@UAEHH@Z
	DD	FLAT:?OnKeyUp@CWindow@UI@@UAEHH@Z
	DD	FLAT:?OnPressReturnKey@CWindow@UI@@UAEHXZ
	DD	FLAT:?OnPressEscapeKey@CWindow@UI@@UAEHXZ
	DD	FLAT:?OnPressExitKey@CWindow@UI@@UAEHXZ
	DD	FLAT:?SetColor@CWindow@UI@@UAEXK@Z
	DD	FLAT:?OnIsType@CButton@UI@@MAEHK@Z
	DD	FLAT:?IsWindow@CWindow@UI@@UAEHXZ
	DD	FLAT:?iSetRenderingRect@CWindow@UI@@UAEXHHHH@Z
	DD	FLAT:?SetRenderingRect@CButton@UI@@UAEXMMMM@Z
	DD	FLAT:?GetRenderingWidth@CWindow@UI@@UAEHXZ
	DD	FLAT:?GetRenderingHeight@CWindow@UI@@UAEHXZ
	DD	FLAT:?OnSetRenderingRect@CButton@UI@@UAEXXZ
CONST	ENDS
;	COMDAT ??_7CButton@UI@@6B@
CONST	SEGMENT
??_7CButton@UI@@6B@ DD FLAT:??_R4CButton@UI@@6B@	; UI::CButton::`vftable'
	DD	FLAT:??_ECButton@UI@@UAEPAXI@Z
	DD	FLAT:?IsShow@CWindow@UI@@UAE_NXZ
	DD	FLAT:?OnRender@CButton@UI@@MAEXXZ
	DD	FLAT:?OnAfterRender@CWindow@UI@@UAEXXZ
	DD	FLAT:?OnUpdateRenderBox@CButton@UI@@UAEXXZ
	DD	FLAT:?OnUpdate@CButton@UI@@MAEXXZ
	DD	FLAT:?OnUpdateLockedCursor@CWindow@UI@@UAEXHJ@Z
	DD	FLAT:?OnChangePosition@CButton@UI@@MAEXXZ
	DD	FLAT:?OnSetFocus@CWindow@UI@@UAEXXZ
	DD	FLAT:?OnKillFocus@CWindow@UI@@UAEXXZ
	DD	FLAT:?OnMouseDrag@CWindow@UI@@UAEXJJ@Z
	DD	FLAT:?OnMouseOverIn@CButton@UI@@MAEXXZ
	DD	FLAT:?OnMouseOverOut@CButton@UI@@MAEXXZ
	DD	FLAT:?OnMouseOver@CWindow@UI@@UAEXXZ
	DD	FLAT:?OnDrop@CWindow@UI@@UAEXXZ
	DD	FLAT:?OnTop@CWindow@UI@@UAEXXZ
	DD	FLAT:?OnIMEUpdate@CWindow@UI@@UAEXXZ
	DD	FLAT:?OnMoveWindow@CWindow@UI@@UAEXJJ@Z
	DD	FLAT:?OnIMETabEvent@CWindow@UI@@UAEHXZ
	DD	FLAT:?OnIMEReturnEvent@CWindow@UI@@UAEHXZ
	DD	FLAT:?OnIMEUpdateSelectionEvent@CWindow@UI@@UAEHXZ
	DD	FLAT:?OnIMEKeyDownEvent@CWindow@UI@@UAEHH@Z
	DD	FLAT:?OnIMEChangeCodePage@CWindow@UI@@UAEHXZ
	DD	FLAT:?OnIMEOpenCandidateListEvent@CWindow@UI@@UAEHXZ
	DD	FLAT:?OnIMECloseCandidateListEvent@CWindow@UI@@UAEHXZ
	DD	FLAT:?OnIMEOpenReadingWndEvent@CWindow@UI@@UAEHXZ
	DD	FLAT:?OnIMECloseReadingWndEvent@CWindow@UI@@UAEHXZ
	DD	FLAT:?OnMouseLeftButtonDown@CButton@UI@@MAEHXZ
	DD	FLAT:?OnMouseLeftButtonUp@CButton@UI@@MAEHXZ
	DD	FLAT:?OnMouseLeftButtonDoubleClick@CButton@UI@@MAEHXZ
	DD	FLAT:?OnMouseRightButtonDown@CWindow@UI@@UAEHXZ
	DD	FLAT:?OnMouseRightButtonUp@CButton@UI@@MAEHXZ
	DD	FLAT:?OnMouseRightButtonDoubleClick@CButton@UI@@MAEHXZ
	DD	FLAT:?OnMouseMiddleButtonDown@CWindow@UI@@UAEHXZ
	DD	FLAT:?OnMouseMiddleButtonUp@CWindow@UI@@UAEHXZ
	DD	FLAT:?OnScrollEvent@CWindow@UI@@UAEHABH@Z
	DD	FLAT:?OnKeyDown@CWindow@UI@@UAEHH@Z
	DD	FLAT:?OnKeyUp@CWindow@UI@@UAEHH@Z
	DD	FLAT:?OnPressReturnKey@CWindow@UI@@UAEHXZ
	DD	FLAT:?OnPressEscapeKey@CWindow@UI@@UAEHXZ
	DD	FLAT:?OnPressExitKey@CWindow@UI@@UAEHXZ
	DD	FLAT:?SetColor@CWindow@UI@@UAEXK@Z
	DD	FLAT:?OnIsType@CButton@UI@@MAEHK@Z
	DD	FLAT:?IsWindow@CWindow@UI@@UAEHXZ
	DD	FLAT:?iSetRenderingRect@CWindow@UI@@UAEXHHHH@Z
	DD	FLAT:?SetRenderingRect@CButton@UI@@UAEXMMMM@Z
	DD	FLAT:?GetRenderingWidth@CWindow@UI@@UAEHXZ
	DD	FLAT:?GetRenderingHeight@CWindow@UI@@UAEHXZ
	DD	FLAT:?OnSetRenderingRect@CButton@UI@@UAEXXZ
CONST	ENDS
;	COMDAT ??_7CAniImageBox@UI@@6B@
CONST	SEGMENT
??_7CAniImageBox@UI@@6B@ DD FLAT:??_R4CAniImageBox@UI@@6B@ ; UI::CAniImageBox::`vftable'
	DD	FLAT:??_ECAniImageBox@UI@@UAEPAXI@Z
	DD	FLAT:?IsShow@CWindow@UI@@UAE_NXZ
	DD	FLAT:?OnRender@CAniImageBox@UI@@MAEXXZ
	DD	FLAT:?OnAfterRender@CWindow@UI@@UAEXXZ
	DD	FLAT:?OnUpdateRenderBox@CWindow@UI@@UAEXXZ
	DD	FLAT:?OnUpdate@CAniImageBox@UI@@MAEXXZ
	DD	FLAT:?OnUpdateLockedCursor@CWindow@UI@@UAEXHJ@Z
	DD	FLAT:?OnChangePosition@CAniImageBox@UI@@MAEXXZ
	DD	FLAT:?OnSetFocus@CWindow@UI@@UAEXXZ
	DD	FLAT:?OnKillFocus@CWindow@UI@@UAEXXZ
	DD	FLAT:?OnMouseDrag@CWindow@UI@@UAEXJJ@Z
	DD	FLAT:?OnMouseOverIn@CWindow@UI@@UAEXXZ
	DD	FLAT:?OnMouseOverOut@CWindow@UI@@UAEXXZ
	DD	FLAT:?OnMouseOver@CWindow@UI@@UAEXXZ
	DD	FLAT:?OnDrop@CWindow@UI@@UAEXXZ
	DD	FLAT:?OnTop@CWindow@UI@@UAEXXZ
	DD	FLAT:?OnIMEUpdate@CWindow@UI@@UAEXXZ
	DD	FLAT:?OnMoveWindow@CWindow@UI@@UAEXJJ@Z
	DD	FLAT:?OnIMETabEvent@CWindow@UI@@UAEHXZ
	DD	FLAT:?OnIMEReturnEvent@CWindow@UI@@UAEHXZ
	DD	FLAT:?OnIMEUpdateSelectionEvent@CWindow@UI@@UAEHXZ
	DD	FLAT:?OnIMEKeyDownEvent@CWindow@UI@@UAEHH@Z
	DD	FLAT:?OnIMEChangeCodePage@CWindow@UI@@UAEHXZ
	DD	FLAT:?OnIMEOpenCandidateListEvent@CWindow@UI@@UAEHXZ
	DD	FLAT:?OnIMECloseCandidateListEvent@CWindow@UI@@UAEHXZ
	DD	FLAT:?OnIMEOpenReadingWndEvent@CWindow@UI@@UAEHXZ
	DD	FLAT:?OnIMECloseReadingWndEvent@CWindow@UI@@UAEHXZ
	DD	FLAT:?OnMouseLeftButtonDown@CWindow@UI@@UAEHXZ
	DD	FLAT:?OnMouseLeftButtonUp@CWindow@UI@@UAEHXZ
	DD	FLAT:?OnMouseLeftButtonDoubleClick@CWindow@UI@@UAEHXZ
	DD	FLAT:?OnMouseRightButtonDown@CWindow@UI@@UAEHXZ
	DD	FLAT:?OnMouseRightButtonUp@CWindow@UI@@UAEHXZ
	DD	FLAT:?OnMouseRightButtonDoubleClick@CWindow@UI@@UAEHXZ
	DD	FLAT:?OnMouseMiddleButtonDown@CWindow@UI@@UAEHXZ
	DD	FLAT:?OnMouseMiddleButtonUp@CWindow@UI@@UAEHXZ
	DD	FLAT:?OnScrollEvent@CWindow@UI@@UAEHABH@Z
	DD	FLAT:?OnKeyDown@CWindow@UI@@UAEHH@Z
	DD	FLAT:?OnKeyUp@CWindow@UI@@UAEHH@Z
	DD	FLAT:?OnPressReturnKey@CWindow@UI@@UAEHXZ
	DD	FLAT:?OnPressEscapeKey@CWindow@UI@@UAEHXZ
	DD	FLAT:?OnPressExitKey@CWindow@UI@@UAEHXZ
	DD	FLAT:?SetColor@CWindow@UI@@UAEXK@Z
	DD	FLAT:?OnIsType@CAniImageBox@UI@@MAEHK@Z
	DD	FLAT:?IsWindow@CWindow@UI@@UAEHXZ
	DD	FLAT:?iSetRenderingRect@CWindow@UI@@UAEXHHHH@Z
	DD	FLAT:?SetRenderingRect@CAniImageBox@UI@@UAEXMMMM@Z
	DD	FLAT:?GetRenderingWidth@CWindow@UI@@UAEHXZ
	DD	FLAT:?GetRenderingHeight@CWindow@UI@@UAEHXZ
	DD	FLAT:?OnSetRenderingRect@CWindow@UI@@EAEXXZ
	DD	FLAT:?OnEndFrame@CAniImageBox@UI@@MAEXXZ
	DD	FLAT:?OnKeyFrame@CAniImageBox@UI@@MAEXE@Z
CONST	ENDS
;	COMDAT ??_7CExpandedImageBox@UI@@6B@
CONST	SEGMENT
??_7CExpandedImageBox@UI@@6B@ DD FLAT:??_R4CExpandedImageBox@UI@@6B@ ; UI::CExpandedImageBox::`vftable'
	DD	FLAT:??_ECExpandedImageBox@UI@@UAEPAXI@Z
	DD	FLAT:?IsShow@CWindow@UI@@UAE_NXZ
	DD	FLAT:?OnRender@CExpandedImageBox@UI@@MAEXXZ
	DD	FLAT:?OnAfterRender@CWindow@UI@@UAEXXZ
	DD	FLAT:?OnUpdateRenderBox@CExpandedImageBox@UI@@MAEXXZ
	DD	FLAT:?OnUpdate@CExpandedImageBox@UI@@MAEXXZ
	DD	FLAT:?OnUpdateLockedCursor@CWindow@UI@@UAEXHJ@Z
	DD	FLAT:?OnChangePosition@CImageBox@UI@@MAEXXZ
	DD	FLAT:?OnSetFocus@CWindow@UI@@UAEXXZ
	DD	FLAT:?OnKillFocus@CWindow@UI@@UAEXXZ
	DD	FLAT:?OnMouseDrag@CWindow@UI@@UAEXJJ@Z
	DD	FLAT:?OnMouseOverIn@CWindow@UI@@UAEXXZ
	DD	FLAT:?OnMouseOverOut@CWindow@UI@@UAEXXZ
	DD	FLAT:?OnMouseOver@CWindow@UI@@UAEXXZ
	DD	FLAT:?OnDrop@CWindow@UI@@UAEXXZ
	DD	FLAT:?OnTop@CWindow@UI@@UAEXXZ
	DD	FLAT:?OnIMEUpdate@CWindow@UI@@UAEXXZ
	DD	FLAT:?OnMoveWindow@CWindow@UI@@UAEXJJ@Z
	DD	FLAT:?OnIMETabEvent@CWindow@UI@@UAEHXZ
	DD	FLAT:?OnIMEReturnEvent@CWindow@UI@@UAEHXZ
	DD	FLAT:?OnIMEUpdateSelectionEvent@CWindow@UI@@UAEHXZ
	DD	FLAT:?OnIMEKeyDownEvent@CWindow@UI@@UAEHH@Z
	DD	FLAT:?OnIMEChangeCodePage@CWindow@UI@@UAEHXZ
	DD	FLAT:?OnIMEOpenCandidateListEvent@CWindow@UI@@UAEHXZ
	DD	FLAT:?OnIMECloseCandidateListEvent@CWindow@UI@@UAEHXZ
	DD	FLAT:?OnIMEOpenReadingWndEvent@CWindow@UI@@UAEHXZ
	DD	FLAT:?OnIMECloseReadingWndEvent@CWindow@UI@@UAEHXZ
	DD	FLAT:?OnMouseLeftButtonDown@CWindow@UI@@UAEHXZ
	DD	FLAT:?OnMouseLeftButtonUp@CWindow@UI@@UAEHXZ
	DD	FLAT:?OnMouseLeftButtonDoubleClick@CWindow@UI@@UAEHXZ
	DD	FLAT:?OnMouseRightButtonDown@CWindow@UI@@UAEHXZ
	DD	FLAT:?OnMouseRightButtonUp@CWindow@UI@@UAEHXZ
	DD	FLAT:?OnMouseRightButtonDoubleClick@CWindow@UI@@UAEHXZ
	DD	FLAT:?OnMouseMiddleButtonDown@CWindow@UI@@UAEHXZ
	DD	FLAT:?OnMouseMiddleButtonUp@CWindow@UI@@UAEHXZ
	DD	FLAT:?OnScrollEvent@CWindow@UI@@UAEHABH@Z
	DD	FLAT:?OnKeyDown@CWindow@UI@@UAEHH@Z
	DD	FLAT:?OnKeyUp@CWindow@UI@@UAEHH@Z
	DD	FLAT:?OnPressReturnKey@CWindow@UI@@UAEHXZ
	DD	FLAT:?OnPressEscapeKey@CWindow@UI@@UAEHXZ
	DD	FLAT:?OnPressExitKey@CWindow@UI@@UAEHXZ
	DD	FLAT:?SetColor@CWindow@UI@@UAEXK@Z
	DD	FLAT:?OnIsType@CExpandedImageBox@UI@@MAEHK@Z
	DD	FLAT:?IsWindow@CWindow@UI@@UAEHXZ
	DD	FLAT:?iSetRenderingRect@CWindow@UI@@UAEXHHHH@Z
	DD	FLAT:?SetRenderingRect@CExpandedImageBox@UI@@UAEXMMMM@Z
	DD	FLAT:?GetRenderingWidth@CExpandedImageBox@UI@@UAEHXZ
	DD	FLAT:?GetRenderingHeight@CExpandedImageBox@UI@@UAEHXZ
	DD	FLAT:?OnSetRenderingRect@CExpandedImageBox@UI@@UAEXXZ
	DD	FLAT:?OnCreateInstance@CExpandedImageBox@UI@@MAEXXZ
	DD	FLAT:?OnDestroyInstance@CExpandedImageBox@UI@@MAEXXZ
CONST	ENDS
;	COMDAT ??_7CMarkBox@UI@@6B@
CONST	SEGMENT
??_7CMarkBox@UI@@6B@ DD FLAT:??_R4CMarkBox@UI@@6B@	; UI::CMarkBox::`vftable'
	DD	FLAT:??_ECMarkBox@UI@@UAEPAXI@Z
	DD	FLAT:?IsShow@CWindow@UI@@UAE_NXZ
	DD	FLAT:?OnRender@CMarkBox@UI@@MAEXXZ
	DD	FLAT:?OnAfterRender@CWindow@UI@@UAEXXZ
	DD	FLAT:?OnUpdateRenderBox@CWindow@UI@@UAEXXZ
	DD	FLAT:?OnUpdate@CMarkBox@UI@@MAEXXZ
	DD	FLAT:?OnUpdateLockedCursor@CWindow@UI@@UAEXHJ@Z
	DD	FLAT:?OnChangePosition@CMarkBox@UI@@MAEXXZ
	DD	FLAT:?OnSetFocus@CWindow@UI@@UAEXXZ
	DD	FLAT:?OnKillFocus@CWindow@UI@@UAEXXZ
	DD	FLAT:?OnMouseDrag@CWindow@UI@@UAEXJJ@Z
	DD	FLAT:?OnMouseOverIn@CWindow@UI@@UAEXXZ
	DD	FLAT:?OnMouseOverOut@CWindow@UI@@UAEXXZ
	DD	FLAT:?OnMouseOver@CWindow@UI@@UAEXXZ
	DD	FLAT:?OnDrop@CWindow@UI@@UAEXXZ
	DD	FLAT:?OnTop@CWindow@UI@@UAEXXZ
	DD	FLAT:?OnIMEUpdate@CWindow@UI@@UAEXXZ
	DD	FLAT:?OnMoveWindow@CWindow@UI@@UAEXJJ@Z
	DD	FLAT:?OnIMETabEvent@CWindow@UI@@UAEHXZ
	DD	FLAT:?OnIMEReturnEvent@CWindow@UI@@UAEHXZ
	DD	FLAT:?OnIMEUpdateSelectionEvent@CWindow@UI@@UAEHXZ
	DD	FLAT:?OnIMEKeyDownEvent@CWindow@UI@@UAEHH@Z
	DD	FLAT:?OnIMEChangeCodePage@CWindow@UI@@UAEHXZ
	DD	FLAT:?OnIMEOpenCandidateListEvent@CWindow@UI@@UAEHXZ
	DD	FLAT:?OnIMECloseCandidateListEvent@CWindow@UI@@UAEHXZ
	DD	FLAT:?OnIMEOpenReadingWndEvent@CWindow@UI@@UAEHXZ
	DD	FLAT:?OnIMECloseReadingWndEvent@CWindow@UI@@UAEHXZ
	DD	FLAT:?OnMouseLeftButtonDown@CWindow@UI@@UAEHXZ
	DD	FLAT:?OnMouseLeftButtonUp@CWindow@UI@@UAEHXZ
	DD	FLAT:?OnMouseLeftButtonDoubleClick@CWindow@UI@@UAEHXZ
	DD	FLAT:?OnMouseRightButtonDown@CWindow@UI@@UAEHXZ
	DD	FLAT:?OnMouseRightButtonUp@CWindow@UI@@UAEHXZ
	DD	FLAT:?OnMouseRightButtonDoubleClick@CWindow@UI@@UAEHXZ
	DD	FLAT:?OnMouseMiddleButtonDown@CWindow@UI@@UAEHXZ
	DD	FLAT:?OnMouseMiddleButtonUp@CWindow@UI@@UAEHXZ
	DD	FLAT:?OnScrollEvent@CWindow@UI@@UAEHABH@Z
	DD	FLAT:?OnKeyDown@CWindow@UI@@UAEHH@Z
	DD	FLAT:?OnKeyUp@CWindow@UI@@UAEHH@Z
	DD	FLAT:?OnPressReturnKey@CWindow@UI@@UAEHXZ
	DD	FLAT:?OnPressEscapeKey@CWindow@UI@@UAEHXZ
	DD	FLAT:?OnPressExitKey@CWindow@UI@@UAEHXZ
	DD	FLAT:?SetColor@CWindow@UI@@UAEXK@Z
	DD	FLAT:?OnIsType@CWindow@UI@@UAEHK@Z
	DD	FLAT:?IsWindow@CWindow@UI@@UAEHXZ
	DD	FLAT:?iSetRenderingRect@CWindow@UI@@UAEXHHHH@Z
	DD	FLAT:?SetRenderingRect@CWindow@UI@@UAEXMMMM@Z
	DD	FLAT:?GetRenderingWidth@CWindow@UI@@UAEHXZ
	DD	FLAT:?GetRenderingHeight@CWindow@UI@@UAEHXZ
	DD	FLAT:?OnSetRenderingRect@CWindow@UI@@EAEXXZ
	DD	FLAT:?OnCreateInstance@CMarkBox@UI@@MAEXXZ
	DD	FLAT:?OnDestroyInstance@CMarkBox@UI@@MAEXXZ
CONST	ENDS
;	COMDAT ??_7CRenderTarget@UI@@6B@
CONST	SEGMENT
??_7CRenderTarget@UI@@6B@ DD FLAT:??_R4CRenderTarget@UI@@6B@ ; UI::CRenderTarget::`vftable'
	DD	FLAT:??_ECRenderTarget@UI@@UAEPAXI@Z
	DD	FLAT:?IsShow@CWindow@UI@@UAE_NXZ
	DD	FLAT:?OnRender@CRenderTarget@UI@@MAEXXZ
	DD	FLAT:?OnAfterRender@CWindow@UI@@UAEXXZ
	DD	FLAT:?OnUpdateRenderBox@CWindow@UI@@UAEXXZ
	DD	FLAT:?OnUpdate@CRenderTarget@UI@@MAEXXZ
	DD	FLAT:?OnUpdateLockedCursor@CWindow@UI@@UAEXHJ@Z
	DD	FLAT:?OnChangePosition@CImageBox@UI@@MAEXXZ
	DD	FLAT:?OnSetFocus@CWindow@UI@@UAEXXZ
	DD	FLAT:?OnKillFocus@CWindow@UI@@UAEXXZ
	DD	FLAT:?OnMouseDrag@CWindow@UI@@UAEXJJ@Z
	DD	FLAT:?OnMouseOverIn@CWindow@UI@@UAEXXZ
	DD	FLAT:?OnMouseOverOut@CWindow@UI@@UAEXXZ
	DD	FLAT:?OnMouseOver@CWindow@UI@@UAEXXZ
	DD	FLAT:?OnDrop@CWindow@UI@@UAEXXZ
	DD	FLAT:?OnTop@CWindow@UI@@UAEXXZ
	DD	FLAT:?OnIMEUpdate@CWindow@UI@@UAEXXZ
	DD	FLAT:?OnMoveWindow@CWindow@UI@@UAEXJJ@Z
	DD	FLAT:?OnIMETabEvent@CWindow@UI@@UAEHXZ
	DD	FLAT:?OnIMEReturnEvent@CWindow@UI@@UAEHXZ
	DD	FLAT:?OnIMEUpdateSelectionEvent@CWindow@UI@@UAEHXZ
	DD	FLAT:?OnIMEKeyDownEvent@CWindow@UI@@UAEHH@Z
	DD	FLAT:?OnIMEChangeCodePage@CWindow@UI@@UAEHXZ
	DD	FLAT:?OnIMEOpenCandidateListEvent@CWindow@UI@@UAEHXZ
	DD	FLAT:?OnIMECloseCandidateListEvent@CWindow@UI@@UAEHXZ
	DD	FLAT:?OnIMEOpenReadingWndEvent@CWindow@UI@@UAEHXZ
	DD	FLAT:?OnIMECloseReadingWndEvent@CWindow@UI@@UAEHXZ
	DD	FLAT:?OnMouseLeftButtonDown@CWindow@UI@@UAEHXZ
	DD	FLAT:?OnMouseLeftButtonUp@CWindow@UI@@UAEHXZ
	DD	FLAT:?OnMouseLeftButtonDoubleClick@CWindow@UI@@UAEHXZ
	DD	FLAT:?OnMouseRightButtonDown@CWindow@UI@@UAEHXZ
	DD	FLAT:?OnMouseRightButtonUp@CWindow@UI@@UAEHXZ
	DD	FLAT:?OnMouseRightButtonDoubleClick@CWindow@UI@@UAEHXZ
	DD	FLAT:?OnMouseMiddleButtonDown@CWindow@UI@@UAEHXZ
	DD	FLAT:?OnMouseMiddleButtonUp@CWindow@UI@@UAEHXZ
	DD	FLAT:?OnScrollEvent@CWindow@UI@@UAEHABH@Z
	DD	FLAT:?OnKeyDown@CWindow@UI@@UAEHH@Z
	DD	FLAT:?OnKeyUp@CWindow@UI@@UAEHH@Z
	DD	FLAT:?OnPressReturnKey@CWindow@UI@@UAEHXZ
	DD	FLAT:?OnPressEscapeKey@CWindow@UI@@UAEHXZ
	DD	FLAT:?OnPressExitKey@CWindow@UI@@UAEHXZ
	DD	FLAT:?SetColor@CWindow@UI@@UAEXK@Z
	DD	FLAT:?OnIsType@CImageBox@UI@@MAEHK@Z
	DD	FLAT:?IsWindow@CWindow@UI@@UAEHXZ
	DD	FLAT:?iSetRenderingRect@CWindow@UI@@UAEXHHHH@Z
	DD	FLAT:?SetRenderingRect@CWindow@UI@@UAEXMMMM@Z
	DD	FLAT:?GetRenderingWidth@CWindow@UI@@UAEHXZ
	DD	FLAT:?GetRenderingHeight@CWindow@UI@@UAEHXZ
	DD	FLAT:?OnSetRenderingRect@CWindow@UI@@EAEXXZ
	DD	FLAT:?OnCreateInstance@CImageBox@UI@@MAEXXZ
	DD	FLAT:?OnDestroyInstance@CImageBox@UI@@MAEXXZ
CONST	ENDS
;	COMDAT ??_7CImageBox@UI@@6B@
CONST	SEGMENT
??_7CImageBox@UI@@6B@ DD FLAT:??_R4CImageBox@UI@@6B@	; UI::CImageBox::`vftable'
	DD	FLAT:??_ECImageBox@UI@@UAEPAXI@Z
	DD	FLAT:?IsShow@CWindow@UI@@UAE_NXZ
	DD	FLAT:?OnRender@CImageBox@UI@@MAEXXZ
	DD	FLAT:?OnAfterRender@CWindow@UI@@UAEXXZ
	DD	FLAT:?OnUpdateRenderBox@CWindow@UI@@UAEXXZ
	DD	FLAT:?OnUpdate@CImageBox@UI@@MAEXXZ
	DD	FLAT:?OnUpdateLockedCursor@CWindow@UI@@UAEXHJ@Z
	DD	FLAT:?OnChangePosition@CImageBox@UI@@MAEXXZ
	DD	FLAT:?OnSetFocus@CWindow@UI@@UAEXXZ
	DD	FLAT:?OnKillFocus@CWindow@UI@@UAEXXZ
	DD	FLAT:?OnMouseDrag@CWindow@UI@@UAEXJJ@Z
	DD	FLAT:?OnMouseOverIn@CWindow@UI@@UAEXXZ
	DD	FLAT:?OnMouseOverOut@CWindow@UI@@UAEXXZ
	DD	FLAT:?OnMouseOver@CWindow@UI@@UAEXXZ
	DD	FLAT:?OnDrop@CWindow@UI@@UAEXXZ
	DD	FLAT:?OnTop@CWindow@UI@@UAEXXZ
	DD	FLAT:?OnIMEUpdate@CWindow@UI@@UAEXXZ
	DD	FLAT:?OnMoveWindow@CWindow@UI@@UAEXJJ@Z
	DD	FLAT:?OnIMETabEvent@CWindow@UI@@UAEHXZ
	DD	FLAT:?OnIMEReturnEvent@CWindow@UI@@UAEHXZ
	DD	FLAT:?OnIMEUpdateSelectionEvent@CWindow@UI@@UAEHXZ
	DD	FLAT:?OnIMEKeyDownEvent@CWindow@UI@@UAEHH@Z
	DD	FLAT:?OnIMEChangeCodePage@CWindow@UI@@UAEHXZ
	DD	FLAT:?OnIMEOpenCandidateListEvent@CWindow@UI@@UAEHXZ
	DD	FLAT:?OnIMECloseCandidateListEvent@CWindow@UI@@UAEHXZ
	DD	FLAT:?OnIMEOpenReadingWndEvent@CWindow@UI@@UAEHXZ
	DD	FLAT:?OnIMECloseReadingWndEvent@CWindow@UI@@UAEHXZ
	DD	FLAT:?OnMouseLeftButtonDown@CWindow@UI@@UAEHXZ
	DD	FLAT:?OnMouseLeftButtonUp@CWindow@UI@@UAEHXZ
	DD	FLAT:?OnMouseLeftButtonDoubleClick@CWindow@UI@@UAEHXZ
	DD	FLAT:?OnMouseRightButtonDown@CWindow@UI@@UAEHXZ
	DD	FLAT:?OnMouseRightButtonUp@CWindow@UI@@UAEHXZ
	DD	FLAT:?OnMouseRightButtonDoubleClick@CWindow@UI@@UAEHXZ
	DD	FLAT:?OnMouseMiddleButtonDown@CWindow@UI@@UAEHXZ
	DD	FLAT:?OnMouseMiddleButtonUp@CWindow@UI@@UAEHXZ
	DD	FLAT:?OnScrollEvent@CWindow@UI@@UAEHABH@Z
	DD	FLAT:?OnKeyDown@CWindow@UI@@UAEHH@Z
	DD	FLAT:?OnKeyUp@CWindow@UI@@UAEHH@Z
	DD	FLAT:?OnPressReturnKey@CWindow@UI@@UAEHXZ
	DD	FLAT:?OnPressEscapeKey@CWindow@UI@@UAEHXZ
	DD	FLAT:?OnPressExitKey@CWindow@UI@@UAEHXZ
	DD	FLAT:?SetColor@CWindow@UI@@UAEXK@Z
	DD	FLAT:?OnIsType@CImageBox@UI@@MAEHK@Z
	DD	FLAT:?IsWindow@CWindow@UI@@UAEHXZ
	DD	FLAT:?iSetRenderingRect@CWindow@UI@@UAEXHHHH@Z
	DD	FLAT:?SetRenderingRect@CWindow@UI@@UAEXMMMM@Z
	DD	FLAT:?GetRenderingWidth@CWindow@UI@@UAEHXZ
	DD	FLAT:?GetRenderingHeight@CWindow@UI@@UAEHXZ
	DD	FLAT:?OnSetRenderingRect@CWindow@UI@@EAEXXZ
	DD	FLAT:?OnCreateInstance@CImageBox@UI@@MAEXXZ
	DD	FLAT:?OnDestroyInstance@CImageBox@UI@@MAEXXZ
CONST	ENDS
;	COMDAT ??_7CNumberLine@UI@@6B@
CONST	SEGMENT
??_7CNumberLine@UI@@6B@ DD FLAT:??_R4CNumberLine@UI@@6B@ ; UI::CNumberLine::`vftable'
	DD	FLAT:??_ECNumberLine@UI@@UAEPAXI@Z
	DD	FLAT:?IsShow@CWindow@UI@@UAE_NXZ
	DD	FLAT:?OnRender@CNumberLine@UI@@MAEXXZ
	DD	FLAT:?OnAfterRender@CWindow@UI@@UAEXXZ
	DD	FLAT:?OnUpdateRenderBox@CWindow@UI@@UAEXXZ
	DD	FLAT:?OnUpdate@CWindow@UI@@UAEXXZ
	DD	FLAT:?OnUpdateLockedCursor@CWindow@UI@@UAEXHJ@Z
	DD	FLAT:?OnChangePosition@CNumberLine@UI@@MAEXXZ
	DD	FLAT:?OnSetFocus@CWindow@UI@@UAEXXZ
	DD	FLAT:?OnKillFocus@CWindow@UI@@UAEXXZ
	DD	FLAT:?OnMouseDrag@CWindow@UI@@UAEXJJ@Z
	DD	FLAT:?OnMouseOverIn@CWindow@UI@@UAEXXZ
	DD	FLAT:?OnMouseOverOut@CWindow@UI@@UAEXXZ
	DD	FLAT:?OnMouseOver@CWindow@UI@@UAEXXZ
	DD	FLAT:?OnDrop@CWindow@UI@@UAEXXZ
	DD	FLAT:?OnTop@CWindow@UI@@UAEXXZ
	DD	FLAT:?OnIMEUpdate@CWindow@UI@@UAEXXZ
	DD	FLAT:?OnMoveWindow@CWindow@UI@@UAEXJJ@Z
	DD	FLAT:?OnIMETabEvent@CWindow@UI@@UAEHXZ
	DD	FLAT:?OnIMEReturnEvent@CWindow@UI@@UAEHXZ
	DD	FLAT:?OnIMEUpdateSelectionEvent@CWindow@UI@@UAEHXZ
	DD	FLAT:?OnIMEKeyDownEvent@CWindow@UI@@UAEHH@Z
	DD	FLAT:?OnIMEChangeCodePage@CWindow@UI@@UAEHXZ
	DD	FLAT:?OnIMEOpenCandidateListEvent@CWindow@UI@@UAEHXZ
	DD	FLAT:?OnIMECloseCandidateListEvent@CWindow@UI@@UAEHXZ
	DD	FLAT:?OnIMEOpenReadingWndEvent@CWindow@UI@@UAEHXZ
	DD	FLAT:?OnIMECloseReadingWndEvent@CWindow@UI@@UAEHXZ
	DD	FLAT:?OnMouseLeftButtonDown@CWindow@UI@@UAEHXZ
	DD	FLAT:?OnMouseLeftButtonUp@CWindow@UI@@UAEHXZ
	DD	FLAT:?OnMouseLeftButtonDoubleClick@CWindow@UI@@UAEHXZ
	DD	FLAT:?OnMouseRightButtonDown@CWindow@UI@@UAEHXZ
	DD	FLAT:?OnMouseRightButtonUp@CWindow@UI@@UAEHXZ
	DD	FLAT:?OnMouseRightButtonDoubleClick@CWindow@UI@@UAEHXZ
	DD	FLAT:?OnMouseMiddleButtonDown@CWindow@UI@@UAEHXZ
	DD	FLAT:?OnMouseMiddleButtonUp@CWindow@UI@@UAEHXZ
	DD	FLAT:?OnScrollEvent@CWindow@UI@@UAEHABH@Z
	DD	FLAT:?OnKeyDown@CWindow@UI@@UAEHH@Z
	DD	FLAT:?OnKeyUp@CWindow@UI@@UAEHH@Z
	DD	FLAT:?OnPressReturnKey@CWindow@UI@@UAEHXZ
	DD	FLAT:?OnPressEscapeKey@CWindow@UI@@UAEHXZ
	DD	FLAT:?OnPressExitKey@CWindow@UI@@UAEHXZ
	DD	FLAT:?SetColor@CWindow@UI@@UAEXK@Z
	DD	FLAT:?OnIsType@CNumberLine@UI@@MAEHK@Z
	DD	FLAT:?IsWindow@CWindow@UI@@UAEHXZ
	DD	FLAT:?iSetRenderingRect@CWindow@UI@@UAEXHHHH@Z
	DD	FLAT:?SetRenderingRect@CWindow@UI@@UAEXMMMM@Z
	DD	FLAT:?GetRenderingWidth@CWindow@UI@@UAEHXZ
	DD	FLAT:?GetRenderingHeight@CWindow@UI@@UAEHXZ
	DD	FLAT:?OnSetRenderingRect@CWindow@UI@@EAEXXZ
CONST	ENDS
;	COMDAT ??_7CTextLine@UI@@6B@
CONST	SEGMENT
??_7CTextLine@UI@@6B@ DD FLAT:??_R4CTextLine@UI@@6B@	; UI::CTextLine::`vftable'
	DD	FLAT:??_ECTextLine@UI@@UAEPAXI@Z
	DD	FLAT:?IsShow@CTextLine@UI@@UAE_NXZ
	DD	FLAT:?OnRender@CTextLine@UI@@MAEXXZ
	DD	FLAT:?OnAfterRender@CWindow@UI@@UAEXXZ
	DD	FLAT:?OnUpdateRenderBox@CTextLine@UI@@MAEXXZ
	DD	FLAT:?OnUpdate@CTextLine@UI@@MAEXXZ
	DD	FLAT:?OnUpdateLockedCursor@CWindow@UI@@UAEXHJ@Z
	DD	FLAT:?OnChangePosition@CTextLine@UI@@MAEXXZ
	DD	FLAT:?OnSetFocus@CWindow@UI@@UAEXXZ
	DD	FLAT:?OnKillFocus@CWindow@UI@@UAEXXZ
	DD	FLAT:?OnMouseDrag@CWindow@UI@@UAEXJJ@Z
	DD	FLAT:?OnMouseOverIn@CWindow@UI@@UAEXXZ
	DD	FLAT:?OnMouseOverOut@CWindow@UI@@UAEXXZ
	DD	FLAT:?OnMouseOver@CWindow@UI@@UAEXXZ
	DD	FLAT:?OnDrop@CWindow@UI@@UAEXXZ
	DD	FLAT:?OnTop@CWindow@UI@@UAEXXZ
	DD	FLAT:?OnIMEUpdate@CWindow@UI@@UAEXXZ
	DD	FLAT:?OnMoveWindow@CWindow@UI@@UAEXJJ@Z
	DD	FLAT:?OnIMETabEvent@CWindow@UI@@UAEHXZ
	DD	FLAT:?OnIMEReturnEvent@CWindow@UI@@UAEHXZ
	DD	FLAT:?OnIMEUpdateSelectionEvent@CWindow@UI@@UAEHXZ
	DD	FLAT:?OnIMEKeyDownEvent@CWindow@UI@@UAEHH@Z
	DD	FLAT:?OnIMEChangeCodePage@CWindow@UI@@UAEHXZ
	DD	FLAT:?OnIMEOpenCandidateListEvent@CWindow@UI@@UAEHXZ
	DD	FLAT:?OnIMECloseCandidateListEvent@CWindow@UI@@UAEHXZ
	DD	FLAT:?OnIMEOpenReadingWndEvent@CWindow@UI@@UAEHXZ
	DD	FLAT:?OnIMECloseReadingWndEvent@CWindow@UI@@UAEHXZ
	DD	FLAT:?OnMouseLeftButtonDown@CWindow@UI@@UAEHXZ
	DD	FLAT:?OnMouseLeftButtonUp@CWindow@UI@@UAEHXZ
	DD	FLAT:?OnMouseLeftButtonDoubleClick@CWindow@UI@@UAEHXZ
	DD	FLAT:?OnMouseRightButtonDown@CWindow@UI@@UAEHXZ
	DD	FLAT:?OnMouseRightButtonUp@CWindow@UI@@UAEHXZ
	DD	FLAT:?OnMouseRightButtonDoubleClick@CWindow@UI@@UAEHXZ
	DD	FLAT:?OnMouseMiddleButtonDown@CWindow@UI@@UAEHXZ
	DD	FLAT:?OnMouseMiddleButtonUp@CWindow@UI@@UAEHXZ
	DD	FLAT:?OnScrollEvent@CWindow@UI@@UAEHABH@Z
	DD	FLAT:?OnKeyDown@CWindow@UI@@UAEHH@Z
	DD	FLAT:?OnKeyUp@CWindow@UI@@UAEHH@Z
	DD	FLAT:?OnPressReturnKey@CWindow@UI@@UAEHXZ
	DD	FLAT:?OnPressEscapeKey@CWindow@UI@@UAEHXZ
	DD	FLAT:?OnPressExitKey@CWindow@UI@@UAEHXZ
	DD	FLAT:?SetColor@CWindow@UI@@UAEXK@Z
	DD	FLAT:?OnIsType@CTextLine@UI@@MAEHK@Z
	DD	FLAT:?IsWindow@CWindow@UI@@UAEHXZ
	DD	FLAT:?iSetRenderingRect@CWindow@UI@@UAEXHHHH@Z
	DD	FLAT:?SetRenderingRect@CTextLine@UI@@UAEXMMMM@Z
	DD	FLAT:?GetRenderingWidth@CTextLine@UI@@UAEHXZ
	DD	FLAT:?GetRenderingHeight@CTextLine@UI@@UAEHXZ
	DD	FLAT:?OnSetRenderingRect@CTextLine@UI@@UAEXXZ
	DD	FLAT:?OnSetText@CTextLine@UI@@MAEXPBD@Z
CONST	ENDS
;	COMDAT ??_7CBar3D@UI@@6B@
CONST	SEGMENT
??_7CBar3D@UI@@6B@ DD FLAT:??_R4CBar3D@UI@@6B@		; UI::CBar3D::`vftable'
	DD	FLAT:??_ECBar3D@UI@@UAEPAXI@Z
	DD	FLAT:?IsShow@CWindow@UI@@UAE_NXZ
	DD	FLAT:?OnRender@CBar3D@UI@@MAEXXZ
	DD	FLAT:?OnAfterRender@CWindow@UI@@UAEXXZ
	DD	FLAT:?OnUpdateRenderBox@CWindow@UI@@UAEXXZ
	DD	FLAT:?OnUpdate@CWindow@UI@@UAEXXZ
	DD	FLAT:?OnUpdateLockedCursor@CWindow@UI@@UAEXHJ@Z
	DD	FLAT:?OnChangePosition@CWindow@UI@@UAEXXZ
	DD	FLAT:?OnSetFocus@CWindow@UI@@UAEXXZ
	DD	FLAT:?OnKillFocus@CWindow@UI@@UAEXXZ
	DD	FLAT:?OnMouseDrag@CWindow@UI@@UAEXJJ@Z
	DD	FLAT:?OnMouseOverIn@CWindow@UI@@UAEXXZ
	DD	FLAT:?OnMouseOverOut@CWindow@UI@@UAEXXZ
	DD	FLAT:?OnMouseOver@CWindow@UI@@UAEXXZ
	DD	FLAT:?OnDrop@CWindow@UI@@UAEXXZ
	DD	FLAT:?OnTop@CWindow@UI@@UAEXXZ
	DD	FLAT:?OnIMEUpdate@CWindow@UI@@UAEXXZ
	DD	FLAT:?OnMoveWindow@CWindow@UI@@UAEXJJ@Z
	DD	FLAT:?OnIMETabEvent@CWindow@UI@@UAEHXZ
	DD	FLAT:?OnIMEReturnEvent@CWindow@UI@@UAEHXZ
	DD	FLAT:?OnIMEUpdateSelectionEvent@CWindow@UI@@UAEHXZ
	DD	FLAT:?OnIMEKeyDownEvent@CWindow@UI@@UAEHH@Z
	DD	FLAT:?OnIMEChangeCodePage@CWindow@UI@@UAEHXZ
	DD	FLAT:?OnIMEOpenCandidateListEvent@CWindow@UI@@UAEHXZ
	DD	FLAT:?OnIMECloseCandidateListEvent@CWindow@UI@@UAEHXZ
	DD	FLAT:?OnIMEOpenReadingWndEvent@CWindow@UI@@UAEHXZ
	DD	FLAT:?OnIMECloseReadingWndEvent@CWindow@UI@@UAEHXZ
	DD	FLAT:?OnMouseLeftButtonDown@CWindow@UI@@UAEHXZ
	DD	FLAT:?OnMouseLeftButtonUp@CWindow@UI@@UAEHXZ
	DD	FLAT:?OnMouseLeftButtonDoubleClick@CWindow@UI@@UAEHXZ
	DD	FLAT:?OnMouseRightButtonDown@CWindow@UI@@UAEHXZ
	DD	FLAT:?OnMouseRightButtonUp@CWindow@UI@@UAEHXZ
	DD	FLAT:?OnMouseRightButtonDoubleClick@CWindow@UI@@UAEHXZ
	DD	FLAT:?OnMouseMiddleButtonDown@CWindow@UI@@UAEHXZ
	DD	FLAT:?OnMouseMiddleButtonUp@CWindow@UI@@UAEHXZ
	DD	FLAT:?OnScrollEvent@CWindow@UI@@UAEHABH@Z
	DD	FLAT:?OnKeyDown@CWindow@UI@@UAEHH@Z
	DD	FLAT:?OnKeyUp@CWindow@UI@@UAEHH@Z
	DD	FLAT:?OnPressReturnKey@CWindow@UI@@UAEHXZ
	DD	FLAT:?OnPressEscapeKey@CWindow@UI@@UAEHXZ
	DD	FLAT:?OnPressExitKey@CWindow@UI@@UAEHXZ
	DD	FLAT:?SetColor@CWindow@UI@@UAEXK@Z
	DD	FLAT:?OnIsType@CWindow@UI@@UAEHK@Z
	DD	FLAT:?IsWindow@CWindow@UI@@UAEHXZ
	DD	FLAT:?iSetRenderingRect@CWindow@UI@@UAEXHHHH@Z
	DD	FLAT:?SetRenderingRect@CWindow@UI@@UAEXMMMM@Z
	DD	FLAT:?GetRenderingWidth@CWindow@UI@@UAEHXZ
	DD	FLAT:?GetRenderingHeight@CWindow@UI@@UAEHXZ
	DD	FLAT:?OnSetRenderingRect@CWindow@UI@@EAEXXZ
CONST	ENDS
;	COMDAT ??_7CLine@UI@@6B@
CONST	SEGMENT
??_7CLine@UI@@6B@ DD FLAT:??_R4CLine@UI@@6B@		; UI::CLine::`vftable'
	DD	FLAT:??_ECLine@UI@@UAEPAXI@Z
	DD	FLAT:?IsShow@CWindow@UI@@UAE_NXZ
	DD	FLAT:?OnRender@CLine@UI@@MAEXXZ
	DD	FLAT:?OnAfterRender@CWindow@UI@@UAEXXZ
	DD	FLAT:?OnUpdateRenderBox@CWindow@UI@@UAEXXZ
	DD	FLAT:?OnUpdate@CWindow@UI@@UAEXXZ
	DD	FLAT:?OnUpdateLockedCursor@CWindow@UI@@UAEXHJ@Z
	DD	FLAT:?OnChangePosition@CWindow@UI@@UAEXXZ
	DD	FLAT:?OnSetFocus@CWindow@UI@@UAEXXZ
	DD	FLAT:?OnKillFocus@CWindow@UI@@UAEXXZ
	DD	FLAT:?OnMouseDrag@CWindow@UI@@UAEXJJ@Z
	DD	FLAT:?OnMouseOverIn@CWindow@UI@@UAEXXZ
	DD	FLAT:?OnMouseOverOut@CWindow@UI@@UAEXXZ
	DD	FLAT:?OnMouseOver@CWindow@UI@@UAEXXZ
	DD	FLAT:?OnDrop@CWindow@UI@@UAEXXZ
	DD	FLAT:?OnTop@CWindow@UI@@UAEXXZ
	DD	FLAT:?OnIMEUpdate@CWindow@UI@@UAEXXZ
	DD	FLAT:?OnMoveWindow@CWindow@UI@@UAEXJJ@Z
	DD	FLAT:?OnIMETabEvent@CWindow@UI@@UAEHXZ
	DD	FLAT:?OnIMEReturnEvent@CWindow@UI@@UAEHXZ
	DD	FLAT:?OnIMEUpdateSelectionEvent@CWindow@UI@@UAEHXZ
	DD	FLAT:?OnIMEKeyDownEvent@CWindow@UI@@UAEHH@Z
	DD	FLAT:?OnIMEChangeCodePage@CWindow@UI@@UAEHXZ
	DD	FLAT:?OnIMEOpenCandidateListEvent@CWindow@UI@@UAEHXZ
	DD	FLAT:?OnIMECloseCandidateListEvent@CWindow@UI@@UAEHXZ
	DD	FLAT:?OnIMEOpenReadingWndEvent@CWindow@UI@@UAEHXZ
	DD	FLAT:?OnIMECloseReadingWndEvent@CWindow@UI@@UAEHXZ
	DD	FLAT:?OnMouseLeftButtonDown@CWindow@UI@@UAEHXZ
	DD	FLAT:?OnMouseLeftButtonUp@CWindow@UI@@UAEHXZ
	DD	FLAT:?OnMouseLeftButtonDoubleClick@CWindow@UI@@UAEHXZ
	DD	FLAT:?OnMouseRightButtonDown@CWindow@UI@@UAEHXZ
	DD	FLAT:?OnMouseRightButtonUp@CWindow@UI@@UAEHXZ
	DD	FLAT:?OnMouseRightButtonDoubleClick@CWindow@UI@@UAEHXZ
	DD	FLAT:?OnMouseMiddleButtonDown@CWindow@UI@@UAEHXZ
	DD	FLAT:?OnMouseMiddleButtonUp@CWindow@UI@@UAEHXZ
	DD	FLAT:?OnScrollEvent@CWindow@UI@@UAEHABH@Z
	DD	FLAT:?OnKeyDown@CWindow@UI@@UAEHH@Z
	DD	FLAT:?OnKeyUp@CWindow@UI@@UAEHH@Z
	DD	FLAT:?OnPressReturnKey@CWindow@UI@@UAEHXZ
	DD	FLAT:?OnPressEscapeKey@CWindow@UI@@UAEHXZ
	DD	FLAT:?OnPressExitKey@CWindow@UI@@UAEHXZ
	DD	FLAT:?SetColor@CLine@UI@@UAEXK@Z
	DD	FLAT:?OnIsType@CWindow@UI@@UAEHK@Z
	DD	FLAT:?IsWindow@CWindow@UI@@UAEHXZ
	DD	FLAT:?iSetRenderingRect@CWindow@UI@@UAEXHHHH@Z
	DD	FLAT:?SetRenderingRect@CWindow@UI@@UAEXMMMM@Z
	DD	FLAT:?GetRenderingWidth@CWindow@UI@@UAEHXZ
	DD	FLAT:?GetRenderingHeight@CWindow@UI@@UAEHXZ
	DD	FLAT:?OnSetRenderingRect@CWindow@UI@@EAEXXZ
CONST	ENDS
;	COMDAT ??_7CBar@UI@@6B@
CONST	SEGMENT
??_7CBar@UI@@6B@ DD FLAT:??_R4CBar@UI@@6B@		; UI::CBar::`vftable'
	DD	FLAT:??_ECBar@UI@@UAEPAXI@Z
	DD	FLAT:?IsShow@CWindow@UI@@UAE_NXZ
	DD	FLAT:?OnRender@CBar@UI@@MAEXXZ
	DD	FLAT:?OnAfterRender@CWindow@UI@@UAEXXZ
	DD	FLAT:?OnUpdateRenderBox@CWindow@UI@@UAEXXZ
	DD	FLAT:?OnUpdate@CWindow@UI@@UAEXXZ
	DD	FLAT:?OnUpdateLockedCursor@CWindow@UI@@UAEXHJ@Z
	DD	FLAT:?OnChangePosition@CWindow@UI@@UAEXXZ
	DD	FLAT:?OnSetFocus@CWindow@UI@@UAEXXZ
	DD	FLAT:?OnKillFocus@CWindow@UI@@UAEXXZ
	DD	FLAT:?OnMouseDrag@CWindow@UI@@UAEXJJ@Z
	DD	FLAT:?OnMouseOverIn@CWindow@UI@@UAEXXZ
	DD	FLAT:?OnMouseOverOut@CWindow@UI@@UAEXXZ
	DD	FLAT:?OnMouseOver@CWindow@UI@@UAEXXZ
	DD	FLAT:?OnDrop@CWindow@UI@@UAEXXZ
	DD	FLAT:?OnTop@CWindow@UI@@UAEXXZ
	DD	FLAT:?OnIMEUpdate@CWindow@UI@@UAEXXZ
	DD	FLAT:?OnMoveWindow@CWindow@UI@@UAEXJJ@Z
	DD	FLAT:?OnIMETabEvent@CWindow@UI@@UAEHXZ
	DD	FLAT:?OnIMEReturnEvent@CWindow@UI@@UAEHXZ
	DD	FLAT:?OnIMEUpdateSelectionEvent@CWindow@UI@@UAEHXZ
	DD	FLAT:?OnIMEKeyDownEvent@CWindow@UI@@UAEHH@Z
	DD	FLAT:?OnIMEChangeCodePage@CWindow@UI@@UAEHXZ
	DD	FLAT:?OnIMEOpenCandidateListEvent@CWindow@UI@@UAEHXZ
	DD	FLAT:?OnIMECloseCandidateListEvent@CWindow@UI@@UAEHXZ
	DD	FLAT:?OnIMEOpenReadingWndEvent@CWindow@UI@@UAEHXZ
	DD	FLAT:?OnIMECloseReadingWndEvent@CWindow@UI@@UAEHXZ
	DD	FLAT:?OnMouseLeftButtonDown@CWindow@UI@@UAEHXZ
	DD	FLAT:?OnMouseLeftButtonUp@CWindow@UI@@UAEHXZ
	DD	FLAT:?OnMouseLeftButtonDoubleClick@CWindow@UI@@UAEHXZ
	DD	FLAT:?OnMouseRightButtonDown@CWindow@UI@@UAEHXZ
	DD	FLAT:?OnMouseRightButtonUp@CWindow@UI@@UAEHXZ
	DD	FLAT:?OnMouseRightButtonDoubleClick@CWindow@UI@@UAEHXZ
	DD	FLAT:?OnMouseMiddleButtonDown@CWindow@UI@@UAEHXZ
	DD	FLAT:?OnMouseMiddleButtonUp@CWindow@UI@@UAEHXZ
	DD	FLAT:?OnScrollEvent@CWindow@UI@@UAEHABH@Z
	DD	FLAT:?OnKeyDown@CWindow@UI@@UAEHH@Z
	DD	FLAT:?OnKeyUp@CWindow@UI@@UAEHH@Z
	DD	FLAT:?OnPressReturnKey@CWindow@UI@@UAEHXZ
	DD	FLAT:?OnPressEscapeKey@CWindow@UI@@UAEHXZ
	DD	FLAT:?OnPressExitKey@CWindow@UI@@UAEHXZ
	DD	FLAT:?SetColor@CBar@UI@@UAEXK@Z
	DD	FLAT:?OnIsType@CWindow@UI@@UAEHK@Z
	DD	FLAT:?IsWindow@CWindow@UI@@UAEHXZ
	DD	FLAT:?iSetRenderingRect@CWindow@UI@@UAEXHHHH@Z
	DD	FLAT:?SetRenderingRect@CWindow@UI@@UAEXMMMM@Z
	DD	FLAT:?GetRenderingWidth@CWindow@UI@@UAEHXZ
	DD	FLAT:?GetRenderingHeight@CWindow@UI@@UAEHXZ
	DD	FLAT:?OnSetRenderingRect@CWindow@UI@@EAEXXZ
CONST	ENDS
;	COMDAT ??_7CBox@UI@@6B@
CONST	SEGMENT
??_7CBox@UI@@6B@ DD FLAT:??_R4CBox@UI@@6B@		; UI::CBox::`vftable'
	DD	FLAT:??_ECBox@UI@@UAEPAXI@Z
	DD	FLAT:?IsShow@CWindow@UI@@UAE_NXZ
	DD	FLAT:?OnRender@CBox@UI@@MAEXXZ
	DD	FLAT:?OnAfterRender@CWindow@UI@@UAEXXZ
	DD	FLAT:?OnUpdateRenderBox@CWindow@UI@@UAEXXZ
	DD	FLAT:?OnUpdate@CWindow@UI@@UAEXXZ
	DD	FLAT:?OnUpdateLockedCursor@CWindow@UI@@UAEXHJ@Z
	DD	FLAT:?OnChangePosition@CWindow@UI@@UAEXXZ
	DD	FLAT:?OnSetFocus@CWindow@UI@@UAEXXZ
	DD	FLAT:?OnKillFocus@CWindow@UI@@UAEXXZ
	DD	FLAT:?OnMouseDrag@CWindow@UI@@UAEXJJ@Z
	DD	FLAT:?OnMouseOverIn@CWindow@UI@@UAEXXZ
	DD	FLAT:?OnMouseOverOut@CWindow@UI@@UAEXXZ
	DD	FLAT:?OnMouseOver@CWindow@UI@@UAEXXZ
	DD	FLAT:?OnDrop@CWindow@UI@@UAEXXZ
	DD	FLAT:?OnTop@CWindow@UI@@UAEXXZ
	DD	FLAT:?OnIMEUpdate@CWindow@UI@@UAEXXZ
	DD	FLAT:?OnMoveWindow@CWindow@UI@@UAEXJJ@Z
	DD	FLAT:?OnIMETabEvent@CWindow@UI@@UAEHXZ
	DD	FLAT:?OnIMEReturnEvent@CWindow@UI@@UAEHXZ
	DD	FLAT:?OnIMEUpdateSelectionEvent@CWindow@UI@@UAEHXZ
	DD	FLAT:?OnIMEKeyDownEvent@CWindow@UI@@UAEHH@Z
	DD	FLAT:?OnIMEChangeCodePage@CWindow@UI@@UAEHXZ
	DD	FLAT:?OnIMEOpenCandidateListEvent@CWindow@UI@@UAEHXZ
	DD	FLAT:?OnIMECloseCandidateListEvent@CWindow@UI@@UAEHXZ
	DD	FLAT:?OnIMEOpenReadingWndEvent@CWindow@UI@@UAEHXZ
	DD	FLAT:?OnIMECloseReadingWndEvent@CWindow@UI@@UAEHXZ
	DD	FLAT:?OnMouseLeftButtonDown@CWindow@UI@@UAEHXZ
	DD	FLAT:?OnMouseLeftButtonUp@CWindow@UI@@UAEHXZ
	DD	FLAT:?OnMouseLeftButtonDoubleClick@CWindow@UI@@UAEHXZ
	DD	FLAT:?OnMouseRightButtonDown@CWindow@UI@@UAEHXZ
	DD	FLAT:?OnMouseRightButtonUp@CWindow@UI@@UAEHXZ
	DD	FLAT:?OnMouseRightButtonDoubleClick@CWindow@UI@@UAEHXZ
	DD	FLAT:?OnMouseMiddleButtonDown@CWindow@UI@@UAEHXZ
	DD	FLAT:?OnMouseMiddleButtonUp@CWindow@UI@@UAEHXZ
	DD	FLAT:?OnScrollEvent@CWindow@UI@@UAEHABH@Z
	DD	FLAT:?OnKeyDown@CWindow@UI@@UAEHH@Z
	DD	FLAT:?OnKeyUp@CWindow@UI@@UAEHH@Z
	DD	FLAT:?OnPressReturnKey@CWindow@UI@@UAEHXZ
	DD	FLAT:?OnPressEscapeKey@CWindow@UI@@UAEHXZ
	DD	FLAT:?OnPressExitKey@CWindow@UI@@UAEHXZ
	DD	FLAT:?SetColor@CBox@UI@@UAEXK@Z
	DD	FLAT:?OnIsType@CWindow@UI@@UAEHK@Z
	DD	FLAT:?IsWindow@CWindow@UI@@UAEHXZ
	DD	FLAT:?iSetRenderingRect@CWindow@UI@@UAEXHHHH@Z
	DD	FLAT:?SetRenderingRect@CWindow@UI@@UAEXMMMM@Z
	DD	FLAT:?GetRenderingWidth@CWindow@UI@@UAEHXZ
	DD	FLAT:?GetRenderingHeight@CWindow@UI@@UAEHXZ
	DD	FLAT:?OnSetRenderingRect@CWindow@UI@@EAEXXZ
CONST	ENDS
;	COMDAT ??_7CUiWikiRenderTarget@UI@@6B@
CONST	SEGMENT
??_7CUiWikiRenderTarget@UI@@6B@ DD FLAT:??_R4CUiWikiRenderTarget@UI@@6B@ ; UI::CUiWikiRenderTarget::`vftable'
	DD	FLAT:??_ECUiWikiRenderTarget@UI@@UAEPAXI@Z
	DD	FLAT:?IsShow@CWindow@UI@@UAE_NXZ
	DD	FLAT:?OnRender@CUiWikiRenderTarget@UI@@MAEXXZ
	DD	FLAT:?OnAfterRender@CWindow@UI@@UAEXXZ
	DD	FLAT:?OnUpdateRenderBox@CUiWikiRenderTarget@UI@@UAEXXZ
	DD	FLAT:?OnUpdate@CWindow@UI@@UAEXXZ
	DD	FLAT:?OnUpdateLockedCursor@CWindow@UI@@UAEXHJ@Z
	DD	FLAT:?OnChangePosition@CWindow@UI@@UAEXXZ
	DD	FLAT:?OnSetFocus@CWindow@UI@@UAEXXZ
	DD	FLAT:?OnKillFocus@CWindow@UI@@UAEXXZ
	DD	FLAT:?OnMouseDrag@CWindow@UI@@UAEXJJ@Z
	DD	FLAT:?OnMouseOverIn@CWindow@UI@@UAEXXZ
	DD	FLAT:?OnMouseOverOut@CWindow@UI@@UAEXXZ
	DD	FLAT:?OnMouseOver@CWindow@UI@@UAEXXZ
	DD	FLAT:?OnDrop@CWindow@UI@@UAEXXZ
	DD	FLAT:?OnTop@CWindow@UI@@UAEXXZ
	DD	FLAT:?OnIMEUpdate@CWindow@UI@@UAEXXZ
	DD	FLAT:?OnMoveWindow@CWindow@UI@@UAEXJJ@Z
	DD	FLAT:?OnIMETabEvent@CWindow@UI@@UAEHXZ
	DD	FLAT:?OnIMEReturnEvent@CWindow@UI@@UAEHXZ
	DD	FLAT:?OnIMEUpdateSelectionEvent@CWindow@UI@@UAEHXZ
	DD	FLAT:?OnIMEKeyDownEvent@CWindow@UI@@UAEHH@Z
	DD	FLAT:?OnIMEChangeCodePage@CWindow@UI@@UAEHXZ
	DD	FLAT:?OnIMEOpenCandidateListEvent@CWindow@UI@@UAEHXZ
	DD	FLAT:?OnIMECloseCandidateListEvent@CWindow@UI@@UAEHXZ
	DD	FLAT:?OnIMEOpenReadingWndEvent@CWindow@UI@@UAEHXZ
	DD	FLAT:?OnIMECloseReadingWndEvent@CWindow@UI@@UAEHXZ
	DD	FLAT:?OnMouseLeftButtonDown@CWindow@UI@@UAEHXZ
	DD	FLAT:?OnMouseLeftButtonUp@CWindow@UI@@UAEHXZ
	DD	FLAT:?OnMouseLeftButtonDoubleClick@CWindow@UI@@UAEHXZ
	DD	FLAT:?OnMouseRightButtonDown@CWindow@UI@@UAEHXZ
	DD	FLAT:?OnMouseRightButtonUp@CWindow@UI@@UAEHXZ
	DD	FLAT:?OnMouseRightButtonDoubleClick@CWindow@UI@@UAEHXZ
	DD	FLAT:?OnMouseMiddleButtonDown@CWindow@UI@@UAEHXZ
	DD	FLAT:?OnMouseMiddleButtonUp@CWindow@UI@@UAEHXZ
	DD	FLAT:?OnScrollEvent@CWindow@UI@@UAEHABH@Z
	DD	FLAT:?OnKeyDown@CWindow@UI@@UAEHH@Z
	DD	FLAT:?OnKeyUp@CWindow@UI@@UAEHH@Z
	DD	FLAT:?OnPressReturnKey@CWindow@UI@@UAEHXZ
	DD	FLAT:?OnPressEscapeKey@CWindow@UI@@UAEHXZ
	DD	FLAT:?OnPressExitKey@CWindow@UI@@UAEHXZ
	DD	FLAT:?SetColor@CWindow@UI@@UAEXK@Z
	DD	FLAT:?OnIsType@CWindow@UI@@UAEHK@Z
	DD	FLAT:?IsWindow@CWindow@UI@@UAEHXZ
	DD	FLAT:?iSetRenderingRect@CWindow@UI@@UAEXHHHH@Z
	DD	FLAT:?SetRenderingRect@CWindow@UI@@UAEXMMMM@Z
	DD	FLAT:?GetRenderingWidth@CWindow@UI@@UAEHXZ
	DD	FLAT:?GetRenderingHeight@CWindow@UI@@UAEHXZ
	DD	FLAT:?OnSetRenderingRect@CWindow@UI@@EAEXXZ
CONST	ENDS
;	COMDAT ??_7CWindow@UI@@6B@
CONST	SEGMENT
??_7CWindow@UI@@6B@ DD FLAT:??_R4CWindow@UI@@6B@	; UI::CWindow::`vftable'
	DD	FLAT:??_ECWindow@UI@@UAEPAXI@Z
	DD	FLAT:?IsShow@CWindow@UI@@UAE_NXZ
	DD	FLAT:?OnRender@CWindow@UI@@UAEXXZ
	DD	FLAT:?OnAfterRender@CWindow@UI@@UAEXXZ
	DD	FLAT:?OnUpdateRenderBox@CWindow@UI@@UAEXXZ
	DD	FLAT:?OnUpdate@CWindow@UI@@UAEXXZ
	DD	FLAT:?OnUpdateLockedCursor@CWindow@UI@@UAEXHJ@Z
	DD	FLAT:?OnChangePosition@CWindow@UI@@UAEXXZ
	DD	FLAT:?OnSetFocus@CWindow@UI@@UAEXXZ
	DD	FLAT:?OnKillFocus@CWindow@UI@@UAEXXZ
	DD	FLAT:?OnMouseDrag@CWindow@UI@@UAEXJJ@Z
	DD	FLAT:?OnMouseOverIn@CWindow@UI@@UAEXXZ
	DD	FLAT:?OnMouseOverOut@CWindow@UI@@UAEXXZ
	DD	FLAT:?OnMouseOver@CWindow@UI@@UAEXXZ
	DD	FLAT:?OnDrop@CWindow@UI@@UAEXXZ
	DD	FLAT:?OnTop@CWindow@UI@@UAEXXZ
	DD	FLAT:?OnIMEUpdate@CWindow@UI@@UAEXXZ
	DD	FLAT:?OnMoveWindow@CWindow@UI@@UAEXJJ@Z
	DD	FLAT:?OnIMETabEvent@CWindow@UI@@UAEHXZ
	DD	FLAT:?OnIMEReturnEvent@CWindow@UI@@UAEHXZ
	DD	FLAT:?OnIMEUpdateSelectionEvent@CWindow@UI@@UAEHXZ
	DD	FLAT:?OnIMEKeyDownEvent@CWindow@UI@@UAEHH@Z
	DD	FLAT:?OnIMEChangeCodePage@CWindow@UI@@UAEHXZ
	DD	FLAT:?OnIMEOpenCandidateListEvent@CWindow@UI@@UAEHXZ
	DD	FLAT:?OnIMECloseCandidateListEvent@CWindow@UI@@UAEHXZ
	DD	FLAT:?OnIMEOpenReadingWndEvent@CWindow@UI@@UAEHXZ
	DD	FLAT:?OnIMECloseReadingWndEvent@CWindow@UI@@UAEHXZ
	DD	FLAT:?OnMouseLeftButtonDown@CWindow@UI@@UAEHXZ
	DD	FLAT:?OnMouseLeftButtonUp@CWindow@UI@@UAEHXZ
	DD	FLAT:?OnMouseLeftButtonDoubleClick@CWindow@UI@@UAEHXZ
	DD	FLAT:?OnMouseRightButtonDown@CWindow@UI@@UAEHXZ
	DD	FLAT:?OnMouseRightButtonUp@CWindow@UI@@UAEHXZ
	DD	FLAT:?OnMouseRightButtonDoubleClick@CWindow@UI@@UAEHXZ
	DD	FLAT:?OnMouseMiddleButtonDown@CWindow@UI@@UAEHXZ
	DD	FLAT:?OnMouseMiddleButtonUp@CWindow@UI@@UAEHXZ
	DD	FLAT:?OnScrollEvent@CWindow@UI@@UAEHABH@Z
	DD	FLAT:?OnKeyDown@CWindow@UI@@UAEHH@Z
	DD	FLAT:?OnKeyUp@CWindow@UI@@UAEHH@Z
	DD	FLAT:?OnPressReturnKey@CWindow@UI@@UAEHXZ
	DD	FLAT:?OnPressEscapeKey@CWindow@UI@@UAEHXZ
	DD	FLAT:?OnPressExitKey@CWindow@UI@@UAEHXZ
	DD	FLAT:?SetColor@CWindow@UI@@UAEXK@Z
	DD	FLAT:?OnIsType@CWindow@UI@@UAEHK@Z
	DD	FLAT:?IsWindow@CWindow@UI@@UAEHXZ
	DD	FLAT:?iSetRenderingRect@CWindow@UI@@UAEXHHHH@Z
	DD	FLAT:?SetRenderingRect@CWindow@UI@@UAEXMMMM@Z
	DD	FLAT:?GetRenderingWidth@CWindow@UI@@UAEHXZ
	DD	FLAT:?GetRenderingHeight@CWindow@UI@@UAEHXZ
	DD	FLAT:?OnSetRenderingRect@CWindow@UI@@EAEXXZ
CONST	ENDS
;	COMDAT ?cubicOut@easing@tweeny@@2UcubicOutEasing@12@B
CONST	SEGMENT
?cubicOut@easing@tweeny@@2UcubicOutEasing@12@B	ORG $+1	; tweeny::easing::cubicOut
CONST	ENDS
;	COMDAT ?def@easing@tweeny@@2UdefaultEasing@12@B
CONST	SEGMENT
?def@easing@tweeny@@2UdefaultEasing@12@B	ORG $+1	; tweeny::easing::def
CONST	ENDS
;	COMDAT ??_7bad_optional_access@experimental@std@@6B@
CONST	SEGMENT
??_7bad_optional_access@experimental@std@@6B@ DD FLAT:??_R4bad_optional_access@experimental@std@@6B@ ; std::experimental::bad_optional_access::`vftable'
	DD	FLAT:??_Ebad_optional_access@experimental@std@@UAEPAXI@Z
	DD	FLAT:?what@exception@std@@UBEPBDXZ
CONST	ENDS
;	COMDAT ??_R1A@?0A@EA@logic_error@std@@8
rdata$r	SEGMENT
??_R1A@?0A@EA@logic_error@std@@8 DD FLAT:??_R0?AVlogic_error@std@@@8 ; std::logic_error::`RTTI Base Class Descriptor at (0,-1,0,64)'
	DD	01H
	DD	00H
	DD	0ffffffffH
	DD	00H
	DD	040H
	DD	FLAT:??_R3logic_error@std@@8
rdata$r	ENDS
;	COMDAT ??_R2logic_error@std@@8
rdata$r	SEGMENT
??_R2logic_error@std@@8 DD FLAT:??_R1A@?0A@EA@logic_error@std@@8 ; std::logic_error::`RTTI Base Class Array'
	DD	FLAT:??_R1A@?0A@EA@exception@std@@8
rdata$r	ENDS
;	COMDAT ??_R3logic_error@std@@8
rdata$r	SEGMENT
??_R3logic_error@std@@8 DD 00H				; std::logic_error::`RTTI Class Hierarchy Descriptor'
	DD	00H
	DD	02H
	DD	FLAT:??_R2logic_error@std@@8
rdata$r	ENDS
;	COMDAT ??_R0?AVlogic_error@std@@@8
data$r	SEGMENT
??_R0?AVlogic_error@std@@@8 DD FLAT:??_7type_info@@6B@	; std::logic_error `RTTI Type Descriptor'
	DD	00H
	DB	'.?AVlogic_error@std@@', 00H
data$r	ENDS
;	COMDAT ??_R4logic_error@std@@6B@
rdata$r	SEGMENT
??_R4logic_error@std@@6B@ DD 00H			; std::logic_error::`RTTI Complete Object Locator'
	DD	00H
	DD	00H
	DD	FLAT:??_R0?AVlogic_error@std@@@8
	DD	FLAT:??_R3logic_error@std@@8
rdata$r	ENDS
;	COMDAT ??_R1A@?0A@EA@bad_array_new_length@std@@8
rdata$r	SEGMENT
??_R1A@?0A@EA@bad_array_new_length@std@@8 DD FLAT:??_R0?AVbad_array_new_length@std@@@8 ; std::bad_array_new_length::`RTTI Base Class Descriptor at (0,-1,0,64)'
	DD	02H
	DD	00H
	DD	0ffffffffH
	DD	00H
	DD	040H
	DD	FLAT:??_R3bad_array_new_length@std@@8
rdata$r	ENDS
;	COMDAT ??_R2bad_array_new_length@std@@8
rdata$r	SEGMENT
??_R2bad_array_new_length@std@@8 DD FLAT:??_R1A@?0A@EA@bad_array_new_length@std@@8 ; std::bad_array_new_length::`RTTI Base Class Array'
	DD	FLAT:??_R1A@?0A@EA@bad_alloc@std@@8
	DD	FLAT:??_R1A@?0A@EA@exception@std@@8
rdata$r	ENDS
;	COMDAT ??_R3bad_array_new_length@std@@8
rdata$r	SEGMENT
??_R3bad_array_new_length@std@@8 DD 00H			; std::bad_array_new_length::`RTTI Class Hierarchy Descriptor'
	DD	00H
	DD	03H
	DD	FLAT:??_R2bad_array_new_length@std@@8
rdata$r	ENDS
;	COMDAT ??_R4bad_array_new_length@std@@6B@
rdata$r	SEGMENT
??_R4bad_array_new_length@std@@6B@ DD 00H		; std::bad_array_new_length::`RTTI Complete Object Locator'
	DD	00H
	DD	00H
	DD	FLAT:??_R0?AVbad_array_new_length@std@@@8
	DD	FLAT:??_R3bad_array_new_length@std@@8
rdata$r	ENDS
;	COMDAT ??_R1A@?0A@EA@bad_alloc@std@@8
rdata$r	SEGMENT
??_R1A@?0A@EA@bad_alloc@std@@8 DD FLAT:??_R0?AVbad_alloc@std@@@8 ; std::bad_alloc::`RTTI Base Class Descriptor at (0,-1,0,64)'
	DD	01H
	DD	00H
	DD	0ffffffffH
	DD	00H
	DD	040H
	DD	FLAT:??_R3bad_alloc@std@@8
rdata$r	ENDS
;	COMDAT ??_R2bad_alloc@std@@8
rdata$r	SEGMENT
??_R2bad_alloc@std@@8 DD FLAT:??_R1A@?0A@EA@bad_alloc@std@@8 ; std::bad_alloc::`RTTI Base Class Array'
	DD	FLAT:??_R1A@?0A@EA@exception@std@@8
rdata$r	ENDS
;	COMDAT ??_R3bad_alloc@std@@8
rdata$r	SEGMENT
??_R3bad_alloc@std@@8 DD 00H				; std::bad_alloc::`RTTI Class Hierarchy Descriptor'
	DD	00H
	DD	02H
	DD	FLAT:??_R2bad_alloc@std@@8
rdata$r	ENDS
;	COMDAT ??_R4bad_alloc@std@@6B@
rdata$r	SEGMENT
??_R4bad_alloc@std@@6B@ DD 00H				; std::bad_alloc::`RTTI Complete Object Locator'
	DD	00H
	DD	00H
	DD	FLAT:??_R0?AVbad_alloc@std@@@8
	DD	FLAT:??_R3bad_alloc@std@@8
rdata$r	ENDS
;	COMDAT ??_R1A@?0A@EA@exception@std@@8
rdata$r	SEGMENT
??_R1A@?0A@EA@exception@std@@8 DD FLAT:??_R0?AVexception@std@@@8 ; std::exception::`RTTI Base Class Descriptor at (0,-1,0,64)'
	DD	00H
	DD	00H
	DD	0ffffffffH
	DD	00H
	DD	040H
	DD	FLAT:??_R3exception@std@@8
rdata$r	ENDS
;	COMDAT ??_R2exception@std@@8
rdata$r	SEGMENT
??_R2exception@std@@8 DD FLAT:??_R1A@?0A@EA@exception@std@@8 ; std::exception::`RTTI Base Class Array'
rdata$r	ENDS
;	COMDAT ??_R3exception@std@@8
rdata$r	SEGMENT
??_R3exception@std@@8 DD 00H				; std::exception::`RTTI Class Hierarchy Descriptor'
	DD	00H
	DD	01H
	DD	FLAT:??_R2exception@std@@8
rdata$r	ENDS
;	COMDAT ??_R4exception@std@@6B@
rdata$r	SEGMENT
??_R4exception@std@@6B@ DD 00H				; std::exception::`RTTI Complete Object Locator'
	DD	00H
	DD	00H
	DD	FLAT:??_R0?AVexception@std@@@8
	DD	FLAT:??_R3exception@std@@8
rdata$r	ENDS
;	COMDAT ??_C@_0BA@FOIKENOD@vector?5too?5long@
CONST	SEGMENT
??_C@_0BA@FOIKENOD@vector?5too?5long@ DB 'vector too long', 00H ; `string'
CONST	ENDS
;	COMDAT ??_C@_00CNPNBAHC@@
CONST	SEGMENT
??_C@_00CNPNBAHC@@ DB 00H				; `string'
CONST	ENDS
;	COMDAT ??_7logic_error@std@@6B@
CONST	SEGMENT
??_7logic_error@std@@6B@ DD FLAT:??_R4logic_error@std@@6B@ ; std::logic_error::`vftable'
	DD	FLAT:??_Elogic_error@std@@UAEPAXI@Z
	DD	FLAT:?what@exception@std@@UBEPBDXZ
CONST	ENDS
;	COMDAT ??_C@_0BA@JFNIOLAK@string?5too?5long@
CONST	SEGMENT
??_C@_0BA@JFNIOLAK@string?5too?5long@ DB 'string too long', 00H ; `string'
CONST	ENDS
;	COMDAT __CT??_R0?AVexception@std@@@8??0exception@std@@QAE@ABV01@@Z12
xdata$x	SEGMENT
__CT??_R0?AVexception@std@@@8??0exception@std@@QAE@ABV01@@Z12 DD 00H
	DD	FLAT:??_R0?AVexception@std@@@8
	DD	00H
	DD	0ffffffffH
	ORG $+4
	DD	0cH
	DD	FLAT:??0exception@std@@QAE@ABV01@@Z
xdata$x	ENDS
;	COMDAT ??_R0?AVexception@std@@@8
data$r	SEGMENT
??_R0?AVexception@std@@@8 DD FLAT:??_7type_info@@6B@	; std::exception `RTTI Type Descriptor'
	DD	00H
	DB	'.?AVexception@std@@', 00H
data$r	ENDS
;	COMDAT __CT??_R0?AVbad_alloc@std@@@8??0bad_alloc@std@@QAE@ABV01@@Z12
xdata$x	SEGMENT
__CT??_R0?AVbad_alloc@std@@@8??0bad_alloc@std@@QAE@ABV01@@Z12 DD 010H
	DD	FLAT:??_R0?AVbad_alloc@std@@@8
	DD	00H
	DD	0ffffffffH
	ORG $+4
	DD	0cH
	DD	FLAT:??0bad_alloc@std@@QAE@ABV01@@Z
xdata$x	ENDS
;	COMDAT ??_R0?AVbad_alloc@std@@@8
data$r	SEGMENT
??_R0?AVbad_alloc@std@@@8 DD FLAT:??_7type_info@@6B@	; std::bad_alloc `RTTI Type Descriptor'
	DD	00H
	DB	'.?AVbad_alloc@std@@', 00H
data$r	ENDS
;	COMDAT __CT??_R0?AVbad_array_new_length@std@@@8??0bad_array_new_length@std@@QAE@ABV01@@Z12
xdata$x	SEGMENT
__CT??_R0?AVbad_array_new_length@std@@@8??0bad_array_new_length@std@@QAE@ABV01@@Z12 DD 00H
	DD	FLAT:??_R0?AVbad_array_new_length@std@@@8
	DD	00H
	DD	0ffffffffH
	ORG $+4
	DD	0cH
	DD	FLAT:??0bad_array_new_length@std@@QAE@ABV01@@Z
xdata$x	ENDS
;	COMDAT ??_R0?AVbad_array_new_length@std@@@8
data$r	SEGMENT
??_R0?AVbad_array_new_length@std@@@8 DD FLAT:??_7type_info@@6B@ ; std::bad_array_new_length `RTTI Type Descriptor'
	DD	00H
	DB	'.?AVbad_array_new_length@std@@', 00H
data$r	ENDS
;	COMDAT __CTA3?AVbad_array_new_length@std@@
xdata$x	SEGMENT
__CTA3?AVbad_array_new_length@std@@ DD 03H
	DD	FLAT:__CT??_R0?AVbad_array_new_length@std@@@8??0bad_array_new_length@std@@QAE@ABV01@@Z12
	DD	FLAT:__CT??_R0?AVbad_alloc@std@@@8??0bad_alloc@std@@QAE@ABV01@@Z12
	DD	FLAT:__CT??_R0?AVexception@std@@@8??0exception@std@@QAE@ABV01@@Z12
xdata$x	ENDS
;	COMDAT __TI3?AVbad_array_new_length@std@@
xdata$x	SEGMENT
__TI3?AVbad_array_new_length@std@@ DD 00H
	DD	FLAT:??1bad_array_new_length@std@@UAE@XZ
	DD	00H
	DD	FLAT:__CTA3?AVbad_array_new_length@std@@
xdata$x	ENDS
;	COMDAT ??_C@_0BF@KINCDENJ@bad?5array?5new?5length@
CONST	SEGMENT
??_C@_0BF@KINCDENJ@bad?5array?5new?5length@ DB 'bad array new length', 00H ; `string'
CONST	ENDS
;	COMDAT ??_7bad_array_new_length@std@@6B@
CONST	SEGMENT
??_7bad_array_new_length@std@@6B@ DD FLAT:??_R4bad_array_new_length@std@@6B@ ; std::bad_array_new_length::`vftable'
	DD	FLAT:??_Ebad_array_new_length@std@@UAEPAXI@Z
	DD	FLAT:?what@exception@std@@UBEPBDXZ
CONST	ENDS
;	COMDAT ??_7bad_alloc@std@@6B@
CONST	SEGMENT
??_7bad_alloc@std@@6B@ DD FLAT:??_R4bad_alloc@std@@6B@	; std::bad_alloc::`vftable'
	DD	FLAT:??_Ebad_alloc@std@@UAEPAXI@Z
	DD	FLAT:?what@exception@std@@UBEPBDXZ
CONST	ENDS
;	COMDAT ??_C@_0BC@EOODALEL@Unknown?5exception@
CONST	SEGMENT
??_C@_0BC@EOODALEL@Unknown?5exception@ DB 'Unknown exception', 00H ; `string'
CONST	ENDS
;	COMDAT ??_7exception@std@@6B@
CONST	SEGMENT
??_7exception@std@@6B@ DD FLAT:??_R4exception@std@@6B@	; std::exception::`vftable'
	DD	FLAT:??_Eexception@std@@UAEPAXI@Z
	DD	FLAT:?what@exception@std@@UBEPBDXZ
CONST	ENDS
;	COMDAT xdata$x
xdata$x	SEGMENT
__unwindtable$??$construct@U?$tweenpoint@M@detail@tweeny@@AAU123@@?$_Default_allocator_traits@V?$allocator@U?$tweenpoint@M@detail@tweeny@@@std@@@std@@SAXAAV?$allocator@U?$tweenpoint@M@detail@tweeny@@@1@QAU?$tweenpoint@M@detail@tweeny@@AAU345@@Z DD 0ffffffffH
	DD	FLAT:__unwindfunclet$??$construct@U?$tweenpoint@M@detail@tweeny@@AAU123@@?$_Default_allocator_traits@V?$allocator@U?$tweenpoint@M@detail@tweeny@@@std@@@std@@SAXAAV?$allocator@U?$tweenpoint@M@detail@tweeny@@@1@QAU?$tweenpoint@M@detail@tweeny@@AAU345@@Z$4
	DD	0ffffffffH
	DD	FLAT:__unwindfunclet$??$construct@U?$tweenpoint@M@detail@tweeny@@AAU123@@?$_Default_allocator_traits@V?$allocator@U?$tweenpoint@M@detail@tweeny@@@std@@@std@@SAXAAV?$allocator@U?$tweenpoint@M@detail@tweeny@@@1@QAU?$tweenpoint@M@detail@tweeny@@AAU345@@Z$0
	DD	01H
	DD	FLAT:__unwindfunclet$??$construct@U?$tweenpoint@M@detail@tweeny@@AAU123@@?$_Default_allocator_traits@V?$allocator@U?$tweenpoint@M@detail@tweeny@@@std@@@std@@SAXAAV?$allocator@U?$tweenpoint@M@detail@tweeny@@@1@QAU?$tweenpoint@M@detail@tweeny@@AAU345@@Z$5
__ehfuncinfo$??$construct@U?$tweenpoint@M@detail@tweeny@@AAU123@@?$_Default_allocator_traits@V?$allocator@U?$tweenpoint@M@detail@tweeny@@@std@@@std@@SAXAAV?$allocator@U?$tweenpoint@M@detail@tweeny@@@1@QAU?$tweenpoint@M@detail@tweeny@@AAU345@@Z DD 019930522H
	DD	03H
	DD	FLAT:__unwindtable$??$construct@U?$tweenpoint@M@detail@tweeny@@AAU123@@?$_Default_allocator_traits@V?$allocator@U?$tweenpoint@M@detail@tweeny@@@std@@@std@@SAXAAV?$allocator@U?$tweenpoint@M@detail@tweeny@@@1@QAU?$tweenpoint@M@detail@tweeny@@AAU345@@Z
	DD	2 DUP(00H)
	DD	2 DUP(00H)
	DD	00H
	DD	01H
xdata$x	ENDS
;	COMDAT xdata$x
xdata$x	SEGMENT
__unwindtable$??$construct@V?$function@$$A6A_NAAV?$tween@M$$V@tweeny@@M@Z@std@@AAV12@@?$_Default_allocator_traits@V?$allocator@V?$function@$$A6A_NAAV?$tween@M$$V@tweeny@@M@Z@std@@@std@@@std@@SAXAAV?$allocator@V?$function@$$A6A_NAAV?$tween@M$$V@tweeny@@M@Z@std@@@1@QAV?$function@$$A6A_NAAV?$tween@M$$V@tweeny@@M@Z@1@AAV31@@Z DD 0ffffffffH
	DD	FLAT:__unwindfunclet$??$construct@V?$function@$$A6A_NAAV?$tween@M$$V@tweeny@@M@Z@std@@AAV12@@?$_Default_allocator_traits@V?$allocator@V?$function@$$A6A_NAAV?$tween@M$$V@tweeny@@M@Z@std@@@std@@@std@@SAXAAV?$allocator@V?$function@$$A6A_NAAV?$tween@M$$V@tweeny@@M@Z@std@@@1@QAV?$function@$$A6A_NAAV?$tween@M$$V@tweeny@@M@Z@1@AAV31@@Z$0
__ehfuncinfo$??$construct@V?$function@$$A6A_NAAV?$tween@M$$V@tweeny@@M@Z@std@@AAV12@@?$_Default_allocator_traits@V?$allocator@V?$function@$$A6A_NAAV?$tween@M$$V@tweeny@@M@Z@std@@@std@@@std@@SAXAAV?$allocator@V?$function@$$A6A_NAAV?$tween@M$$V@tweeny@@M@Z@std@@@1@QAV?$function@$$A6A_NAAV?$tween@M$$V@tweeny@@M@Z@1@AAV31@@Z DD 019930522H
	DD	01H
	DD	FLAT:__unwindtable$??$construct@V?$function@$$A6A_NAAV?$tween@M$$V@tweeny@@M@Z@std@@AAV12@@?$_Default_allocator_traits@V?$allocator@V?$function@$$A6A_NAAV?$tween@M$$V@tweeny@@M@Z@std@@@std@@@std@@SAXAAV?$allocator@V?$function@$$A6A_NAAV?$tween@M$$V@tweeny@@M@Z@std@@@1@QAV?$function@$$A6A_NAAV?$tween@M$$V@tweeny@@M@Z@1@AAV31@@Z
	DD	2 DUP(00H)
	DD	2 DUP(00H)
	DD	00H
	DD	01H
xdata$x	ENDS
;	COMDAT xdata$x
xdata$x	SEGMENT
__unwindtable$??$_Emplace_back@AAU?$tweenpoint@M@detail@tweeny@@@?$_Uninitialized_backout_al@V?$allocator@U?$tweenpoint@M@detail@tweeny@@@std@@@std@@QAEXAAU?$tweenpoint@M@detail@tweeny@@@Z DD 0ffffffffH
	DD	FLAT:__unwindfunclet$??$_Emplace_back@AAU?$tweenpoint@M@detail@tweeny@@@?$_Uninitialized_backout_al@V?$allocator@U?$tweenpoint@M@detail@tweeny@@@std@@@std@@QAEXAAU?$tweenpoint@M@detail@tweeny@@@Z$4
	DD	0ffffffffH
	DD	FLAT:__unwindfunclet$??$_Emplace_back@AAU?$tweenpoint@M@detail@tweeny@@@?$_Uninitialized_backout_al@V?$allocator@U?$tweenpoint@M@detail@tweeny@@@std@@@std@@QAEXAAU?$tweenpoint@M@detail@tweeny@@@Z$0
	DD	01H
	DD	FLAT:__unwindfunclet$??$_Emplace_back@AAU?$tweenpoint@M@detail@tweeny@@@?$_Uninitialized_backout_al@V?$allocator@U?$tweenpoint@M@detail@tweeny@@@std@@@std@@QAEXAAU?$tweenpoint@M@detail@tweeny@@@Z$5
__ehfuncinfo$??$_Emplace_back@AAU?$tweenpoint@M@detail@tweeny@@@?$_Uninitialized_backout_al@V?$allocator@U?$tweenpoint@M@detail@tweeny@@@std@@@std@@QAEXAAU?$tweenpoint@M@detail@tweeny@@@Z DD 019930522H
	DD	03H
	DD	FLAT:__unwindtable$??$_Emplace_back@AAU?$tweenpoint@M@detail@tweeny@@@?$_Uninitialized_backout_al@V?$allocator@U?$tweenpoint@M@detail@tweeny@@@std@@@std@@QAEXAAU?$tweenpoint@M@detail@tweeny@@@Z
	DD	2 DUP(00H)
	DD	2 DUP(00H)
	DD	00H
	DD	01H
xdata$x	ENDS
;	COMDAT xdata$x
xdata$x	SEGMENT
__unwindtable$??$construct@V?$function@$$A6A_NAAV?$tween@M$$V@tweeny@@M@Z@std@@ABV12@@?$_Default_allocator_traits@V?$allocator@V?$function@$$A6A_NAAV?$tween@M$$V@tweeny@@M@Z@std@@@std@@@std@@SAXAAV?$allocator@V?$function@$$A6A_NAAV?$tween@M$$V@tweeny@@M@Z@std@@@1@QAV?$function@$$A6A_NAAV?$tween@M$$V@tweeny@@M@Z@1@ABV31@@Z DD 0ffffffffH
	DD	FLAT:__unwindfunclet$??$construct@V?$function@$$A6A_NAAV?$tween@M$$V@tweeny@@M@Z@std@@ABV12@@?$_Default_allocator_traits@V?$allocator@V?$function@$$A6A_NAAV?$tween@M$$V@tweeny@@M@Z@std@@@std@@@std@@SAXAAV?$allocator@V?$function@$$A6A_NAAV?$tween@M$$V@tweeny@@M@Z@std@@@1@QAV?$function@$$A6A_NAAV?$tween@M$$V@tweeny@@M@Z@1@ABV31@@Z$0
__ehfuncinfo$??$construct@V?$function@$$A6A_NAAV?$tween@M$$V@tweeny@@M@Z@std@@ABV12@@?$_Default_allocator_traits@V?$allocator@V?$function@$$A6A_NAAV?$tween@M$$V@tweeny@@M@Z@std@@@std@@@std@@SAXAAV?$allocator@V?$function@$$A6A_NAAV?$tween@M$$V@tweeny@@M@Z@std@@@1@QAV?$function@$$A6A_NAAV?$tween@M$$V@tweeny@@M@Z@1@ABV31@@Z DD 019930522H
	DD	01H
	DD	FLAT:__unwindtable$??$construct@V?$function@$$A6A_NAAV?$tween@M$$V@tweeny@@M@Z@std@@ABV12@@?$_Default_allocator_traits@V?$allocator@V?$function@$$A6A_NAAV?$tween@M$$V@tweeny@@M@Z@std@@@std@@@std@@SAXAAV?$allocator@V?$function@$$A6A_NAAV?$tween@M$$V@tweeny@@M@Z@std@@@1@QAV?$function@$$A6A_NAAV?$tween@M$$V@tweeny@@M@Z@1@ABV31@@Z
	DD	2 DUP(00H)
	DD	2 DUP(00H)
	DD	00H
	DD	01H
xdata$x	ENDS
;	COMDAT xdata$x
xdata$x	SEGMENT
__unwindtable$??$_Emplace_back@AAV?$function@$$A6A_NAAV?$tween@M$$V@tweeny@@M@Z@std@@@?$_Uninitialized_backout_al@V?$allocator@V?$function@$$A6A_NAAV?$tween@M$$V@tweeny@@M@Z@std@@@std@@@std@@QAEXAAV?$function@$$A6A_NAAV?$tween@M$$V@tweeny@@M@Z@1@@Z DD 0ffffffffH
	DD	FLAT:__unwindfunclet$??$_Emplace_back@AAV?$function@$$A6A_NAAV?$tween@M$$V@tweeny@@M@Z@std@@@?$_Uninitialized_backout_al@V?$allocator@V?$function@$$A6A_NAAV?$tween@M$$V@tweeny@@M@Z@std@@@std@@@std@@QAEXAAV?$function@$$A6A_NAAV?$tween@M$$V@tweeny@@M@Z@1@@Z$0
__ehfuncinfo$??$_Emplace_back@AAV?$function@$$A6A_NAAV?$tween@M$$V@tweeny@@M@Z@std@@@?$_Uninitialized_backout_al@V?$allocator@V?$function@$$A6A_NAAV?$tween@M$$V@tweeny@@M@Z@std@@@std@@@std@@QAEXAAV?$function@$$A6A_NAAV?$tween@M$$V@tweeny@@M@Z@1@@Z DD 019930522H
	DD	01H
	DD	FLAT:__unwindtable$??$_Emplace_back@AAV?$function@$$A6A_NAAV?$tween@M$$V@tweeny@@M@Z@std@@@?$_Uninitialized_backout_al@V?$allocator@V?$function@$$A6A_NAAV?$tween@M$$V@tweeny@@M@Z@std@@@std@@@std@@QAEXAAV?$function@$$A6A_NAAV?$tween@M$$V@tweeny@@M@Z@1@@Z
	DD	2 DUP(00H)
	DD	2 DUP(00H)
	DD	00H
	DD	01H
xdata$x	ENDS
;	COMDAT xdata$x
xdata$x	SEGMENT
__unwindtable$??$_Uninitialized_copy@PAU?$tweenpoint@M@detail@tweeny@@PAU123@V?$allocator@U?$tweenpoint@M@detail@tweeny@@@std@@@std@@YAPAU?$tweenpoint@M@detail@tweeny@@PAU123@00AAV?$allocator@U?$tweenpoint@M@detail@tweeny@@@0@@Z DD 0ffffffffH
	DD	FLAT:__unwindfunclet$??$_Uninitialized_copy@PAU?$tweenpoint@M@detail@tweeny@@PAU123@V?$allocator@U?$tweenpoint@M@detail@tweeny@@@std@@@std@@YAPAU?$tweenpoint@M@detail@tweeny@@PAU123@00AAV?$allocator@U?$tweenpoint@M@detail@tweeny@@@0@@Z$0
	DD	00H
	DD	FLAT:__unwindfunclet$??$_Uninitialized_copy@PAU?$tweenpoint@M@detail@tweeny@@PAU123@V?$allocator@U?$tweenpoint@M@detail@tweeny@@@std@@@std@@YAPAU?$tweenpoint@M@detail@tweeny@@PAU123@00AAV?$allocator@U?$tweenpoint@M@detail@tweeny@@@0@@Z$5
	DD	00H
	DD	FLAT:__unwindfunclet$??$_Uninitialized_copy@PAU?$tweenpoint@M@detail@tweeny@@PAU123@V?$allocator@U?$tweenpoint@M@detail@tweeny@@@std@@@std@@YAPAU?$tweenpoint@M@detail@tweeny@@PAU123@00AAV?$allocator@U?$tweenpoint@M@detail@tweeny@@@0@@Z$1
	DD	02H
	DD	FLAT:__unwindfunclet$??$_Uninitialized_copy@PAU?$tweenpoint@M@detail@tweeny@@PAU123@V?$allocator@U?$tweenpoint@M@detail@tweeny@@@std@@@std@@YAPAU?$tweenpoint@M@detail@tweeny@@PAU123@00AAV?$allocator@U?$tweenpoint@M@detail@tweeny@@@0@@Z$6
__ehfuncinfo$??$_Uninitialized_copy@PAU?$tweenpoint@M@detail@tweeny@@PAU123@V?$allocator@U?$tweenpoint@M@detail@tweeny@@@std@@@std@@YAPAU?$tweenpoint@M@detail@tweeny@@PAU123@00AAV?$allocator@U?$tweenpoint@M@detail@tweeny@@@0@@Z DD 019930522H
	DD	04H
	DD	FLAT:__unwindtable$??$_Uninitialized_copy@PAU?$tweenpoint@M@detail@tweeny@@PAU123@V?$allocator@U?$tweenpoint@M@detail@tweeny@@@std@@@std@@YAPAU?$tweenpoint@M@detail@tweeny@@PAU123@00AAV?$allocator@U?$tweenpoint@M@detail@tweeny@@@0@@Z
	DD	2 DUP(00H)
	DD	2 DUP(00H)
	DD	00H
	DD	01H
xdata$x	ENDS
;	COMDAT xdata$x
xdata$x	SEGMENT
__unwindtable$??$_Copy_n_unchecked4@PAU?$tweenpoint@M@detail@tweeny@@IPAU123@@std@@YAPAU?$tweenpoint@M@detail@tweeny@@PAU123@I0@Z DD 0ffffffffH
	DD	FLAT:__unwindfunclet$??$_Copy_n_unchecked4@PAU?$tweenpoint@M@detail@tweeny@@IPAU123@@std@@YAPAU?$tweenpoint@M@detail@tweeny@@PAU123@I0@Z$1
__ehfuncinfo$??$_Copy_n_unchecked4@PAU?$tweenpoint@M@detail@tweeny@@IPAU123@@std@@YAPAU?$tweenpoint@M@detail@tweeny@@PAU123@I0@Z DD 019930522H
	DD	01H
	DD	FLAT:__unwindtable$??$_Copy_n_unchecked4@PAU?$tweenpoint@M@detail@tweeny@@IPAU123@@std@@YAPAU?$tweenpoint@M@detail@tweeny@@PAU123@I0@Z
	DD	2 DUP(00H)
	DD	2 DUP(00H)
	DD	00H
	DD	01H
xdata$x	ENDS
;	COMDAT xdata$x
xdata$x	SEGMENT
__unwindtable$??$_Uninitialized_copy_n@PAU?$tweenpoint@M@detail@tweeny@@V?$allocator@U?$tweenpoint@M@detail@tweeny@@@std@@@std@@YAPAU?$tweenpoint@M@detail@tweeny@@PAU123@I0AAV?$allocator@U?$tweenpoint@M@detail@tweeny@@@0@@Z DD 0ffffffffH
	DD	FLAT:__unwindfunclet$??$_Uninitialized_copy_n@PAU?$tweenpoint@M@detail@tweeny@@V?$allocator@U?$tweenpoint@M@detail@tweeny@@@std@@@std@@YAPAU?$tweenpoint@M@detail@tweeny@@PAU123@I0AAV?$allocator@U?$tweenpoint@M@detail@tweeny@@@0@@Z$0
	DD	00H
	DD	FLAT:__unwindfunclet$??$_Uninitialized_copy_n@PAU?$tweenpoint@M@detail@tweeny@@V?$allocator@U?$tweenpoint@M@detail@tweeny@@@std@@@std@@YAPAU?$tweenpoint@M@detail@tweeny@@PAU123@I0AAV?$allocator@U?$tweenpoint@M@detail@tweeny@@@0@@Z$5
	DD	00H
	DD	FLAT:__unwindfunclet$??$_Uninitialized_copy_n@PAU?$tweenpoint@M@detail@tweeny@@V?$allocator@U?$tweenpoint@M@detail@tweeny@@@std@@@std@@YAPAU?$tweenpoint@M@detail@tweeny@@PAU123@I0AAV?$allocator@U?$tweenpoint@M@detail@tweeny@@@0@@Z$1
	DD	02H
	DD	FLAT:__unwindfunclet$??$_Uninitialized_copy_n@PAU?$tweenpoint@M@detail@tweeny@@V?$allocator@U?$tweenpoint@M@detail@tweeny@@@std@@@std@@YAPAU?$tweenpoint@M@detail@tweeny@@PAU123@I0AAV?$allocator@U?$tweenpoint@M@detail@tweeny@@@0@@Z$6
__ehfuncinfo$??$_Uninitialized_copy_n@PAU?$tweenpoint@M@detail@tweeny@@V?$allocator@U?$tweenpoint@M@detail@tweeny@@@std@@@std@@YAPAU?$tweenpoint@M@detail@tweeny@@PAU123@I0AAV?$allocator@U?$tweenpoint@M@detail@tweeny@@@0@@Z DD 019930522H
	DD	04H
	DD	FLAT:__unwindtable$??$_Uninitialized_copy_n@PAU?$tweenpoint@M@detail@tweeny@@V?$allocator@U?$tweenpoint@M@detail@tweeny@@@std@@@std@@YAPAU?$tweenpoint@M@detail@tweeny@@PAU123@I0AAV?$allocator@U?$tweenpoint@M@detail@tweeny@@@0@@Z
	DD	2 DUP(00H)
	DD	2 DUP(00H)
	DD	00H
	DD	01H
xdata$x	ENDS
;	COMDAT xdata$x
xdata$x	SEGMENT
__unwindtable$??$_Uninitialized_copy@PAV?$function@$$A6A_NAAV?$tween@M$$V@tweeny@@M@Z@std@@PAV12@V?$allocator@V?$function@$$A6A_NAAV?$tween@M$$V@tweeny@@M@Z@std@@@2@@std@@YAPAV?$function@$$A6A_NAAV?$tween@M$$V@tweeny@@M@Z@0@PAV10@00AAV?$allocator@V?$function@$$A6A_NAAV?$tween@M$$V@tweeny@@M@Z@std@@@0@@Z DD 0ffffffffH
	DD	FLAT:__unwindfunclet$??$_Uninitialized_copy@PAV?$function@$$A6A_NAAV?$tween@M$$V@tweeny@@M@Z@std@@PAV12@V?$allocator@V?$function@$$A6A_NAAV?$tween@M$$V@tweeny@@M@Z@std@@@2@@std@@YAPAV?$function@$$A6A_NAAV?$tween@M$$V@tweeny@@M@Z@0@PAV10@00AAV?$allocator@V?$function@$$A6A_NAAV?$tween@M$$V@tweeny@@M@Z@std@@@0@@Z$0
	DD	00H
	DD	FLAT:__unwindfunclet$??$_Uninitialized_copy@PAV?$function@$$A6A_NAAV?$tween@M$$V@tweeny@@M@Z@std@@PAV12@V?$allocator@V?$function@$$A6A_NAAV?$tween@M$$V@tweeny@@M@Z@std@@@2@@std@@YAPAV?$function@$$A6A_NAAV?$tween@M$$V@tweeny@@M@Z@0@PAV10@00AAV?$allocator@V?$function@$$A6A_NAAV?$tween@M$$V@tweeny@@M@Z@std@@@0@@Z$1
__ehfuncinfo$??$_Uninitialized_copy@PAV?$function@$$A6A_NAAV?$tween@M$$V@tweeny@@M@Z@std@@PAV12@V?$allocator@V?$function@$$A6A_NAAV?$tween@M$$V@tweeny@@M@Z@std@@@2@@std@@YAPAV?$function@$$A6A_NAAV?$tween@M$$V@tweeny@@M@Z@0@PAV10@00AAV?$allocator@V?$function@$$A6A_NAAV?$tween@M$$V@tweeny@@M@Z@std@@@0@@Z DD 019930522H
	DD	02H
	DD	FLAT:__unwindtable$??$_Uninitialized_copy@PAV?$function@$$A6A_NAAV?$tween@M$$V@tweeny@@M@Z@std@@PAV12@V?$allocator@V?$function@$$A6A_NAAV?$tween@M$$V@tweeny@@M@Z@std@@@2@@std@@YAPAV?$function@$$A6A_NAAV?$tween@M$$V@tweeny@@M@Z@0@PAV10@00AAV?$allocator@V?$function@$$A6A_NAAV?$tween@M$$V@tweeny@@M@Z@std@@@0@@Z
	DD	2 DUP(00H)
	DD	2 DUP(00H)
	DD	00H
	DD	01H
xdata$x	ENDS
;	COMDAT xdata$x
xdata$x	SEGMENT
__catchsym$??$_Emplace_reallocate@ABV?$function@$$A6A_NAAV?$tween@M$$V@tweeny@@M@Z@std@@@?$vector@V?$function@$$A6A_NAAV?$tween@M$$V@tweeny@@M@Z@std@@V?$allocator@V?$function@$$A6A_NAAV?$tween@M$$V@tweeny@@M@Z@std@@@2@@std@@AAEPAV?$function@$$A6A_NAAV?$tween@M$$V@tweeny@@M@Z@1@QAV21@ABV21@@Z$3 DD 040H
	DD	00H
	DD	00H
	DD	FLAT:__catch$??$_Emplace_reallocate@ABV?$function@$$A6A_NAAV?$tween@M$$V@tweeny@@M@Z@std@@@?$vector@V?$function@$$A6A_NAAV?$tween@M$$V@tweeny@@M@Z@std@@V?$allocator@V?$function@$$A6A_NAAV?$tween@M$$V@tweeny@@M@Z@std@@@2@@std@@AAEPAV?$function@$$A6A_NAAV?$tween@M$$V@tweeny@@M@Z@1@QAV21@ABV21@@Z$0
__tryblocktable$??$_Emplace_reallocate@ABV?$function@$$A6A_NAAV?$tween@M$$V@tweeny@@M@Z@std@@@?$vector@V?$function@$$A6A_NAAV?$tween@M$$V@tweeny@@M@Z@std@@V?$allocator@V?$function@$$A6A_NAAV?$tween@M$$V@tweeny@@M@Z@std@@@2@@std@@AAEPAV?$function@$$A6A_NAAV?$tween@M$$V@tweeny@@M@Z@1@QAV21@ABV21@@Z DD 00H
	DD	01H
	DD	02H
	DD	01H
	DD	FLAT:__catchsym$??$_Emplace_reallocate@ABV?$function@$$A6A_NAAV?$tween@M$$V@tweeny@@M@Z@std@@@?$vector@V?$function@$$A6A_NAAV?$tween@M$$V@tweeny@@M@Z@std@@V?$allocator@V?$function@$$A6A_NAAV?$tween@M$$V@tweeny@@M@Z@std@@@2@@std@@AAEPAV?$function@$$A6A_NAAV?$tween@M$$V@tweeny@@M@Z@1@QAV21@ABV21@@Z$3
__unwindtable$??$_Emplace_reallocate@ABV?$function@$$A6A_NAAV?$tween@M$$V@tweeny@@M@Z@std@@@?$vector@V?$function@$$A6A_NAAV?$tween@M$$V@tweeny@@M@Z@std@@V?$allocator@V?$function@$$A6A_NAAV?$tween@M$$V@tweeny@@M@Z@std@@@2@@std@@AAEPAV?$function@$$A6A_NAAV?$tween@M$$V@tweeny@@M@Z@1@QAV21@ABV21@@Z DD 0ffffffffH
	DD	00H
	DD	00H
	DD	FLAT:__unwindfunclet$??$_Emplace_reallocate@ABV?$function@$$A6A_NAAV?$tween@M$$V@tweeny@@M@Z@std@@@?$vector@V?$function@$$A6A_NAAV?$tween@M$$V@tweeny@@M@Z@std@@V?$allocator@V?$function@$$A6A_NAAV?$tween@M$$V@tweeny@@M@Z@std@@@2@@std@@AAEPAV?$function@$$A6A_NAAV?$tween@M$$V@tweeny@@M@Z@1@QAV21@ABV21@@Z$2
	DD	0ffffffffH
	DD	00H
__ehfuncinfo$??$_Emplace_reallocate@ABV?$function@$$A6A_NAAV?$tween@M$$V@tweeny@@M@Z@std@@@?$vector@V?$function@$$A6A_NAAV?$tween@M$$V@tweeny@@M@Z@std@@V?$allocator@V?$function@$$A6A_NAAV?$tween@M$$V@tweeny@@M@Z@std@@@2@@std@@AAEPAV?$function@$$A6A_NAAV?$tween@M$$V@tweeny@@M@Z@1@QAV21@ABV21@@Z DD 019930522H
	DD	03H
	DD	FLAT:__unwindtable$??$_Emplace_reallocate@ABV?$function@$$A6A_NAAV?$tween@M$$V@tweeny@@M@Z@std@@@?$vector@V?$function@$$A6A_NAAV?$tween@M$$V@tweeny@@M@Z@std@@V?$allocator@V?$function@$$A6A_NAAV?$tween@M$$V@tweeny@@M@Z@std@@@2@@std@@AAEPAV?$function@$$A6A_NAAV?$tween@M$$V@tweeny@@M@Z@1@QAV21@ABV21@@Z
	DD	01H
	DD	FLAT:__tryblocktable$??$_Emplace_reallocate@ABV?$function@$$A6A_NAAV?$tween@M$$V@tweeny@@M@Z@std@@@?$vector@V?$function@$$A6A_NAAV?$tween@M$$V@tweeny@@M@Z@std@@V?$allocator@V?$function@$$A6A_NAAV?$tween@M$$V@tweeny@@M@Z@std@@@2@@std@@AAEPAV?$function@$$A6A_NAAV?$tween@M$$V@tweeny@@M@Z@1@QAV21@ABV21@@Z
	DD	2 DUP(00H)
	DD	00H
	DD	01H
xdata$x	ENDS
;	COMDAT xdata$x
xdata$x	SEGMENT
__unwindtable$??$_Emplace_back_with_unused_capacity@ABV?$function@$$A6A_NAAV?$tween@M$$V@tweeny@@M@Z@std@@@?$vector@V?$function@$$A6A_NAAV?$tween@M$$V@tweeny@@M@Z@std@@V?$allocator@V?$function@$$A6A_NAAV?$tween@M$$V@tweeny@@M@Z@std@@@2@@std@@AAEAAV?$function@$$A6A_NAAV?$tween@M$$V@tweeny@@M@Z@1@ABV21@@Z DD 0ffffffffH
	DD	FLAT:__unwindfunclet$??$_Emplace_back_with_unused_capacity@ABV?$function@$$A6A_NAAV?$tween@M$$V@tweeny@@M@Z@std@@@?$vector@V?$function@$$A6A_NAAV?$tween@M$$V@tweeny@@M@Z@std@@V?$allocator@V?$function@$$A6A_NAAV?$tween@M$$V@tweeny@@M@Z@std@@@2@@std@@AAEAAV?$function@$$A6A_NAAV?$tween@M$$V@tweeny@@M@Z@1@ABV21@@Z$0
__ehfuncinfo$??$_Emplace_back_with_unused_capacity@ABV?$function@$$A6A_NAAV?$tween@M$$V@tweeny@@M@Z@std@@@?$vector@V?$function@$$A6A_NAAV?$tween@M$$V@tweeny@@M@Z@std@@V?$allocator@V?$function@$$A6A_NAAV?$tween@M$$V@tweeny@@M@Z@std@@@2@@std@@AAEAAV?$function@$$A6A_NAAV?$tween@M$$V@tweeny@@M@Z@1@ABV21@@Z DD 019930522H
	DD	01H
	DD	FLAT:__unwindtable$??$_Emplace_back_with_unused_capacity@ABV?$function@$$A6A_NAAV?$tween@M$$V@tweeny@@M@Z@std@@@?$vector@V?$function@$$A6A_NAAV?$tween@M$$V@tweeny@@M@Z@std@@V?$allocator@V?$function@$$A6A_NAAV?$tween@M$$V@tweeny@@M@Z@std@@@2@@std@@AAEAAV?$function@$$A6A_NAAV?$tween@M$$V@tweeny@@M@Z@1@ABV21@@Z
	DD	2 DUP(00H)
	DD	2 DUP(00H)
	DD	00H
	DD	01H
xdata$x	ENDS
;	COMDAT xdata$x
xdata$x	SEGMENT
__unwindtable$??$_Copy_n_unchecked4@PAV?$function@$$A6A_NAAV?$tween@M$$V@tweeny@@M@Z@std@@IPAV12@@std@@YAPAV?$function@$$A6A_NAAV?$tween@M$$V@tweeny@@M@Z@0@PAV10@I0@Z DD 0ffffffffH
