; Listing generated by Microsoft (R) Optimizing Compiler Version 19.34.31942.0 

	TITLE	C:\Users\flourine\Desktop\Xantios\client-src\Code\eterPythonLib\Distribute\PythonWindowManagerModule.obj
	.686P
	.XMM
	include listing.inc
	.model	flat

INCLUDELIB LIBCMT
INCLUDELIB OLDNAMES

PUBLIC	___local_stdio_printf_options
PUBLIC	__snprintf
PUBLIC	??0exception@std@@QAE@ABV01@@Z			; std::exception::exception
PUBLIC	??1exception@std@@UAE@XZ			; std::exception::~exception
PUBLIC	?what@exception@std@@UBEPBDXZ			; std::exception::what
PUBLIC	??_Gexception@std@@UAEPAXI@Z			; std::exception::`scalar deleting destructor'
PUBLIC	??0bad_alloc@std@@QAE@ABV01@@Z			; std::bad_alloc::bad_alloc
PUBLIC	??_Gbad_alloc@std@@UAEPAXI@Z			; std::bad_alloc::`scalar deleting destructor'
PUBLIC	??0bad_array_new_length@std@@QAE@XZ		; std::bad_array_new_length::bad_array_new_length
PUBLIC	??1bad_array_new_length@std@@UAE@XZ		; std::bad_array_new_length::~bad_array_new_length
PUBLIC	??0bad_array_new_length@std@@QAE@ABV01@@Z	; std::bad_array_new_length::bad_array_new_length
PUBLIC	??_Gbad_array_new_length@std@@UAEPAXI@Z		; std::bad_array_new_length::`scalar deleting destructor'
PUBLIC	?_Throw_bad_array_new_length@std@@YAXXZ		; std::_Throw_bad_array_new_length
PUBLIC	?initwndMgr@@YAXXZ				; initwndMgr
PUBLIC	??$_Allocate_manually_vector_aligned@U_Default_allocate_traits@std@@@std@@YAPAXI@Z ; std::_Allocate_manually_vector_aligned<std::_Default_allocate_traits>
PUBLIC	?PyTuple_GetWindow@@YA_NPAU_object@@HPAPAVCWindow@UI@@@Z ; PyTuple_GetWindow
PUBLIC	?wndMgrGetAspect@@YAPAU_object@@PAU1@0@Z	; wndMgrGetAspect
PUBLIC	?wndMgrOnceIgnoreMouseLeftButtonUpEvent@@YAPAU_object@@PAU1@0@Z ; wndMgrOnceIgnoreMouseLeftButtonUpEvent
PUBLIC	?wndMgrSetMouseHandler@@YAPAU_object@@PAU1@0@Z	; wndMgrSetMouseHandler
PUBLIC	?wndMgrRegister@@YAPAU_object@@PAU1@0@Z		; wndMgrRegister
PUBLIC	?wndMgrRegisterSlotWindow@@YAPAU_object@@PAU1@0@Z ; wndMgrRegisterSlotWindow
PUBLIC	?wndMgrRegisterGridSlotWindow@@YAPAU_object@@PAU1@0@Z ; wndMgrRegisterGridSlotWindow
PUBLIC	?wndMgrRegisterTextLine@@YAPAU_object@@PAU1@0@Z	; wndMgrRegisterTextLine
PUBLIC	?wndMgrRegisterMarkBox@@YAPAU_object@@PAU1@0@Z	; wndMgrRegisterMarkBox
PUBLIC	?wndMgrRegisterImageBox@@YAPAU_object@@PAU1@0@Z	; wndMgrRegisterImageBox
PUBLIC	?wndMgrRegisterExpandedImageBox@@YAPAU_object@@PAU1@0@Z ; wndMgrRegisterExpandedImageBox
PUBLIC	?wndMgrRegisterAniImageBox@@YAPAU_object@@PAU1@0@Z ; wndMgrRegisterAniImageBox
PUBLIC	?wndMgrRegisterButton@@YAPAU_object@@PAU1@0@Z	; wndMgrRegisterButton
PUBLIC	?wndMgrRegisterRadioButton@@YAPAU_object@@PAU1@0@Z ; wndMgrRegisterRadioButton
PUBLIC	?wndMgrRegisterToggleButton@@YAPAU_object@@PAU1@0@Z ; wndMgrRegisterToggleButton
PUBLIC	?wndMgrRegisterDragButton@@YAPAU_object@@PAU1@0@Z ; wndMgrRegisterDragButton
PUBLIC	?wndMgrRegisterBox@@YAPAU_object@@PAU1@0@Z	; wndMgrRegisterBox
PUBLIC	?wndMgrRegisterBar@@YAPAU_object@@PAU1@0@Z	; wndMgrRegisterBar
PUBLIC	?wndMgrRegisterLine@@YAPAU_object@@PAU1@0@Z	; wndMgrRegisterLine
PUBLIC	?wndMgrRegisterBar3D@@YAPAU_object@@PAU1@0@Z	; wndMgrRegisterBar3D
PUBLIC	?wndMgrRegisterNumberLine@@YAPAU_object@@PAU1@0@Z ; wndMgrRegisterNumberLine
PUBLIC	?wndMgrDestroy@@YAPAU_object@@PAU1@0@Z		; wndMgrDestroy
PUBLIC	?wndMgrIsFocus@@YAPAU_object@@PAU1@0@Z		; wndMgrIsFocus
PUBLIC	?wndMgrSetFocus@@YAPAU_object@@PAU1@0@Z		; wndMgrSetFocus
PUBLIC	?wndMgrKillFocus@@YAPAU_object@@PAU1@0@Z	; wndMgrKillFocus
PUBLIC	?wndMgrLock@@YAPAU_object@@PAU1@0@Z		; wndMgrLock
PUBLIC	?wndMgrUnlock@@YAPAU_object@@PAU1@0@Z		; wndMgrUnlock
PUBLIC	?wndMgrSetName@@YAPAU_object@@PAU1@0@Z		; wndMgrSetName
PUBLIC	?wndMgrSetTop@@YAPAU_object@@PAU1@0@Z		; wndMgrSetTop
PUBLIC	?wndMgrIsTop@@YAPAU_object@@PAU1@0@Z		; wndMgrIsTop
PUBLIC	?wndMgrShow@@YAPAU_object@@PAU1@0@Z		; wndMgrShow
PUBLIC	?wndMgrHide@@YAPAU_object@@PAU1@0@Z		; wndMgrHide
PUBLIC	?wndMgrIsShow@@YAPAU_object@@PAU1@0@Z		; wndMgrIsShow
PUBLIC	?wndMgrIsRTL@@YAPAU_object@@PAU1@0@Z		; wndMgrIsRTL
PUBLIC	?wndMgrSetScreenSize@@YAPAU_object@@PAU1@0@Z	; wndMgrSetScreenSize
PUBLIC	?wndMgrSetParent@@YAPAU_object@@PAU1@0@Z	; wndMgrSetParent
PUBLIC	?wndMgrSetPickAlways@@YAPAU_object@@PAU1@0@Z	; wndMgrSetPickAlways
PUBLIC	?wndMgrSetWndSize@@YAPAU_object@@PAU1@0@Z	; wndMgrSetWndSize
PUBLIC	?wndMgrSetWndPosition@@YAPAU_object@@PAU1@0@Z	; wndMgrSetWndPosition
PUBLIC	?wndMgrGetName@@YAPAU_object@@PAU1@0@Z		; wndMgrGetName
PUBLIC	?wndMgrGetWndWidth@@YAPAU_object@@PAU1@0@Z	; wndMgrGetWndWidth
PUBLIC	?wndMgrGetWndHeight@@YAPAU_object@@PAU1@0@Z	; wndMgrGetWndHeight
PUBLIC	?wndMgrGetWndLocalPosition@@YAPAU_object@@PAU1@0@Z ; wndMgrGetWndLocalPosition
PUBLIC	?wndMgrGetWndGlobalPosition@@YAPAU_object@@PAU1@0@Z ; wndMgrGetWndGlobalPosition
PUBLIC	?wndMgrGetWindowRect@@YAPAU_object@@PAU1@0@Z	; wndMgrGetWindowRect
PUBLIC	?wndMgrSetWindowHorizontalAlign@@YAPAU_object@@PAU1@0@Z ; wndMgrSetWindowHorizontalAlign
PUBLIC	?wndMgrSetWindowVerticalAlign@@YAPAU_object@@PAU1@0@Z ; wndMgrSetWindowVerticalAlign
PUBLIC	?wndMgrIsIn@@YAPAU_object@@PAU1@0@Z		; wndMgrIsIn
PUBLIC	?wndMgrGetMouseLocalPosition@@YAPAU_object@@PAU1@0@Z ; wndMgrGetMouseLocalPosition
PUBLIC	?wndMgrGetHyperlink@@YAPAU_object@@PAU1@0@Z	; wndMgrGetHyperlink
PUBLIC	?wndMgrGetScreenWidth@@YAPAU_object@@PAU1@0@Z	; wndMgrGetScreenWidth
PUBLIC	?wndMgrGetScreenHeight@@YAPAU_object@@PAU1@0@Z	; wndMgrGetScreenHeight
PUBLIC	?wndMgrGetMousePosition@@YAPAU_object@@PAU1@0@Z	; wndMgrGetMousePosition
PUBLIC	?wndMgrIsDragging@@YAPAU_object@@PAU1@0@Z	; wndMgrIsDragging
PUBLIC	?wndMgrIsPickedWindow@@YAPAU_object@@PAU1@0@Z	; wndMgrIsPickedWindow
PUBLIC	?wndMgrGetChildCount@@YAPAU_object@@PAU1@0@Z	; wndMgrGetChildCount
PUBLIC	?GetFlag@@YAIPBD@Z				; GetFlag
PUBLIC	?wndMgrAddFlag@@YAPAU_object@@PAU1@0@Z		; wndMgrAddFlag
PUBLIC	?wndMgrRemoveFlag@@YAPAU_object@@PAU1@0@Z	; wndMgrRemoveFlag
PUBLIC	?wndMgrSetLimitBias@@YAPAU_object@@PAU1@0@Z	; wndMgrSetLimitBias
PUBLIC	?wndMgrUpdateRect@@YAPAU_object@@PAU1@0@Z	; wndMgrUpdateRect
PUBLIC	?wndMgrAppendSlot@@YAPAU_object@@PAU1@0@Z	; wndMgrAppendSlot
PUBLIC	?wndMgrArrangeSlot@@YAPAU_object@@PAU1@0@Z	; wndMgrArrangeSlot
PUBLIC	?wndMgrSetSlotBaseImage@@YAPAU_object@@PAU1@0@Z	; wndMgrSetSlotBaseImage
PUBLIC	?wndMgrSetCoverButton@@YAPAU_object@@PAU1@0@Z	; wndMgrSetCoverButton
PUBLIC	?wndMgrEnableCoverButton@@YAPAU_object@@PAU1@0@Z ; wndMgrEnableCoverButton
PUBLIC	?wndMgrDisableCoverButton@@YAPAU_object@@PAU1@0@Z ; wndMgrDisableCoverButton
PUBLIC	?wndMgrIsDisableCoverButton@@YAPAU_object@@PAU1@0@Z ; wndMgrIsDisableCoverButton
PUBLIC	?wndMgrSetAlwaysRenderCoverButton@@YAPAU_object@@PAU1@0@Z ; wndMgrSetAlwaysRenderCoverButton
PUBLIC	?wndMgrGetSlotIndices@@YAPAU_object@@PAU1@0@Z	; wndMgrGetSlotIndices
PUBLIC	?wndMgrDeleteCoverButton@@YAPAU_object@@PAU1@0@Z ; wndMgrDeleteCoverButton
PUBLIC	?wndMgrAppendSlotButton@@YAPAU_object@@PAU1@0@Z	; wndMgrAppendSlotButton
PUBLIC	?wndMgrAppendRequirementSignImage@@YAPAU_object@@PAU1@0@Z ; wndMgrAppendRequirementSignImage
PUBLIC	?wndMgrShowSlotButton@@YAPAU_object@@PAU1@0@Z	; wndMgrShowSlotButton
PUBLIC	?wndMgrHideAllSlotButton@@YAPAU_object@@PAU1@0@Z ; wndMgrHideAllSlotButton
PUBLIC	?wndMgrShowRequirementSign@@YAPAU_object@@PAU1@0@Z ; wndMgrShowRequirementSign
PUBLIC	?wndMgrHideRequirementSign@@YAPAU_object@@PAU1@0@Z ; wndMgrHideRequirementSign
PUBLIC	?wndMgrRefreshSlot@@YAPAU_object@@PAU1@0@Z	; wndMgrRefreshSlot
PUBLIC	?wndMgrSetUseMode@@YAPAU_object@@PAU1@0@Z	; wndMgrSetUseMode
PUBLIC	?wndMgrIsUseMode@@YAPAU_object@@PAU1@0@Z	; wndMgrIsUseMode
PUBLIC	?wndMgrSetUsableItem@@YAPAU_object@@PAU1@0@Z	; wndMgrSetUsableItem
PUBLIC	?wndMgrIsUsableItem@@YAPAU_object@@PAU1@0@Z	; wndMgrIsUsableItem
PUBLIC	?wndMgrSetSwitchMode@@YAPAU_object@@PAU1@0@Z	; wndMgrSetSwitchMode
PUBLIC	?wndMgrIsSwitchMode@@YAPAU_object@@PAU1@0@Z	; wndMgrIsSwitchMode
PUBLIC	?wndMgrSetSwitchableItem@@YAPAU_object@@PAU1@0@Z ; wndMgrSetSwitchableItem
PUBLIC	?wndMgrIsSwitchableItem@@YAPAU_object@@PAU1@0@Z	; wndMgrIsSwitchableItem
PUBLIC	?wndMgrGetPickedSlotNumber@@YAPAU_object@@PAU1@0@Z ; wndMgrGetPickedSlotNumber
PUBLIC	?wndMgrSetSlotHighlightedGreeen@@YAPAU_object@@PAU1@0@Z ; wndMgrSetSlotHighlightedGreeen
PUBLIC	?wndMgrDisableSlotHighlightedGreen@@YAPAU_object@@PAU1@0@Z ; wndMgrDisableSlotHighlightedGreen
PUBLIC	?wndMgrClearSlot@@YAPAU_object@@PAU1@0@Z	; wndMgrClearSlot
PUBLIC	?wndMgrClearAllSlot@@YAPAU_object@@PAU1@0@Z	; wndMgrClearAllSlot
PUBLIC	?wndMgrHasSlot@@YAPAU_object@@PAU1@0@Z		; wndMgrHasSlot
PUBLIC	?wndMgrSetSlot@@YAPAU_object@@PAU1@0@Z		; wndMgrSetSlot
PUBLIC	?wndMgrSetSlotCount@@YAPAU_object@@PAU1@0@Z	; wndMgrSetSlotCount
PUBLIC	?wndMgrSetSlotCountNew@@YAPAU_object@@PAU1@0@Z	; wndMgrSetSlotCountNew
PUBLIC	?wndMgrSetSlotCoolTime@@YAPAU_object@@PAU1@0@Z	; wndMgrSetSlotCoolTime
PUBLIC	?wndMgrSetToggleSlot@@YAPAU_object@@PAU1@0@Z	; wndMgrSetToggleSlot
PUBLIC	?wndMgrActivateSlot@@YAPAU_object@@PAU1@0@Z	; wndMgrActivateSlot
PUBLIC	??1?$vector@MV?$allocator@M@std@@@std@@QAE@XZ	; std::vector<float,std::allocator<float> >::~vector<float,std::allocator<float> >
PUBLIC	?wndMgrDeactivateSlot@@YAPAU_object@@PAU1@0@Z	; wndMgrDeactivateSlot
PUBLIC	?wndMgrNewActivateSlot@@YAPAU_object@@PAU1@0@Z	; wndMgrNewActivateSlot
PUBLIC	?wndMgrNewDeactivateSlot@@YAPAU_object@@PAU1@0@Z ; wndMgrNewDeactivateSlot
PUBLIC	?wndMgrEnableSlot@@YAPAU_object@@PAU1@0@Z	; wndMgrEnableSlot
PUBLIC	?wndMgrDisableSlot@@YAPAU_object@@PAU1@0@Z	; wndMgrDisableSlot
PUBLIC	?wndMgrSetUnusableSlot@@YAPAU_object@@PAU1@0@Z	; wndMgrSetUnusableSlot
PUBLIC	?wndMgrSetUsableSlot@@YAPAU_object@@PAU1@0@Z	; wndMgrSetUsableSlot
PUBLIC	?wndMgrShowSlotBaseImage@@YAPAU_object@@PAU1@0@Z ; wndMgrShowSlotBaseImage
PUBLIC	?wndMgrHideSlotBaseImage@@YAPAU_object@@PAU1@0@Z ; wndMgrHideSlotBaseImage
PUBLIC	?wndMgrSetSlotType@@YAPAU_object@@PAU1@0@Z	; wndMgrSetSlotType
PUBLIC	?wndMgrSetSlotStyle@@YAPAU_object@@PAU1@0@Z	; wndMgrSetSlotStyle
PUBLIC	?wndMgrSelectSlot@@YAPAU_object@@PAU1@0@Z	; wndMgrSelectSlot
PUBLIC	?wndMgrClearSelected@@YAPAU_object@@PAU1@0@Z	; wndMgrClearSelected
PUBLIC	?wndMgrGetSelectedSlotCount@@YAPAU_object@@PAU1@0@Z ; wndMgrGetSelectedSlotCount
PUBLIC	?wndMgrGetSelectedSlotNumber@@YAPAU_object@@PAU1@0@Z ; wndMgrGetSelectedSlotNumber
PUBLIC	?wndMgrIsSelectedSlot@@YAPAU_object@@PAU1@0@Z	; wndMgrIsSelectedSlot
PUBLIC	?wndMgrGetSlotCount@@YAPAU_object@@PAU1@0@Z	; wndMgrGetSlotCount
PUBLIC	?wndMgrLockSlot@@YAPAU_object@@PAU1@0@Z		; wndMgrLockSlot
PUBLIC	?wndMgrUnlockSlot@@YAPAU_object@@PAU1@0@Z	; wndMgrUnlockSlot
PUBLIC	?wndBarSetColor@@YAPAU_object@@PAU1@0@Z		; wndBarSetColor
PUBLIC	?wndMgrAttachIcon@@YAPAU_object@@PAU1@0@Z	; wndMgrAttachIcon
PUBLIC	?wndMgrDeattachIcon@@YAPAU_object@@PAU1@0@Z	; wndMgrDeattachIcon
PUBLIC	?wndMgrSetAttachingFlag@@YAPAU_object@@PAU1@0@Z	; wndMgrSetAttachingFlag
PUBLIC	?wndTextSetMax@@YAPAU_object@@PAU1@0@Z		; wndTextSetMax
PUBLIC	?wndTextSetHorizontalAlign@@YAPAU_object@@PAU1@0@Z ; wndTextSetHorizontalAlign
PUBLIC	?wndTextSetVerticalAlign@@YAPAU_object@@PAU1@0@Z ; wndTextSetVerticalAlign
PUBLIC	?wndTextSetSecret@@YAPAU_object@@PAU1@0@Z	; wndTextSetSecret
PUBLIC	?wndTextSetOutline@@YAPAU_object@@PAU1@0@Z	; wndTextSetOutline
PUBLIC	?wndTextSetFeather@@YAPAU_object@@PAU1@0@Z	; wndTextSetFeather
PUBLIC	?wndTextSetMultiLine@@YAPAU_object@@PAU1@0@Z	; wndTextSetMultiLine
PUBLIC	?wndTextSetFontName@@YAPAU_object@@PAU1@0@Z	; wndTextSetFontName
PUBLIC	?wndTextSetFontColor@@YAPAU_object@@PAU1@0@Z	; wndTextSetFontColor
PUBLIC	?wndTextSetLimitWidth@@YAPAU_object@@PAU1@0@Z	; wndTextSetLimitWidth
PUBLIC	?wndTextSetText@@YAPAU_object@@PAU1@0@Z		; wndTextSetText
PUBLIC	?wndTextGetSpecificTextWidth@@YAPAU_object@@PAU1@0@Z ; wndTextGetSpecificTextWidth
PUBLIC	?wndTextGetText@@YAPAU_object@@PAU1@0@Z		; wndTextGetText
PUBLIC	?wndTextSetTextClip@@YAPAU_object@@PAU1@0@Z	; wndTextSetTextClip
PUBLIC	?wndTextGetTextSize@@YAPAU_object@@PAU1@0@Z	; wndTextGetTextSize
PUBLIC	?wndTextShowCursor@@YAPAU_object@@PAU1@0@Z	; wndTextShowCursor
PUBLIC	?wndTextHideCursor@@YAPAU_object@@PAU1@0@Z	; wndTextHideCursor
PUBLIC	?wndTextIsShowCursor@@YAPAU_object@@PAU1@0@Z	; wndTextIsShowCursor
PUBLIC	?wndTextGetCursorPosition@@YAPAU_object@@PAU1@0@Z ; wndTextGetCursorPosition
PUBLIC	?wndTextGetCharPositionByCursor@@YAPAU_object@@PAU1@0@Z ; wndTextGetCharPositionByCursor
PUBLIC	?wndTextPositionToRenderPosition@@YAPAU_object@@PAU1@0@Z ; wndTextPositionToRenderPosition
PUBLIC	?wndNumberSetNumber@@YAPAU_object@@PAU1@0@Z	; wndNumberSetNumber
PUBLIC	?wndNumberSetNumberHorizontalAlignCenter@@YAPAU_object@@PAU1@0@Z ; wndNumberSetNumberHorizontalAlignCenter
PUBLIC	?wndNumberSetNumberHorizontalAlignRight@@YAPAU_object@@PAU1@0@Z ; wndNumberSetNumberHorizontalAlignRight
PUBLIC	?wndNumberSetNumberVerticalAlignCenter@@YAPAU_object@@PAU1@0@Z ; wndNumberSetNumberVerticalAlignCenter
PUBLIC	?wndNumberSetPath@@YAPAU_object@@PAU1@0@Z	; wndNumberSetPath
PUBLIC	?wndMarkBox_SetImageFilename@@YAPAU_object@@PAU1@0@Z ; wndMarkBox_SetImageFilename
PUBLIC	?wndMarkBox_SetImage@@YAPAU_object@@PAU1@0@Z	; wndMarkBox_SetImage
PUBLIC	?wndMarkBox_Load@@YAPAU_object@@PAU1@0@Z	; wndMarkBox_Load
PUBLIC	?wndMarkBox_SetIndex@@YAPAU_object@@PAU1@0@Z	; wndMarkBox_SetIndex
PUBLIC	?wndMarkBox_SetScale@@YAPAU_object@@PAU1@0@Z	; wndMarkBox_SetScale
PUBLIC	?wndMarkBox_SetDiffuseColor@@YAPAU_object@@PAU1@0@Z ; wndMarkBox_SetDiffuseColor
PUBLIC	?wndImageLoadImage@@YAPAU_object@@PAU1@0@Z	; wndImageLoadImage
PUBLIC	?wndImageSetDiffuseColor@@YAPAU_object@@PAU1@0@Z ; wndImageSetDiffuseColor
PUBLIC	?wndImageGetWidth@@YAPAU_object@@PAU1@0@Z	; wndImageGetWidth
PUBLIC	?wndImageGetHeight@@YAPAU_object@@PAU1@0@Z	; wndImageGetHeight
PUBLIC	?wndImageGetTexturePtr@@YAPAU_object@@PAU1@0@Z	; wndImageGetTexturePtr
PUBLIC	?wndImageSetScale@@YAPAU_object@@PAU1@0@Z	; wndImageSetScale
PUBLIC	?wndImageSetOrigin@@YAPAU_object@@PAU1@0@Z	; wndImageSetOrigin
PUBLIC	?wndImageSetRotation@@YAPAU_object@@PAU1@0@Z	; wndImageSetRotation
PUBLIC	?wndImageSetRenderingMode@@YAPAU_object@@PAU1@0@Z ; wndImageSetRenderingMode
PUBLIC	?wndImageSetDelay@@YAPAU_object@@PAU1@0@Z	; wndImageSetDelay
PUBLIC	?wndImageGetDelay@@YAPAU_object@@PAU1@0@Z	; wndImageGetDelay
PUBLIC	?wndImageAppendImage@@YAPAU_object@@PAU1@0@Z	; wndImageAppendImage
PUBLIC	?wndImageResetFrame@@YAPAU_object@@PAU1@0@Z	; wndImageResetFrame
PUBLIC	?wndButtonSetUpVisual@@YAPAU_object@@PAU1@0@Z	; wndButtonSetUpVisual
PUBLIC	?wndButtonSetOverVisual@@YAPAU_object@@PAU1@0@Z	; wndButtonSetOverVisual
PUBLIC	?wndButtonSetDownVisual@@YAPAU_object@@PAU1@0@Z	; wndButtonSetDownVisual
PUBLIC	?wndButtonSetDisableVisual@@YAPAU_object@@PAU1@0@Z ; wndButtonSetDisableVisual
PUBLIC	?wndButtonGetUpVisualFileName@@YAPAU_object@@PAU1@0@Z ; wndButtonGetUpVisualFileName
PUBLIC	?wndButtonGetOverVisualFileName@@YAPAU_object@@PAU1@0@Z ; wndButtonGetOverVisualFileName
PUBLIC	?wndButtonGetDownVisualFileName@@YAPAU_object@@PAU1@0@Z ; wndButtonGetDownVisualFileName
PUBLIC	?wndButtonFlash@@YAPAU_object@@PAU1@0@Z		; wndButtonFlash
PUBLIC	?wndButtonEnable@@YAPAU_object@@PAU1@0@Z	; wndButtonEnable
PUBLIC	?wndButtonDisable@@YAPAU_object@@PAU1@0@Z	; wndButtonDisable
PUBLIC	?wndButtonIsEnabled@@YAPAU_object@@PAU1@0@Z	; wndButtonIsEnabled
PUBLIC	?wndButtonDown@@YAPAU_object@@PAU1@0@Z		; wndButtonDown
PUBLIC	?wndButtonSetUp@@YAPAU_object@@PAU1@0@Z		; wndButtonSetUp
PUBLIC	?wndButtonSetRestrictMovementArea@@YAPAU_object@@PAU1@0@Z ; wndButtonSetRestrictMovementArea
PUBLIC	?wndButtonIsDown@@YAPAU_object@@PAU1@0@Z	; wndButtonIsDown
PUBLIC	?wndMgrSetOutlineFlag@@YAPAU_object@@PAU1@0@Z	; wndMgrSetOutlineFlag
PUBLIC	?wndMgrShowOverInWindowName@@YAPAU_object@@PAU1@0@Z ; wndMgrShowOverInWindowName
PUBLIC	?wndMgrIsActivatedSlot@@YAPAU_object@@PAU1@0@Z	; wndMgrIsActivatedSlot
PUBLIC	?wndMgrGetSlotCoolTime@@YAPAU_object@@PAU1@0@Z	; wndMgrGetSlotCoolTime
PUBLIC	?wndMgrEnableSlotCoverImage@@YAPAU_object@@PAU1@0@Z ; wndMgrEnableSlotCoverImage
PUBLIC	?wndMgrDisableSlotCoverImage@@YAPAU_object@@PAU1@0@Z ; wndMgrDisableSlotCoverImage
PUBLIC	?wndMgrActivateChangeLookSlot@@YAPAU_object@@PAU1@0@Z ; wndMgrActivateChangeLookSlot
PUBLIC	?wndMgrDeactivateChangeLookSlot@@YAPAU_object@@PAU1@0@Z ; wndMgrDeactivateChangeLookSlot
PUBLIC	?wndMgrGetItemIndex@@YAPAU_object@@PAU1@0@Z	; wndMgrGetItemIndex
PUBLIC	?wndMgrRegisterWikiRenderTarget@@YAPAU_object@@PAU1@0@Z ; wndMgrRegisterWikiRenderTarget
PUBLIC	?wndMgrSetInsideRender@@YAPAU_object@@PAU1@0@Z	; wndMgrSetInsideRender
PUBLIC	?wndSetRenderingRect@@YAPAU_object@@PAU1@0@Z	; wndSetRenderingRect
PUBLIC	?wndMgrGetRenderBox@@YAPAU_object@@PAU1@0@Z	; wndMgrGetRenderBox
PUBLIC	?wndMgrSetWikiRenderTarget@@YAPAU_object@@PAU1@0@Z ; wndMgrSetWikiRenderTarget
PUBLIC	?wndTextSetFixedRenderPos@@YAPAU_object@@PAU1@0@Z ; wndTextSetFixedRenderPos
PUBLIC	?wndTextGetRenderPos@@YAPAU_object@@PAU1@0@Z	; wndTextGetRenderPos
PUBLIC	?wndImageUnloadImage@@YAPAU_object@@PAU1@0@Z	; wndImageUnloadImage
PUBLIC	?wndMgrRegisterRenderTarget@@YAPAU_object@@PAU1@0@Z ; wndMgrRegisterRenderTarget
PUBLIC	?wndRenderTargetLoadImage@@YAPAU_object@@PAU1@0@Z ; wndRenderTargetLoadImage
PUBLIC	?wndRenderTargetSetRenderTarget@@YAPAU_object@@PAU1@0@Z ; wndRenderTargetSetRenderTarget
PUBLIC	?wndRenderTargetSetRenderHair@@YAPAU_object@@PAU1@0@Z ; wndRenderTargetSetRenderHair
PUBLIC	?wndRenderTargetSetRenderArmor@@YAPAU_object@@PAU1@0@Z ; wndRenderTargetSetRenderArmor
PUBLIC	?wndRenderTargetSetRenderWeapon@@YAPAU_object@@PAU1@0@Z ; wndRenderTargetSetRenderWeapon
PUBLIC	?wndRenderTargetSetRenderSash@@YAPAU_object@@PAU1@0@Z ; wndRenderTargetSetRenderSash
PUBLIC	?wndRenderTargetSetRendererMotion@@YAPAU_object@@PAU1@0@Z ; wndRenderTargetSetRendererMotion
PUBLIC	?wndRenderTargetSetRenderDistance@@YAPAU_object@@PAU1@0@Z ; wndRenderTargetSetRenderDistance
PUBLIC	?wndRenderTargetGetRenderDistance@@YAPAU_object@@PAU1@0@Z ; wndRenderTargetGetRenderDistance
PUBLIC	?wndRenderTargetSetLightPosition@@YAPAU_object@@PAU1@0@Z ; wndRenderTargetSetLightPosition
PUBLIC	?wndRenderTargetGetLightPosition@@YAPAU_object@@PAU1@0@Z ; wndRenderTargetGetLightPosition
PUBLIC	?wndRenderTargetSetRotation@@YAPAU_object@@PAU1@0@Z ; wndRenderTargetSetRotation
PUBLIC	?wndRenderTargetGetRotation@@YAPAU_object@@PAU1@0@Z ; wndRenderTargetGetRotation
PUBLIC	?wndRenderTargetSetRotationMode@@YAPAU_object@@PAU1@0@Z ; wndRenderTargetSetRotationMode
PUBLIC	?wndRenderTargetDestroyRender@@YAPAU_object@@PAU1@0@Z ; wndRenderTargetDestroyRender
PUBLIC	?wndMgrLockCursor@@YAPAU_object@@PAU1@0@Z	; wndMgrLockCursor
PUBLIC	?wndMgrUnlockCursor@@YAPAU_object@@PAU1@0@Z	; wndMgrUnlockCursor
PUBLIC	?wndMgrSetSlotBaseImageScale@@YAPAU_object@@PAU1@0@Z ; wndMgrSetSlotBaseImageScale
PUBLIC	?wndMgrSetSlotScale@@YAPAU_object@@PAU1@0@Z	; wndMgrSetSlotScale
PUBLIC	?wndMgrSetCoolTimeImageBox@@YAPAU_object@@PAU1@0@Z ; wndMgrSetCoolTimeImageBox
PUBLIC	?wndMgrSetStartCoolTimeImageBox@@YAPAU_object@@PAU1@0@Z ; wndMgrSetStartCoolTimeImageBox
PUBLIC	??$_Is_all_bits_zero@M@std@@YA_NABM@Z		; std::_Is_all_bits_zero<float>
PUBLIC	??$_Fill_zero_memset@PAM@std@@YAXPAMI@Z		; std::_Fill_zero_memset<float *>
PUBLIC	?_OptionsStorage@?1??__local_stdio_printf_options@@9@4_KA ; `__local_stdio_printf_options'::`2'::_OptionsStorage
PUBLIC	??_7exception@std@@6B@				; std::exception::`vftable'
PUBLIC	??_C@_0BC@EOODALEL@Unknown?5exception@		; `string'
PUBLIC	??_7bad_alloc@std@@6B@				; std::bad_alloc::`vftable'
PUBLIC	??_7bad_array_new_length@std@@6B@		; std::bad_array_new_length::`vftable'
PUBLIC	??_C@_0BF@KINCDENJ@bad?5array?5new?5length@	; `string'
PUBLIC	__TI3?AVbad_array_new_length@std@@
PUBLIC	__CTA3?AVbad_array_new_length@std@@
PUBLIC	??_R0?AVbad_array_new_length@std@@@8		; std::bad_array_new_length `RTTI Type Descriptor'
PUBLIC	__CT??_R0?AVbad_array_new_length@std@@@8??0bad_array_new_length@std@@QAE@ABV01@@Z12
PUBLIC	??_R0?AVbad_alloc@std@@@8			; std::bad_alloc `RTTI Type Descriptor'
PUBLIC	__CT??_R0?AVbad_alloc@std@@@8??0bad_alloc@std@@QAE@ABV01@@Z12
PUBLIC	??_R0?AVexception@std@@@8			; std::exception `RTTI Type Descriptor'
PUBLIC	__CT??_R0?AVexception@std@@@8??0exception@std@@QAE@ABV01@@Z12
PUBLIC	?ms_singleton@?$CSingleton@VCWindowManager@UI@@@@0PAVCWindowManager@UI@@A ; CSingleton<UI::CWindowManager>::ms_singleton
PUBLIC	??_C@_0BA@FOIKENOD@vector?5too?5long@		; `string'
PUBLIC	??_R4exception@std@@6B@				; std::exception::`RTTI Complete Object Locator'
PUBLIC	??_R3exception@std@@8				; std::exception::`RTTI Class Hierarchy Descriptor'
PUBLIC	??_R2exception@std@@8				; std::exception::`RTTI Base Class Array'
PUBLIC	??_R1A@?0A@EA@exception@std@@8			; std::exception::`RTTI Base Class Descriptor at (0,-1,0,64)'
PUBLIC	??_R4bad_alloc@std@@6B@				; std::bad_alloc::`RTTI Complete Object Locator'
PUBLIC	??_R3bad_alloc@std@@8				; std::bad_alloc::`RTTI Class Hierarchy Descriptor'
PUBLIC	??_R2bad_alloc@std@@8				; std::bad_alloc::`RTTI Base Class Array'
PUBLIC	??_R1A@?0A@EA@bad_alloc@std@@8			; std::bad_alloc::`RTTI Base Class Descriptor at (0,-1,0,64)'
PUBLIC	??_R4bad_array_new_length@std@@6B@		; std::bad_array_new_length::`RTTI Complete Object Locator'
PUBLIC	??_R3bad_array_new_length@std@@8		; std::bad_array_new_length::`RTTI Class Hierarchy Descriptor'
PUBLIC	??_R2bad_array_new_length@std@@8		; std::bad_array_new_length::`RTTI Base Class Array'
PUBLIC	??_R1A@?0A@EA@bad_array_new_length@std@@8	; std::bad_array_new_length::`RTTI Base Class Descriptor at (0,-1,0,64)'
PUBLIC	??_C@_01INIBCBCB@f@				; `string'
PUBLIC	??_C@_01KBJDNOO@i@				; `string'
PUBLIC	??_C@_01OJONOECF@b@				; `string'
PUBLIC	??_C@_01LKDEMHDF@s@				; `string'
PUBLIC	??_C@_02PDIHAGKM@ii@				; `string'
PUBLIC	??_C@_04BIOIIFBG@iiii@				; `string'
PUBLIC	??_C@_02OIKAIHIF@s?$CD@				; `string'
PUBLIC	??_C@_08GKKIIJO@moveable@			; `string'
PUBLIC	??_C@_08KCAGBJHE@dragable@			; `string'
PUBLIC	??_C@_06LHJMGKLI@attach@			; `string'
PUBLIC	??_C@_0L@KAJDFNK@restrict_x@			; `string'
PUBLIC	??_C@_0L@BDBCAEJL@restrict_y@			; `string'
PUBLIC	??_C@_05KNFBNCOH@float@				; `string'
PUBLIC	??_C@_08BCAHNCDJ@not_pick@			; `string'
PUBLIC	??_C@_0M@HHFJIJHL@ignore_size@			; `string'
PUBLIC	??_C@_03IFDNKMND@rtl@				; `string'
PUBLIC	??_C@_07NLKEJFGN@animate@			; `string'
PUBLIC	??_C@_07BNIMILPP@movable@			; `string'
PUBLIC	??_C@_05GADAOHMC@limit@				; `string'
PUBLIC	??_C@_03OBLKLDKA@ltr@				; `string'
PUBLIC	??_C@_0BH@KIGIHPAM@Unknown?5window?5flag?5?$CFs@ ; `string'
PUBLIC	??_C@_0CH@FFGFLEBP@wndMgr?4ArrangeSlot?5?3?5not?5a?5grid@ ; `string'
PUBLIC	??_C@_0CH@HCFLPGH@wndMgr?4ArrangeSlot?5?3?5not?5a?5slot@ ; `string'
PUBLIC	??_C@_04INACLLOK@?$CIii?$CJ@			; `string'
PUBLIC	??_C@_03GLKMLICL@iii@				; `string'
PUBLIC	??_C@_0CE@HBOEBFCG@Failed?5to?5load?5image?5?$CIfilename?3@ ; `string'
PUBLIC	??_C@_02HPEDFNFO@ff@				; `string'
PUBLIC	??_C@_0BJ@DFGPKJEH@Failed?5to?5load?5image?3?5?$CFs@ ; `string'
PUBLIC	??_C@_03LPALPDIP@fff@				; `string'
PUBLIC	??_C@_0CF@BAOIDONM@wndMgr?4ArrangeSlot?3not?5a?5slot?5w@ ; `string'
PUBLIC	??_C@_0DC@NJMLLDNJ@d?3?1ymir?5work?1ui?1game?112zi?1time_@ ; `string'
PUBLIC	??_C@_0DB@CIHHCLAG@d?3?1ymir?5work?1ui?1game?112zi?1time_@ ; `string'
PUBLIC	??_C@_0BA@PPCHHCMN@SetMouseHandler@		; `string'
PUBLIC	??_C@_0O@EPGNIIPM@SetScreenSize@		; `string'
PUBLIC	??_C@_0P@OBMNGDMB@GetScreenWidth@		; `string'
PUBLIC	??_C@_0BA@PLLJJDCL@GetScreenHeight@		; `string'
PUBLIC	??_C@_0L@FHGOOMIM@AttachIcon@			; `string'
PUBLIC	??_C@_0N@HIMEHEBA@DeattachIcon@			; `string'
PUBLIC	??_C@_0BB@OJBFCDNH@SetAttachingFlag@		; `string'
PUBLIC	??_C@_09MFNPPPAG@GetAspect@			; `string'
PUBLIC	??_C@_0N@PCIKAOKG@GetHyperlink@			; `string'
PUBLIC	??_C@_0CB@JDNFNFMG@OnceIgnoreMouseLeftButtonUpEven@ ; `string'
PUBLIC	??_C@_08LFIJLPOM@Register@			; `string'
PUBLIC	??_C@_0BD@HNEHNBHO@RegisterSlotWindow@		; `string'
PUBLIC	??_C@_0BH@HHDOCCCO@RegisterGridSlotWindow@	; `string'
PUBLIC	??_C@_0BB@JKLFNGCE@RegisterTextLine@		; `string'
PUBLIC	??_C@_0BA@BLOHJECG@RegisterMarkBox@		; `string'
PUBLIC	??_C@_0BB@CGJHKCPO@RegisterImageBox@		; `string'
PUBLIC	??_C@_0BJ@HCLPCLBM@RegisterExpandedImageBox@	; `string'
PUBLIC	??_C@_0BE@EHOJIJPF@RegisterAniImageBox@		; `string'
PUBLIC	??_C@_0P@HIFEMCKE@RegisterButton@		; `string'
PUBLIC	??_C@_0BE@LOKOGAFI@RegisterRadioButton@		; `string'
PUBLIC	??_C@_0BF@LKPDMOKE@RegisterToggleButton@	; `string'
PUBLIC	??_C@_0BD@FJKAFMBK@RegisterDragButton@		; `string'
PUBLIC	??_C@_0M@MCLBEPNH@RegisterBox@			; `string'
PUBLIC	??_C@_0M@DCMAIKFH@RegisterBar@			; `string'
PUBLIC	??_C@_0N@ICAPFHKF@RegisterLine@			; `string'
PUBLIC	??_C@_0O@EKKPECKF@RegisterBar3D@		; `string'
PUBLIC	??_C@_0BD@DBAMBKME@RegisterNumberLine@		; `string'
PUBLIC	??_C@_07BDCAJABG@Destroy@			; `string'
PUBLIC	??_C@_07FGJMHOHK@AddFlag@			; `string'
PUBLIC	??_C@_0L@DFOIPDPL@RemoveFlag@			; `string'
PUBLIC	??_C@_05IOGFNOKL@IsRTL@				; `string'
PUBLIC	??_C@_07DEJFEJPJ@SetName@			; `string'
PUBLIC	??_C@_07MMGEHGCI@GetName@			; `string'
PUBLIC	??_C@_06MBOGGFD@SetTop@				; `string'
PUBLIC	??_C@_05PAMDPCPJ@IsTop@				; `string'
PUBLIC	??_C@_04JLAJABDJ@Show@				; `string'
PUBLIC	??_C@_04EACEFPPN@Hide@				; `string'
PUBLIC	??_C@_06JMGCGGJP@IsShow@			; `string'
PUBLIC	??_C@_09BGDFCKEN@SetParent@			; `string'
PUBLIC	??_C@_0O@PGINCMBF@SetPickAlways@		; `string'
PUBLIC	??_C@_07MMFHOCGI@IsFocus@			; `string'
PUBLIC	??_C@_08GPNNBNIL@SetFocus@			; `string'
PUBLIC	??_C@_09PMGFBOMK@KillFocus@			; `string'
PUBLIC	??_C@_04LADJNOK@Lock@				; `string'
PUBLIC	??_C@_06NCJPDCLH@Unlock@			; `string'
PUBLIC	??_C@_0O@OOGBNGFB@SetWindowSize@		; `string'
PUBLIC	??_C@_0BC@CONADAIE@SetWindowPosition@		; `string'
PUBLIC	??_C@_0P@EJALLAMK@GetWindowWidth@		; `string'
PUBLIC	??_C@_0BA@GMMDIMHA@GetWindowHeight@		; `string'
PUBLIC	??_C@_0BH@KEOBHEHD@GetWindowLocalPosition@	; `string'
PUBLIC	??_C@_0BI@NOJPNPDO@GetWindowGlobalPosition@	; `string'
PUBLIC	??_C@_0O@KGOHEIMB@GetWindowRect@		; `string'
PUBLIC	??_C@_0BJ@FGPBHCAH@SetWindowHorizontalAlign@	; `string'
PUBLIC	??_C@_0BH@KDPMNJIB@SetWindowVerticalAlign@	; `string'
PUBLIC	??_C@_0O@HMBCELHA@GetChildCount@		; `string'
PUBLIC	??_C@_0P@GEIEEBJH@IsPickedWindow@		; `string'
PUBLIC	??_C@_04JBIBMNMO@IsIn@				; `string'
PUBLIC	??_C@_0BG@NHBHOLBI@GetMouseLocalPosition@	; `string'
PUBLIC	??_C@_0BB@MMLACOLH@GetMousePosition@		; `string'
PUBLIC	??_C@_0L@HEPBODCJ@IsDragging@			; `string'
PUBLIC	??_C@_0N@CCOOMDHD@SetLimitBias@			; `string'
PUBLIC	??_C@_0L@HJOBPCKA@UpdateRect@			; `string'
PUBLIC	??_C@_0L@FDCINHBF@AppendSlot@			; `string'
PUBLIC	??_C@_0M@OFNEHKDL@ArrangeSlot@			; `string'
PUBLIC	??_C@_09CGBENBJB@ClearSlot@			; `string'
PUBLIC	??_C@_0N@MMOLDNHK@ClearAllSlot@			; `string'
PUBLIC	??_C@_07MGEJAMLP@HasSlot@			; `string'
PUBLIC	??_C@_07ONCDFGJ@SetSlot@			; `string'
PUBLIC	??_C@_0N@IEAMEDFH@SetSlotCount@			; `string'
PUBLIC	??_C@_0BA@OOLIKBKI@SetSlotCountNew@		; `string'
PUBLIC	??_C@_0BA@OKBNFKML@SetSlotCoolTime@		; `string'
PUBLIC	??_C@_0O@FJKNHKBL@SetToggleSlot@		; `string'
PUBLIC	??_C@_0N@HFCIPMIE@ActivateSlot@			; `string'
PUBLIC	??_C@_0P@FGAIANEO@DeactivateSlot@		; `string'
PUBLIC	??_C@_0BA@GGAABDOP@NewActivateSlot@		; `string'
PUBLIC	??_C@_0BC@OALEFDOD@NewDeactivateSlot@		; `string'
PUBLIC	??_C@_0L@DHCLIIGL@EnableSlot@			; `string'
PUBLIC	??_C@_0M@EKMKGECP@DisableSlot@			; `string'
PUBLIC	??_C@_0BA@PMAALDEC@SetUnusableSlot@		; `string'
PUBLIC	??_C@_0O@JOELLDFD@SetUsableSlot@		; `string'
PUBLIC	??_C@_0BC@DHCKDEOK@ShowSlotBaseImage@		; `string'
PUBLIC	??_C@_0BC@NFMHNFLM@HideSlotBaseImage@		; `string'
PUBLIC	??_C@_0M@KHOHGEMH@SetSlotType@			; `string'
PUBLIC	??_C@_0N@IKGBKPJJ@SetSlotStyle@			; `string'
PUBLIC	??_C@_0BB@IOMAJEMI@SetSlotBaseImage@		; `string'
PUBLIC	??_C@_0P@JKHNGGPA@SetCoverButton@		; `string'
PUBLIC	??_C@_0BC@GDLBPCHF@EnableCoverButton@		; `string'
PUBLIC	??_C@_0BD@DOJCOOMI@DisableCoverButton@		; `string'
PUBLIC	??_C@_0BF@ILDMDDMH@IsDisableCoverButton@	; `string'
PUBLIC	??_C@_0BL@PAFAGEGB@SetAlwaysRenderCoverButton@	; `string'
PUBLIC	??_C@_0BC@POMJDPJH@DeleteCoverButton@		; `string'
PUBLIC	??_C@_0P@BOOMPDBD@GetSlotIndices@		; `string'
PUBLIC	??_C@_0BB@LLDDGEIL@AppendSlotButton@		; `string'
PUBLIC	??_C@_0BL@CCGBCIBD@AppendRequirementSignImage@	; `string'
PUBLIC	??_C@_0P@CINLEJEK@ShowSlotButton@		; `string'
PUBLIC	??_C@_0BC@IHMDJONI@HideAllSlotButton@		; `string'
PUBLIC	??_C@_0BE@IGOEKEDL@ShowRequirementSign@		; `string'
PUBLIC	??_C@_0BE@LNAIGOOK@HideRequirementSign@		; `string'
PUBLIC	??_C@_0M@NAPCHMAM@RefreshSlot@			; `string'
PUBLIC	??_C@_0L@ODKIIGJF@SetUseMode@			; `string'
PUBLIC	??_C@_09LLPJGKLN@IsUseMode@			; `string'
PUBLIC	??_C@_0O@LHCBGPMO@SetUsableItem@		; `string'
PUBLIC	??_C@_0N@GPNIKFEM@IsUsableItem@			; `string'
PUBLIC	??_C@_0O@KGCGGKBF@SetSwitchMode@		; `string'
PUBLIC	??_C@_0N@HONPKAJH@IsSwitchMode@			; `string'
PUBLIC	??_C@_0BC@DNDCFHHB@SetSwitchableItem@		; `string'
PUBLIC	??_C@_0BB@KLCMDKEF@IsSwitchableItem@		; `string'
PUBLIC	??_C@_0BE@NIFHGONC@GetPickedSlotNumber@		; `string'
PUBLIC	??_C@_0BJ@MHPLGOEE@SetSlotHighlightedGreeen@	; `string'
PUBLIC	??_C@_0BM@HGKBMEM@DisableSlotHighlightedGreen@	; `string'
PUBLIC	??_C@_0L@EMMADCIN@SelectSlot@			; `string'
PUBLIC	??_C@_0O@OGHLMGNI@ClearSelected@		; `string'
PUBLIC	??_C@_0BF@EECMELAK@GetSelectedSlotCount@	; `string'
PUBLIC	??_C@_0BG@DJKADEKA@GetSelectedSlotNumber@	; `string'
PUBLIC	??_C@_0P@GKJOEMLC@IsSelectedSlot@		; `string'
PUBLIC	??_C@_0N@PALCIPBL@GetSlotCount@			; `string'
PUBLIC	??_C@_08PGGNMNPL@LockSlot@			; `string'
PUBLIC	??_C@_0L@DPNFKPLP@UnlockSlot@			; `string'
PUBLIC	??_C@_08GPNJILIJ@SetColor@			; `string'
PUBLIC	??_C@_06ODEINJEE@SetMax@			; `string'
PUBLIC	??_C@_0BD@FCLDCEMA@SetHorizontalAlign@		; `string'
PUBLIC	??_C@_0BB@NKHPOFIC@SetVerticalAlign@		; `string'
PUBLIC	??_C@_09CAFHEMDD@SetSecret@			; `string'
PUBLIC	??_C@_0L@HBNEJDMM@SetOutline@			; `string'
PUBLIC	??_C@_0L@LLKEFHFA@SetFeather@			; `string'
PUBLIC	??_C@_0N@FKMHLJHG@SetMultiLine@			; `string'
PUBLIC	??_C@_07NIJDBDAG@SetText@			; `string'
PUBLIC	??_C@_0BF@ECGKBOOD@GetSpecificTextWidth@	; `string'
PUBLIC	??_C@_0M@MCELKPNO@SetFontName@			; `string'
PUBLIC	??_C@_0N@MKCFOAAE@SetFontColor@			; `string'
PUBLIC	??_C@_0O@FIAFKHF@SetLimitWidth@			; `string'
PUBLIC	??_C@_07CAGCCMNH@GetText@			; `string'
PUBLIC	??_C@_0M@CLFAHCCE@SetClipRect@			; `string'
PUBLIC	??_C@_0M@JOAAGILP@GetTextSize@			; `string'
PUBLIC	??_C@_0L@BIENLPGM@ShowCursor@			; `string'
PUBLIC	??_C@_0L@MGJDDPFG@HideCursor@			; `string'
PUBLIC	??_C@_0BC@DJJGDMOB@GetCursorPosition@		; `string'
PUBLIC	??_C@_0BI@OPEAHLID@GetCharPositionByCursor@	; `string'
PUBLIC	??_C@_0BN@OOPFPLJK@TextPositionToRenderPosition@ ; `string'
PUBLIC	??_C@_09JMPLPNNO@SetNumber@			; `string'
PUBLIC	??_C@_0BP@JHALFFJF@SetNumberHorizontalAlignCenter@ ; `string'
PUBLIC	??_C@_0BO@FBBAAHKK@SetNumberHorizontalAlignRight@ ; `string'
PUBLIC	??_C@_0BN@MCDEBAKA@SetNumberVerticalAlignCenter@ ; `string'
PUBLIC	??_C@_07ENBMIGKI@SetPath@			; `string'
PUBLIC	??_C@_0BB@FMJJKPIM@MarkBox_SetImage@		; `string'
PUBLIC	??_C@_0BJ@PJODLBON@MarkBox_SetImageFilename@	; `string'
PUBLIC	??_C@_0N@FLKGJMCL@MarkBox_Load@			; `string'
PUBLIC	??_C@_0BB@NAAPJNBM@MarkBox_SetIndex@		; `string'
PUBLIC	??_C@_0BB@ENLBNPPB@MarkBox_SetScale@		; `string'
PUBLIC	??_C@_0BI@JCKPADLG@MarkBox_SetDiffuseColor@	; `string'
PUBLIC	??_C@_09OHOMMMHI@LoadImage@			; `string'
PUBLIC	??_C@_0BA@CAEBLOMF@SetDiffuseColor@		; `string'
PUBLIC	??_C@_08OMBILDHM@GetWidth@			; `string'
PUBLIC	??_C@_09EOGEIJMK@GetHeight@			; `string'
PUBLIC	??_C@_0O@IOPMOINL@GetTexturePtr@		; `string'
PUBLIC	??_C@_08FMFAIGAB@SetScale@			; `string'
PUBLIC	??_C@_09KLKDEBJ@SetOrigin@			; `string'
PUBLIC	??_C@_0M@GNIHGJGG@SetRotation@			; `string'
PUBLIC	??_C@_0BB@GIEHGKNO@SetRenderingMode@		; `string'
PUBLIC	??_C@_08NBAGFHFB@SetDelay@			; `string'
PUBLIC	??_C@_08CACKEECM@GetDelay@			; `string'
PUBLIC	??_C@_0M@BEJGDBIJ@AppendImage@			; `string'
PUBLIC	??_C@_0L@ELGKENBM@ResetFrame@			; `string'
PUBLIC	??_C@_0M@IIELPGEP@SetUpVisual@			; `string'
PUBLIC	??_C@_0O@KOIDMFK@SetOverVisual@			; `string'
PUBLIC	??_C@_0O@FLFAFPKP@SetDownVisual@		; `string'
PUBLIC	??_C@_0BB@JCGDBIB@SetDisableVisual@		; `string'
PUBLIC	??_C@_0BE@PHOOFGJI@GetUpVisualFileName@		; `string'
PUBLIC	??_C@_0BG@KEALLAJN@GetOverVisualFileName@	; `string'
PUBLIC	??_C@_0BG@FKDEILKI@GetDownVisualFileName@	; `string'
PUBLIC	??_C@_05LDPHIKKB@Flash@				; `string'
PUBLIC	??_C@_06CKGENIKG@Enable@			; `string'
PUBLIC	??_C@_07MIKIFGAL@Disable@			; `string'
PUBLIC	??_C@_09BDCHKIMD@IsEnabled@			; `string'
PUBLIC	??_C@_04FNCLCJMC@Down@				; `string'
PUBLIC	??_C@_05DEOAHOFO@SetUp@				; `string'
PUBLIC	??_C@_06FKEAEOGE@IsDown@			; `string'
PUBLIC	??_C@_0BI@KNEJFEOH@SetRestrictMovementArea@	; `string'
PUBLIC	??_C@_0P@MEHCKPID@SetOutlineFlag@		; `string'
PUBLIC	??_C@_0BF@LFOINEDC@ShowOverInWindowName@	; `string'
PUBLIC	??_C@_0BA@EABPFCGJ@IsActivatedSlot@		; `string'
PUBLIC	??_C@_0BA@NIALCINC@GetSlotCoolTime@		; `string'
PUBLIC	??_C@_0BF@KNCMHHOE@EnableSlotCoverImage@	; `string'
PUBLIC	??_C@_0BG@CELKDGNF@DisableSlotCoverImage@	; `string'
PUBLIC	??_C@_0BH@CMPCAGLC@ActivateChangeLookSlot@	; `string'
PUBLIC	??_C@_0BJ@MFMBAOFE@DeactivateChangeLookSlot@	; `string'
PUBLIC	??_C@_0N@GABOCBEH@GetItemIndex@			; `string'
PUBLIC	??_C@_0BJ@HMEHNAEN@RegisterWikiRenderTarget@	; `string'
PUBLIC	??_C@_0BA@HFECJDNA@SetInsideRender@		; `string'
PUBLIC	??_C@_0BB@LDNMLPHM@SetRenderingRect@		; `string'
PUBLIC	??_C@_0N@JBKJJOBF@GetRenderBox@			; `string'
PUBLIC	??_C@_0BE@OCBDOMML@SetWikiRenderTarget@		; `string'
PUBLIC	??_C@_0BC@FGODMHDE@SetFixedRenderPos@		; `string'
PUBLIC	??_C@_0N@IIENNIMK@GetRenderPos@			; `string'
PUBLIC	??_C@_0M@JGJEPBJD@UnloadImage@			; `string'
PUBLIC	??_C@_0N@BFHCIAEF@IsShowCursor@			; `string'
PUBLIC	??_C@_0BF@FGJJGJFC@RegisterRenderTarget@	; `string'
PUBLIC	??_C@_0N@LGPPCICH@RT_LoadImage@			; `string'
PUBLIC	??_C@_0BD@LAGHGCKG@RT_SetRenderTarget@		; `string'
PUBLIC	??_C@_0BB@PINGAENL@RT_SetRenderHair@		; `string'
PUBLIC	??_C@_0BC@JHCDNNMC@RT_SetRenderArmor@		; `string'
PUBLIC	??_C@_0BD@ENCKMHFE@RT_SetRenderWeapon@		; `string'
PUBLIC	??_C@_0BB@EOHKHODF@RT_SetRenderSash@		; `string'
PUBLIC	??_C@_0BD@KKAOCHFF@RT_SetRenderMotion@		; `string'
PUBLIC	??_C@_0BF@JPMOHCJJ@RT_SetRenderDistance@	; `string'
PUBLIC	??_C@_0BF@LKMFPJIH@RT_GetRenderDistance@	; `string'
PUBLIC	??_C@_0BE@DMCCDBML@RT_SetLightPosition@		; `string'
PUBLIC	??_C@_0BE@FIHLIPHJ@RT_GetLightPosition@		; `string'
PUBLIC	??_C@_0P@PHMDFPIP@RT_SetRotation@		; `string'
PUBLIC	??_C@_0P@PINNIJAM@RT_GetRotation@		; `string'
PUBLIC	??_C@_0BD@IFKGKLGB@RT_SetRotationMode@		; `string'
PUBLIC	??_C@_0BB@NHPNOOEJ@RT_DestroyRender@		; `string'
PUBLIC	??_C@_0L@KLPEDGI@LockCursor@			; `string'
PUBLIC	??_C@_0N@DNBGAAKF@UnlockCursor@			; `string'
PUBLIC	??_C@_0N@MNAMJLHL@SetSlotScale@			; `string'
PUBLIC	??_C@_0BG@FBLNLMGI@SetSlotBaseImageScale@	; `string'
PUBLIC	??_C@_0BE@BJJEKGM@SetCoolTimeImageBox@		; `string'
PUBLIC	??_C@_0BJ@OABJPDB@SetStartCoolTimeImageBox@	; `string'
PUBLIC	??_C@_06CMPPDHLC@wndMgr@			; `string'
PUBLIC	??_C@_0BA@CEBPCJJF@SLOT_STYLE_NONE@		; `string'
PUBLIC	??_C@_0BD@HIHLPNEG@SLOT_STYLE_PICK_UP@		; `string'
PUBLIC	??_C@_0BC@DPNNOEON@SLOT_STYLE_SELECT@		; `string'
PUBLIC	??_C@_0BL@KJOOHAME@TEXT_HORIZONTAL_ALIGN_LEFT@	; `string'
PUBLIC	??_C@_0BM@BDNLMDBC@TEXT_HORIZONTAL_ALIGN_RIGHT@	; `string'
PUBLIC	??_C@_0BN@MHHHIBEN@TEXT_HORIZONTAL_ALIGN_CENTER@ ; `string'
PUBLIC	??_C@_0BI@PIKJCBDF@TEXT_VERTICAL_ALIGN_TOP@	; `string'
PUBLIC	??_C@_0BL@IKMFEFFI@TEXT_VERTICAL_ALIGN_BOTTOM@	; `string'
PUBLIC	??_C@_0BL@GHLEGJOB@TEXT_VERTICAL_ALIGN_CENTER@	; `string'
PUBLIC	??_C@_0BG@CEANPPL@HORIZONTAL_ALIGN_LEFT@	; `string'
PUBLIC	??_C@_0BI@NJMALOKG@HORIZONTAL_ALIGN_CENTER@	; `string'
PUBLIC	??_C@_0BH@KFBGEAIA@HORIZONTAL_ALIGN_RIGHT@	; `string'
PUBLIC	??_C@_0BD@PBJDAEOI@VERTICAL_ALIGN_TOP@		; `string'
PUBLIC	??_C@_0BG@MMBKMGNO@VERTICAL_ALIGN_CENTER@	; `string'
PUBLIC	??_C@_0BG@CBGLOKGH@VERTICAL_ALIGN_BOTTOM@	; `string'
PUBLIC	??_C@_0BI@BNOJCJOH@RENDERING_MODE_MODULATE@	; `string'
PUBLIC	__real@437f0000
PUBLIC	__real@c2be0000
PUBLIC	__xmm@00000003000000040000000500000006
PUBLIC	__xmm@0000000700000008000000090000000a
PUBLIC	__xmm@0000000b0000000c0000000d0000000e
PUBLIC	__xmm@0000000f000000100000001100000012
PUBLIC	__xmm@00000013000000140000001500000016
PUBLIC	__xmm@0000001700000018000000190000001a
PUBLIC	__xmm@0000001b0000001c0000001d0000001e
PUBLIC	__xmm@0000001f000000200000002100000022
PUBLIC	__xmm@00000023000000240000002500000026
PUBLIC	__xmm@0000002700000028000000290000002a
PUBLIC	__xmm@0000002b0000002c0000002d0000002e
PUBLIC	__xmm@0000002f000000300000003100000032
PUBLIC	__xmm@00000033000000340000003500000036
PUBLIC	__xmm@0000003700000038000000390000003a
PUBLIC	__xmm@0000003b0000003c0000003d0000003e
PUBLIC	__xmm@0000003f000000400000004100000042
PUBLIC	__xmm@00000043000000440000004500000046
PUBLIC	__xmm@0000004700000048000000490000004a
PUBLIC	__xmm@0000004b0000004c0000004d0000004e
PUBLIC	__xmm@0000004f000000500000005100000052
PUBLIC	__xmm@00000053000000540000005500000056
PUBLIC	__xmm@0000005700000058000000590000005a
PUBLIC	__xmm@0000005b0000005c0000005d0000005e
PUBLIC	__xmm@3f8000003f8000003f8000003f800000
EXTRN	??2@YAPAXI@Z:PROC				; operator new
EXTRN	??3@YAXPAXI@Z:PROC				; operator delete
EXTRN	___report_rangecheckfailure:PROC
EXTRN	__invalid_parameter_noinfo_noreturn:PROC
EXTRN	___stdio_common_vsprintf:PROC
EXTRN	__stricmp:PROC
EXTRN	___std_exception_copy:PROC
EXTRN	___std_exception_destroy:PROC
EXTRN	??_Eexception@std@@UAEPAXI@Z:PROC		; std::exception::`vector deleting destructor'
EXTRN	??_Ebad_alloc@std@@UAEPAXI@Z:PROC		; std::bad_alloc::`vector deleting destructor'
EXTRN	??_Ebad_array_new_length@std@@UAEPAXI@Z:PROC	; std::bad_array_new_length::`vector deleting destructor'
EXTRN	?_Xlength_error@std@@YAXPBD@Z:PROC		; std::_Xlength_error
EXTRN	?TraceError@@YAXPBDZZ:PROC			; TraceError
EXTRN	__imp__PyTuple_New:PROC
EXTRN	__imp__PyTuple_Size:PROC
EXTRN	__imp__PyTuple_SetItem:PROC
EXTRN	__imp__Py_BuildValue:PROC
EXTRN	__imp__PyModule_AddIntConstant:PROC
EXTRN	__imp__Py_InitModule4:PROC
EXTRN	?PyTuple_GetString@@YA_NPAU_object@@HPAPAD@Z:PROC ; PyTuple_GetString
EXTRN	?PyTuple_GetInteger@@YA_NPAU_object@@HPAH@Z:PROC ; PyTuple_GetInteger
EXTRN	?PyTuple_GetByte@@YA_NPAU_object@@HPAE@Z:PROC	; PyTuple_GetByte
EXTRN	?PyTuple_GetLong@@YA_NPAU_object@@HPAJ@Z:PROC	; PyTuple_GetLong
EXTRN	?PyTuple_GetFloat@@YA_NPAU_object@@HPAM@Z:PROC	; PyTuple_GetFloat
EXTRN	?PyTuple_GetObject@@YA_NPAU_object@@HPAPAU1@@Z:PROC ; PyTuple_GetObject
EXTRN	?PyTuple_GetBoolean@@YA_NPAU_object@@HPA_N@Z:PROC ; PyTuple_GetBoolean
EXTRN	?Py_BuildException@@YAPAU_object@@PBDZZ:PROC	; Py_BuildException
EXTRN	?Py_BadArgument@@YAPAU_object@@XZ:PROC		; Py_BadArgument
EXTRN	?Py_BuildNone@@YAPAU_object@@XZ:PROC		; Py_BuildNone
EXTRN	?GetTexturePointer@CGraphicImageInstance@@QAEPAVCGraphicTexture@@XZ:PROC ; CGraphicImageInstance::GetTexturePointer
EXTRN	?Hyperlink_GetText@CGraphicTextInstance@@SAHPADH@Z:PROC ; CGraphicTextInstance::Hyperlink_GetText
EXTRN	?GetAspect@CWindowManager@UI@@QAEMXZ:PROC	; UI::CWindowManager::GetAspect
EXTRN	?SetScreenSize@CWindowManager@UI@@QAEXJJ@Z:PROC	; UI::CWindowManager::SetScreenSize
EXTRN	?SetMouseHandler@CWindowManager@UI@@QAEXPAU_object@@@Z:PROC ; UI::CWindowManager::SetMouseHandler
EXTRN	?GetMousePosition@CWindowManager@UI@@QAEXAAJ0@Z:PROC ; UI::CWindowManager::GetMousePosition
EXTRN	?IsDragging@CWindowManager@UI@@QAEHXZ:PROC	; UI::CWindowManager::IsDragging
EXTRN	?SetParent@CWindowManager@UI@@QAEXPAVCWindow@2@0@Z:PROC ; UI::CWindowManager::SetParent
EXTRN	?SetPickAlways@CWindowManager@UI@@QAEXPAVCWindow@2@@Z:PROC ; UI::CWindowManager::SetPickAlways
EXTRN	?RegisterWindow@CWindowManager@UI@@QAEPAVCWindow@2@PAU_object@@PBD@Z:PROC ; UI::CWindowManager::RegisterWindow
EXTRN	?RegisterSlotWindow@CWindowManager@UI@@QAEPAVCWindow@2@PAU_object@@PBD@Z:PROC ; UI::CWindowManager::RegisterSlotWindow
EXTRN	?RegisterGridSlotWindow@CWindowManager@UI@@QAEPAVCWindow@2@PAU_object@@PBD@Z:PROC ; UI::CWindowManager::RegisterGridSlotWindow
EXTRN	?RegisterTextLine@CWindowManager@UI@@QAEPAVCWindow@2@PAU_object@@PBD@Z:PROC ; UI::CWindowManager::RegisterTextLine
EXTRN	?RegisterMarkBox@CWindowManager@UI@@QAEPAVCWindow@2@PAU_object@@PBD@Z:PROC ; UI::CWindowManager::RegisterMarkBox
EXTRN	?RegisterImageBox@CWindowManager@UI@@QAEPAVCWindow@2@PAU_object@@PBD@Z:PROC ; UI::CWindowManager::RegisterImageBox
EXTRN	?RegisterExpandedImageBox@CWindowManager@UI@@QAEPAVCWindow@2@PAU_object@@PBD@Z:PROC ; UI::CWindowManager::RegisterExpandedImageBox
EXTRN	?RegisterAniImageBox@CWindowManager@UI@@QAEPAVCWindow@2@PAU_object@@PBD@Z:PROC ; UI::CWindowManager::RegisterAniImageBox
EXTRN	?RegisterButton@CWindowManager@UI@@QAEPAVCWindow@2@PAU_object@@PBD@Z:PROC ; UI::CWindowManager::RegisterButton
EXTRN	?RegisterRadioButton@CWindowManager@UI@@QAEPAVCWindow@2@PAU_object@@PBD@Z:PROC ; UI::CWindowManager::RegisterRadioButton
EXTRN	?RegisterToggleButton@CWindowManager@UI@@QAEPAVCWindow@2@PAU_object@@PBD@Z:PROC ; UI::CWindowManager::RegisterToggleButton
EXTRN	?RegisterDragButton@CWindowManager@UI@@QAEPAVCWindow@2@PAU_object@@PBD@Z:PROC ; UI::CWindowManager::RegisterDragButton
EXTRN	?RegisterBox@CWindowManager@UI@@QAEPAVCWindow@2@PAU_object@@PBD@Z:PROC ; UI::CWindowManager::RegisterBox
EXTRN	?RegisterWikiRenderTarget@CWindowManager@UI@@QAEPAVCWindow@2@PAU_object@@PBD@Z:PROC ; UI::CWindowManager::RegisterWikiRenderTarget
EXTRN	?RegisterBar@CWindowManager@UI@@QAEPAVCWindow@2@PAU_object@@PBD@Z:PROC ; UI::CWindowManager::RegisterBar
EXTRN	?RegisterLine@CWindowManager@UI@@QAEPAVCWindow@2@PAU_object@@PBD@Z:PROC ; UI::CWindowManager::RegisterLine
EXTRN	?RegisterBar3D@CWindowManager@UI@@QAEPAVCWindow@2@PAU_object@@PBD@Z:PROC ; UI::CWindowManager::RegisterBar3D
EXTRN	?RegisterNumberLine@CWindowManager@UI@@QAEPAVCWindow@2@PAU_object@@PBD@Z:PROC ; UI::CWindowManager::RegisterNumberLine
EXTRN	?RegisterRenderTarget@CWindowManager@UI@@QAEPAVCWindow@2@PAU_object@@PBD@Z:PROC ; UI::CWindowManager::RegisterRenderTarget
EXTRN	?DestroyWindow@CWindowManager@UI@@QAEXPAVCWindow@2@@Z:PROC ; UI::CWindowManager::DestroyWindow
EXTRN	?AttachIcon@CWindowManager@UI@@QAEXKKKEE@Z:PROC	; UI::CWindowManager::AttachIcon
EXTRN	?DeattachIcon@CWindowManager@UI@@QAEXXZ:PROC	; UI::CWindowManager::DeattachIcon
EXTRN	?SetAttachingFlag@CWindowManager@UI@@QAEXH@Z:PROC ; UI::CWindowManager::SetAttachingFlag
EXTRN	?OnceIgnoreMouseLeftButtonUpEvent@CWindowManager@UI@@QAEXXZ:PROC ; UI::CWindowManager::OnceIgnoreMouseLeftButtonUpEvent
EXTRN	?LockWindow@CWindowManager@UI@@QAEXPAVCWindow@2@@Z:PROC ; UI::CWindowManager::LockWindow
EXTRN	?UnlockWindow@CWindowManager@UI@@QAEXXZ:PROC	; UI::CWindowManager::UnlockWindow
EXTRN	?ActivateWindow@CWindowManager@UI@@QAEXPAVCWindow@2@@Z:PROC ; UI::CWindowManager::ActivateWindow
EXTRN	?DeactivateWindow@CWindowManager@UI@@QAEXXZ:PROC ; UI::CWindowManager::DeactivateWindow
EXTRN	?GetActivateWindow@CWindowManager@UI@@QAEPAVCWindow@2@XZ:PROC ; UI::CWindowManager::GetActivateWindow
EXTRN	?SetTop@CWindowManager@UI@@QAEXPAVCWindow@2@@Z:PROC ; UI::CWindowManager::SetTop
EXTRN	?IsTop@CWindowManager@UI@@QAE_NPAVCWindow@2@@Z:PROC ; UI::CWindowManager::IsTop
EXTRN	?LockCursorOnWindow@CWindowManager@UI@@QAEXPAVCWindow@2@@Z:PROC ; UI::CWindowManager::LockCursorOnWindow
EXTRN	?UnlockCursor@CWindowManager@UI@@QAEXPAVCWindow@2@@Z:PROC ; UI::CWindowManager::UnlockCursor
EXTRN	?IsType@CWindow@UI@@QAEHK@Z:PROC		; UI::CWindow::IsType
EXTRN	?SetName@CWindow@UI@@QAEXPBD@Z:PROC		; UI::CWindow::SetName
EXTRN	?SetSize@CWindow@UI@@QAEXJJ@Z:PROC		; UI::CWindow::SetSize
EXTRN	?SetHorizontalAlign@CWindow@UI@@QAEXK@Z:PROC	; UI::CWindow::SetHorizontalAlign
EXTRN	?SetVerticalAlign@CWindow@UI@@QAEXK@Z:PROC	; UI::CWindow::SetVerticalAlign
EXTRN	?SetPosition@CWindow@UI@@QAEXJJ@Z:PROC		; UI::CWindow::SetPosition
EXTRN	?GetPosition@CWindow@UI@@QAEXPAJ0@Z:PROC	; UI::CWindow::GetPosition
EXTRN	?GetMouseLocalPosition@CWindow@UI@@QAEXAAJ0@Z:PROC ; UI::CWindow::GetMouseLocalPosition
EXTRN	?UpdateRect@CWindow@UI@@QAEJXZ:PROC		; UI::CWindow::UpdateRect
EXTRN	?Show@CWindow@UI@@QAEXXZ:PROC			; UI::CWindow::Show
EXTRN	?Hide@CWindow@UI@@QAEXXZ:PROC			; UI::CWindow::Hide
EXTRN	?IsChild@CWindow@UI@@QAE_NPAV12@_N@Z:PROC	; UI::CWindow::IsChild
EXTRN	?SetInsideRender@CWindow@UI@@QAEXH@Z:PROC	; UI::CWindow::SetInsideRender
EXTRN	?GetRenderBox@CWindow@UI@@QAEXPAUtagRECT@@@Z:PROC ; UI::CWindow::GetRenderBox
EXTRN	?SetWikiRenderTargetModule@CUiWikiRenderTarget@UI@@QAE_NH@Z:PROC ; UI::CUiWikiRenderTarget::SetWikiRenderTargetModule
EXTRN	?Type@CBar3D@UI@@SAKXZ:PROC			; UI::CBar3D::Type
EXTRN	?SetColor@CBar3D@UI@@QAEXKKK@Z:PROC		; UI::CBar3D::SetColor
EXTRN	?Type@CTextLine@UI@@SAKXZ:PROC			; UI::CTextLine::Type
EXTRN	?SetMax@CTextLine@UI@@QAEXH@Z:PROC		; UI::CTextLine::SetMax
EXTRN	?SetHorizontalAlign@CTextLine@UI@@QAEXH@Z:PROC	; UI::CTextLine::SetHorizontalAlign
EXTRN	?SetVerticalAlign@CTextLine@UI@@QAEXH@Z:PROC	; UI::CTextLine::SetVerticalAlign
EXTRN	?SetSecret@CTextLine@UI@@QAEXH@Z:PROC		; UI::CTextLine::SetSecret
EXTRN	?SetOutline@CTextLine@UI@@QAEXH@Z:PROC		; UI::CTextLine::SetOutline
EXTRN	?SetFeather@CTextLine@UI@@QAEXH@Z:PROC		; UI::CTextLine::SetFeather
EXTRN	?SetMultiLine@CTextLine@UI@@QAEXH@Z:PROC	; UI::CTextLine::SetMultiLine
EXTRN	?SetFontName@CTextLine@UI@@QAEXPBD@Z:PROC	; UI::CTextLine::SetFontName
EXTRN	?SetFontColor@CTextLine@UI@@QAEXK@Z:PROC	; UI::CTextLine::SetFontColor
EXTRN	?SetLimitWidth@CTextLine@UI@@QAEXM@Z:PROC	; UI::CTextLine::SetLimitWidth
EXTRN	?ShowCursor@CTextLine@UI@@QAEXXZ:PROC		; UI::CTextLine::ShowCursor
EXTRN	?HideCursor@CTextLine@UI@@QAEXXZ:PROC		; UI::CTextLine::HideCursor
EXTRN	?IsShowCursor@CTextLine@UI@@QAE_NXZ:PROC	; UI::CTextLine::IsShowCursor
EXTRN	?GetCursorPosition@CTextLine@UI@@QAEHXZ:PROC	; UI::CTextLine::GetCursorPosition
EXTRN	?GetCharPositionByCursor@CTextLine@UI@@QAE?AV?$tuple@HHH@std@@H@Z:PROC ; UI::CTextLine::GetCharPositionByCursor
EXTRN	?TextPositionToRenderPosition@CTextLine@UI@@QAEHH@Z:PROC ; UI::CTextLine::TextPositionToRenderPosition
EXTRN	?SetText@CTextLine@UI@@QAEXPBD@Z:PROC		; UI::CTextLine::SetText
EXTRN	?GetText@CTextLine@UI@@QAEPBDXZ:PROC		; UI::CTextLine::GetText
EXTRN	?GetSpecificTextWidth@CTextLine@UI@@QAEHPBD@Z:PROC ; UI::CTextLine::GetSpecificTextWidth
EXTRN	?GetTextSize@CTextLine@UI@@QAEXPAH0@Z:PROC	; UI::CTextLine::GetTextSize
EXTRN	?Type@CNumberLine@UI@@SAKXZ:PROC		; UI::CNumberLine::Type
EXTRN	?SetPath@CNumberLine@UI@@QAEXPBD@Z:PROC		; UI::CNumberLine::SetPath
EXTRN	?SetHorizontalAlign@CNumberLine@UI@@QAEXH@Z:PROC ; UI::CNumberLine::SetHorizontalAlign
EXTRN	?SetVerticalAlign@CNumberLine@UI@@QAEXH@Z:PROC	; UI::CNumberLine::SetVerticalAlign
EXTRN	?SetNumber@CNumberLine@UI@@QAEXPBD@Z:PROC	; UI::CNumberLine::SetNumber
EXTRN	?SetDiffuseColor@CNumberLine@UI@@QAEXMMMM@Z:PROC ; UI::CNumberLine::SetDiffuseColor
EXTRN	?Type@CImageBox@UI@@SAKXZ:PROC			; UI::CImageBox::Type
EXTRN	?LoadImageA@CImageBox@UI@@QAEHPBD@Z:PROC	; UI::CImageBox::LoadImageA
EXTRN	?SetDiffuseColor@CImageBox@UI@@QAEXMMMM@Z:PROC	; UI::CImageBox::SetDiffuseColor
EXTRN	?GetWidth@CImageBox@UI@@QAEHXZ:PROC		; UI::CImageBox::GetWidth
EXTRN	?GetHeight@CImageBox@UI@@QAEHXZ:PROC		; UI::CImageBox::GetHeight
EXTRN	?SetRenderTarget@CRenderTarget@UI@@QAEXI@Z:PROC	; UI::CRenderTarget::SetRenderTarget
EXTRN	?SetRenderHair@CRenderTarget@UI@@QAEXI@Z:PROC	; UI::CRenderTarget::SetRenderHair
EXTRN	?SetRenderArmor@CRenderTarget@UI@@QAEXI@Z:PROC	; UI::CRenderTarget::SetRenderArmor
EXTRN	?SetRenderWeapon@CRenderTarget@UI@@QAEXI@Z:PROC	; UI::CRenderTarget::SetRenderWeapon
EXTRN	?SetRenderSash@CRenderTarget@UI@@QAEXI@Z:PROC	; UI::CRenderTarget::SetRenderSash
EXTRN	?SetRendererMotion@CRenderTarget@UI@@QAEXI@Z:PROC ; UI::CRenderTarget::SetRendererMotion
EXTRN	?SetRenderDistance@CRenderTarget@UI@@QAEXM@Z:PROC ; UI::CRenderTarget::SetRenderDistance
EXTRN	?GetRenderDistance@CRenderTarget@UI@@QAEMXZ:PROC ; UI::CRenderTarget::GetRenderDistance
EXTRN	?SetLightPosition@CRenderTarget@UI@@QAEXUD3DXVECTOR3@@@Z:PROC ; UI::CRenderTarget::SetLightPosition
EXTRN	?GetLightPosition@CRenderTarget@UI@@QBEABUD3DXVECTOR3@@XZ:PROC ; UI::CRenderTarget::GetLightPosition
EXTRN	?SetRotation@CRenderTarget@UI@@QAEXM@Z:PROC	; UI::CRenderTarget::SetRotation
EXTRN	?GetRotation@CRenderTarget@UI@@QAEMXZ:PROC	; UI::CRenderTarget::GetRotation
EXTRN	?SetRotationMode@CRenderTarget@UI@@QAEX_N@Z:PROC ; UI::CRenderTarget::SetRotationMode
EXTRN	?DestroyRender@CRenderTarget@UI@@QAEXXZ:PROC	; UI::CRenderTarget::DestroyRender
EXTRN	?LoadImageA@CMarkBox@UI@@QAEXPBD@Z:PROC		; UI::CMarkBox::LoadImageA
EXTRN	?SetDiffuseColor@CMarkBox@UI@@QAEXMMMM@Z:PROC	; UI::CMarkBox::SetDiffuseColor
EXTRN	?SetIndex@CMarkBox@UI@@QAEXI@Z:PROC		; UI::CMarkBox::SetIndex
EXTRN	?SetScale@CMarkBox@UI@@QAEXM@Z:PROC		; UI::CMarkBox::SetScale
EXTRN	?Type@CExpandedImageBox@UI@@SAKXZ:PROC		; UI::CExpandedImageBox::Type
EXTRN	?SetScale@CExpandedImageBox@UI@@QAEXMM@Z:PROC	; UI::CExpandedImageBox::SetScale
EXTRN	?SetOrigin@CExpandedImageBox@UI@@QAEXMM@Z:PROC	; UI::CExpandedImageBox::SetOrigin
EXTRN	?SetRotation@CExpandedImageBox@UI@@QAEXM@Z:PROC	; UI::CExpandedImageBox::SetRotation
EXTRN	?SetRenderingMode@CExpandedImageBox@UI@@QAEXH@Z:PROC ; UI::CExpandedImageBox::SetRenderingMode
EXTRN	?Type@CAniImageBox@UI@@SAKXZ:PROC		; UI::CAniImageBox::Type
EXTRN	?SetDelay@CAniImageBox@UI@@QAEXH@Z:PROC		; UI::CAniImageBox::SetDelay
EXTRN	?AppendImage@CAniImageBox@UI@@QAEXPBD@Z:PROC	; UI::CAniImageBox::AppendImage
EXTRN	?ResetFrame@CAniImageBox@UI@@QAEXXZ:PROC	; UI::CAniImageBox::ResetFrame
EXTRN	?Type@CButton@UI@@SAKXZ:PROC			; UI::CButton::Type
EXTRN	?SetUpVisual@CButton@UI@@QAEHPBD@Z:PROC		; UI::CButton::SetUpVisual
EXTRN	?SetOverVisual@CButton@UI@@QAEHPBD@Z:PROC	; UI::CButton::SetOverVisual
EXTRN	?SetDownVisual@CButton@UI@@QAEHPBD@Z:PROC	; UI::CButton::SetDownVisual
EXTRN	?SetDisableVisual@CButton@UI@@QAEHPBD@Z:PROC	; UI::CButton::SetDisableVisual
EXTRN	?GetUpVisualFileName@CButton@UI@@QAEPBDXZ:PROC	; UI::CButton::GetUpVisualFileName
EXTRN	?GetOverVisualFileName@CButton@UI@@QAEPBDXZ:PROC ; UI::CButton::GetOverVisualFileName
EXTRN	?GetDownVisualFileName@CButton@UI@@QAEPBDXZ:PROC ; UI::CButton::GetDownVisualFileName
EXTRN	?Flash@CButton@UI@@QAEXXZ:PROC			; UI::CButton::Flash
EXTRN	?Enable@CButton@UI@@QAEXXZ:PROC			; UI::CButton::Enable
EXTRN	?Disable@CButton@UI@@QAEXXZ:PROC		; UI::CButton::Disable
EXTRN	?SetUp@CButton@UI@@QAEXXZ:PROC			; UI::CButton::SetUp
EXTRN	?Down@CButton@UI@@QAEXXZ:PROC			; UI::CButton::Down
EXTRN	?IsDisable@CButton@UI@@QAEHXZ:PROC		; UI::CButton::IsDisable
EXTRN	?IsPressed@CButton@UI@@QAEHXZ:PROC		; UI::CButton::IsPressed
EXTRN	?SetRestrictMovementArea@CDragButton@UI@@QAEXHHHH@Z:PROC ; UI::CDragButton::SetRestrictMovementArea
EXTRN	?Type@CSlotWindow@UI@@SAKXZ:PROC		; UI::CSlotWindow::Type
EXTRN	?SetSlotType@CSlotWindow@UI@@QAEXK@Z:PROC	; UI::CSlotWindow::SetSlotType
EXTRN	?SetSlotStyle@CSlotWindow@UI@@QAEXK@Z:PROC	; UI::CSlotWindow::SetSlotStyle
EXTRN	?SetSlotBaseImageScale@CSlotWindow@UI@@QAEXPBDMMMMMM@Z:PROC ; UI::CSlotWindow::SetSlotBaseImageScale
EXTRN	?SetSlotScale@CSlotWindow@UI@@QAEXKKEEPAVCGraphicImage@@MMAAUD3DXCOLOR@@@Z:PROC ; UI::CSlotWindow::SetSlotScale
EXTRN	?AppendSlot@CSlotWindow@UI@@QAEXKHHHH@Z:PROC	; UI::CSlotWindow::AppendSlot
EXTRN	?SetCoverButton@CSlotWindow@UI@@QAEXKPBD000HH@Z:PROC ; UI::CSlotWindow::SetCoverButton
EXTRN	?SetSlotBaseImage@CSlotWindow@UI@@QAEXPBDMMMM@Z:PROC ; UI::CSlotWindow::SetSlotBaseImage
EXTRN	?AppendSlotButton@CSlotWindow@UI@@QAEXPBD00@Z:PROC ; UI::CSlotWindow::AppendSlotButton
EXTRN	?AppendRequirementSignImage@CSlotWindow@UI@@QAEXPBD@Z:PROC ; UI::CSlotWindow::AppendRequirementSignImage
EXTRN	?DeleteCoverButton@CSlotWindow@UI@@QAEXK@Z:PROC	; UI::CSlotWindow::DeleteCoverButton
EXTRN	?EnableCoverButton@CSlotWindow@UI@@QAEXK@Z:PROC	; UI::CSlotWindow::EnableCoverButton
EXTRN	?DisableCoverButton@CSlotWindow@UI@@QAEXK@Z:PROC ; UI::CSlotWindow::DisableCoverButton
EXTRN	?SetAlwaysRenderCoverButton@CSlotWindow@UI@@QAEXK_N@Z:PROC ; UI::CSlotWindow::SetAlwaysRenderCoverButton
EXTRN	?ShowSlotBaseImage@CSlotWindow@UI@@QAEXK@Z:PROC	; UI::CSlotWindow::ShowSlotBaseImage
EXTRN	?HideSlotBaseImage@CSlotWindow@UI@@QAEXK@Z:PROC	; UI::CSlotWindow::HideSlotBaseImage
EXTRN	?IsDisableCoverButton@CSlotWindow@UI@@QAEHK@Z:PROC ; UI::CSlotWindow::IsDisableCoverButton
EXTRN	?HasSlot@CSlotWindow@UI@@QAEHK@Z:PROC		; UI::CSlotWindow::HasSlot
EXTRN	?ClearAllSlot@CSlotWindow@UI@@QAEXXZ:PROC	; UI::CSlotWindow::ClearAllSlot
EXTRN	?ClearSlot@CSlotWindow@UI@@QAEXK@Z:PROC		; UI::CSlotWindow::ClearSlot
EXTRN	?SetSlot@CSlotWindow@UI@@QAEXKKEEPAVCGraphicImage@@AAUD3DXCOLOR@@@Z:PROC ; UI::CSlotWindow::SetSlot
EXTRN	?SetSlotCount@CSlotWindow@UI@@QAEXKK@Z:PROC	; UI::CSlotWindow::SetSlotCount
EXTRN	?SetSlotCountNew@CSlotWindow@UI@@QAEXKKK@Z:PROC	; UI::CSlotWindow::SetSlotCountNew
EXTRN	?SetSlotCoolTime@CSlotWindow@UI@@QAEXKMM@Z:PROC	; UI::CSlotWindow::SetSlotCoolTime
EXTRN	?ActivateSlot@CSlotWindow@UI@@QAEXKABV?$vector@MV?$allocator@M@std@@@std@@@Z:PROC ; UI::CSlotWindow::ActivateSlot
EXTRN	?NewActivateSlot@CSlotWindow@UI@@QAEXK@Z:PROC	; UI::CSlotWindow::NewActivateSlot
EXTRN	?DeactivateSlot@CSlotWindow@UI@@QAEXK@Z:PROC	; UI::CSlotWindow::DeactivateSlot
EXTRN	?NewDeactivateSlot@CSlotWindow@UI@@QAEXK@Z:PROC	; UI::CSlotWindow::NewDeactivateSlot
EXTRN	?RefreshSlot@CSlotWindow@UI@@QAEXXZ:PROC	; UI::CSlotWindow::RefreshSlot
EXTRN	?GetSlotIndincies@CSlotWindow@UI@@QAE?AV?$vector@IV?$allocator@I@std@@@std@@XZ:PROC ; UI::CSlotWindow::GetSlotIndincies
EXTRN	?GetSlotCoolTime@CSlotWindow@UI@@QAEMKPAM@Z:PROC ; UI::CSlotWindow::GetSlotCoolTime
EXTRN	?IsActivatedSlot@CSlotWindow@UI@@QAE_NK@Z:PROC	; UI::CSlotWindow::IsActivatedSlot
EXTRN	?EnableSlotCoverImage@CSlotWindow@UI@@QAEXK@Z:PROC ; UI::CSlotWindow::EnableSlotCoverImage
EXTRN	?DisableSlotCoverImage@CSlotWindow@UI@@QAEXK@Z:PROC ; UI::CSlotWindow::DisableSlotCoverImage
EXTRN	?ActivateChangeLookSlot@CSlotWindow@UI@@QAEXKE@Z:PROC ; UI::CSlotWindow::ActivateChangeLookSlot
EXTRN	?DeactivateChangeLookSlot@CSlotWindow@UI@@QAEXK@Z:PROC ; UI::CSlotWindow::DeactivateChangeLookSlot
EXTRN	?GetSlotCount@CSlotWindow@UI@@QAEKXZ:PROC	; UI::CSlotWindow::GetSlotCount
EXTRN	?LockSlot@CSlotWindow@UI@@QAEXKPBM@Z:PROC	; UI::CSlotWindow::LockSlot
EXTRN	?UnlockSlot@CSlotWindow@UI@@QAEXK@Z:PROC	; UI::CSlotWindow::UnlockSlot
EXTRN	?EnableSlot@CSlotWindow@UI@@QAEXK@Z:PROC	; UI::CSlotWindow::EnableSlot
EXTRN	?DisableSlot@CSlotWindow@UI@@QAEXK@Z:PROC	; UI::CSlotWindow::DisableSlot
EXTRN	?SetUnusableSlot@CSlotWindow@UI@@QAEXK@Z:PROC	; UI::CSlotWindow::SetUnusableSlot
EXTRN	?SetUsableSlot@CSlotWindow@UI@@QAEXK@Z:PROC	; UI::CSlotWindow::SetUsableSlot
EXTRN	?DisableSlotHighlightedGreen@CSlotWindow@UI@@QAEXK@Z:PROC ; UI::CSlotWindow::DisableSlotHighlightedGreen
EXTRN	?SetSlotHighlightedGreeen@CSlotWindow@UI@@QAEXK@Z:PROC ; UI::CSlotWindow::SetSlotHighlightedGreeen
EXTRN	?GetItemIndex@CSlotWindow@UI@@QAEKK@Z:PROC	; UI::CSlotWindow::GetItemIndex
EXTRN	?ClearSelected@CSlotWindow@UI@@QAEXXZ:PROC	; UI::CSlotWindow::ClearSelected
EXTRN	?SelectSlot@CSlotWindow@UI@@QAEXK@Z:PROC	; UI::CSlotWindow::SelectSlot
EXTRN	?isSelectedSlot@CSlotWindow@UI@@QAEHK@Z:PROC	; UI::CSlotWindow::isSelectedSlot
EXTRN	?GetSelectedSlotCount@CSlotWindow@UI@@QAEKXZ:PROC ; UI::CSlotWindow::GetSelectedSlotCount
EXTRN	?GetSelectedSlotNumber@CSlotWindow@UI@@QAEKK@Z:PROC ; UI::CSlotWindow::GetSelectedSlotNumber
EXTRN	?ShowSlotButton@CSlotWindow@UI@@QAEXK@Z:PROC	; UI::CSlotWindow::ShowSlotButton
EXTRN	?HideAllSlotButton@CSlotWindow@UI@@QAEXXZ:PROC	; UI::CSlotWindow::HideAllSlotButton
EXTRN	?ShowRequirementSign@CSlotWindow@UI@@QAEXK@Z:PROC ; UI::CSlotWindow::ShowRequirementSign
EXTRN	?HideRequirementSign@CSlotWindow@UI@@QAEXK@Z:PROC ; UI::CSlotWindow::HideRequirementSign
EXTRN	?SetUseMode@CSlotWindow@UI@@QAEXH@Z:PROC	; UI::CSlotWindow::SetUseMode
EXTRN	?IsUseMode@CSlotWindow@UI@@QBEHXZ:PROC		; UI::CSlotWindow::IsUseMode
EXTRN	?SetUsableItem@CSlotWindow@UI@@QAEXH@Z:PROC	; UI::CSlotWindow::SetUsableItem
EXTRN	?IsUsableItem@CSlotWindow@UI@@QBEHXZ:PROC	; UI::CSlotWindow::IsUsableItem
EXTRN	?SetSwitchMode@CSlotWindow@UI@@QAEXH@Z:PROC	; UI::CSlotWindow::SetSwitchMode
EXTRN	?IsSwitchMode@CSlotWindow@UI@@QBEHXZ:PROC	; UI::CSlotWindow::IsSwitchMode
EXTRN	?SetSwitchableItem@CSlotWindow@UI@@QAEXH@Z:PROC	; UI::CSlotWindow::SetSwitchableItem
EXTRN	?IsSwitchableItem@CSlotWindow@UI@@QBEHXZ:PROC	; UI::CSlotWindow::IsSwitchableItem
EXTRN	?Type@CGridSlotWindow@UI@@SAKXZ:PROC		; UI::CGridSlotWindow::Type
EXTRN	?ArrangeGridSlot@CGridSlotWindow@UI@@QAEXKKKHHHH@Z:PROC ; UI::CGridSlotWindow::ArrangeGridSlot
EXTRN	?GetPickedSlotPointer@CGridSlotWindow@UI@@QAEHPAPAUSSlot@CSlotWindow@2@_N@Z:PROC ; UI::CGridSlotWindow::GetPickedSlotPointer
EXTRN	@__security_check_cookie@4:PROC
EXTRN	__CxxThrowException@8:PROC
EXTRN	___CxxFrameHandler3:PROC
EXTRN	_memset:PROC
EXTRN	??_7type_info@@6B@:QWORD			; type_info::`vftable'
EXTRN	__imp___Py_NoneStruct:QWORD
EXTRN	?g_bOutlineBoxEnable@@3HA:DWORD			; g_bOutlineBoxEnable
EXTRN	?g_bShowOverInWindowName@@3HA:DWORD		; g_bShowOverInWindowName
EXTRN	___security_cookie:DWORD
EXTRN	__fltused:DWORD
;	COMDAT ?_OptionsStorage@?1??__local_stdio_printf_options@@9@4_KA
_BSS	SEGMENT
?_OptionsStorage@?1??__local_stdio_printf_options@@9@4_KA DQ 01H DUP (?) ; `__local_stdio_printf_options'::`2'::_OptionsStorage
_BSS	ENDS
;	COMDAT ?ms_singleton@?$CSingleton@VCWindowManager@UI@@@@0PAVCWindowManager@UI@@A
_BSS	SEGMENT
?ms_singleton@?$CSingleton@VCWindowManager@UI@@@@0PAVCWindowManager@UI@@A DD 01H DUP (?) ; CSingleton<UI::CWindowManager>::ms_singleton
_BSS	ENDS
;	COMDAT __xmm@3f8000003f8000003f8000003f800000
CONST	SEGMENT
__xmm@3f8000003f8000003f8000003f800000 DB 00H, 00H, 080H, '?', 00H, 00H, 080H
	DB	'?', 00H, 00H, 080H, '?', 00H, 00H, 080H, '?'
CONST	ENDS
;	COMDAT __xmm@0000005b0000005c0000005d0000005e
CONST	SEGMENT
__xmm@0000005b0000005c0000005d0000005e DB '^', 00H, 00H, 00H, ']', 00H, 00H
	DB	00H, '\', 00H, 00H, 00H, '[', 00H, 00H, 00H
CONST	ENDS
;	COMDAT __xmm@0000005700000058000000590000005a
CONST	SEGMENT
__xmm@0000005700000058000000590000005a DB 'Z', 00H, 00H, 00H, 'Y', 00H, 00H
	DB	00H, 'X', 00H, 00H, 00H, 'W', 00H, 00H, 00H
CONST	ENDS
;	COMDAT __xmm@00000053000000540000005500000056
CONST	SEGMENT
__xmm@00000053000000540000005500000056 DB 'V', 00H, 00H, 00H, 'U', 00H, 00H
	DB	00H, 'T', 00H, 00H, 00H, 'S', 00H, 00H, 00H
CONST	ENDS
;	COMDAT __xmm@0000004f000000500000005100000052
CONST	SEGMENT
__xmm@0000004f000000500000005100000052 DB 'R', 00H, 00H, 00H, 'Q', 00H, 00H
	DB	00H, 'P', 00H, 00H, 00H, 'O', 00H, 00H, 00H
CONST	ENDS
;	COMDAT __xmm@0000004b0000004c0000004d0000004e
CONST	SEGMENT
__xmm@0000004b0000004c0000004d0000004e DB 'N', 00H, 00H, 00H, 'M', 00H, 00H
	DB	00H, 'L', 00H, 00H, 00H, 'K', 00H, 00H, 00H
CONST	ENDS
;	COMDAT __xmm@0000004700000048000000490000004a
CONST	SEGMENT
__xmm@0000004700000048000000490000004a DB 'J', 00H, 00H, 00H, 'I', 00H, 00H
	DB	00H, 'H', 00H, 00H, 00H, 'G', 00H, 00H, 00H
CONST	ENDS
;	COMDAT __xmm@00000043000000440000004500000046
CONST	SEGMENT
__xmm@00000043000000440000004500000046 DB 'F', 00H, 00H, 00H, 'E', 00H, 00H
	DB	00H, 'D', 00H, 00H, 00H, 'C', 00H, 00H, 00H
CONST	ENDS
;	COMDAT __xmm@0000003f000000400000004100000042
CONST	SEGMENT
__xmm@0000003f000000400000004100000042 DB 'B', 00H, 00H, 00H, 'A', 00H, 00H
	DB	00H, '@', 00H, 00H, 00H, '?', 00H, 00H, 00H
CONST	ENDS
;	COMDAT __xmm@0000003b0000003c0000003d0000003e
CONST	SEGMENT
__xmm@0000003b0000003c0000003d0000003e DB '>', 00H, 00H, 00H, '=', 00H, 00H
	DB	00H, '<', 00H, 00H, 00H, ';', 00H, 00H, 00H
CONST	ENDS
;	COMDAT __xmm@0000003700000038000000390000003a
CONST	SEGMENT
__xmm@0000003700000038000000390000003a DB ':', 00H, 00H, 00H, '9', 00H, 00H
	DB	00H, '8', 00H, 00H, 00H, '7', 00H, 00H, 00H
CONST	ENDS
;	COMDAT __xmm@00000033000000340000003500000036
CONST	SEGMENT
__xmm@00000033000000340000003500000036 DB '6', 00H, 00H, 00H, '5', 00H, 00H
	DB	00H, '4', 00H, 00H, 00H, '3', 00H, 00H, 00H
CONST	ENDS
;	COMDAT __xmm@0000002f000000300000003100000032
CONST	SEGMENT
__xmm@0000002f000000300000003100000032 DB '2', 00H, 00H, 00H, '1', 00H, 00H
	DB	00H, '0', 00H, 00H, 00H, '/', 00H, 00H, 00H
CONST	ENDS
;	COMDAT __xmm@0000002b0000002c0000002d0000002e
CONST	SEGMENT
__xmm@0000002b0000002c0000002d0000002e DB '.', 00H, 00H, 00H, '-', 00H, 00H
	DB	00H, ',', 00H, 00H, 00H, '+', 00H, 00H, 00H
CONST	ENDS
;	COMDAT __xmm@0000002700000028000000290000002a
CONST	SEGMENT
__xmm@0000002700000028000000290000002a DB '*', 00H, 00H, 00H, ')', 00H, 00H
	DB	00H, '(', 00H, 00H, 00H, '''', 00H, 00H, 00H
CONST	ENDS
;	COMDAT __xmm@00000023000000240000002500000026
CONST	SEGMENT
__xmm@00000023000000240000002500000026 DB '&', 00H, 00H, 00H, '%', 00H, 00H
	DB	00H, '$', 00H, 00H, 00H, '#', 00H, 00H, 00H
CONST	ENDS
;	COMDAT __xmm@0000001f000000200000002100000022
CONST	SEGMENT
__xmm@0000001f000000200000002100000022 DB '"', 00H, 00H, 00H, '!', 00H, 00H
	DB	00H, ' ', 00H, 00H, 00H, 01fH, 00H, 00H, 00H
CONST	ENDS
;	COMDAT __xmm@0000001b0000001c0000001d0000001e
CONST	SEGMENT
__xmm@0000001b0000001c0000001d0000001e DB 01eH, 00H, 00H, 00H, 01dH, 00H, 00H
	DB	00H, 01cH, 00H, 00H, 00H, 01bH, 00H, 00H, 00H
CONST	ENDS
;	COMDAT __xmm@0000001700000018000000190000001a
CONST	SEGMENT
__xmm@0000001700000018000000190000001a DB 01aH, 00H, 00H, 00H, 019H, 00H, 00H
	DB	00H, 018H, 00H, 00H, 00H, 017H, 00H, 00H, 00H
CONST	ENDS
;	COMDAT __xmm@00000013000000140000001500000016
CONST	SEGMENT
__xmm@00000013000000140000001500000016 DB 016H, 00H, 00H, 00H, 015H, 00H, 00H
	DB	00H, 014H, 00H, 00H, 00H, 013H, 00H, 00H, 00H
CONST	ENDS
;	COMDAT __xmm@0000000f000000100000001100000012
CONST	SEGMENT
__xmm@0000000f000000100000001100000012 DB 012H, 00H, 00H, 00H, 011H, 00H, 00H
	DB	00H, 010H, 00H, 00H, 00H, 0fH, 00H, 00H, 00H
CONST	ENDS
;	COMDAT __xmm@0000000b0000000c0000000d0000000e
CONST	SEGMENT
__xmm@0000000b0000000c0000000d0000000e DB 0eH, 00H, 00H, 00H, 0dH, 00H, 00H
	DB	00H, 0cH, 00H, 00H, 00H, 0bH, 00H, 00H, 00H
CONST	ENDS
;	COMDAT __xmm@0000000700000008000000090000000a
CONST	SEGMENT
__xmm@0000000700000008000000090000000a DB 0aH, 00H, 00H, 00H, 09H, 00H, 00H
	DB	00H, 08H, 00H, 00H, 00H, 07H, 00H, 00H, 00H
CONST	ENDS
;	COMDAT __xmm@00000003000000040000000500000006
CONST	SEGMENT
__xmm@00000003000000040000000500000006 DB 06H, 00H, 00H, 00H, 05H, 00H, 00H
	DB	00H, 04H, 00H, 00H, 00H, 03H, 00H, 00H, 00H
CONST	ENDS
;	COMDAT __real@c2be0000
CONST	SEGMENT
__real@c2be0000 DD 0c2be0000r			; -95
CONST	ENDS
;	COMDAT __real@437f0000
CONST	SEGMENT
__real@437f0000 DD 0437f0000r			; 255
CONST	ENDS
;	COMDAT ??_C@_0BI@BNOJCJOH@RENDERING_MODE_MODULATE@
CONST	SEGMENT
??_C@_0BI@BNOJCJOH@RENDERING_MODE_MODULATE@ DB 'RENDERING_MODE_MODULATE', 00H ; `string'
CONST	ENDS
;	COMDAT ??_C@_0BG@CBGLOKGH@VERTICAL_ALIGN_BOTTOM@
CONST	SEGMENT
??_C@_0BG@CBGLOKGH@VERTICAL_ALIGN_BOTTOM@ DB 'VERTICAL_ALIGN_BOTTOM', 00H ; `string'
CONST	ENDS
;	COMDAT ??_C@_0BG@MMBKMGNO@VERTICAL_ALIGN_CENTER@
CONST	SEGMENT
??_C@_0BG@MMBKMGNO@VERTICAL_ALIGN_CENTER@ DB 'VERTICAL_ALIGN_CENTER', 00H ; `string'
CONST	ENDS
;	COMDAT ??_C@_0BD@PBJDAEOI@VERTICAL_ALIGN_TOP@
CONST	SEGMENT
??_C@_0BD@PBJDAEOI@VERTICAL_ALIGN_TOP@ DB 'VERTICAL_ALIGN_TOP', 00H ; `string'
CONST	ENDS
;	COMDAT ??_C@_0BH@KFBGEAIA@HORIZONTAL_ALIGN_RIGHT@
CONST	SEGMENT
??_C@_0BH@KFBGEAIA@HORIZONTAL_ALIGN_RIGHT@ DB 'HORIZONTAL_ALIGN_RIGHT', 00H ; `string'
CONST	ENDS
;	COMDAT ??_C@_0BI@NJMALOKG@HORIZONTAL_ALIGN_CENTER@
CONST	SEGMENT
??_C@_0BI@NJMALOKG@HORIZONTAL_ALIGN_CENTER@ DB 'HORIZONTAL_ALIGN_CENTER', 00H ; `string'
CONST	ENDS
;	COMDAT ??_C@_0BG@CEANPPL@HORIZONTAL_ALIGN_LEFT@
CONST	SEGMENT
??_C@_0BG@CEANPPL@HORIZONTAL_ALIGN_LEFT@ DB 'HORIZONTAL_ALIGN_LEFT', 00H ; `string'
CONST	ENDS
;	COMDAT ??_C@_0BL@GHLEGJOB@TEXT_VERTICAL_ALIGN_CENTER@
CONST	SEGMENT
??_C@_0BL@GHLEGJOB@TEXT_VERTICAL_ALIGN_CENTER@ DB 'TEXT_VERTICAL_ALIGN_CE'
	DB	'NTER', 00H					; `string'
CONST	ENDS
;	COMDAT ??_C@_0BL@IKMFEFFI@TEXT_VERTICAL_ALIGN_BOTTOM@
CONST	SEGMENT
??_C@_0BL@IKMFEFFI@TEXT_VERTICAL_ALIGN_BOTTOM@ DB 'TEXT_VERTICAL_ALIGN_BO'
	DB	'TTOM', 00H					; `string'
CONST	ENDS
;	COMDAT ??_C@_0BI@PIKJCBDF@TEXT_VERTICAL_ALIGN_TOP@
CONST	SEGMENT
??_C@_0BI@PIKJCBDF@TEXT_VERTICAL_ALIGN_TOP@ DB 'TEXT_VERTICAL_ALIGN_TOP', 00H ; `string'
CONST	ENDS
;	COMDAT ??_C@_0BN@MHHHIBEN@TEXT_HORIZONTAL_ALIGN_CENTER@
CONST	SEGMENT
??_C@_0BN@MHHHIBEN@TEXT_HORIZONTAL_ALIGN_CENTER@ DB 'TEXT_HORIZONTAL_ALIG'
	DB	'N_CENTER', 00H				; `string'
CONST	ENDS
;	COMDAT ??_C@_0BM@BDNLMDBC@TEXT_HORIZONTAL_ALIGN_RIGHT@
CONST	SEGMENT
??_C@_0BM@BDNLMDBC@TEXT_HORIZONTAL_ALIGN_RIGHT@ DB 'TEXT_HORIZONTAL_ALIGN'
	DB	'_RIGHT', 00H				; `string'
CONST	ENDS
;	COMDAT ??_C@_0BL@KJOOHAME@TEXT_HORIZONTAL_ALIGN_LEFT@
CONST	SEGMENT
??_C@_0BL@KJOOHAME@TEXT_HORIZONTAL_ALIGN_LEFT@ DB 'TEXT_HORIZONTAL_ALIGN_'
	DB	'LEFT', 00H					; `string'
CONST	ENDS
;	COMDAT ??_C@_0BC@DPNNOEON@SLOT_STYLE_SELECT@
CONST	SEGMENT
??_C@_0BC@DPNNOEON@SLOT_STYLE_SELECT@ DB 'SLOT_STYLE_SELECT', 00H ; `string'
CONST	ENDS
;	COMDAT ??_C@_0BD@HIHLPNEG@SLOT_STYLE_PICK_UP@
CONST	SEGMENT
??_C@_0BD@HIHLPNEG@SLOT_STYLE_PICK_UP@ DB 'SLOT_STYLE_PICK_UP', 00H ; `string'
CONST	ENDS
;	COMDAT ??_C@_0BA@CEBPCJJF@SLOT_STYLE_NONE@
CONST	SEGMENT
??_C@_0BA@CEBPCJJF@SLOT_STYLE_NONE@ DB 'SLOT_STYLE_NONE', 00H ; `string'
CONST	ENDS
;	COMDAT ??_C@_06CMPPDHLC@wndMgr@
CONST	SEGMENT
??_C@_06CMPPDHLC@wndMgr@ DB 'wndMgr', 00H		; `string'
CONST	ENDS
;	COMDAT ??_C@_0BJ@OABJPDB@SetStartCoolTimeImageBox@
CONST	SEGMENT
??_C@_0BJ@OABJPDB@SetStartCoolTimeImageBox@ DB 'SetStartCoolTimeImageBox', 00H ; `string'
CONST	ENDS
;	COMDAT ??_C@_0BE@BJJEKGM@SetCoolTimeImageBox@
CONST	SEGMENT
??_C@_0BE@BJJEKGM@SetCoolTimeImageBox@ DB 'SetCoolTimeImageBox', 00H ; `string'
CONST	ENDS
;	COMDAT ??_C@_0BG@FBLNLMGI@SetSlotBaseImageScale@
CONST	SEGMENT
??_C@_0BG@FBLNLMGI@SetSlotBaseImageScale@ DB 'SetSlotBaseImageScale', 00H ; `string'
CONST	ENDS
;	COMDAT ??_C@_0N@MNAMJLHL@SetSlotScale@
CONST	SEGMENT
??_C@_0N@MNAMJLHL@SetSlotScale@ DB 'SetSlotScale', 00H	; `string'
CONST	ENDS
;	COMDAT ??_C@_0N@DNBGAAKF@UnlockCursor@
CONST	SEGMENT
??_C@_0N@DNBGAAKF@UnlockCursor@ DB 'UnlockCursor', 00H	; `string'
CONST	ENDS
;	COMDAT ??_C@_0L@KLPEDGI@LockCursor@
CONST	SEGMENT
??_C@_0L@KLPEDGI@LockCursor@ DB 'LockCursor', 00H	; `string'
CONST	ENDS
;	COMDAT ??_C@_0BB@NHPNOOEJ@RT_DestroyRender@
CONST	SEGMENT
??_C@_0BB@NHPNOOEJ@RT_DestroyRender@ DB 'RT_DestroyRender', 00H ; `string'
CONST	ENDS
;	COMDAT ??_C@_0BD@IFKGKLGB@RT_SetRotationMode@
CONST	SEGMENT
??_C@_0BD@IFKGKLGB@RT_SetRotationMode@ DB 'RT_SetRotationMode', 00H ; `string'
CONST	ENDS
;	COMDAT ??_C@_0P@PINNIJAM@RT_GetRotation@
CONST	SEGMENT
??_C@_0P@PINNIJAM@RT_GetRotation@ DB 'RT_GetRotation', 00H ; `string'
CONST	ENDS
;	COMDAT ??_C@_0P@PHMDFPIP@RT_SetRotation@
CONST	SEGMENT
??_C@_0P@PHMDFPIP@RT_SetRotation@ DB 'RT_SetRotation', 00H ; `string'
CONST	ENDS
;	COMDAT ??_C@_0BE@FIHLIPHJ@RT_GetLightPosition@
CONST	SEGMENT
??_C@_0BE@FIHLIPHJ@RT_GetLightPosition@ DB 'RT_GetLightPosition', 00H ; `string'
CONST	ENDS
;	COMDAT ??_C@_0BE@DMCCDBML@RT_SetLightPosition@
CONST	SEGMENT
??_C@_0BE@DMCCDBML@RT_SetLightPosition@ DB 'RT_SetLightPosition', 00H ; `string'
CONST	ENDS
;	COMDAT ??_C@_0BF@LKMFPJIH@RT_GetRenderDistance@
CONST	SEGMENT
??_C@_0BF@LKMFPJIH@RT_GetRenderDistance@ DB 'RT_GetRenderDistance', 00H ; `string'
CONST	ENDS
;	COMDAT ??_C@_0BF@JPMOHCJJ@RT_SetRenderDistance@
CONST	SEGMENT
??_C@_0BF@JPMOHCJJ@RT_SetRenderDistance@ DB 'RT_SetRenderDistance', 00H ; `string'
CONST	ENDS
;	COMDAT ??_C@_0BD@KKAOCHFF@RT_SetRenderMotion@
CONST	SEGMENT
??_C@_0BD@KKAOCHFF@RT_SetRenderMotion@ DB 'RT_SetRenderMotion', 00H ; `string'
CONST	ENDS
;	COMDAT ??_C@_0BB@EOHKHODF@RT_SetRenderSash@
CONST	SEGMENT
??_C@_0BB@EOHKHODF@RT_SetRenderSash@ DB 'RT_SetRenderSash', 00H ; `string'
CONST	ENDS
;	COMDAT ??_C@_0BD@ENCKMHFE@RT_SetRenderWeapon@
CONST	SEGMENT
??_C@_0BD@ENCKMHFE@RT_SetRenderWeapon@ DB 'RT_SetRenderWeapon', 00H ; `string'
CONST	ENDS
;	COMDAT ??_C@_0BC@JHCDNNMC@RT_SetRenderArmor@
CONST	SEGMENT
??_C@_0BC@JHCDNNMC@RT_SetRenderArmor@ DB 'RT_SetRenderArmor', 00H ; `string'
CONST	ENDS
;	COMDAT ??_C@_0BB@PINGAENL@RT_SetRenderHair@
CONST	SEGMENT
??_C@_0BB@PINGAENL@RT_SetRenderHair@ DB 'RT_SetRenderHair', 00H ; `string'
CONST	ENDS
;	COMDAT ??_C@_0BD@LAGHGCKG@RT_SetRenderTarget@
CONST	SEGMENT
??_C@_0BD@LAGHGCKG@RT_SetRenderTarget@ DB 'RT_SetRenderTarget', 00H ; `string'
CONST	ENDS
;	COMDAT ??_C@_0N@LGPPCICH@RT_LoadImage@
CONST	SEGMENT
??_C@_0N@LGPPCICH@RT_LoadImage@ DB 'RT_LoadImage', 00H	; `string'
CONST	ENDS
;	COMDAT ??_C@_0BF@FGJJGJFC@RegisterRenderTarget@
CONST	SEGMENT
??_C@_0BF@FGJJGJFC@RegisterRenderTarget@ DB 'RegisterRenderTarget', 00H ; `string'
CONST	ENDS
;	COMDAT ??_C@_0N@BFHCIAEF@IsShowCursor@
CONST	SEGMENT
??_C@_0N@BFHCIAEF@IsShowCursor@ DB 'IsShowCursor', 00H	; `string'
CONST	ENDS
;	COMDAT ??_C@_0M@JGJEPBJD@UnloadImage@
CONST	SEGMENT
??_C@_0M@JGJEPBJD@UnloadImage@ DB 'UnloadImage', 00H	; `string'
CONST	ENDS
;	COMDAT ??_C@_0N@IIENNIMK@GetRenderPos@
CONST	SEGMENT
??_C@_0N@IIENNIMK@GetRenderPos@ DB 'GetRenderPos', 00H	; `string'
CONST	ENDS
;	COMDAT ??_C@_0BC@FGODMHDE@SetFixedRenderPos@
CONST	SEGMENT
??_C@_0BC@FGODMHDE@SetFixedRenderPos@ DB 'SetFixedRenderPos', 00H ; `string'
CONST	ENDS
;	COMDAT ??_C@_0BE@OCBDOMML@SetWikiRenderTarget@
CONST	SEGMENT
??_C@_0BE@OCBDOMML@SetWikiRenderTarget@ DB 'SetWikiRenderTarget', 00H ; `string'
CONST	ENDS
;	COMDAT ??_C@_0N@JBKJJOBF@GetRenderBox@
CONST	SEGMENT
??_C@_0N@JBKJJOBF@GetRenderBox@ DB 'GetRenderBox', 00H	; `string'
CONST	ENDS
;	COMDAT ??_C@_0BB@LDNMLPHM@SetRenderingRect@
CONST	SEGMENT
??_C@_0BB@LDNMLPHM@SetRenderingRect@ DB 'SetRenderingRect', 00H ; `string'
CONST	ENDS
;	COMDAT ??_C@_0BA@HFECJDNA@SetInsideRender@
CONST	SEGMENT
??_C@_0BA@HFECJDNA@SetInsideRender@ DB 'SetInsideRender', 00H ; `string'
CONST	ENDS
;	COMDAT ??_C@_0BJ@HMEHNAEN@RegisterWikiRenderTarget@
CONST	SEGMENT
??_C@_0BJ@HMEHNAEN@RegisterWikiRenderTarget@ DB 'RegisterWikiRenderTarget'
	DB	00H						; `string'
CONST	ENDS
;	COMDAT ??_C@_0N@GABOCBEH@GetItemIndex@
CONST	SEGMENT
??_C@_0N@GABOCBEH@GetItemIndex@ DB 'GetItemIndex', 00H	; `string'
CONST	ENDS
;	COMDAT ??_C@_0BJ@MFMBAOFE@DeactivateChangeLookSlot@
CONST	SEGMENT
??_C@_0BJ@MFMBAOFE@DeactivateChangeLookSlot@ DB 'DeactivateChangeLookSlot'
	DB	00H						; `string'
CONST	ENDS
;	COMDAT ??_C@_0BH@CMPCAGLC@ActivateChangeLookSlot@
CONST	SEGMENT
??_C@_0BH@CMPCAGLC@ActivateChangeLookSlot@ DB 'ActivateChangeLookSlot', 00H ; `string'
CONST	ENDS
;	COMDAT ??_C@_0BG@CELKDGNF@DisableSlotCoverImage@
CONST	SEGMENT
??_C@_0BG@CELKDGNF@DisableSlotCoverImage@ DB 'DisableSlotCoverImage', 00H ; `string'
CONST	ENDS
;	COMDAT ??_C@_0BF@KNCMHHOE@EnableSlotCoverImage@
CONST	SEGMENT
??_C@_0BF@KNCMHHOE@EnableSlotCoverImage@ DB 'EnableSlotCoverImage', 00H ; `string'
CONST	ENDS
;	COMDAT ??_C@_0BA@NIALCINC@GetSlotCoolTime@
CONST	SEGMENT
??_C@_0BA@NIALCINC@GetSlotCoolTime@ DB 'GetSlotCoolTime', 00H ; `string'
CONST	ENDS
;	COMDAT ??_C@_0BA@EABPFCGJ@IsActivatedSlot@
CONST	SEGMENT
??_C@_0BA@EABPFCGJ@IsActivatedSlot@ DB 'IsActivatedSlot', 00H ; `string'
CONST	ENDS
;	COMDAT ??_C@_0BF@LFOINEDC@ShowOverInWindowName@
CONST	SEGMENT
??_C@_0BF@LFOINEDC@ShowOverInWindowName@ DB 'ShowOverInWindowName', 00H ; `string'
CONST	ENDS
;	COMDAT ??_C@_0P@MEHCKPID@SetOutlineFlag@
CONST	SEGMENT
??_C@_0P@MEHCKPID@SetOutlineFlag@ DB 'SetOutlineFlag', 00H ; `string'
CONST	ENDS
;	COMDAT ??_C@_0BI@KNEJFEOH@SetRestrictMovementArea@
CONST	SEGMENT
??_C@_0BI@KNEJFEOH@SetRestrictMovementArea@ DB 'SetRestrictMovementArea', 00H ; `string'
CONST	ENDS
;	COMDAT ??_C@_06FKEAEOGE@IsDown@
CONST	SEGMENT
??_C@_06FKEAEOGE@IsDown@ DB 'IsDown', 00H		; `string'
CONST	ENDS
;	COMDAT ??_C@_05DEOAHOFO@SetUp@
CONST	SEGMENT
??_C@_05DEOAHOFO@SetUp@ DB 'SetUp', 00H			; `string'
CONST	ENDS
;	COMDAT ??_C@_04FNCLCJMC@Down@
CONST	SEGMENT
??_C@_04FNCLCJMC@Down@ DB 'Down', 00H			; `string'
CONST	ENDS
;	COMDAT ??_C@_09BDCHKIMD@IsEnabled@
CONST	SEGMENT
??_C@_09BDCHKIMD@IsEnabled@ DB 'IsEnabled', 00H		; `string'
CONST	ENDS
;	COMDAT ??_C@_07MIKIFGAL@Disable@
CONST	SEGMENT
??_C@_07MIKIFGAL@Disable@ DB 'Disable', 00H		; `string'
CONST	ENDS
;	COMDAT ??_C@_06CKGENIKG@Enable@
CONST	SEGMENT
??_C@_06CKGENIKG@Enable@ DB 'Enable', 00H		; `string'
CONST	ENDS
;	COMDAT ??_C@_05LDPHIKKB@Flash@
CONST	SEGMENT
??_C@_05LDPHIKKB@Flash@ DB 'Flash', 00H			; `string'
CONST	ENDS
;	COMDAT ??_C@_0BG@FKDEILKI@GetDownVisualFileName@
CONST	SEGMENT
??_C@_0BG@FKDEILKI@GetDownVisualFileName@ DB 'GetDownVisualFileName', 00H ; `string'
CONST	ENDS
;	COMDAT ??_C@_0BG@KEALLAJN@GetOverVisualFileName@
CONST	SEGMENT
??_C@_0BG@KEALLAJN@GetOverVisualFileName@ DB 'GetOverVisualFileName', 00H ; `string'
CONST	ENDS
;	COMDAT ??_C@_0BE@PHOOFGJI@GetUpVisualFileName@
CONST	SEGMENT
??_C@_0BE@PHOOFGJI@GetUpVisualFileName@ DB 'GetUpVisualFileName', 00H ; `string'
CONST	ENDS
;	COMDAT ??_C@_0BB@JCGDBIB@SetDisableVisual@
CONST	SEGMENT
??_C@_0BB@JCGDBIB@SetDisableVisual@ DB 'SetDisableVisual', 00H ; `string'
CONST	ENDS
;	COMDAT ??_C@_0O@FLFAFPKP@SetDownVisual@
CONST	SEGMENT
??_C@_0O@FLFAFPKP@SetDownVisual@ DB 'SetDownVisual', 00H ; `string'
CONST	ENDS
;	COMDAT ??_C@_0O@KOIDMFK@SetOverVisual@
CONST	SEGMENT
??_C@_0O@KOIDMFK@SetOverVisual@ DB 'SetOverVisual', 00H	; `string'
CONST	ENDS
;	COMDAT ??_C@_0M@IIELPGEP@SetUpVisual@
CONST	SEGMENT
??_C@_0M@IIELPGEP@SetUpVisual@ DB 'SetUpVisual', 00H	; `string'
CONST	ENDS
;	COMDAT ??_C@_0L@ELGKENBM@ResetFrame@
CONST	SEGMENT
??_C@_0L@ELGKENBM@ResetFrame@ DB 'ResetFrame', 00H	; `string'
CONST	ENDS
;	COMDAT ??_C@_0M@BEJGDBIJ@AppendImage@
CONST	SEGMENT
??_C@_0M@BEJGDBIJ@AppendImage@ DB 'AppendImage', 00H	; `string'
CONST	ENDS
;	COMDAT ??_C@_08CACKEECM@GetDelay@
CONST	SEGMENT
??_C@_08CACKEECM@GetDelay@ DB 'GetDelay', 00H		; `string'
CONST	ENDS
;	COMDAT ??_C@_08NBAGFHFB@SetDelay@
CONST	SEGMENT
??_C@_08NBAGFHFB@SetDelay@ DB 'SetDelay', 00H		; `string'
CONST	ENDS
;	COMDAT ??_C@_0BB@GIEHGKNO@SetRenderingMode@
CONST	SEGMENT
??_C@_0BB@GIEHGKNO@SetRenderingMode@ DB 'SetRenderingMode', 00H ; `string'
CONST	ENDS
;	COMDAT ??_C@_0M@GNIHGJGG@SetRotation@
CONST	SEGMENT
??_C@_0M@GNIHGJGG@SetRotation@ DB 'SetRotation', 00H	; `string'
CONST	ENDS
;	COMDAT ??_C@_09KLKDEBJ@SetOrigin@
CONST	SEGMENT
??_C@_09KLKDEBJ@SetOrigin@ DB 'SetOrigin', 00H		; `string'
CONST	ENDS
;	COMDAT ??_C@_08FMFAIGAB@SetScale@
CONST	SEGMENT
??_C@_08FMFAIGAB@SetScale@ DB 'SetScale', 00H		; `string'
CONST	ENDS
;	COMDAT ??_C@_0O@IOPMOINL@GetTexturePtr@
CONST	SEGMENT
??_C@_0O@IOPMOINL@GetTexturePtr@ DB 'GetTexturePtr', 00H ; `string'
CONST	ENDS
;	COMDAT ??_C@_09EOGEIJMK@GetHeight@
CONST	SEGMENT
??_C@_09EOGEIJMK@GetHeight@ DB 'GetHeight', 00H		; `string'
CONST	ENDS
;	COMDAT ??_C@_08OMBILDHM@GetWidth@
CONST	SEGMENT
??_C@_08OMBILDHM@GetWidth@ DB 'GetWidth', 00H		; `string'
CONST	ENDS
;	COMDAT ??_C@_0BA@CAEBLOMF@SetDiffuseColor@
CONST	SEGMENT
??_C@_0BA@CAEBLOMF@SetDiffuseColor@ DB 'SetDiffuseColor', 00H ; `string'
CONST	ENDS
;	COMDAT ??_C@_09OHOMMMHI@LoadImage@
CONST	SEGMENT
??_C@_09OHOMMMHI@LoadImage@ DB 'LoadImage', 00H		; `string'
CONST	ENDS
;	COMDAT ??_C@_0BI@JCKPADLG@MarkBox_SetDiffuseColor@
CONST	SEGMENT
??_C@_0BI@JCKPADLG@MarkBox_SetDiffuseColor@ DB 'MarkBox_SetDiffuseColor', 00H ; `string'
CONST	ENDS
;	COMDAT ??_C@_0BB@ENLBNPPB@MarkBox_SetScale@
CONST	SEGMENT
??_C@_0BB@ENLBNPPB@MarkBox_SetScale@ DB 'MarkBox_SetScale', 00H ; `string'
CONST	ENDS
;	COMDAT ??_C@_0BB@NAAPJNBM@MarkBox_SetIndex@
CONST	SEGMENT
??_C@_0BB@NAAPJNBM@MarkBox_SetIndex@ DB 'MarkBox_SetIndex', 00H ; `string'
CONST	ENDS
;	COMDAT ??_C@_0N@FLKGJMCL@MarkBox_Load@
CONST	SEGMENT
??_C@_0N@FLKGJMCL@MarkBox_Load@ DB 'MarkBox_Load', 00H	; `string'
CONST	ENDS
;	COMDAT ??_C@_0BJ@PJODLBON@MarkBox_SetImageFilename@
CONST	SEGMENT
??_C@_0BJ@PJODLBON@MarkBox_SetImageFilename@ DB 'MarkBox_SetImageFilename'
	DB	00H						; `string'
CONST	ENDS
;	COMDAT ??_C@_0BB@FMJJKPIM@MarkBox_SetImage@
CONST	SEGMENT
??_C@_0BB@FMJJKPIM@MarkBox_SetImage@ DB 'MarkBox_SetImage', 00H ; `string'
CONST	ENDS
;	COMDAT ??_C@_07ENBMIGKI@SetPath@
CONST	SEGMENT
??_C@_07ENBMIGKI@SetPath@ DB 'SetPath', 00H		; `string'
CONST	ENDS
;	COMDAT ??_C@_0BN@MCDEBAKA@SetNumberVerticalAlignCenter@
CONST	SEGMENT
??_C@_0BN@MCDEBAKA@SetNumberVerticalAlignCenter@ DB 'SetNumberVerticalAli'
	DB	'gnCenter', 00H				; `string'
CONST	ENDS
;	COMDAT ??_C@_0BO@FBBAAHKK@SetNumberHorizontalAlignRight@
CONST	SEGMENT
??_C@_0BO@FBBAAHKK@SetNumberHorizontalAlignRight@ DB 'SetNumberHorizontal'
	DB	'AlignRight', 00H				; `string'
CONST	ENDS
;	COMDAT ??_C@_0BP@JHALFFJF@SetNumberHorizontalAlignCenter@
CONST	SEGMENT
??_C@_0BP@JHALFFJF@SetNumberHorizontalAlignCenter@ DB 'SetNumberHorizonta'
	DB	'lAlignCenter', 00H				; `string'
CONST	ENDS
;	COMDAT ??_C@_09JMPLPNNO@SetNumber@
CONST	SEGMENT
??_C@_09JMPLPNNO@SetNumber@ DB 'SetNumber', 00H		; `string'
CONST	ENDS
;	COMDAT ??_C@_0BN@OOPFPLJK@TextPositionToRenderPosition@
CONST	SEGMENT
??_C@_0BN@OOPFPLJK@TextPositionToRenderPosition@ DB 'TextPositionToRender'
	DB	'Position', 00H				; `string'
CONST	ENDS
;	COMDAT ??_C@_0BI@OPEAHLID@GetCharPositionByCursor@
CONST	SEGMENT
??_C@_0BI@OPEAHLID@GetCharPositionByCursor@ DB 'GetCharPositionByCursor', 00H ; `string'
CONST	ENDS
;	COMDAT ??_C@_0BC@DJJGDMOB@GetCursorPosition@
CONST	SEGMENT
??_C@_0BC@DJJGDMOB@GetCursorPosition@ DB 'GetCursorPosition', 00H ; `string'
CONST	ENDS
;	COMDAT ??_C@_0L@MGJDDPFG@HideCursor@
CONST	SEGMENT
??_C@_0L@MGJDDPFG@HideCursor@ DB 'HideCursor', 00H	; `string'
CONST	ENDS
;	COMDAT ??_C@_0L@BIENLPGM@ShowCursor@
CONST	SEGMENT
??_C@_0L@BIENLPGM@ShowCursor@ DB 'ShowCursor', 00H	; `string'
CONST	ENDS
;	COMDAT ??_C@_0M@JOAAGILP@GetTextSize@
CONST	SEGMENT
??_C@_0M@JOAAGILP@GetTextSize@ DB 'GetTextSize', 00H	; `string'
CONST	ENDS
;	COMDAT ??_C@_0M@CLFAHCCE@SetClipRect@
CONST	SEGMENT
??_C@_0M@CLFAHCCE@SetClipRect@ DB 'SetClipRect', 00H	; `string'
CONST	ENDS
;	COMDAT ??_C@_07CAGCCMNH@GetText@
CONST	SEGMENT
??_C@_07CAGCCMNH@GetText@ DB 'GetText', 00H		; `string'
CONST	ENDS
;	COMDAT ??_C@_0O@FIAFKHF@SetLimitWidth@
CONST	SEGMENT
??_C@_0O@FIAFKHF@SetLimitWidth@ DB 'SetLimitWidth', 00H	; `string'
CONST	ENDS
;	COMDAT ??_C@_0N@MKCFOAAE@SetFontColor@
CONST	SEGMENT
??_C@_0N@MKCFOAAE@SetFontColor@ DB 'SetFontColor', 00H	; `string'
CONST	ENDS
;	COMDAT ??_C@_0M@MCELKPNO@SetFontName@
CONST	SEGMENT
??_C@_0M@MCELKPNO@SetFontName@ DB 'SetFontName', 00H	; `string'
CONST	ENDS
;	COMDAT ??_C@_0BF@ECGKBOOD@GetSpecificTextWidth@
CONST	SEGMENT
??_C@_0BF@ECGKBOOD@GetSpecificTextWidth@ DB 'GetSpecificTextWidth', 00H ; `string'
CONST	ENDS
;	COMDAT ??_C@_07NIJDBDAG@SetText@
CONST	SEGMENT
??_C@_07NIJDBDAG@SetText@ DB 'SetText', 00H		; `string'
CONST	ENDS
;	COMDAT ??_C@_0N@FKMHLJHG@SetMultiLine@
CONST	SEGMENT
??_C@_0N@FKMHLJHG@SetMultiLine@ DB 'SetMultiLine', 00H	; `string'
CONST	ENDS
;	COMDAT ??_C@_0L@LLKEFHFA@SetFeather@
CONST	SEGMENT
??_C@_0L@LLKEFHFA@SetFeather@ DB 'SetFeather', 00H	; `string'
CONST	ENDS
;	COMDAT ??_C@_0L@HBNEJDMM@SetOutline@
CONST	SEGMENT
??_C@_0L@HBNEJDMM@SetOutline@ DB 'SetOutline', 00H	; `string'
CONST	ENDS
;	COMDAT ??_C@_09CAFHEMDD@SetSecret@
CONST	SEGMENT
??_C@_09CAFHEMDD@SetSecret@ DB 'SetSecret', 00H		; `string'
CONST	ENDS
;	COMDAT ??_C@_0BB@NKHPOFIC@SetVerticalAlign@
CONST	SEGMENT
??_C@_0BB@NKHPOFIC@SetVerticalAlign@ DB 'SetVerticalAlign', 00H ; `string'
CONST	ENDS
;	COMDAT ??_C@_0BD@FCLDCEMA@SetHorizontalAlign@
CONST	SEGMENT
??_C@_0BD@FCLDCEMA@SetHorizontalAlign@ DB 'SetHorizontalAlign', 00H ; `string'
CONST	ENDS
;	COMDAT ??_C@_06ODEINJEE@SetMax@
CONST	SEGMENT
??_C@_06ODEINJEE@SetMax@ DB 'SetMax', 00H		; `string'
CONST	ENDS
;	COMDAT ??_C@_08GPNJILIJ@SetColor@
CONST	SEGMENT
??_C@_08GPNJILIJ@SetColor@ DB 'SetColor', 00H		; `string'
CONST	ENDS
;	COMDAT ??_C@_0L@DPNFKPLP@UnlockSlot@
CONST	SEGMENT
??_C@_0L@DPNFKPLP@UnlockSlot@ DB 'UnlockSlot', 00H	; `string'
CONST	ENDS
;	COMDAT ??_C@_08PGGNMNPL@LockSlot@
CONST	SEGMENT
??_C@_08PGGNMNPL@LockSlot@ DB 'LockSlot', 00H		; `string'
CONST	ENDS
;	COMDAT ??_C@_0N@PALCIPBL@GetSlotCount@
CONST	SEGMENT
??_C@_0N@PALCIPBL@GetSlotCount@ DB 'GetSlotCount', 00H	; `string'
CONST	ENDS
;	COMDAT ??_C@_0P@GKJOEMLC@IsSelectedSlot@
CONST	SEGMENT
??_C@_0P@GKJOEMLC@IsSelectedSlot@ DB 'IsSelectedSlot', 00H ; `string'
CONST	ENDS
;	COMDAT ??_C@_0BG@DJKADEKA@GetSelectedSlotNumber@
CONST	SEGMENT
??_C@_0BG@DJKADEKA@GetSelectedSlotNumber@ DB 'GetSelectedSlotNumber', 00H ; `string'
CONST	ENDS
;	COMDAT ??_C@_0BF@EECMELAK@GetSelectedSlotCount@
CONST	SEGMENT
??_C@_0BF@EECMELAK@GetSelectedSlotCount@ DB 'GetSelectedSlotCount', 00H ; `string'
CONST	ENDS
;	COMDAT ??_C@_0O@OGHLMGNI@ClearSelected@
CONST	SEGMENT
??_C@_0O@OGHLMGNI@ClearSelected@ DB 'ClearSelected', 00H ; `string'
CONST	ENDS
;	COMDAT ??_C@_0L@EMMADCIN@SelectSlot@
CONST	SEGMENT
??_C@_0L@EMMADCIN@SelectSlot@ DB 'SelectSlot', 00H	; `string'
CONST	ENDS
;	COMDAT ??_C@_0BM@HGKBMEM@DisableSlotHighlightedGreen@
CONST	SEGMENT
??_C@_0BM@HGKBMEM@DisableSlotHighlightedGreen@ DB 'DisableSlotHighlighted'
	DB	'Green', 00H					; `string'
CONST	ENDS
;	COMDAT ??_C@_0BJ@MHPLGOEE@SetSlotHighlightedGreeen@
CONST	SEGMENT
??_C@_0BJ@MHPLGOEE@SetSlotHighlightedGreeen@ DB 'SetSlotHighlightedGreeen'
	DB	00H						; `string'
CONST	ENDS
;	COMDAT ??_C@_0BE@NIFHGONC@GetPickedSlotNumber@
CONST	SEGMENT
??_C@_0BE@NIFHGONC@GetPickedSlotNumber@ DB 'GetPickedSlotNumber', 00H ; `string'
CONST	ENDS
;	COMDAT ??_C@_0BB@KLCMDKEF@IsSwitchableItem@
CONST	SEGMENT
??_C@_0BB@KLCMDKEF@IsSwitchableItem@ DB 'IsSwitchableItem', 00H ; `string'
CONST	ENDS
;	COMDAT ??_C@_0BC@DNDCFHHB@SetSwitchableItem@
CONST	SEGMENT
??_C@_0BC@DNDCFHHB@SetSwitchableItem@ DB 'SetSwitchableItem', 00H ; `string'
CONST	ENDS
;	COMDAT ??_C@_0N@HONPKAJH@IsSwitchMode@
CONST	SEGMENT
??_C@_0N@HONPKAJH@IsSwitchMode@ DB 'IsSwitchMode', 00H	; `string'
CONST	ENDS
;	COMDAT ??_C@_0O@KGCGGKBF@SetSwitchMode@
CONST	SEGMENT
??_C@_0O@KGCGGKBF@SetSwitchMode@ DB 'SetSwitchMode', 00H ; `string'
CONST	ENDS
;	COMDAT ??_C@_0N@GPNIKFEM@IsUsableItem@
CONST	SEGMENT
??_C@_0N@GPNIKFEM@IsUsableItem@ DB 'IsUsableItem', 00H	; `string'
CONST	ENDS
;	COMDAT ??_C@_0O@LHCBGPMO@SetUsableItem@
CONST	SEGMENT
??_C@_0O@LHCBGPMO@SetUsableItem@ DB 'SetUsableItem', 00H ; `string'
CONST	ENDS
;	COMDAT ??_C@_09LLPJGKLN@IsUseMode@
CONST	SEGMENT
??_C@_09LLPJGKLN@IsUseMode@ DB 'IsUseMode', 00H		; `string'
CONST	ENDS
;	COMDAT ??_C@_0L@ODKIIGJF@SetUseMode@
CONST	SEGMENT
??_C@_0L@ODKIIGJF@SetUseMode@ DB 'SetUseMode', 00H	; `string'
CONST	ENDS
;	COMDAT ??_C@_0M@NAPCHMAM@RefreshSlot@
CONST	SEGMENT
??_C@_0M@NAPCHMAM@RefreshSlot@ DB 'RefreshSlot', 00H	; `string'
CONST	ENDS
;	COMDAT ??_C@_0BE@LNAIGOOK@HideRequirementSign@
CONST	SEGMENT
??_C@_0BE@LNAIGOOK@HideRequirementSign@ DB 'HideRequirementSign', 00H ; `string'
CONST	ENDS
;	COMDAT ??_C@_0BE@IGOEKEDL@ShowRequirementSign@
CONST	SEGMENT
??_C@_0BE@IGOEKEDL@ShowRequirementSign@ DB 'ShowRequirementSign', 00H ; `string'
CONST	ENDS
;	COMDAT ??_C@_0BC@IHMDJONI@HideAllSlotButton@
CONST	SEGMENT
??_C@_0BC@IHMDJONI@HideAllSlotButton@ DB 'HideAllSlotButton', 00H ; `string'
CONST	ENDS
;	COMDAT ??_C@_0P@CINLEJEK@ShowSlotButton@
CONST	SEGMENT
??_C@_0P@CINLEJEK@ShowSlotButton@ DB 'ShowSlotButton', 00H ; `string'
CONST	ENDS
;	COMDAT ??_C@_0BL@CCGBCIBD@AppendRequirementSignImage@
CONST	SEGMENT
??_C@_0BL@CCGBCIBD@AppendRequirementSignImage@ DB 'AppendRequirementSignI'
	DB	'mage', 00H					; `string'
CONST	ENDS
;	COMDAT ??_C@_0BB@LLDDGEIL@AppendSlotButton@
CONST	SEGMENT
??_C@_0BB@LLDDGEIL@AppendSlotButton@ DB 'AppendSlotButton', 00H ; `string'
CONST	ENDS
;	COMDAT ??_C@_0P@BOOMPDBD@GetSlotIndices@
CONST	SEGMENT
??_C@_0P@BOOMPDBD@GetSlotIndices@ DB 'GetSlotIndices', 00H ; `string'
CONST	ENDS
;	COMDAT ??_C@_0BC@POMJDPJH@DeleteCoverButton@
CONST	SEGMENT
??_C@_0BC@POMJDPJH@DeleteCoverButton@ DB 'DeleteCoverButton', 00H ; `string'
CONST	ENDS
;	COMDAT ??_C@_0BL@PAFAGEGB@SetAlwaysRenderCoverButton@
CONST	SEGMENT
??_C@_0BL@PAFAGEGB@SetAlwaysRenderCoverButton@ DB 'SetAlwaysRenderCoverBu'
	DB	'tton', 00H					; `string'
CONST	ENDS
;	COMDAT ??_C@_0BF@ILDMDDMH@IsDisableCoverButton@
CONST	SEGMENT
??_C@_0BF@ILDMDDMH@IsDisableCoverButton@ DB 'IsDisableCoverButton', 00H ; `string'
CONST	ENDS
;	COMDAT ??_C@_0BD@DOJCOOMI@DisableCoverButton@
CONST	SEGMENT
??_C@_0BD@DOJCOOMI@DisableCoverButton@ DB 'DisableCoverButton', 00H ; `string'
CONST	ENDS
;	COMDAT ??_C@_0BC@GDLBPCHF@EnableCoverButton@
CONST	SEGMENT
??_C@_0BC@GDLBPCHF@EnableCoverButton@ DB 'EnableCoverButton', 00H ; `string'
CONST	ENDS
;	COMDAT ??_C@_0P@JKHNGGPA@SetCoverButton@
CONST	SEGMENT
??_C@_0P@JKHNGGPA@SetCoverButton@ DB 'SetCoverButton', 00H ; `string'
CONST	ENDS
;	COMDAT ??_C@_0BB@IOMAJEMI@SetSlotBaseImage@
CONST	SEGMENT
??_C@_0BB@IOMAJEMI@SetSlotBaseImage@ DB 'SetSlotBaseImage', 00H ; `string'
CONST	ENDS
;	COMDAT ??_C@_0N@IKGBKPJJ@SetSlotStyle@
CONST	SEGMENT
??_C@_0N@IKGBKPJJ@SetSlotStyle@ DB 'SetSlotStyle', 00H	; `string'
CONST	ENDS
;	COMDAT ??_C@_0M@KHOHGEMH@SetSlotType@
CONST	SEGMENT
??_C@_0M@KHOHGEMH@SetSlotType@ DB 'SetSlotType', 00H	; `string'
CONST	ENDS
;	COMDAT ??_C@_0BC@NFMHNFLM@HideSlotBaseImage@
CONST	SEGMENT
??_C@_0BC@NFMHNFLM@HideSlotBaseImage@ DB 'HideSlotBaseImage', 00H ; `string'
CONST	ENDS
;	COMDAT ??_C@_0BC@DHCKDEOK@ShowSlotBaseImage@
CONST	SEGMENT
??_C@_0BC@DHCKDEOK@ShowSlotBaseImage@ DB 'ShowSlotBaseImage', 00H ; `string'
CONST	ENDS
;	COMDAT ??_C@_0O@JOELLDFD@SetUsableSlot@
CONST	SEGMENT
??_C@_0O@JOELLDFD@SetUsableSlot@ DB 'SetUsableSlot', 00H ; `string'
CONST	ENDS
;	COMDAT ??_C@_0BA@PMAALDEC@SetUnusableSlot@
CONST	SEGMENT
??_C@_0BA@PMAALDEC@SetUnusableSlot@ DB 'SetUnusableSlot', 00H ; `string'
CONST	ENDS
;	COMDAT ??_C@_0M@EKMKGECP@DisableSlot@
CONST	SEGMENT
??_C@_0M@EKMKGECP@DisableSlot@ DB 'DisableSlot', 00H	; `string'
CONST	ENDS
;	COMDAT ??_C@_0L@DHCLIIGL@EnableSlot@
CONST	SEGMENT
??_C@_0L@DHCLIIGL@EnableSlot@ DB 'EnableSlot', 00H	; `string'
CONST	ENDS
;	COMDAT ??_C@_0BC@OALEFDOD@NewDeactivateSlot@
CONST	SEGMENT
??_C@_0BC@OALEFDOD@NewDeactivateSlot@ DB 'NewDeactivateSlot', 00H ; `string'
CONST	ENDS
;	COMDAT ??_C@_0BA@GGAABDOP@NewActivateSlot@
CONST	SEGMENT
??_C@_0BA@GGAABDOP@NewActivateSlot@ DB 'NewActivateSlot', 00H ; `string'
CONST	ENDS
;	COMDAT ??_C@_0P@FGAIANEO@DeactivateSlot@
CONST	SEGMENT
??_C@_0P@FGAIANEO@DeactivateSlot@ DB 'DeactivateSlot', 00H ; `string'
CONST	ENDS
;	COMDAT ??_C@_0N@HFCIPMIE@ActivateSlot@
CONST	SEGMENT
??_C@_0N@HFCIPMIE@ActivateSlot@ DB 'ActivateSlot', 00H	; `string'
CONST	ENDS
;	COMDAT ??_C@_0O@FJKNHKBL@SetToggleSlot@
CONST	SEGMENT
??_C@_0O@FJKNHKBL@SetToggleSlot@ DB 'SetToggleSlot', 00H ; `string'
CONST	ENDS
;	COMDAT ??_C@_0BA@OKBNFKML@SetSlotCoolTime@
CONST	SEGMENT
??_C@_0BA@OKBNFKML@SetSlotCoolTime@ DB 'SetSlotCoolTime', 00H ; `string'
CONST	ENDS
;	COMDAT ??_C@_0BA@OOLIKBKI@SetSlotCountNew@
CONST	SEGMENT
??_C@_0BA@OOLIKBKI@SetSlotCountNew@ DB 'SetSlotCountNew', 00H ; `string'
CONST	ENDS
;	COMDAT ??_C@_0N@IEAMEDFH@SetSlotCount@
CONST	SEGMENT
??_C@_0N@IEAMEDFH@SetSlotCount@ DB 'SetSlotCount', 00H	; `string'
CONST	ENDS
;	COMDAT ??_C@_07ONCDFGJ@SetSlot@
CONST	SEGMENT
??_C@_07ONCDFGJ@SetSlot@ DB 'SetSlot', 00H		; `string'
CONST	ENDS
;	COMDAT ??_C@_07MGEJAMLP@HasSlot@
CONST	SEGMENT
??_C@_07MGEJAMLP@HasSlot@ DB 'HasSlot', 00H		; `string'
CONST	ENDS
;	COMDAT ??_C@_0N@MMOLDNHK@ClearAllSlot@
CONST	SEGMENT
??_C@_0N@MMOLDNHK@ClearAllSlot@ DB 'ClearAllSlot', 00H	; `string'
CONST	ENDS
;	COMDAT ??_C@_09CGBENBJB@ClearSlot@
CONST	SEGMENT
??_C@_09CGBENBJB@ClearSlot@ DB 'ClearSlot', 00H		; `string'
CONST	ENDS
;	COMDAT ??_C@_0M@OFNEHKDL@ArrangeSlot@
CONST	SEGMENT
??_C@_0M@OFNEHKDL@ArrangeSlot@ DB 'ArrangeSlot', 00H	; `string'
CONST	ENDS
;	COMDAT ??_C@_0L@FDCINHBF@AppendSlot@
CONST	SEGMENT
??_C@_0L@FDCINHBF@AppendSlot@ DB 'AppendSlot', 00H	; `string'
CONST	ENDS
;	COMDAT ??_C@_0L@HJOBPCKA@UpdateRect@
CONST	SEGMENT
??_C@_0L@HJOBPCKA@UpdateRect@ DB 'UpdateRect', 00H	; `string'
CONST	ENDS
;	COMDAT ??_C@_0N@CCOOMDHD@SetLimitBias@
CONST	SEGMENT
??_C@_0N@CCOOMDHD@SetLimitBias@ DB 'SetLimitBias', 00H	; `string'
CONST	ENDS
;	COMDAT ??_C@_0L@HEPBODCJ@IsDragging@
CONST	SEGMENT
??_C@_0L@HEPBODCJ@IsDragging@ DB 'IsDragging', 00H	; `string'
CONST	ENDS
;	COMDAT ??_C@_0BB@MMLACOLH@GetMousePosition@
CONST	SEGMENT
??_C@_0BB@MMLACOLH@GetMousePosition@ DB 'GetMousePosition', 00H ; `string'
CONST	ENDS
;	COMDAT ??_C@_0BG@NHBHOLBI@GetMouseLocalPosition@
CONST	SEGMENT
??_C@_0BG@NHBHOLBI@GetMouseLocalPosition@ DB 'GetMouseLocalPosition', 00H ; `string'
CONST	ENDS
;	COMDAT ??_C@_04JBIBMNMO@IsIn@
CONST	SEGMENT
??_C@_04JBIBMNMO@IsIn@ DB 'IsIn', 00H			; `string'
CONST	ENDS
;	COMDAT ??_C@_0P@GEIEEBJH@IsPickedWindow@
CONST	SEGMENT
??_C@_0P@GEIEEBJH@IsPickedWindow@ DB 'IsPickedWindow', 00H ; `string'
CONST	ENDS
;	COMDAT ??_C@_0O@HMBCELHA@GetChildCount@
CONST	SEGMENT
??_C@_0O@HMBCELHA@GetChildCount@ DB 'GetChildCount', 00H ; `string'
CONST	ENDS
;	COMDAT ??_C@_0BH@KDPMNJIB@SetWindowVerticalAlign@
CONST	SEGMENT
??_C@_0BH@KDPMNJIB@SetWindowVerticalAlign@ DB 'SetWindowVerticalAlign', 00H ; `string'
CONST	ENDS
;	COMDAT ??_C@_0BJ@FGPBHCAH@SetWindowHorizontalAlign@
CONST	SEGMENT
??_C@_0BJ@FGPBHCAH@SetWindowHorizontalAlign@ DB 'SetWindowHorizontalAlign'
	DB	00H						; `string'
CONST	ENDS
;	COMDAT ??_C@_0O@KGOHEIMB@GetWindowRect@
CONST	SEGMENT
??_C@_0O@KGOHEIMB@GetWindowRect@ DB 'GetWindowRect', 00H ; `string'
CONST	ENDS
;	COMDAT ??_C@_0BI@NOJPNPDO@GetWindowGlobalPosition@
CONST	SEGMENT
??_C@_0BI@NOJPNPDO@GetWindowGlobalPosition@ DB 'GetWindowGlobalPosition', 00H ; `string'
CONST	ENDS
;	COMDAT ??_C@_0BH@KEOBHEHD@GetWindowLocalPosition@
CONST	SEGMENT
??_C@_0BH@KEOBHEHD@GetWindowLocalPosition@ DB 'GetWindowLocalPosition', 00H ; `string'
CONST	ENDS
;	COMDAT ??_C@_0BA@GMMDIMHA@GetWindowHeight@
CONST	SEGMENT
??_C@_0BA@GMMDIMHA@GetWindowHeight@ DB 'GetWindowHeight', 00H ; `string'
CONST	ENDS
;	COMDAT ??_C@_0P@EJALLAMK@GetWindowWidth@
CONST	SEGMENT
??_C@_0P@EJALLAMK@GetWindowWidth@ DB 'GetWindowWidth', 00H ; `string'
CONST	ENDS
;	COMDAT ??_C@_0BC@CONADAIE@SetWindowPosition@
CONST	SEGMENT
??_C@_0BC@CONADAIE@SetWindowPosition@ DB 'SetWindowPosition', 00H ; `string'
CONST	ENDS
;	COMDAT ??_C@_0O@OOGBNGFB@SetWindowSize@
CONST	SEGMENT
??_C@_0O@OOGBNGFB@SetWindowSize@ DB 'SetWindowSize', 00H ; `string'
CONST	ENDS
;	COMDAT ??_C@_06NCJPDCLH@Unlock@
CONST	SEGMENT
??_C@_06NCJPDCLH@Unlock@ DB 'Unlock', 00H		; `string'
CONST	ENDS
;	COMDAT ??_C@_04LADJNOK@Lock@
CONST	SEGMENT
??_C@_04LADJNOK@Lock@ DB 'Lock', 00H			; `string'
CONST	ENDS
;	COMDAT ??_C@_09PMGFBOMK@KillFocus@
CONST	SEGMENT
??_C@_09PMGFBOMK@KillFocus@ DB 'KillFocus', 00H		; `string'
CONST	ENDS
;	COMDAT ??_C@_08GPNNBNIL@SetFocus@
CONST	SEGMENT
??_C@_08GPNNBNIL@SetFocus@ DB 'SetFocus', 00H		; `string'
CONST	ENDS
;	COMDAT ??_C@_07MMFHOCGI@IsFocus@
CONST	SEGMENT
??_C@_07MMFHOCGI@IsFocus@ DB 'IsFocus', 00H		; `string'
CONST	ENDS
;	COMDAT ??_C@_0O@PGINCMBF@SetPickAlways@
CONST	SEGMENT
??_C@_0O@PGINCMBF@SetPickAlways@ DB 'SetPickAlways', 00H ; `string'
CONST	ENDS
;	COMDAT ??_C@_09BGDFCKEN@SetParent@
CONST	SEGMENT
??_C@_09BGDFCKEN@SetParent@ DB 'SetParent', 00H		; `string'
CONST	ENDS
;	COMDAT ??_C@_06JMGCGGJP@IsShow@
CONST	SEGMENT
??_C@_06JMGCGGJP@IsShow@ DB 'IsShow', 00H		; `string'
CONST	ENDS
;	COMDAT ??_C@_04EACEFPPN@Hide@
CONST	SEGMENT
??_C@_04EACEFPPN@Hide@ DB 'Hide', 00H			; `string'
CONST	ENDS
;	COMDAT ??_C@_04JLAJABDJ@Show@
CONST	SEGMENT
??_C@_04JLAJABDJ@Show@ DB 'Show', 00H			; `string'
CONST	ENDS
;	COMDAT ??_C@_05PAMDPCPJ@IsTop@
CONST	SEGMENT
??_C@_05PAMDPCPJ@IsTop@ DB 'IsTop', 00H			; `string'
CONST	ENDS
;	COMDAT ??_C@_06MBOGGFD@SetTop@
CONST	SEGMENT
??_C@_06MBOGGFD@SetTop@ DB 'SetTop', 00H		; `string'
CONST	ENDS
;	COMDAT ??_C@_07MMGEHGCI@GetName@
CONST	SEGMENT
??_C@_07MMGEHGCI@GetName@ DB 'GetName', 00H		; `string'
CONST	ENDS
;	COMDAT ??_C@_07DEJFEJPJ@SetName@
CONST	SEGMENT
??_C@_07DEJFEJPJ@SetName@ DB 'SetName', 00H		; `string'
CONST	ENDS
;	COMDAT ??_C@_05IOGFNOKL@IsRTL@
CONST	SEGMENT
??_C@_05IOGFNOKL@IsRTL@ DB 'IsRTL', 00H			; `string'
CONST	ENDS
;	COMDAT ??_C@_0L@DFOIPDPL@RemoveFlag@
CONST	SEGMENT
??_C@_0L@DFOIPDPL@RemoveFlag@ DB 'RemoveFlag', 00H	; `string'
CONST	ENDS
;	COMDAT ??_C@_07FGJMHOHK@AddFlag@
CONST	SEGMENT
??_C@_07FGJMHOHK@AddFlag@ DB 'AddFlag', 00H		; `string'
CONST	ENDS
;	COMDAT ??_C@_07BDCAJABG@Destroy@
CONST	SEGMENT
??_C@_07BDCAJABG@Destroy@ DB 'Destroy', 00H		; `string'
CONST	ENDS
;	COMDAT ??_C@_0BD@DBAMBKME@RegisterNumberLine@
CONST	SEGMENT
??_C@_0BD@DBAMBKME@RegisterNumberLine@ DB 'RegisterNumberLine', 00H ; `string'
CONST	ENDS
;	COMDAT ??_C@_0O@EKKPECKF@RegisterBar3D@
CONST	SEGMENT
??_C@_0O@EKKPECKF@RegisterBar3D@ DB 'RegisterBar3D', 00H ; `string'
CONST	ENDS
;	COMDAT ??_C@_0N@ICAPFHKF@RegisterLine@
CONST	SEGMENT
??_C@_0N@ICAPFHKF@RegisterLine@ DB 'RegisterLine', 00H	; `string'
CONST	ENDS
;	COMDAT ??_C@_0M@DCMAIKFH@RegisterBar@
CONST	SEGMENT
??_C@_0M@DCMAIKFH@RegisterBar@ DB 'RegisterBar', 00H	; `string'
CONST	ENDS
;	COMDAT ??_C@_0M@MCLBEPNH@RegisterBox@
CONST	SEGMENT
??_C@_0M@MCLBEPNH@RegisterBox@ DB 'RegisterBox', 00H	; `string'
CONST	ENDS
;	COMDAT ??_C@_0BD@FJKAFMBK@RegisterDragButton@
CONST	SEGMENT
??_C@_0BD@FJKAFMBK@RegisterDragButton@ DB 'RegisterDragButton', 00H ; `string'
CONST	ENDS
;	COMDAT ??_C@_0BF@LKPDMOKE@RegisterToggleButton@
CONST	SEGMENT
??_C@_0BF@LKPDMOKE@RegisterToggleButton@ DB 'RegisterToggleButton', 00H ; `string'
CONST	ENDS
;	COMDAT ??_C@_0BE@LOKOGAFI@RegisterRadioButton@
CONST	SEGMENT
??_C@_0BE@LOKOGAFI@RegisterRadioButton@ DB 'RegisterRadioButton', 00H ; `string'
CONST	ENDS
;	COMDAT ??_C@_0P@HIFEMCKE@RegisterButton@
CONST	SEGMENT
??_C@_0P@HIFEMCKE@RegisterButton@ DB 'RegisterButton', 00H ; `string'
CONST	ENDS
;	COMDAT ??_C@_0BE@EHOJIJPF@RegisterAniImageBox@
CONST	SEGMENT
??_C@_0BE@EHOJIJPF@RegisterAniImageBox@ DB 'RegisterAniImageBox', 00H ; `string'
CONST	ENDS
;	COMDAT ??_C@_0BJ@HCLPCLBM@RegisterExpandedImageBox@
CONST	SEGMENT
??_C@_0BJ@HCLPCLBM@RegisterExpandedImageBox@ DB 'RegisterExpandedImageBox'
	DB	00H						; `string'
CONST	ENDS
;	COMDAT ??_C@_0BB@CGJHKCPO@RegisterImageBox@
CONST	SEGMENT
??_C@_0BB@CGJHKCPO@RegisterImageBox@ DB 'RegisterImageBox', 00H ; `string'
CONST	ENDS
;	COMDAT ??_C@_0BA@BLOHJECG@RegisterMarkBox@
CONST	SEGMENT
??_C@_0BA@BLOHJECG@RegisterMarkBox@ DB 'RegisterMarkBox', 00H ; `string'
CONST	ENDS
;	COMDAT ??_C@_0BB@JKLFNGCE@RegisterTextLine@
CONST	SEGMENT
??_C@_0BB@JKLFNGCE@RegisterTextLine@ DB 'RegisterTextLine', 00H ; `string'
CONST	ENDS
;	COMDAT ??_C@_0BH@HHDOCCCO@RegisterGridSlotWindow@
CONST	SEGMENT
??_C@_0BH@HHDOCCCO@RegisterGridSlotWindow@ DB 'RegisterGridSlotWindow', 00H ; `string'
CONST	ENDS
;	COMDAT ??_C@_0BD@HNEHNBHO@RegisterSlotWindow@
CONST	SEGMENT
??_C@_0BD@HNEHNBHO@RegisterSlotWindow@ DB 'RegisterSlotWindow', 00H ; `string'
CONST	ENDS
;	COMDAT ??_C@_08LFIJLPOM@Register@
CONST	SEGMENT
??_C@_08LFIJLPOM@Register@ DB 'Register', 00H		; `string'
CONST	ENDS
;	COMDAT ??_C@_0CB@JDNFNFMG@OnceIgnoreMouseLeftButtonUpEven@
CONST	SEGMENT
??_C@_0CB@JDNFNFMG@OnceIgnoreMouseLeftButtonUpEven@ DB 'OnceIgnoreMouseLe'
	DB	'ftButtonUpEvent', 00H			; `string'
CONST	ENDS
;	COMDAT ??_C@_0N@PCIKAOKG@GetHyperlink@
CONST	SEGMENT
??_C@_0N@PCIKAOKG@GetHyperlink@ DB 'GetHyperlink', 00H	; `string'
CONST	ENDS
;	COMDAT ??_C@_09MFNPPPAG@GetAspect@
CONST	SEGMENT
??_C@_09MFNPPPAG@GetAspect@ DB 'GetAspect', 00H		; `string'
CONST	ENDS
;	COMDAT ??_C@_0BB@OJBFCDNH@SetAttachingFlag@
CONST	SEGMENT
??_C@_0BB@OJBFCDNH@SetAttachingFlag@ DB 'SetAttachingFlag', 00H ; `string'
CONST	ENDS
;	COMDAT ??_C@_0N@HIMEHEBA@DeattachIcon@
CONST	SEGMENT
??_C@_0N@HIMEHEBA@DeattachIcon@ DB 'DeattachIcon', 00H	; `string'
CONST	ENDS
;	COMDAT ??_C@_0L@FHGOOMIM@AttachIcon@
CONST	SEGMENT
??_C@_0L@FHGOOMIM@AttachIcon@ DB 'AttachIcon', 00H	; `string'
CONST	ENDS
;	COMDAT ??_C@_0BA@PLLJJDCL@GetScreenHeight@
CONST	SEGMENT
??_C@_0BA@PLLJJDCL@GetScreenHeight@ DB 'GetScreenHeight', 00H ; `string'
CONST	ENDS
;	COMDAT ??_C@_0P@OBMNGDMB@GetScreenWidth@
CONST	SEGMENT
??_C@_0P@OBMNGDMB@GetScreenWidth@ DB 'GetScreenWidth', 00H ; `string'
CONST	ENDS
;	COMDAT ??_C@_0O@EPGNIIPM@SetScreenSize@
CONST	SEGMENT
??_C@_0O@EPGNIIPM@SetScreenSize@ DB 'SetScreenSize', 00H ; `string'
CONST	ENDS
;	COMDAT ??_C@_0BA@PPCHHCMN@SetMouseHandler@
CONST	SEGMENT
??_C@_0BA@PPCHHCMN@SetMouseHandler@ DB 'SetMouseHandler', 00H ; `string'
CONST	ENDS
;	COMDAT ?s_methods@?1??initwndMgr@@YAXXZ@4PAUPyMethodDef@@A
_DATA	SEGMENT
?s_methods@?1??initwndMgr@@YAXXZ@4PAUPyMethodDef@@A DD FLAT:??_C@_0BA@PPCHHCMN@SetMouseHandler@ ; `initwndMgr'::`2'::s_methods
	DD	FLAT:?wndMgrSetMouseHandler@@YAPAU_object@@PAU1@0@Z
	DD	01H
	ORG $+4
	DD	FLAT:??_C@_0O@EPGNIIPM@SetScreenSize@
	DD	FLAT:?wndMgrSetScreenSize@@YAPAU_object@@PAU1@0@Z
	DD	01H
	ORG $+4
	DD	FLAT:??_C@_0P@OBMNGDMB@GetScreenWidth@
	DD	FLAT:?wndMgrGetScreenWidth@@YAPAU_object@@PAU1@0@Z
	DD	01H
	ORG $+4
	DD	FLAT:??_C@_0BA@PLLJJDCL@GetScreenHeight@
	DD	FLAT:?wndMgrGetScreenHeight@@YAPAU_object@@PAU1@0@Z
	DD	01H
	ORG $+4
	DD	FLAT:??_C@_0L@FHGOOMIM@AttachIcon@
	DD	FLAT:?wndMgrAttachIcon@@YAPAU_object@@PAU1@0@Z
	DD	01H
	ORG $+4
	DD	FLAT:??_C@_0N@HIMEHEBA@DeattachIcon@
	DD	FLAT:?wndMgrDeattachIcon@@YAPAU_object@@PAU1@0@Z
	DD	01H
	ORG $+4
	DD	FLAT:??_C@_0BB@OJBFCDNH@SetAttachingFlag@
	DD	FLAT:?wndMgrSetAttachingFlag@@YAPAU_object@@PAU1@0@Z
	DD	01H
	ORG $+4
	DD	FLAT:??_C@_09MFNPPPAG@GetAspect@
	DD	FLAT:?wndMgrGetAspect@@YAPAU_object@@PAU1@0@Z
	DD	01H
	ORG $+4
	DD	FLAT:??_C@_0N@PCIKAOKG@GetHyperlink@
	DD	FLAT:?wndMgrGetHyperlink@@YAPAU_object@@PAU1@0@Z
	DD	01H
	ORG $+4
	DD	FLAT:??_C@_0CB@JDNFNFMG@OnceIgnoreMouseLeftButtonUpEven@
	DD	FLAT:?wndMgrOnceIgnoreMouseLeftButtonUpEvent@@YAPAU_object@@PAU1@0@Z
	DD	01H
	ORG $+4
	DD	FLAT:??_C@_08LFIJLPOM@Register@
	DD	FLAT:?wndMgrRegister@@YAPAU_object@@PAU1@0@Z
	DD	01H
	ORG $+4
	DD	FLAT:??_C@_0BD@HNEHNBHO@RegisterSlotWindow@
	DD	FLAT:?wndMgrRegisterSlotWindow@@YAPAU_object@@PAU1@0@Z
	DD	01H
	ORG $+4
	DD	FLAT:??_C@_0BH@HHDOCCCO@RegisterGridSlotWindow@
	DD	FLAT:?wndMgrRegisterGridSlotWindow@@YAPAU_object@@PAU1@0@Z
	DD	01H
	ORG $+4
	DD	FLAT:??_C@_0BB@JKLFNGCE@RegisterTextLine@
	DD	FLAT:?wndMgrRegisterTextLine@@YAPAU_object@@PAU1@0@Z
	DD	01H
	ORG $+4
	DD	FLAT:??_C@_0BA@BLOHJECG@RegisterMarkBox@
	DD	FLAT:?wndMgrRegisterMarkBox@@YAPAU_object@@PAU1@0@Z
	DD	01H
	ORG $+4
	DD	FLAT:??_C@_0BB@CGJHKCPO@RegisterImageBox@
	DD	FLAT:?wndMgrRegisterImageBox@@YAPAU_object@@PAU1@0@Z
	DD	01H
	ORG $+4
	DD	FLAT:??_C@_0BJ@HCLPCLBM@RegisterExpandedImageBox@
	DD	FLAT:?wndMgrRegisterExpandedImageBox@@YAPAU_object@@PAU1@0@Z
	DD	01H
	ORG $+4
	DD	FLAT:??_C@_0BE@EHOJIJPF@RegisterAniImageBox@
	DD	FLAT:?wndMgrRegisterAniImageBox@@YAPAU_object@@PAU1@0@Z
	DD	01H
	ORG $+4
	DD	FLAT:??_C@_0P@HIFEMCKE@RegisterButton@
	DD	FLAT:?wndMgrRegisterButton@@YAPAU_object@@PAU1@0@Z
	DD	01H
	ORG $+4
	DD	FLAT:??_C@_0BE@LOKOGAFI@RegisterRadioButton@
	DD	FLAT:?wndMgrRegisterRadioButton@@YAPAU_object@@PAU1@0@Z
	DD	01H
	ORG $+4
	DD	FLAT:??_C@_0BF@LKPDMOKE@RegisterToggleButton@
	DD	FLAT:?wndMgrRegisterToggleButton@@YAPAU_object@@PAU1@0@Z
	DD	01H
	ORG $+4
	DD	FLAT:??_C@_0BD@FJKAFMBK@RegisterDragButton@
	DD	FLAT:?wndMgrRegisterDragButton@@YAPAU_object@@PAU1@0@Z
	DD	01H
	ORG $+4
	DD	FLAT:??_C@_0M@MCLBEPNH@RegisterBox@
	DD	FLAT:?wndMgrRegisterBox@@YAPAU_object@@PAU1@0@Z
	DD	01H
	ORG $+4
	DD	FLAT:??_C@_0M@DCMAIKFH@RegisterBar@
	DD	FLAT:?wndMgrRegisterBar@@YAPAU_object@@PAU1@0@Z
	DD	01H
	ORG $+4
	DD	FLAT:??_C@_0N@ICAPFHKF@RegisterLine@
	DD	FLAT:?wndMgrRegisterLine@@YAPAU_object@@PAU1@0@Z
	DD	01H
	ORG $+4
	DD	FLAT:??_C@_0O@EKKPECKF@RegisterBar3D@
	DD	FLAT:?wndMgrRegisterBar3D@@YAPAU_object@@PAU1@0@Z
	DD	01H
	ORG $+4
	DD	FLAT:??_C@_0BD@DBAMBKME@RegisterNumberLine@
	DD	FLAT:?wndMgrRegisterNumberLine@@YAPAU_object@@PAU1@0@Z
	DD	01H
	ORG $+4
	DD	FLAT:??_C@_07BDCAJABG@Destroy@
	DD	FLAT:?wndMgrDestroy@@YAPAU_object@@PAU1@0@Z
	DD	01H
	ORG $+4
	DD	FLAT:??_C@_07FGJMHOHK@AddFlag@
	DD	FLAT:?wndMgrAddFlag@@YAPAU_object@@PAU1@0@Z
	DD	01H
	ORG $+4
	DD	FLAT:??_C@_0L@DFOIPDPL@RemoveFlag@
	DD	FLAT:?wndMgrRemoveFlag@@YAPAU_object@@PAU1@0@Z
	DD	01H
	ORG $+4
	DD	FLAT:??_C@_05IOGFNOKL@IsRTL@
	DD	FLAT:?wndMgrIsRTL@@YAPAU_object@@PAU1@0@Z
	DD	01H
	ORG $+4
	DD	FLAT:??_C@_07DEJFEJPJ@SetName@
	DD	FLAT:?wndMgrSetName@@YAPAU_object@@PAU1@0@Z
	DD	01H
	ORG $+4
	DD	FLAT:??_C@_07MMGEHGCI@GetName@
	DD	FLAT:?wndMgrGetName@@YAPAU_object@@PAU1@0@Z
	DD	01H
	ORG $+4
	DD	FLAT:??_C@_06MBOGGFD@SetTop@
	DD	FLAT:?wndMgrSetTop@@YAPAU_object@@PAU1@0@Z
	DD	01H
	ORG $+4
	DD	FLAT:??_C@_05PAMDPCPJ@IsTop@
	DD	FLAT:?wndMgrIsTop@@YAPAU_object@@PAU1@0@Z
	DD	01H
	ORG $+4
	DD	FLAT:??_C@_04JLAJABDJ@Show@
	DD	FLAT:?wndMgrShow@@YAPAU_object@@PAU1@0@Z
	DD	01H
	ORG $+4
	DD	FLAT:??_C@_04EACEFPPN@Hide@
	DD	FLAT:?wndMgrHide@@YAPAU_object@@PAU1@0@Z
	DD	01H
	ORG $+4
	DD	FLAT:??_C@_06JMGCGGJP@IsShow@
	DD	FLAT:?wndMgrIsShow@@YAPAU_object@@PAU1@0@Z
	DD	01H
	ORG $+4
	DD	FLAT:??_C@_09BGDFCKEN@SetParent@
	DD	FLAT:?wndMgrSetParent@@YAPAU_object@@PAU1@0@Z
	DD	01H
	ORG $+4
	DD	FLAT:??_C@_0O@PGINCMBF@SetPickAlways@
	DD	FLAT:?wndMgrSetPickAlways@@YAPAU_object@@PAU1@0@Z
	DD	01H
	ORG $+4
	DD	FLAT:??_C@_07MMFHOCGI@IsFocus@
	DD	FLAT:?wndMgrIsFocus@@YAPAU_object@@PAU1@0@Z
	DD	01H
	ORG $+4
	DD	FLAT:??_C@_08GPNNBNIL@SetFocus@
	DD	FLAT:?wndMgrSetFocus@@YAPAU_object@@PAU1@0@Z
	DD	01H
	ORG $+4
	DD	FLAT:??_C@_09PMGFBOMK@KillFocus@
	DD	FLAT:?wndMgrKillFocus@@YAPAU_object@@PAU1@0@Z
	DD	01H
	ORG $+4
	DD	FLAT:??_C@_04LADJNOK@Lock@
	DD	FLAT:?wndMgrLock@@YAPAU_object@@PAU1@0@Z
	DD	01H
	ORG $+4
	DD	FLAT:??_C@_06NCJPDCLH@Unlock@
	DD	FLAT:?wndMgrUnlock@@YAPAU_object@@PAU1@0@Z
	DD	01H
	ORG $+4
	DD	FLAT:??_C@_0O@OOGBNGFB@SetWindowSize@
	DD	FLAT:?wndMgrSetWndSize@@YAPAU_object@@PAU1@0@Z
	DD	01H
	ORG $+4
	DD	FLAT:??_C@_0BC@CONADAIE@SetWindowPosition@
	DD	FLAT:?wndMgrSetWndPosition@@YAPAU_object@@PAU1@0@Z
	DD	01H
	ORG $+4
	DD	FLAT:??_C@_0P@EJALLAMK@GetWindowWidth@
	DD	FLAT:?wndMgrGetWndWidth@@YAPAU_object@@PAU1@0@Z
	DD	01H
	ORG $+4
	DD	FLAT:??_C@_0BA@GMMDIMHA@GetWindowHeight@
	DD	FLAT:?wndMgrGetWndHeight@@YAPAU_object@@PAU1@0@Z
	DD	01H
	ORG $+4
	DD	FLAT:??_C@_0BH@KEOBHEHD@GetWindowLocalPosition@
	DD	FLAT:?wndMgrGetWndLocalPosition@@YAPAU_object@@PAU1@0@Z
	DD	01H
	ORG $+4
	DD	FLAT:??_C@_0BI@NOJPNPDO@GetWindowGlobalPosition@
	DD	FLAT:?wndMgrGetWndGlobalPosition@@YAPAU_object@@PAU1@0@Z
	DD	01H
	ORG $+4
	DD	FLAT:??_C@_0O@KGOHEIMB@GetWindowRect@
	DD	FLAT:?wndMgrGetWindowRect@@YAPAU_object@@PAU1@0@Z
	DD	01H
	ORG $+4
	DD	FLAT:??_C@_0BJ@FGPBHCAH@SetWindowHorizontalAlign@
	DD	FLAT:?wndMgrSetWindowHorizontalAlign@@YAPAU_object@@PAU1@0@Z
	DD	01H
	ORG $+4
	DD	FLAT:??_C@_0BH@KDPMNJIB@SetWindowVerticalAlign@
	DD	FLAT:?wndMgrSetWindowVerticalAlign@@YAPAU_object@@PAU1@0@Z
	DD	01H
	ORG $+4
	DD	FLAT:??_C@_0O@HMBCELHA@GetChildCount@
	DD	FLAT:?wndMgrGetChildCount@@YAPAU_object@@PAU1@0@Z
	DD	01H
	ORG $+4
	DD	FLAT:??_C@_0P@GEIEEBJH@IsPickedWindow@
	DD	FLAT:?wndMgrIsPickedWindow@@YAPAU_object@@PAU1@0@Z
	DD	01H
	ORG $+4
	DD	FLAT:??_C@_04JBIBMNMO@IsIn@
	DD	FLAT:?wndMgrIsIn@@YAPAU_object@@PAU1@0@Z
	DD	01H
	ORG $+4
	DD	FLAT:??_C@_0BG@NHBHOLBI@GetMouseLocalPosition@
	DD	FLAT:?wndMgrGetMouseLocalPosition@@YAPAU_object@@PAU1@0@Z
	DD	01H
	ORG $+4
	DD	FLAT:??_C@_0BB@MMLACOLH@GetMousePosition@
	DD	FLAT:?wndMgrGetMousePosition@@YAPAU_object@@PAU1@0@Z
	DD	01H
	ORG $+4
	DD	FLAT:??_C@_0L@HEPBODCJ@IsDragging@
	DD	FLAT:?wndMgrIsDragging@@YAPAU_object@@PAU1@0@Z
	DD	01H
	ORG $+4
	DD	FLAT:??_C@_0N@CCOOMDHD@SetLimitBias@
	DD	FLAT:?wndMgrSetLimitBias@@YAPAU_object@@PAU1@0@Z
	DD	01H
	ORG $+4
	DD	FLAT:??_C@_0L@HJOBPCKA@UpdateRect@
	DD	FLAT:?wndMgrUpdateRect@@YAPAU_object@@PAU1@0@Z
	DD	01H
	ORG $+4
	DD	FLAT:??_C@_0L@FDCINHBF@AppendSlot@
	DD	FLAT:?wndMgrAppendSlot@@YAPAU_object@@PAU1@0@Z
	DD	01H
	ORG $+4
	DD	FLAT:??_C@_0M@OFNEHKDL@ArrangeSlot@
	DD	FLAT:?wndMgrArrangeSlot@@YAPAU_object@@PAU1@0@Z
	DD	01H
	ORG $+4
	DD	FLAT:??_C@_09CGBENBJB@ClearSlot@
	DD	FLAT:?wndMgrClearSlot@@YAPAU_object@@PAU1@0@Z
	DD	01H
	ORG $+4
	DD	FLAT:??_C@_0N@MMOLDNHK@ClearAllSlot@
	DD	FLAT:?wndMgrClearAllSlot@@YAPAU_object@@PAU1@0@Z
	DD	01H
	ORG $+4
	DD	FLAT:??_C@_07MGEJAMLP@HasSlot@
	DD	FLAT:?wndMgrHasSlot@@YAPAU_object@@PAU1@0@Z
	DD	01H
	ORG $+4
	DD	FLAT:??_C@_07ONCDFGJ@SetSlot@
	DD	FLAT:?wndMgrSetSlot@@YAPAU_object@@PAU1@0@Z
	DD	01H
	ORG $+4
	DD	FLAT:??_C@_0N@IEAMEDFH@SetSlotCount@
	DD	FLAT:?wndMgrSetSlotCount@@YAPAU_object@@PAU1@0@Z
	DD	01H
	ORG $+4
	DD	FLAT:??_C@_0BA@OOLIKBKI@SetSlotCountNew@
	DD	FLAT:?wndMgrSetSlotCountNew@@YAPAU_object@@PAU1@0@Z
	DD	01H
	ORG $+4
	DD	FLAT:??_C@_0BA@OKBNFKML@SetSlotCoolTime@
	DD	FLAT:?wndMgrSetSlotCoolTime@@YAPAU_object@@PAU1@0@Z
	DD	01H
	ORG $+4
	DD	FLAT:??_C@_0O@FJKNHKBL@SetToggleSlot@
	DD	FLAT:?wndMgrSetToggleSlot@@YAPAU_object@@PAU1@0@Z
	DD	01H
	ORG $+4
	DD	FLAT:??_C@_0N@HFCIPMIE@ActivateSlot@
	DD	FLAT:?wndMgrActivateSlot@@YAPAU_object@@PAU1@0@Z
	DD	01H
	ORG $+4
	DD	FLAT:??_C@_0P@FGAIANEO@DeactivateSlot@
	DD	FLAT:?wndMgrDeactivateSlot@@YAPAU_object@@PAU1@0@Z
	DD	01H
	ORG $+4
	DD	FLAT:??_C@_0BA@GGAABDOP@NewActivateSlot@
	DD	FLAT:?wndMgrNewActivateSlot@@YAPAU_object@@PAU1@0@Z
	DD	01H
	ORG $+4
	DD	FLAT:??_C@_0BC@OALEFDOD@NewDeactivateSlot@
	DD	FLAT:?wndMgrNewDeactivateSlot@@YAPAU_object@@PAU1@0@Z
	DD	01H
	ORG $+4
	DD	FLAT:??_C@_0L@DHCLIIGL@EnableSlot@
	DD	FLAT:?wndMgrEnableSlot@@YAPAU_object@@PAU1@0@Z
	DD	01H
	ORG $+4
	DD	FLAT:??_C@_0M@EKMKGECP@DisableSlot@
	DD	FLAT:?wndMgrDisableSlot@@YAPAU_object@@PAU1@0@Z
	DD	01H
	ORG $+4
	DD	FLAT:??_C@_0BA@PMAALDEC@SetUnusableSlot@
	DD	FLAT:?wndMgrSetUnusableSlot@@YAPAU_object@@PAU1@0@Z
	DD	01H
	ORG $+4
	DD	FLAT:??_C@_0O@JOELLDFD@SetUsableSlot@
	DD	FLAT:?wndMgrSetUsableSlot@@YAPAU_object@@PAU1@0@Z
	DD	01H
	ORG $+4
	DD	FLAT:??_C@_0BC@DHCKDEOK@ShowSlotBaseImage@
	DD	FLAT:?wndMgrShowSlotBaseImage@@YAPAU_object@@PAU1@0@Z
	DD	01H
	ORG $+4
	DD	FLAT:??_C@_0BC@NFMHNFLM@HideSlotBaseImage@
	DD	FLAT:?wndMgrHideSlotBaseImage@@YAPAU_object@@PAU1@0@Z
	DD	01H
	ORG $+4
	DD	FLAT:??_C@_0M@KHOHGEMH@SetSlotType@
	DD	FLAT:?wndMgrSetSlotType@@YAPAU_object@@PAU1@0@Z
	DD	01H
	ORG $+4
	DD	FLAT:??_C@_0N@IKGBKPJJ@SetSlotStyle@
	DD	FLAT:?wndMgrSetSlotStyle@@YAPAU_object@@PAU1@0@Z
	DD	01H
	ORG $+4
	DD	FLAT:??_C@_0BB@IOMAJEMI@SetSlotBaseImage@
	DD	FLAT:?wndMgrSetSlotBaseImage@@YAPAU_object@@PAU1@0@Z
	DD	01H
	ORG $+4
	DD	FLAT:??_C@_0P@JKHNGGPA@SetCoverButton@
	DD	FLAT:?wndMgrSetCoverButton@@YAPAU_object@@PAU1@0@Z
	DD	01H
	ORG $+4
	DD	FLAT:??_C@_0BC@GDLBPCHF@EnableCoverButton@
	DD	FLAT:?wndMgrEnableCoverButton@@YAPAU_object@@PAU1@0@Z
	DD	01H
	ORG $+4
	DD	FLAT:??_C@_0BD@DOJCOOMI@DisableCoverButton@
	DD	FLAT:?wndMgrDisableCoverButton@@YAPAU_object@@PAU1@0@Z
	DD	01H
	ORG $+4
	DD	FLAT:??_C@_0BF@ILDMDDMH@IsDisableCoverButton@
	DD	FLAT:?wndMgrIsDisableCoverButton@@YAPAU_object@@PAU1@0@Z
	DD	01H
	ORG $+4
	DD	FLAT:??_C@_0BL@PAFAGEGB@SetAlwaysRenderCoverButton@
	DD	FLAT:?wndMgrSetAlwaysRenderCoverButton@@YAPAU_object@@PAU1@0@Z
	DD	01H
	ORG $+4
	DD	FLAT:??_C@_0BC@POMJDPJH@DeleteCoverButton@
	DD	FLAT:?wndMgrDeleteCoverButton@@YAPAU_object@@PAU1@0@Z
	DD	01H
	ORG $+4
	DD	FLAT:??_C@_0P@BOOMPDBD@GetSlotIndices@
	DD	FLAT:?wndMgrGetSlotIndices@@YAPAU_object@@PAU1@0@Z
	DD	01H
	ORG $+4
	DD	FLAT:??_C@_0BB@LLDDGEIL@AppendSlotButton@
	DD	FLAT:?wndMgrAppendSlotButton@@YAPAU_object@@PAU1@0@Z
	DD	01H
	ORG $+4
	DD	FLAT:??_C@_0BL@CCGBCIBD@AppendRequirementSignImage@
	DD	FLAT:?wndMgrAppendRequirementSignImage@@YAPAU_object@@PAU1@0@Z
	DD	01H
	ORG $+4
	DD	FLAT:??_C@_0P@CINLEJEK@ShowSlotButton@
	DD	FLAT:?wndMgrShowSlotButton@@YAPAU_object@@PAU1@0@Z
	DD	01H
	ORG $+4
	DD	FLAT:??_C@_0BC@IHMDJONI@HideAllSlotButton@
	DD	FLAT:?wndMgrHideAllSlotButton@@YAPAU_object@@PAU1@0@Z
	DD	01H
	ORG $+4
	DD	FLAT:??_C@_0BE@IGOEKEDL@ShowRequirementSign@
	DD	FLAT:?wndMgrShowRequirementSign@@YAPAU_object@@PAU1@0@Z
	DD	01H
	ORG $+4
	DD	FLAT:??_C@_0BE@LNAIGOOK@HideRequirementSign@
	DD	FLAT:?wndMgrHideRequirementSign@@YAPAU_object@@PAU1@0@Z
	DD	01H
	ORG $+4
	DD	FLAT:??_C@_0M@NAPCHMAM@RefreshSlot@
	DD	FLAT:?wndMgrRefreshSlot@@YAPAU_object@@PAU1@0@Z
	DD	01H
	ORG $+4
	DD	FLAT:??_C@_0L@ODKIIGJF@SetUseMode@
	DD	FLAT:?wndMgrSetUseMode@@YAPAU_object@@PAU1@0@Z
	DD	01H
	ORG $+4
	DD	FLAT:??_C@_09LLPJGKLN@IsUseMode@
	DD	FLAT:?wndMgrIsUseMode@@YAPAU_object@@PAU1@0@Z
	DD	01H
	ORG $+4
	DD	FLAT:??_C@_0O@LHCBGPMO@SetUsableItem@
	DD	FLAT:?wndMgrSetUsableItem@@YAPAU_object@@PAU1@0@Z
	DD	01H
	ORG $+4
	DD	FLAT:??_C@_0N@GPNIKFEM@IsUsableItem@
	DD	FLAT:?wndMgrIsUsableItem@@YAPAU_object@@PAU1@0@Z
	DD	01H
	ORG $+4
	DD	FLAT:??_C@_0O@KGCGGKBF@SetSwitchMode@
	DD	FLAT:?wndMgrSetSwitchMode@@YAPAU_object@@PAU1@0@Z
	DD	01H
	ORG $+4
	DD	FLAT:??_C@_0N@HONPKAJH@IsSwitchMode@
	DD	FLAT:?wndMgrIsSwitchMode@@YAPAU_object@@PAU1@0@Z
	DD	01H
	ORG $+4
	DD	FLAT:??_C@_0BC@DNDCFHHB@SetSwitchableItem@
	DD	FLAT:?wndMgrSetSwitchableItem@@YAPAU_object@@PAU1@0@Z
	DD	01H
	ORG $+4
	DD	FLAT:??_C@_0BB@KLCMDKEF@IsSwitchableItem@
	DD	FLAT:?wndMgrIsSwitchableItem@@YAPAU_object@@PAU1@0@Z
	DD	01H
	ORG $+4
	DD	FLAT:??_C@_0BE@NIFHGONC@GetPickedSlotNumber@
	DD	FLAT:?wndMgrGetPickedSlotNumber@@YAPAU_object@@PAU1@0@Z
	DD	01H
	ORG $+4
	DD	FLAT:??_C@_0BJ@MHPLGOEE@SetSlotHighlightedGreeen@
	DD	FLAT:?wndMgrSetSlotHighlightedGreeen@@YAPAU_object@@PAU1@0@Z
	DD	01H
	ORG $+4
	DD	FLAT:??_C@_0BM@HGKBMEM@DisableSlotHighlightedGreen@
	DD	FLAT:?wndMgrDisableSlotHighlightedGreen@@YAPAU_object@@PAU1@0@Z
	DD	01H
	ORG $+4
	DD	FLAT:??_C@_0L@EMMADCIN@SelectSlot@
	DD	FLAT:?wndMgrSelectSlot@@YAPAU_object@@PAU1@0@Z
	DD	01H
	ORG $+4
	DD	FLAT:??_C@_0O@OGHLMGNI@ClearSelected@
	DD	FLAT:?wndMgrClearSelected@@YAPAU_object@@PAU1@0@Z
	DD	01H
	ORG $+4
	DD	FLAT:??_C@_0BF@EECMELAK@GetSelectedSlotCount@
	DD	FLAT:?wndMgrGetSelectedSlotCount@@YAPAU_object@@PAU1@0@Z
	DD	01H
	ORG $+4
	DD	FLAT:??_C@_0BG@DJKADEKA@GetSelectedSlotNumber@
	DD	FLAT:?wndMgrGetSelectedSlotNumber@@YAPAU_object@@PAU1@0@Z
	DD	01H
	ORG $+4
	DD	FLAT:??_C@_0P@GKJOEMLC@IsSelectedSlot@
	DD	FLAT:?wndMgrIsSelectedSlot@@YAPAU_object@@PAU1@0@Z
	DD	01H
	ORG $+4
	DD	FLAT:??_C@_0N@PALCIPBL@GetSlotCount@
	DD	FLAT:?wndMgrGetSlotCount@@YAPAU_object@@PAU1@0@Z
	DD	01H
	ORG $+4
	DD	FLAT:??_C@_08PGGNMNPL@LockSlot@
	DD	FLAT:?wndMgrLockSlot@@YAPAU_object@@PAU1@0@Z
	DD	01H
	ORG $+4
	DD	FLAT:??_C@_0L@DPNFKPLP@UnlockSlot@
	DD	FLAT:?wndMgrUnlockSlot@@YAPAU_object@@PAU1@0@Z
	DD	01H
	ORG $+4
	DD	FLAT:??_C@_08GPNJILIJ@SetColor@
	DD	FLAT:?wndBarSetColor@@YAPAU_object@@PAU1@0@Z
	DD	01H
	ORG $+4
	DD	FLAT:??_C@_06ODEINJEE@SetMax@
	DD	FLAT:?wndTextSetMax@@YAPAU_object@@PAU1@0@Z
	DD	01H
	ORG $+4
	DD	FLAT:??_C@_0BD@FCLDCEMA@SetHorizontalAlign@
	DD	FLAT:?wndTextSetHorizontalAlign@@YAPAU_object@@PAU1@0@Z
	DD	01H
	ORG $+4
	DD	FLAT:??_C@_0BB@NKHPOFIC@SetVerticalAlign@
	DD	FLAT:?wndTextSetVerticalAlign@@YAPAU_object@@PAU1@0@Z
	DD	01H
	ORG $+4
	DD	FLAT:??_C@_09CAFHEMDD@SetSecret@
	DD	FLAT:?wndTextSetSecret@@YAPAU_object@@PAU1@0@Z
	DD	01H
	ORG $+4
	DD	FLAT:??_C@_0L@HBNEJDMM@SetOutline@
	DD	FLAT:?wndTextSetOutline@@YAPAU_object@@PAU1@0@Z
	DD	01H
	ORG $+4
	DD	FLAT:??_C@_0L@LLKEFHFA@SetFeather@
	DD	FLAT:?wndTextSetFeather@@YAPAU_object@@PAU1@0@Z
	DD	01H
	ORG $+4
	DD	FLAT:??_C@_0N@FKMHLJHG@SetMultiLine@
	DD	FLAT:?wndTextSetMultiLine@@YAPAU_object@@PAU1@0@Z
	DD	01H
	ORG $+4
	DD	FLAT:??_C@_07NIJDBDAG@SetText@
	DD	FLAT:?wndTextSetText@@YAPAU_object@@PAU1@0@Z
	DD	01H
	ORG $+4
	DD	FLAT:??_C@_0BF@ECGKBOOD@GetSpecificTextWidth@
	DD	FLAT:?wndTextGetSpecificTextWidth@@YAPAU_object@@PAU1@0@Z
	DD	01H
	ORG $+4
	DD	FLAT:??_C@_0M@MCELKPNO@SetFontName@
	DD	FLAT:?wndTextSetFontName@@YAPAU_object@@PAU1@0@Z
	DD	01H
	ORG $+4
	DD	FLAT:??_C@_0N@MKCFOAAE@SetFontColor@
	DD	FLAT:?wndTextSetFontColor@@YAPAU_object@@PAU1@0@Z
	DD	01H
	ORG $+4
	DD	FLAT:??_C@_0O@FIAFKHF@SetLimitWidth@
	DD	FLAT:?wndTextSetLimitWidth@@YAPAU_object@@PAU1@0@Z
	DD	01H
	ORG $+4
	DD	FLAT:??_C@_07CAGCCMNH@GetText@
	DD	FLAT:?wndTextGetText@@YAPAU_object@@PAU1@0@Z
	DD	01H
	ORG $+4
	DD	FLAT:??_C@_0M@CLFAHCCE@SetClipRect@
	DD	FLAT:?wndTextSetTextClip@@YAPAU_object@@PAU1@0@Z
	DD	01H
	ORG $+4
	DD	FLAT:??_C@_0M@JOAAGILP@GetTextSize@
	DD	FLAT:?wndTextGetTextSize@@YAPAU_object@@PAU1@0@Z
	DD	01H
	ORG $+4
	DD	FLAT:??_C@_0L@BIENLPGM@ShowCursor@
	DD	FLAT:?wndTextShowCursor@@YAPAU_object@@PAU1@0@Z
	DD	01H
	ORG $+4
	DD	FLAT:??_C@_0L@MGJDDPFG@HideCursor@
	DD	FLAT:?wndTextHideCursor@@YAPAU_object@@PAU1@0@Z
	DD	01H
	ORG $+4
	DD	FLAT:??_C@_0BC@DJJGDMOB@GetCursorPosition@
	DD	FLAT:?wndTextGetCursorPosition@@YAPAU_object@@PAU1@0@Z
	DD	01H
	ORG $+4
	DD	FLAT:??_C@_0BI@OPEAHLID@GetCharPositionByCursor@
	DD	FLAT:?wndTextGetCharPositionByCursor@@YAPAU_object@@PAU1@0@Z
	DD	01H
	ORG $+4
	DD	FLAT:??_C@_0BN@OOPFPLJK@TextPositionToRenderPosition@
	DD	FLAT:?wndTextPositionToRenderPosition@@YAPAU_object@@PAU1@0@Z
	DD	01H
	ORG $+4
	DD	FLAT:??_C@_09JMPLPNNO@SetNumber@
	DD	FLAT:?wndNumberSetNumber@@YAPAU_object@@PAU1@0@Z
	DD	01H
	ORG $+4
	DD	FLAT:??_C@_0BP@JHALFFJF@SetNumberHorizontalAlignCenter@
	DD	FLAT:?wndNumberSetNumberHorizontalAlignCenter@@YAPAU_object@@PAU1@0@Z
	DD	01H
	ORG $+4
	DD	FLAT:??_C@_0BO@FBBAAHKK@SetNumberHorizontalAlignRight@
	DD	FLAT:?wndNumberSetNumberHorizontalAlignRight@@YAPAU_object@@PAU1@0@Z
	DD	01H
	ORG $+4
	DD	FLAT:??_C@_0BN@MCDEBAKA@SetNumberVerticalAlignCenter@
	DD	FLAT:?wndNumberSetNumberVerticalAlignCenter@@YAPAU_object@@PAU1@0@Z
	DD	01H
	ORG $+4
	DD	FLAT:??_C@_07ENBMIGKI@SetPath@
	DD	FLAT:?wndNumberSetPath@@YAPAU_object@@PAU1@0@Z
	DD	01H
	ORG $+4
	DD	FLAT:??_C@_0BB@FMJJKPIM@MarkBox_SetImage@
	DD	FLAT:?wndMarkBox_SetImage@@YAPAU_object@@PAU1@0@Z
	DD	01H
	ORG $+4
	DD	FLAT:??_C@_0BJ@PJODLBON@MarkBox_SetImageFilename@
	DD	FLAT:?wndMarkBox_SetImageFilename@@YAPAU_object@@PAU1@0@Z
	DD	01H
	ORG $+4
	DD	FLAT:??_C@_0N@FLKGJMCL@MarkBox_Load@
	DD	FLAT:?wndMarkBox_Load@@YAPAU_object@@PAU1@0@Z
	DD	01H
	ORG $+4
	DD	FLAT:??_C@_0BB@NAAPJNBM@MarkBox_SetIndex@
	DD	FLAT:?wndMarkBox_SetIndex@@YAPAU_object@@PAU1@0@Z
	DD	01H
	ORG $+4
	DD	FLAT:??_C@_0BB@ENLBNPPB@MarkBox_SetScale@
	DD	FLAT:?wndMarkBox_SetScale@@YAPAU_object@@PAU1@0@Z
	DD	01H
	ORG $+4
	DD	FLAT:??_C@_0BI@JCKPADLG@MarkBox_SetDiffuseColor@
	DD	FLAT:?wndMarkBox_SetDiffuseColor@@YAPAU_object@@PAU1@0@Z
	DD	01H
	ORG $+4
	DD	FLAT:??_C@_09OHOMMMHI@LoadImage@
	DD	FLAT:?wndImageLoadImage@@YAPAU_object@@PAU1@0@Z
	DD	01H
	ORG $+4
	DD	FLAT:??_C@_0BA@CAEBLOMF@SetDiffuseColor@
	DD	FLAT:?wndImageSetDiffuseColor@@YAPAU_object@@PAU1@0@Z
	DD	01H
	ORG $+4
	DD	FLAT:??_C@_08OMBILDHM@GetWidth@
	DD	FLAT:?wndImageGetWidth@@YAPAU_object@@PAU1@0@Z
	DD	01H
	ORG $+4
	DD	FLAT:??_C@_09EOGEIJMK@GetHeight@
	DD	FLAT:?wndImageGetHeight@@YAPAU_object@@PAU1@0@Z
	DD	01H
	ORG $+4
	DD	FLAT:??_C@_0O@IOPMOINL@GetTexturePtr@
	DD	FLAT:?wndImageGetTexturePtr@@YAPAU_object@@PAU1@0@Z
	DD	01H
	ORG $+4
	DD	FLAT:??_C@_08FMFAIGAB@SetScale@
	DD	FLAT:?wndImageSetScale@@YAPAU_object@@PAU1@0@Z
	DD	01H
	ORG $+4
	DD	FLAT:??_C@_09KLKDEBJ@SetOrigin@
	DD	FLAT:?wndImageSetOrigin@@YAPAU_object@@PAU1@0@Z
	DD	01H
	ORG $+4
	DD	FLAT:??_C@_0M@GNIHGJGG@SetRotation@
	DD	FLAT:?wndImageSetRotation@@YAPAU_object@@PAU1@0@Z
	DD	01H
	ORG $+4
	DD	FLAT:??_C@_0BB@GIEHGKNO@SetRenderingMode@
	DD	FLAT:?wndImageSetRenderingMode@@YAPAU_object@@PAU1@0@Z
	DD	01H
	ORG $+4
	DD	FLAT:??_C@_08NBAGFHFB@SetDelay@
	DD	FLAT:?wndImageSetDelay@@YAPAU_object@@PAU1@0@Z
	DD	01H
	ORG $+4
	DD	FLAT:??_C@_08CACKEECM@GetDelay@
	DD	FLAT:?wndImageGetDelay@@YAPAU_object@@PAU1@0@Z
	DD	01H
	ORG $+4
	DD	FLAT:??_C@_0M@BEJGDBIJ@AppendImage@
	DD	FLAT:?wndImageAppendImage@@YAPAU_object@@PAU1@0@Z
	DD	01H
	ORG $+4
	DD	FLAT:??_C@_0L@ELGKENBM@ResetFrame@
	DD	FLAT:?wndImageResetFrame@@YAPAU_object@@PAU1@0@Z
	DD	01H
	ORG $+4
	DD	FLAT:??_C@_0M@IIELPGEP@SetUpVisual@
	DD	FLAT:?wndButtonSetUpVisual@@YAPAU_object@@PAU1@0@Z
	DD	01H
	ORG $+4
	DD	FLAT:??_C@_0O@KOIDMFK@SetOverVisual@
	DD	FLAT:?wndButtonSetOverVisual@@YAPAU_object@@PAU1@0@Z
	DD	01H
	ORG $+4
	DD	FLAT:??_C@_0O@FLFAFPKP@SetDownVisual@
	DD	FLAT:?wndButtonSetDownVisual@@YAPAU_object@@PAU1@0@Z
	DD	01H
	ORG $+4
	DD	FLAT:??_C@_0BB@JCGDBIB@SetDisableVisual@
	DD	FLAT:?wndButtonSetDisableVisual@@YAPAU_object@@PAU1@0@Z
	DD	01H
	ORG $+4
	DD	FLAT:??_C@_0BE@PHOOFGJI@GetUpVisualFileName@
	DD	FLAT:?wndButtonGetUpVisualFileName@@YAPAU_object@@PAU1@0@Z
	DD	01H
	ORG $+4
	DD	FLAT:??_C@_0BG@KEALLAJN@GetOverVisualFileName@
	DD	FLAT:?wndButtonGetOverVisualFileName@@YAPAU_object@@PAU1@0@Z
	DD	01H
	ORG $+4
	DD	FLAT:??_C@_0BG@FKDEILKI@GetDownVisualFileName@
	DD	FLAT:?wndButtonGetDownVisualFileName@@YAPAU_object@@PAU1@0@Z
	DD	01H
	ORG $+4
	DD	FLAT:??_C@_05LDPHIKKB@Flash@
	DD	FLAT:?wndButtonFlash@@YAPAU_object@@PAU1@0@Z
	DD	01H
	ORG $+4
	DD	FLAT:??_C@_06CKGENIKG@Enable@
	DD	FLAT:?wndButtonEnable@@YAPAU_object@@PAU1@0@Z
	DD	01H
	ORG $+4
	DD	FLAT:??_C@_07MIKIFGAL@Disable@
	DD	FLAT:?wndButtonDisable@@YAPAU_object@@PAU1@0@Z
	DD	01H
	ORG $+4
	DD	FLAT:??_C@_09BDCHKIMD@IsEnabled@
	DD	FLAT:?wndButtonIsEnabled@@YAPAU_object@@PAU1@0@Z
	DD	01H
	ORG $+4
	DD	FLAT:??_C@_04FNCLCJMC@Down@
	DD	FLAT:?wndButtonDown@@YAPAU_object@@PAU1@0@Z
	DD	01H
	ORG $+4
	DD	FLAT:??_C@_05DEOAHOFO@SetUp@
	DD	FLAT:?wndButtonSetUp@@YAPAU_object@@PAU1@0@Z
	DD	01H
	ORG $+4
	DD	FLAT:??_C@_06FKEAEOGE@IsDown@
	DD	FLAT:?wndButtonIsDown@@YAPAU_object@@PAU1@0@Z
	DD	01H
	ORG $+4
	DD	FLAT:??_C@_0BI@KNEJFEOH@SetRestrictMovementArea@
	DD	FLAT:?wndButtonSetRestrictMovementArea@@YAPAU_object@@PAU1@0@Z
	DD	01H
	ORG $+4
	DD	FLAT:??_C@_0P@MEHCKPID@SetOutlineFlag@
	DD	FLAT:?wndMgrSetOutlineFlag@@YAPAU_object@@PAU1@0@Z
	DD	01H
	ORG $+4
	DD	FLAT:??_C@_0BF@LFOINEDC@ShowOverInWindowName@
	DD	FLAT:?wndMgrShowOverInWindowName@@YAPAU_object@@PAU1@0@Z
	DD	01H
	ORG $+4
	DD	FLAT:??_C@_0BA@EABPFCGJ@IsActivatedSlot@
	DD	FLAT:?wndMgrIsActivatedSlot@@YAPAU_object@@PAU1@0@Z
	DD	01H
	ORG $+4
	DD	FLAT:??_C@_0BA@NIALCINC@GetSlotCoolTime@
	DD	FLAT:?wndMgrGetSlotCoolTime@@YAPAU_object@@PAU1@0@Z
	DD	01H
	ORG $+4
	DD	FLAT:??_C@_0BF@KNCMHHOE@EnableSlotCoverImage@
	DD	FLAT:?wndMgrEnableSlotCoverImage@@YAPAU_object@@PAU1@0@Z
	DD	01H
	ORG $+4
	DD	FLAT:??_C@_0BG@CELKDGNF@DisableSlotCoverImage@
	DD	FLAT:?wndMgrDisableSlotCoverImage@@YAPAU_object@@PAU1@0@Z
	DD	01H
	ORG $+4
	DD	FLAT:??_C@_0BH@CMPCAGLC@ActivateChangeLookSlot@
	DD	FLAT:?wndMgrActivateChangeLookSlot@@YAPAU_object@@PAU1@0@Z
	DD	01H
	ORG $+4
	DD	FLAT:??_C@_0BJ@MFMBAOFE@DeactivateChangeLookSlot@
	DD	FLAT:?wndMgrDeactivateChangeLookSlot@@YAPAU_object@@PAU1@0@Z
	DD	01H
	ORG $+4
	DD	FLAT:??_C@_0N@GABOCBEH@GetItemIndex@
	DD	FLAT:?wndMgrGetItemIndex@@YAPAU_object@@PAU1@0@Z
	DD	01H
	ORG $+4
	DD	FLAT:??_C@_0BJ@HMEHNAEN@RegisterWikiRenderTarget@
	DD	FLAT:?wndMgrRegisterWikiRenderTarget@@YAPAU_object@@PAU1@0@Z
	DD	01H
	ORG $+4
	DD	FLAT:??_C@_0BA@HFECJDNA@SetInsideRender@
	DD	FLAT:?wndMgrSetInsideRender@@YAPAU_object@@PAU1@0@Z
	DD	01H
	ORG $+4
	DD	FLAT:??_C@_0BB@LDNMLPHM@SetRenderingRect@
	DD	FLAT:?wndSetRenderingRect@@YAPAU_object@@PAU1@0@Z
	DD	01H
	ORG $+4
	DD	FLAT:??_C@_0N@JBKJJOBF@GetRenderBox@
	DD	FLAT:?wndMgrGetRenderBox@@YAPAU_object@@PAU1@0@Z
	DD	01H
	ORG $+4
	DD	FLAT:??_C@_0BE@OCBDOMML@SetWikiRenderTarget@
	DD	FLAT:?wndMgrSetWikiRenderTarget@@YAPAU_object@@PAU1@0@Z
	DD	01H
	ORG $+4
	DD	FLAT:??_C@_0BC@FGODMHDE@SetFixedRenderPos@
	DD	FLAT:?wndTextSetFixedRenderPos@@YAPAU_object@@PAU1@0@Z
	DD	01H
	ORG $+4
	DD	FLAT:??_C@_0N@IIENNIMK@GetRenderPos@
	DD	FLAT:?wndTextGetRenderPos@@YAPAU_object@@PAU1@0@Z
	DD	01H
	ORG $+4
	DD	FLAT:??_C@_0M@JGJEPBJD@UnloadImage@
	DD	FLAT:?wndImageUnloadImage@@YAPAU_object@@PAU1@0@Z
	DD	01H
	ORG $+4
	DD	FLAT:??_C@_0N@BFHCIAEF@IsShowCursor@
	DD	FLAT:?wndTextIsShowCursor@@YAPAU_object@@PAU1@0@Z
	DD	01H
	ORG $+4
	DD	FLAT:??_C@_0BF@FGJJGJFC@RegisterRenderTarget@
	DD	FLAT:?wndMgrRegisterRenderTarget@@YAPAU_object@@PAU1@0@Z
	DD	01H
	ORG $+4
	DD	FLAT:??_C@_0N@LGPPCICH@RT_LoadImage@
	DD	FLAT:?wndRenderTargetLoadImage@@YAPAU_object@@PAU1@0@Z
	DD	01H
	ORG $+4
	DD	FLAT:??_C@_0BD@LAGHGCKG@RT_SetRenderTarget@
	DD	FLAT:?wndRenderTargetSetRenderTarget@@YAPAU_object@@PAU1@0@Z
	DD	01H
	ORG $+4
	DD	FLAT:??_C@_0BB@PINGAENL@RT_SetRenderHair@
	DD	FLAT:?wndRenderTargetSetRenderHair@@YAPAU_object@@PAU1@0@Z
	DD	01H
	ORG $+4
	DD	FLAT:??_C@_0BC@JHCDNNMC@RT_SetRenderArmor@
	DD	FLAT:?wndRenderTargetSetRenderArmor@@YAPAU_object@@PAU1@0@Z
	DD	01H
	ORG $+4
	DD	FLAT:??_C@_0BD@ENCKMHFE@RT_SetRenderWeapon@
	DD	FLAT:?wndRenderTargetSetRenderWeapon@@YAPAU_object@@PAU1@0@Z
	DD	01H
	ORG $+4
	DD	FLAT:??_C@_0BB@EOHKHODF@RT_SetRenderSash@
	DD	FLAT:?wndRenderTargetSetRenderSash@@YAPAU_object@@PAU1@0@Z
	DD	01H
	ORG $+4
	DD	FLAT:??_C@_0BD@KKAOCHFF@RT_SetRenderMotion@
	DD	FLAT:?wndRenderTargetSetRendererMotion@@YAPAU_object@@PAU1@0@Z
	DD	01H
	ORG $+4
	DD	FLAT:??_C@_0BF@JPMOHCJJ@RT_SetRenderDistance@
	DD	FLAT:?wndRenderTargetSetRenderDistance@@YAPAU_object@@PAU1@0@Z
	DD	01H
	ORG $+4
	DD	FLAT:??_C@_0BF@LKMFPJIH@RT_GetRenderDistance@
	DD	FLAT:?wndRenderTargetGetRenderDistance@@YAPAU_object@@PAU1@0@Z
	DD	01H
	ORG $+4
	DD	FLAT:??_C@_0BE@DMCCDBML@RT_SetLightPosition@
	DD	FLAT:?wndRenderTargetSetLightPosition@@YAPAU_object@@PAU1@0@Z
	DD	01H
	ORG $+4
	DD	FLAT:??_C@_0BE@FIHLIPHJ@RT_GetLightPosition@
	DD	FLAT:?wndRenderTargetGetLightPosition@@YAPAU_object@@PAU1@0@Z
	DD	01H
	ORG $+4
	DD	FLAT:??_C@_0P@PHMDFPIP@RT_SetRotation@
	DD	FLAT:?wndRenderTargetSetRotation@@YAPAU_object@@PAU1@0@Z
	DD	01H
	ORG $+4
	DD	FLAT:??_C@_0P@PINNIJAM@RT_GetRotation@
	DD	FLAT:?wndRenderTargetGetRotation@@YAPAU_object@@PAU1@0@Z
	DD	01H
	ORG $+4
	DD	FLAT:??_C@_0BD@IFKGKLGB@RT_SetRotationMode@
	DD	FLAT:?wndRenderTargetSetRotationMode@@YAPAU_object@@PAU1@0@Z
	DD	01H
	ORG $+4
	DD	FLAT:??_C@_0BB@NHPNOOEJ@RT_DestroyRender@
	DD	FLAT:?wndRenderTargetDestroyRender@@YAPAU_object@@PAU1@0@Z
	DD	01H
	ORG $+4
	DD	FLAT:??_C@_0L@KLPEDGI@LockCursor@
	DD	FLAT:?wndMgrLockCursor@@YAPAU_object@@PAU1@0@Z
	DD	01H
	ORG $+4
	DD	FLAT:??_C@_0N@DNBGAAKF@UnlockCursor@
	DD	FLAT:?wndMgrUnlockCursor@@YAPAU_object@@PAU1@0@Z
	DD	01H
	ORG $+4
	DD	FLAT:??_C@_0N@MNAMJLHL@SetSlotScale@
	DD	FLAT:?wndMgrSetSlotScale@@YAPAU_object@@PAU1@0@Z
	DD	01H
	ORG $+4
	DD	FLAT:??_C@_0BG@FBLNLMGI@SetSlotBaseImageScale@
	DD	FLAT:?wndMgrSetSlotBaseImageScale@@YAPAU_object@@PAU1@0@Z
	DD	01H
	ORG $+4
	DD	FLAT:??_C@_0BE@BJJEKGM@SetCoolTimeImageBox@
	DD	FLAT:?wndMgrSetCoolTimeImageBox@@YAPAU_object@@PAU1@0@Z
	DD	01H
	ORG $+4
	DD	FLAT:??_C@_0BJ@OABJPDB@SetStartCoolTimeImageBox@
	DD	FLAT:?wndMgrSetStartCoolTimeImageBox@@YAPAU_object@@PAU1@0@Z
	DD	01H
	ORG $+4
	DD	00H
	DD	00H
	DD	00H
	ORG $+4
_DATA	ENDS
;	COMDAT ??_C@_0DB@CIHHCLAG@d?3?1ymir?5work?1ui?1game?112zi?1time_@
CONST	SEGMENT
??_C@_0DB@CIHHCLAG@d?3?1ymir?5work?1ui?1game?112zi?1time_@ DB 'd:/ymir wo'
	DB	'rk/ui/game/12zi/time_image/time_%d.tga', 00H ; `string'
CONST	ENDS
;	COMDAT ??_C@_0DC@NJMLLDNJ@d?3?1ymir?5work?1ui?1game?112zi?1time_@
CONST	SEGMENT
??_C@_0DC@NJMLLDNJ@d?3?1ymir?5work?1ui?1game?112zi?1time_@ DB 'd:/ymir wo'
	DB	'rk/ui/game/12zi/time_image/time_0%d.tga', 00H ; `string'
CONST	ENDS
;	COMDAT ??_C@_0CF@BAOIDONM@wndMgr?4ArrangeSlot?3not?5a?5slot?5w@
CONST	SEGMENT
??_C@_0CF@BAOIDONM@wndMgr?4ArrangeSlot?3not?5a?5slot?5w@ DB 'wndMgr.Arran'
	DB	'geSlot:not a slot window', 00H		; `string'
CONST	ENDS
;	COMDAT ??_C@_03LPALPDIP@fff@
CONST	SEGMENT
??_C@_03LPALPDIP@fff@ DB 'fff', 00H			; `string'
CONST	ENDS
;	COMDAT ??_C@_0BJ@DFGPKJEH@Failed?5to?5load?5image?3?5?$CFs@
CONST	SEGMENT
??_C@_0BJ@DFGPKJEH@Failed?5to?5load?5image?3?5?$CFs@ DB 'Failed to load i'
	DB	'mage: %s', 00H				; `string'
CONST	ENDS
;	COMDAT ??_C@_02HPEDFNFO@ff@
CONST	SEGMENT
??_C@_02HPEDFNFO@ff@ DB 'ff', 00H			; `string'
CONST	ENDS
;	COMDAT ??_C@_0CE@HBOEBFCG@Failed?5to?5load?5image?5?$CIfilename?3@
CONST	SEGMENT
??_C@_0CE@HBOEBFCG@Failed?5to?5load?5image?5?$CIfilename?3@ DB 'Failed to'
	DB	' load image (filename: %s)', 00H		; `string'
CONST	ENDS
;	COMDAT ??_C@_03GLKMLICL@iii@
CONST	SEGMENT
??_C@_03GLKMLICL@iii@ DB 'iii', 00H			; `string'
CONST	ENDS
;	COMDAT ??_C@_04INACLLOK@?$CIii?$CJ@
CONST	SEGMENT
??_C@_04INACLLOK@?$CIii?$CJ@ DB '(ii)', 00H		; `string'
CONST	ENDS
;	COMDAT ??_C@_0CH@HCFLPGH@wndMgr?4ArrangeSlot?5?3?5not?5a?5slot@
CONST	SEGMENT
??_C@_0CH@HCFLPGH@wndMgr?4ArrangeSlot?5?3?5not?5a?5slot@ DB 'wndMgr.Arran'
	DB	'geSlot : not a slot window', 00H		; `string'
CONST	ENDS
;	COMDAT ??_C@_0CH@FFGFLEBP@wndMgr?4ArrangeSlot?5?3?5not?5a?5grid@
CONST	SEGMENT
??_C@_0CH@FFGFLEBP@wndMgr?4ArrangeSlot?5?3?5not?5a?5grid@ DB 'wndMgr.Arra'
	DB	'ngeSlot : not a grid window', 00H		; `string'
CONST	ENDS
;	COMDAT ??_C@_0BH@KIGIHPAM@Unknown?5window?5flag?5?$CFs@
CONST	SEGMENT
??_C@_0BH@KIGIHPAM@Unknown?5window?5flag?5?$CFs@ DB 'Unknown window flag '
	DB	'%s', 00H					; `string'
CONST	ENDS
;	COMDAT ??_C@_03OBLKLDKA@ltr@
CONST	SEGMENT
??_C@_03OBLKLDKA@ltr@ DB 'ltr', 00H			; `string'
CONST	ENDS
;	COMDAT ??_C@_05GADAOHMC@limit@
CONST	SEGMENT
??_C@_05GADAOHMC@limit@ DB 'limit', 00H			; `string'
CONST	ENDS
;	COMDAT ??_C@_07BNIMILPP@movable@
CONST	SEGMENT
??_C@_07BNIMILPP@movable@ DB 'movable', 00H		; `string'
CONST	ENDS
;	COMDAT ??_C@_07NLKEJFGN@animate@
CONST	SEGMENT
??_C@_07NLKEJFGN@animate@ DB 'animate', 00H		; `string'
CONST	ENDS
;	COMDAT ??_C@_03IFDNKMND@rtl@
CONST	SEGMENT
??_C@_03IFDNKMND@rtl@ DB 'rtl', 00H			; `string'
CONST	ENDS
;	COMDAT ??_C@_0M@HHFJIJHL@ignore_size@
CONST	SEGMENT
??_C@_0M@HHFJIJHL@ignore_size@ DB 'ignore_size', 00H	; `string'
CONST	ENDS
;	COMDAT ??_C@_08BCAHNCDJ@not_pick@
CONST	SEGMENT
??_C@_08BCAHNCDJ@not_pick@ DB 'not_pick', 00H		; `string'
CONST	ENDS
;	COMDAT ??_C@_05KNFBNCOH@float@
CONST	SEGMENT
??_C@_05KNFBNCOH@float@ DB 'float', 00H			; `string'
CONST	ENDS
;	COMDAT ??_C@_0L@BDBCAEJL@restrict_y@
CONST	SEGMENT
??_C@_0L@BDBCAEJL@restrict_y@ DB 'restrict_y', 00H	; `string'
CONST	ENDS
;	COMDAT ??_C@_0L@KAJDFNK@restrict_x@
CONST	SEGMENT
??_C@_0L@KAJDFNK@restrict_x@ DB 'restrict_x', 00H	; `string'
CONST	ENDS
;	COMDAT ??_C@_06LHJMGKLI@attach@
CONST	SEGMENT
??_C@_06LHJMGKLI@attach@ DB 'attach', 00H		; `string'
CONST	ENDS
;	COMDAT ??_C@_08KCAGBJHE@dragable@
CONST	SEGMENT
??_C@_08KCAGBJHE@dragable@ DB 'dragable', 00H		; `string'
CONST	ENDS
;	COMDAT ??_C@_08GKKIIJO@moveable@
CONST	SEGMENT
??_C@_08GKKIIJO@moveable@ DB 'moveable', 00H		; `string'
CONST	ENDS
;	COMDAT ??_C@_02OIKAIHIF@s?$CD@
CONST	SEGMENT
??_C@_02OIKAIHIF@s?$CD@ DB 's#', 00H			; `string'
CONST	ENDS
;	COMDAT ??_C@_04BIOIIFBG@iiii@
CONST	SEGMENT
??_C@_04BIOIIFBG@iiii@ DB 'iiii', 00H			; `string'
CONST	ENDS
;	COMDAT ??_C@_02PDIHAGKM@ii@
CONST	SEGMENT
??_C@_02PDIHAGKM@ii@ DB 'ii', 00H			; `string'
CONST	ENDS
;	COMDAT ??_C@_01LKDEMHDF@s@
CONST	SEGMENT
??_C@_01LKDEMHDF@s@ DB 's', 00H				; `string'
CONST	ENDS
;	COMDAT ??_C@_01OJONOECF@b@
CONST	SEGMENT
??_C@_01OJONOECF@b@ DB 'b', 00H				; `string'
CONST	ENDS
;	COMDAT ??_C@_01KBJDNOO@i@
CONST	SEGMENT
??_C@_01KBJDNOO@i@ DB 'i', 00H				; `string'
CONST	ENDS
;	COMDAT ??_C@_01INIBCBCB@f@
CONST	SEGMENT
??_C@_01INIBCBCB@f@ DB 'f', 00H				; `string'
CONST	ENDS
;	COMDAT ??_R1A@?0A@EA@bad_array_new_length@std@@8
rdata$r	SEGMENT
??_R1A@?0A@EA@bad_array_new_length@std@@8 DD FLAT:??_R0?AVbad_array_new_length@std@@@8 ; std::bad_array_new_length::`RTTI Base Class Descriptor at (0,-1,0,64)'
	DD	02H
	DD	00H
	DD	0ffffffffH
	DD	00H
	DD	040H
	DD	FLAT:??_R3bad_array_new_length@std@@8
rdata$r	ENDS
;	COMDAT ??_R2bad_array_new_length@std@@8
rdata$r	SEGMENT
??_R2bad_array_new_length@std@@8 DD FLAT:??_R1A@?0A@EA@bad_array_new_length@std@@8 ; std::bad_array_new_length::`RTTI Base Class Array'
	DD	FLAT:??_R1A@?0A@EA@bad_alloc@std@@8
	DD	FLAT:??_R1A@?0A@EA@exception@std@@8
rdata$r	ENDS
;	COMDAT ??_R3bad_array_new_length@std@@8
rdata$r	SEGMENT
??_R3bad_array_new_length@std@@8 DD 00H			; std::bad_array_new_length::`RTTI Class Hierarchy Descriptor'
	DD	00H
	DD	03H
	DD	FLAT:??_R2bad_array_new_length@std@@8
rdata$r	ENDS
;	COMDAT ??_R4bad_array_new_length@std@@6B@
rdata$r	SEGMENT
??_R4bad_array_new_length@std@@6B@ DD 00H		; std::bad_array_new_length::`RTTI Complete Object Locator'
	DD	00H
	DD	00H
	DD	FLAT:??_R0?AVbad_array_new_length@std@@@8
	DD	FLAT:??_R3bad_array_new_length@std@@8
rdata$r	ENDS
;	COMDAT ??_R1A@?0A@EA@bad_alloc@std@@8
rdata$r	SEGMENT
??_R1A@?0A@EA@bad_alloc@std@@8 DD FLAT:??_R0?AVbad_alloc@std@@@8 ; std::bad_alloc::`RTTI Base Class Descriptor at (0,-1,0,64)'
	DD	01H
	DD	00H
	DD	0ffffffffH
	DD	00H
	DD	040H
	DD	FLAT:??_R3bad_alloc@std@@8
rdata$r	ENDS
;	COMDAT ??_R2bad_alloc@std@@8
rdata$r	SEGMENT
??_R2bad_alloc@std@@8 DD FLAT:??_R1A@?0A@EA@bad_alloc@std@@8 ; std::bad_alloc::`RTTI Base Class Array'
	DD	FLAT:??_R1A@?0A@EA@exception@std@@8
rdata$r	ENDS
;	COMDAT ??_R3bad_alloc@std@@8
rdata$r	SEGMENT
??_R3bad_alloc@std@@8 DD 00H				; std::bad_alloc::`RTTI Class Hierarchy Descriptor'
	DD	00H
	DD	02H
	DD	FLAT:??_R2bad_alloc@std@@8
rdata$r	ENDS
;	COMDAT ??_R4bad_alloc@std@@6B@
rdata$r	SEGMENT
??_R4bad_alloc@std@@6B@ DD 00H				; std::bad_alloc::`RTTI Complete Object Locator'
	DD	00H
	DD	00H
	DD	FLAT:??_R0?AVbad_alloc@std@@@8
	DD	FLAT:??_R3bad_alloc@std@@8
rdata$r	ENDS
;	COMDAT ??_R1A@?0A@EA@exception@std@@8
rdata$r	SEGMENT
??_R1A@?0A@EA@exception@std@@8 DD FLAT:??_R0?AVexception@std@@@8 ; std::exception::`RTTI Base Class Descriptor at (0,-1,0,64)'
	DD	00H
	DD	00H
	DD	0ffffffffH
	DD	00H
	DD	040H
	DD	FLAT:??_R3exception@std@@8
rdata$r	ENDS
;	COMDAT ??_R2exception@std@@8
rdata$r	SEGMENT
??_R2exception@std@@8 DD FLAT:??_R1A@?0A@EA@exception@std@@8 ; std::exception::`RTTI Base Class Array'
rdata$r	ENDS
;	COMDAT ??_R3exception@std@@8
rdata$r	SEGMENT
??_R3exception@std@@8 DD 00H				; std::exception::`RTTI Class Hierarchy Descriptor'
	DD	00H
	DD	01H
	DD	FLAT:??_R2exception@std@@8
rdata$r	ENDS
;	COMDAT ??_R4exception@std@@6B@
rdata$r	SEGMENT
??_R4exception@std@@6B@ DD 00H				; std::exception::`RTTI Complete Object Locator'
	DD	00H
	DD	00H
	DD	FLAT:??_R0?AVexception@std@@@8
	DD	FLAT:??_R3exception@std@@8
rdata$r	ENDS
;	COMDAT ??_C@_0BA@FOIKENOD@vector?5too?5long@
CONST	SEGMENT
??_C@_0BA@FOIKENOD@vector?5too?5long@ DB 'vector too long', 00H ; `string'
CONST	ENDS
;	COMDAT __CT??_R0?AVexception@std@@@8??0exception@std@@QAE@ABV01@@Z12
xdata$x	SEGMENT
__CT??_R0?AVexception@std@@@8??0exception@std@@QAE@ABV01@@Z12 DD 00H
	DD	FLAT:??_R0?AVexception@std@@@8
	DD	00H
	DD	0ffffffffH
	ORG $+4
	DD	0cH
	DD	FLAT:??0exception@std@@QAE@ABV01@@Z
xdata$x	ENDS
;	COMDAT ??_R0?AVexception@std@@@8
data$r	SEGMENT
??_R0?AVexception@std@@@8 DD FLAT:??_7type_info@@6B@	; std::exception `RTTI Type Descriptor'
	DD	00H
	DB	'.?AVexception@std@@', 00H
data$r	ENDS
;	COMDAT __CT??_R0?AVbad_alloc@std@@@8??0bad_alloc@std@@QAE@ABV01@@Z12
xdata$x	SEGMENT
__CT??_R0?AVbad_alloc@std@@@8??0bad_alloc@std@@QAE@ABV01@@Z12 DD 010H
	DD	FLAT:??_R0?AVbad_alloc@std@@@8
	DD	00H
	DD	0ffffffffH
	ORG $+4
	DD	0cH
	DD	FLAT:??0bad_alloc@std@@QAE@ABV01@@Z
xdata$x	ENDS
;	COMDAT ??_R0?AVbad_alloc@std@@@8
data$r	SEGMENT
??_R0?AVbad_alloc@std@@@8 DD FLAT:??_7type_info@@6B@	; std::bad_alloc `RTTI Type Descriptor'
	DD	00H
	DB	'.?AVbad_alloc@std@@', 00H
data$r	ENDS
;	COMDAT __CT??_R0?AVbad_array_new_length@std@@@8??0bad_array_new_length@std@@QAE@ABV01@@Z12
xdata$x	SEGMENT
__CT??_R0?AVbad_array_new_length@std@@@8??0bad_array_new_length@std@@QAE@ABV01@@Z12 DD 00H
	DD	FLAT:??_R0?AVbad_array_new_length@std@@@8
	DD	00H
	DD	0ffffffffH
	ORG $+4
	DD	0cH
	DD	FLAT:??0bad_array_new_length@std@@QAE@ABV01@@Z
xdata$x	ENDS
;	COMDAT ??_R0?AVbad_array_new_length@std@@@8
data$r	SEGMENT
??_R0?AVbad_array_new_length@std@@@8 DD FLAT:??_7type_info@@6B@ ; std::bad_array_new_length `RTTI Type Descriptor'
	DD	00H
	DB	'.?AVbad_array_new_length@std@@', 00H
data$r	ENDS
;	COMDAT __CTA3?AVbad_array_new_length@std@@
xdata$x	SEGMENT
__CTA3?AVbad_array_new_length@std@@ DD 03H
	DD	FLAT:__CT??_R0?AVbad_array_new_length@std@@@8??0bad_array_new_length@std@@QAE@ABV01@@Z12
	DD	FLAT:__CT??_R0?AVbad_alloc@std@@@8??0bad_alloc@std@@QAE@ABV01@@Z12
	DD	FLAT:__CT??_R0?AVexception@std@@@8??0exception@std@@QAE@ABV01@@Z12
xdata$x	ENDS
;	COMDAT __TI3?AVbad_array_new_length@std@@
xdata$x	SEGMENT
__TI3?AVbad_array_new_length@std@@ DD 00H
	DD	FLAT:??1bad_array_new_length@std@@UAE@XZ
	DD	00H
	DD	FLAT:__CTA3?AVbad_array_new_length@std@@
xdata$x	ENDS
;	COMDAT ??_C@_0BF@KINCDENJ@bad?5array?5new?5length@
CONST	SEGMENT
??_C@_0BF@KINCDENJ@bad?5array?5new?5length@ DB 'bad array new length', 00H ; `string'
CONST	ENDS
;	COMDAT ??_7bad_array_new_length@std@@6B@
CONST	SEGMENT
??_7bad_array_new_length@std@@6B@ DD FLAT:??_R4bad_array_new_length@std@@6B@ ; std::bad_array_new_length::`vftable'
	DD	FLAT:??_Ebad_array_new_length@std@@UAEPAXI@Z
	DD	FLAT:?what@exception@std@@UBEPBDXZ
CONST	ENDS
;	COMDAT ??_7bad_alloc@std@@6B@
CONST	SEGMENT
??_7bad_alloc@std@@6B@ DD FLAT:??_R4bad_alloc@std@@6B@	; std::bad_alloc::`vftable'
	DD	FLAT:??_Ebad_alloc@std@@UAEPAXI@Z
	DD	FLAT:?what@exception@std@@UBEPBDXZ
CONST	ENDS
;	COMDAT ??_C@_0BC@EOODALEL@Unknown?5exception@
CONST	SEGMENT
??_C@_0BC@EOODALEL@Unknown?5exception@ DB 'Unknown exception', 00H ; `string'
CONST	ENDS
;	COMDAT ??_7exception@std@@6B@
CONST	SEGMENT
??_7exception@std@@6B@ DD FLAT:??_R4exception@std@@6B@	; std::exception::`vftable'
	DD	FLAT:??_Eexception@std@@UAEPAXI@Z
	DD	FLAT:?what@exception@std@@UBEPBDXZ
CONST	ENDS
;	COMDAT xdata$x
xdata$x	SEGMENT
__unwindtable$?wndMgrActivateSlot@@YAPAU_object@@PAU1@0@Z DD 0ffffffffH
	DD	FLAT:__unwindfunclet$?wndMgrActivateSlot@@YAPAU_object@@PAU1@0@Z$0
__ehfuncinfo$?wndMgrActivateSlot@@YAPAU_object@@PAU1@0@Z DD 019930522H
	DD	01H
	DD	FLAT:__unwindtable$?wndMgrActivateSlot@@YAPAU_object@@PAU1@0@Z
	DD	2 DUP(00H)
	DD	2 DUP(00H)
	DD	00H
	DD	01H
xdata$x	ENDS
; Function compile flags: /Ogtp
; File C:\Program Files\Microsoft Visual Studio\2022\Community\VC\Tools\MSVC\14.34.31933\include\xutility
;	COMDAT ??$_Fill_zero_memset@PAM@std@@YAXPAMI@Z
_TEXT	SEGMENT
__Dest$ = 8						; size = 4
__Count$ = 12						; size = 4
??$_Fill_zero_memset@PAM@std@@YAXPAMI@Z PROC		; std::_Fill_zero_memset<float *>, COMDAT

; 4329 : void _Fill_zero_memset(_CtgIt _Dest, const size_t _Count) {

  00000	55		 push	 ebp
  00001	8b ec		 mov	 ebp, esp

; 4330 :     _CSTD memset(_To_address(_Dest), 0, _Count * sizeof(_Iter_value_t<_CtgIt>));

  00003	8b 45 0c	 mov	 eax, DWORD PTR __Count$[ebp]
  00006	c1 e0 02	 shl	 eax, 2
  00009	50		 push	 eax
  0000a	6a 00		 push	 0
  0000c	ff 75 08	 push	 DWORD PTR __Dest$[ebp]
  0000f	e8 00 00 00 00	 call	 _memset
  00014	83 c4 0c	 add	 esp, 12			; 0000000cH

; 4331 : }

  00017	5d		 pop	 ebp
  00018	c3		 ret	 0
??$_Fill_zero_memset@PAM@std@@YAXPAMI@Z ENDP		; std::_Fill_zero_memset<float *>
_TEXT	ENDS
; Function compile flags: /Ogtp
; File C:\Program Files\Microsoft Visual Studio\2022\Community\VC\Tools\MSVC\14.34.31933\include\xutility
;	COMDAT ??$_Is_all_bits_zero@M@std@@YA_NABM@Z
_TEXT	SEGMENT
__Zero$1 = -4						; size = 4
__Val$ = 8						; size = 4
??$_Is_all_bits_zero@M@std@@YA_NABM@Z PROC		; std::_Is_all_bits_zero<float>, COMDAT

; 4334 : _NODISCARD bool _Is_all_bits_zero(const _Ty& _Val) {

  00000	55		 push	 ebp
  00001	8b ec		 mov	 ebp, esp
  00003	51		 push	 ecx

; 4335 :     // checks if scalar type has all bits set to zero
; 4336 :     _STL_INTERNAL_STATIC_ASSERT(is_scalar_v<_Ty> && !is_member_pointer_v<_Ty>);
; 4337 :     if constexpr (is_same_v<_Ty, nullptr_t>) {
; 4338 :         return true;
; 4339 :     } else {
; 4340 :         constexpr _Ty _Zero{};
; 4341 :         return _CSTD memcmp(&_Val, &_Zero, sizeof(_Ty)) == 0;

  00004	8b 45 08	 mov	 eax, DWORD PTR __Val$[ebp]
  00007	8d 4d fc	 lea	 ecx, DWORD PTR __Zero$1[ebp]
  0000a	c7 45 fc 00 00
	00 00		 mov	 DWORD PTR __Zero$1[ebp], 0
  00011	8b 00		 mov	 eax, DWORD PTR [eax]
  00013	3b 01		 cmp	 eax, DWORD PTR [ecx]
  00015	0f 94 c0	 sete	 al

; 4342 :     }
; 4343 : }

  00018	8b e5		 mov	 esp, ebp
  0001a	5d		 pop	 ebp
  0001b	c3		 ret	 0
??$_Is_all_bits_zero@M@std@@YA_NABM@Z ENDP		; std::_Is_all_bits_zero<float>
_TEXT	ENDS
; Function compile flags: /Ogtp
; File C:\Users\flourine\Desktop\Xantios\client-src\Code\eterPythonLib\PythonWindowManagerModule.cpp
;	COMDAT ?wndMgrSetStartCoolTimeImageBox@@YAPAU_object@@PAU1@0@Z
_TEXT	SEGMENT
_pWindow$ = -652					; size = 4
_fPercent$ = -648					; size = 4
_img_value_reverse$ = -644				; size = 380
_szBuf$ = -264						; size = 257
__$ArrayPad$ = -4					; size = 4
_poSelf$ = 8						; size = 4
_poArgs$ = 12						; size = 4
?wndMgrSetStartCoolTimeImageBox@@YAPAU_object@@PAU1@0@Z PROC ; wndMgrSetStartCoolTimeImageBox, COMDAT

; 4389 : {

  00000	55		 push	 ebp
  00001	8b ec		 mov	 ebp, esp
  00003	81 ec 8c 02 00
	00		 sub	 esp, 652		; 0000028cH
  00009	a1 00 00 00 00	 mov	 eax, DWORD PTR ___security_cookie
  0000e	33 c5		 xor	 eax, ebp
  00010	89 45 fc	 mov	 DWORD PTR __$ArrayPad$[ebp], eax
  00013	56		 push	 esi
  00014	8b 75 0c	 mov	 esi, DWORD PTR _poArgs$[ebp]

; 4390 : 	UI::CWindow* pWindow;
; 4391 : 	if (!PyTuple_GetWindow(poArgs, 0, &pWindow))

  00017	8d 85 74 fd ff
	ff		 lea	 eax, DWORD PTR _pWindow$[ebp]
  0001d	50		 push	 eax
  0001e	6a 00		 push	 0
  00020	56		 push	 esi
  00021	e8 00 00 00 00	 call	 ?PyTuple_GetWindow@@YA_NPAU_object@@HPAPAVCWindow@UI@@@Z ; PyTuple_GetWindow
  00026	83 c4 0c	 add	 esp, 12			; 0000000cH
  00029	84 c0		 test	 al, al
  0002b	75 19		 jne	 SHORT $LN2@wndMgrSetS
$LN9@wndMgrSetS:

; 4435 : }

  0002d	6a 00		 push	 0
  0002f	e8 00 00 00 00	 call	 ?Py_BuildException@@YAPAU_object@@PBDZZ ; Py_BuildException
  00034	83 c4 04	 add	 esp, 4
  00037	5e		 pop	 esi
  00038	8b 4d fc	 mov	 ecx, DWORD PTR __$ArrayPad$[ebp]
  0003b	33 cd		 xor	 ecx, ebp
  0003d	e8 00 00 00 00	 call	 @__security_check_cookie@4
  00042	8b e5		 mov	 esp, ebp
  00044	5d		 pop	 ebp
  00045	c3		 ret	 0
$LN2@wndMgrSetS:

; 4392 : 	{
; 4393 : 		return Py_BuildException();
; 4394 : 	}
; 4395 : 
; 4396 : 	float fPercent;
; 4397 : 	if (!PyTuple_GetFloat(poArgs, 1, &fPercent))

  00046	8d 85 78 fd ff
	ff		 lea	 eax, DWORD PTR _fPercent$[ebp]
  0004c	50		 push	 eax
  0004d	6a 01		 push	 1
  0004f	56		 push	 esi
  00050	e8 00 00 00 00	 call	 ?PyTuple_GetFloat@@YA_NPAU_object@@HPAM@Z ; PyTuple_GetFloat
  00055	83 c4 0c	 add	 esp, 12			; 0000000cH
  00058	84 c0		 test	 al, al
  0005a	74 d1		 je	 SHORT $LN9@wndMgrSetS

; 4398 : 	{
; 4399 : 		return Py_BuildException();
; 4400 : 	}
; 4401 : 
; 4402 : 	const int img_value_reverse[] =
; 4403 : 	{
; 4404 : 		94, 93, 92, 91, 90, 89, 88, 87, 86, 85, 84, 83, 82, 81, 80, 79, 78, 77, 76, 75,

  0005c	0f 28 05 00 00
	00 00		 movaps	 xmm0, XMMWORD PTR __xmm@0000005b0000005c0000005d0000005e

; 4405 : 		74, 73, 72, 71, 70, 69, 68, 67, 66, 65, 64, 63, 62, 61, 60, 59, 58, 57, 56, 55,
; 4406 : 		54, 53, 52, 51, 50, 49, 48, 47, 46, 45, 44, 43, 42, 41, 40, 39, 38, 37, 36, 35,
; 4407 : 		34, 33, 32, 31, 30, 29, 28, 27, 26, 25, 24, 23, 22, 21, 20, 19, 18, 17, 16, 15,
; 4408 : 		14, 13, 12, 11, 10, 9, 8, 7, 6, 5, 4, 3, 2, 1, 0
; 4409 : 	};
; 4410 : 
; 4411 : 	int iPercent = fPercent * 95.0f;

  00063	8d 85 7c fd ff
	ff		 lea	 eax, DWORD PTR _img_value_reverse$[ebp]
  00069	0f 11 85 7c fd
	ff ff		 movups	 XMMWORD PTR _img_value_reverse$[ebp], xmm0

; 4412 : 	int images = img_value_reverse[iPercent - 1];
; 4413 : 
; 4414 : 	char szBuf[256 + 1];
; 4415 : 	if (images < 10)
; 4416 : 	{
; 4417 : 		_snprintf(szBuf, sizeof(szBuf), "d:/ymir work/ui/game/12zi/time_image/time_0%d.tga", images);
; 4418 : 	}
; 4419 : 	else
; 4420 : 	{
; 4421 : 		_snprintf(szBuf, sizeof(szBuf), "d:/ymir work/ui/game/12zi/time_image/time_%d.tga", images);
; 4422 : 	}
; 4423 : 
; 4424 : 	if (szBuf == NULL)

  00070	ba 00 00 00 00	 mov	 edx, OFFSET ??_C@_0DC@NJMLLDNJ@d?3?1ymir?5work?1ui?1game?112zi?1time_@
  00075	c7 85 ec fe ff
	ff 02 00 00 00	 mov	 DWORD PTR _img_value_reverse$[ebp+368], 2
  0007f	0f 28 05 00 00
	00 00		 movaps	 xmm0, XMMWORD PTR __xmm@0000005700000058000000590000005a
  00086	0f 11 85 8c fd
	ff ff		 movups	 XMMWORD PTR _img_value_reverse$[ebp+16], xmm0
  0008d	c7 85 f0 fe ff
	ff 01 00 00 00	 mov	 DWORD PTR _img_value_reverse$[ebp+372], 1
  00097	0f 28 05 00 00
	00 00		 movaps	 xmm0, XMMWORD PTR __xmm@00000053000000540000005500000056
  0009e	0f 11 85 9c fd
	ff ff		 movups	 XMMWORD PTR _img_value_reverse$[ebp+32], xmm0
  000a5	c7 85 f4 fe ff
	ff 00 00 00 00	 mov	 DWORD PTR _img_value_reverse$[ebp+376], 0
  000af	0f 28 05 00 00
	00 00		 movaps	 xmm0, XMMWORD PTR __xmm@0000004f000000500000005100000052
  000b6	0f 11 85 ac fd
	ff ff		 movups	 XMMWORD PTR _img_value_reverse$[ebp+48], xmm0
  000bd	0f 28 05 00 00
	00 00		 movaps	 xmm0, XMMWORD PTR __xmm@0000004b0000004c0000004d0000004e
  000c4	0f 11 85 bc fd
	ff ff		 movups	 XMMWORD PTR _img_value_reverse$[ebp+64], xmm0
  000cb	0f 28 05 00 00
	00 00		 movaps	 xmm0, XMMWORD PTR __xmm@0000004700000048000000490000004a
  000d2	0f 11 85 cc fd
	ff ff		 movups	 XMMWORD PTR _img_value_reverse$[ebp+80], xmm0
  000d9	0f 28 05 00 00
	00 00		 movaps	 xmm0, XMMWORD PTR __xmm@00000043000000440000004500000046
  000e0	0f 11 85 dc fd
	ff ff		 movups	 XMMWORD PTR _img_value_reverse$[ebp+96], xmm0
  000e7	0f 28 05 00 00
	00 00		 movaps	 xmm0, XMMWORD PTR __xmm@0000003f000000400000004100000042
  000ee	0f 11 85 ec fd
	ff ff		 movups	 XMMWORD PTR _img_value_reverse$[ebp+112], xmm0
  000f5	0f 28 05 00 00
	00 00		 movaps	 xmm0, XMMWORD PTR __xmm@0000003b0000003c0000003d0000003e
  000fc	0f 11 85 fc fd
	ff ff		 movups	 XMMWORD PTR _img_value_reverse$[ebp+128], xmm0
  00103	0f 28 05 00 00
	00 00		 movaps	 xmm0, XMMWORD PTR __xmm@0000003700000038000000390000003a
  0010a	0f 11 85 0c fe
	ff ff		 movups	 XMMWORD PTR _img_value_reverse$[ebp+144], xmm0
  00111	0f 28 05 00 00
	00 00		 movaps	 xmm0, XMMWORD PTR __xmm@00000033000000340000003500000036
  00118	0f 11 85 1c fe
	ff ff		 movups	 XMMWORD PTR _img_value_reverse$[ebp+160], xmm0
  0011f	0f 28 05 00 00
	00 00		 movaps	 xmm0, XMMWORD PTR __xmm@0000002f000000300000003100000032
  00126	0f 11 85 2c fe
	ff ff		 movups	 XMMWORD PTR _img_value_reverse$[ebp+176], xmm0
  0012d	0f 28 05 00 00
	00 00		 movaps	 xmm0, XMMWORD PTR __xmm@0000002b0000002c0000002d0000002e
  00134	0f 11 85 3c fe
	ff ff		 movups	 XMMWORD PTR _img_value_reverse$[ebp+192], xmm0
  0013b	0f 28 05 00 00
	00 00		 movaps	 xmm0, XMMWORD PTR __xmm@0000002700000028000000290000002a
  00142	0f 11 85 4c fe
	ff ff		 movups	 XMMWORD PTR _img_value_reverse$[ebp+208], xmm0
  00149	0f 28 05 00 00
	00 00		 movaps	 xmm0, XMMWORD PTR __xmm@00000023000000240000002500000026
  00150	0f 11 85 5c fe
	ff ff		 movups	 XMMWORD PTR _img_value_reverse$[ebp+224], xmm0
  00157	0f 28 05 00 00
	00 00		 movaps	 xmm0, XMMWORD PTR __xmm@0000001f000000200000002100000022
  0015e	0f 11 85 6c fe
	ff ff		 movups	 XMMWORD PTR _img_value_reverse$[ebp+240], xmm0
  00165	0f 28 05 00 00
	00 00		 movaps	 xmm0, XMMWORD PTR __xmm@0000001b0000001c0000001d0000001e
  0016c	0f 11 85 7c fe
	ff ff		 movups	 XMMWORD PTR _img_value_reverse$[ebp+256], xmm0
  00173	0f 28 05 00 00
	00 00		 movaps	 xmm0, XMMWORD PTR __xmm@0000001700000018000000190000001a
  0017a	0f 11 85 8c fe
	ff ff		 movups	 XMMWORD PTR _img_value_reverse$[ebp+272], xmm0
  00181	0f 28 05 00 00
	00 00		 movaps	 xmm0, XMMWORD PTR __xmm@00000013000000140000001500000016
  00188	0f 11 85 9c fe
	ff ff		 movups	 XMMWORD PTR _img_value_reverse$[ebp+288], xmm0
  0018f	0f 28 05 00 00
	00 00		 movaps	 xmm0, XMMWORD PTR __xmm@0000000f000000100000001100000012
  00196	0f 11 85 ac fe
	ff ff		 movups	 XMMWORD PTR _img_value_reverse$[ebp+304], xmm0
  0019d	0f 28 05 00 00
	00 00		 movaps	 xmm0, XMMWORD PTR __xmm@0000000b0000000c0000000d0000000e
  001a4	0f 11 85 bc fe
	ff ff		 movups	 XMMWORD PTR _img_value_reverse$[ebp+320], xmm0
  001ab	0f 28 05 00 00
	00 00		 movaps	 xmm0, XMMWORD PTR __xmm@0000000700000008000000090000000a
  001b2	0f 11 85 cc fe
	ff ff		 movups	 XMMWORD PTR _img_value_reverse$[ebp+336], xmm0
  001b9	0f 28 05 00 00
	00 00		 movaps	 xmm0, XMMWORD PTR __xmm@00000003000000040000000500000006
  001c0	0f 11 85 dc fe
	ff ff		 movups	 XMMWORD PTR _img_value_reverse$[ebp+352], xmm0
  001c7	f3 0f 10 85 78
	fd ff ff	 movss	 xmm0, DWORD PTR _fPercent$[ebp]
  001cf	f3 0f 59 05 00
	00 00 00	 mulss	 xmm0, DWORD PTR __real@c2be0000
  001d7	f3 0f 2c c8	 cvttss2si ecx, xmm0
  001db	c1 e1 02	 shl	 ecx, 2
  001de	2b c1		 sub	 eax, ecx
  001e0	b9 00 00 00 00	 mov	 ecx, OFFSET ??_C@_0DB@CIHHCLAG@d?3?1ymir?5work?1ui?1game?112zi?1time_@
  001e5	8b 40 fc	 mov	 eax, DWORD PTR [eax-4]
  001e8	83 f8 0a	 cmp	 eax, 10			; 0000000aH
  001eb	50		 push	 eax
  001ec	0f 4c ca	 cmovl	 ecx, edx
  001ef	8d 85 f8 fe ff
	ff		 lea	 eax, DWORD PTR _szBuf$[ebp]
  001f5	51		 push	 ecx
  001f6	68 01 01 00 00	 push	 257			; 00000101H
  001fb	50		 push	 eax
  001fc	e8 00 00 00 00	 call	 __snprintf

; 4425 : 	{
; 4426 : 		return Py_BuildException();
; 4427 : 	}
; 4428 : 
; 4429 : 	if (!((UI::CImageBox*)pWindow)->LoadImage(szBuf))

  00201	8b 8d 74 fd ff
	ff		 mov	 ecx, DWORD PTR _pWindow$[ebp]
  00207	8d 85 f8 fe ff
	ff		 lea	 eax, DWORD PTR _szBuf$[ebp]
  0020d	83 c4 10	 add	 esp, 16			; 00000010H
  00210	50		 push	 eax
  00211	e8 00 00 00 00	 call	 ?LoadImageA@CImageBox@UI@@QAEHPBD@Z ; UI::CImageBox::LoadImageA
  00216	85 c0		 test	 eax, eax
  00218	0f 84 0f fe ff
	ff		 je	 $LN9@wndMgrSetS

; 4430 : 	{
; 4431 : 		return Py_BuildException();
; 4432 : 	}
; 4433 : 
; 4434 : 	return Py_BuildNone();

  0021e	e8 00 00 00 00	 call	 ?Py_BuildNone@@YAPAU_object@@XZ ; Py_BuildNone

; 4435 : }

  00223	8b 4d fc	 mov	 ecx, DWORD PTR __$ArrayPad$[ebp]
  00226	33 cd		 xor	 ecx, ebp
  00228	5e		 pop	 esi
  00229	e8 00 00 00 00	 call	 @__security_check_cookie@4
  0022e	8b e5		 mov	 esp, ebp
  00230	5d		 pop	 ebp
  00231	c3		 ret	 0
?wndMgrSetStartCoolTimeImageBox@@YAPAU_object@@PAU1@0@Z ENDP ; wndMgrSetStartCoolTimeImageBox
_TEXT	ENDS
; Function compile flags: /Ogtp
; File C:\Users\flourine\Desktop\Xantios\client-src\Code\eterPythonLib\PythonWindowManagerModule.cpp
;	COMDAT ?wndMgrSetCoolTimeImageBox@@YAPAU_object@@PAU1@0@Z
_TEXT	SEGMENT
_pWindow$ = -272					; size = 4
_iPercent$ = -268					; size = 4
_szFileName$ = -264					; size = 257
__$ArrayPad$ = -4					; size = 4
_poSelf$ = 8						; size = 4
_poArgs$ = 12						; size = 4
?wndMgrSetCoolTimeImageBox@@YAPAU_object@@PAU1@0@Z PROC	; wndMgrSetCoolTimeImageBox, COMDAT

; 4358 : {

  00000	55		 push	 ebp
  00001	8b ec		 mov	 ebp, esp
  00003	81 ec 10 01 00
	00		 sub	 esp, 272		; 00000110H
  00009	a1 00 00 00 00	 mov	 eax, DWORD PTR ___security_cookie
  0000e	33 c5		 xor	 eax, ebp
  00010	89 45 fc	 mov	 DWORD PTR __$ArrayPad$[ebp], eax
  00013	56		 push	 esi
  00014	8b 75 0c	 mov	 esi, DWORD PTR _poArgs$[ebp]

; 4359 : 	UI::CWindow* pWindow;
; 4360 : 	if (!PyTuple_GetWindow(poArgs, 0, &pWindow))

  00017	8d 85 f0 fe ff
	ff		 lea	 eax, DWORD PTR _pWindow$[ebp]
  0001d	50		 push	 eax
  0001e	6a 00		 push	 0
  00020	56		 push	 esi
  00021	e8 00 00 00 00	 call	 ?PyTuple_GetWindow@@YA_NPAU_object@@HPAPAVCWindow@UI@@@Z ; PyTuple_GetWindow
  00026	83 c4 0c	 add	 esp, 12			; 0000000cH
  00029	84 c0		 test	 al, al
  0002b	75 19		 jne	 SHORT $LN2@wndMgrSetC
$LN7@wndMgrSetC:

; 4386 : }

  0002d	6a 00		 push	 0
  0002f	e8 00 00 00 00	 call	 ?Py_BuildException@@YAPAU_object@@PBDZZ ; Py_BuildException
  00034	83 c4 04	 add	 esp, 4
  00037	5e		 pop	 esi
  00038	8b 4d fc	 mov	 ecx, DWORD PTR __$ArrayPad$[ebp]
  0003b	33 cd		 xor	 ecx, ebp
  0003d	e8 00 00 00 00	 call	 @__security_check_cookie@4
  00042	8b e5		 mov	 esp, ebp
  00044	5d		 pop	 ebp
  00045	c3		 ret	 0
$LN2@wndMgrSetC:

; 4361 : 	{
; 4362 : 		return Py_BuildException();
; 4363 : 	}
; 4364 : 
; 4365 : 	int iPercent;
; 4366 : 	if (!PyTuple_GetInteger(poArgs, 1, &iPercent))

  00046	8d 85 f4 fe ff
	ff		 lea	 eax, DWORD PTR _iPercent$[ebp]
  0004c	50		 push	 eax
  0004d	6a 01		 push	 1
  0004f	56		 push	 esi
  00050	e8 00 00 00 00	 call	 ?PyTuple_GetInteger@@YA_NPAU_object@@HPAH@Z ; PyTuple_GetInteger
  00055	8b 8d f4 fe ff
	ff		 mov	 ecx, DWORD PTR _iPercent$[ebp]
  0005b	84 c0		 test	 al, al
  0005d	ba 01 00 00 00	 mov	 edx, 1

; 4367 : 
; 4368 : 	{
; 4369 : 		iPercent = 1;
; 4370 : 	}
; 4371 : 
; 4372 : 	char szFileName[256 + 1];
; 4373 : 	_snprintf(szFileName, sizeof(szFileName), "d:/ymir work/ui/game/12zi/time_image/time_0%d.tga", iPercent);

  00062	8d 85 f8 fe ff
	ff		 lea	 eax, DWORD PTR _szFileName$[ebp]
  00068	0f 44 ca	 cmove	 ecx, edx
  0006b	51		 push	 ecx
  0006c	68 00 00 00 00	 push	 OFFSET ??_C@_0DC@NJMLLDNJ@d?3?1ymir?5work?1ui?1game?112zi?1time_@
  00071	68 01 01 00 00	 push	 257			; 00000101H
  00076	50		 push	 eax
  00077	89 8d f4 fe ff
	ff		 mov	 DWORD PTR _iPercent$[ebp], ecx
  0007d	e8 00 00 00 00	 call	 __snprintf

; 4374 : 
; 4375 : 	if (szFileName == NULL)
; 4376 : 	{
; 4377 : 		return Py_BuildException();
; 4378 : 	}
; 4379 : 
; 4380 : 	if (!((UI::CImageBox*)pWindow)->LoadImage(szFileName))

  00082	8b 8d f0 fe ff
	ff		 mov	 ecx, DWORD PTR _pWindow$[ebp]
  00088	8d 85 f8 fe ff
	ff		 lea	 eax, DWORD PTR _szFileName$[ebp]
  0008e	83 c4 1c	 add	 esp, 28			; 0000001cH
  00091	50		 push	 eax
  00092	e8 00 00 00 00	 call	 ?LoadImageA@CImageBox@UI@@QAEHPBD@Z ; UI::CImageBox::LoadImageA
  00097	85 c0		 test	 eax, eax
  00099	74 92		 je	 SHORT $LN7@wndMgrSetC

; 4381 : 	{
; 4382 : 		return Py_BuildException();
; 4383 : 	}
; 4384 : 
; 4385 : 	return Py_BuildNone();

  0009b	e8 00 00 00 00	 call	 ?Py_BuildNone@@YAPAU_object@@XZ ; Py_BuildNone

; 4386 : }

  000a0	8b 4d fc	 mov	 ecx, DWORD PTR __$ArrayPad$[ebp]
  000a3	33 cd		 xor	 ecx, ebp
  000a5	5e		 pop	 esi
  000a6	e8 00 00 00 00	 call	 @__security_check_cookie@4
  000ab	8b e5		 mov	 esp, ebp
  000ad	5d		 pop	 ebp
  000ae	c3		 ret	 0
?wndMgrSetCoolTimeImageBox@@YAPAU_object@@PAU1@0@Z ENDP	; wndMgrSetCoolTimeImageBox
_TEXT	ENDS
; Function compile flags: /Ogtp
; File C:\Users\flourine\Desktop\Xantios\client-src\Code\eterPythonLib\PythonWindowManagerModule.cpp
;	COMDAT ?wndMgrSetSlotScale@@YAPAU_object@@PAU1@0@Z
_TEXT	SEGMENT
_diffuseColor$ = -52					; size = 16
_iSlotIndex$ = -36					; size = 4
_iItemIndex$ = -32					; size = 4
_iWidth$ = -28						; size = 4
_iHeight$ = -24						; size = 4
_iImageHandle$ = -20					; size = 4
_sx$ = -16						; size = 4
_sy$ = -12						; size = 4
_pWin$ = -8						; size = 4
_pTuple$ = -4						; size = 4
_poSelf$ = 8						; size = 4
_poArgs$ = 12						; size = 4
?wndMgrSetSlotScale@@YAPAU_object@@PAU1@0@Z PROC	; wndMgrSetSlotScale, COMDAT

; 4263 : {

  00000	55		 push	 ebp
  00001	8b ec		 mov	 ebp, esp
  00003	83 ec 34	 sub	 esp, 52			; 00000034H

; 4264 : 	UI::CWindow* pWin;
; 4265 : 	if (!PyTuple_GetWindow(poArgs, 0, &pWin))

  00006	8d 45 f8	 lea	 eax, DWORD PTR _pWin$[ebp]
  00009	56		 push	 esi
  0000a	8b 75 0c	 mov	 esi, DWORD PTR _poArgs$[ebp]
  0000d	50		 push	 eax
  0000e	6a 00		 push	 0
  00010	56		 push	 esi
  00011	e8 00 00 00 00	 call	 ?PyTuple_GetWindow@@YA_NPAU_object@@HPAPAVCWindow@UI@@@Z ; PyTuple_GetWindow
  00016	83 c4 0c	 add	 esp, 12			; 0000000cH
  00019	84 c0		 test	 al, al
  0001b	75 0f		 jne	 SHORT $LN2@wndMgrSetS
$LN32@wndMgrSetS:

; 4354 : }

  0001d	6a 00		 push	 0
  0001f	e8 00 00 00 00	 call	 ?Py_BuildException@@YAPAU_object@@PBDZZ ; Py_BuildException
  00024	83 c4 04	 add	 esp, 4
  00027	5e		 pop	 esi
  00028	8b e5		 mov	 esp, ebp
  0002a	5d		 pop	 ebp
  0002b	c3		 ret	 0
$LN2@wndMgrSetS:

; 4266 : 	{
; 4267 : 		return Py_BuildException();
; 4268 : 	}
; 4269 : 
; 4270 : 	int iSlotIndex;
; 4271 : 	if (!PyTuple_GetInteger(poArgs, 1, &iSlotIndex))

  0002c	8d 45 dc	 lea	 eax, DWORD PTR _iSlotIndex$[ebp]
  0002f	50		 push	 eax
  00030	6a 01		 push	 1
  00032	56		 push	 esi
  00033	e8 00 00 00 00	 call	 ?PyTuple_GetInteger@@YA_NPAU_object@@HPAH@Z ; PyTuple_GetInteger
  00038	83 c4 0c	 add	 esp, 12			; 0000000cH
  0003b	84 c0		 test	 al, al
  0003d	74 de		 je	 SHORT $LN32@wndMgrSetS

; 4272 : 	{
; 4273 : 		return Py_BuildException();
; 4274 : 	}
; 4275 : 
; 4276 : 	int iItemIndex;
; 4277 : 	if (!PyTuple_GetInteger(poArgs, 2, &iItemIndex))

  0003f	8d 45 e0	 lea	 eax, DWORD PTR _iItemIndex$[ebp]
  00042	50		 push	 eax
  00043	6a 02		 push	 2
  00045	56		 push	 esi
  00046	e8 00 00 00 00	 call	 ?PyTuple_GetInteger@@YA_NPAU_object@@HPAH@Z ; PyTuple_GetInteger
  0004b	83 c4 0c	 add	 esp, 12			; 0000000cH
  0004e	84 c0		 test	 al, al
  00050	74 cb		 je	 SHORT $LN32@wndMgrSetS

; 4278 : 	{
; 4279 : 		return Py_BuildException();
; 4280 : 	}
; 4281 : 
; 4282 : 	int iWidth;
; 4283 : 	if (!PyTuple_GetInteger(poArgs, 3, &iWidth))

  00052	8d 45 e4	 lea	 eax, DWORD PTR _iWidth$[ebp]
  00055	50		 push	 eax
  00056	6a 03		 push	 3
  00058	56		 push	 esi
  00059	e8 00 00 00 00	 call	 ?PyTuple_GetInteger@@YA_NPAU_object@@HPAH@Z ; PyTuple_GetInteger
  0005e	83 c4 0c	 add	 esp, 12			; 0000000cH
  00061	84 c0		 test	 al, al
  00063	74 b8		 je	 SHORT $LN32@wndMgrSetS

; 4284 : 	{
; 4285 : 		return Py_BuildException();
; 4286 : 	}
; 4287 : 
; 4288 : 	int iHeight;
; 4289 : 	if (!PyTuple_GetInteger(poArgs, 4, &iHeight))

  00065	8d 45 e8	 lea	 eax, DWORD PTR _iHeight$[ebp]
  00068	50		 push	 eax
  00069	6a 04		 push	 4
  0006b	56		 push	 esi
  0006c	e8 00 00 00 00	 call	 ?PyTuple_GetInteger@@YA_NPAU_object@@HPAH@Z ; PyTuple_GetInteger
  00071	83 c4 0c	 add	 esp, 12			; 0000000cH
  00074	84 c0		 test	 al, al
  00076	74 a5		 je	 SHORT $LN32@wndMgrSetS

; 4290 : 	{
; 4291 : 		return Py_BuildException();
; 4292 : 	}
; 4293 : 
; 4294 : 	int iImageHandle;
; 4295 : 	if (!PyTuple_GetInteger(poArgs, 5, &iImageHandle))

  00078	8d 45 ec	 lea	 eax, DWORD PTR _iImageHandle$[ebp]
  0007b	50		 push	 eax
  0007c	6a 05		 push	 5
  0007e	56		 push	 esi
  0007f	e8 00 00 00 00	 call	 ?PyTuple_GetInteger@@YA_NPAU_object@@HPAH@Z ; PyTuple_GetInteger
  00084	83 c4 0c	 add	 esp, 12			; 0000000cH
  00087	84 c0		 test	 al, al
  00089	74 92		 je	 SHORT $LN32@wndMgrSetS

; 4296 : 	{
; 4297 : 		return Py_BuildException();
; 4298 : 	}
; 4299 : 
; 4300 : 	D3DXCOLOR diffuseColor;
; 4301 : 
; 4302 : 	PyObject* pTuple;
; 4303 : 	if (!PyTuple_GetObject(poArgs, 6, &pTuple))

  0008b	8d 45 fc	 lea	 eax, DWORD PTR _pTuple$[ebp]
  0008e	50		 push	 eax
  0008f	6a 06		 push	 6
  00091	56		 push	 esi
  00092	e8 00 00 00 00	 call	 ?PyTuple_GetObject@@YA_NPAU_object@@HPAPAU1@@Z ; PyTuple_GetObject
  00097	83 c4 0c	 add	 esp, 12			; 0000000cH
  0009a	84 c0		 test	 al, al
  0009c	75 0d		 jne	 SHORT $LN8@wndMgrSetS

; 4304 : 	{
; 4305 : 		diffuseColor = D3DXCOLOR(1.0, 1.0, 1.0, 1.0);

  0009e	0f 28 05 00 00
	00 00		 movaps	 xmm0, XMMWORD PTR __xmm@3f8000003f8000003f8000003f800000
  000a5	0f 11 45 cc	 movups	 XMMWORD PTR _diffuseColor$[ebp], xmm0

; 4306 : 	}

  000a9	eb 79		 jmp	 SHORT $LN14@wndMgrSetS
$LN8@wndMgrSetS:

; 4307 : 	else
; 4308 : 	{
; 4309 : 		if (PyTuple_Size(pTuple) != 4)

  000ab	ff 75 fc	 push	 DWORD PTR _pTuple$[ebp]
  000ae	ff 15 00 00 00
	00		 call	 DWORD PTR __imp__PyTuple_Size
  000b4	83 c4 04	 add	 esp, 4
  000b7	83 f8 04	 cmp	 eax, 4
  000ba	0f 85 5d ff ff
	ff		 jne	 $LN32@wndMgrSetS

; 4310 : 		{
; 4311 : 			return Py_BuildException();
; 4312 : 		}
; 4313 : 		if (!PyTuple_GetFloat(pTuple, 0, &diffuseColor.r))

  000c0	8d 45 cc	 lea	 eax, DWORD PTR _diffuseColor$[ebp]
  000c3	50		 push	 eax
  000c4	6a 00		 push	 0
  000c6	ff 75 fc	 push	 DWORD PTR _pTuple$[ebp]
  000c9	e8 00 00 00 00	 call	 ?PyTuple_GetFloat@@YA_NPAU_object@@HPAM@Z ; PyTuple_GetFloat
  000ce	83 c4 0c	 add	 esp, 12			; 0000000cH
  000d1	84 c0		 test	 al, al
  000d3	0f 84 44 ff ff
	ff		 je	 $LN32@wndMgrSetS

; 4314 : 		{
; 4315 : 			return Py_BuildException();
; 4316 : 		}
; 4317 : 		if (!PyTuple_GetFloat(pTuple, 1, &diffuseColor.g))

  000d9	8d 45 d0	 lea	 eax, DWORD PTR _diffuseColor$[ebp+4]
  000dc	50		 push	 eax
  000dd	6a 01		 push	 1
  000df	ff 75 fc	 push	 DWORD PTR _pTuple$[ebp]
  000e2	e8 00 00 00 00	 call	 ?PyTuple_GetFloat@@YA_NPAU_object@@HPAM@Z ; PyTuple_GetFloat
  000e7	83 c4 0c	 add	 esp, 12			; 0000000cH
  000ea	84 c0		 test	 al, al
  000ec	0f 84 2b ff ff
	ff		 je	 $LN32@wndMgrSetS

; 4318 : 		{
; 4319 : 			return Py_BuildException();
; 4320 : 		}
; 4321 : 		if (!PyTuple_GetFloat(pTuple, 2, &diffuseColor.b))

  000f2	8d 45 d4	 lea	 eax, DWORD PTR _diffuseColor$[ebp+8]
  000f5	50		 push	 eax
  000f6	6a 02		 push	 2
  000f8	ff 75 fc	 push	 DWORD PTR _pTuple$[ebp]
  000fb	e8 00 00 00 00	 call	 ?PyTuple_GetFloat@@YA_NPAU_object@@HPAM@Z ; PyTuple_GetFloat
  00100	83 c4 0c	 add	 esp, 12			; 0000000cH
  00103	84 c0		 test	 al, al
  00105	0f 84 12 ff ff
	ff		 je	 $LN32@wndMgrSetS

; 4322 : 		{
; 4323 : 			return Py_BuildException();
; 4324 : 		}
; 4325 : 		if (!PyTuple_GetFloat(pTuple, 3, &diffuseColor.a))

  0010b	8d 45 d8	 lea	 eax, DWORD PTR _diffuseColor$[ebp+12]
  0010e	50		 push	 eax
  0010f	6a 03		 push	 3
  00111	ff 75 fc	 push	 DWORD PTR _pTuple$[ebp]
  00114	e8 00 00 00 00	 call	 ?PyTuple_GetFloat@@YA_NPAU_object@@HPAM@Z ; PyTuple_GetFloat
  00119	83 c4 0c	 add	 esp, 12			; 0000000cH
  0011c	84 c0		 test	 al, al
  0011e	0f 84 f9 fe ff
	ff		 je	 $LN32@wndMgrSetS
$LN14@wndMgrSetS:

; 4326 : 		{
; 4327 : 			return Py_BuildException();
; 4328 : 		}
; 4329 : 	}
; 4330 : 
; 4331 : 	float sx, sy;
; 4332 : 	if (!PyTuple_GetFloat(poArgs, 7, &sx))

  00124	8d 45 f0	 lea	 eax, DWORD PTR _sx$[ebp]
  00127	50		 push	 eax
  00128	6a 07		 push	 7
  0012a	56		 push	 esi
  0012b	e8 00 00 00 00	 call	 ?PyTuple_GetFloat@@YA_NPAU_object@@HPAM@Z ; PyTuple_GetFloat
  00130	83 c4 0c	 add	 esp, 12			; 0000000cH
  00133	84 c0		 test	 al, al
  00135	0f 84 e2 fe ff
	ff		 je	 $LN32@wndMgrSetS

; 4333 : 	{
; 4334 : 
; 4335 : 		return Py_BuildException();
; 4336 : 	}
; 4337 : 
; 4338 : 	if (!PyTuple_GetFloat(poArgs, 8, &sy))

  0013b	8d 45 f4	 lea	 eax, DWORD PTR _sy$[ebp]
  0013e	50		 push	 eax
  0013f	6a 08		 push	 8
  00141	56		 push	 esi
  00142	e8 00 00 00 00	 call	 ?PyTuple_GetFloat@@YA_NPAU_object@@HPAM@Z ; PyTuple_GetFloat
  00147	83 c4 0c	 add	 esp, 12			; 0000000cH
  0014a	84 c0		 test	 al, al
  0014c	0f 84 cb fe ff
	ff		 je	 $LN32@wndMgrSetS

; 4339 : 	{
; 4340 : 
; 4341 : 		return Py_BuildException();
; 4342 : 	}
; 4343 : 
; 4344 : 
; 4345 : 	if (!pWin->IsType(UI::CSlotWindow::Type()))

  00152	e8 00 00 00 00	 call	 ?Type@CSlotWindow@UI@@SAKXZ ; UI::CSlotWindow::Type
  00157	8b 75 f8	 mov	 esi, DWORD PTR _pWin$[ebp]
  0015a	8b ce		 mov	 ecx, esi
  0015c	50		 push	 eax
  0015d	e8 00 00 00 00	 call	 ?IsType@CWindow@UI@@QAEHK@Z ; UI::CWindow::IsType
  00162	85 c0		 test	 eax, eax
  00164	0f 84 b3 fe ff
	ff		 je	 $LN32@wndMgrSetS

; 4346 : 	{
; 4347 : 		return Py_BuildException();
; 4348 : 	}
; 4349 : 
; 4350 : 	UI::CSlotWindow* pSlotWin = (UI::CSlotWindow*)pWin;
; 4351 : 	pSlotWin->SetSlotScale(iSlotIndex, iItemIndex, iWidth, iHeight, (CGraphicImage*)iImageHandle, sx, sy, diffuseColor);

  0016a	f3 0f 10 45 f4	 movss	 xmm0, DWORD PTR _sy$[ebp]
  0016f	8d 45 cc	 lea	 eax, DWORD PTR _diffuseColor$[ebp]
  00172	50		 push	 eax
  00173	83 ec 08	 sub	 esp, 8
  00176	8b ce		 mov	 ecx, esi
  00178	f3 0f 11 44 24
	04		 movss	 DWORD PTR [esp+4], xmm0
  0017e	f3 0f 10 45 f0	 movss	 xmm0, DWORD PTR _sx$[ebp]
  00183	f3 0f 11 04 24	 movss	 DWORD PTR [esp], xmm0
  00188	ff 75 ec	 push	 DWORD PTR _iImageHandle$[ebp]
  0018b	ff 75 e8	 push	 DWORD PTR _iHeight$[ebp]
  0018e	ff 75 e4	 push	 DWORD PTR _iWidth$[ebp]
  00191	ff 75 e0	 push	 DWORD PTR _iItemIndex$[ebp]
  00194	ff 75 dc	 push	 DWORD PTR _iSlotIndex$[ebp]
  00197	e8 00 00 00 00	 call	 ?SetSlotScale@CSlotWindow@UI@@QAEXKKEEPAVCGraphicImage@@MMAAUD3DXCOLOR@@@Z ; UI::CSlotWindow::SetSlotScale

; 4352 : 
; 4353 : 	return Py_BuildNone();

  0019c	e8 00 00 00 00	 call	 ?Py_BuildNone@@YAPAU_object@@XZ ; Py_BuildNone
  001a1	5e		 pop	 esi

; 4354 : }

  001a2	8b e5		 mov	 esp, ebp
  001a4	5d		 pop	 ebp
  001a5	c3		 ret	 0
?wndMgrSetSlotScale@@YAPAU_object@@PAU1@0@Z ENDP	; wndMgrSetSlotScale
_TEXT	ENDS
; Function compile flags: /Ogtp
; File C:\Users\flourine\Desktop\Xantios\client-src\Code\eterPythonLib\PythonWindowManagerModule.cpp
;	COMDAT ?wndMgrSetSlotBaseImageScale@@YAPAU_object@@PAU1@0@Z
_TEXT	SEGMENT
_szFileName$ = -32					; size = 4
_fr$ = -28						; size = 4
_fg$ = -24						; size = 4
_fb$ = -20						; size = 4
_fa$ = -16						; size = 4
_scale_x$ = -12						; size = 4
_scale_y$ = -8						; size = 4
_pWin$ = -4						; size = 4
_poSelf$ = 8						; size = 4
_poArgs$ = 12						; size = 4
?wndMgrSetSlotBaseImageScale@@YAPAU_object@@PAU1@0@Z PROC ; wndMgrSetSlotBaseImageScale, COMDAT

; 4203 : {

  00000	55		 push	 ebp
  00001	8b ec		 mov	 ebp, esp
  00003	83 ec 20	 sub	 esp, 32			; 00000020H

; 4204 : 	UI::CWindow* pWin;
; 4205 : 	if (!PyTuple_GetWindow(poArgs, 0, &pWin))

  00006	8d 45 fc	 lea	 eax, DWORD PTR _pWin$[ebp]
  00009	56		 push	 esi
  0000a	8b 75 0c	 mov	 esi, DWORD PTR _poArgs$[ebp]
  0000d	50		 push	 eax
  0000e	6a 00		 push	 0
  00010	56		 push	 esi
  00011	e8 00 00 00 00	 call	 ?PyTuple_GetWindow@@YA_NPAU_object@@HPAPAVCWindow@UI@@@Z ; PyTuple_GetWindow
  00016	83 c4 0c	 add	 esp, 12			; 0000000cH
  00019	84 c0		 test	 al, al
  0001b	75 0f		 jne	 SHORT $LN2@wndMgrSetS
$LN12@wndMgrSetS:

; 4260 : }

  0001d	6a 00		 push	 0
  0001f	e8 00 00 00 00	 call	 ?Py_BuildException@@YAPAU_object@@PBDZZ ; Py_BuildException
  00024	83 c4 04	 add	 esp, 4
  00027	5e		 pop	 esi
  00028	8b e5		 mov	 esp, ebp
  0002a	5d		 pop	 ebp
  0002b	c3		 ret	 0
$LN2@wndMgrSetS:

; 4206 : 	{
; 4207 : 		return Py_BuildException();
; 4208 : 	}
; 4209 : 
; 4210 : 	char* szFileName;
; 4211 : 	if (!PyTuple_GetString(poArgs, 1, &szFileName))

  0002c	8d 45 e0	 lea	 eax, DWORD PTR _szFileName$[ebp]
  0002f	50		 push	 eax
  00030	6a 01		 push	 1
  00032	56		 push	 esi
  00033	e8 00 00 00 00	 call	 ?PyTuple_GetString@@YA_NPAU_object@@HPAPAD@Z ; PyTuple_GetString
  00038	83 c4 0c	 add	 esp, 12			; 0000000cH
  0003b	84 c0		 test	 al, al
  0003d	74 de		 je	 SHORT $LN12@wndMgrSetS

; 4212 : 	{
; 4213 : 		return Py_BuildException();
; 4214 : 	}
; 4215 : 
; 4216 : 	float fr;
; 4217 : 	if (!PyTuple_GetFloat(poArgs, 2, &fr))

  0003f	8d 45 e4	 lea	 eax, DWORD PTR _fr$[ebp]
  00042	50		 push	 eax
  00043	6a 02		 push	 2
  00045	56		 push	 esi
  00046	e8 00 00 00 00	 call	 ?PyTuple_GetFloat@@YA_NPAU_object@@HPAM@Z ; PyTuple_GetFloat
  0004b	83 c4 0c	 add	 esp, 12			; 0000000cH
  0004e	84 c0		 test	 al, al
  00050	74 cb		 je	 SHORT $LN12@wndMgrSetS

; 4218 : 	{
; 4219 : 		return Py_BuildException();
; 4220 : 	}
; 4221 : 
; 4222 : 	float fg;
; 4223 : 	if (!PyTuple_GetFloat(poArgs, 3, &fg))

  00052	8d 45 e8	 lea	 eax, DWORD PTR _fg$[ebp]
  00055	50		 push	 eax
  00056	6a 03		 push	 3
  00058	56		 push	 esi
  00059	e8 00 00 00 00	 call	 ?PyTuple_GetFloat@@YA_NPAU_object@@HPAM@Z ; PyTuple_GetFloat
  0005e	83 c4 0c	 add	 esp, 12			; 0000000cH
  00061	84 c0		 test	 al, al
  00063	74 b8		 je	 SHORT $LN12@wndMgrSetS

; 4224 : 	{
; 4225 : 		return Py_BuildException();
; 4226 : 	}
; 4227 : 
; 4228 : 	float fb;
; 4229 : 	if (!PyTuple_GetFloat(poArgs, 4, &fb))

  00065	8d 45 ec	 lea	 eax, DWORD PTR _fb$[ebp]
  00068	50		 push	 eax
  00069	6a 04		 push	 4
  0006b	56		 push	 esi
  0006c	e8 00 00 00 00	 call	 ?PyTuple_GetFloat@@YA_NPAU_object@@HPAM@Z ; PyTuple_GetFloat
  00071	83 c4 0c	 add	 esp, 12			; 0000000cH
  00074	84 c0		 test	 al, al
  00076	74 a5		 je	 SHORT $LN12@wndMgrSetS

; 4230 : 	{
; 4231 : 		return Py_BuildException();
; 4232 : 	}
; 4233 : 
; 4234 : 	float fa;
; 4235 : 	if (!PyTuple_GetFloat(poArgs, 5, &fa))

  00078	8d 45 f0	 lea	 eax, DWORD PTR _fa$[ebp]
  0007b	50		 push	 eax
  0007c	6a 05		 push	 5
  0007e	56		 push	 esi
  0007f	e8 00 00 00 00	 call	 ?PyTuple_GetFloat@@YA_NPAU_object@@HPAM@Z ; PyTuple_GetFloat
  00084	83 c4 0c	 add	 esp, 12			; 0000000cH
  00087	84 c0		 test	 al, al
  00089	74 92		 je	 SHORT $LN12@wndMgrSetS

; 4236 : 	{
; 4237 : 		return Py_BuildException();
; 4238 : 	}
; 4239 : 
; 4240 : 	float scale_x, scale_y;
; 4241 : 	if (!PyTuple_GetFloat(poArgs, 6, &scale_x))

  0008b	8d 45 f4	 lea	 eax, DWORD PTR _scale_x$[ebp]
  0008e	50		 push	 eax
  0008f	6a 06		 push	 6
  00091	56		 push	 esi
  00092	e8 00 00 00 00	 call	 ?PyTuple_GetFloat@@YA_NPAU_object@@HPAM@Z ; PyTuple_GetFloat
  00097	83 c4 0c	 add	 esp, 12			; 0000000cH
  0009a	84 c0		 test	 al, al
  0009c	0f 84 7b ff ff
	ff		 je	 $LN12@wndMgrSetS

; 4242 : 	{
; 4243 : 		return Py_BuildException();
; 4244 : 	}
; 4245 : 
; 4246 : 	if (!PyTuple_GetFloat(poArgs, 7, &scale_y))

  000a2	8d 45 f8	 lea	 eax, DWORD PTR _scale_y$[ebp]
  000a5	50		 push	 eax
  000a6	6a 07		 push	 7
  000a8	56		 push	 esi
  000a9	e8 00 00 00 00	 call	 ?PyTuple_GetFloat@@YA_NPAU_object@@HPAM@Z ; PyTuple_GetFloat
  000ae	83 c4 0c	 add	 esp, 12			; 0000000cH
  000b1	84 c0		 test	 al, al
  000b3	0f 84 64 ff ff
	ff		 je	 $LN12@wndMgrSetS

; 4247 : 	{
; 4248 : 		return Py_BuildException();
; 4249 : 	}
; 4250 : 
; 4251 : 	if (!pWin->IsType(UI::CSlotWindow::Type()))

  000b9	e8 00 00 00 00	 call	 ?Type@CSlotWindow@UI@@SAKXZ ; UI::CSlotWindow::Type
  000be	8b 75 fc	 mov	 esi, DWORD PTR _pWin$[ebp]
  000c1	8b ce		 mov	 ecx, esi
  000c3	50		 push	 eax
  000c4	e8 00 00 00 00	 call	 ?IsType@CWindow@UI@@QAEHK@Z ; UI::CWindow::IsType
  000c9	85 c0		 test	 eax, eax
  000cb	75 19		 jne	 SHORT $LN10@wndMgrSetS

; 4252 : 	{
; 4253 : 		TraceError("wndMgr.ArrangeSlot:not a slot window");

  000cd	68 00 00 00 00	 push	 OFFSET ??_C@_0CF@BAOIDONM@wndMgr?4ArrangeSlot?3not?5a?5slot?5w@
  000d2	e8 00 00 00 00	 call	 ?TraceError@@YAXPBDZZ	; TraceError

; 4254 : 		return Py_BuildException();

  000d7	6a 00		 push	 0
  000d9	e8 00 00 00 00	 call	 ?Py_BuildException@@YAPAU_object@@PBDZZ ; Py_BuildException
  000de	83 c4 08	 add	 esp, 8
  000e1	5e		 pop	 esi

; 4260 : }

  000e2	8b e5		 mov	 esp, ebp
  000e4	5d		 pop	 ebp
  000e5	c3		 ret	 0
$LN10@wndMgrSetS:

; 4255 : 	}
; 4256 : 
; 4257 : 	UI::CSlotWindow* pSlotWin = (UI::CSlotWindow*)pWin;
; 4258 : 	pSlotWin->SetSlotBaseImageScale(szFileName, fr, fg, fb, fa, scale_x, scale_y);

  000e6	f3 0f 10 45 f8	 movss	 xmm0, DWORD PTR _scale_y$[ebp]
  000eb	83 ec 18	 sub	 esp, 24			; 00000018H
  000ee	8b ce		 mov	 ecx, esi
  000f0	f3 0f 11 44 24
	14		 movss	 DWORD PTR [esp+20], xmm0
  000f6	f3 0f 10 45 f4	 movss	 xmm0, DWORD PTR _scale_x$[ebp]
  000fb	f3 0f 11 44 24
	10		 movss	 DWORD PTR [esp+16], xmm0
  00101	f3 0f 10 45 f0	 movss	 xmm0, DWORD PTR _fa$[ebp]
  00106	f3 0f 11 44 24
	0c		 movss	 DWORD PTR [esp+12], xmm0
  0010c	f3 0f 10 45 ec	 movss	 xmm0, DWORD PTR _fb$[ebp]
  00111	f3 0f 11 44 24
	08		 movss	 DWORD PTR [esp+8], xmm0
  00117	f3 0f 10 45 e8	 movss	 xmm0, DWORD PTR _fg$[ebp]
  0011c	f3 0f 11 44 24
	04		 movss	 DWORD PTR [esp+4], xmm0
  00122	f3 0f 10 45 e4	 movss	 xmm0, DWORD PTR _fr$[ebp]
  00127	f3 0f 11 04 24	 movss	 DWORD PTR [esp], xmm0
  0012c	ff 75 e0	 push	 DWORD PTR _szFileName$[ebp]
  0012f	e8 00 00 00 00	 call	 ?SetSlotBaseImageScale@CSlotWindow@UI@@QAEXPBDMMMMMM@Z ; UI::CSlotWindow::SetSlotBaseImageScale

; 4259 : 	return Py_BuildNone();

  00134	e8 00 00 00 00	 call	 ?Py_BuildNone@@YAPAU_object@@XZ ; Py_BuildNone
  00139	5e		 pop	 esi

; 4260 : }

  0013a	8b e5		 mov	 esp, ebp
  0013c	5d		 pop	 ebp
  0013d	c3		 ret	 0
?wndMgrSetSlotBaseImageScale@@YAPAU_object@@PAU1@0@Z ENDP ; wndMgrSetSlotBaseImageScale
_TEXT	ENDS
; Function compile flags: /Ogtp
; File C:\Users\flourine\Desktop\Xantios\client-src\Code\eterPythonLib\PythonWindowManagerModule.cpp
;	COMDAT ?wndMgrUnlockCursor@@YAPAU_object@@PAU1@0@Z
_TEXT	SEGMENT
_window$ = -4						; size = 4
_poSelf$ = 8						; size = 4
_poArgs$ = 12						; size = 4
?wndMgrUnlockCursor@@YAPAU_object@@PAU1@0@Z PROC	; wndMgrUnlockCursor, COMDAT

; 4189 : {

  00000	55		 push	 ebp
  00001	8b ec		 mov	 ebp, esp
  00003	51		 push	 ecx

; 4190 : 	UI::CWindow* window;
; 4191 : 	if (!PyTuple_GetWindow(poArgs, 0, &window))

  00004	8d 45 fc	 lea	 eax, DWORD PTR _window$[ebp]
  00007	50		 push	 eax
  00008	6a 00		 push	 0
  0000a	ff 75 0c	 push	 DWORD PTR _poArgs$[ebp]
  0000d	e8 00 00 00 00	 call	 ?PyTuple_GetWindow@@YA_NPAU_object@@HPAPAVCWindow@UI@@@Z ; PyTuple_GetWindow
  00012	83 c4 0c	 add	 esp, 12			; 0000000cH
  00015	84 c0		 test	 al, al
  00017	75 09		 jne	 SHORT $LN2@wndMgrUnlo

; 4192 : 	{
; 4193 : 		return Py_BadArgument();

  00019	e8 00 00 00 00	 call	 ?Py_BadArgument@@YAPAU_object@@XZ ; Py_BadArgument

; 4198 : }

  0001e	8b e5		 mov	 esp, ebp
  00020	5d		 pop	 ebp
  00021	c3		 ret	 0
$LN2@wndMgrUnlo:

; 4194 : 	}
; 4195 : 
; 4196 : 	UI::CWindowManager::Instance().UnlockCursor(window);

  00022	ff 75 fc	 push	 DWORD PTR _window$[ebp]
  00025	8b 0d 00 00 00
	00		 mov	 ecx, DWORD PTR ?ms_singleton@?$CSingleton@VCWindowManager@UI@@@@0PAVCWindowManager@UI@@A ; CSingleton<UI::CWindowManager>::ms_singleton
  0002b	e8 00 00 00 00	 call	 ?UnlockCursor@CWindowManager@UI@@QAEXPAVCWindow@2@@Z ; UI::CWindowManager::UnlockCursor

; 4197 : 	return Py_BuildNone();

  00030	e8 00 00 00 00	 call	 ?Py_BuildNone@@YAPAU_object@@XZ ; Py_BuildNone

; 4198 : }

  00035	8b e5		 mov	 esp, ebp
  00037	5d		 pop	 ebp
  00038	c3		 ret	 0
?wndMgrUnlockCursor@@YAPAU_object@@PAU1@0@Z ENDP	; wndMgrUnlockCursor
_TEXT	ENDS
; Function compile flags: /Ogtp
; File C:\Users\flourine\Desktop\Xantios\client-src\Code\eterPythonLib\PythonWindowManagerModule.cpp
;	COMDAT ?wndMgrLockCursor@@YAPAU_object@@PAU1@0@Z
_TEXT	SEGMENT
_window$ = -4						; size = 4
_poSelf$ = 8						; size = 4
_poArgs$ = 12						; size = 4
?wndMgrLockCursor@@YAPAU_object@@PAU1@0@Z PROC		; wndMgrLockCursor, COMDAT

; 4177 : {

  00000	55		 push	 ebp
  00001	8b ec		 mov	 ebp, esp
  00003	51		 push	 ecx

; 4178 : 	UI::CWindow* window;
; 4179 : 	if (!PyTuple_GetWindow(poArgs, 0, &window))

  00004	8d 45 fc	 lea	 eax, DWORD PTR _window$[ebp]
  00007	50		 push	 eax
  00008	6a 00		 push	 0
  0000a	ff 75 0c	 push	 DWORD PTR _poArgs$[ebp]
  0000d	e8 00 00 00 00	 call	 ?PyTuple_GetWindow@@YA_NPAU_object@@HPAPAVCWindow@UI@@@Z ; PyTuple_GetWindow
  00012	83 c4 0c	 add	 esp, 12			; 0000000cH
  00015	84 c0		 test	 al, al
  00017	75 09		 jne	 SHORT $LN2@wndMgrLock

; 4180 : 	{
; 4181 : 		return Py_BadArgument();

  00019	e8 00 00 00 00	 call	 ?Py_BadArgument@@YAPAU_object@@XZ ; Py_BadArgument

; 4186 : }

  0001e	8b e5		 mov	 esp, ebp
  00020	5d		 pop	 ebp
  00021	c3		 ret	 0
$LN2@wndMgrLock:

; 4182 : 	}
; 4183 : 
; 4184 : 	UI::CWindowManager::Instance().LockCursorOnWindow(window);

  00022	ff 75 fc	 push	 DWORD PTR _window$[ebp]
  00025	8b 0d 00 00 00
	00		 mov	 ecx, DWORD PTR ?ms_singleton@?$CSingleton@VCWindowManager@UI@@@@0PAVCWindowManager@UI@@A ; CSingleton<UI::CWindowManager>::ms_singleton
  0002b	e8 00 00 00 00	 call	 ?LockCursorOnWindow@CWindowManager@UI@@QAEXPAVCWindow@2@@Z ; UI::CWindowManager::LockCursorOnWindow

; 4185 : 	return Py_BuildNone();

  00030	e8 00 00 00 00	 call	 ?Py_BuildNone@@YAPAU_object@@XZ ; Py_BuildNone

; 4186 : }

  00035	8b e5		 mov	 esp, ebp
  00037	5d		 pop	 ebp
  00038	c3		 ret	 0
?wndMgrLockCursor@@YAPAU_object@@PAU1@0@Z ENDP		; wndMgrLockCursor
_TEXT	ENDS
; Function compile flags: /Ogtp
; File C:\Users\flourine\Desktop\Xantios\client-src\Code\eterPythonLib\PythonWindowManagerModule.cpp
;	COMDAT ?wndRenderTargetDestroyRender@@YAPAU_object@@PAU1@0@Z
_TEXT	SEGMENT
_window$ = -4						; size = 4
_self$ = 8						; size = 4
_args$ = 12						; size = 4
?wndRenderTargetDestroyRender@@YAPAU_object@@PAU1@0@Z PROC ; wndRenderTargetDestroyRender, COMDAT

; 4162 : {

  00000	55		 push	 ebp
  00001	8b ec		 mov	 ebp, esp
  00003	51		 push	 ecx

; 4163 : 	UI::CWindow* window;
; 4164 : 
; 4165 : 	if (!PyTuple_GetWindow(args, 0, &window))

  00004	8d 45 fc	 lea	 eax, DWORD PTR _window$[ebp]
  00007	50		 push	 eax
  00008	6a 00		 push	 0
  0000a	ff 75 0c	 push	 DWORD PTR _args$[ebp]
  0000d	e8 00 00 00 00	 call	 ?PyTuple_GetWindow@@YA_NPAU_object@@HPAPAVCWindow@UI@@@Z ; PyTuple_GetWindow
  00012	83 c4 0c	 add	 esp, 12			; 0000000cH
  00015	84 c0		 test	 al, al
  00017	75 09		 jne	 SHORT $LN2@wndRenderT

; 4166 : 	{
; 4167 : 		return Py_BadArgument();

  00019	e8 00 00 00 00	 call	 ?Py_BadArgument@@YAPAU_object@@XZ ; Py_BadArgument

; 4174 : }

  0001e	8b e5		 mov	 esp, ebp
  00020	5d		 pop	 ebp
  00021	c3		 ret	 0
$LN2@wndRenderT:

; 4168 : 	}
; 4169 : 
; 4170 : 	auto renderTarget = static_cast<UI::CRenderTarget*>(window);
; 4171 : 	renderTarget->DestroyRender();

  00022	8b 4d fc	 mov	 ecx, DWORD PTR _window$[ebp]
  00025	e8 00 00 00 00	 call	 ?DestroyRender@CRenderTarget@UI@@QAEXXZ ; UI::CRenderTarget::DestroyRender

; 4172 : 
; 4173 : 	return Py_BuildNone();

  0002a	e8 00 00 00 00	 call	 ?Py_BuildNone@@YAPAU_object@@XZ ; Py_BuildNone

; 4174 : }

  0002f	8b e5		 mov	 esp, ebp
  00031	5d		 pop	 ebp
  00032	c3		 ret	 0
?wndRenderTargetDestroyRender@@YAPAU_object@@PAU1@0@Z ENDP ; wndRenderTargetDestroyRender
_TEXT	ENDS
; Function compile flags: /Ogtp
; File C:\Users\flourine\Desktop\Xantios\client-src\Code\eterPythonLib\PythonWindowManagerModule.cpp
;	COMDAT ?wndRenderTargetSetRotationMode@@YAPAU_object@@PAU1@0@Z
_TEXT	SEGMENT
_window$ = -8						; size = 4
_rotation$ = -4						; size = 1
_self$ = 8						; size = 4
_args$ = 12						; size = 4
?wndRenderTargetSetRotationMode@@YAPAU_object@@PAU1@0@Z PROC ; wndRenderTargetSetRotationMode, COMDAT

; 4145 : {

  00000	55		 push	 ebp
  00001	8b ec		 mov	 ebp, esp
  00003	83 ec 08	 sub	 esp, 8

; 4146 : 	UI::CWindow* window;
; 4147 : 	bool rotation;
; 4148 : 
; 4149 : 	if (!PyTuple_GetWindow(args, 0, &window) ||

  00006	8d 45 f8	 lea	 eax, DWORD PTR _window$[ebp]
  00009	50		 push	 eax
  0000a	6a 00		 push	 0
  0000c	ff 75 0c	 push	 DWORD PTR _args$[ebp]
  0000f	e8 00 00 00 00	 call	 ?PyTuple_GetWindow@@YA_NPAU_object@@HPAPAVCWindow@UI@@@Z ; PyTuple_GetWindow
  00014	83 c4 0c	 add	 esp, 12			; 0000000cH
  00017	84 c0		 test	 al, al
  00019	74 29		 je	 SHORT $LN3@wndRenderT
  0001b	8d 45 fc	 lea	 eax, DWORD PTR _rotation$[ebp]
  0001e	50		 push	 eax
  0001f	6a 01		 push	 1
  00021	ff 75 0c	 push	 DWORD PTR _args$[ebp]
  00024	e8 00 00 00 00	 call	 ?PyTuple_GetBoolean@@YA_NPAU_object@@HPA_N@Z ; PyTuple_GetBoolean
  00029	83 c4 0c	 add	 esp, 12			; 0000000cH
  0002c	84 c0		 test	 al, al
  0002e	74 14		 je	 SHORT $LN3@wndRenderT

; 4153 : 	}
; 4154 : 
; 4155 : 	auto renderTarget = static_cast<UI::CRenderTarget*>(window);
; 4156 : 	renderTarget->SetRotationMode(rotation);

  00030	ff 75 fc	 push	 DWORD PTR _rotation$[ebp]
  00033	8b 4d f8	 mov	 ecx, DWORD PTR _window$[ebp]
  00036	e8 00 00 00 00	 call	 ?SetRotationMode@CRenderTarget@UI@@QAEX_N@Z ; UI::CRenderTarget::SetRotationMode

; 4157 : 
; 4158 : 	return Py_BuildNone();

  0003b	e8 00 00 00 00	 call	 ?Py_BuildNone@@YAPAU_object@@XZ ; Py_BuildNone

; 4159 : }

  00040	8b e5		 mov	 esp, ebp
  00042	5d		 pop	 ebp
  00043	c3		 ret	 0
$LN3@wndRenderT:

; 4150 : 			!PyTuple_GetBoolean(args, 1, &rotation))
; 4151 : 	{
; 4152 : 		return Py_BadArgument();

  00044	e8 00 00 00 00	 call	 ?Py_BadArgument@@YAPAU_object@@XZ ; Py_BadArgument

; 4159 : }

  00049	8b e5		 mov	 esp, ebp
  0004b	5d		 pop	 ebp
  0004c	c3		 ret	 0
?wndRenderTargetSetRotationMode@@YAPAU_object@@PAU1@0@Z ENDP ; wndRenderTargetSetRotationMode
_TEXT	ENDS
; Function compile flags: /Ogtp
; File C:\Users\flourine\Desktop\Xantios\client-src\Code\eterPythonLib\PythonWindowManagerModule.cpp
;	COMDAT ?wndRenderTargetGetRotation@@YAPAU_object@@PAU1@0@Z
_TEXT	SEGMENT
_rotation$ = -4						; size = 4
_window$ = -4						; size = 4
_self$ = 8						; size = 4
_args$ = 12						; size = 4
?wndRenderTargetGetRotation@@YAPAU_object@@PAU1@0@Z PROC ; wndRenderTargetGetRotation, COMDAT

; 4130 : {

  00000	55		 push	 ebp
  00001	8b ec		 mov	 ebp, esp
  00003	51		 push	 ecx

; 4131 : 	UI::CWindow* window;
; 4132 : 
; 4133 : 	if (!PyTuple_GetWindow(args, 0, &window))

  00004	8d 45 fc	 lea	 eax, DWORD PTR _window$[ebp]
  00007	50		 push	 eax
  00008	6a 00		 push	 0
  0000a	ff 75 0c	 push	 DWORD PTR _args$[ebp]
  0000d	e8 00 00 00 00	 call	 ?PyTuple_GetWindow@@YA_NPAU_object@@HPAPAVCWindow@UI@@@Z ; PyTuple_GetWindow
  00012	83 c4 0c	 add	 esp, 12			; 0000000cH
  00015	84 c0		 test	 al, al
  00017	75 09		 jne	 SHORT $LN2@wndRenderT

; 4134 : 	{
; 4135 : 		return Py_BadArgument();

  00019	e8 00 00 00 00	 call	 ?Py_BadArgument@@YAPAU_object@@XZ ; Py_BadArgument

; 4142 : }

  0001e	8b e5		 mov	 esp, ebp
  00020	5d		 pop	 ebp
  00021	c3		 ret	 0
$LN2@wndRenderT:

; 4136 : 	}
; 4137 : 
; 4138 : 	auto renderTarget = static_cast<UI::CRenderTarget*>(window);
; 4139 : 	float rotation = renderTarget->GetRotation();

  00022	8b 4d fc	 mov	 ecx, DWORD PTR _window$[ebp]
  00025	e8 00 00 00 00	 call	 ?GetRotation@CRenderTarget@UI@@QAEMXZ ; UI::CRenderTarget::GetRotation
  0002a	d9 5d fc	 fstp	 DWORD PTR _rotation$[ebp]
  0002d	f3 0f 10 45 fc	 movss	 xmm0, DWORD PTR _rotation$[ebp]

; 4140 : 
; 4141 : 	return Py_BuildValue("f", rotation);

  00032	83 ec 08	 sub	 esp, 8
  00035	0f 5a c0	 cvtps2pd xmm0, xmm0
  00038	f2 0f 11 04 24	 movsd	 QWORD PTR [esp], xmm0
  0003d	68 00 00 00 00	 push	 OFFSET ??_C@_01INIBCBCB@f@
  00042	ff 15 00 00 00
	00		 call	 DWORD PTR __imp__Py_BuildValue
  00048	83 c4 0c	 add	 esp, 12			; 0000000cH

; 4142 : }

  0004b	8b e5		 mov	 esp, ebp
  0004d	5d		 pop	 ebp
  0004e	c3		 ret	 0
?wndRenderTargetGetRotation@@YAPAU_object@@PAU1@0@Z ENDP ; wndRenderTargetGetRotation
_TEXT	ENDS
; Function compile flags: /Ogtp
; File C:\Users\flourine\Desktop\Xantios\client-src\Code\eterPythonLib\PythonWindowManagerModule.cpp
;	COMDAT ?wndRenderTargetSetRotation@@YAPAU_object@@PAU1@0@Z
_TEXT	SEGMENT
_window$ = -8						; size = 4
_rotation$ = -4						; size = 4
_self$ = 8						; size = 4
_args$ = 12						; size = 4
?wndRenderTargetSetRotation@@YAPAU_object@@PAU1@0@Z PROC ; wndRenderTargetSetRotation, COMDAT

; 4113 : {

  00000	55		 push	 ebp
  00001	8b ec		 mov	 ebp, esp
  00003	83 ec 08	 sub	 esp, 8

; 4114 : 	UI::CWindow* window;
; 4115 : 	float rotation;
; 4116 : 
; 4117 : 	if (!PyTuple_GetWindow(args, 0, &window) ||

  00006	8d 45 f8	 lea	 eax, DWORD PTR _window$[ebp]
  00009	50		 push	 eax
  0000a	6a 00		 push	 0
  0000c	ff 75 0c	 push	 DWORD PTR _args$[ebp]
  0000f	e8 00 00 00 00	 call	 ?PyTuple_GetWindow@@YA_NPAU_object@@HPAPAVCWindow@UI@@@Z ; PyTuple_GetWindow
  00014	83 c4 0c	 add	 esp, 12			; 0000000cH
  00017	84 c0		 test	 al, al
  00019	74 31		 je	 SHORT $LN3@wndRenderT
  0001b	8d 45 fc	 lea	 eax, DWORD PTR _rotation$[ebp]
  0001e	50		 push	 eax
  0001f	6a 01		 push	 1
  00021	ff 75 0c	 push	 DWORD PTR _args$[ebp]
  00024	e8 00 00 00 00	 call	 ?PyTuple_GetFloat@@YA_NPAU_object@@HPAM@Z ; PyTuple_GetFloat
  00029	83 c4 0c	 add	 esp, 12			; 0000000cH
  0002c	84 c0		 test	 al, al
  0002e	74 1c		 je	 SHORT $LN3@wndRenderT

; 4121 : 	}
; 4122 : 
; 4123 : 	auto renderTarget = static_cast<UI::CRenderTarget*>(window);
; 4124 : 	renderTarget->SetRotation(rotation);

  00030	f3 0f 10 45 fc	 movss	 xmm0, DWORD PTR _rotation$[ebp]
  00035	51		 push	 ecx
  00036	8b 4d f8	 mov	 ecx, DWORD PTR _window$[ebp]
  00039	f3 0f 11 04 24	 movss	 DWORD PTR [esp], xmm0
  0003e	e8 00 00 00 00	 call	 ?SetRotation@CRenderTarget@UI@@QAEXM@Z ; UI::CRenderTarget::SetRotation

; 4125 : 
; 4126 : 	return Py_BuildNone();

  00043	e8 00 00 00 00	 call	 ?Py_BuildNone@@YAPAU_object@@XZ ; Py_BuildNone

; 4127 : }

  00048	8b e5		 mov	 esp, ebp
  0004a	5d		 pop	 ebp
  0004b	c3		 ret	 0
$LN3@wndRenderT:

; 4118 : 			!PyTuple_GetFloat(args, 1, &rotation))
; 4119 : 	{
; 4120 : 		return Py_BadArgument();

  0004c	e8 00 00 00 00	 call	 ?Py_BadArgument@@YAPAU_object@@XZ ; Py_BadArgument

; 4127 : }

  00051	8b e5		 mov	 esp, ebp
  00053	5d		 pop	 ebp
  00054	c3		 ret	 0
?wndRenderTargetSetRotation@@YAPAU_object@@PAU1@0@Z ENDP ; wndRenderTargetSetRotation
_TEXT	ENDS
; Function compile flags: /Ogtp
; File C:\Users\flourine\Desktop\Xantios\client-src\Code\eterPythonLib\PythonWindowManagerModule.cpp
;	COMDAT ?wndRenderTargetGetLightPosition@@YAPAU_object@@PAU1@0@Z
_TEXT	SEGMENT
_window$ = -4						; size = 4
_self$ = 8						; size = 4
_args$ = 12						; size = 4
?wndRenderTargetGetLightPosition@@YAPAU_object@@PAU1@0@Z PROC ; wndRenderTargetGetLightPosition, COMDAT

; 4098 : {

  00000	55		 push	 ebp
  00001	8b ec		 mov	 ebp, esp
  00003	51		 push	 ecx

; 4099 : 	UI::CWindow* window;
; 4100 : 
; 4101 : 	if (!PyTuple_GetWindow(args, 0, &window))

  00004	8d 45 fc	 lea	 eax, DWORD PTR _window$[ebp]
  00007	50		 push	 eax
  00008	6a 00		 push	 0
  0000a	ff 75 0c	 push	 DWORD PTR _args$[ebp]
  0000d	e8 00 00 00 00	 call	 ?PyTuple_GetWindow@@YA_NPAU_object@@HPAPAVCWindow@UI@@@Z ; PyTuple_GetWindow
  00012	83 c4 0c	 add	 esp, 12			; 0000000cH
  00015	84 c0		 test	 al, al
  00017	75 09		 jne	 SHORT $LN2@wndRenderT

; 4102 : 	{
; 4103 : 		return Py_BadArgument();

  00019	e8 00 00 00 00	 call	 ?Py_BadArgument@@YAPAU_object@@XZ ; Py_BadArgument

; 4110 : }

  0001e	8b e5		 mov	 esp, ebp
  00020	5d		 pop	 ebp
  00021	c3		 ret	 0
$LN2@wndRenderT:

; 4104 : 	}
; 4105 : 
; 4106 : 	auto renderTarget = static_cast<UI::CRenderTarget*>(window);
; 4107 : 	auto& position = renderTarget->GetLightPosition();

  00022	8b 4d fc	 mov	 ecx, DWORD PTR _window$[ebp]
  00025	e8 00 00 00 00	 call	 ?GetLightPosition@CRenderTarget@UI@@QBEABUD3DXVECTOR3@@XZ ; UI::CRenderTarget::GetLightPosition

; 4108 : 
; 4109 : 	return Py_BuildValue("fff", position.x, position.y, position.z);

  0002a	83 ec 18	 sub	 esp, 24			; 00000018H
  0002d	f3 0f 10 40 08	 movss	 xmm0, DWORD PTR [eax+8]
  00032	0f 5a c0	 cvtps2pd xmm0, xmm0
  00035	f2 0f 11 44 24
	10		 movsd	 QWORD PTR [esp+16], xmm0
  0003b	f3 0f 10 40 04	 movss	 xmm0, DWORD PTR [eax+4]
  00040	0f 5a c0	 cvtps2pd xmm0, xmm0
  00043	f2 0f 11 44 24
	08		 movsd	 QWORD PTR [esp+8], xmm0
  00049	f3 0f 10 00	 movss	 xmm0, DWORD PTR [eax]
  0004d	0f 5a c0	 cvtps2pd xmm0, xmm0
  00050	f2 0f 11 04 24	 movsd	 QWORD PTR [esp], xmm0
  00055	68 00 00 00 00	 push	 OFFSET ??_C@_03LPALPDIP@fff@
  0005a	ff 15 00 00 00
	00		 call	 DWORD PTR __imp__Py_BuildValue
  00060	83 c4 1c	 add	 esp, 28			; 0000001cH

; 4110 : }

  00063	8b e5		 mov	 esp, ebp
  00065	5d		 pop	 ebp
  00066	c3		 ret	 0
?wndRenderTargetGetLightPosition@@YAPAU_object@@PAU1@0@Z ENDP ; wndRenderTargetGetLightPosition
_TEXT	ENDS
; Function compile flags: /Ogtp
; File C:\Users\flourine\Desktop\Xantios\client-src\Code\eterPythonLib\PythonWindowManagerModule.cpp
; File C:\Users\flourine\Desktop\Xantios\client-src\extern\include\directX\d3dx9math.inl
; File C:\Users\flourine\Desktop\Xantios\client-src\Code\eterPythonLib\PythonWindowManagerModule.cpp
; File C:\Users\flourine\Desktop\Xantios\client-src\extern\include\directX\d3dx9math.inl
; File C:\Users\flourine\Desktop\Xantios\client-src\Code\eterPythonLib\PythonWindowManagerModule.cpp
; File C:\Users\flourine\Desktop\Xantios\client-src\extern\include\directX\d3dx9math.inl
; File C:\Users\flourine\Desktop\Xantios\client-src\Code\eterPythonLib\PythonWindowManagerModule.cpp
; File C:\Users\flourine\Desktop\Xantios\client-src\extern\include\directX\d3dx9math.inl
; File C:\Users\flourine\Desktop\Xantios\client-src\Code\eterPythonLib\PythonWindowManagerModule.cpp
;	COMDAT ?wndRenderTargetSetLightPosition@@YAPAU_object@@PAU1@0@Z
_TEXT	SEGMENT
$T1 = -28						; size = 12
_window$ = -16						; size = 4
_z$ = -12						; size = 4
_y$ = -8						; size = 4
_x$ = -4						; size = 4
_self$ = 8						; size = 4
_args$ = 12						; size = 4
?wndRenderTargetSetLightPosition@@YAPAU_object@@PAU1@0@Z PROC ; wndRenderTargetSetLightPosition, COMDAT

; 4079 : {

  00000	55		 push	 ebp
  00001	8b ec		 mov	 ebp, esp
  00003	83 ec 1c	 sub	 esp, 28			; 0000001cH

; 4080 : 	UI::CWindow* window;
; 4081 : 	float x, y, z;
; 4082 : 
; 4083 : 	if (!PyTuple_GetWindow(args, 0, &window) ||
; 4084 : 			!PyTuple_GetFloat(args, 1, &x) ||
; 4085 : 			!PyTuple_GetFloat(args, 2, &y) ||

  00006	8d 45 f0	 lea	 eax, DWORD PTR _window$[ebp]
  00009	56		 push	 esi
  0000a	8b 75 0c	 mov	 esi, DWORD PTR _args$[ebp]
  0000d	50		 push	 eax
  0000e	6a 00		 push	 0
  00010	56		 push	 esi
  00011	e8 00 00 00 00	 call	 ?PyTuple_GetWindow@@YA_NPAU_object@@HPAPAVCWindow@UI@@@Z ; PyTuple_GetWindow
  00016	83 c4 0c	 add	 esp, 12			; 0000000cH
  00019	84 c0		 test	 al, al
  0001b	74 71		 je	 SHORT $LN3@wndRenderT
  0001d	8d 45 fc	 lea	 eax, DWORD PTR _x$[ebp]
  00020	50		 push	 eax
  00021	6a 01		 push	 1
  00023	56		 push	 esi
  00024	e8 00 00 00 00	 call	 ?PyTuple_GetFloat@@YA_NPAU_object@@HPAM@Z ; PyTuple_GetFloat
  00029	83 c4 0c	 add	 esp, 12			; 0000000cH
  0002c	84 c0		 test	 al, al
  0002e	74 5e		 je	 SHORT $LN3@wndRenderT
  00030	8d 45 f8	 lea	 eax, DWORD PTR _y$[ebp]
  00033	50		 push	 eax
  00034	6a 02		 push	 2
  00036	56		 push	 esi
  00037	e8 00 00 00 00	 call	 ?PyTuple_GetFloat@@YA_NPAU_object@@HPAM@Z ; PyTuple_GetFloat
  0003c	83 c4 0c	 add	 esp, 12			; 0000000cH
  0003f	84 c0		 test	 al, al
  00041	74 4b		 je	 SHORT $LN3@wndRenderT
  00043	8d 45 f4	 lea	 eax, DWORD PTR _z$[ebp]
  00046	50		 push	 eax
  00047	6a 03		 push	 3
  00049	56		 push	 esi
  0004a	e8 00 00 00 00	 call	 ?PyTuple_GetFloat@@YA_NPAU_object@@HPAM@Z ; PyTuple_GetFloat
  0004f	83 c4 0c	 add	 esp, 12			; 0000000cH
  00052	84 c0		 test	 al, al
  00054	74 38		 je	 SHORT $LN3@wndRenderT
; File C:\Users\flourine\Desktop\Xantios\client-src\extern\include\directX\d3dx9math.inl

; 304  :     x = fx;

  00056	f3 0f 10 55 fc	 movss	 xmm2, DWORD PTR _x$[ebp]
; File C:\Users\flourine\Desktop\Xantios\client-src\Code\eterPythonLib\PythonWindowManagerModule.cpp

; 4092 : 	renderTarget->SetLightPosition(D3DXVECTOR3(x, y, z));

  0005b	83 ec 0c	 sub	 esp, 12			; 0000000cH
; File C:\Users\flourine\Desktop\Xantios\client-src\extern\include\directX\d3dx9math.inl

; 305  :     y = fy;

  0005e	f3 0f 10 4d f8	 movss	 xmm1, DWORD PTR _y$[ebp]
; File C:\Users\flourine\Desktop\Xantios\client-src\Code\eterPythonLib\PythonWindowManagerModule.cpp

; 4092 : 	renderTarget->SetLightPosition(D3DXVECTOR3(x, y, z));

  00063	8b cc		 mov	 ecx, esp
; File C:\Users\flourine\Desktop\Xantios\client-src\extern\include\directX\d3dx9math.inl

; 306  :     z = fz;

  00065	f3 0f 10 45 f4	 movss	 xmm0, DWORD PTR _z$[ebp]
; File C:\Users\flourine\Desktop\Xantios\client-src\Code\eterPythonLib\PythonWindowManagerModule.cpp

; 4092 : 	renderTarget->SetLightPosition(D3DXVECTOR3(x, y, z));

  0006a	0f 14 d1	 unpcklps xmm2, xmm1
; File C:\Users\flourine\Desktop\Xantios\client-src\extern\include\directX\d3dx9math.inl

; 306  :     z = fz;

  0006d	f3 0f 11 45 ec	 movss	 DWORD PTR $T1[ebp+8], xmm0
; File C:\Users\flourine\Desktop\Xantios\client-src\Code\eterPythonLib\PythonWindowManagerModule.cpp

; 4092 : 	renderTarget->SetLightPosition(D3DXVECTOR3(x, y, z));

  00072	8b 45 ec	 mov	 eax, DWORD PTR $T1[ebp+8]
  00075	66 0f d6 11	 movq	 QWORD PTR [ecx], xmm2
  00079	89 41 08	 mov	 DWORD PTR [ecx+8], eax
  0007c	8b 4d f0	 mov	 ecx, DWORD PTR _window$[ebp]
  0007f	e8 00 00 00 00	 call	 ?SetLightPosition@CRenderTarget@UI@@QAEXUD3DXVECTOR3@@@Z ; UI::CRenderTarget::SetLightPosition

; 4093 : 
; 4094 : 	return Py_BuildNone();

  00084	e8 00 00 00 00	 call	 ?Py_BuildNone@@YAPAU_object@@XZ ; Py_BuildNone

; 4095 : }

  00089	5e		 pop	 esi
  0008a	8b e5		 mov	 esp, ebp
  0008c	5d		 pop	 ebp
  0008d	c3		 ret	 0
$LN3@wndRenderT:

; 4086 : 			!PyTuple_GetFloat(args, 3, &z))
; 4087 : 	{
; 4088 : 		return Py_BadArgument();

  0008e	e8 00 00 00 00	 call	 ?Py_BadArgument@@YAPAU_object@@XZ ; Py_BadArgument

; 4095 : }

  00093	5e		 pop	 esi
  00094	8b e5		 mov	 esp, ebp
  00096	5d		 pop	 ebp
  00097	c3		 ret	 0
?wndRenderTargetSetLightPosition@@YAPAU_object@@PAU1@0@Z ENDP ; wndRenderTargetSetLightPosition
_TEXT	ENDS
; Function compile flags: /Ogtp
; File C:\Users\flourine\Desktop\Xantios\client-src\Code\eterPythonLib\PythonWindowManagerModule.cpp
;	COMDAT ?wndRenderTargetGetRenderDistance@@YAPAU_object@@PAU1@0@Z
_TEXT	SEGMENT
_rotation$ = -4						; size = 4
_window$ = -4						; size = 4
_self$ = 8						; size = 4
_args$ = 12						; size = 4
?wndRenderTargetGetRenderDistance@@YAPAU_object@@PAU1@0@Z PROC ; wndRenderTargetGetRenderDistance, COMDAT

; 4064 : {

  00000	55		 push	 ebp
  00001	8b ec		 mov	 ebp, esp
  00003	51		 push	 ecx

; 4065 : 	UI::CWindow* window;
; 4066 : 
; 4067 : 	if (!PyTuple_GetWindow(args, 0, &window))

  00004	8d 45 fc	 lea	 eax, DWORD PTR _window$[ebp]
  00007	50		 push	 eax
  00008	6a 00		 push	 0
  0000a	ff 75 0c	 push	 DWORD PTR _args$[ebp]
  0000d	e8 00 00 00 00	 call	 ?PyTuple_GetWindow@@YA_NPAU_object@@HPAPAVCWindow@UI@@@Z ; PyTuple_GetWindow
  00012	83 c4 0c	 add	 esp, 12			; 0000000cH
  00015	84 c0		 test	 al, al
  00017	75 09		 jne	 SHORT $LN2@wndRenderT

; 4068 : 	{
; 4069 : 		return Py_BadArgument();

  00019	e8 00 00 00 00	 call	 ?Py_BadArgument@@YAPAU_object@@XZ ; Py_BadArgument

; 4076 : }

  0001e	8b e5		 mov	 esp, ebp
  00020	5d		 pop	 ebp
  00021	c3		 ret	 0
$LN2@wndRenderT:

; 4070 : 	}
; 4071 : 
; 4072 : 	auto renderTarget = static_cast<UI::CRenderTarget*>(window);
; 4073 : 	float rotation = renderTarget->GetRenderDistance();

  00022	8b 4d fc	 mov	 ecx, DWORD PTR _window$[ebp]
  00025	e8 00 00 00 00	 call	 ?GetRenderDistance@CRenderTarget@UI@@QAEMXZ ; UI::CRenderTarget::GetRenderDistance
  0002a	d9 5d fc	 fstp	 DWORD PTR _rotation$[ebp]
  0002d	f3 0f 10 45 fc	 movss	 xmm0, DWORD PTR _rotation$[ebp]

; 4074 : 
; 4075 : 	return Py_BuildValue("f", rotation);

  00032	83 ec 08	 sub	 esp, 8
  00035	0f 5a c0	 cvtps2pd xmm0, xmm0
  00038	f2 0f 11 04 24	 movsd	 QWORD PTR [esp], xmm0
  0003d	68 00 00 00 00	 push	 OFFSET ??_C@_01INIBCBCB@f@
  00042	ff 15 00 00 00
	00		 call	 DWORD PTR __imp__Py_BuildValue
  00048	83 c4 0c	 add	 esp, 12			; 0000000cH

; 4076 : }

  0004b	8b e5		 mov	 esp, ebp
  0004d	5d		 pop	 ebp
  0004e	c3		 ret	 0
?wndRenderTargetGetRenderDistance@@YAPAU_object@@PAU1@0@Z ENDP ; wndRenderTargetGetRenderDistance
_TEXT	ENDS
; Function compile flags: /Ogtp
; File C:\Users\flourine\Desktop\Xantios\client-src\Code\eterPythonLib\PythonWindowManagerModule.cpp
;	COMDAT ?wndRenderTargetSetRenderDistance@@YAPAU_object@@PAU1@0@Z
_TEXT	SEGMENT
_window$ = -8						; size = 4
_distance$ = -4						; size = 4
_self$ = 8						; size = 4
_args$ = 12						; size = 4
?wndRenderTargetSetRenderDistance@@YAPAU_object@@PAU1@0@Z PROC ; wndRenderTargetSetRenderDistance, COMDAT

; 4047 : {

  00000	55		 push	 ebp
  00001	8b ec		 mov	 ebp, esp
  00003	83 ec 08	 sub	 esp, 8

; 4048 : 	UI::CWindow* window;
; 4049 : 	float distance;
; 4050 : 
; 4051 : 	if (!PyTuple_GetWindow(args, 0, &window) ||

  00006	8d 45 f8	 lea	 eax, DWORD PTR _window$[ebp]
  00009	50		 push	 eax
  0000a	6a 00		 push	 0
  0000c	ff 75 0c	 push	 DWORD PTR _args$[ebp]
  0000f	e8 00 00 00 00	 call	 ?PyTuple_GetWindow@@YA_NPAU_object@@HPAPAVCWindow@UI@@@Z ; PyTuple_GetWindow
  00014	83 c4 0c	 add	 esp, 12			; 0000000cH
  00017	84 c0		 test	 al, al
  00019	74 31		 je	 SHORT $LN3@wndRenderT
  0001b	8d 45 fc	 lea	 eax, DWORD PTR _distance$[ebp]
  0001e	50		 push	 eax
  0001f	6a 01		 push	 1
  00021	ff 75 0c	 push	 DWORD PTR _args$[ebp]
  00024	e8 00 00 00 00	 call	 ?PyTuple_GetFloat@@YA_NPAU_object@@HPAM@Z ; PyTuple_GetFloat
  00029	83 c4 0c	 add	 esp, 12			; 0000000cH
  0002c	84 c0		 test	 al, al
  0002e	74 1c		 je	 SHORT $LN3@wndRenderT

; 4055 : 	}
; 4056 : 
; 4057 : 	auto renderTarget = static_cast<UI::CRenderTarget*>(window);
; 4058 : 	renderTarget->SetRenderDistance(distance);

  00030	f3 0f 10 45 fc	 movss	 xmm0, DWORD PTR _distance$[ebp]
  00035	51		 push	 ecx
  00036	8b 4d f8	 mov	 ecx, DWORD PTR _window$[ebp]
  00039	f3 0f 11 04 24	 movss	 DWORD PTR [esp], xmm0
  0003e	e8 00 00 00 00	 call	 ?SetRenderDistance@CRenderTarget@UI@@QAEXM@Z ; UI::CRenderTarget::SetRenderDistance

; 4059 : 
; 4060 : 	return Py_BuildNone();

  00043	e8 00 00 00 00	 call	 ?Py_BuildNone@@YAPAU_object@@XZ ; Py_BuildNone

; 4061 : }

  00048	8b e5		 mov	 esp, ebp
  0004a	5d		 pop	 ebp
  0004b	c3		 ret	 0
$LN3@wndRenderT:

; 4052 : 			!PyTuple_GetFloat(args, 1, &distance))
; 4053 : 	{
; 4054 : 		return Py_BadArgument();

  0004c	e8 00 00 00 00	 call	 ?Py_BadArgument@@YAPAU_object@@XZ ; Py_BadArgument

; 4061 : }

  00051	8b e5		 mov	 esp, ebp
  00053	5d		 pop	 ebp
  00054	c3		 ret	 0
?wndRenderTargetSetRenderDistance@@YAPAU_object@@PAU1@0@Z ENDP ; wndRenderTargetSetRenderDistance
_TEXT	ENDS
; Function compile flags: /Ogtp
; File C:\Users\flourine\Desktop\Xantios\client-src\Code\eterPythonLib\PythonWindowManagerModule.cpp
;	COMDAT ?wndRenderTargetSetRendererMotion@@YAPAU_object@@PAU1@0@Z
_TEXT	SEGMENT
_window$ = -8						; size = 4
_vnum$ = -4						; size = 4
_self$ = 8						; size = 4
_args$ = 12						; size = 4
?wndRenderTargetSetRendererMotion@@YAPAU_object@@PAU1@0@Z PROC ; wndRenderTargetSetRendererMotion, COMDAT

; 4030 : {

  00000	55		 push	 ebp
  00001	8b ec		 mov	 ebp, esp
  00003	83 ec 08	 sub	 esp, 8

; 4031 : 	UI::CWindow* window;
; 4032 : 	int32_t vnum;
; 4033 : 
; 4034 : 	if (!PyTuple_GetWindow(args, 0, &window) ||

  00006	8d 45 f8	 lea	 eax, DWORD PTR _window$[ebp]
  00009	50		 push	 eax
  0000a	6a 00		 push	 0
  0000c	ff 75 0c	 push	 DWORD PTR _args$[ebp]
  0000f	e8 00 00 00 00	 call	 ?PyTuple_GetWindow@@YA_NPAU_object@@HPAPAVCWindow@UI@@@Z ; PyTuple_GetWindow
  00014	83 c4 0c	 add	 esp, 12			; 0000000cH
  00017	84 c0		 test	 al, al
  00019	74 29		 je	 SHORT $LN3@wndRenderT
  0001b	8d 45 fc	 lea	 eax, DWORD PTR _vnum$[ebp]
  0001e	50		 push	 eax
  0001f	6a 01		 push	 1
  00021	ff 75 0c	 push	 DWORD PTR _args$[ebp]
  00024	e8 00 00 00 00	 call	 ?PyTuple_GetInteger@@YA_NPAU_object@@HPAH@Z ; PyTuple_GetInteger
  00029	83 c4 0c	 add	 esp, 12			; 0000000cH
  0002c	84 c0		 test	 al, al
  0002e	74 14		 je	 SHORT $LN3@wndRenderT

; 4038 : 	}
; 4039 : 
; 4040 : 	auto renderTarget = static_cast<UI::CRenderTarget*>(window);
; 4041 : 	renderTarget->SetRendererMotion(vnum);

  00030	ff 75 fc	 push	 DWORD PTR _vnum$[ebp]
  00033	8b 4d f8	 mov	 ecx, DWORD PTR _window$[ebp]
  00036	e8 00 00 00 00	 call	 ?SetRendererMotion@CRenderTarget@UI@@QAEXI@Z ; UI::CRenderTarget::SetRendererMotion

; 4042 : 
; 4043 : 	return Py_BuildNone();

  0003b	e8 00 00 00 00	 call	 ?Py_BuildNone@@YAPAU_object@@XZ ; Py_BuildNone

; 4044 : }

  00040	8b e5		 mov	 esp, ebp
  00042	5d		 pop	 ebp
  00043	c3		 ret	 0
$LN3@wndRenderT:

; 4035 : 		!PyTuple_GetInteger(args, 1, &vnum))
; 4036 : 	{
; 4037 : 		return Py_BadArgument();

  00044	e8 00 00 00 00	 call	 ?Py_BadArgument@@YAPAU_object@@XZ ; Py_BadArgument

; 4044 : }

  00049	8b e5		 mov	 esp, ebp
  0004b	5d		 pop	 ebp
  0004c	c3		 ret	 0
?wndRenderTargetSetRendererMotion@@YAPAU_object@@PAU1@0@Z ENDP ; wndRenderTargetSetRendererMotion
_TEXT	ENDS
; Function compile flags: /Ogtp
; File C:\Users\flourine\Desktop\Xantios\client-src\Code\eterPythonLib\PythonWindowManagerModule.cpp
;	COMDAT ?wndRenderTargetSetRenderSash@@YAPAU_object@@PAU1@0@Z
_TEXT	SEGMENT
_window$ = -8						; size = 4
_vnum$ = -4						; size = 4
_self$ = 8						; size = 4
_args$ = 12						; size = 4
?wndRenderTargetSetRenderSash@@YAPAU_object@@PAU1@0@Z PROC ; wndRenderTargetSetRenderSash, COMDAT

; 3986 : {

  00000	55		 push	 ebp
  00001	8b ec		 mov	 ebp, esp
  00003	83 ec 08	 sub	 esp, 8

; 3987 : 	UI::CWindow* window;
; 3988 : 	int32_t vnum;
; 3989 : 
; 3990 : 	if (!PyTuple_GetWindow(args, 0, &window) ||

  00006	8d 45 f8	 lea	 eax, DWORD PTR _window$[ebp]
  00009	50		 push	 eax
  0000a	6a 00		 push	 0
  0000c	ff 75 0c	 push	 DWORD PTR _args$[ebp]
  0000f	e8 00 00 00 00	 call	 ?PyTuple_GetWindow@@YA_NPAU_object@@HPAPAVCWindow@UI@@@Z ; PyTuple_GetWindow
  00014	83 c4 0c	 add	 esp, 12			; 0000000cH
  00017	84 c0		 test	 al, al
  00019	74 29		 je	 SHORT $LN3@wndRenderT
  0001b	8d 45 fc	 lea	 eax, DWORD PTR _vnum$[ebp]
  0001e	50		 push	 eax
  0001f	6a 01		 push	 1
  00021	ff 75 0c	 push	 DWORD PTR _args$[ebp]
  00024	e8 00 00 00 00	 call	 ?PyTuple_GetInteger@@YA_NPAU_object@@HPAH@Z ; PyTuple_GetInteger
  00029	83 c4 0c	 add	 esp, 12			; 0000000cH
  0002c	84 c0		 test	 al, al
  0002e	74 14		 je	 SHORT $LN3@wndRenderT

; 3994 : 	}
; 3995 : 
; 3996 : 	auto renderTarget = static_cast<UI::CRenderTarget*>(window);
; 3997 : 	renderTarget->SetRenderSash(vnum);

  00030	ff 75 fc	 push	 DWORD PTR _vnum$[ebp]
  00033	8b 4d f8	 mov	 ecx, DWORD PTR _window$[ebp]
  00036	e8 00 00 00 00	 call	 ?SetRenderSash@CRenderTarget@UI@@QAEXI@Z ; UI::CRenderTarget::SetRenderSash

; 3998 : 
; 3999 : 	return Py_BuildNone();

  0003b	e8 00 00 00 00	 call	 ?Py_BuildNone@@YAPAU_object@@XZ ; Py_BuildNone

; 4000 : }

  00040	8b e5		 mov	 esp, ebp
  00042	5d		 pop	 ebp
  00043	c3		 ret	 0
$LN3@wndRenderT:

; 3991 : 			!PyTuple_GetInteger(args, 1, &vnum))
; 3992 : 	{
; 3993 : 		return Py_BadArgument();

  00044	e8 00 00 00 00	 call	 ?Py_BadArgument@@YAPAU_object@@XZ ; Py_BadArgument

; 4000 : }

  00049	8b e5		 mov	 esp, ebp
  0004b	5d		 pop	 ebp
  0004c	c3		 ret	 0
?wndRenderTargetSetRenderSash@@YAPAU_object@@PAU1@0@Z ENDP ; wndRenderTargetSetRenderSash
_TEXT	ENDS
; Function compile flags: /Ogtp
; File C:\Users\flourine\Desktop\Xantios\client-src\Code\eterPythonLib\PythonWindowManagerModule.cpp
;	COMDAT ?wndRenderTargetSetRenderWeapon@@YAPAU_object@@PAU1@0@Z
_TEXT	SEGMENT
_window$ = -8						; size = 4
_vnum$ = -4						; size = 4
_self$ = 8						; size = 4
_args$ = 12						; size = 4
?wndRenderTargetSetRenderWeapon@@YAPAU_object@@PAU1@0@Z PROC ; wndRenderTargetSetRenderWeapon, COMDAT

; 3968 : {

  00000	55		 push	 ebp
  00001	8b ec		 mov	 ebp, esp
  00003	83 ec 08	 sub	 esp, 8

; 3969 : 	UI::CWindow* window;
; 3970 : 	int32_t vnum;
; 3971 : 
; 3972 : 	if (!PyTuple_GetWindow(args, 0, &window) ||

  00006	8d 45 f8	 lea	 eax, DWORD PTR _window$[ebp]
  00009	50		 push	 eax
  0000a	6a 00		 push	 0
  0000c	ff 75 0c	 push	 DWORD PTR _args$[ebp]
  0000f	e8 00 00 00 00	 call	 ?PyTuple_GetWindow@@YA_NPAU_object@@HPAPAVCWindow@UI@@@Z ; PyTuple_GetWindow
  00014	83 c4 0c	 add	 esp, 12			; 0000000cH
  00017	84 c0		 test	 al, al
  00019	74 29		 je	 SHORT $LN3@wndRenderT
  0001b	8d 45 fc	 lea	 eax, DWORD PTR _vnum$[ebp]
  0001e	50		 push	 eax
  0001f	6a 01		 push	 1
  00021	ff 75 0c	 push	 DWORD PTR _args$[ebp]
  00024	e8 00 00 00 00	 call	 ?PyTuple_GetInteger@@YA_NPAU_object@@HPAH@Z ; PyTuple_GetInteger
  00029	83 c4 0c	 add	 esp, 12			; 0000000cH
  0002c	84 c0		 test	 al, al
  0002e	74 14		 je	 SHORT $LN3@wndRenderT

; 3976 : 	}
; 3977 : 
; 3978 : 	auto renderTarget = static_cast<UI::CRenderTarget*>(window);
; 3979 : 	renderTarget->SetRenderWeapon(vnum);

  00030	ff 75 fc	 push	 DWORD PTR _vnum$[ebp]
  00033	8b 4d f8	 mov	 ecx, DWORD PTR _window$[ebp]
  00036	e8 00 00 00 00	 call	 ?SetRenderWeapon@CRenderTarget@UI@@QAEXI@Z ; UI::CRenderTarget::SetRenderWeapon

; 3980 : 
; 3981 : 	return Py_BuildNone();

  0003b	e8 00 00 00 00	 call	 ?Py_BuildNone@@YAPAU_object@@XZ ; Py_BuildNone

; 3982 : }

  00040	8b e5		 mov	 esp, ebp
  00042	5d		 pop	 ebp
  00043	c3		 ret	 0
$LN3@wndRenderT:

; 3973 : 			!PyTuple_GetInteger(args, 1, &vnum))
; 3974 : 	{
; 3975 : 		return Py_BadArgument();

  00044	e8 00 00 00 00	 call	 ?Py_BadArgument@@YAPAU_object@@XZ ; Py_BadArgument

; 3982 : }

  00049	8b e5		 mov	 esp, ebp
  0004b	5d		 pop	 ebp
  0004c	c3		 ret	 0
?wndRenderTargetSetRenderWeapon@@YAPAU_object@@PAU1@0@Z ENDP ; wndRenderTargetSetRenderWeapon
_TEXT	ENDS
; Function compile flags: /Ogtp
; File C:\Users\flourine\Desktop\Xantios\client-src\Code\eterPythonLib\PythonWindowManagerModule.cpp
;	COMDAT ?wndRenderTargetSetRenderArmor@@YAPAU_object@@PAU1@0@Z
_TEXT	SEGMENT
_window$ = -8						; size = 4
_vnum$ = -4						; size = 4
_self$ = 8						; size = 4
_args$ = 12						; size = 4
?wndRenderTargetSetRenderArmor@@YAPAU_object@@PAU1@0@Z PROC ; wndRenderTargetSetRenderArmor, COMDAT

; 3951 : {

  00000	55		 push	 ebp
  00001	8b ec		 mov	 ebp, esp
  00003	83 ec 08	 sub	 esp, 8

; 3952 : 	UI::CWindow* window;
; 3953 : 	int32_t vnum;
; 3954 : 
; 3955 : 	if (!PyTuple_GetWindow(args, 0, &window) ||

  00006	8d 45 f8	 lea	 eax, DWORD PTR _window$[ebp]
  00009	50		 push	 eax
  0000a	6a 00		 push	 0
  0000c	ff 75 0c	 push	 DWORD PTR _args$[ebp]
  0000f	e8 00 00 00 00	 call	 ?PyTuple_GetWindow@@YA_NPAU_object@@HPAPAVCWindow@UI@@@Z ; PyTuple_GetWindow
  00014	83 c4 0c	 add	 esp, 12			; 0000000cH
  00017	84 c0		 test	 al, al
  00019	74 29		 je	 SHORT $LN3@wndRenderT
  0001b	8d 45 fc	 lea	 eax, DWORD PTR _vnum$[ebp]
  0001e	50		 push	 eax
  0001f	6a 01		 push	 1
  00021	ff 75 0c	 push	 DWORD PTR _args$[ebp]
  00024	e8 00 00 00 00	 call	 ?PyTuple_GetInteger@@YA_NPAU_object@@HPAH@Z ; PyTuple_GetInteger
  00029	83 c4 0c	 add	 esp, 12			; 0000000cH
  0002c	84 c0		 test	 al, al
  0002e	74 14		 je	 SHORT $LN3@wndRenderT

; 3959 : 	}
; 3960 : 
; 3961 : 	auto renderTarget = static_cast<UI::CRenderTarget*>(window);
; 3962 : 	renderTarget->SetRenderArmor(vnum);

  00030	ff 75 fc	 push	 DWORD PTR _vnum$[ebp]
  00033	8b 4d f8	 mov	 ecx, DWORD PTR _window$[ebp]
  00036	e8 00 00 00 00	 call	 ?SetRenderArmor@CRenderTarget@UI@@QAEXI@Z ; UI::CRenderTarget::SetRenderArmor

; 3963 : 
; 3964 : 	return Py_BuildNone();

  0003b	e8 00 00 00 00	 call	 ?Py_BuildNone@@YAPAU_object@@XZ ; Py_BuildNone

; 3965 : }

  00040	8b e5		 mov	 esp, ebp
  00042	5d		 pop	 ebp
  00043	c3		 ret	 0
$LN3@wndRenderT:

; 3956 : 			!PyTuple_GetInteger(args, 1, &vnum))
; 3957 : 	{
; 3958 : 		return Py_BadArgument();

  00044	e8 00 00 00 00	 call	 ?Py_BadArgument@@YAPAU_object@@XZ ; Py_BadArgument

; 3965 : }

  00049	8b e5		 mov	 esp, ebp
  0004b	5d		 pop	 ebp
  0004c	c3		 ret	 0
?wndRenderTargetSetRenderArmor@@YAPAU_object@@PAU1@0@Z ENDP ; wndRenderTargetSetRenderArmor
_TEXT	ENDS
; Function compile flags: /Ogtp
; File C:\Users\flourine\Desktop\Xantios\client-src\Code\eterPythonLib\PythonWindowManagerModule.cpp
;	COMDAT ?wndRenderTargetSetRenderHair@@YAPAU_object@@PAU1@0@Z
_TEXT	SEGMENT
_window$ = -8						; size = 4
_vnum$ = -4						; size = 4
_self$ = 8						; size = 4
_args$ = 12						; size = 4
?wndRenderTargetSetRenderHair@@YAPAU_object@@PAU1@0@Z PROC ; wndRenderTargetSetRenderHair, COMDAT

; 3934 : {

  00000	55		 push	 ebp
  00001	8b ec		 mov	 ebp, esp
  00003	83 ec 08	 sub	 esp, 8

; 3935 : 	UI::CWindow* window;
; 3936 : 	int32_t vnum;
; 3937 : 
; 3938 : 	if (!PyTuple_GetWindow(args, 0, &window) ||

  00006	8d 45 f8	 lea	 eax, DWORD PTR _window$[ebp]
  00009	50		 push	 eax
  0000a	6a 00		 push	 0
  0000c	ff 75 0c	 push	 DWORD PTR _args$[ebp]
  0000f	e8 00 00 00 00	 call	 ?PyTuple_GetWindow@@YA_NPAU_object@@HPAPAVCWindow@UI@@@Z ; PyTuple_GetWindow
  00014	83 c4 0c	 add	 esp, 12			; 0000000cH
  00017	84 c0		 test	 al, al
  00019	74 29		 je	 SHORT $LN3@wndRenderT
  0001b	8d 45 fc	 lea	 eax, DWORD PTR _vnum$[ebp]
  0001e	50		 push	 eax
  0001f	6a 01		 push	 1
  00021	ff 75 0c	 push	 DWORD PTR _args$[ebp]
  00024	e8 00 00 00 00	 call	 ?PyTuple_GetInteger@@YA_NPAU_object@@HPAH@Z ; PyTuple_GetInteger
  00029	83 c4 0c	 add	 esp, 12			; 0000000cH
  0002c	84 c0		 test	 al, al
  0002e	74 14		 je	 SHORT $LN3@wndRenderT

; 3942 : 	}
; 3943 : 
; 3944 : 	auto renderTarget = static_cast<UI::CRenderTarget*>(window);
; 3945 : 	renderTarget->SetRenderHair(vnum);

  00030	ff 75 fc	 push	 DWORD PTR _vnum$[ebp]
  00033	8b 4d f8	 mov	 ecx, DWORD PTR _window$[ebp]
  00036	e8 00 00 00 00	 call	 ?SetRenderHair@CRenderTarget@UI@@QAEXI@Z ; UI::CRenderTarget::SetRenderHair

; 3946 : 
; 3947 : 	return Py_BuildNone();

  0003b	e8 00 00 00 00	 call	 ?Py_BuildNone@@YAPAU_object@@XZ ; Py_BuildNone

; 3948 : }

  00040	8b e5		 mov	 esp, ebp
  00042	5d		 pop	 ebp
  00043	c3		 ret	 0
$LN3@wndRenderT:

; 3939 : 			!PyTuple_GetInteger(args, 1, &vnum))
; 3940 : 	{
; 3941 : 		return Py_BadArgument();

  00044	e8 00 00 00 00	 call	 ?Py_BadArgument@@YAPAU_object@@XZ ; Py_BadArgument

; 3948 : }

  00049	8b e5		 mov	 esp, ebp
  0004b	5d		 pop	 ebp
  0004c	c3		 ret	 0
?wndRenderTargetSetRenderHair@@YAPAU_object@@PAU1@0@Z ENDP ; wndRenderTargetSetRenderHair
_TEXT	ENDS
; Function compile flags: /Ogtp
; File C:\Users\flourine\Desktop\Xantios\client-src\Code\eterPythonLib\PythonWindowManagerModule.cpp
;	COMDAT ?wndRenderTargetSetRenderTarget@@YAPAU_object@@PAU1@0@Z
_TEXT	SEGMENT
_window$ = -8						; size = 4
_race$ = -4						; size = 4
_self$ = 8						; size = 4
_args$ = 12						; size = 4
?wndRenderTargetSetRenderTarget@@YAPAU_object@@PAU1@0@Z PROC ; wndRenderTargetSetRenderTarget, COMDAT

; 3917 : {

  00000	55		 push	 ebp
  00001	8b ec		 mov	 ebp, esp
  00003	83 ec 08	 sub	 esp, 8

; 3918 : 	UI::CWindow* window;
; 3919 : 	int32_t race;
; 3920 : 
; 3921 : 	if (!PyTuple_GetWindow(args, 0, &window) ||

  00006	8d 45 f8	 lea	 eax, DWORD PTR _window$[ebp]
  00009	50		 push	 eax
  0000a	6a 00		 push	 0
  0000c	ff 75 0c	 push	 DWORD PTR _args$[ebp]
  0000f	e8 00 00 00 00	 call	 ?PyTuple_GetWindow@@YA_NPAU_object@@HPAPAVCWindow@UI@@@Z ; PyTuple_GetWindow
  00014	83 c4 0c	 add	 esp, 12			; 0000000cH
  00017	84 c0		 test	 al, al
  00019	74 29		 je	 SHORT $LN3@wndRenderT
  0001b	8d 45 fc	 lea	 eax, DWORD PTR _race$[ebp]
  0001e	50		 push	 eax
  0001f	6a 01		 push	 1
  00021	ff 75 0c	 push	 DWORD PTR _args$[ebp]
  00024	e8 00 00 00 00	 call	 ?PyTuple_GetInteger@@YA_NPAU_object@@HPAH@Z ; PyTuple_GetInteger
  00029	83 c4 0c	 add	 esp, 12			; 0000000cH
  0002c	84 c0		 test	 al, al
  0002e	74 14		 je	 SHORT $LN3@wndRenderT

; 3925 : 	}
; 3926 : 
; 3927 : 	auto renderTarget = static_cast<UI::CRenderTarget*>(window);
; 3928 : 	renderTarget->SetRenderTarget(race);

  00030	ff 75 fc	 push	 DWORD PTR _race$[ebp]
  00033	8b 4d f8	 mov	 ecx, DWORD PTR _window$[ebp]
  00036	e8 00 00 00 00	 call	 ?SetRenderTarget@CRenderTarget@UI@@QAEXI@Z ; UI::CRenderTarget::SetRenderTarget

; 3929 : 
; 3930 : 	return Py_BuildNone();

  0003b	e8 00 00 00 00	 call	 ?Py_BuildNone@@YAPAU_object@@XZ ; Py_BuildNone

; 3931 : }

  00040	8b e5		 mov	 esp, ebp
  00042	5d		 pop	 ebp
  00043	c3		 ret	 0
$LN3@wndRenderT:

; 3922 : 			!PyTuple_GetInteger(args, 1, &race))
; 3923 : 	{
; 3924 : 		return Py_BadArgument();

  00044	e8 00 00 00 00	 call	 ?Py_BadArgument@@YAPAU_object@@XZ ; Py_BadArgument

; 3931 : }

  00049	8b e5		 mov	 esp, ebp
  0004b	5d		 pop	 ebp
  0004c	c3		 ret	 0
?wndRenderTargetSetRenderTarget@@YAPAU_object@@PAU1@0@Z ENDP ; wndRenderTargetSetRenderTarget
_TEXT	ENDS
; Function compile flags: /Ogtp
; File C:\Users\flourine\Desktop\Xantios\client-src\Code\eterPythonLib\PythonWindowManagerModule.cpp
;	COMDAT ?wndRenderTargetLoadImage@@YAPAU_object@@PAU1@0@Z
_TEXT	SEGMENT
_window$ = -8						; size = 4
_fileName$ = -4						; size = 4
_self$ = 8						; size = 4
_args$ = 12						; size = 4
?wndRenderTargetLoadImage@@YAPAU_object@@PAU1@0@Z PROC	; wndRenderTargetLoadImage, COMDAT

; 3896 : {

  00000	55		 push	 ebp
  00001	8b ec		 mov	 ebp, esp
  00003	83 ec 08	 sub	 esp, 8

; 3897 : 	UI::CWindow* window;
; 3898 : 	char* fileName;
; 3899 : 
; 3900 : 	if (!PyTuple_GetWindow(args, 0, &window) ||

  00006	8d 45 f8	 lea	 eax, DWORD PTR _window$[ebp]
  00009	50		 push	 eax
  0000a	6a 00		 push	 0
  0000c	ff 75 0c	 push	 DWORD PTR _args$[ebp]
  0000f	e8 00 00 00 00	 call	 ?PyTuple_GetWindow@@YA_NPAU_object@@HPAPAVCWindow@UI@@@Z ; PyTuple_GetWindow
  00014	83 c4 0c	 add	 esp, 12			; 0000000cH
  00017	84 c0		 test	 al, al
  00019	74 34		 je	 SHORT $LN3@wndRenderT
  0001b	8d 45 fc	 lea	 eax, DWORD PTR _fileName$[ebp]
  0001e	50		 push	 eax
  0001f	6a 01		 push	 1
  00021	ff 75 0c	 push	 DWORD PTR _args$[ebp]
  00024	e8 00 00 00 00	 call	 ?PyTuple_GetString@@YA_NPAU_object@@HPAPAD@Z ; PyTuple_GetString
  00029	83 c4 0c	 add	 esp, 12			; 0000000cH
  0002c	84 c0		 test	 al, al
  0002e	74 1f		 je	 SHORT $LN3@wndRenderT

; 3901 : 			!PyTuple_GetString(args, 1, &fileName))
; 3902 : 	{
; 3903 : 		return Py_BadArgument();
; 3904 : 	}
; 3905 : 
; 3906 : 	auto renderTarget = static_cast<UI::CRenderTarget*>(window);
; 3907 : 	if (!renderTarget->LoadImage(fileName))

  00030	ff 75 fc	 push	 DWORD PTR _fileName$[ebp]
  00033	8b 4d f8	 mov	 ecx, DWORD PTR _window$[ebp]
  00036	e8 00 00 00 00	 call	 ?LoadImageA@CImageBox@UI@@QAEHPBD@Z ; UI::CImageBox::LoadImageA
  0003b	85 c0		 test	 eax, eax
  0003d	75 19		 jne	 SHORT $LN4@wndRenderT

; 3908 : 	{
; 3909 : 		TraceError("Failed to load image: %s", fileName);

  0003f	ff 75 fc	 push	 DWORD PTR _fileName$[ebp]
  00042	68 00 00 00 00	 push	 OFFSET ??_C@_0BJ@DFGPKJEH@Failed?5to?5load?5image?3?5?$CFs@
  00047	e8 00 00 00 00	 call	 ?TraceError@@YAXPBDZZ	; TraceError
  0004c	83 c4 08	 add	 esp, 8
$LN3@wndRenderT:

; 3914 : }

  0004f	e8 00 00 00 00	 call	 ?Py_BadArgument@@YAPAU_object@@XZ ; Py_BadArgument
  00054	8b e5		 mov	 esp, ebp
  00056	5d		 pop	 ebp
  00057	c3		 ret	 0
$LN4@wndRenderT:

; 3910 : 		return Py_BadArgument();
; 3911 : 	}
; 3912 : 
; 3913 : 	return Py_BuildNone();

  00058	e8 00 00 00 00	 call	 ?Py_BuildNone@@YAPAU_object@@XZ ; Py_BuildNone

; 3914 : }

  0005d	8b e5		 mov	 esp, ebp
  0005f	5d		 pop	 ebp
  00060	c3		 ret	 0
?wndRenderTargetLoadImage@@YAPAU_object@@PAU1@0@Z ENDP	; wndRenderTargetLoadImage
_TEXT	ENDS
; Function compile flags: /Ogtp
; File C:\Users\flourine\Desktop\Xantios\client-src\Code\eterPythonLib\PythonWindowManagerModule.cpp
;	COMDAT ?wndMgrRegisterRenderTarget@@YAPAU_object@@PAU1@0@Z
_TEXT	SEGMENT
_po$ = -8						; size = 4
_layer$ = -4						; size = 4
_poSelf$ = 8						; size = 4
_poArgs$ = 12						; size = 4
?wndMgrRegisterRenderTarget@@YAPAU_object@@PAU1@0@Z PROC ; wndMgrRegisterRenderTarget, COMDAT

; 3881 : {

  00000	55		 push	 ebp
  00001	8b ec		 mov	 ebp, esp
  00003	83 ec 08	 sub	 esp, 8

; 3882 : 	PyObject* po;
; 3883 : 	char* layer;
; 3884 : 
; 3885 : 	if (!PyTuple_GetObject(poArgs, 0, &po) ||

  00006	8d 45 f8	 lea	 eax, DWORD PTR _po$[ebp]
  00009	50		 push	 eax
  0000a	6a 00		 push	 0
  0000c	ff 75 0c	 push	 DWORD PTR _poArgs$[ebp]
  0000f	e8 00 00 00 00	 call	 ?PyTuple_GetObject@@YA_NPAU_object@@HPAPAU1@@Z ; PyTuple_GetObject
  00014	83 c4 0c	 add	 esp, 12			; 0000000cH
  00017	84 c0		 test	 al, al
  00019	74 39		 je	 SHORT $LN3@wndMgrRegi
  0001b	8d 45 fc	 lea	 eax, DWORD PTR _layer$[ebp]
  0001e	50		 push	 eax
  0001f	6a 01		 push	 1
  00021	ff 75 0c	 push	 DWORD PTR _poArgs$[ebp]
  00024	e8 00 00 00 00	 call	 ?PyTuple_GetString@@YA_NPAU_object@@HPAPAD@Z ; PyTuple_GetString
  00029	83 c4 0c	 add	 esp, 12			; 0000000cH
  0002c	84 c0		 test	 al, al
  0002e	74 24		 je	 SHORT $LN3@wndMgrRegi

; 3889 : 	}
; 3890 : 
; 3891 : 	auto pWindow = UI::CWindowManager::Instance().RegisterRenderTarget(po, layer);

  00030	ff 75 fc	 push	 DWORD PTR _layer$[ebp]
  00033	8b 0d 00 00 00
	00		 mov	 ecx, DWORD PTR ?ms_singleton@?$CSingleton@VCWindowManager@UI@@@@0PAVCWindowManager@UI@@A ; CSingleton<UI::CWindowManager>::ms_singleton
  00039	ff 75 f8	 push	 DWORD PTR _po$[ebp]
  0003c	e8 00 00 00 00	 call	 ?RegisterRenderTarget@CWindowManager@UI@@QAEPAVCWindow@2@PAU_object@@PBD@Z ; UI::CWindowManager::RegisterRenderTarget

; 3892 : 	return Py_BuildValue("i", pWindow);

  00041	50		 push	 eax
  00042	68 00 00 00 00	 push	 OFFSET ??_C@_01KBJDNOO@i@
  00047	ff 15 00 00 00
	00		 call	 DWORD PTR __imp__Py_BuildValue
  0004d	83 c4 08	 add	 esp, 8

; 3893 : }

  00050	8b e5		 mov	 esp, ebp
  00052	5d		 pop	 ebp
  00053	c3		 ret	 0
$LN3@wndMgrRegi:

; 3886 : 			!PyTuple_GetString(poArgs, 1, &layer))
; 3887 : 	{
; 3888 : 		return Py_BadArgument();

  00054	e8 00 00 00 00	 call	 ?Py_BadArgument@@YAPAU_object@@XZ ; Py_BadArgument

; 3893 : }

  00059	8b e5		 mov	 esp, ebp
  0005b	5d		 pop	 ebp
  0005c	c3		 ret	 0
?wndMgrRegisterRenderTarget@@YAPAU_object@@PAU1@0@Z ENDP ; wndMgrRegisterRenderTarget
_TEXT	ENDS
; Function compile flags: /Ogtp
; File C:\Users\flourine\Desktop\Xantios\client-src\Code\eterPythonLib\PythonWindowManagerModule.cpp
; File C:\Users\flourine\Desktop\Xantios\client-src\Code\eterPythonLib\PythonWindow.h
; File C:\Users\flourine\Desktop\Xantios\client-src\Code\eterPythonLib\PythonWindowManagerModule.cpp
;	COMDAT ?wndImageUnloadImage@@YAPAU_object@@PAU1@0@Z
_TEXT	SEGMENT
_pWindow$ = -4						; size = 4
_poSelf$ = 8						; size = 4
_poArgs$ = 12						; size = 4
?wndImageUnloadImage@@YAPAU_object@@PAU1@0@Z PROC	; wndImageUnloadImage, COMDAT

; 3866 : {

  00000	55		 push	 ebp
  00001	8b ec		 mov	 ebp, esp
  00003	51		 push	 ecx

; 3867 : 	UI::CWindow* pWindow;
; 3868 : 	if (!PyTuple_GetWindow(poArgs, 0, &pWindow))

  00004	8d 45 fc	 lea	 eax, DWORD PTR _pWindow$[ebp]
  00007	50		 push	 eax
  00008	6a 00		 push	 0
  0000a	ff 75 0c	 push	 DWORD PTR _poArgs$[ebp]
  0000d	e8 00 00 00 00	 call	 ?PyTuple_GetWindow@@YA_NPAU_object@@HPAPAVCWindow@UI@@@Z ; PyTuple_GetWindow
  00012	83 c4 0c	 add	 esp, 12			; 0000000cH
  00015	84 c0		 test	 al, al
  00017	75 0e		 jne	 SHORT $LN2@wndImageUn

; 3869 : 	{
; 3870 : 		return Py_BuildException();

  00019	6a 00		 push	 0
  0001b	e8 00 00 00 00	 call	 ?Py_BuildException@@YAPAU_object@@PBDZZ ; Py_BuildException
  00020	83 c4 04	 add	 esp, 4

; 3875 : }

  00023	8b e5		 mov	 esp, ebp
  00025	5d		 pop	 ebp
  00026	c3		 ret	 0
$LN2@wndImageUn:
  00027	56		 push	 esi
  00028	57		 push	 edi
; File C:\Users\flourine\Desktop\Xantios\client-src\Code\eterPythonLib\PythonWindow.h

; 500  : 		OnDestroyInstance();

  00029	8b 7d fc	 mov	 edi, DWORD PTR _pWindow$[ebp]
  0002c	8b cf		 mov	 ecx, edi
  0002e	8b 07		 mov	 eax, DWORD PTR [edi]
  00030	ff 90 c8 00 00
	00		 call	 DWORD PTR [eax+200]

; 501  : 		SetSize(GetWidth(), GetHeight());

  00036	8b cf		 mov	 ecx, edi
  00038	e8 00 00 00 00	 call	 ?GetHeight@CImageBox@UI@@QAEHXZ ; UI::CImageBox::GetHeight
  0003d	8b cf		 mov	 ecx, edi
  0003f	8b f0		 mov	 esi, eax
  00041	e8 00 00 00 00	 call	 ?GetWidth@CImageBox@UI@@QAEHXZ ; UI::CImageBox::GetWidth
  00046	56		 push	 esi
  00047	50		 push	 eax
  00048	8b cf		 mov	 ecx, edi
  0004a	e8 00 00 00 00	 call	 ?SetSize@CWindow@UI@@QAEXJJ@Z ; UI::CWindow::SetSize

; 502  : 		UpdateRect();

  0004f	8b cf		 mov	 ecx, edi
  00051	e8 00 00 00 00	 call	 ?UpdateRect@CWindow@UI@@QAEJXZ ; UI::CWindow::UpdateRect
; File C:\Users\flourine\Desktop\Xantios\client-src\Code\eterPythonLib\PythonWindowManagerModule.cpp

; 3874 : 	return Py_BuildNone();

  00056	e8 00 00 00 00	 call	 ?Py_BuildNone@@YAPAU_object@@XZ ; Py_BuildNone
  0005b	5f		 pop	 edi
  0005c	5e		 pop	 esi

; 3875 : }

  0005d	8b e5		 mov	 esp, ebp
  0005f	5d		 pop	 ebp
  00060	c3		 ret	 0
?wndImageUnloadImage@@YAPAU_object@@PAU1@0@Z ENDP	; wndImageUnloadImage
_TEXT	ENDS
; Function compile flags: /Ogtp
; File C:\Users\flourine\Desktop\Xantios\client-src\Code\eterPythonLib\PythonWindowManagerModule.cpp
; File C:\Users\flourine\Desktop\Xantios\client-src\Code\eterPythonLib\PythonWindow.h
; File C:\Users\flourine\Desktop\Xantios\client-src\Code\eterlib\GrpTextInstance.h
; File C:\Users\flourine\Desktop\Xantios\client-src\Code\eterPythonLib\PythonWindowManagerModule.cpp
;	COMDAT ?wndTextGetRenderPos@@YAPAU_object@@PAU1@0@Z
_TEXT	SEGMENT
_pWindow$ = -4						; size = 4
_poSelf$ = 8						; size = 4
_poArgs$ = 12						; size = 4
?wndTextGetRenderPos@@YAPAU_object@@PAU1@0@Z PROC	; wndTextGetRenderPos, COMDAT

; 3853 : {

  00000	55		 push	 ebp
  00001	8b ec		 mov	 ebp, esp
  00003	51		 push	 ecx

; 3854 : 	UI::CWindow* pWindow;
; 3855 : 	if (!PyTuple_GetWindow(poArgs, 0, &pWindow))

  00004	8d 45 fc	 lea	 eax, DWORD PTR _pWindow$[ebp]
  00007	50		 push	 eax
  00008	6a 00		 push	 0
  0000a	ff 75 0c	 push	 DWORD PTR _poArgs$[ebp]
  0000d	e8 00 00 00 00	 call	 ?PyTuple_GetWindow@@YA_NPAU_object@@HPAPAVCWindow@UI@@@Z ; PyTuple_GetWindow
  00012	83 c4 0c	 add	 esp, 12			; 0000000cH
  00015	84 c0		 test	 al, al
  00017	75 0e		 jne	 SHORT $LN2@wndTextGet

; 3856 : 	{
; 3857 : 		return Py_BuildException();

  00019	6a 00		 push	 0
  0001b	e8 00 00 00 00	 call	 ?Py_BuildException@@YAPAU_object@@PBDZZ ; Py_BuildException
  00020	83 c4 04	 add	 esp, 4

; 3863 : }

  00023	8b e5		 mov	 esp, ebp
  00025	5d		 pop	 ebp
  00026	c3		 ret	 0
$LN2@wndTextGet:
; File C:\Users\flourine\Desktop\Xantios\client-src\Code\eterPythonLib\PythonWindow.h

; 402  : 	void GetRenderPositions(WORD& startPos, WORD& endPos) { m_TextInstance.GetRenderPositions(startPos, endPos); }

  00027	8b 45 fc	 mov	 eax, DWORD PTR _pWindow$[ebp]
; File C:\Users\flourine\Desktop\Xantios\client-src\Code\eterlib\GrpTextInstance.h

; 45   : 	void GetRenderPositions(WORD& startPos, WORD& endPos) { startPos = m_startPos; endPos = m_endPos; }

  0002a	0f b7 88 42 01
	00 00		 movzx	 ecx, WORD PTR [eax+322]
  00031	0f b7 80 44 01
	00 00		 movzx	 eax, WORD PTR [eax+324]
; File C:\Users\flourine\Desktop\Xantios\client-src\Code\eterPythonLib\PythonWindowManagerModule.cpp

; 3862 : 	return Py_BuildValue("ii", startPos, endPos);

  00038	50		 push	 eax
  00039	51		 push	 ecx
  0003a	68 00 00 00 00	 push	 OFFSET ??_C@_02PDIHAGKM@ii@
  0003f	ff 15 00 00 00
	00		 call	 DWORD PTR __imp__Py_BuildValue
  00045	83 c4 0c	 add	 esp, 12			; 0000000cH

; 3863 : }

  00048	8b e5		 mov	 esp, ebp
  0004a	5d		 pop	 ebp
  0004b	c3		 ret	 0
?wndTextGetRenderPos@@YAPAU_object@@PAU1@0@Z ENDP	; wndTextGetRenderPos
_TEXT	ENDS
; Function compile flags: /Ogtp
; File C:\Users\flourine\Desktop\Xantios\client-src\Code\eterPythonLib\PythonWindowManagerModule.cpp
; File C:\Users\flourine\Desktop\Xantios\client-src\Code\eterPythonLib\PythonWindow.h
; File C:\Users\flourine\Desktop\Xantios\client-src\Code\eterPythonLib\PythonWindowManagerModule.cpp
; File C:\Users\flourine\Desktop\Xantios\client-src\Code\eterlib\GrpTextInstance.h
; File C:\Users\flourine\Desktop\Xantios\client-src\Code\eterPythonLib\PythonWindowManagerModule.cpp
;	COMDAT ?wndTextSetFixedRenderPos@@YAPAU_object@@PAU1@0@Z
_TEXT	SEGMENT
_startPos$ = -12					; size = 4
_pWindow$ = -8						; size = 4
_endPos$ = -4						; size = 4
_poSelf$ = 8						; size = 4
_poArgs$ = 12						; size = 4
?wndTextSetFixedRenderPos@@YAPAU_object@@PAU1@0@Z PROC	; wndTextSetFixedRenderPos, COMDAT

; 3832 : {

  00000	55		 push	 ebp
  00001	8b ec		 mov	 ebp, esp
  00003	83 ec 0c	 sub	 esp, 12			; 0000000cH

; 3833 : 	UI::CWindow* pWindow;
; 3834 : 	if (!PyTuple_GetWindow(poArgs, 0, &pWindow))

  00006	8d 45 f8	 lea	 eax, DWORD PTR _pWindow$[ebp]
  00009	56		 push	 esi
  0000a	8b 75 0c	 mov	 esi, DWORD PTR _poArgs$[ebp]
  0000d	50		 push	 eax
  0000e	6a 00		 push	 0
  00010	56		 push	 esi
  00011	e8 00 00 00 00	 call	 ?PyTuple_GetWindow@@YA_NPAU_object@@HPAPAVCWindow@UI@@@Z ; PyTuple_GetWindow
  00016	83 c4 0c	 add	 esp, 12			; 0000000cH
  00019	84 c0		 test	 al, al
  0001b	75 0f		 jne	 SHORT $LN2@wndTextSet
$LN10@wndTextSet:

; 3850 : }

  0001d	6a 00		 push	 0
  0001f	e8 00 00 00 00	 call	 ?Py_BuildException@@YAPAU_object@@PBDZZ ; Py_BuildException
  00024	83 c4 04	 add	 esp, 4
  00027	5e		 pop	 esi
  00028	8b e5		 mov	 esp, ebp
  0002a	5d		 pop	 ebp
  0002b	c3		 ret	 0
$LN2@wndTextSet:

; 3835 : 	{
; 3836 : 		return Py_BuildException();
; 3837 : 	}
; 3838 : 	int startPos, endPos;
; 3839 : 	if (!PyTuple_GetInteger(poArgs, 1, &startPos))

  0002c	8d 45 f4	 lea	 eax, DWORD PTR _startPos$[ebp]
  0002f	50		 push	 eax
  00030	6a 01		 push	 1
  00032	56		 push	 esi
  00033	e8 00 00 00 00	 call	 ?PyTuple_GetInteger@@YA_NPAU_object@@HPAH@Z ; PyTuple_GetInteger
  00038	83 c4 0c	 add	 esp, 12			; 0000000cH
  0003b	84 c0		 test	 al, al
  0003d	74 de		 je	 SHORT $LN10@wndTextSet

; 3840 : 	{
; 3841 : 		return Py_BuildException();
; 3842 : 	}
; 3843 : 	if (!PyTuple_GetInteger(poArgs, 2, &endPos))

  0003f	8d 45 fc	 lea	 eax, DWORD PTR _endPos$[ebp]
  00042	50		 push	 eax
  00043	6a 02		 push	 2
  00045	56		 push	 esi
  00046	e8 00 00 00 00	 call	 ?PyTuple_GetInteger@@YA_NPAU_object@@HPAH@Z ; PyTuple_GetInteger
  0004b	83 c4 0c	 add	 esp, 12			; 0000000cH
  0004e	84 c0		 test	 al, al
  00050	74 cb		 je	 SHORT $LN10@wndTextSet
; File C:\Users\flourine\Desktop\Xantios\client-src\Code\eterPythonLib\PythonWindow.h

; 401  : 	void SetFixedRenderPos(WORD startPos, WORD endPos) { m_TextInstance.SetFixedRenderPos(startPos, endPos); }

  00052	8b 55 f8	 mov	 edx, DWORD PTR _pWindow$[ebp]
; File C:\Users\flourine\Desktop\Xantios\client-src\Code\eterPythonLib\PythonWindowManagerModule.cpp

; 3848 : 	((UI::CTextLine*)pWindow)->SetFixedRenderPos(startPos, endPos);

  00055	0f b7 4d fc	 movzx	 ecx, WORD PTR _endPos$[ebp]
; File C:\Users\flourine\Desktop\Xantios\client-src\Code\eterlib\GrpTextInstance.h

; 44   : 	void SetFixedRenderPos(WORD startPos, WORD endPos) { m_startPos = startPos; m_endPos = endPos; m_isFixedRenderPos = true; }

  00059	66 8b 45 f4	 mov	 ax, WORD PTR _startPos$[ebp]
  0005d	66 89 82 42 01
	00 00		 mov	 WORD PTR [edx+322], ax
  00064	66 89 8a 44 01
	00 00		 mov	 WORD PTR [edx+324], cx
  0006b	c6 82 46 01 00
	00 01		 mov	 BYTE PTR [edx+326], 1
; File C:\Users\flourine\Desktop\Xantios\client-src\Code\eterPythonLib\PythonWindowManagerModule.cpp

; 3849 : 	return Py_BuildNone();

  00072	e8 00 00 00 00	 call	 ?Py_BuildNone@@YAPAU_object@@XZ ; Py_BuildNone
  00077	5e		 pop	 esi

; 3850 : }

  00078	8b e5		 mov	 esp, ebp
  0007a	5d		 pop	 ebp
  0007b	c3		 ret	 0
?wndTextSetFixedRenderPos@@YAPAU_object@@PAU1@0@Z ENDP	; wndTextSetFixedRenderPos
_TEXT	ENDS
; Function compile flags: /Ogtp
; File C:\Users\flourine\Desktop\Xantios\client-src\Code\eterPythonLib\PythonWindowManagerModule.cpp
;	COMDAT ?wndMgrSetWikiRenderTarget@@YAPAU_object@@PAU1@0@Z
_TEXT	SEGMENT
_pWin$ = -8						; size = 4
_renderWindow$ = -4					; size = 4
_poSelf$ = 8						; size = 4
_poArgs$ = 12						; size = 4
?wndMgrSetWikiRenderTarget@@YAPAU_object@@PAU1@0@Z PROC	; wndMgrSetWikiRenderTarget, COMDAT

; 3814 : {

  00000	55		 push	 ebp
  00001	8b ec		 mov	 ebp, esp
  00003	83 ec 08	 sub	 esp, 8

; 3815 : 	UI::CWindow* pWin;
; 3816 : 	if (!PyTuple_GetWindow(poArgs, 0, &pWin))

  00006	8d 45 f8	 lea	 eax, DWORD PTR _pWin$[ebp]
  00009	50		 push	 eax
  0000a	6a 00		 push	 0
  0000c	ff 75 0c	 push	 DWORD PTR _poArgs$[ebp]
  0000f	e8 00 00 00 00	 call	 ?PyTuple_GetWindow@@YA_NPAU_object@@HPAPAVCWindow@UI@@@Z ; PyTuple_GetWindow
  00014	83 c4 0c	 add	 esp, 12			; 0000000cH
  00017	84 c0		 test	 al, al
  00019	75 0e		 jne	 SHORT $LN2@wndMgrSetW
$LN5@wndMgrSetW:

; 3829 : }

  0001b	6a 00		 push	 0
  0001d	e8 00 00 00 00	 call	 ?Py_BuildException@@YAPAU_object@@PBDZZ ; Py_BuildException
  00022	83 c4 04	 add	 esp, 4
  00025	8b e5		 mov	 esp, ebp
  00027	5d		 pop	 ebp
  00028	c3		 ret	 0
$LN2@wndMgrSetW:

; 3817 : 	{
; 3818 : 		return Py_BuildException();
; 3819 : 	}
; 3820 : 
; 3821 : 	int renderWindow = -1;
; 3822 : 	if (!PyTuple_GetInteger(poArgs, 1, &renderWindow))

  00029	8d 45 fc	 lea	 eax, DWORD PTR _renderWindow$[ebp]
  0002c	c7 45 fc ff ff
	ff ff		 mov	 DWORD PTR _renderWindow$[ebp], -1
  00033	50		 push	 eax
  00034	6a 01		 push	 1
  00036	ff 75 0c	 push	 DWORD PTR _poArgs$[ebp]
  00039	e8 00 00 00 00	 call	 ?PyTuple_GetInteger@@YA_NPAU_object@@HPAH@Z ; PyTuple_GetInteger
  0003e	83 c4 0c	 add	 esp, 12			; 0000000cH
  00041	84 c0		 test	 al, al
  00043	74 d6		 je	 SHORT $LN5@wndMgrSetW

; 3823 : 	{
; 3824 : 		return Py_BuildException();
; 3825 : 	}
; 3826 : 
; 3827 : 	((UI::CUiWikiRenderTarget*)pWin)->SetWikiRenderTargetModule(renderWindow);

  00045	ff 75 fc	 push	 DWORD PTR _renderWindow$[ebp]
  00048	8b 4d f8	 mov	 ecx, DWORD PTR _pWin$[ebp]
  0004b	e8 00 00 00 00	 call	 ?SetWikiRenderTargetModule@CUiWikiRenderTarget@UI@@QAE_NH@Z ; UI::CUiWikiRenderTarget::SetWikiRenderTargetModule

; 3828 : 	return Py_BuildNone();

  00050	e8 00 00 00 00	 call	 ?Py_BuildNone@@YAPAU_object@@XZ ; Py_BuildNone

; 3829 : }

  00055	8b e5		 mov	 esp, ebp
  00057	5d		 pop	 ebp
  00058	c3		 ret	 0
?wndMgrSetWikiRenderTarget@@YAPAU_object@@PAU1@0@Z ENDP	; wndMgrSetWikiRenderTarget
_TEXT	ENDS
; Function compile flags: /Ogtp
; File C:\Users\flourine\Desktop\Xantios\client-src\Code\eterPythonLib\PythonWindowManagerModule.cpp
;	COMDAT ?wndMgrGetRenderBox@@YAPAU_object@@PAU1@0@Z
_TEXT	SEGMENT
_pWin$ = -24						; size = 4
_val$ = -20						; size = 16
__$ArrayPad$ = -4					; size = 4
_poSelf$ = 8						; size = 4
_poArgs$ = 12						; size = 4
?wndMgrGetRenderBox@@YAPAU_object@@PAU1@0@Z PROC	; wndMgrGetRenderBox, COMDAT

; 3801 : {

  00000	55		 push	 ebp
  00001	8b ec		 mov	 ebp, esp
  00003	83 ec 18	 sub	 esp, 24			; 00000018H
  00006	a1 00 00 00 00	 mov	 eax, DWORD PTR ___security_cookie
  0000b	33 c5		 xor	 eax, ebp
  0000d	89 45 fc	 mov	 DWORD PTR __$ArrayPad$[ebp], eax
  00010	8b 45 0c	 mov	 eax, DWORD PTR _poArgs$[ebp]

; 3802 : 	UI::CWindow* pWin;
; 3803 : 	if (!PyTuple_GetWindow(poArgs, 0, &pWin))

  00013	8d 4d e8	 lea	 ecx, DWORD PTR _pWin$[ebp]
  00016	51		 push	 ecx
  00017	6a 00		 push	 0
  00019	50		 push	 eax
  0001a	e8 00 00 00 00	 call	 ?PyTuple_GetWindow@@YA_NPAU_object@@HPAPAVCWindow@UI@@@Z ; PyTuple_GetWindow
  0001f	83 c4 0c	 add	 esp, 12			; 0000000cH
  00022	84 c0		 test	 al, al
  00024	75 18		 jne	 SHORT $LN2@wndMgrGetR

; 3804 : 	{
; 3805 : 		return Py_BuildException();

  00026	6a 00		 push	 0
  00028	e8 00 00 00 00	 call	 ?Py_BuildException@@YAPAU_object@@PBDZZ ; Py_BuildException
  0002d	83 c4 04	 add	 esp, 4

; 3811 : }

  00030	8b 4d fc	 mov	 ecx, DWORD PTR __$ArrayPad$[ebp]
  00033	33 cd		 xor	 ecx, ebp
  00035	e8 00 00 00 00	 call	 @__security_check_cookie@4
  0003a	8b e5		 mov	 esp, ebp
  0003c	5d		 pop	 ebp
  0003d	c3		 ret	 0
$LN2@wndMgrGetR:

; 3806 : 	}
; 3807 : 
; 3808 : 	RECT val;
; 3809 : 	pWin->GetRenderBox(&val);

  0003e	8b 4d e8	 mov	 ecx, DWORD PTR _pWin$[ebp]
  00041	8d 45 ec	 lea	 eax, DWORD PTR _val$[ebp]
  00044	50		 push	 eax
  00045	e8 00 00 00 00	 call	 ?GetRenderBox@CWindow@UI@@QAEXPAUtagRECT@@@Z ; UI::CWindow::GetRenderBox

; 3810 : 	return Py_BuildValue("iiii", val.left, val.top, val.right, val.bottom);

  0004a	ff 75 f8	 push	 DWORD PTR _val$[ebp+12]
  0004d	ff 75 f4	 push	 DWORD PTR _val$[ebp+8]
  00050	ff 75 f0	 push	 DWORD PTR _val$[ebp+4]
  00053	ff 75 ec	 push	 DWORD PTR _val$[ebp]
  00056	68 00 00 00 00	 push	 OFFSET ??_C@_04BIOIIFBG@iiii@
  0005b	ff 15 00 00 00
	00		 call	 DWORD PTR __imp__Py_BuildValue

; 3811 : }

  00061	8b 4d fc	 mov	 ecx, DWORD PTR __$ArrayPad$[ebp]
  00064	83 c4 14	 add	 esp, 20			; 00000014H
  00067	33 cd		 xor	 ecx, ebp
  00069	e8 00 00 00 00	 call	 @__security_check_cookie@4
  0006e	8b e5		 mov	 esp, ebp
  00070	5d		 pop	 ebp
  00071	c3		 ret	 0
?wndMgrGetRenderBox@@YAPAU_object@@PAU1@0@Z ENDP	; wndMgrGetRenderBox
_TEXT	ENDS
; Function compile flags: /Ogtp
; File C:\Users\flourine\Desktop\Xantios\client-src\Code\eterPythonLib\PythonWindowManagerModule.cpp
;	COMDAT ?wndSetRenderingRect@@YAPAU_object@@PAU1@0@Z
_TEXT	SEGMENT
_pWindow$ = -20						; size = 4
_fLeft$ = -16						; size = 4
_fTop$ = -12						; size = 4
_fRight$ = -8						; size = 4
_fBottom$ = -4						; size = 4
_poSelf$ = 8						; size = 4
_poArgs$ = 12						; size = 4
?wndSetRenderingRect@@YAPAU_object@@PAU1@0@Z PROC	; wndSetRenderingRect, COMDAT

; 3761 : {

  00000	55		 push	 ebp
  00001	8b ec		 mov	 ebp, esp
  00003	83 ec 14	 sub	 esp, 20			; 00000014H

; 3762 : 	UI::CWindow* pWindow;
; 3763 : 	if (!PyTuple_GetWindow(poArgs, 0, &pWindow))

  00006	8d 45 ec	 lea	 eax, DWORD PTR _pWindow$[ebp]
  00009	56		 push	 esi
  0000a	8b 75 0c	 mov	 esi, DWORD PTR _poArgs$[ebp]
  0000d	50		 push	 eax
  0000e	6a 00		 push	 0
  00010	56		 push	 esi
  00011	e8 00 00 00 00	 call	 ?PyTuple_GetWindow@@YA_NPAU_object@@HPAPAVCWindow@UI@@@Z ; PyTuple_GetWindow
  00016	83 c4 0c	 add	 esp, 12			; 0000000cH
  00019	84 c0		 test	 al, al
  0001b	75 0f		 jne	 SHORT $LN2@wndSetRend
$LN16@wndSetRend:

; 3798 : }

  0001d	6a 00		 push	 0
  0001f	e8 00 00 00 00	 call	 ?Py_BuildException@@YAPAU_object@@PBDZZ ; Py_BuildException
  00024	83 c4 04	 add	 esp, 4
  00027	5e		 pop	 esi
  00028	8b e5		 mov	 esp, ebp
  0002a	5d		 pop	 ebp
  0002b	c3		 ret	 0
$LN2@wndSetRend:

; 3764 : 	{
; 3765 : 		return Py_BuildException();
; 3766 : 	}
; 3767 : 	float fLeft;
; 3768 : 	if (!PyTuple_GetFloat(poArgs, 1, &fLeft))

  0002c	8d 45 f0	 lea	 eax, DWORD PTR _fLeft$[ebp]
  0002f	50		 push	 eax
  00030	6a 01		 push	 1
  00032	56		 push	 esi
  00033	e8 00 00 00 00	 call	 ?PyTuple_GetFloat@@YA_NPAU_object@@HPAM@Z ; PyTuple_GetFloat
  00038	83 c4 0c	 add	 esp, 12			; 0000000cH
  0003b	84 c0		 test	 al, al
  0003d	74 de		 je	 SHORT $LN16@wndSetRend

; 3769 : 	{
; 3770 : 		return Py_BuildException();
; 3771 : 	}
; 3772 : 	float fTop;
; 3773 : 	if (!PyTuple_GetFloat(poArgs, 2, &fTop))

  0003f	8d 45 f4	 lea	 eax, DWORD PTR _fTop$[ebp]
  00042	50		 push	 eax
  00043	6a 02		 push	 2
  00045	56		 push	 esi
  00046	e8 00 00 00 00	 call	 ?PyTuple_GetFloat@@YA_NPAU_object@@HPAM@Z ; PyTuple_GetFloat
  0004b	83 c4 0c	 add	 esp, 12			; 0000000cH
  0004e	84 c0		 test	 al, al
  00050	74 cb		 je	 SHORT $LN16@wndSetRend

; 3774 : 	{
; 3775 : 		return Py_BuildException();
; 3776 : 	}
; 3777 : 	float fRight;
; 3778 : 	if (!PyTuple_GetFloat(poArgs, 3, &fRight))

  00052	8d 45 f8	 lea	 eax, DWORD PTR _fRight$[ebp]
  00055	50		 push	 eax
  00056	6a 03		 push	 3
  00058	56		 push	 esi
  00059	e8 00 00 00 00	 call	 ?PyTuple_GetFloat@@YA_NPAU_object@@HPAM@Z ; PyTuple_GetFloat
  0005e	83 c4 0c	 add	 esp, 12			; 0000000cH
  00061	84 c0		 test	 al, al
  00063	74 b8		 je	 SHORT $LN16@wndSetRend

; 3779 : 	{
; 3780 : 		return Py_BuildException();
; 3781 : 	}
; 3782 : 	float fBottom;
; 3783 : 	if (!PyTuple_GetFloat(poArgs, 4, &fBottom))

  00065	8d 45 fc	 lea	 eax, DWORD PTR _fBottom$[ebp]
  00068	50		 push	 eax
  00069	6a 04		 push	 4
  0006b	56		 push	 esi
  0006c	e8 00 00 00 00	 call	 ?PyTuple_GetFloat@@YA_NPAU_object@@HPAM@Z ; PyTuple_GetFloat
  00071	83 c4 0c	 add	 esp, 12			; 0000000cH
  00074	84 c0		 test	 al, al
  00076	74 a5		 je	 SHORT $LN16@wndSetRend

; 3784 : 	{
; 3785 : 		return Py_BuildException();
; 3786 : 	}
; 3787 : 
; 3788 : 	if (pWindow->IsType(UI::CExpandedImageBox::Type()))

  00078	e8 00 00 00 00	 call	 ?Type@CExpandedImageBox@UI@@SAKXZ ; UI::CExpandedImageBox::Type
  0007d	8b 75 ec	 mov	 esi, DWORD PTR _pWindow$[ebp]
  00080	8b ce		 mov	 ecx, esi
  00082	50		 push	 eax
  00083	e8 00 00 00 00	 call	 ?IsType@CWindow@UI@@QAEHK@Z ; UI::CWindow::IsType
  00088	85 c0		 test	 eax, eax
  0008a	75 33		 jne	 SHORT $LN15@wndSetRend

; 3789 : 		((UI::CExpandedImageBox*)pWindow)->SetRenderingRect(fLeft, fTop, fRight, fBottom);
; 3790 : 	else if (pWindow->IsType(UI::CAniImageBox::Type()))

  0008c	e8 00 00 00 00	 call	 ?Type@CAniImageBox@UI@@SAKXZ ; UI::CAniImageBox::Type
  00091	50		 push	 eax
  00092	8b ce		 mov	 ecx, esi
  00094	e8 00 00 00 00	 call	 ?IsType@CWindow@UI@@QAEHK@Z ; UI::CWindow::IsType
  00099	85 c0		 test	 eax, eax
  0009b	75 22		 jne	 SHORT $LN15@wndSetRend

; 3791 : 		((UI::CAniImageBox*)pWindow)->SetRenderingRect(fLeft, fTop, fRight, fBottom);
; 3792 : 	else if (pWindow->IsType(UI::CButton::Type()))

  0009d	e8 00 00 00 00	 call	 ?Type@CButton@UI@@SAKXZ	; UI::CButton::Type
  000a2	50		 push	 eax
  000a3	8b ce		 mov	 ecx, esi
  000a5	e8 00 00 00 00	 call	 ?IsType@CWindow@UI@@QAEHK@Z ; UI::CWindow::IsType
  000aa	85 c0		 test	 eax, eax
  000ac	75 11		 jne	 SHORT $LN15@wndSetRend

; 3793 : 		((UI::CButton*)pWindow)->SetRenderingRect(fLeft, fTop, fRight, fBottom);
; 3794 : 	else if (pWindow->IsType(UI::CTextLine::Type()))

  000ae	e8 00 00 00 00	 call	 ?Type@CTextLine@UI@@SAKXZ ; UI::CTextLine::Type
  000b3	50		 push	 eax
  000b4	8b ce		 mov	 ecx, esi
  000b6	e8 00 00 00 00	 call	 ?IsType@CWindow@UI@@QAEHK@Z ; UI::CWindow::IsType
  000bb	85 c0		 test	 eax, eax
  000bd	74 38		 je	 SHORT $LN13@wndSetRend
$LN15@wndSetRend:

; 3795 : 		((UI::CTextLine*)pWindow)->SetRenderingRect(fLeft, fTop, fRight, fBottom);
; 3796 : 
; 3797 : 	return Py_BuildNone();

  000bf	f3 0f 10 45 fc	 movss	 xmm0, DWORD PTR _fBottom$[ebp]
  000c4	83 ec 10	 sub	 esp, 16			; 00000010H
  000c7	8b 06		 mov	 eax, DWORD PTR [esi]
  000c9	8b ce		 mov	 ecx, esi
  000cb	f3 0f 11 44 24
	0c		 movss	 DWORD PTR [esp+12], xmm0
  000d1	f3 0f 10 45 f8	 movss	 xmm0, DWORD PTR _fRight$[ebp]
  000d6	f3 0f 11 44 24
	08		 movss	 DWORD PTR [esp+8], xmm0
  000dc	f3 0f 10 45 f4	 movss	 xmm0, DWORD PTR _fTop$[ebp]
  000e1	f3 0f 11 44 24
	04		 movss	 DWORD PTR [esp+4], xmm0
  000e7	f3 0f 10 45 f0	 movss	 xmm0, DWORD PTR _fLeft$[ebp]
  000ec	f3 0f 11 04 24	 movss	 DWORD PTR [esp], xmm0
  000f1	ff 90 b4 00 00
	00		 call	 DWORD PTR [eax+180]
$LN13@wndSetRend:
  000f7	e8 00 00 00 00	 call	 ?Py_BuildNone@@YAPAU_object@@XZ ; Py_BuildNone
  000fc	5e		 pop	 esi

; 3798 : }

  000fd	8b e5		 mov	 esp, ebp
  000ff	5d		 pop	 ebp
  00100	c3		 ret	 0
?wndSetRenderingRect@@YAPAU_object@@PAU1@0@Z ENDP	; wndSetRenderingRect
_TEXT	ENDS
; Function compile flags: /Ogtp
; File C:\Users\flourine\Desktop\Xantios\client-src\Code\eterPythonLib\PythonWindowManagerModule.cpp
;	COMDAT ?wndMgrSetInsideRender@@YAPAU_object@@PAU1@0@Z
_TEXT	SEGMENT
_pWin$ = -8						; size = 4
_val$ = -1						; size = 1
_poSelf$ = 8						; size = 4
_poArgs$ = 12						; size = 4
?wndMgrSetInsideRender@@YAPAU_object@@PAU1@0@Z PROC	; wndMgrSetInsideRender, COMDAT

; 3739 : {

  00000	55		 push	 ebp
  00001	8b ec		 mov	 ebp, esp
  00003	83 ec 08	 sub	 esp, 8

; 3740 : 	UI::CWindow* pWin;
; 3741 : 	if (!PyTuple_GetWindow(poArgs, 0, &pWin))

  00006	8d 45 f8	 lea	 eax, DWORD PTR _pWin$[ebp]
  00009	50		 push	 eax
  0000a	6a 00		 push	 0
  0000c	ff 75 0c	 push	 DWORD PTR _poArgs$[ebp]
  0000f	e8 00 00 00 00	 call	 ?PyTuple_GetWindow@@YA_NPAU_object@@HPAPAVCWindow@UI@@@Z ; PyTuple_GetWindow
  00014	83 c4 0c	 add	 esp, 12			; 0000000cH
  00017	84 c0		 test	 al, al
  00019	75 0e		 jne	 SHORT $LN2@wndMgrSetI
$LN5@wndMgrSetI:

; 3758 : }

  0001b	6a 00		 push	 0
  0001d	e8 00 00 00 00	 call	 ?Py_BuildException@@YAPAU_object@@PBDZZ ; Py_BuildException
  00022	83 c4 04	 add	 esp, 4
  00025	8b e5		 mov	 esp, ebp
  00027	5d		 pop	 ebp
  00028	c3		 ret	 0
$LN2@wndMgrSetI:

; 3742 : 	{
; 3743 : 		return Py_BuildException();
; 3744 : 	}
; 3745 : 
; 3746 : 	bool val;
; 3747 : 	if (!PyTuple_GetBoolean(poArgs, 1, &val))

  00029	8d 45 ff	 lea	 eax, DWORD PTR _val$[ebp]
  0002c	50		 push	 eax
  0002d	6a 01		 push	 1
  0002f	ff 75 0c	 push	 DWORD PTR _poArgs$[ebp]
  00032	e8 00 00 00 00	 call	 ?PyTuple_GetBoolean@@YA_NPAU_object@@HPA_N@Z ; PyTuple_GetBoolean
  00037	83 c4 0c	 add	 esp, 12			; 0000000cH
  0003a	84 c0		 test	 al, al
  0003c	74 dd		 je	 SHORT $LN5@wndMgrSetI

; 3748 : 	{
; 3749 : 		return Py_BuildException();
; 3750 : 	}
; 3751 : 
; 3752 : 	pWin->SetInsideRender(val);

  0003e	0f b6 45 ff	 movzx	 eax, BYTE PTR _val$[ebp]
  00042	8b 4d f8	 mov	 ecx, DWORD PTR _pWin$[ebp]
  00045	50		 push	 eax
  00046	e8 00 00 00 00	 call	 ?SetInsideRender@CWindow@UI@@QAEXH@Z ; UI::CWindow::SetInsideRender

; 3753 : 
; 3754 : 	//if (pWin->IsType(UI::CTextLine::Type()))
; 3755 : 	//	((UI::CTextLine*)pWin)->SetFlagRenderingWiki(val);
; 3756 : 
; 3757 : 	return Py_BuildNone();

  0004b	e8 00 00 00 00	 call	 ?Py_BuildNone@@YAPAU_object@@XZ ; Py_BuildNone

; 3758 : }

  00050	8b e5		 mov	 esp, ebp
  00052	5d		 pop	 ebp
  00053	c3		 ret	 0
?wndMgrSetInsideRender@@YAPAU_object@@PAU1@0@Z ENDP	; wndMgrSetInsideRender
_TEXT	ENDS
; Function compile flags: /Ogtp
; File C:\Users\flourine\Desktop\Xantios\client-src\Code\eterPythonLib\PythonWindowManagerModule.cpp
;	COMDAT ?wndMgrRegisterWikiRenderTarget@@YAPAU_object@@PAU1@0@Z
_TEXT	SEGMENT
_po$ = -8						; size = 4
_szLayer$ = -4						; size = 4
_poSelf$ = 8						; size = 4
_poArgs$ = 12						; size = 4
?wndMgrRegisterWikiRenderTarget@@YAPAU_object@@PAU1@0@Z PROC ; wndMgrRegisterWikiRenderTarget, COMDAT

; 3722 : {

  00000	55		 push	 ebp
  00001	8b ec		 mov	 ebp, esp
  00003	83 ec 08	 sub	 esp, 8

; 3723 : 	PyObject* po;
; 3724 : 	if (!PyTuple_GetObject(poArgs, 0, &po))

  00006	8d 45 f8	 lea	 eax, DWORD PTR _po$[ebp]
  00009	50		 push	 eax
  0000a	6a 00		 push	 0
  0000c	ff 75 0c	 push	 DWORD PTR _poArgs$[ebp]
  0000f	e8 00 00 00 00	 call	 ?PyTuple_GetObject@@YA_NPAU_object@@HPAPAU1@@Z ; PyTuple_GetObject
  00014	83 c4 0c	 add	 esp, 12			; 0000000cH
  00017	84 c0		 test	 al, al
  00019	75 0e		 jne	 SHORT $LN2@wndMgrRegi
$LN5@wndMgrRegi:

; 3736 : }

  0001b	6a 00		 push	 0
  0001d	e8 00 00 00 00	 call	 ?Py_BuildException@@YAPAU_object@@PBDZZ ; Py_BuildException
  00022	83 c4 04	 add	 esp, 4
  00025	8b e5		 mov	 esp, ebp
  00027	5d		 pop	 ebp
  00028	c3		 ret	 0
$LN2@wndMgrRegi:

; 3725 : 	{
; 3726 : 		return Py_BuildException();
; 3727 : 	}
; 3728 : 	char* szLayer;
; 3729 : 	if (!PyTuple_GetString(poArgs, 1, &szLayer))

  00029	8d 45 fc	 lea	 eax, DWORD PTR _szLayer$[ebp]
  0002c	50		 push	 eax
  0002d	6a 01		 push	 1
  0002f	ff 75 0c	 push	 DWORD PTR _poArgs$[ebp]
  00032	e8 00 00 00 00	 call	 ?PyTuple_GetString@@YA_NPAU_object@@HPAPAD@Z ; PyTuple_GetString
  00037	83 c4 0c	 add	 esp, 12			; 0000000cH
  0003a	84 c0		 test	 al, al
  0003c	74 dd		 je	 SHORT $LN5@wndMgrRegi

; 3730 : 	{
; 3731 : 		return Py_BuildException();
; 3732 : 	}
; 3733 : 
; 3734 : 	UI::CWindow* pWindow = UI::CWindowManager::Instance().RegisterWikiRenderTarget(po, szLayer);

  0003e	ff 75 fc	 push	 DWORD PTR _szLayer$[ebp]
  00041	8b 0d 00 00 00
	00		 mov	 ecx, DWORD PTR ?ms_singleton@?$CSingleton@VCWindowManager@UI@@@@0PAVCWindowManager@UI@@A ; CSingleton<UI::CWindowManager>::ms_singleton
  00047	ff 75 f8	 push	 DWORD PTR _po$[ebp]
  0004a	e8 00 00 00 00	 call	 ?RegisterWikiRenderTarget@CWindowManager@UI@@QAEPAVCWindow@2@PAU_object@@PBD@Z ; UI::CWindowManager::RegisterWikiRenderTarget

; 3735 : 	return Py_BuildValue("i", pWindow);

  0004f	50		 push	 eax
  00050	68 00 00 00 00	 push	 OFFSET ??_C@_01KBJDNOO@i@
  00055	ff 15 00 00 00
	00		 call	 DWORD PTR __imp__Py_BuildValue
  0005b	83 c4 08	 add	 esp, 8

; 3736 : }

  0005e	8b e5		 mov	 esp, ebp
  00060	5d		 pop	 ebp
  00061	c3		 ret	 0
?wndMgrRegisterWikiRenderTarget@@YAPAU_object@@PAU1@0@Z ENDP ; wndMgrRegisterWikiRenderTarget
_TEXT	ENDS
; Function compile flags: /Ogtp
; File C:\Users\flourine\Desktop\Xantios\client-src\Code\eterPythonLib\PythonWindowManagerModule.cpp
;	COMDAT ?wndMgrGetItemIndex@@YAPAU_object@@PAU1@0@Z
_TEXT	SEGMENT
_iSlotIndex$ = -8					; size = 4
_pWin$ = -4						; size = 4
_poSelf$ = 8						; size = 4
_poArgs$ = 12						; size = 4
?wndMgrGetItemIndex@@YAPAU_object@@PAU1@0@Z PROC	; wndMgrGetItemIndex, COMDAT

; 3697 : {

  00000	55		 push	 ebp
  00001	8b ec		 mov	 ebp, esp
  00003	83 ec 08	 sub	 esp, 8

; 3698 : 	UI::CWindow * pWin;
; 3699 : 	if (!PyTuple_GetWindow(poArgs, 0, &pWin))

  00006	8d 45 fc	 lea	 eax, DWORD PTR _pWin$[ebp]
  00009	56		 push	 esi
  0000a	8b 75 0c	 mov	 esi, DWORD PTR _poArgs$[ebp]
  0000d	50		 push	 eax
  0000e	6a 00		 push	 0
  00010	56		 push	 esi
  00011	e8 00 00 00 00	 call	 ?PyTuple_GetWindow@@YA_NPAU_object@@HPAPAVCWindow@UI@@@Z ; PyTuple_GetWindow
  00016	83 c4 0c	 add	 esp, 12			; 0000000cH
  00019	84 c0		 test	 al, al
  0001b	75 0f		 jne	 SHORT $LN2@wndMgrGetI
$LN6@wndMgrGetI:

; 3718 : }

  0001d	6a 00		 push	 0
  0001f	e8 00 00 00 00	 call	 ?Py_BuildException@@YAPAU_object@@PBDZZ ; Py_BuildException
  00024	83 c4 04	 add	 esp, 4
  00027	5e		 pop	 esi
  00028	8b e5		 mov	 esp, ebp
  0002a	5d		 pop	 ebp
  0002b	c3		 ret	 0
$LN2@wndMgrGetI:

; 3700 : 	{
; 3701 : 		return Py_BuildException();
; 3702 : 	}
; 3703 : 
; 3704 : 	int iSlotIndex;
; 3705 : 	if (!PyTuple_GetInteger(poArgs, 1, &iSlotIndex))

  0002c	8d 45 f8	 lea	 eax, DWORD PTR _iSlotIndex$[ebp]
  0002f	50		 push	 eax
  00030	6a 01		 push	 1
  00032	56		 push	 esi
  00033	e8 00 00 00 00	 call	 ?PyTuple_GetInteger@@YA_NPAU_object@@HPAH@Z ; PyTuple_GetInteger
  00038	83 c4 0c	 add	 esp, 12			; 0000000cH
  0003b	84 c0		 test	 al, al
  0003d	74 de		 je	 SHORT $LN6@wndMgrGetI

; 3706 : 	{
; 3707 : 		return Py_BuildException();
; 3708 : 	}
; 3709 : 
; 3710 : 	if (!pWin->IsType(UI::CSlotWindow::Type()))

  0003f	e8 00 00 00 00	 call	 ?Type@CSlotWindow@UI@@SAKXZ ; UI::CSlotWindow::Type
  00044	8b 75 fc	 mov	 esi, DWORD PTR _pWin$[ebp]
  00047	8b ce		 mov	 ecx, esi
  00049	50		 push	 eax
  0004a	e8 00 00 00 00	 call	 ?IsType@CWindow@UI@@QAEHK@Z ; UI::CWindow::IsType
  0004f	85 c0		 test	 eax, eax
  00051	74 ca		 je	 SHORT $LN6@wndMgrGetI

; 3711 : 	{
; 3712 : 		return Py_BuildException();
; 3713 : 	}
; 3714 : 
; 3715 : 	UI::CSlotWindow * pSlotWin = (UI::CSlotWindow *)pWin;
; 3716 : 
; 3717 : 	return Py_BuildValue("i", pSlotWin->GetItemIndex(iSlotIndex));

  00053	ff 75 f8	 push	 DWORD PTR _iSlotIndex$[ebp]
  00056	8b ce		 mov	 ecx, esi
  00058	e8 00 00 00 00	 call	 ?GetItemIndex@CSlotWindow@UI@@QAEKK@Z ; UI::CSlotWindow::GetItemIndex
  0005d	50		 push	 eax
  0005e	68 00 00 00 00	 push	 OFFSET ??_C@_01KBJDNOO@i@
  00063	ff 15 00 00 00
	00		 call	 DWORD PTR __imp__Py_BuildValue
  00069	83 c4 08	 add	 esp, 8
  0006c	5e		 pop	 esi

; 3718 : }

  0006d	8b e5		 mov	 esp, ebp
  0006f	5d		 pop	 ebp
  00070	c3		 ret	 0
?wndMgrGetItemIndex@@YAPAU_object@@PAU1@0@Z ENDP	; wndMgrGetItemIndex
_TEXT	ENDS
; Function compile flags: /Ogtp
; File C:\Users\flourine\Desktop\Xantios\client-src\Code\eterPythonLib\PythonWindowManagerModule.cpp
;	COMDAT ?wndMgrDeactivateChangeLookSlot@@YAPAU_object@@PAU1@0@Z
_TEXT	SEGMENT
_iSlotIndex$ = -8					; size = 4
_pWin$ = -4						; size = 4
_poSelf$ = 8						; size = 4
_poArgs$ = 12						; size = 4
?wndMgrDeactivateChangeLookSlot@@YAPAU_object@@PAU1@0@Z PROC ; wndMgrDeactivateChangeLookSlot, COMDAT

; 3672 : {

  00000	55		 push	 ebp
  00001	8b ec		 mov	 ebp, esp
  00003	83 ec 08	 sub	 esp, 8

; 3673 : 	UI::CWindow* pWin;
; 3674 : 	if (!PyTuple_GetWindow(poArgs, 0, &pWin))

  00006	8d 45 fc	 lea	 eax, DWORD PTR _pWin$[ebp]
  00009	56		 push	 esi
  0000a	8b 75 0c	 mov	 esi, DWORD PTR _poArgs$[ebp]
  0000d	50		 push	 eax
  0000e	6a 00		 push	 0
  00010	56		 push	 esi
  00011	e8 00 00 00 00	 call	 ?PyTuple_GetWindow@@YA_NPAU_object@@HPAPAVCWindow@UI@@@Z ; PyTuple_GetWindow
  00016	83 c4 0c	 add	 esp, 12			; 0000000cH
  00019	84 c0		 test	 al, al
  0001b	75 0f		 jne	 SHORT $LN2@wndMgrDeac
$LN6@wndMgrDeac:

; 3693 : }

  0001d	6a 00		 push	 0
  0001f	e8 00 00 00 00	 call	 ?Py_BuildException@@YAPAU_object@@PBDZZ ; Py_BuildException
  00024	83 c4 04	 add	 esp, 4
  00027	5e		 pop	 esi
  00028	8b e5		 mov	 esp, ebp
  0002a	5d		 pop	 ebp
  0002b	c3		 ret	 0
$LN2@wndMgrDeac:

; 3675 : 	{
; 3676 : 		return Py_BuildException();
; 3677 : 	}
; 3678 : 
; 3679 : 	int iSlotIndex;
; 3680 : 	if (!PyTuple_GetInteger(poArgs, 1, &iSlotIndex))

  0002c	8d 45 f8	 lea	 eax, DWORD PTR _iSlotIndex$[ebp]
  0002f	50		 push	 eax
  00030	6a 01		 push	 1
  00032	56		 push	 esi
  00033	e8 00 00 00 00	 call	 ?PyTuple_GetInteger@@YA_NPAU_object@@HPAH@Z ; PyTuple_GetInteger
  00038	83 c4 0c	 add	 esp, 12			; 0000000cH
  0003b	84 c0		 test	 al, al
  0003d	74 de		 je	 SHORT $LN6@wndMgrDeac

; 3681 : 	{
; 3682 : 		return Py_BuildException();
; 3683 : 	}
; 3684 : 
; 3685 : 	if (!pWin->IsType(UI::CSlotWindow::Type()))

  0003f	e8 00 00 00 00	 call	 ?Type@CSlotWindow@UI@@SAKXZ ; UI::CSlotWindow::Type
  00044	8b 75 fc	 mov	 esi, DWORD PTR _pWin$[ebp]
  00047	8b ce		 mov	 ecx, esi
  00049	50		 push	 eax
  0004a	e8 00 00 00 00	 call	 ?IsType@CWindow@UI@@QAEHK@Z ; UI::CWindow::IsType
  0004f	85 c0		 test	 eax, eax
  00051	74 ca		 je	 SHORT $LN6@wndMgrDeac

; 3686 : 	{
; 3687 : 		return Py_BuildException();
; 3688 : 	}
; 3689 : 
; 3690 : 	UI::CSlotWindow* pSlotWin = (UI::CSlotWindow*)pWin;
; 3691 : 	pSlotWin->DeactivateChangeLookSlot(iSlotIndex);

  00053	ff 75 f8	 push	 DWORD PTR _iSlotIndex$[ebp]
  00056	8b ce		 mov	 ecx, esi
  00058	e8 00 00 00 00	 call	 ?DeactivateChangeLookSlot@CSlotWindow@UI@@QAEXK@Z ; UI::CSlotWindow::DeactivateChangeLookSlot

; 3692 : 	return Py_BuildNone();

  0005d	e8 00 00 00 00	 call	 ?Py_BuildNone@@YAPAU_object@@XZ ; Py_BuildNone
  00062	5e		 pop	 esi

; 3693 : }

  00063	8b e5		 mov	 esp, ebp
  00065	5d		 pop	 ebp
  00066	c3		 ret	 0
?wndMgrDeactivateChangeLookSlot@@YAPAU_object@@PAU1@0@Z ENDP ; wndMgrDeactivateChangeLookSlot
_TEXT	ENDS
; Function compile flags: /Ogtp
; File C:\Users\flourine\Desktop\Xantios\client-src\Code\eterPythonLib\PythonWindowManagerModule.cpp
;	COMDAT ?wndMgrActivateChangeLookSlot@@YAPAU_object@@PAU1@0@Z
_TEXT	SEGMENT
_pWin$ = -12						; size = 4
_iSlotIndex$ = -8					; size = 4
_bDiffuseType$ = -4					; size = 1
_poSelf$ = 8						; size = 4
_poArgs$ = 12						; size = 4
?wndMgrActivateChangeLookSlot@@YAPAU_object@@PAU1@0@Z PROC ; wndMgrActivateChangeLookSlot, COMDAT

; 3647 : {

  00000	55		 push	 ebp
  00001	8b ec		 mov	 ebp, esp
  00003	83 ec 0c	 sub	 esp, 12			; 0000000cH

; 3648 : 	UI::CWindow* pWin;
; 3649 : 	if (!PyTuple_GetWindow(poArgs, 0, &pWin))

  00006	8d 45 f4	 lea	 eax, DWORD PTR _pWin$[ebp]
  00009	56		 push	 esi
  0000a	8b 75 0c	 mov	 esi, DWORD PTR _poArgs$[ebp]
  0000d	50		 push	 eax
  0000e	6a 00		 push	 0
  00010	56		 push	 esi
  00011	e8 00 00 00 00	 call	 ?PyTuple_GetWindow@@YA_NPAU_object@@HPAPAVCWindow@UI@@@Z ; PyTuple_GetWindow
  00016	83 c4 0c	 add	 esp, 12			; 0000000cH
  00019	84 c0		 test	 al, al
  0001b	75 0f		 jne	 SHORT $LN2@wndMgrActi
$LN6@wndMgrActi:

; 3669 : }

  0001d	6a 00		 push	 0
  0001f	e8 00 00 00 00	 call	 ?Py_BuildException@@YAPAU_object@@PBDZZ ; Py_BuildException
  00024	83 c4 04	 add	 esp, 4
  00027	5e		 pop	 esi
  00028	8b e5		 mov	 esp, ebp
  0002a	5d		 pop	 ebp
  0002b	c3		 ret	 0
$LN2@wndMgrActi:

; 3650 : 	{
; 3651 : 		return Py_BuildException();
; 3652 : 	}
; 3653 : 
; 3654 : 	int iSlotIndex;
; 3655 : 	if (!PyTuple_GetInteger(poArgs, 1, &iSlotIndex))

  0002c	8d 45 f8	 lea	 eax, DWORD PTR _iSlotIndex$[ebp]
  0002f	50		 push	 eax
  00030	6a 01		 push	 1
  00032	56		 push	 esi
  00033	e8 00 00 00 00	 call	 ?PyTuple_GetInteger@@YA_NPAU_object@@HPAH@Z ; PyTuple_GetInteger
  00038	83 c4 0c	 add	 esp, 12			; 0000000cH
  0003b	84 c0		 test	 al, al
  0003d	74 de		 je	 SHORT $LN6@wndMgrActi

; 3656 : 	{
; 3657 : 		return Py_BuildException();
; 3658 : 	}
; 3659 : 
; 3660 : 	BYTE bDiffuseType;
; 3661 : 	if (!PyTuple_GetByte(poArgs, 2, &bDiffuseType))

  0003f	8d 45 fc	 lea	 eax, DWORD PTR _bDiffuseType$[ebp]
  00042	50		 push	 eax
  00043	6a 02		 push	 2
  00045	56		 push	 esi
  00046	e8 00 00 00 00	 call	 ?PyTuple_GetByte@@YA_NPAU_object@@HPAE@Z ; PyTuple_GetByte

; 3662 : 	{
; 3663 : 		bDiffuseType = 0;
; 3664 : 	}
; 3665 : 
; 3666 : 	UI::CSlotWindow* pSlotWin = (UI::CSlotWindow*)pWin;
; 3667 : 	pSlotWin->ActivateChangeLookSlot(iSlotIndex, bDiffuseType);

  0004b	8b 4d f4	 mov	 ecx, DWORD PTR _pWin$[ebp]
  0004e	83 c4 0c	 add	 esp, 12			; 0000000cH
  00051	f6 d8		 neg	 al
  00053	1a c0		 sbb	 al, al
  00055	20 45 fc	 and	 BYTE PTR _bDiffuseType$[ebp], al
  00058	ff 75 fc	 push	 DWORD PTR _bDiffuseType$[ebp]
  0005b	ff 75 f8	 push	 DWORD PTR _iSlotIndex$[ebp]
  0005e	e8 00 00 00 00	 call	 ?ActivateChangeLookSlot@CSlotWindow@UI@@QAEXKE@Z ; UI::CSlotWindow::ActivateChangeLookSlot

; 3668 : 	return Py_BuildNone();

  00063	e8 00 00 00 00	 call	 ?Py_BuildNone@@YAPAU_object@@XZ ; Py_BuildNone
  00068	5e		 pop	 esi

; 3669 : }

  00069	8b e5		 mov	 esp, ebp
  0006b	5d		 pop	 ebp
  0006c	c3		 ret	 0
?wndMgrActivateChangeLookSlot@@YAPAU_object@@PAU1@0@Z ENDP ; wndMgrActivateChangeLookSlot
_TEXT	ENDS
; Function compile flags: /Ogtp
; File C:\Users\flourine\Desktop\Xantios\client-src\Code\eterPythonLib\PythonWindowManagerModule.cpp
;	COMDAT ?wndMgrDisableSlotCoverImage@@YAPAU_object@@PAU1@0@Z
_TEXT	SEGMENT
_iSlotIndex$ = -8					; size = 4
_pWin$ = -4						; size = 4
_poSelf$ = 8						; size = 4
_poArgs$ = 12						; size = 4
?wndMgrDisableSlotCoverImage@@YAPAU_object@@PAU1@0@Z PROC ; wndMgrDisableSlotCoverImage, COMDAT

; 3622 : {

  00000	55		 push	 ebp
  00001	8b ec		 mov	 ebp, esp
  00003	83 ec 08	 sub	 esp, 8

; 3623 : 	UI::CWindow* pWin;
; 3624 : 	if (!PyTuple_GetWindow(poArgs, 0, &pWin))

  00006	8d 45 fc	 lea	 eax, DWORD PTR _pWin$[ebp]
  00009	56		 push	 esi
  0000a	8b 75 0c	 mov	 esi, DWORD PTR _poArgs$[ebp]
  0000d	50		 push	 eax
  0000e	6a 00		 push	 0
  00010	56		 push	 esi
  00011	e8 00 00 00 00	 call	 ?PyTuple_GetWindow@@YA_NPAU_object@@HPAPAVCWindow@UI@@@Z ; PyTuple_GetWindow
  00016	83 c4 0c	 add	 esp, 12			; 0000000cH
  00019	84 c0		 test	 al, al
  0001b	75 0f		 jne	 SHORT $LN2@wndMgrDisa
$LN6@wndMgrDisa:

; 3644 : }

  0001d	6a 00		 push	 0
  0001f	e8 00 00 00 00	 call	 ?Py_BuildException@@YAPAU_object@@PBDZZ ; Py_BuildException
  00024	83 c4 04	 add	 esp, 4
  00027	5e		 pop	 esi
  00028	8b e5		 mov	 esp, ebp
  0002a	5d		 pop	 ebp
  0002b	c3		 ret	 0
$LN2@wndMgrDisa:

; 3625 : 	{
; 3626 : 		return Py_BuildException();
; 3627 : 	}
; 3628 : 
; 3629 : 	int iSlotIndex;
; 3630 : 	if (!PyTuple_GetInteger(poArgs, 1, &iSlotIndex))

  0002c	8d 45 f8	 lea	 eax, DWORD PTR _iSlotIndex$[ebp]
  0002f	50		 push	 eax
  00030	6a 01		 push	 1
  00032	56		 push	 esi
  00033	e8 00 00 00 00	 call	 ?PyTuple_GetInteger@@YA_NPAU_object@@HPAH@Z ; PyTuple_GetInteger
  00038	83 c4 0c	 add	 esp, 12			; 0000000cH
  0003b	84 c0		 test	 al, al
  0003d	74 de		 je	 SHORT $LN6@wndMgrDisa

; 3631 : 	{
; 3632 : 		return Py_BuildException();
; 3633 : 	}
; 3634 : 
; 3635 : 	if (!pWin->IsType(UI::CSlotWindow::Type()))

  0003f	e8 00 00 00 00	 call	 ?Type@CSlotWindow@UI@@SAKXZ ; UI::CSlotWindow::Type
  00044	8b 75 fc	 mov	 esi, DWORD PTR _pWin$[ebp]
  00047	8b ce		 mov	 ecx, esi
  00049	50		 push	 eax
  0004a	e8 00 00 00 00	 call	 ?IsType@CWindow@UI@@QAEHK@Z ; UI::CWindow::IsType
  0004f	85 c0		 test	 eax, eax
  00051	74 ca		 je	 SHORT $LN6@wndMgrDisa

; 3636 : 	{
; 3637 : 		return Py_BuildException();
; 3638 : 	}
; 3639 : 
; 3640 : 	UI::CSlotWindow* pSlotWin = (UI::CSlotWindow*)pWin;
; 3641 : 	pSlotWin->DisableSlotCoverImage(iSlotIndex);

  00053	ff 75 f8	 push	 DWORD PTR _iSlotIndex$[ebp]
  00056	8b ce		 mov	 ecx, esi
  00058	e8 00 00 00 00	 call	 ?DisableSlotCoverImage@CSlotWindow@UI@@QAEXK@Z ; UI::CSlotWindow::DisableSlotCoverImage

; 3642 : 
; 3643 : 	return Py_BuildNone();

  0005d	e8 00 00 00 00	 call	 ?Py_BuildNone@@YAPAU_object@@XZ ; Py_BuildNone
  00062	5e		 pop	 esi

; 3644 : }

  00063	8b e5		 mov	 esp, ebp
  00065	5d		 pop	 ebp
  00066	c3		 ret	 0
?wndMgrDisableSlotCoverImage@@YAPAU_object@@PAU1@0@Z ENDP ; wndMgrDisableSlotCoverImage
_TEXT	ENDS
; Function compile flags: /Ogtp
; File C:\Users\flourine\Desktop\Xantios\client-src\Code\eterPythonLib\PythonWindowManagerModule.cpp
;	COMDAT ?wndMgrEnableSlotCoverImage@@YAPAU_object@@PAU1@0@Z
_TEXT	SEGMENT
_iSlotIndex$ = -8					; size = 4
_pWin$ = -4						; size = 4
_poSelf$ = 8						; size = 4
_poArgs$ = 12						; size = 4
?wndMgrEnableSlotCoverImage@@YAPAU_object@@PAU1@0@Z PROC ; wndMgrEnableSlotCoverImage, COMDAT

; 3597 : {

  00000	55		 push	 ebp
  00001	8b ec		 mov	 ebp, esp
  00003	83 ec 08	 sub	 esp, 8

; 3598 : 	UI::CWindow* pWin;
; 3599 : 	if (!PyTuple_GetWindow(poArgs, 0, &pWin))

  00006	8d 45 fc	 lea	 eax, DWORD PTR _pWin$[ebp]
  00009	56		 push	 esi
  0000a	8b 75 0c	 mov	 esi, DWORD PTR _poArgs$[ebp]
  0000d	50		 push	 eax
  0000e	6a 00		 push	 0
  00010	56		 push	 esi
  00011	e8 00 00 00 00	 call	 ?PyTuple_GetWindow@@YA_NPAU_object@@HPAPAVCWindow@UI@@@Z ; PyTuple_GetWindow
  00016	83 c4 0c	 add	 esp, 12			; 0000000cH
  00019	84 c0		 test	 al, al
  0001b	75 0f		 jne	 SHORT $LN2@wndMgrEnab
$LN6@wndMgrEnab:

; 3619 : }

  0001d	6a 00		 push	 0
  0001f	e8 00 00 00 00	 call	 ?Py_BuildException@@YAPAU_object@@PBDZZ ; Py_BuildException
  00024	83 c4 04	 add	 esp, 4
  00027	5e		 pop	 esi
  00028	8b e5		 mov	 esp, ebp
  0002a	5d		 pop	 ebp
  0002b	c3		 ret	 0
$LN2@wndMgrEnab:

; 3600 : 	{
; 3601 : 		return Py_BuildException();
; 3602 : 	}
; 3603 : 
; 3604 : 	int iSlotIndex;
; 3605 : 	if (!PyTuple_GetInteger(poArgs, 1, &iSlotIndex))

  0002c	8d 45 f8	 lea	 eax, DWORD PTR _iSlotIndex$[ebp]
  0002f	50		 push	 eax
  00030	6a 01		 push	 1
  00032	56		 push	 esi
  00033	e8 00 00 00 00	 call	 ?PyTuple_GetInteger@@YA_NPAU_object@@HPAH@Z ; PyTuple_GetInteger
  00038	83 c4 0c	 add	 esp, 12			; 0000000cH
  0003b	84 c0		 test	 al, al
  0003d	74 de		 je	 SHORT $LN6@wndMgrEnab

; 3606 : 	{
; 3607 : 		return Py_BuildException();
; 3608 : 	}
; 3609 : 
; 3610 : 	if (!pWin->IsType(UI::CSlotWindow::Type()))

  0003f	e8 00 00 00 00	 call	 ?Type@CSlotWindow@UI@@SAKXZ ; UI::CSlotWindow::Type
  00044	8b 75 fc	 mov	 esi, DWORD PTR _pWin$[ebp]
  00047	8b ce		 mov	 ecx, esi
  00049	50		 push	 eax
  0004a	e8 00 00 00 00	 call	 ?IsType@CWindow@UI@@QAEHK@Z ; UI::CWindow::IsType
  0004f	85 c0		 test	 eax, eax
  00051	74 ca		 je	 SHORT $LN6@wndMgrEnab

; 3611 : 	{
; 3612 : 		return Py_BuildException();
; 3613 : 	}
; 3614 : 
; 3615 : 	UI::CSlotWindow* pSlotWin = (UI::CSlotWindow*)pWin;
; 3616 : 	pSlotWin->EnableSlotCoverImage(iSlotIndex);

  00053	ff 75 f8	 push	 DWORD PTR _iSlotIndex$[ebp]
  00056	8b ce		 mov	 ecx, esi
  00058	e8 00 00 00 00	 call	 ?EnableSlotCoverImage@CSlotWindow@UI@@QAEXK@Z ; UI::CSlotWindow::EnableSlotCoverImage

; 3617 : 
; 3618 : 	return Py_BuildNone();

  0005d	e8 00 00 00 00	 call	 ?Py_BuildNone@@YAPAU_object@@XZ ; Py_BuildNone
  00062	5e		 pop	 esi

; 3619 : }

  00063	8b e5		 mov	 esp, ebp
  00065	5d		 pop	 ebp
  00066	c3		 ret	 0
?wndMgrEnableSlotCoverImage@@YAPAU_object@@PAU1@0@Z ENDP ; wndMgrEnableSlotCoverImage
_TEXT	ENDS
; Function compile flags: /Ogtp
; File C:\Users\flourine\Desktop\Xantios\client-src\Code\eterPythonLib\PythonWindowManagerModule.cpp
;	COMDAT ?wndMgrGetSlotCoolTime@@YAPAU_object@@PAU1@0@Z
_TEXT	SEGMENT
_iSlotIndex$ = -12					; size = 4
_fCoolTime$ = -8					; size = 4
_pWin$ = -8						; size = 4
_fElapsedTime$ = -4					; size = 4
_poSelf$ = 8						; size = 4
_poArgs$ = 12						; size = 4
?wndMgrGetSlotCoolTime@@YAPAU_object@@PAU1@0@Z PROC	; wndMgrGetSlotCoolTime, COMDAT

; 3569 : {

  00000	55		 push	 ebp
  00001	8b ec		 mov	 ebp, esp
  00003	83 ec 0c	 sub	 esp, 12			; 0000000cH

; 3570 : 	UI::CWindow * pWin;
; 3571 : 	if (!PyTuple_GetWindow(poArgs, 0, &pWin))

  00006	8d 45 f8	 lea	 eax, DWORD PTR _pWin$[ebp]
  00009	56		 push	 esi
  0000a	8b 75 0c	 mov	 esi, DWORD PTR _poArgs$[ebp]
  0000d	50		 push	 eax
  0000e	6a 00		 push	 0
  00010	56		 push	 esi
  00011	e8 00 00 00 00	 call	 ?PyTuple_GetWindow@@YA_NPAU_object@@HPAPAVCWindow@UI@@@Z ; PyTuple_GetWindow
  00016	83 c4 0c	 add	 esp, 12			; 0000000cH
  00019	84 c0		 test	 al, al
  0001b	75 0f		 jne	 SHORT $LN2@wndMgrGetS
$LN6@wndMgrGetS:

; 3592 : }

  0001d	6a 00		 push	 0
  0001f	e8 00 00 00 00	 call	 ?Py_BuildException@@YAPAU_object@@PBDZZ ; Py_BuildException
  00024	83 c4 04	 add	 esp, 4
  00027	5e		 pop	 esi
  00028	8b e5		 mov	 esp, ebp
  0002a	5d		 pop	 ebp
  0002b	c3		 ret	 0
$LN2@wndMgrGetS:

; 3572 : 	{
; 3573 : 		return Py_BuildException();
; 3574 : 	}
; 3575 : 
; 3576 : 	int iSlotIndex;
; 3577 : 	if (!PyTuple_GetInteger(poArgs, 1, &iSlotIndex))

  0002c	8d 45 f4	 lea	 eax, DWORD PTR _iSlotIndex$[ebp]
  0002f	50		 push	 eax
  00030	6a 01		 push	 1
  00032	56		 push	 esi
  00033	e8 00 00 00 00	 call	 ?PyTuple_GetInteger@@YA_NPAU_object@@HPAH@Z ; PyTuple_GetInteger
  00038	83 c4 0c	 add	 esp, 12			; 0000000cH
  0003b	84 c0		 test	 al, al
  0003d	74 de		 je	 SHORT $LN6@wndMgrGetS

; 3578 : 	{
; 3579 : 		return Py_BuildException();
; 3580 : 	}
; 3581 : 
; 3582 : 	if (!pWin->IsType(UI::CSlotWindow::Type()))

  0003f	e8 00 00 00 00	 call	 ?Type@CSlotWindow@UI@@SAKXZ ; UI::CSlotWindow::Type
  00044	8b 75 f8	 mov	 esi, DWORD PTR _pWin$[ebp]
  00047	8b ce		 mov	 ecx, esi
  00049	50		 push	 eax
  0004a	e8 00 00 00 00	 call	 ?IsType@CWindow@UI@@QAEHK@Z ; UI::CWindow::IsType
  0004f	85 c0		 test	 eax, eax
  00051	74 ca		 je	 SHORT $LN6@wndMgrGetS

; 3583 : 	{
; 3584 : 		return Py_BuildException();
; 3585 : 	}
; 3586 : 
; 3587 : 	UI::CSlotWindow * pSlotWin = (UI::CSlotWindow *)pWin;
; 3588 : 
; 3589 : 	float fElapsedTime = 0.0f;
; 3590 : 	float fCoolTime = pSlotWin->GetSlotCoolTime(iSlotIndex, &fElapsedTime);

  00053	8d 45 fc	 lea	 eax, DWORD PTR _fElapsedTime$[ebp]
  00056	c7 45 fc 00 00
	00 00		 mov	 DWORD PTR _fElapsedTime$[ebp], 0
  0005d	50		 push	 eax
  0005e	ff 75 f4	 push	 DWORD PTR _iSlotIndex$[ebp]
  00061	8b ce		 mov	 ecx, esi
  00063	e8 00 00 00 00	 call	 ?GetSlotCoolTime@CSlotWindow@UI@@QAEMKPAM@Z ; UI::CSlotWindow::GetSlotCoolTime
  00068	f3 0f 10 45 fc	 movss	 xmm0, DWORD PTR _fElapsedTime$[ebp]

; 3591 : 	return Py_BuildValue("ff", fCoolTime, fElapsedTime);

  0006d	83 ec 10	 sub	 esp, 16			; 00000010H
  00070	0f 5a c0	 cvtps2pd xmm0, xmm0
  00073	d9 5d f8	 fstp	 DWORD PTR _fCoolTime$[ebp]
  00076	f2 0f 11 44 24
	08		 movsd	 QWORD PTR [esp+8], xmm0
  0007c	f3 0f 10 45 f8	 movss	 xmm0, DWORD PTR _fCoolTime$[ebp]
  00081	0f 5a c0	 cvtps2pd xmm0, xmm0
  00084	f2 0f 11 04 24	 movsd	 QWORD PTR [esp], xmm0
  00089	68 00 00 00 00	 push	 OFFSET ??_C@_02HPEDFNFO@ff@
  0008e	ff 15 00 00 00
	00		 call	 DWORD PTR __imp__Py_BuildValue
  00094	83 c4 14	 add	 esp, 20			; 00000014H
  00097	5e		 pop	 esi

; 3592 : }

  00098	8b e5		 mov	 esp, ebp
  0009a	5d		 pop	 ebp
  0009b	c3		 ret	 0
?wndMgrGetSlotCoolTime@@YAPAU_object@@PAU1@0@Z ENDP	; wndMgrGetSlotCoolTime
_TEXT	ENDS
; Function compile flags: /Ogtp
; File C:\Users\flourine\Desktop\Xantios\client-src\Code\eterPythonLib\PythonWindowManagerModule.cpp
;	COMDAT ?wndMgrIsActivatedSlot@@YAPAU_object@@PAU1@0@Z
_TEXT	SEGMENT
_iSlotIndex$ = -8					; size = 4
_pWin$ = -4						; size = 4
_poSelf$ = 8						; size = 4
_poArgs$ = 12						; size = 4
?wndMgrIsActivatedSlot@@YAPAU_object@@PAU1@0@Z PROC	; wndMgrIsActivatedSlot, COMDAT

; 3546 : {

  00000	55		 push	 ebp
  00001	8b ec		 mov	 ebp, esp
  00003	83 ec 08	 sub	 esp, 8

; 3547 : 	UI::CWindow * pWin;
; 3548 : 	if (!PyTuple_GetWindow(poArgs, 0, &pWin))

  00006	8d 45 fc	 lea	 eax, DWORD PTR _pWin$[ebp]
  00009	56		 push	 esi
  0000a	8b 75 0c	 mov	 esi, DWORD PTR _poArgs$[ebp]
  0000d	50		 push	 eax
  0000e	6a 00		 push	 0
  00010	56		 push	 esi
  00011	e8 00 00 00 00	 call	 ?PyTuple_GetWindow@@YA_NPAU_object@@HPAPAVCWindow@UI@@@Z ; PyTuple_GetWindow
  00016	83 c4 0c	 add	 esp, 12			; 0000000cH
  00019	84 c0		 test	 al, al
  0001b	75 0f		 jne	 SHORT $LN2@wndMgrIsAc
$LN6@wndMgrIsAc:

; 3566 : }

  0001d	6a 00		 push	 0
  0001f	e8 00 00 00 00	 call	 ?Py_BuildException@@YAPAU_object@@PBDZZ ; Py_BuildException
  00024	83 c4 04	 add	 esp, 4
  00027	5e		 pop	 esi
  00028	8b e5		 mov	 esp, ebp
  0002a	5d		 pop	 ebp
  0002b	c3		 ret	 0
$LN2@wndMgrIsAc:

; 3549 : 	{
; 3550 : 		return Py_BuildException();
; 3551 : 	}
; 3552 : 
; 3553 : 	int iSlotIndex;
; 3554 : 	if (!PyTuple_GetInteger(poArgs, 1, &iSlotIndex))

  0002c	8d 45 f8	 lea	 eax, DWORD PTR _iSlotIndex$[ebp]
  0002f	50		 push	 eax
  00030	6a 01		 push	 1
  00032	56		 push	 esi
  00033	e8 00 00 00 00	 call	 ?PyTuple_GetInteger@@YA_NPAU_object@@HPAH@Z ; PyTuple_GetInteger
  00038	83 c4 0c	 add	 esp, 12			; 0000000cH
  0003b	84 c0		 test	 al, al
  0003d	74 de		 je	 SHORT $LN6@wndMgrIsAc

; 3555 : 	{
; 3556 : 		return Py_BuildException();
; 3557 : 	}
; 3558 : 
; 3559 : 	if (!pWin->IsType(UI::CSlotWindow::Type()))

  0003f	e8 00 00 00 00	 call	 ?Type@CSlotWindow@UI@@SAKXZ ; UI::CSlotWindow::Type
  00044	8b 75 fc	 mov	 esi, DWORD PTR _pWin$[ebp]
  00047	8b ce		 mov	 ecx, esi
  00049	50		 push	 eax
  0004a	e8 00 00 00 00	 call	 ?IsType@CWindow@UI@@QAEHK@Z ; UI::CWindow::IsType
  0004f	85 c0		 test	 eax, eax
  00051	74 ca		 je	 SHORT $LN6@wndMgrIsAc

; 3560 : 	{
; 3561 : 		return Py_BuildException();
; 3562 : 	}
; 3563 : 
; 3564 : 	UI::CSlotWindow * pSlotWin = (UI::CSlotWindow *)pWin;
; 3565 : 	return Py_BuildValue("i", pSlotWin->IsActivatedSlot(iSlotIndex));

  00053	ff 75 f8	 push	 DWORD PTR _iSlotIndex$[ebp]
  00056	8b ce		 mov	 ecx, esi
  00058	e8 00 00 00 00	 call	 ?IsActivatedSlot@CSlotWindow@UI@@QAE_NK@Z ; UI::CSlotWindow::IsActivatedSlot
  0005d	0f b6 c0	 movzx	 eax, al
  00060	50		 push	 eax
  00061	68 00 00 00 00	 push	 OFFSET ??_C@_01KBJDNOO@i@
  00066	ff 15 00 00 00
	00		 call	 DWORD PTR __imp__Py_BuildValue
  0006c	83 c4 08	 add	 esp, 8
  0006f	5e		 pop	 esi

; 3566 : }

  00070	8b e5		 mov	 esp, ebp
  00072	5d		 pop	 ebp
  00073	c3		 ret	 0
?wndMgrIsActivatedSlot@@YAPAU_object@@PAU1@0@Z ENDP	; wndMgrIsActivatedSlot
_TEXT	ENDS
; Function compile flags: /Ogtp
; File C:\Users\flourine\Desktop\Xantios\client-src\Code\eterPythonLib\PythonWindowManagerModule.cpp
;	COMDAT ?wndMgrShowOverInWindowName@@YAPAU_object@@PAU1@0@Z
_TEXT	SEGMENT
_iFlag$ = -4						; size = 4
_poSelf$ = 8						; size = 4
_poArgs$ = 12						; size = 4
?wndMgrShowOverInWindowName@@YAPAU_object@@PAU1@0@Z PROC ; wndMgrShowOverInWindowName, COMDAT

; 3532 : {

  00000	55		 push	 ebp
  00001	8b ec		 mov	 ebp, esp
  00003	51		 push	 ecx

; 3533 : 	int iFlag;
; 3534 : 	if (!PyTuple_GetInteger(poArgs, 0, &iFlag))

  00004	8d 45 fc	 lea	 eax, DWORD PTR _iFlag$[ebp]
  00007	50		 push	 eax
  00008	6a 00		 push	 0
  0000a	ff 75 0c	 push	 DWORD PTR _poArgs$[ebp]
  0000d	e8 00 00 00 00	 call	 ?PyTuple_GetInteger@@YA_NPAU_object@@HPAH@Z ; PyTuple_GetInteger
  00012	83 c4 0c	 add	 esp, 12			; 0000000cH
  00015	84 c0		 test	 al, al
  00017	75 0e		 jne	 SHORT $LN2@wndMgrShow

; 3535 : 	{
; 3536 : 		return Py_BuildException();

  00019	6a 00		 push	 0
  0001b	e8 00 00 00 00	 call	 ?Py_BuildException@@YAPAU_object@@PBDZZ ; Py_BuildException
  00020	83 c4 04	 add	 esp, 4

; 3542 : }

  00023	8b e5		 mov	 esp, ebp
  00025	5d		 pop	 ebp
  00026	c3		 ret	 0
$LN2@wndMgrShow:

; 3537 : 	}
; 3538 : 
; 3539 : 	g_bShowOverInWindowName = iFlag;

  00027	8b 45 fc	 mov	 eax, DWORD PTR _iFlag$[ebp]
  0002a	a3 00 00 00 00	 mov	 DWORD PTR ?g_bShowOverInWindowName@@3HA, eax ; g_bShowOverInWindowName

; 3540 : 
; 3541 : 	return Py_BuildNone();

  0002f	e8 00 00 00 00	 call	 ?Py_BuildNone@@YAPAU_object@@XZ ; Py_BuildNone

; 3542 : }

  00034	8b e5		 mov	 esp, ebp
  00036	5d		 pop	 ebp
  00037	c3		 ret	 0
?wndMgrShowOverInWindowName@@YAPAU_object@@PAU1@0@Z ENDP ; wndMgrShowOverInWindowName
_TEXT	ENDS
; Function compile flags: /Ogtp
; File C:\Users\flourine\Desktop\Xantios\client-src\Code\eterPythonLib\PythonWindowManagerModule.cpp
;	COMDAT ?wndMgrSetOutlineFlag@@YAPAU_object@@PAU1@0@Z
_TEXT	SEGMENT
_iFlag$ = -4						; size = 4
_poSelf$ = 8						; size = 4
_poArgs$ = 12						; size = 4
?wndMgrSetOutlineFlag@@YAPAU_object@@PAU1@0@Z PROC	; wndMgrSetOutlineFlag, COMDAT

; 3519 : {

  00000	55		 push	 ebp
  00001	8b ec		 mov	 ebp, esp
  00003	51		 push	 ecx

; 3520 : 	int iFlag;
; 3521 : 	if (!PyTuple_GetInteger(poArgs, 0, &iFlag))

  00004	8d 45 fc	 lea	 eax, DWORD PTR _iFlag$[ebp]
  00007	50		 push	 eax
  00008	6a 00		 push	 0
  0000a	ff 75 0c	 push	 DWORD PTR _poArgs$[ebp]
  0000d	e8 00 00 00 00	 call	 ?PyTuple_GetInteger@@YA_NPAU_object@@HPAH@Z ; PyTuple_GetInteger
  00012	83 c4 0c	 add	 esp, 12			; 0000000cH
  00015	84 c0		 test	 al, al
  00017	75 0e		 jne	 SHORT $LN2@wndMgrSetO

; 3522 : 	{
; 3523 : 		return Py_BuildException();

  00019	6a 00		 push	 0
  0001b	e8 00 00 00 00	 call	 ?Py_BuildException@@YAPAU_object@@PBDZZ ; Py_BuildException
  00020	83 c4 04	 add	 esp, 4

; 3529 : }

  00023	8b e5		 mov	 esp, ebp
  00025	5d		 pop	 ebp
  00026	c3		 ret	 0
$LN2@wndMgrSetO:

; 3524 : 	}
; 3525 : 
; 3526 : 	g_bOutlineBoxEnable = iFlag;

  00027	8b 45 fc	 mov	 eax, DWORD PTR _iFlag$[ebp]
  0002a	a3 00 00 00 00	 mov	 DWORD PTR ?g_bOutlineBoxEnable@@3HA, eax ; g_bOutlineBoxEnable

; 3527 : 
; 3528 : 	return Py_BuildNone();

  0002f	e8 00 00 00 00	 call	 ?Py_BuildNone@@YAPAU_object@@XZ ; Py_BuildNone

; 3529 : }

  00034	8b e5		 mov	 esp, ebp
  00036	5d		 pop	 ebp
  00037	c3		 ret	 0
?wndMgrSetOutlineFlag@@YAPAU_object@@PAU1@0@Z ENDP	; wndMgrSetOutlineFlag
_TEXT	ENDS
; Function compile flags: /Ogtp
; File C:\Users\flourine\Desktop\Xantios\client-src\Code\eterPythonLib\PythonWindowManagerModule.cpp
;	COMDAT ?wndButtonIsDown@@YAPAU_object@@PAU1@0@Z
_TEXT	SEGMENT
_pWindow$ = -4						; size = 4
_poSelf$ = 8						; size = 4
_poArgs$ = 12						; size = 4
?wndButtonIsDown@@YAPAU_object@@PAU1@0@Z PROC		; wndButtonIsDown, COMDAT

; 3505 : {

  00000	55		 push	 ebp
  00001	8b ec		 mov	 ebp, esp
  00003	51		 push	 ecx

; 3506 : 	UI::CWindow * pWindow;
; 3507 : 	if (!PyTuple_GetWindow(poArgs, 0, &pWindow))

  00004	8d 45 fc	 lea	 eax, DWORD PTR _pWindow$[ebp]
  00007	50		 push	 eax
  00008	6a 00		 push	 0
  0000a	ff 75 0c	 push	 DWORD PTR _poArgs$[ebp]
  0000d	e8 00 00 00 00	 call	 ?PyTuple_GetWindow@@YA_NPAU_object@@HPAPAVCWindow@UI@@@Z ; PyTuple_GetWindow
  00012	83 c4 0c	 add	 esp, 12			; 0000000cH
  00015	84 c0		 test	 al, al
  00017	75 0e		 jne	 SHORT $LN2@wndButtonI

; 3508 : 	{
; 3509 : 		return Py_BuildException();

  00019	6a 00		 push	 0
  0001b	e8 00 00 00 00	 call	 ?Py_BuildException@@YAPAU_object@@PBDZZ ; Py_BuildException
  00020	83 c4 04	 add	 esp, 4

; 3513 : }

  00023	8b e5		 mov	 esp, ebp
  00025	5d		 pop	 ebp
  00026	c3		 ret	 0
$LN2@wndButtonI:

; 3510 : 	}
; 3511 : 
; 3512 : 	return Py_BuildValue("i", ((UI::CButton*)pWindow)->IsPressed());

  00027	8b 4d fc	 mov	 ecx, DWORD PTR _pWindow$[ebp]
  0002a	e8 00 00 00 00	 call	 ?IsPressed@CButton@UI@@QAEHXZ ; UI::CButton::IsPressed
  0002f	50		 push	 eax
  00030	68 00 00 00 00	 push	 OFFSET ??_C@_01KBJDNOO@i@
  00035	ff 15 00 00 00
	00		 call	 DWORD PTR __imp__Py_BuildValue
  0003b	83 c4 08	 add	 esp, 8

; 3513 : }

  0003e	8b e5		 mov	 esp, ebp
  00040	5d		 pop	 ebp
  00041	c3		 ret	 0
?wndButtonIsDown@@YAPAU_object@@PAU1@0@Z ENDP		; wndButtonIsDown
_TEXT	ENDS
; Function compile flags: /Ogtp
; File C:\Users\flourine\Desktop\Xantios\client-src\Code\eterPythonLib\PythonWindowManagerModule.cpp
;	COMDAT ?wndButtonSetRestrictMovementArea@@YAPAU_object@@PAU1@0@Z
_TEXT	SEGMENT
_pWindow$ = -20						; size = 4
_ix$ = -16						; size = 4
_iy$ = -12						; size = 4
_iwidth$ = -8						; size = 4
_iheight$ = -4						; size = 4
_poSelf$ = 8						; size = 4
_poArgs$ = 12						; size = 4
?wndButtonSetRestrictMovementArea@@YAPAU_object@@PAU1@0@Z PROC ; wndButtonSetRestrictMovementArea, COMDAT

; 3472 : {

  00000	55		 push	 ebp
  00001	8b ec		 mov	 ebp, esp
  00003	83 ec 14	 sub	 esp, 20			; 00000014H

; 3473 : 	UI::CWindow * pWindow;
; 3474 : 	if (!PyTuple_GetWindow(poArgs, 0, &pWindow))

  00006	8d 45 ec	 lea	 eax, DWORD PTR _pWindow$[ebp]
  00009	56		 push	 esi
  0000a	8b 75 0c	 mov	 esi, DWORD PTR _poArgs$[ebp]
  0000d	50		 push	 eax
  0000e	6a 00		 push	 0
  00010	56		 push	 esi
  00011	e8 00 00 00 00	 call	 ?PyTuple_GetWindow@@YA_NPAU_object@@HPAPAVCWindow@UI@@@Z ; PyTuple_GetWindow
  00016	83 c4 0c	 add	 esp, 12			; 0000000cH
  00019	84 c0		 test	 al, al
  0001b	75 0f		 jne	 SHORT $LN2@wndButtonS
$LN8@wndButtonS:

; 3502 : }

  0001d	6a 00		 push	 0
  0001f	e8 00 00 00 00	 call	 ?Py_BuildException@@YAPAU_object@@PBDZZ ; Py_BuildException
  00024	83 c4 04	 add	 esp, 4
  00027	5e		 pop	 esi
  00028	8b e5		 mov	 esp, ebp
  0002a	5d		 pop	 ebp
  0002b	c3		 ret	 0
$LN2@wndButtonS:

; 3475 : 	{
; 3476 : 		return Py_BuildException();
; 3477 : 	}
; 3478 : 	int ix;
; 3479 : 	if (!PyTuple_GetInteger(poArgs, 1, &ix))

  0002c	8d 45 f0	 lea	 eax, DWORD PTR _ix$[ebp]
  0002f	50		 push	 eax
  00030	6a 01		 push	 1
  00032	56		 push	 esi
  00033	e8 00 00 00 00	 call	 ?PyTuple_GetInteger@@YA_NPAU_object@@HPAH@Z ; PyTuple_GetInteger
  00038	83 c4 0c	 add	 esp, 12			; 0000000cH
  0003b	84 c0		 test	 al, al
  0003d	74 de		 je	 SHORT $LN8@wndButtonS

; 3480 : 	{
; 3481 : 		return Py_BuildException();
; 3482 : 	}
; 3483 : 	int iy;
; 3484 : 	if (!PyTuple_GetInteger(poArgs, 2, &iy))

  0003f	8d 45 f4	 lea	 eax, DWORD PTR _iy$[ebp]
  00042	50		 push	 eax
  00043	6a 02		 push	 2
  00045	56		 push	 esi
  00046	e8 00 00 00 00	 call	 ?PyTuple_GetInteger@@YA_NPAU_object@@HPAH@Z ; PyTuple_GetInteger
  0004b	83 c4 0c	 add	 esp, 12			; 0000000cH
  0004e	84 c0		 test	 al, al
  00050	74 cb		 je	 SHORT $LN8@wndButtonS

; 3485 : 	{
; 3486 : 		return Py_BuildException();
; 3487 : 	}
; 3488 : 	int iwidth;
; 3489 : 	if (!PyTuple_GetInteger(poArgs, 3, &iwidth))

  00052	8d 45 f8	 lea	 eax, DWORD PTR _iwidth$[ebp]
  00055	50		 push	 eax
  00056	6a 03		 push	 3
  00058	56		 push	 esi
  00059	e8 00 00 00 00	 call	 ?PyTuple_GetInteger@@YA_NPAU_object@@HPAH@Z ; PyTuple_GetInteger
  0005e	83 c4 0c	 add	 esp, 12			; 0000000cH
  00061	84 c0		 test	 al, al
  00063	74 b8		 je	 SHORT $LN8@wndButtonS

; 3490 : 	{
; 3491 : 		return Py_BuildException();
; 3492 : 	}
; 3493 : 	int iheight;
; 3494 : 	if (!PyTuple_GetInteger(poArgs, 4, &iheight))

  00065	8d 45 fc	 lea	 eax, DWORD PTR _iheight$[ebp]
  00068	50		 push	 eax
  00069	6a 04		 push	 4
  0006b	56		 push	 esi
  0006c	e8 00 00 00 00	 call	 ?PyTuple_GetInteger@@YA_NPAU_object@@HPAH@Z ; PyTuple_GetInteger
  00071	83 c4 0c	 add	 esp, 12			; 0000000cH
  00074	84 c0		 test	 al, al
  00076	74 a5		 je	 SHORT $LN8@wndButtonS

; 3495 : 	{
; 3496 : 		return Py_BuildException();
; 3497 : 	}
; 3498 : 
; 3499 : 	((UI::CDragButton*)pWindow)->SetRestrictMovementArea(ix, iy, iwidth, iheight);

  00078	ff 75 fc	 push	 DWORD PTR _iheight$[ebp]
  0007b	8b 4d ec	 mov	 ecx, DWORD PTR _pWindow$[ebp]
  0007e	ff 75 f8	 push	 DWORD PTR _iwidth$[ebp]
  00081	ff 75 f4	 push	 DWORD PTR _iy$[ebp]
  00084	ff 75 f0	 push	 DWORD PTR _ix$[ebp]
  00087	e8 00 00 00 00	 call	 ?SetRestrictMovementArea@CDragButton@UI@@QAEXHHHH@Z ; UI::CDragButton::SetRestrictMovementArea

; 3500 : 
; 3501 : 	return Py_BuildNone();

  0008c	e8 00 00 00 00	 call	 ?Py_BuildNone@@YAPAU_object@@XZ ; Py_BuildNone
  00091	5e		 pop	 esi

; 3502 : }

  00092	8b e5		 mov	 esp, ebp
  00094	5d		 pop	 ebp
  00095	c3		 ret	 0
?wndButtonSetRestrictMovementArea@@YAPAU_object@@PAU1@0@Z ENDP ; wndButtonSetRestrictMovementArea
_TEXT	ENDS
; Function compile flags: /Ogtp
; File C:\Users\flourine\Desktop\Xantios\client-src\Code\eterPythonLib\PythonWindowManagerModule.cpp
;	COMDAT ?wndButtonSetUp@@YAPAU_object@@PAU1@0@Z
_TEXT	SEGMENT
_pWindow$ = -4						; size = 4
_poSelf$ = 8						; size = 4
_poArgs$ = 12						; size = 4
?wndButtonSetUp@@YAPAU_object@@PAU1@0@Z PROC		; wndButtonSetUp, COMDAT

; 3460 : {

  00000	55		 push	 ebp
  00001	8b ec		 mov	 ebp, esp
  00003	51		 push	 ecx

; 3461 : 	UI::CWindow * pWindow;
; 3462 : 	if (!PyTuple_GetWindow(poArgs, 0, &pWindow))

  00004	8d 45 fc	 lea	 eax, DWORD PTR _pWindow$[ebp]
  00007	50		 push	 eax
  00008	6a 00		 push	 0
  0000a	ff 75 0c	 push	 DWORD PTR _poArgs$[ebp]
  0000d	e8 00 00 00 00	 call	 ?PyTuple_GetWindow@@YA_NPAU_object@@HPAPAVCWindow@UI@@@Z ; PyTuple_GetWindow
  00012	83 c4 0c	 add	 esp, 12			; 0000000cH
  00015	84 c0		 test	 al, al
  00017	75 0e		 jne	 SHORT $LN2@wndButtonS

; 3463 : 	{
; 3464 : 		return Py_BuildException();

  00019	6a 00		 push	 0
  0001b	e8 00 00 00 00	 call	 ?Py_BuildException@@YAPAU_object@@PBDZZ ; Py_BuildException
  00020	83 c4 04	 add	 esp, 4

; 3470 : }

  00023	8b e5		 mov	 esp, ebp
  00025	5d		 pop	 ebp
  00026	c3		 ret	 0
$LN2@wndButtonS:

; 3465 : 	}
; 3466 : 
; 3467 : 	((UI::CButton*)pWindow)->SetUp();

  00027	8b 4d fc	 mov	 ecx, DWORD PTR _pWindow$[ebp]
  0002a	e8 00 00 00 00	 call	 ?SetUp@CButton@UI@@QAEXXZ ; UI::CButton::SetUp

; 3468 : 
; 3469 : 	return Py_BuildNone();

  0002f	e8 00 00 00 00	 call	 ?Py_BuildNone@@YAPAU_object@@XZ ; Py_BuildNone

; 3470 : }

  00034	8b e5		 mov	 esp, ebp
  00036	5d		 pop	 ebp
  00037	c3		 ret	 0
?wndButtonSetUp@@YAPAU_object@@PAU1@0@Z ENDP		; wndButtonSetUp
_TEXT	ENDS
; Function compile flags: /Ogtp
; File C:\Users\flourine\Desktop\Xantios\client-src\Code\eterPythonLib\PythonWindowManagerModule.cpp
;	COMDAT ?wndButtonDown@@YAPAU_object@@PAU1@0@Z
_TEXT	SEGMENT
_pWindow$ = -4						; size = 4
_poSelf$ = 8						; size = 4
_poArgs$ = 12						; size = 4
?wndButtonDown@@YAPAU_object@@PAU1@0@Z PROC		; wndButtonDown, COMDAT

; 3448 : {

  00000	55		 push	 ebp
  00001	8b ec		 mov	 ebp, esp
  00003	51		 push	 ecx

; 3449 : 	UI::CWindow * pWindow;
; 3450 : 	if (!PyTuple_GetWindow(poArgs, 0, &pWindow))

  00004	8d 45 fc	 lea	 eax, DWORD PTR _pWindow$[ebp]
  00007	50		 push	 eax
  00008	6a 00		 push	 0
  0000a	ff 75 0c	 push	 DWORD PTR _poArgs$[ebp]
  0000d	e8 00 00 00 00	 call	 ?PyTuple_GetWindow@@YA_NPAU_object@@HPAPAVCWindow@UI@@@Z ; PyTuple_GetWindow
  00012	83 c4 0c	 add	 esp, 12			; 0000000cH
  00015	84 c0		 test	 al, al
  00017	75 0e		 jne	 SHORT $LN2@wndButtonD

; 3451 : 	{
; 3452 : 		return Py_BuildException();

  00019	6a 00		 push	 0
  0001b	e8 00 00 00 00	 call	 ?Py_BuildException@@YAPAU_object@@PBDZZ ; Py_BuildException
  00020	83 c4 04	 add	 esp, 4

; 3458 : }

  00023	8b e5		 mov	 esp, ebp
  00025	5d		 pop	 ebp
  00026	c3		 ret	 0
$LN2@wndButtonD:

; 3453 : 	}
; 3454 : 
; 3455 : 	((UI::CButton*)pWindow)->Down();

  00027	8b 4d fc	 mov	 ecx, DWORD PTR _pWindow$[ebp]
  0002a	e8 00 00 00 00	 call	 ?Down@CButton@UI@@QAEXXZ ; UI::CButton::Down

; 3456 : 
; 3457 : 	return Py_BuildNone();

  0002f	e8 00 00 00 00	 call	 ?Py_BuildNone@@YAPAU_object@@XZ ; Py_BuildNone

; 3458 : }

  00034	8b e5		 mov	 esp, ebp
  00036	5d		 pop	 ebp
  00037	c3		 ret	 0
?wndButtonDown@@YAPAU_object@@PAU1@0@Z ENDP		; wndButtonDown
_TEXT	ENDS
; Function compile flags: /Ogtp
; File C:\Users\flourine\Desktop\Xantios\client-src\Code\eterPythonLib\PythonWindowManagerModule.cpp
;	COMDAT ?wndButtonIsEnabled@@YAPAU_object@@PAU1@0@Z
_TEXT	SEGMENT
_pWindow$ = -4						; size = 4
_poSelf$ = 8						; size = 4
_poArgs$ = 12						; size = 4
?wndButtonIsEnabled@@YAPAU_object@@PAU1@0@Z PROC	; wndButtonIsEnabled, COMDAT

; 3438 : {

  00000	55		 push	 ebp
  00001	8b ec		 mov	 ebp, esp
  00003	51		 push	 ecx

; 3439 : 	UI::CWindow* pWindow;
; 3440 : 	if (!PyTuple_GetWindow(poArgs, 0, &pWindow))

  00004	8d 45 fc	 lea	 eax, DWORD PTR _pWindow$[ebp]
  00007	50		 push	 eax
  00008	6a 00		 push	 0
  0000a	ff 75 0c	 push	 DWORD PTR _poArgs$[ebp]
  0000d	e8 00 00 00 00	 call	 ?PyTuple_GetWindow@@YA_NPAU_object@@HPAPAVCWindow@UI@@@Z ; PyTuple_GetWindow
  00012	83 c4 0c	 add	 esp, 12			; 0000000cH
  00015	84 c0		 test	 al, al
  00017	75 0e		 jne	 SHORT $LN2@wndButtonI

; 3441 : 	{
; 3442 : 		return Py_BuildException();

  00019	6a 00		 push	 0
  0001b	e8 00 00 00 00	 call	 ?Py_BuildException@@YAPAU_object@@PBDZZ ; Py_BuildException
  00020	83 c4 04	 add	 esp, 4

; 3446 : }

  00023	8b e5		 mov	 esp, ebp
  00025	5d		 pop	 ebp
  00026	c3		 ret	 0
$LN2@wndButtonI:

; 3443 : 	}
; 3444 : 
; 3445 : 	return Py_BuildValue("b", ((UI::CButton*)pWindow)->IsDisable());

  00027	8b 4d fc	 mov	 ecx, DWORD PTR _pWindow$[ebp]
  0002a	e8 00 00 00 00	 call	 ?IsDisable@CButton@UI@@QAEHXZ ; UI::CButton::IsDisable
  0002f	50		 push	 eax
  00030	68 00 00 00 00	 push	 OFFSET ??_C@_01OJONOECF@b@
  00035	ff 15 00 00 00
	00		 call	 DWORD PTR __imp__Py_BuildValue
  0003b	83 c4 08	 add	 esp, 8

; 3446 : }

  0003e	8b e5		 mov	 esp, ebp
  00040	5d		 pop	 ebp
  00041	c3		 ret	 0
?wndButtonIsEnabled@@YAPAU_object@@PAU1@0@Z ENDP	; wndButtonIsEnabled
_TEXT	ENDS
; Function compile flags: /Ogtp
; File C:\Users\flourine\Desktop\Xantios\client-src\Code\eterPythonLib\PythonWindowManagerModule.cpp
;	COMDAT ?wndButtonDisable@@YAPAU_object@@PAU1@0@Z
_TEXT	SEGMENT
_pWindow$ = -4						; size = 4
_poSelf$ = 8						; size = 4
_poArgs$ = 12						; size = 4
?wndButtonDisable@@YAPAU_object@@PAU1@0@Z PROC		; wndButtonDisable, COMDAT

; 3426 : {

  00000	55		 push	 ebp
  00001	8b ec		 mov	 ebp, esp
  00003	51		 push	 ecx

; 3427 : 	UI::CWindow * pWindow;
; 3428 : 	if (!PyTuple_GetWindow(poArgs, 0, &pWindow))

  00004	8d 45 fc	 lea	 eax, DWORD PTR _pWindow$[ebp]
  00007	50		 push	 eax
  00008	6a 00		 push	 0
  0000a	ff 75 0c	 push	 DWORD PTR _poArgs$[ebp]
  0000d	e8 00 00 00 00	 call	 ?PyTuple_GetWindow@@YA_NPAU_object@@HPAPAVCWindow@UI@@@Z ; PyTuple_GetWindow
  00012	83 c4 0c	 add	 esp, 12			; 0000000cH
  00015	84 c0		 test	 al, al
  00017	75 0e		 jne	 SHORT $LN2@wndButtonD

; 3429 : 	{
; 3430 : 		return Py_BuildException();

  00019	6a 00		 push	 0
  0001b	e8 00 00 00 00	 call	 ?Py_BuildException@@YAPAU_object@@PBDZZ ; Py_BuildException
  00020	83 c4 04	 add	 esp, 4

; 3436 : }

  00023	8b e5		 mov	 esp, ebp
  00025	5d		 pop	 ebp
  00026	c3		 ret	 0
$LN2@wndButtonD:

; 3431 : 	}
; 3432 : 
; 3433 : 	((UI::CButton*)pWindow)->Disable();

  00027	8b 4d fc	 mov	 ecx, DWORD PTR _pWindow$[ebp]
  0002a	e8 00 00 00 00	 call	 ?Disable@CButton@UI@@QAEXXZ ; UI::CButton::Disable

; 3434 : 
; 3435 : 	return Py_BuildNone();

  0002f	e8 00 00 00 00	 call	 ?Py_BuildNone@@YAPAU_object@@XZ ; Py_BuildNone

; 3436 : }

  00034	8b e5		 mov	 esp, ebp
  00036	5d		 pop	 ebp
  00037	c3		 ret	 0
?wndButtonDisable@@YAPAU_object@@PAU1@0@Z ENDP		; wndButtonDisable
_TEXT	ENDS
; Function compile flags: /Ogtp
; File C:\Users\flourine\Desktop\Xantios\client-src\Code\eterPythonLib\PythonWindowManagerModule.cpp
;	COMDAT ?wndButtonEnable@@YAPAU_object@@PAU1@0@Z
_TEXT	SEGMENT
_pWindow$ = -4						; size = 4
_poSelf$ = 8						; size = 4
_poArgs$ = 12						; size = 4
?wndButtonEnable@@YAPAU_object@@PAU1@0@Z PROC		; wndButtonEnable, COMDAT

; 3414 : {

  00000	55		 push	 ebp
  00001	8b ec		 mov	 ebp, esp
  00003	51		 push	 ecx

; 3415 : 	UI::CWindow * pWindow;
; 3416 : 	if (!PyTuple_GetWindow(poArgs, 0, &pWindow))

  00004	8d 45 fc	 lea	 eax, DWORD PTR _pWindow$[ebp]
  00007	50		 push	 eax
  00008	6a 00		 push	 0
  0000a	ff 75 0c	 push	 DWORD PTR _poArgs$[ebp]
  0000d	e8 00 00 00 00	 call	 ?PyTuple_GetWindow@@YA_NPAU_object@@HPAPAVCWindow@UI@@@Z ; PyTuple_GetWindow
  00012	83 c4 0c	 add	 esp, 12			; 0000000cH
  00015	84 c0		 test	 al, al
  00017	75 0e		 jne	 SHORT $LN2@wndButtonE

; 3417 : 	{
; 3418 : 		return Py_BuildException();

  00019	6a 00		 push	 0
  0001b	e8 00 00 00 00	 call	 ?Py_BuildException@@YAPAU_object@@PBDZZ ; Py_BuildException
  00020	83 c4 04	 add	 esp, 4

; 3424 : }

  00023	8b e5		 mov	 esp, ebp
  00025	5d		 pop	 ebp
  00026	c3		 ret	 0
$LN2@wndButtonE:

; 3419 : 	}
; 3420 : 
; 3421 : 	((UI::CButton*)pWindow)->Enable();

  00027	8b 4d fc	 mov	 ecx, DWORD PTR _pWindow$[ebp]
  0002a	e8 00 00 00 00	 call	 ?Enable@CButton@UI@@QAEXXZ ; UI::CButton::Enable

; 3422 : 
; 3423 : 	return Py_BuildNone();

  0002f	e8 00 00 00 00	 call	 ?Py_BuildNone@@YAPAU_object@@XZ ; Py_BuildNone

; 3424 : }

  00034	8b e5		 mov	 esp, ebp
  00036	5d		 pop	 ebp
  00037	c3		 ret	 0
?wndButtonEnable@@YAPAU_object@@PAU1@0@Z ENDP		; wndButtonEnable
_TEXT	ENDS
; Function compile flags: /Ogtp
; File C:\Users\flourine\Desktop\Xantios\client-src\Code\eterPythonLib\PythonWindowManagerModule.cpp
;	COMDAT ?wndButtonFlash@@YAPAU_object@@PAU1@0@Z
_TEXT	SEGMENT
_pWindow$ = -4						; size = 4
_poSelf$ = 8						; size = 4
_poArgs$ = 12						; size = 4
?wndButtonFlash@@YAPAU_object@@PAU1@0@Z PROC		; wndButtonFlash, COMDAT

; 3402 : {

  00000	55		 push	 ebp
  00001	8b ec		 mov	 ebp, esp
  00003	51		 push	 ecx

; 3403 : 	UI::CWindow * pWindow;
; 3404 : 	if (!PyTuple_GetWindow(poArgs, 0, &pWindow))

  00004	8d 45 fc	 lea	 eax, DWORD PTR _pWindow$[ebp]
  00007	50		 push	 eax
  00008	6a 00		 push	 0
  0000a	ff 75 0c	 push	 DWORD PTR _poArgs$[ebp]
  0000d	e8 00 00 00 00	 call	 ?PyTuple_GetWindow@@YA_NPAU_object@@HPAPAVCWindow@UI@@@Z ; PyTuple_GetWindow
  00012	83 c4 0c	 add	 esp, 12			; 0000000cH
  00015	84 c0		 test	 al, al
  00017	75 0e		 jne	 SHORT $LN2@wndButtonF

; 3405 : 	{
; 3406 : 		return Py_BuildException();

  00019	6a 00		 push	 0
  0001b	e8 00 00 00 00	 call	 ?Py_BuildException@@YAPAU_object@@PBDZZ ; Py_BuildException
  00020	83 c4 04	 add	 esp, 4

; 3412 : }

  00023	8b e5		 mov	 esp, ebp
  00025	5d		 pop	 ebp
  00026	c3		 ret	 0
$LN2@wndButtonF:

; 3407 : 	}
; 3408 : 
; 3409 : 	((UI::CButton*)pWindow)->Flash();

  00027	8b 4d fc	 mov	 ecx, DWORD PTR _pWindow$[ebp]
  0002a	e8 00 00 00 00	 call	 ?Flash@CButton@UI@@QAEXXZ ; UI::CButton::Flash

; 3410 : 
; 3411 : 	return Py_BuildNone();

  0002f	e8 00 00 00 00	 call	 ?Py_BuildNone@@YAPAU_object@@XZ ; Py_BuildNone

; 3412 : }

  00034	8b e5		 mov	 esp, ebp
  00036	5d		 pop	 ebp
  00037	c3		 ret	 0
?wndButtonFlash@@YAPAU_object@@PAU1@0@Z ENDP		; wndButtonFlash
_TEXT	ENDS
; Function compile flags: /Ogtp
; File C:\Users\flourine\Desktop\Xantios\client-src\Code\eterPythonLib\PythonWindowManagerModule.cpp
;	COMDAT ?wndButtonGetDownVisualFileName@@YAPAU_object@@PAU1@0@Z
_TEXT	SEGMENT
_pWindow$ = -4						; size = 4
_poSelf$ = 8						; size = 4
_poArgs$ = 12						; size = 4
?wndButtonGetDownVisualFileName@@YAPAU_object@@PAU1@0@Z PROC ; wndButtonGetDownVisualFileName, COMDAT

; 3392 : {

  00000	55		 push	 ebp
  00001	8b ec		 mov	 ebp, esp
  00003	51		 push	 ecx

; 3393 : 	UI::CWindow * pWindow;
; 3394 : 	if (!PyTuple_GetWindow(poArgs, 0, &pWindow))

  00004	8d 45 fc	 lea	 eax, DWORD PTR _pWindow$[ebp]
  00007	50		 push	 eax
  00008	6a 00		 push	 0
  0000a	ff 75 0c	 push	 DWORD PTR _poArgs$[ebp]
  0000d	e8 00 00 00 00	 call	 ?PyTuple_GetWindow@@YA_NPAU_object@@HPAPAVCWindow@UI@@@Z ; PyTuple_GetWindow
  00012	83 c4 0c	 add	 esp, 12			; 0000000cH
  00015	84 c0		 test	 al, al
  00017	75 0e		 jne	 SHORT $LN2@wndButtonG

; 3395 : 	{
; 3396 : 		return Py_BuildException();

  00019	6a 00		 push	 0
  0001b	e8 00 00 00 00	 call	 ?Py_BuildException@@YAPAU_object@@PBDZZ ; Py_BuildException
  00020	83 c4 04	 add	 esp, 4

; 3400 : }

  00023	8b e5		 mov	 esp, ebp
  00025	5d		 pop	 ebp
  00026	c3		 ret	 0
$LN2@wndButtonG:

; 3397 : 	}
; 3398 : 
; 3399 : 	return Py_BuildValue("s", ((UI::CButton*)pWindow)->GetDownVisualFileName());

  00027	8b 4d fc	 mov	 ecx, DWORD PTR _pWindow$[ebp]
  0002a	e8 00 00 00 00	 call	 ?GetDownVisualFileName@CButton@UI@@QAEPBDXZ ; UI::CButton::GetDownVisualFileName
  0002f	50		 push	 eax
  00030	68 00 00 00 00	 push	 OFFSET ??_C@_01LKDEMHDF@s@
  00035	ff 15 00 00 00
	00		 call	 DWORD PTR __imp__Py_BuildValue
  0003b	83 c4 08	 add	 esp, 8

; 3400 : }

  0003e	8b e5		 mov	 esp, ebp
  00040	5d		 pop	 ebp
  00041	c3		 ret	 0
?wndButtonGetDownVisualFileName@@YAPAU_object@@PAU1@0@Z ENDP ; wndButtonGetDownVisualFileName
_TEXT	ENDS
; Function compile flags: /Ogtp
; File C:\Users\flourine\Desktop\Xantios\client-src\Code\eterPythonLib\PythonWindowManagerModule.cpp
;	COMDAT ?wndButtonGetOverVisualFileName@@YAPAU_object@@PAU1@0@Z
_TEXT	SEGMENT
_pWindow$ = -4						; size = 4
_poSelf$ = 8						; size = 4
_poArgs$ = 12						; size = 4
?wndButtonGetOverVisualFileName@@YAPAU_object@@PAU1@0@Z PROC ; wndButtonGetOverVisualFileName, COMDAT

; 3382 : {

  00000	55		 push	 ebp
  00001	8b ec		 mov	 ebp, esp
  00003	51		 push	 ecx

; 3383 : 	UI::CWindow * pWindow;
; 3384 : 	if (!PyTuple_GetWindow(poArgs, 0, &pWindow))

  00004	8d 45 fc	 lea	 eax, DWORD PTR _pWindow$[ebp]
  00007	50		 push	 eax
  00008	6a 00		 push	 0
  0000a	ff 75 0c	 push	 DWORD PTR _poArgs$[ebp]
  0000d	e8 00 00 00 00	 call	 ?PyTuple_GetWindow@@YA_NPAU_object@@HPAPAVCWindow@UI@@@Z ; PyTuple_GetWindow
  00012	83 c4 0c	 add	 esp, 12			; 0000000cH
  00015	84 c0		 test	 al, al
  00017	75 0e		 jne	 SHORT $LN2@wndButtonG

; 3385 : 	{
; 3386 : 		return Py_BuildException();

  00019	6a 00		 push	 0
  0001b	e8 00 00 00 00	 call	 ?Py_BuildException@@YAPAU_object@@PBDZZ ; Py_BuildException
  00020	83 c4 04	 add	 esp, 4

; 3390 : }

  00023	8b e5		 mov	 esp, ebp
  00025	5d		 pop	 ebp
  00026	c3		 ret	 0
$LN2@wndButtonG:

; 3387 : 	}
; 3388 : 
; 3389 : 	return Py_BuildValue("s", ((UI::CButton*)pWindow)->GetOverVisualFileName());

  00027	8b 4d fc	 mov	 ecx, DWORD PTR _pWindow$[ebp]
  0002a	e8 00 00 00 00	 call	 ?GetOverVisualFileName@CButton@UI@@QAEPBDXZ ; UI::CButton::GetOverVisualFileName
  0002f	50		 push	 eax
  00030	68 00 00 00 00	 push	 OFFSET ??_C@_01LKDEMHDF@s@
  00035	ff 15 00 00 00
	00		 call	 DWORD PTR __imp__Py_BuildValue
  0003b	83 c4 08	 add	 esp, 8

; 3390 : }

  0003e	8b e5		 mov	 esp, ebp
  00040	5d		 pop	 ebp
  00041	c3		 ret	 0
?wndButtonGetOverVisualFileName@@YAPAU_object@@PAU1@0@Z ENDP ; wndButtonGetOverVisualFileName
_TEXT	ENDS
; Function compile flags: /Ogtp
; File C:\Users\flourine\Desktop\Xantios\client-src\Code\eterPythonLib\PythonWindowManagerModule.cpp
;	COMDAT ?wndButtonGetUpVisualFileName@@YAPAU_object@@PAU1@0@Z
_TEXT	SEGMENT
_pWindow$ = -4						; size = 4
_poSelf$ = 8						; size = 4
_poArgs$ = 12						; size = 4
?wndButtonGetUpVisualFileName@@YAPAU_object@@PAU1@0@Z PROC ; wndButtonGetUpVisualFileName, COMDAT

; 3372 : {

  00000	55		 push	 ebp
  00001	8b ec		 mov	 ebp, esp
  00003	51		 push	 ecx

; 3373 : 	UI::CWindow * pWindow;
; 3374 : 	if (!PyTuple_GetWindow(poArgs, 0, &pWindow))

  00004	8d 45 fc	 lea	 eax, DWORD PTR _pWindow$[ebp]
  00007	50		 push	 eax
  00008	6a 00		 push	 0
  0000a	ff 75 0c	 push	 DWORD PTR _poArgs$[ebp]
  0000d	e8 00 00 00 00	 call	 ?PyTuple_GetWindow@@YA_NPAU_object@@HPAPAVCWindow@UI@@@Z ; PyTuple_GetWindow
  00012	83 c4 0c	 add	 esp, 12			; 0000000cH
  00015	84 c0		 test	 al, al
  00017	75 0e		 jne	 SHORT $LN2@wndButtonG

; 3375 : 	{
; 3376 : 		return Py_BuildException();

  00019	6a 00		 push	 0
  0001b	e8 00 00 00 00	 call	 ?Py_BuildException@@YAPAU_object@@PBDZZ ; Py_BuildException
  00020	83 c4 04	 add	 esp, 4

; 3380 : }

  00023	8b e5		 mov	 esp, ebp
  00025	5d		 pop	 ebp
  00026	c3		 ret	 0
$LN2@wndButtonG:

; 3377 : 	}
; 3378 : 
; 3379 : 	return Py_BuildValue("s", ((UI::CButton*)pWindow)->GetUpVisualFileName());

  00027	8b 4d fc	 mov	 ecx, DWORD PTR _pWindow$[ebp]
  0002a	e8 00 00 00 00	 call	 ?GetUpVisualFileName@CButton@UI@@QAEPBDXZ ; UI::CButton::GetUpVisualFileName
  0002f	50		 push	 eax
  00030	68 00 00 00 00	 push	 OFFSET ??_C@_01LKDEMHDF@s@
  00035	ff 15 00 00 00
	00		 call	 DWORD PTR __imp__Py_BuildValue
  0003b	83 c4 08	 add	 esp, 8

; 3380 : }

  0003e	8b e5		 mov	 esp, ebp
  00040	5d		 pop	 ebp
  00041	c3		 ret	 0
?wndButtonGetUpVisualFileName@@YAPAU_object@@PAU1@0@Z ENDP ; wndButtonGetUpVisualFileName
_TEXT	ENDS
; Function compile flags: /Ogtp
; File C:\Users\flourine\Desktop\Xantios\client-src\Code\eterPythonLib\PythonWindowManagerModule.cpp
;	COMDAT ?wndButtonSetDisableVisual@@YAPAU_object@@PAU1@0@Z
_TEXT	SEGMENT
_pWindow$ = -8						; size = 4
_szFileName$ = -4					; size = 4
_poSelf$ = 8						; size = 4
_poArgs$ = 12						; size = 4
?wndButtonSetDisableVisual@@YAPAU_object@@PAU1@0@Z PROC	; wndButtonSetDisableVisual, COMDAT

; 3355 : {

  00000	55		 push	 ebp
  00001	8b ec		 mov	 ebp, esp
  00003	83 ec 08	 sub	 esp, 8

; 3356 : 	UI::CWindow * pWindow;
; 3357 : 	if (!PyTuple_GetWindow(poArgs, 0, &pWindow))

  00006	8d 45 f8	 lea	 eax, DWORD PTR _pWindow$[ebp]
  00009	50		 push	 eax
  0000a	6a 00		 push	 0
  0000c	ff 75 0c	 push	 DWORD PTR _poArgs$[ebp]
  0000f	e8 00 00 00 00	 call	 ?PyTuple_GetWindow@@YA_NPAU_object@@HPAPAVCWindow@UI@@@Z ; PyTuple_GetWindow
  00014	83 c4 0c	 add	 esp, 12			; 0000000cH
  00017	84 c0		 test	 al, al
  00019	75 0e		 jne	 SHORT $LN2@wndButtonS
$LN5@wndButtonS:

; 3370 : }

  0001b	6a 00		 push	 0
  0001d	e8 00 00 00 00	 call	 ?Py_BuildException@@YAPAU_object@@PBDZZ ; Py_BuildException
  00022	83 c4 04	 add	 esp, 4
  00025	8b e5		 mov	 esp, ebp
  00027	5d		 pop	 ebp
  00028	c3		 ret	 0
$LN2@wndButtonS:

; 3358 : 	{
; 3359 : 		return Py_BuildException();
; 3360 : 	}
; 3361 : 	char * szFileName;
; 3362 : 	if (!PyTuple_GetString(poArgs, 1, &szFileName))

  00029	8d 45 fc	 lea	 eax, DWORD PTR _szFileName$[ebp]
  0002c	50		 push	 eax
  0002d	6a 01		 push	 1
  0002f	ff 75 0c	 push	 DWORD PTR _poArgs$[ebp]
  00032	e8 00 00 00 00	 call	 ?PyTuple_GetString@@YA_NPAU_object@@HPAPAD@Z ; PyTuple_GetString
  00037	83 c4 0c	 add	 esp, 12			; 0000000cH
  0003a	84 c0		 test	 al, al
  0003c	74 dd		 je	 SHORT $LN5@wndButtonS

; 3363 : 	{
; 3364 : 		return Py_BuildException();
; 3365 : 	}
; 3366 : 
; 3367 : 	((UI::CButton*)pWindow)->SetDisableVisual(szFileName);

  0003e	ff 75 fc	 push	 DWORD PTR _szFileName$[ebp]
  00041	8b 4d f8	 mov	 ecx, DWORD PTR _pWindow$[ebp]
  00044	e8 00 00 00 00	 call	 ?SetDisableVisual@CButton@UI@@QAEHPBD@Z ; UI::CButton::SetDisableVisual

; 3368 : 
; 3369 : 	return Py_BuildNone();

  00049	e8 00 00 00 00	 call	 ?Py_BuildNone@@YAPAU_object@@XZ ; Py_BuildNone

; 3370 : }

  0004e	8b e5		 mov	 esp, ebp
  00050	5d		 pop	 ebp
  00051	c3		 ret	 0
?wndButtonSetDisableVisual@@YAPAU_object@@PAU1@0@Z ENDP	; wndButtonSetDisableVisual
_TEXT	ENDS
; Function compile flags: /Ogtp
; File C:\Users\flourine\Desktop\Xantios\client-src\Code\eterPythonLib\PythonWindowManagerModule.cpp
;	COMDAT ?wndButtonSetDownVisual@@YAPAU_object@@PAU1@0@Z
_TEXT	SEGMENT
_pWindow$ = -8						; size = 4
_szFileName$ = -4					; size = 4
_poSelf$ = 8						; size = 4
_poArgs$ = 12						; size = 4
?wndButtonSetDownVisual@@YAPAU_object@@PAU1@0@Z PROC	; wndButtonSetDownVisual, COMDAT

; 3338 : {

  00000	55		 push	 ebp
  00001	8b ec		 mov	 ebp, esp
  00003	83 ec 08	 sub	 esp, 8

; 3339 : 	UI::CWindow * pWindow;
; 3340 : 	if (!PyTuple_GetWindow(poArgs, 0, &pWindow))

  00006	8d 45 f8	 lea	 eax, DWORD PTR _pWindow$[ebp]
  00009	50		 push	 eax
  0000a	6a 00		 push	 0
  0000c	ff 75 0c	 push	 DWORD PTR _poArgs$[ebp]
  0000f	e8 00 00 00 00	 call	 ?PyTuple_GetWindow@@YA_NPAU_object@@HPAPAVCWindow@UI@@@Z ; PyTuple_GetWindow
  00014	83 c4 0c	 add	 esp, 12			; 0000000cH
  00017	84 c0		 test	 al, al
  00019	75 0e		 jne	 SHORT $LN2@wndButtonS
$LN5@wndButtonS:

; 3353 : }

  0001b	6a 00		 push	 0
  0001d	e8 00 00 00 00	 call	 ?Py_BuildException@@YAPAU_object@@PBDZZ ; Py_BuildException
  00022	83 c4 04	 add	 esp, 4
  00025	8b e5		 mov	 esp, ebp
  00027	5d		 pop	 ebp
  00028	c3		 ret	 0
$LN2@wndButtonS:

; 3341 : 	{
; 3342 : 		return Py_BuildException();
; 3343 : 	}
; 3344 : 	char * szFileName;
; 3345 : 	if (!PyTuple_GetString(poArgs, 1, &szFileName))

  00029	8d 45 fc	 lea	 eax, DWORD PTR _szFileName$[ebp]
  0002c	50		 push	 eax
  0002d	6a 01		 push	 1
  0002f	ff 75 0c	 push	 DWORD PTR _poArgs$[ebp]
  00032	e8 00 00 00 00	 call	 ?PyTuple_GetString@@YA_NPAU_object@@HPAPAD@Z ; PyTuple_GetString
  00037	83 c4 0c	 add	 esp, 12			; 0000000cH
  0003a	84 c0		 test	 al, al
  0003c	74 dd		 je	 SHORT $LN5@wndButtonS

; 3346 : 	{
; 3347 : 		return Py_BuildException();
; 3348 : 	}
; 3349 : 
; 3350 : 	((UI::CButton*)pWindow)->SetDownVisual(szFileName);

  0003e	ff 75 fc	 push	 DWORD PTR _szFileName$[ebp]
  00041	8b 4d f8	 mov	 ecx, DWORD PTR _pWindow$[ebp]
  00044	e8 00 00 00 00	 call	 ?SetDownVisual@CButton@UI@@QAEHPBD@Z ; UI::CButton::SetDownVisual

; 3351 : 
; 3352 : 	return Py_BuildNone();

  00049	e8 00 00 00 00	 call	 ?Py_BuildNone@@YAPAU_object@@XZ ; Py_BuildNone

; 3353 : }

  0004e	8b e5		 mov	 esp, ebp
  00050	5d		 pop	 ebp
  00051	c3		 ret	 0
?wndButtonSetDownVisual@@YAPAU_object@@PAU1@0@Z ENDP	; wndButtonSetDownVisual
_TEXT	ENDS
; Function compile flags: /Ogtp
; File C:\Users\flourine\Desktop\Xantios\client-src\Code\eterPythonLib\PythonWindowManagerModule.cpp
;	COMDAT ?wndButtonSetOverVisual@@YAPAU_object@@PAU1@0@Z
_TEXT	SEGMENT
_pWindow$ = -8						; size = 4
_szFileName$ = -4					; size = 4
_poSelf$ = 8						; size = 4
_poArgs$ = 12						; size = 4
?wndButtonSetOverVisual@@YAPAU_object@@PAU1@0@Z PROC	; wndButtonSetOverVisual, COMDAT

; 3321 : {

  00000	55		 push	 ebp
  00001	8b ec		 mov	 ebp, esp
  00003	83 ec 08	 sub	 esp, 8

; 3322 : 	UI::CWindow * pWindow;
; 3323 : 	if (!PyTuple_GetWindow(poArgs, 0, &pWindow))

  00006	8d 45 f8	 lea	 eax, DWORD PTR _pWindow$[ebp]
  00009	50		 push	 eax
  0000a	6a 00		 push	 0
  0000c	ff 75 0c	 push	 DWORD PTR _poArgs$[ebp]
  0000f	e8 00 00 00 00	 call	 ?PyTuple_GetWindow@@YA_NPAU_object@@HPAPAVCWindow@UI@@@Z ; PyTuple_GetWindow
  00014	83 c4 0c	 add	 esp, 12			; 0000000cH
  00017	84 c0		 test	 al, al
  00019	75 0e		 jne	 SHORT $LN2@wndButtonS
$LN5@wndButtonS:

; 3336 : }

  0001b	6a 00		 push	 0
  0001d	e8 00 00 00 00	 call	 ?Py_BuildException@@YAPAU_object@@PBDZZ ; Py_BuildException
  00022	83 c4 04	 add	 esp, 4
  00025	8b e5		 mov	 esp, ebp
  00027	5d		 pop	 ebp
  00028	c3		 ret	 0
$LN2@wndButtonS:

; 3324 : 	{
; 3325 : 		return Py_BuildException();
; 3326 : 	}
; 3327 : 	char * szFileName;
; 3328 : 	if (!PyTuple_GetString(poArgs, 1, &szFileName))

  00029	8d 45 fc	 lea	 eax, DWORD PTR _szFileName$[ebp]
  0002c	50		 push	 eax
  0002d	6a 01		 push	 1
  0002f	ff 75 0c	 push	 DWORD PTR _poArgs$[ebp]
  00032	e8 00 00 00 00	 call	 ?PyTuple_GetString@@YA_NPAU_object@@HPAPAD@Z ; PyTuple_GetString
  00037	83 c4 0c	 add	 esp, 12			; 0000000cH
  0003a	84 c0		 test	 al, al
  0003c	74 dd		 je	 SHORT $LN5@wndButtonS

; 3329 : 	{
; 3330 : 		return Py_BuildException();
; 3331 : 	}
; 3332 : 
; 3333 : 	((UI::CButton*)pWindow)->SetOverVisual(szFileName);

  0003e	ff 75 fc	 push	 DWORD PTR _szFileName$[ebp]
  00041	8b 4d f8	 mov	 ecx, DWORD PTR _pWindow$[ebp]
  00044	e8 00 00 00 00	 call	 ?SetOverVisual@CButton@UI@@QAEHPBD@Z ; UI::CButton::SetOverVisual

; 3334 : 
; 3335 : 	return Py_BuildNone();

  00049	e8 00 00 00 00	 call	 ?Py_BuildNone@@YAPAU_object@@XZ ; Py_BuildNone

; 3336 : }

  0004e	8b e5		 mov	 esp, ebp
  00050	5d		 pop	 ebp
  00051	c3		 ret	 0
?wndButtonSetOverVisual@@YAPAU_object@@PAU1@0@Z ENDP	; wndButtonSetOverVisual
_TEXT	ENDS
; Function compile flags: /Ogtp
; File C:\Users\flourine\Desktop\Xantios\client-src\Code\eterPythonLib\PythonWindowManagerModule.cpp
;	COMDAT ?wndButtonSetUpVisual@@YAPAU_object@@PAU1@0@Z
_TEXT	SEGMENT
_pWindow$ = -8						; size = 4
_szFileName$ = -4					; size = 4
_poSelf$ = 8						; size = 4
_poArgs$ = 12						; size = 4
?wndButtonSetUpVisual@@YAPAU_object@@PAU1@0@Z PROC	; wndButtonSetUpVisual, COMDAT

; 3304 : {

  00000	55		 push	 ebp
  00001	8b ec		 mov	 ebp, esp
  00003	83 ec 08	 sub	 esp, 8

; 3305 : 	UI::CWindow * pWindow;
; 3306 : 	if (!PyTuple_GetWindow(poArgs, 0, &pWindow))

  00006	8d 45 f8	 lea	 eax, DWORD PTR _pWindow$[ebp]
  00009	50		 push	 eax
  0000a	6a 00		 push	 0
  0000c	ff 75 0c	 push	 DWORD PTR _poArgs$[ebp]
  0000f	e8 00 00 00 00	 call	 ?PyTuple_GetWindow@@YA_NPAU_object@@HPAPAVCWindow@UI@@@Z ; PyTuple_GetWindow
  00014	83 c4 0c	 add	 esp, 12			; 0000000cH
  00017	84 c0		 test	 al, al
  00019	75 0e		 jne	 SHORT $LN2@wndButtonS
$LN5@wndButtonS:

; 3319 : }

  0001b	6a 00		 push	 0
  0001d	e8 00 00 00 00	 call	 ?Py_BuildException@@YAPAU_object@@PBDZZ ; Py_BuildException
  00022	83 c4 04	 add	 esp, 4
  00025	8b e5		 mov	 esp, ebp
  00027	5d		 pop	 ebp
  00028	c3		 ret	 0
$LN2@wndButtonS:

; 3307 : 	{
; 3308 : 		return Py_BuildException();
; 3309 : 	}
; 3310 : 	char * szFileName;
; 3311 : 	if (!PyTuple_GetString(poArgs, 1, &szFileName))

  00029	8d 45 fc	 lea	 eax, DWORD PTR _szFileName$[ebp]
  0002c	50		 push	 eax
  0002d	6a 01		 push	 1
  0002f	ff 75 0c	 push	 DWORD PTR _poArgs$[ebp]
  00032	e8 00 00 00 00	 call	 ?PyTuple_GetString@@YA_NPAU_object@@HPAPAD@Z ; PyTuple_GetString
  00037	83 c4 0c	 add	 esp, 12			; 0000000cH
  0003a	84 c0		 test	 al, al
  0003c	74 dd		 je	 SHORT $LN5@wndButtonS

; 3312 : 	{
; 3313 : 		return Py_BuildException();
; 3314 : 	}
; 3315 : 
; 3316 : 	((UI::CButton*)pWindow)->SetUpVisual(szFileName);

  0003e	ff 75 fc	 push	 DWORD PTR _szFileName$[ebp]
  00041	8b 4d f8	 mov	 ecx, DWORD PTR _pWindow$[ebp]
  00044	e8 00 00 00 00	 call	 ?SetUpVisual@CButton@UI@@QAEHPBD@Z ; UI::CButton::SetUpVisual

; 3317 : 
; 3318 : 	return Py_BuildNone();

  00049	e8 00 00 00 00	 call	 ?Py_BuildNone@@YAPAU_object@@XZ ; Py_BuildNone

; 3319 : }

  0004e	8b e5		 mov	 esp, ebp
  00050	5d		 pop	 ebp
  00051	c3		 ret	 0
?wndButtonSetUpVisual@@YAPAU_object@@PAU1@0@Z ENDP	; wndButtonSetUpVisual
_TEXT	ENDS
; Function compile flags: /Ogtp
; File C:\Users\flourine\Desktop\Xantios\client-src\Code\eterPythonLib\PythonWindowManagerModule.cpp
;	COMDAT ?wndImageResetFrame@@YAPAU_object@@PAU1@0@Z
_TEXT	SEGMENT
_pWindow$ = -4						; size = 4
_poSelf$ = 8						; size = 4
_poArgs$ = 12						; size = 4
?wndImageResetFrame@@YAPAU_object@@PAU1@0@Z PROC	; wndImageResetFrame, COMDAT

; 3291 : {

  00000	55		 push	 ebp
  00001	8b ec		 mov	 ebp, esp
  00003	51		 push	 ecx

; 3292 : 	UI::CWindow* pWindow;
; 3293 : 	if (!PyTuple_GetWindow(poArgs, 0, &pWindow))

  00004	8d 45 fc	 lea	 eax, DWORD PTR _pWindow$[ebp]
  00007	50		 push	 eax
  00008	6a 00		 push	 0
  0000a	ff 75 0c	 push	 DWORD PTR _poArgs$[ebp]
  0000d	e8 00 00 00 00	 call	 ?PyTuple_GetWindow@@YA_NPAU_object@@HPAPAVCWindow@UI@@@Z ; PyTuple_GetWindow
  00012	83 c4 0c	 add	 esp, 12			; 0000000cH
  00015	84 c0		 test	 al, al
  00017	75 0e		 jne	 SHORT $LN2@wndImageRe

; 3294 : 	{
; 3295 : 		return Py_BuildException();

  00019	6a 00		 push	 0
  0001b	e8 00 00 00 00	 call	 ?Py_BuildException@@YAPAU_object@@PBDZZ ; Py_BuildException
  00020	83 c4 04	 add	 esp, 4

; 3301 : }

  00023	8b e5		 mov	 esp, ebp
  00025	5d		 pop	 ebp
  00026	c3		 ret	 0
$LN2@wndImageRe:

; 3296 : 	}
; 3297 : 
; 3298 : 	((UI::CAniImageBox*)pWindow)->ResetFrame();

  00027	8b 4d fc	 mov	 ecx, DWORD PTR _pWindow$[ebp]
  0002a	e8 00 00 00 00	 call	 ?ResetFrame@CAniImageBox@UI@@QAEXXZ ; UI::CAniImageBox::ResetFrame

; 3299 : 
; 3300 : 	return Py_BuildNone();

  0002f	e8 00 00 00 00	 call	 ?Py_BuildNone@@YAPAU_object@@XZ ; Py_BuildNone

; 3301 : }

  00034	8b e5		 mov	 esp, ebp
  00036	5d		 pop	 ebp
  00037	c3		 ret	 0
?wndImageResetFrame@@YAPAU_object@@PAU1@0@Z ENDP	; wndImageResetFrame
_TEXT	ENDS
; Function compile flags: /Ogtp
; File C:\Users\flourine\Desktop\Xantios\client-src\Code\eterPythonLib\PythonWindowManagerModule.cpp
;	COMDAT ?wndImageAppendImage@@YAPAU_object@@PAU1@0@Z
_TEXT	SEGMENT
_pWindow$ = -8						; size = 4
_szFileName$ = -4					; size = 4
_poSelf$ = 8						; size = 4
_poArgs$ = 12						; size = 4
?wndImageAppendImage@@YAPAU_object@@PAU1@0@Z PROC	; wndImageAppendImage, COMDAT

; 3273 : {

  00000	55		 push	 ebp
  00001	8b ec		 mov	 ebp, esp
  00003	83 ec 08	 sub	 esp, 8

; 3274 : 	UI::CWindow * pWindow;
; 3275 : 	if (!PyTuple_GetWindow(poArgs, 0, &pWindow))

  00006	8d 45 f8	 lea	 eax, DWORD PTR _pWindow$[ebp]
  00009	50		 push	 eax
  0000a	6a 00		 push	 0
  0000c	ff 75 0c	 push	 DWORD PTR _poArgs$[ebp]
  0000f	e8 00 00 00 00	 call	 ?PyTuple_GetWindow@@YA_NPAU_object@@HPAPAVCWindow@UI@@@Z ; PyTuple_GetWindow
  00014	83 c4 0c	 add	 esp, 12			; 0000000cH
  00017	84 c0		 test	 al, al
  00019	75 0e		 jne	 SHORT $LN2@wndImageAp
$LN5@wndImageAp:

; 3288 : }

  0001b	6a 00		 push	 0
  0001d	e8 00 00 00 00	 call	 ?Py_BuildException@@YAPAU_object@@PBDZZ ; Py_BuildException
  00022	83 c4 04	 add	 esp, 4
  00025	8b e5		 mov	 esp, ebp
  00027	5d		 pop	 ebp
  00028	c3		 ret	 0
$LN2@wndImageAp:

; 3276 : 	{
; 3277 : 		return Py_BuildException();
; 3278 : 	}
; 3279 : 	char * szFileName;
; 3280 : 	if (!PyTuple_GetString(poArgs, 1, &szFileName))

  00029	8d 45 fc	 lea	 eax, DWORD PTR _szFileName$[ebp]
  0002c	50		 push	 eax
  0002d	6a 01		 push	 1
  0002f	ff 75 0c	 push	 DWORD PTR _poArgs$[ebp]
  00032	e8 00 00 00 00	 call	 ?PyTuple_GetString@@YA_NPAU_object@@HPAPAD@Z ; PyTuple_GetString
  00037	83 c4 0c	 add	 esp, 12			; 0000000cH
  0003a	84 c0		 test	 al, al
  0003c	74 dd		 je	 SHORT $LN5@wndImageAp

; 3281 : 	{
; 3282 : 		return Py_BuildException();
; 3283 : 	}
; 3284 : 
; 3285 : 	((UI::CAniImageBox*)pWindow)->AppendImage(szFileName);

  0003e	ff 75 fc	 push	 DWORD PTR _szFileName$[ebp]
  00041	8b 4d f8	 mov	 ecx, DWORD PTR _pWindow$[ebp]
  00044	e8 00 00 00 00	 call	 ?AppendImage@CAniImageBox@UI@@QAEXPBD@Z ; UI::CAniImageBox::AppendImage

; 3286 : 
; 3287 : 	return Py_BuildNone();

  00049	e8 00 00 00 00	 call	 ?Py_BuildNone@@YAPAU_object@@XZ ; Py_BuildNone

; 3288 : }

  0004e	8b e5		 mov	 esp, ebp
  00050	5d		 pop	 ebp
  00051	c3		 ret	 0
?wndImageAppendImage@@YAPAU_object@@PAU1@0@Z ENDP	; wndImageAppendImage
_TEXT	ENDS
; Function compile flags: /Ogtp
; File C:\Users\flourine\Desktop\Xantios\client-src\Code\eterPythonLib\PythonWindowManagerModule.cpp
; File C:\Users\flourine\Desktop\Xantios\client-src\Code\eterPythonLib\PythonWindow.h
; File C:\Users\flourine\Desktop\Xantios\client-src\Code\eterPythonLib\PythonWindowManagerModule.cpp
;	COMDAT ?wndImageGetDelay@@YAPAU_object@@PAU1@0@Z
_TEXT	SEGMENT
_pWindow$ = -4						; size = 4
_poSelf$ = 8						; size = 4
_poArgs$ = 12						; size = 4
?wndImageGetDelay@@YAPAU_object@@PAU1@0@Z PROC		; wndImageGetDelay, COMDAT

; 3263 : {

  00000	55		 push	 ebp
  00001	8b ec		 mov	 ebp, esp
  00003	51		 push	 ecx

; 3264 : 	UI::CWindow* pWindow;
; 3265 : 	if (!PyTuple_GetWindow(poArgs, 0, &pWindow))

  00004	8d 45 fc	 lea	 eax, DWORD PTR _pWindow$[ebp]
  00007	50		 push	 eax
  00008	6a 00		 push	 0
  0000a	ff 75 0c	 push	 DWORD PTR _poArgs$[ebp]
  0000d	e8 00 00 00 00	 call	 ?PyTuple_GetWindow@@YA_NPAU_object@@HPAPAVCWindow@UI@@@Z ; PyTuple_GetWindow
  00012	83 c4 0c	 add	 esp, 12			; 0000000cH
  00015	84 c0		 test	 al, al
  00017	75 0e		 jne	 SHORT $LN2@wndImageGe

; 3266 : 	{
; 3267 : 		return Py_BuildException();

  00019	6a 00		 push	 0
  0001b	e8 00 00 00 00	 call	 ?Py_BuildException@@YAPAU_object@@PBDZZ ; Py_BuildException
  00020	83 c4 04	 add	 esp, 4

; 3271 : }

  00023	8b e5		 mov	 esp, ebp
  00025	5d		 pop	 ebp
  00026	c3		 ret	 0
$LN2@wndImageGe:
; File C:\Users\flourine\Desktop\Xantios\client-src\Code\eterPythonLib\PythonWindow.h

; 636  : 	int	GetDelay() { return m_byDelay; }

  00027	8b 45 fc	 mov	 eax, DWORD PTR _pWindow$[ebp]
  0002a	0f b6 80 31 01
	00 00		 movzx	 eax, BYTE PTR [eax+305]
; File C:\Users\flourine\Desktop\Xantios\client-src\Code\eterPythonLib\PythonWindowManagerModule.cpp

; 3270 : 	return Py_BuildValue("i", ((UI::CAniImageBox*)pWindow)->GetDelay());

  00031	50		 push	 eax
  00032	68 00 00 00 00	 push	 OFFSET ??_C@_01KBJDNOO@i@
  00037	ff 15 00 00 00
	00		 call	 DWORD PTR __imp__Py_BuildValue
  0003d	83 c4 08	 add	 esp, 8

; 3271 : }

  00040	8b e5		 mov	 esp, ebp
  00042	5d		 pop	 ebp
  00043	c3		 ret	 0
?wndImageGetDelay@@YAPAU_object@@PAU1@0@Z ENDP		; wndImageGetDelay
_TEXT	ENDS
; Function compile flags: /Ogtp
; File C:\Users\flourine\Desktop\Xantios\client-src\Code\eterPythonLib\PythonWindowManagerModule.cpp
;	COMDAT ?wndImageSetDelay@@YAPAU_object@@PAU1@0@Z
_TEXT	SEGMENT
_pWindow$ = -8						; size = 4
_fDelay$ = -4						; size = 4
_poSelf$ = 8						; size = 4
_poArgs$ = 12						; size = 4
?wndImageSetDelay@@YAPAU_object@@PAU1@0@Z PROC		; wndImageSetDelay, COMDAT

; 3246 : {

  00000	55		 push	 ebp
  00001	8b ec		 mov	 ebp, esp
  00003	83 ec 08	 sub	 esp, 8

; 3247 : 	UI::CWindow * pWindow;
; 3248 : 	if (!PyTuple_GetWindow(poArgs, 0, &pWindow))

  00006	8d 45 f8	 lea	 eax, DWORD PTR _pWindow$[ebp]
  00009	50		 push	 eax
  0000a	6a 00		 push	 0
  0000c	ff 75 0c	 push	 DWORD PTR _poArgs$[ebp]
  0000f	e8 00 00 00 00	 call	 ?PyTuple_GetWindow@@YA_NPAU_object@@HPAPAVCWindow@UI@@@Z ; PyTuple_GetWindow
  00014	83 c4 0c	 add	 esp, 12			; 0000000cH
  00017	84 c0		 test	 al, al
  00019	75 0e		 jne	 SHORT $LN2@wndImageSe
$LN5@wndImageSe:

; 3261 : }

  0001b	6a 00		 push	 0
  0001d	e8 00 00 00 00	 call	 ?Py_BuildException@@YAPAU_object@@PBDZZ ; Py_BuildException
  00022	83 c4 04	 add	 esp, 4
  00025	8b e5		 mov	 esp, ebp
  00027	5d		 pop	 ebp
  00028	c3		 ret	 0
$LN2@wndImageSe:

; 3249 : 	{
; 3250 : 		return Py_BuildException();
; 3251 : 	}
; 3252 : 	float fDelay;
; 3253 : 	if (!PyTuple_GetFloat(poArgs, 1, &fDelay))

  00029	8d 45 fc	 lea	 eax, DWORD PTR _fDelay$[ebp]
  0002c	50		 push	 eax
  0002d	6a 01		 push	 1
  0002f	ff 75 0c	 push	 DWORD PTR _poArgs$[ebp]
  00032	e8 00 00 00 00	 call	 ?PyTuple_GetFloat@@YA_NPAU_object@@HPAM@Z ; PyTuple_GetFloat
  00037	83 c4 0c	 add	 esp, 12			; 0000000cH
  0003a	84 c0		 test	 al, al
  0003c	74 dd		 je	 SHORT $LN5@wndImageSe

; 3254 : 	{
; 3255 : 		return Py_BuildException();
; 3256 : 	}
; 3257 : 
; 3258 : 	((UI::CAniImageBox*)pWindow)->SetDelay(fDelay);

  0003e	f3 0f 2c 45 fc	 cvttss2si eax, DWORD PTR _fDelay$[ebp]
  00043	8b 4d f8	 mov	 ecx, DWORD PTR _pWindow$[ebp]
  00046	50		 push	 eax
  00047	e8 00 00 00 00	 call	 ?SetDelay@CAniImageBox@UI@@QAEXH@Z ; UI::CAniImageBox::SetDelay

; 3259 : 
; 3260 : 	return Py_BuildNone();

  0004c	e8 00 00 00 00	 call	 ?Py_BuildNone@@YAPAU_object@@XZ ; Py_BuildNone

; 3261 : }

  00051	8b e5		 mov	 esp, ebp
  00053	5d		 pop	 ebp
  00054	c3		 ret	 0
?wndImageSetDelay@@YAPAU_object@@PAU1@0@Z ENDP		; wndImageSetDelay
_TEXT	ENDS
; Function compile flags: /Ogtp
; File C:\Users\flourine\Desktop\Xantios\client-src\Code\eterPythonLib\PythonWindowManagerModule.cpp
;	COMDAT ?wndImageSetRenderingMode@@YAPAU_object@@PAU1@0@Z
_TEXT	SEGMENT
_iMode$ = -8						; size = 4
_pWindow$ = -4						; size = 4
_poSelf$ = 8						; size = 4
_poArgs$ = 12						; size = 4
?wndImageSetRenderingMode@@YAPAU_object@@PAU1@0@Z PROC	; wndImageSetRenderingMode, COMDAT

; 3226 : {

  00000	55		 push	 ebp
  00001	8b ec		 mov	 ebp, esp
  00003	83 ec 08	 sub	 esp, 8

; 3227 : 	UI::CWindow * pWindow;
; 3228 : 	if (!PyTuple_GetWindow(poArgs, 0, &pWindow))

  00006	8d 45 fc	 lea	 eax, DWORD PTR _pWindow$[ebp]
  00009	56		 push	 esi
  0000a	8b 75 0c	 mov	 esi, DWORD PTR _poArgs$[ebp]
  0000d	50		 push	 eax
  0000e	6a 00		 push	 0
  00010	56		 push	 esi
  00011	e8 00 00 00 00	 call	 ?PyTuple_GetWindow@@YA_NPAU_object@@HPAPAVCWindow@UI@@@Z ; PyTuple_GetWindow
  00016	83 c4 0c	 add	 esp, 12			; 0000000cH
  00019	84 c0		 test	 al, al
  0001b	75 0f		 jne	 SHORT $LN2@wndImageSe
$LN6@wndImageSe:

; 3244 : }

  0001d	6a 00		 push	 0
  0001f	e8 00 00 00 00	 call	 ?Py_BuildException@@YAPAU_object@@PBDZZ ; Py_BuildException
  00024	83 c4 04	 add	 esp, 4
  00027	5e		 pop	 esi
  00028	8b e5		 mov	 esp, ebp
  0002a	5d		 pop	 ebp
  0002b	c3		 ret	 0
$LN2@wndImageSe:

; 3229 : 	{
; 3230 : 		return Py_BuildException();
; 3231 : 	}
; 3232 : 	int iMode;
; 3233 : 	if (!PyTuple_GetInteger(poArgs, 1, &iMode))

  0002c	8d 45 f8	 lea	 eax, DWORD PTR _iMode$[ebp]
  0002f	50		 push	 eax
  00030	6a 01		 push	 1
  00032	56		 push	 esi
  00033	e8 00 00 00 00	 call	 ?PyTuple_GetInteger@@YA_NPAU_object@@HPAH@Z ; PyTuple_GetInteger
  00038	83 c4 0c	 add	 esp, 12			; 0000000cH
  0003b	84 c0		 test	 al, al
  0003d	74 de		 je	 SHORT $LN6@wndImageSe

; 3234 : 	{
; 3235 : 		return Py_BuildException();
; 3236 : 	}
; 3237 : 
; 3238 : 	if (pWindow->IsType(UI::CExpandedImageBox::Type()))

  0003f	e8 00 00 00 00	 call	 ?Type@CExpandedImageBox@UI@@SAKXZ ; UI::CExpandedImageBox::Type
  00044	8b 75 fc	 mov	 esi, DWORD PTR _pWindow$[ebp]
  00047	8b ce		 mov	 ecx, esi
  00049	50		 push	 eax
  0004a	e8 00 00 00 00	 call	 ?IsType@CWindow@UI@@QAEHK@Z ; UI::CWindow::IsType
  0004f	85 c0		 test	 eax, eax
  00051	74 0a		 je	 SHORT $LN4@wndImageSe

; 3239 : 	{
; 3240 : 		((UI::CExpandedImageBox*)pWindow)->SetRenderingMode(iMode);

  00053	ff 75 f8	 push	 DWORD PTR _iMode$[ebp]
  00056	8b ce		 mov	 ecx, esi
  00058	e8 00 00 00 00	 call	 ?SetRenderingMode@CExpandedImageBox@UI@@QAEXH@Z ; UI::CExpandedImageBox::SetRenderingMode
$LN4@wndImageSe:

; 3241 : 	}
; 3242 : 
; 3243 : 	return Py_BuildNone();

  0005d	e8 00 00 00 00	 call	 ?Py_BuildNone@@YAPAU_object@@XZ ; Py_BuildNone
  00062	5e		 pop	 esi

; 3244 : }

  00063	8b e5		 mov	 esp, ebp
  00065	5d		 pop	 ebp
  00066	c3		 ret	 0
?wndImageSetRenderingMode@@YAPAU_object@@PAU1@0@Z ENDP	; wndImageSetRenderingMode
_TEXT	ENDS
; Function compile flags: /Ogtp
; File C:\Users\flourine\Desktop\Xantios\client-src\Code\eterPythonLib\PythonWindowManagerModule.cpp
;	COMDAT ?wndImageSetRotation@@YAPAU_object@@PAU1@0@Z
_TEXT	SEGMENT
_pWindow$ = -8						; size = 4
_fRotation$ = -4					; size = 4
_poSelf$ = 8						; size = 4
_poArgs$ = 12						; size = 4
?wndImageSetRotation@@YAPAU_object@@PAU1@0@Z PROC	; wndImageSetRotation, COMDAT

; 3208 : {

  00000	55		 push	 ebp
  00001	8b ec		 mov	 ebp, esp
  00003	83 ec 08	 sub	 esp, 8

; 3209 : 	UI::CWindow * pWindow;
; 3210 : 	if (!PyTuple_GetWindow(poArgs, 0, &pWindow))

  00006	8d 45 f8	 lea	 eax, DWORD PTR _pWindow$[ebp]
  00009	50		 push	 eax
  0000a	6a 00		 push	 0
  0000c	ff 75 0c	 push	 DWORD PTR _poArgs$[ebp]
  0000f	e8 00 00 00 00	 call	 ?PyTuple_GetWindow@@YA_NPAU_object@@HPAPAVCWindow@UI@@@Z ; PyTuple_GetWindow
  00014	83 c4 0c	 add	 esp, 12			; 0000000cH
  00017	84 c0		 test	 al, al
  00019	75 0e		 jne	 SHORT $LN2@wndImageSe
$LN5@wndImageSe:

; 3223 : }

  0001b	6a 00		 push	 0
  0001d	e8 00 00 00 00	 call	 ?Py_BuildException@@YAPAU_object@@PBDZZ ; Py_BuildException
  00022	83 c4 04	 add	 esp, 4
  00025	8b e5		 mov	 esp, ebp
  00027	5d		 pop	 ebp
  00028	c3		 ret	 0
$LN2@wndImageSe:

; 3211 : 	{
; 3212 : 		return Py_BuildException();
; 3213 : 	}
; 3214 : 	float fRotation;
; 3215 : 	if (!PyTuple_GetFloat(poArgs, 1, &fRotation))

  00029	8d 45 fc	 lea	 eax, DWORD PTR _fRotation$[ebp]
  0002c	50		 push	 eax
  0002d	6a 01		 push	 1
  0002f	ff 75 0c	 push	 DWORD PTR _poArgs$[ebp]
  00032	e8 00 00 00 00	 call	 ?PyTuple_GetFloat@@YA_NPAU_object@@HPAM@Z ; PyTuple_GetFloat
  00037	83 c4 0c	 add	 esp, 12			; 0000000cH
  0003a	84 c0		 test	 al, al
  0003c	74 dd		 je	 SHORT $LN5@wndImageSe

; 3216 : 	{
; 3217 : 		return Py_BuildException();
; 3218 : 	}
; 3219 : 
; 3220 : 	((UI::CExpandedImageBox*)pWindow)->SetRotation(fRotation);

  0003e	f3 0f 10 45 fc	 movss	 xmm0, DWORD PTR _fRotation$[ebp]
  00043	51		 push	 ecx
  00044	8b 4d f8	 mov	 ecx, DWORD PTR _pWindow$[ebp]
  00047	f3 0f 11 04 24	 movss	 DWORD PTR [esp], xmm0
  0004c	e8 00 00 00 00	 call	 ?SetRotation@CExpandedImageBox@UI@@QAEXM@Z ; UI::CExpandedImageBox::SetRotation

; 3221 : 
; 3222 : 	return Py_BuildNone();

  00051	e8 00 00 00 00	 call	 ?Py_BuildNone@@YAPAU_object@@XZ ; Py_BuildNone

; 3223 : }

  00056	8b e5		 mov	 esp, ebp
  00058	5d		 pop	 ebp
  00059	c3		 ret	 0
?wndImageSetRotation@@YAPAU_object@@PAU1@0@Z ENDP	; wndImageSetRotation
_TEXT	ENDS
; Function compile flags: /Ogtp
; File C:\Users\flourine\Desktop\Xantios\client-src\Code\eterPythonLib\PythonWindowManagerModule.cpp
;	COMDAT ?wndImageSetOrigin@@YAPAU_object@@PAU1@0@Z
_TEXT	SEGMENT
_pWindow$ = -12						; size = 4
_fx$ = -8						; size = 4
_fy$ = -4						; size = 4
_poSelf$ = 8						; size = 4
_poArgs$ = 12						; size = 4
?wndImageSetOrigin@@YAPAU_object@@PAU1@0@Z PROC		; wndImageSetOrigin, COMDAT

; 3186 : {

  00000	55		 push	 ebp
  00001	8b ec		 mov	 ebp, esp
  00003	83 ec 0c	 sub	 esp, 12			; 0000000cH

; 3187 : 	UI::CWindow * pWindow;
; 3188 : 	if (!PyTuple_GetWindow(poArgs, 0, &pWindow))

  00006	8d 45 f4	 lea	 eax, DWORD PTR _pWindow$[ebp]
  00009	56		 push	 esi
  0000a	8b 75 0c	 mov	 esi, DWORD PTR _poArgs$[ebp]
  0000d	50		 push	 eax
  0000e	6a 00		 push	 0
  00010	56		 push	 esi
  00011	e8 00 00 00 00	 call	 ?PyTuple_GetWindow@@YA_NPAU_object@@HPAPAVCWindow@UI@@@Z ; PyTuple_GetWindow
  00016	83 c4 0c	 add	 esp, 12			; 0000000cH
  00019	84 c0		 test	 al, al
  0001b	75 0f		 jne	 SHORT $LN2@wndImageSe
$LN6@wndImageSe:

; 3206 : }

  0001d	6a 00		 push	 0
  0001f	e8 00 00 00 00	 call	 ?Py_BuildException@@YAPAU_object@@PBDZZ ; Py_BuildException
  00024	83 c4 04	 add	 esp, 4
  00027	5e		 pop	 esi
  00028	8b e5		 mov	 esp, ebp
  0002a	5d		 pop	 ebp
  0002b	c3		 ret	 0
$LN2@wndImageSe:

; 3189 : 	{
; 3190 : 		return Py_BuildException();
; 3191 : 	}
; 3192 : 	float fx;
; 3193 : 	if (!PyTuple_GetFloat(poArgs, 1, &fx))

  0002c	8d 45 f8	 lea	 eax, DWORD PTR _fx$[ebp]
  0002f	50		 push	 eax
  00030	6a 01		 push	 1
  00032	56		 push	 esi
  00033	e8 00 00 00 00	 call	 ?PyTuple_GetFloat@@YA_NPAU_object@@HPAM@Z ; PyTuple_GetFloat
  00038	83 c4 0c	 add	 esp, 12			; 0000000cH
  0003b	84 c0		 test	 al, al
  0003d	74 de		 je	 SHORT $LN6@wndImageSe

; 3194 : 	{
; 3195 : 		return Py_BuildException();
; 3196 : 	}
; 3197 : 	float fy;
; 3198 : 	if (!PyTuple_GetFloat(poArgs, 2, &fy))

  0003f	8d 45 fc	 lea	 eax, DWORD PTR _fy$[ebp]
  00042	50		 push	 eax
  00043	6a 02		 push	 2
  00045	56		 push	 esi
  00046	e8 00 00 00 00	 call	 ?PyTuple_GetFloat@@YA_NPAU_object@@HPAM@Z ; PyTuple_GetFloat
  0004b	83 c4 0c	 add	 esp, 12			; 0000000cH
  0004e	84 c0		 test	 al, al
  00050	74 cb		 je	 SHORT $LN6@wndImageSe

; 3199 : 	{
; 3200 : 		return Py_BuildException();
; 3201 : 	}
; 3202 : 
; 3203 : 	((UI::CExpandedImageBox*)pWindow)->SetOrigin(fx, fy);

  00052	f3 0f 10 45 fc	 movss	 xmm0, DWORD PTR _fy$[ebp]
  00057	83 ec 08	 sub	 esp, 8
  0005a	8b 4d f4	 mov	 ecx, DWORD PTR _pWindow$[ebp]
  0005d	f3 0f 11 44 24
	04		 movss	 DWORD PTR [esp+4], xmm0
  00063	f3 0f 10 45 f8	 movss	 xmm0, DWORD PTR _fx$[ebp]
  00068	f3 0f 11 04 24	 movss	 DWORD PTR [esp], xmm0
  0006d	e8 00 00 00 00	 call	 ?SetOrigin@CExpandedImageBox@UI@@QAEXMM@Z ; UI::CExpandedImageBox::SetOrigin

; 3204 : 
; 3205 : 	return Py_BuildNone();

  00072	e8 00 00 00 00	 call	 ?Py_BuildNone@@YAPAU_object@@XZ ; Py_BuildNone
  00077	5e		 pop	 esi

; 3206 : }

  00078	8b e5		 mov	 esp, ebp
  0007a	5d		 pop	 ebp
  0007b	c3		 ret	 0
?wndImageSetOrigin@@YAPAU_object@@PAU1@0@Z ENDP		; wndImageSetOrigin
_TEXT	ENDS
; Function compile flags: /Ogtp
; File C:\Users\flourine\Desktop\Xantios\client-src\Code\eterPythonLib\PythonWindowManagerModule.cpp
;	COMDAT ?wndImageSetScale@@YAPAU_object@@PAU1@0@Z
_TEXT	SEGMENT
_pWindow$ = -12						; size = 4
_fx$ = -8						; size = 4
_fy$ = -4						; size = 4
_poSelf$ = 8						; size = 4
_poArgs$ = 12						; size = 4
?wndImageSetScale@@YAPAU_object@@PAU1@0@Z PROC		; wndImageSetScale, COMDAT

; 3164 : {

  00000	55		 push	 ebp
  00001	8b ec		 mov	 ebp, esp
  00003	83 ec 0c	 sub	 esp, 12			; 0000000cH

; 3165 : 	UI::CWindow * pWindow;
; 3166 : 	if (!PyTuple_GetWindow(poArgs, 0, &pWindow))

  00006	8d 45 f4	 lea	 eax, DWORD PTR _pWindow$[ebp]
  00009	56		 push	 esi
  0000a	8b 75 0c	 mov	 esi, DWORD PTR _poArgs$[ebp]
  0000d	50		 push	 eax
  0000e	6a 00		 push	 0
  00010	56		 push	 esi
  00011	e8 00 00 00 00	 call	 ?PyTuple_GetWindow@@YA_NPAU_object@@HPAPAVCWindow@UI@@@Z ; PyTuple_GetWindow
  00016	83 c4 0c	 add	 esp, 12			; 0000000cH
  00019	84 c0		 test	 al, al
  0001b	75 0f		 jne	 SHORT $LN2@wndImageSe
$LN6@wndImageSe:

; 3184 : }

  0001d	6a 00		 push	 0
  0001f	e8 00 00 00 00	 call	 ?Py_BuildException@@YAPAU_object@@PBDZZ ; Py_BuildException
  00024	83 c4 04	 add	 esp, 4
  00027	5e		 pop	 esi
  00028	8b e5		 mov	 esp, ebp
  0002a	5d		 pop	 ebp
  0002b	c3		 ret	 0
$LN2@wndImageSe:

; 3167 : 	{
; 3168 : 		return Py_BuildException();
; 3169 : 	}
; 3170 : 	float fx;
; 3171 : 	if (!PyTuple_GetFloat(poArgs, 1, &fx))

  0002c	8d 45 f8	 lea	 eax, DWORD PTR _fx$[ebp]
  0002f	50		 push	 eax
  00030	6a 01		 push	 1
  00032	56		 push	 esi
  00033	e8 00 00 00 00	 call	 ?PyTuple_GetFloat@@YA_NPAU_object@@HPAM@Z ; PyTuple_GetFloat
  00038	83 c4 0c	 add	 esp, 12			; 0000000cH
  0003b	84 c0		 test	 al, al
  0003d	74 de		 je	 SHORT $LN6@wndImageSe

; 3172 : 	{
; 3173 : 		return Py_BuildException();
; 3174 : 	}
; 3175 : 	float fy;
; 3176 : 	if (!PyTuple_GetFloat(poArgs, 2, &fy))

  0003f	8d 45 fc	 lea	 eax, DWORD PTR _fy$[ebp]
  00042	50		 push	 eax
  00043	6a 02		 push	 2
  00045	56		 push	 esi
  00046	e8 00 00 00 00	 call	 ?PyTuple_GetFloat@@YA_NPAU_object@@HPAM@Z ; PyTuple_GetFloat
  0004b	83 c4 0c	 add	 esp, 12			; 0000000cH
  0004e	84 c0		 test	 al, al
  00050	74 cb		 je	 SHORT $LN6@wndImageSe

; 3177 : 	{
; 3178 : 		return Py_BuildException();
; 3179 : 	}
; 3180 : 
; 3181 : 	((UI::CExpandedImageBox*)pWindow)->SetScale(fx, fy);

  00052	f3 0f 10 45 fc	 movss	 xmm0, DWORD PTR _fy$[ebp]
  00057	83 ec 08	 sub	 esp, 8
  0005a	8b 4d f4	 mov	 ecx, DWORD PTR _pWindow$[ebp]
  0005d	f3 0f 11 44 24
	04		 movss	 DWORD PTR [esp+4], xmm0
  00063	f3 0f 10 45 f8	 movss	 xmm0, DWORD PTR _fx$[ebp]
  00068	f3 0f 11 04 24	 movss	 DWORD PTR [esp], xmm0
  0006d	e8 00 00 00 00	 call	 ?SetScale@CExpandedImageBox@UI@@QAEXMM@Z ; UI::CExpandedImageBox::SetScale

; 3182 : 
; 3183 : 	return Py_BuildNone();

  00072	e8 00 00 00 00	 call	 ?Py_BuildNone@@YAPAU_object@@XZ ; Py_BuildNone
  00077	5e		 pop	 esi

; 3184 : }

  00078	8b e5		 mov	 esp, ebp
  0007a	5d		 pop	 ebp
  0007b	c3		 ret	 0
?wndImageSetScale@@YAPAU_object@@PAU1@0@Z ENDP		; wndImageSetScale
_TEXT	ENDS
; Function compile flags: /Ogtp
; File C:\Users\flourine\Desktop\Xantios\client-src\Code\eterPythonLib\PythonWindowManagerModule.cpp
;	COMDAT ?wndImageGetTexturePtr@@YAPAU_object@@PAU1@0@Z
_TEXT	SEGMENT
_pWindow$ = -4						; size = 4
_poSelf$ = 8						; size = 4
_poArgs$ = 12						; size = 4
?wndImageGetTexturePtr@@YAPAU_object@@PAU1@0@Z PROC	; wndImageGetTexturePtr, COMDAT

; 3153 : {

  00000	55		 push	 ebp
  00001	8b ec		 mov	 ebp, esp
  00003	51		 push	 ecx

; 3154 : 	UI::CWindow * pWindow;
; 3155 : 	if (!PyTuple_GetWindow(poArgs, 0, &pWindow))

  00004	8d 45 fc	 lea	 eax, DWORD PTR _pWindow$[ebp]
  00007	50		 push	 eax
  00008	6a 00		 push	 0
  0000a	ff 75 0c	 push	 DWORD PTR _poArgs$[ebp]
  0000d	e8 00 00 00 00	 call	 ?PyTuple_GetWindow@@YA_NPAU_object@@HPAPAVCWindow@UI@@@Z ; PyTuple_GetWindow
  00012	83 c4 0c	 add	 esp, 12			; 0000000cH
  00015	84 c0		 test	 al, al
  00017	75 09		 jne	 SHORT $LN2@wndImageGe

; 3156 : 	{
; 3157 : 		return Py_BadArgument();

  00019	e8 00 00 00 00	 call	 ?Py_BadArgument@@YAPAU_object@@XZ ; Py_BadArgument

; 3162 : }

  0001e	8b e5		 mov	 esp, ebp
  00020	5d		 pop	 ebp
  00021	c3		 ret	 0
$LN2@wndImageGe:

; 3158 : 	}
; 3159 : 
; 3160 : 	CGraphicImageInstance* image = ((UI::CImageBox*)pWindow)->GetImageInstance();

  00022	8b 45 fc	 mov	 eax, DWORD PTR _pWindow$[ebp]
  00025	8b 88 30 01 00
	00		 mov	 ecx, DWORD PTR [eax+304]

; 3161 : 	return Py_BuildValue("i", image ? image->GetTexturePointer() : NULL);

  0002b	85 c9		 test	 ecx, ecx
  0002d	74 18		 je	 SHORT $LN4@wndImageGe
  0002f	e8 00 00 00 00	 call	 ?GetTexturePointer@CGraphicImageInstance@@QAEPAVCGraphicTexture@@XZ ; CGraphicImageInstance::GetTexturePointer
  00034	50		 push	 eax
  00035	68 00 00 00 00	 push	 OFFSET ??_C@_01KBJDNOO@i@
  0003a	ff 15 00 00 00
	00		 call	 DWORD PTR __imp__Py_BuildValue
  00040	83 c4 08	 add	 esp, 8

; 3162 : }

  00043	8b e5		 mov	 esp, ebp
  00045	5d		 pop	 ebp
  00046	c3		 ret	 0
$LN4@wndImageGe:

; 3161 : 	return Py_BuildValue("i", image ? image->GetTexturePointer() : NULL);

  00047	33 c0		 xor	 eax, eax
  00049	50		 push	 eax
  0004a	68 00 00 00 00	 push	 OFFSET ??_C@_01KBJDNOO@i@
  0004f	ff 15 00 00 00
	00		 call	 DWORD PTR __imp__Py_BuildValue
  00055	83 c4 08	 add	 esp, 8

; 3162 : }

  00058	8b e5		 mov	 esp, ebp
  0005a	5d		 pop	 ebp
  0005b	c3		 ret	 0
?wndImageGetTexturePtr@@YAPAU_object@@PAU1@0@Z ENDP	; wndImageGetTexturePtr
_TEXT	ENDS
; Function compile flags: /Ogtp
; File C:\Users\flourine\Desktop\Xantios\client-src\Code\eterPythonLib\PythonWindowManagerModule.cpp
;	COMDAT ?wndImageGetHeight@@YAPAU_object@@PAU1@0@Z
_TEXT	SEGMENT
_pWindow$ = -4						; size = 4
_poSelf$ = 8						; size = 4
_poArgs$ = 12						; size = 4
?wndImageGetHeight@@YAPAU_object@@PAU1@0@Z PROC		; wndImageGetHeight, COMDAT

; 3142 : {

  00000	55		 push	 ebp
  00001	8b ec		 mov	 ebp, esp
  00003	51		 push	 ecx

; 3143 : 	UI::CWindow * pWindow;
; 3144 : 	if (!PyTuple_GetWindow(poArgs, 0, &pWindow))

  00004	8d 45 fc	 lea	 eax, DWORD PTR _pWindow$[ebp]
  00007	50		 push	 eax
  00008	6a 00		 push	 0
  0000a	ff 75 0c	 push	 DWORD PTR _poArgs$[ebp]
  0000d	e8 00 00 00 00	 call	 ?PyTuple_GetWindow@@YA_NPAU_object@@HPAPAVCWindow@UI@@@Z ; PyTuple_GetWindow
  00012	83 c4 0c	 add	 esp, 12			; 0000000cH
  00015	84 c0		 test	 al, al
  00017	75 0e		 jne	 SHORT $LN2@wndImageGe

; 3145 : 	{
; 3146 : 		return Py_BuildException();

  00019	6a 00		 push	 0
  0001b	e8 00 00 00 00	 call	 ?Py_BuildException@@YAPAU_object@@PBDZZ ; Py_BuildException
  00020	83 c4 04	 add	 esp, 4

; 3150 : }

  00023	8b e5		 mov	 esp, ebp
  00025	5d		 pop	 ebp
  00026	c3		 ret	 0
$LN2@wndImageGe:

; 3147 : 	}
; 3148 : 
; 3149 : 	return Py_BuildValue("i", ((UI::CImageBox*)pWindow)->GetHeight());

  00027	8b 4d fc	 mov	 ecx, DWORD PTR _pWindow$[ebp]
  0002a	e8 00 00 00 00	 call	 ?GetHeight@CImageBox@UI@@QAEHXZ ; UI::CImageBox::GetHeight
  0002f	50		 push	 eax
  00030	68 00 00 00 00	 push	 OFFSET ??_C@_01KBJDNOO@i@
  00035	ff 15 00 00 00
	00		 call	 DWORD PTR __imp__Py_BuildValue
  0003b	83 c4 08	 add	 esp, 8

; 3150 : }

  0003e	8b e5		 mov	 esp, ebp
  00040	5d		 pop	 ebp
  00041	c3		 ret	 0
?wndImageGetHeight@@YAPAU_object@@PAU1@0@Z ENDP		; wndImageGetHeight
_TEXT	ENDS
; Function compile flags: /Ogtp
; File C:\Users\flourine\Desktop\Xantios\client-src\Code\eterPythonLib\PythonWindowManagerModule.cpp
;	COMDAT ?wndImageGetWidth@@YAPAU_object@@PAU1@0@Z
_TEXT	SEGMENT
_pWindow$ = -4						; size = 4
_poSelf$ = 8						; size = 4
_poArgs$ = 12						; size = 4
?wndImageGetWidth@@YAPAU_object@@PAU1@0@Z PROC		; wndImageGetWidth, COMDAT

; 3131 : {

  00000	55		 push	 ebp
  00001	8b ec		 mov	 ebp, esp
  00003	51		 push	 ecx

; 3132 : 	UI::CWindow * pWindow;
; 3133 : 	if (!PyTuple_GetWindow(poArgs, 0, &pWindow))

  00004	8d 45 fc	 lea	 eax, DWORD PTR _pWindow$[ebp]
  00007	50		 push	 eax
  00008	6a 00		 push	 0
  0000a	ff 75 0c	 push	 DWORD PTR _poArgs$[ebp]
  0000d	e8 00 00 00 00	 call	 ?PyTuple_GetWindow@@YA_NPAU_object@@HPAPAVCWindow@UI@@@Z ; PyTuple_GetWindow
  00012	83 c4 0c	 add	 esp, 12			; 0000000cH
  00015	84 c0		 test	 al, al
  00017	75 0e		 jne	 SHORT $LN2@wndImageGe

; 3134 : 	{
; 3135 : 		return Py_BuildException();

  00019	6a 00		 push	 0
  0001b	e8 00 00 00 00	 call	 ?Py_BuildException@@YAPAU_object@@PBDZZ ; Py_BuildException
  00020	83 c4 04	 add	 esp, 4

; 3139 : }

  00023	8b e5		 mov	 esp, ebp
  00025	5d		 pop	 ebp
  00026	c3		 ret	 0
$LN2@wndImageGe:

; 3136 : 	}
; 3137 : 
; 3138 : 	return Py_BuildValue("i", ((UI::CImageBox*)pWindow)->GetWidth());

  00027	8b 4d fc	 mov	 ecx, DWORD PTR _pWindow$[ebp]
  0002a	e8 00 00 00 00	 call	 ?GetWidth@CImageBox@UI@@QAEHXZ ; UI::CImageBox::GetWidth
  0002f	50		 push	 eax
  00030	68 00 00 00 00	 push	 OFFSET ??_C@_01KBJDNOO@i@
  00035	ff 15 00 00 00
	00		 call	 DWORD PTR __imp__Py_BuildValue
  0003b	83 c4 08	 add	 esp, 8

; 3139 : }

  0003e	8b e5		 mov	 esp, ebp
  00040	5d		 pop	 ebp
  00041	c3		 ret	 0
?wndImageGetWidth@@YAPAU_object@@PAU1@0@Z ENDP		; wndImageGetWidth
_TEXT	ENDS
; Function compile flags: /Ogtp
; File C:\Users\flourine\Desktop\Xantios\client-src\Code\eterPythonLib\PythonWindowManagerModule.cpp
;	COMDAT ?wndImageSetDiffuseColor@@YAPAU_object@@PAU1@0@Z
_TEXT	SEGMENT
_pWindow$ = -20						; size = 4
_fr$ = -16						; size = 4
_fg$ = -12						; size = 4
_fb$ = -8						; size = 4
_fa$ = -4						; size = 4
_poSelf$ = 8						; size = 4
_poArgs$ = 12						; size = 4
?wndImageSetDiffuseColor@@YAPAU_object@@PAU1@0@Z PROC	; wndImageSetDiffuseColor, COMDAT

; 3090 : {

  00000	55		 push	 ebp
  00001	8b ec		 mov	 ebp, esp
  00003	83 ec 14	 sub	 esp, 20			; 00000014H

; 3091 : 	UI::CWindow * pWindow;
; 3092 : 	if (!PyTuple_GetWindow(poArgs, 0, &pWindow))

  00006	8d 45 ec	 lea	 eax, DWORD PTR _pWindow$[ebp]
  00009	56		 push	 esi
  0000a	8b 75 0c	 mov	 esi, DWORD PTR _poArgs$[ebp]
  0000d	50		 push	 eax
  0000e	6a 00		 push	 0
  00010	56		 push	 esi
  00011	e8 00 00 00 00	 call	 ?PyTuple_GetWindow@@YA_NPAU_object@@HPAPAVCWindow@UI@@@Z ; PyTuple_GetWindow
  00016	83 c4 0c	 add	 esp, 12			; 0000000cH
  00019	84 c0		 test	 al, al
  0001b	75 0f		 jne	 SHORT $LN2@wndImageSe
$LN12@wndImageSe:

; 3128 : }

  0001d	6a 00		 push	 0
  0001f	e8 00 00 00 00	 call	 ?Py_BuildException@@YAPAU_object@@PBDZZ ; Py_BuildException
  00024	83 c4 04	 add	 esp, 4
  00027	5e		 pop	 esi
  00028	8b e5		 mov	 esp, ebp
  0002a	5d		 pop	 ebp
  0002b	c3		 ret	 0
$LN2@wndImageSe:

; 3093 : 	{
; 3094 : 		return Py_BuildException();
; 3095 : 	}
; 3096 : 	float fr;
; 3097 : 	if (!PyTuple_GetFloat(poArgs, 1, &fr))

  0002c	8d 45 f0	 lea	 eax, DWORD PTR _fr$[ebp]
  0002f	50		 push	 eax
  00030	6a 01		 push	 1
  00032	56		 push	 esi
  00033	e8 00 00 00 00	 call	 ?PyTuple_GetFloat@@YA_NPAU_object@@HPAM@Z ; PyTuple_GetFloat
  00038	83 c4 0c	 add	 esp, 12			; 0000000cH
  0003b	84 c0		 test	 al, al
  0003d	74 de		 je	 SHORT $LN12@wndImageSe

; 3098 : 	{
; 3099 : 		return Py_BuildException();
; 3100 : 	}
; 3101 : 	float fg;
; 3102 : 	if (!PyTuple_GetFloat(poArgs, 2, &fg))

  0003f	8d 45 f4	 lea	 eax, DWORD PTR _fg$[ebp]
  00042	50		 push	 eax
  00043	6a 02		 push	 2
  00045	56		 push	 esi
  00046	e8 00 00 00 00	 call	 ?PyTuple_GetFloat@@YA_NPAU_object@@HPAM@Z ; PyTuple_GetFloat
  0004b	83 c4 0c	 add	 esp, 12			; 0000000cH
  0004e	84 c0		 test	 al, al
  00050	74 cb		 je	 SHORT $LN12@wndImageSe

; 3103 : 	{
; 3104 : 		return Py_BuildException();
; 3105 : 	}
; 3106 : 	float fb;
; 3107 : 	if (!PyTuple_GetFloat(poArgs, 3, &fb))

  00052	8d 45 f8	 lea	 eax, DWORD PTR _fb$[ebp]
  00055	50		 push	 eax
  00056	6a 03		 push	 3
  00058	56		 push	 esi
  00059	e8 00 00 00 00	 call	 ?PyTuple_GetFloat@@YA_NPAU_object@@HPAM@Z ; PyTuple_GetFloat
  0005e	83 c4 0c	 add	 esp, 12			; 0000000cH
  00061	84 c0		 test	 al, al
  00063	74 b8		 je	 SHORT $LN12@wndImageSe

; 3108 : 	{
; 3109 : 		return Py_BuildException();
; 3110 : 	}
; 3111 : 	float fa;
; 3112 : 	if (!PyTuple_GetFloat(poArgs, 4, &fa))

  00065	8d 45 fc	 lea	 eax, DWORD PTR _fa$[ebp]
  00068	50		 push	 eax
  00069	6a 04		 push	 4
  0006b	56		 push	 esi
  0006c	e8 00 00 00 00	 call	 ?PyTuple_GetFloat@@YA_NPAU_object@@HPAM@Z ; PyTuple_GetFloat
  00071	83 c4 0c	 add	 esp, 12			; 0000000cH
  00074	84 c0		 test	 al, al
  00076	74 a5		 je	 SHORT $LN12@wndImageSe

; 3113 : 	{
; 3114 : 		return Py_BuildException();
; 3115 : 	}
; 3116 : 
; 3117 : 	if (pWindow->IsType(UI::CImageBox::Type()) ||

  00078	e8 00 00 00 00	 call	 ?Type@CImageBox@UI@@SAKXZ ; UI::CImageBox::Type
  0007d	8b 75 ec	 mov	 esi, DWORD PTR _pWindow$[ebp]
  00080	8b ce		 mov	 ecx, esi
  00082	50		 push	 eax
  00083	e8 00 00 00 00	 call	 ?IsType@CWindow@UI@@QAEHK@Z ; UI::CWindow::IsType
  00088	85 c0		 test	 eax, eax
  0008a	75 61		 jne	 SHORT $LN9@wndImageSe
  0008c	e8 00 00 00 00	 call	 ?Type@CExpandedImageBox@UI@@SAKXZ ; UI::CExpandedImageBox::Type
  00091	50		 push	 eax
  00092	8b ce		 mov	 ecx, esi
  00094	e8 00 00 00 00	 call	 ?IsType@CWindow@UI@@QAEHK@Z ; UI::CWindow::IsType
  00099	85 c0		 test	 eax, eax
  0009b	75 50		 jne	 SHORT $LN9@wndImageSe

; 3121 : 	}
; 3122 : 	else if (pWindow->IsType(UI::CNumberLine::Type()))

  0009d	e8 00 00 00 00	 call	 ?Type@CNumberLine@UI@@SAKXZ ; UI::CNumberLine::Type
  000a2	50		 push	 eax
  000a3	8b ce		 mov	 ecx, esi
  000a5	e8 00 00 00 00	 call	 ?IsType@CWindow@UI@@QAEHK@Z ; UI::CWindow::IsType
  000aa	85 c0		 test	 eax, eax
  000ac	74 74		 je	 SHORT $LN10@wndImageSe

; 3123 : 	{
; 3124 : 		((UI::CNumberLine*)pWindow)->SetDiffuseColor(fr, fg, fb, fa);

  000ae	f3 0f 10 45 fc	 movss	 xmm0, DWORD PTR _fa$[ebp]
  000b3	83 ec 10	 sub	 esp, 16			; 00000010H
  000b6	8b ce		 mov	 ecx, esi
  000b8	f3 0f 11 44 24
	0c		 movss	 DWORD PTR [esp+12], xmm0
  000be	f3 0f 10 45 f8	 movss	 xmm0, DWORD PTR _fb$[ebp]
  000c3	f3 0f 11 44 24
	08		 movss	 DWORD PTR [esp+8], xmm0
  000c9	f3 0f 10 45 f4	 movss	 xmm0, DWORD PTR _fg$[ebp]
  000ce	f3 0f 11 44 24
	04		 movss	 DWORD PTR [esp+4], xmm0
  000d4	f3 0f 10 45 f0	 movss	 xmm0, DWORD PTR _fr$[ebp]
  000d9	f3 0f 11 04 24	 movss	 DWORD PTR [esp], xmm0
  000de	e8 00 00 00 00	 call	 ?SetDiffuseColor@CNumberLine@UI@@QAEXMMMM@Z ; UI::CNumberLine::SetDiffuseColor

; 3125 : 	}
; 3126 : 
; 3127 : 	return Py_BuildNone();

  000e3	e8 00 00 00 00	 call	 ?Py_BuildNone@@YAPAU_object@@XZ ; Py_BuildNone
  000e8	5e		 pop	 esi

; 3128 : }

  000e9	8b e5		 mov	 esp, ebp
  000eb	5d		 pop	 ebp
  000ec	c3		 ret	 0
$LN9@wndImageSe:

; 3118 : 			pWindow->IsType(UI::CExpandedImageBox::Type()))
; 3119 : 	{
; 3120 : 		((UI::CImageBox*)pWindow)->SetDiffuseColor(fr, fg, fb, fa);

  000ed	f3 0f 10 45 fc	 movss	 xmm0, DWORD PTR _fa$[ebp]
  000f2	83 ec 10	 sub	 esp, 16			; 00000010H
  000f5	8b ce		 mov	 ecx, esi
  000f7	f3 0f 11 44 24
	0c		 movss	 DWORD PTR [esp+12], xmm0
  000fd	f3 0f 10 45 f8	 movss	 xmm0, DWORD PTR _fb$[ebp]
  00102	f3 0f 11 44 24
	08		 movss	 DWORD PTR [esp+8], xmm0
  00108	f3 0f 10 45 f4	 movss	 xmm0, DWORD PTR _fg$[ebp]
  0010d	f3 0f 11 44 24
	04		 movss	 DWORD PTR [esp+4], xmm0
  00113	f3 0f 10 45 f0	 movss	 xmm0, DWORD PTR _fr$[ebp]
  00118	f3 0f 11 04 24	 movss	 DWORD PTR [esp], xmm0
  0011d	e8 00 00 00 00	 call	 ?SetDiffuseColor@CImageBox@UI@@QAEXMMMM@Z ; UI::CImageBox::SetDiffuseColor
$LN10@wndImageSe:

; 3125 : 	}
; 3126 : 
; 3127 : 	return Py_BuildNone();

  00122	e8 00 00 00 00	 call	 ?Py_BuildNone@@YAPAU_object@@XZ ; Py_BuildNone
  00127	5e		 pop	 esi

; 3128 : }

  00128	8b e5		 mov	 esp, ebp
  0012a	5d		 pop	 ebp
  0012b	c3		 ret	 0
?wndImageSetDiffuseColor@@YAPAU_object@@PAU1@0@Z ENDP	; wndImageSetDiffuseColor
_TEXT	ENDS
; Function compile flags: /Ogtp
; File C:\Users\flourine\Desktop\Xantios\client-src\Code\eterPythonLib\PythonWindowManagerModule.cpp
;	COMDAT ?wndImageLoadImage@@YAPAU_object@@PAU1@0@Z
_TEXT	SEGMENT
_pWindow$ = -8						; size = 4
_szFileName$ = -4					; size = 4
_poSelf$ = 8						; size = 4
_poArgs$ = 12						; size = 4
?wndImageLoadImage@@YAPAU_object@@PAU1@0@Z PROC		; wndImageLoadImage, COMDAT

; 3069 : {

  00000	55		 push	 ebp
  00001	8b ec		 mov	 ebp, esp
  00003	83 ec 08	 sub	 esp, 8

; 3070 : 	UI::CWindow * pWindow;
; 3071 : 	if (!PyTuple_GetWindow(poArgs, 0, &pWindow))

  00006	8d 45 f8	 lea	 eax, DWORD PTR _pWindow$[ebp]
  00009	50		 push	 eax
  0000a	6a 00		 push	 0
  0000c	ff 75 0c	 push	 DWORD PTR _poArgs$[ebp]
  0000f	e8 00 00 00 00	 call	 ?PyTuple_GetWindow@@YA_NPAU_object@@HPAPAVCWindow@UI@@@Z ; PyTuple_GetWindow
  00014	83 c4 0c	 add	 esp, 12			; 0000000cH
  00017	84 c0		 test	 al, al
  00019	75 0e		 jne	 SHORT $LN2@wndImageLo
$LN6@wndImageLo:

; 3087 : }

  0001b	6a 00		 push	 0
  0001d	e8 00 00 00 00	 call	 ?Py_BuildException@@YAPAU_object@@PBDZZ ; Py_BuildException
  00022	83 c4 04	 add	 esp, 4
  00025	8b e5		 mov	 esp, ebp
  00027	5d		 pop	 ebp
  00028	c3		 ret	 0
$LN2@wndImageLo:

; 3072 : 	{
; 3073 : 		return Py_BuildException();
; 3074 : 	}
; 3075 : 	char * szFileName;
; 3076 : 	if (!PyTuple_GetString(poArgs, 1, &szFileName))

  00029	8d 45 fc	 lea	 eax, DWORD PTR _szFileName$[ebp]
  0002c	50		 push	 eax
  0002d	6a 01		 push	 1
  0002f	ff 75 0c	 push	 DWORD PTR _poArgs$[ebp]
  00032	e8 00 00 00 00	 call	 ?PyTuple_GetString@@YA_NPAU_object@@HPAPAD@Z ; PyTuple_GetString
  00037	83 c4 0c	 add	 esp, 12			; 0000000cH
  0003a	84 c0		 test	 al, al
  0003c	74 dd		 je	 SHORT $LN6@wndImageLo

; 3077 : 	{
; 3078 : 		return Py_BuildException();
; 3079 : 	}
; 3080 : 
; 3081 : 	if (!((UI::CImageBox*)pWindow)->LoadImage(szFileName))

  0003e	ff 75 fc	 push	 DWORD PTR _szFileName$[ebp]
  00041	8b 4d f8	 mov	 ecx, DWORD PTR _pWindow$[ebp]
  00044	e8 00 00 00 00	 call	 ?LoadImageA@CImageBox@UI@@QAEHPBD@Z ; UI::CImageBox::LoadImageA
  00049	85 c0		 test	 eax, eax
  0004b	75 14		 jne	 SHORT $LN4@wndImageLo

; 3082 : 	{
; 3083 : 		return Py_BuildException("Failed to load image (filename: %s)", szFileName);

  0004d	ff 75 fc	 push	 DWORD PTR _szFileName$[ebp]
  00050	68 00 00 00 00	 push	 OFFSET ??_C@_0CE@HBOEBFCG@Failed?5to?5load?5image?5?$CIfilename?3@
  00055	e8 00 00 00 00	 call	 ?Py_BuildException@@YAPAU_object@@PBDZZ ; Py_BuildException
  0005a	83 c4 08	 add	 esp, 8

; 3087 : }

  0005d	8b e5		 mov	 esp, ebp
  0005f	5d		 pop	 ebp
  00060	c3		 ret	 0
$LN4@wndImageLo:

; 3084 : 	}
; 3085 : 
; 3086 : 	return Py_BuildNone();

  00061	e8 00 00 00 00	 call	 ?Py_BuildNone@@YAPAU_object@@XZ ; Py_BuildNone

; 3087 : }

  00066	8b e5		 mov	 esp, ebp
  00068	5d		 pop	 ebp
  00069	c3		 ret	 0
?wndImageLoadImage@@YAPAU_object@@PAU1@0@Z ENDP		; wndImageLoadImage
_TEXT	ENDS
; Function compile flags: /Ogtp
; File C:\Users\flourine\Desktop\Xantios\client-src\Code\eterPythonLib\PythonWindowManagerModule.cpp
;	COMDAT ?wndMarkBox_SetDiffuseColor@@YAPAU_object@@PAU1@0@Z
_TEXT	SEGMENT
_pWindow$ = -20						; size = 4
_fr$ = -16						; size = 4
_fg$ = -12						; size = 4
_fb$ = -8						; size = 4
_fa$ = -4						; size = 4
_poSelf$ = 8						; size = 4
_poArgs$ = 12						; size = 4
?wndMarkBox_SetDiffuseColor@@YAPAU_object@@PAU1@0@Z PROC ; wndMarkBox_SetDiffuseColor, COMDAT

; 3035 : {

  00000	55		 push	 ebp
  00001	8b ec		 mov	 ebp, esp
  00003	83 ec 14	 sub	 esp, 20			; 00000014H

; 3036 : 	UI::CWindow * pWindow;
; 3037 : 	if (!PyTuple_GetWindow(poArgs, 0, &pWindow))

  00006	8d 45 ec	 lea	 eax, DWORD PTR _pWindow$[ebp]
  00009	56		 push	 esi
  0000a	8b 75 0c	 mov	 esi, DWORD PTR _poArgs$[ebp]
  0000d	50		 push	 eax
  0000e	6a 00		 push	 0
  00010	56		 push	 esi
  00011	e8 00 00 00 00	 call	 ?PyTuple_GetWindow@@YA_NPAU_object@@HPAPAVCWindow@UI@@@Z ; PyTuple_GetWindow
  00016	83 c4 0c	 add	 esp, 12			; 0000000cH
  00019	84 c0		 test	 al, al
  0001b	75 0f		 jne	 SHORT $LN2@wndMarkBox
$LN8@wndMarkBox:

; 3065 : }

  0001d	6a 00		 push	 0
  0001f	e8 00 00 00 00	 call	 ?Py_BuildException@@YAPAU_object@@PBDZZ ; Py_BuildException
  00024	83 c4 04	 add	 esp, 4
  00027	5e		 pop	 esi
  00028	8b e5		 mov	 esp, ebp
  0002a	5d		 pop	 ebp
  0002b	c3		 ret	 0
$LN2@wndMarkBox:

; 3038 : 	{
; 3039 : 		return Py_BuildException();
; 3040 : 	}
; 3041 : 	float fr;
; 3042 : 	if (!PyTuple_GetFloat(poArgs, 1, &fr))

  0002c	8d 45 f0	 lea	 eax, DWORD PTR _fr$[ebp]
  0002f	50		 push	 eax
  00030	6a 01		 push	 1
  00032	56		 push	 esi
  00033	e8 00 00 00 00	 call	 ?PyTuple_GetFloat@@YA_NPAU_object@@HPAM@Z ; PyTuple_GetFloat
  00038	83 c4 0c	 add	 esp, 12			; 0000000cH
  0003b	84 c0		 test	 al, al
  0003d	74 de		 je	 SHORT $LN8@wndMarkBox

; 3043 : 	{
; 3044 : 		return Py_BuildException();
; 3045 : 	}
; 3046 : 	float fg;
; 3047 : 	if (!PyTuple_GetFloat(poArgs, 2, &fg))

  0003f	8d 45 f4	 lea	 eax, DWORD PTR _fg$[ebp]
  00042	50		 push	 eax
  00043	6a 02		 push	 2
  00045	56		 push	 esi
  00046	e8 00 00 00 00	 call	 ?PyTuple_GetFloat@@YA_NPAU_object@@HPAM@Z ; PyTuple_GetFloat
  0004b	83 c4 0c	 add	 esp, 12			; 0000000cH
  0004e	84 c0		 test	 al, al
  00050	74 cb		 je	 SHORT $LN8@wndMarkBox

; 3048 : 	{
; 3049 : 		return Py_BuildException();
; 3050 : 	}
; 3051 : 	float fb;
; 3052 : 	if (!PyTuple_GetFloat(poArgs, 3, &fb))

  00052	8d 45 f8	 lea	 eax, DWORD PTR _fb$[ebp]
  00055	50		 push	 eax
  00056	6a 03		 push	 3
  00058	56		 push	 esi
  00059	e8 00 00 00 00	 call	 ?PyTuple_GetFloat@@YA_NPAU_object@@HPAM@Z ; PyTuple_GetFloat
  0005e	83 c4 0c	 add	 esp, 12			; 0000000cH
  00061	84 c0		 test	 al, al
  00063	74 b8		 je	 SHORT $LN8@wndMarkBox

; 3053 : 	{
; 3054 : 		return Py_BuildException();
; 3055 : 	}
; 3056 : 	float fa;
; 3057 : 	if (!PyTuple_GetFloat(poArgs, 4, &fa))

  00065	8d 45 fc	 lea	 eax, DWORD PTR _fa$[ebp]
  00068	50		 push	 eax
  00069	6a 04		 push	 4
  0006b	56		 push	 esi
  0006c	e8 00 00 00 00	 call	 ?PyTuple_GetFloat@@YA_NPAU_object@@HPAM@Z ; PyTuple_GetFloat
  00071	83 c4 0c	 add	 esp, 12			; 0000000cH
  00074	84 c0		 test	 al, al
  00076	74 a5		 je	 SHORT $LN8@wndMarkBox

; 3058 : 	{
; 3059 : 		return Py_BuildException();
; 3060 : 	}
; 3061 : 
; 3062 : 	((UI::CMarkBox*)pWindow)->SetDiffuseColor(fr, fg, fb, fa);

  00078	f3 0f 10 45 fc	 movss	 xmm0, DWORD PTR _fa$[ebp]
  0007d	83 ec 10	 sub	 esp, 16			; 00000010H
  00080	8b 4d ec	 mov	 ecx, DWORD PTR _pWindow$[ebp]
  00083	f3 0f 11 44 24
	0c		 movss	 DWORD PTR [esp+12], xmm0
  00089	f3 0f 10 45 f8	 movss	 xmm0, DWORD PTR _fb$[ebp]
  0008e	f3 0f 11 44 24
	08		 movss	 DWORD PTR [esp+8], xmm0
  00094	f3 0f 10 45 f4	 movss	 xmm0, DWORD PTR _fg$[ebp]
  00099	f3 0f 11 44 24
	04		 movss	 DWORD PTR [esp+4], xmm0
  0009f	f3 0f 10 45 f0	 movss	 xmm0, DWORD PTR _fr$[ebp]
  000a4	f3 0f 11 04 24	 movss	 DWORD PTR [esp], xmm0
  000a9	e8 00 00 00 00	 call	 ?SetDiffuseColor@CMarkBox@UI@@QAEXMMMM@Z ; UI::CMarkBox::SetDiffuseColor

; 3063 : 
; 3064 : 	return Py_BuildNone();

  000ae	e8 00 00 00 00	 call	 ?Py_BuildNone@@YAPAU_object@@XZ ; Py_BuildNone
  000b3	5e		 pop	 esi

; 3065 : }

  000b4	8b e5		 mov	 esp, ebp
  000b6	5d		 pop	 ebp
  000b7	c3		 ret	 0
?wndMarkBox_SetDiffuseColor@@YAPAU_object@@PAU1@0@Z ENDP ; wndMarkBox_SetDiffuseColor
_TEXT	ENDS
; Function compile flags: /Ogtp
; File C:\Users\flourine\Desktop\Xantios\client-src\Code\eterPythonLib\PythonWindowManagerModule.cpp
;	COMDAT ?wndMarkBox_SetScale@@YAPAU_object@@PAU1@0@Z
_TEXT	SEGMENT
_pWindow$ = -8						; size = 4
_fScale$ = -4						; size = 4
_poSelf$ = 8						; size = 4
_poArgs$ = 12						; size = 4
?wndMarkBox_SetScale@@YAPAU_object@@PAU1@0@Z PROC	; wndMarkBox_SetScale, COMDAT

; 3016 : {

  00000	55		 push	 ebp
  00001	8b ec		 mov	 ebp, esp
  00003	83 ec 08	 sub	 esp, 8

; 3017 : 	UI::CWindow * pWindow;
; 3018 : 	if (!PyTuple_GetWindow(poArgs, 0, &pWindow))

  00006	8d 45 f8	 lea	 eax, DWORD PTR _pWindow$[ebp]
  00009	50		 push	 eax
  0000a	6a 00		 push	 0
  0000c	ff 75 0c	 push	 DWORD PTR _poArgs$[ebp]
  0000f	e8 00 00 00 00	 call	 ?PyTuple_GetWindow@@YA_NPAU_object@@HPAPAVCWindow@UI@@@Z ; PyTuple_GetWindow
  00014	83 c4 0c	 add	 esp, 12			; 0000000cH
  00017	84 c0		 test	 al, al
  00019	75 0e		 jne	 SHORT $LN2@wndMarkBox
$LN5@wndMarkBox:

; 3031 : }

  0001b	6a 00		 push	 0
  0001d	e8 00 00 00 00	 call	 ?Py_BuildException@@YAPAU_object@@PBDZZ ; Py_BuildException
  00022	83 c4 04	 add	 esp, 4
  00025	8b e5		 mov	 esp, ebp
  00027	5d		 pop	 ebp
  00028	c3		 ret	 0
$LN2@wndMarkBox:

; 3019 : 	{
; 3020 : 		return Py_BuildException();
; 3021 : 	}
; 3022 : 
; 3023 : 	float fScale;
; 3024 : 	if (!PyTuple_GetFloat(poArgs, 1, &fScale))

  00029	8d 45 fc	 lea	 eax, DWORD PTR _fScale$[ebp]
  0002c	50		 push	 eax
  0002d	6a 01		 push	 1
  0002f	ff 75 0c	 push	 DWORD PTR _poArgs$[ebp]
  00032	e8 00 00 00 00	 call	 ?PyTuple_GetFloat@@YA_NPAU_object@@HPAM@Z ; PyTuple_GetFloat
  00037	83 c4 0c	 add	 esp, 12			; 0000000cH
  0003a	84 c0		 test	 al, al
  0003c	74 dd		 je	 SHORT $LN5@wndMarkBox

; 3025 : 	{
; 3026 : 		return Py_BuildException();
; 3027 : 	}
; 3028 : 
; 3029 : 	((UI::CMarkBox*)pWindow)->SetScale(fScale);

  0003e	f3 0f 10 45 fc	 movss	 xmm0, DWORD PTR _fScale$[ebp]
  00043	51		 push	 ecx
  00044	8b 4d f8	 mov	 ecx, DWORD PTR _pWindow$[ebp]
  00047	f3 0f 11 04 24	 movss	 DWORD PTR [esp], xmm0
  0004c	e8 00 00 00 00	 call	 ?SetScale@CMarkBox@UI@@QAEXM@Z ; UI::CMarkBox::SetScale

; 3030 : 	return Py_BuildNone();

  00051	e8 00 00 00 00	 call	 ?Py_BuildNone@@YAPAU_object@@XZ ; Py_BuildNone

; 3031 : }

  00056	8b e5		 mov	 esp, ebp
  00058	5d		 pop	 ebp
  00059	c3		 ret	 0
?wndMarkBox_SetScale@@YAPAU_object@@PAU1@0@Z ENDP	; wndMarkBox_SetScale
_TEXT	ENDS
; Function compile flags: /Ogtp
; File C:\Users\flourine\Desktop\Xantios\client-src\Code\eterPythonLib\PythonWindowManagerModule.cpp
;	COMDAT ?wndMarkBox_SetIndex@@YAPAU_object@@PAU1@0@Z
_TEXT	SEGMENT
_pWindow$ = -8						; size = 4
_nIndex$ = -4						; size = 4
_poSelf$ = 8						; size = 4
_poArgs$ = 12						; size = 4
?wndMarkBox_SetIndex@@YAPAU_object@@PAU1@0@Z PROC	; wndMarkBox_SetIndex, COMDAT

; 2998 : {

  00000	55		 push	 ebp
  00001	8b ec		 mov	 ebp, esp
  00003	83 ec 08	 sub	 esp, 8

; 2999 : 	UI::CWindow * pWindow;
; 3000 : 	if (!PyTuple_GetWindow(poArgs, 0, &pWindow))

  00006	8d 45 f8	 lea	 eax, DWORD PTR _pWindow$[ebp]
  00009	50		 push	 eax
  0000a	6a 00		 push	 0
  0000c	ff 75 0c	 push	 DWORD PTR _poArgs$[ebp]
  0000f	e8 00 00 00 00	 call	 ?PyTuple_GetWindow@@YA_NPAU_object@@HPAPAVCWindow@UI@@@Z ; PyTuple_GetWindow
  00014	83 c4 0c	 add	 esp, 12			; 0000000cH
  00017	84 c0		 test	 al, al
  00019	75 0e		 jne	 SHORT $LN2@wndMarkBox
$LN5@wndMarkBox:

; 3013 : }

  0001b	6a 00		 push	 0
  0001d	e8 00 00 00 00	 call	 ?Py_BuildException@@YAPAU_object@@PBDZZ ; Py_BuildException
  00022	83 c4 04	 add	 esp, 4
  00025	8b e5		 mov	 esp, ebp
  00027	5d		 pop	 ebp
  00028	c3		 ret	 0
$LN2@wndMarkBox:

; 3001 : 	{
; 3002 : 		return Py_BuildException();
; 3003 : 	}
; 3004 : 
; 3005 : 	int nIndex;
; 3006 : 	if (!PyTuple_GetInteger(poArgs, 1, &nIndex))

  00029	8d 45 fc	 lea	 eax, DWORD PTR _nIndex$[ebp]
  0002c	50		 push	 eax
  0002d	6a 01		 push	 1
  0002f	ff 75 0c	 push	 DWORD PTR _poArgs$[ebp]
  00032	e8 00 00 00 00	 call	 ?PyTuple_GetInteger@@YA_NPAU_object@@HPAH@Z ; PyTuple_GetInteger
  00037	83 c4 0c	 add	 esp, 12			; 0000000cH
  0003a	84 c0		 test	 al, al
  0003c	74 dd		 je	 SHORT $LN5@wndMarkBox

; 3007 : 	{
; 3008 : 		return Py_BuildException();
; 3009 : 	}
; 3010 : 
; 3011 : 	((UI::CMarkBox*)pWindow)->SetIndex(nIndex);

  0003e	ff 75 fc	 push	 DWORD PTR _nIndex$[ebp]
  00041	8b 4d f8	 mov	 ecx, DWORD PTR _pWindow$[ebp]
  00044	e8 00 00 00 00	 call	 ?SetIndex@CMarkBox@UI@@QAEXI@Z ; UI::CMarkBox::SetIndex

; 3012 : 	return Py_BuildNone();

  00049	e8 00 00 00 00	 call	 ?Py_BuildNone@@YAPAU_object@@XZ ; Py_BuildNone

; 3013 : }

  0004e	8b e5		 mov	 esp, ebp
  00050	5d		 pop	 ebp
  00051	c3		 ret	 0
?wndMarkBox_SetIndex@@YAPAU_object@@PAU1@0@Z ENDP	; wndMarkBox_SetIndex
_TEXT	ENDS
; Function compile flags: /Ogtp
; File C:\Users\flourine\Desktop\Xantios\client-src\Code\eterPythonLib\PythonWindowManagerModule.cpp
;	COMDAT ?wndMarkBox_Load@@YAPAU_object@@PAU1@0@Z
_TEXT	SEGMENT
_poSelf$ = 8						; size = 4
_poArgs$ = 12						; size = 4
?wndMarkBox_Load@@YAPAU_object@@PAU1@0@Z PROC		; wndMarkBox_Load, COMDAT

; 2994 : 	return Py_BuildNone();

  00000	e9 00 00 00 00	 jmp	 ?Py_BuildNone@@YAPAU_object@@XZ ; Py_BuildNone
?wndMarkBox_Load@@YAPAU_object@@PAU1@0@Z ENDP		; wndMarkBox_Load
_TEXT	ENDS
; Function compile flags: /Ogtp
; File C:\Users\flourine\Desktop\Xantios\client-src\Code\eterPythonLib\PythonWindowManagerModule.cpp
;	COMDAT ?wndMarkBox_SetImage@@YAPAU_object@@PAU1@0@Z
_TEXT	SEGMENT
_poSelf$ = 8						; size = 4
_poArgs$ = 12						; size = 4
?wndMarkBox_SetImage@@YAPAU_object@@PAU1@0@Z PROC	; wndMarkBox_SetImage, COMDAT

; 2989 : 	return Py_BuildNone();

  00000	e9 00 00 00 00	 jmp	 ?Py_BuildNone@@YAPAU_object@@XZ ; Py_BuildNone
?wndMarkBox_SetImage@@YAPAU_object@@PAU1@0@Z ENDP	; wndMarkBox_SetImage
_TEXT	ENDS
; Function compile flags: /Ogtp
; File C:\Users\flourine\Desktop\Xantios\client-src\Code\eterPythonLib\PythonWindowManagerModule.cpp
;	COMDAT ?wndMarkBox_SetImageFilename@@YAPAU_object@@PAU1@0@Z
_TEXT	SEGMENT
_pWindow$ = -8						; size = 4
_szFileName$ = -4					; size = 4
_poSelf$ = 8						; size = 4
_poArgs$ = 12						; size = 4
?wndMarkBox_SetImageFilename@@YAPAU_object@@PAU1@0@Z PROC ; wndMarkBox_SetImageFilename, COMDAT

; 2971 : {

  00000	55		 push	 ebp
  00001	8b ec		 mov	 ebp, esp
  00003	83 ec 08	 sub	 esp, 8

; 2972 : 	UI::CWindow * pWindow;
; 2973 : 	if (!PyTuple_GetWindow(poArgs, 0, &pWindow))

  00006	8d 45 f8	 lea	 eax, DWORD PTR _pWindow$[ebp]
  00009	50		 push	 eax
  0000a	6a 00		 push	 0
  0000c	ff 75 0c	 push	 DWORD PTR _poArgs$[ebp]
  0000f	e8 00 00 00 00	 call	 ?PyTuple_GetWindow@@YA_NPAU_object@@HPAPAVCWindow@UI@@@Z ; PyTuple_GetWindow
  00014	83 c4 0c	 add	 esp, 12			; 0000000cH
  00017	84 c0		 test	 al, al
  00019	75 0e		 jne	 SHORT $LN2@wndMarkBox
$LN5@wndMarkBox:

; 2985 : }

  0001b	6a 00		 push	 0
  0001d	e8 00 00 00 00	 call	 ?Py_BuildException@@YAPAU_object@@PBDZZ ; Py_BuildException
  00022	83 c4 04	 add	 esp, 4
  00025	8b e5		 mov	 esp, ebp
  00027	5d		 pop	 ebp
  00028	c3		 ret	 0
$LN2@wndMarkBox:

; 2974 : 	{
; 2975 : 		return Py_BuildException();
; 2976 : 	}
; 2977 : 	char * szFileName;
; 2978 : 	if (!PyTuple_GetString(poArgs, 1, &szFileName))

  00029	8d 45 fc	 lea	 eax, DWORD PTR _szFileName$[ebp]
  0002c	50		 push	 eax
  0002d	6a 01		 push	 1
  0002f	ff 75 0c	 push	 DWORD PTR _poArgs$[ebp]
  00032	e8 00 00 00 00	 call	 ?PyTuple_GetString@@YA_NPAU_object@@HPAPAD@Z ; PyTuple_GetString
  00037	83 c4 0c	 add	 esp, 12			; 0000000cH
  0003a	84 c0		 test	 al, al
  0003c	74 dd		 je	 SHORT $LN5@wndMarkBox

; 2979 : 	{
; 2980 : 		return Py_BuildException();
; 2981 : 	}
; 2982 : 
; 2983 : 	((UI::CMarkBox*)pWindow)->LoadImage(szFileName);

  0003e	ff 75 fc	 push	 DWORD PTR _szFileName$[ebp]
  00041	8b 4d f8	 mov	 ecx, DWORD PTR _pWindow$[ebp]
  00044	e8 00 00 00 00	 call	 ?LoadImageA@CMarkBox@UI@@QAEXPBD@Z ; UI::CMarkBox::LoadImageA

; 2984 : 	return Py_BuildNone();

  00049	e8 00 00 00 00	 call	 ?Py_BuildNone@@YAPAU_object@@XZ ; Py_BuildNone

; 2985 : }

  0004e	8b e5		 mov	 esp, ebp
  00050	5d		 pop	 ebp
  00051	c3		 ret	 0
?wndMarkBox_SetImageFilename@@YAPAU_object@@PAU1@0@Z ENDP ; wndMarkBox_SetImageFilename
_TEXT	ENDS
; Function compile flags: /Ogtp
; File C:\Users\flourine\Desktop\Xantios\client-src\Code\eterPythonLib\PythonWindowManagerModule.cpp
;	COMDAT ?wndNumberSetPath@@YAPAU_object@@PAU1@0@Z
_TEXT	SEGMENT
_pWindow$ = -8						; size = 4
_szPath$ = -4						; size = 4
_poSelf$ = 8						; size = 4
_poArgs$ = 12						; size = 4
?wndNumberSetPath@@YAPAU_object@@PAU1@0@Z PROC		; wndNumberSetPath, COMDAT

; 2953 : {

  00000	55		 push	 ebp
  00001	8b ec		 mov	 ebp, esp
  00003	83 ec 08	 sub	 esp, 8

; 2954 : 	UI::CWindow * pWindow;
; 2955 : 	if (!PyTuple_GetWindow(poArgs, 0, &pWindow))

  00006	8d 45 f8	 lea	 eax, DWORD PTR _pWindow$[ebp]
  00009	50		 push	 eax
  0000a	6a 00		 push	 0
  0000c	ff 75 0c	 push	 DWORD PTR _poArgs$[ebp]
  0000f	e8 00 00 00 00	 call	 ?PyTuple_GetWindow@@YA_NPAU_object@@HPAPAVCWindow@UI@@@Z ; PyTuple_GetWindow
  00014	83 c4 0c	 add	 esp, 12			; 0000000cH
  00017	84 c0		 test	 al, al
  00019	75 0e		 jne	 SHORT $LN2@wndNumberS
$LN5@wndNumberS:

; 2968 : }

  0001b	6a 00		 push	 0
  0001d	e8 00 00 00 00	 call	 ?Py_BuildException@@YAPAU_object@@PBDZZ ; Py_BuildException
  00022	83 c4 04	 add	 esp, 4
  00025	8b e5		 mov	 esp, ebp
  00027	5d		 pop	 ebp
  00028	c3		 ret	 0
$LN2@wndNumberS:

; 2956 : 	{
; 2957 : 		return Py_BuildException();
; 2958 : 	}
; 2959 : 	char * szPath;
; 2960 : 	if (!PyTuple_GetString(poArgs, 1, &szPath))

  00029	8d 45 fc	 lea	 eax, DWORD PTR _szPath$[ebp]
  0002c	50		 push	 eax
  0002d	6a 01		 push	 1
  0002f	ff 75 0c	 push	 DWORD PTR _poArgs$[ebp]
  00032	e8 00 00 00 00	 call	 ?PyTuple_GetString@@YA_NPAU_object@@HPAPAD@Z ; PyTuple_GetString
  00037	83 c4 0c	 add	 esp, 12			; 0000000cH
  0003a	84 c0		 test	 al, al
  0003c	74 dd		 je	 SHORT $LN5@wndNumberS

; 2961 : 	{
; 2962 : 		return Py_BuildException();
; 2963 : 	}
; 2964 : 
; 2965 : 	((UI::CNumberLine*)pWindow)->SetPath(szPath);

  0003e	ff 75 fc	 push	 DWORD PTR _szPath$[ebp]
  00041	8b 4d f8	 mov	 ecx, DWORD PTR _pWindow$[ebp]
  00044	e8 00 00 00 00	 call	 ?SetPath@CNumberLine@UI@@QAEXPBD@Z ; UI::CNumberLine::SetPath

; 2966 : 
; 2967 : 	return Py_BuildNone();

  00049	e8 00 00 00 00	 call	 ?Py_BuildNone@@YAPAU_object@@XZ ; Py_BuildNone

; 2968 : }

  0004e	8b e5		 mov	 esp, ebp
  00050	5d		 pop	 ebp
  00051	c3		 ret	 0
?wndNumberSetPath@@YAPAU_object@@PAU1@0@Z ENDP		; wndNumberSetPath
_TEXT	ENDS
; Function compile flags: /Ogtp
; File C:\Users\flourine\Desktop\Xantios\client-src\Code\eterPythonLib\PythonWindowManagerModule.cpp
;	COMDAT ?wndNumberSetNumberVerticalAlignCenter@@YAPAU_object@@PAU1@0@Z
_TEXT	SEGMENT
_pWindow$ = -4						; size = 4
_poSelf$ = 8						; size = 4
_poArgs$ = 12						; size = 4
?wndNumberSetNumberVerticalAlignCenter@@YAPAU_object@@PAU1@0@Z PROC ; wndNumberSetNumberVerticalAlignCenter, COMDAT

; 2940 : {

  00000	55		 push	 ebp
  00001	8b ec		 mov	 ebp, esp
  00003	51		 push	 ecx

; 2941 : 	UI::CWindow* pWindow;
; 2942 : 	if (!PyTuple_GetWindow(poArgs, 0, &pWindow))

  00004	8d 45 fc	 lea	 eax, DWORD PTR _pWindow$[ebp]
  00007	50		 push	 eax
  00008	6a 00		 push	 0
  0000a	ff 75 0c	 push	 DWORD PTR _poArgs$[ebp]
  0000d	e8 00 00 00 00	 call	 ?PyTuple_GetWindow@@YA_NPAU_object@@HPAPAVCWindow@UI@@@Z ; PyTuple_GetWindow
  00012	83 c4 0c	 add	 esp, 12			; 0000000cH
  00015	84 c0		 test	 al, al
  00017	75 0e		 jne	 SHORT $LN2@wndNumberS

; 2943 : 	{
; 2944 : 		return Py_BuildException();

  00019	6a 00		 push	 0
  0001b	e8 00 00 00 00	 call	 ?Py_BuildException@@YAPAU_object@@PBDZZ ; Py_BuildException
  00020	83 c4 04	 add	 esp, 4

; 2950 : }

  00023	8b e5		 mov	 esp, ebp
  00025	5d		 pop	 ebp
  00026	c3		 ret	 0
$LN2@wndNumberS:

; 2945 : 	}
; 2946 : 
; 2947 : 	((UI::CNumberLine*)pWindow)->SetVerticalAlign(UI::CWindow::VERTICAL_ALIGN_CENTER);

  00027	8b 4d fc	 mov	 ecx, DWORD PTR _pWindow$[ebp]
  0002a	6a 01		 push	 1
  0002c	e8 00 00 00 00	 call	 ?SetVerticalAlign@CNumberLine@UI@@QAEXH@Z ; UI::CNumberLine::SetVerticalAlign

; 2948 : 
; 2949 : 	return Py_BuildNone();

  00031	e8 00 00 00 00	 call	 ?Py_BuildNone@@YAPAU_object@@XZ ; Py_BuildNone

; 2950 : }

  00036	8b e5		 mov	 esp, ebp
  00038	5d		 pop	 ebp
  00039	c3		 ret	 0
?wndNumberSetNumberVerticalAlignCenter@@YAPAU_object@@PAU1@0@Z ENDP ; wndNumberSetNumberVerticalAlignCenter
_TEXT	ENDS
; Function compile flags: /Ogtp
; File C:\Users\flourine\Desktop\Xantios\client-src\Code\eterPythonLib\PythonWindowManagerModule.cpp
;	COMDAT ?wndNumberSetNumberHorizontalAlignRight@@YAPAU_object@@PAU1@0@Z
_TEXT	SEGMENT
_pWindow$ = -4						; size = 4
_poSelf$ = 8						; size = 4
_poArgs$ = 12						; size = 4
?wndNumberSetNumberHorizontalAlignRight@@YAPAU_object@@PAU1@0@Z PROC ; wndNumberSetNumberHorizontalAlignRight, COMDAT

; 2927 : {

  00000	55		 push	 ebp
  00001	8b ec		 mov	 ebp, esp
  00003	51		 push	 ecx

; 2928 : 	UI::CWindow * pWindow;
; 2929 : 	if (!PyTuple_GetWindow(poArgs, 0, &pWindow))

  00004	8d 45 fc	 lea	 eax, DWORD PTR _pWindow$[ebp]
  00007	50		 push	 eax
  00008	6a 00		 push	 0
  0000a	ff 75 0c	 push	 DWORD PTR _poArgs$[ebp]
  0000d	e8 00 00 00 00	 call	 ?PyTuple_GetWindow@@YA_NPAU_object@@HPAPAVCWindow@UI@@@Z ; PyTuple_GetWindow
  00012	83 c4 0c	 add	 esp, 12			; 0000000cH
  00015	84 c0		 test	 al, al
  00017	75 0e		 jne	 SHORT $LN2@wndNumberS

; 2930 : 	{
; 2931 : 		return Py_BuildException();

  00019	6a 00		 push	 0
  0001b	e8 00 00 00 00	 call	 ?Py_BuildException@@YAPAU_object@@PBDZZ ; Py_BuildException
  00020	83 c4 04	 add	 esp, 4

; 2937 : }

  00023	8b e5		 mov	 esp, ebp
  00025	5d		 pop	 ebp
  00026	c3		 ret	 0
$LN2@wndNumberS:

; 2932 : 	}
; 2933 : 
; 2934 : 	((UI::CNumberLine*)pWindow)->SetHorizontalAlign(UI::CWindow::HORIZONTAL_ALIGN_RIGHT);

  00027	8b 4d fc	 mov	 ecx, DWORD PTR _pWindow$[ebp]
  0002a	6a 02		 push	 2
  0002c	e8 00 00 00 00	 call	 ?SetHorizontalAlign@CNumberLine@UI@@QAEXH@Z ; UI::CNumberLine::SetHorizontalAlign

; 2935 : 
; 2936 : 	return Py_BuildNone();

  00031	e8 00 00 00 00	 call	 ?Py_BuildNone@@YAPAU_object@@XZ ; Py_BuildNone

; 2937 : }

  00036	8b e5		 mov	 esp, ebp
  00038	5d		 pop	 ebp
  00039	c3		 ret	 0
?wndNumberSetNumberHorizontalAlignRight@@YAPAU_object@@PAU1@0@Z ENDP ; wndNumberSetNumberHorizontalAlignRight
_TEXT	ENDS
; Function compile flags: /Ogtp
; File C:\Users\flourine\Desktop\Xantios\client-src\Code\eterPythonLib\PythonWindowManagerModule.cpp
;	COMDAT ?wndNumberSetNumberHorizontalAlignCenter@@YAPAU_object@@PAU1@0@Z
_TEXT	SEGMENT
_pWindow$ = -4						; size = 4
_poSelf$ = 8						; size = 4
_poArgs$ = 12						; size = 4
?wndNumberSetNumberHorizontalAlignCenter@@YAPAU_object@@PAU1@0@Z PROC ; wndNumberSetNumberHorizontalAlignCenter, COMDAT

; 2914 : {

  00000	55		 push	 ebp
  00001	8b ec		 mov	 ebp, esp
  00003	51		 push	 ecx

; 2915 : 	UI::CWindow * pWindow;
; 2916 : 	if (!PyTuple_GetWindow(poArgs, 0, &pWindow))

  00004	8d 45 fc	 lea	 eax, DWORD PTR _pWindow$[ebp]
  00007	50		 push	 eax
  00008	6a 00		 push	 0
  0000a	ff 75 0c	 push	 DWORD PTR _poArgs$[ebp]
  0000d	e8 00 00 00 00	 call	 ?PyTuple_GetWindow@@YA_NPAU_object@@HPAPAVCWindow@UI@@@Z ; PyTuple_GetWindow
  00012	83 c4 0c	 add	 esp, 12			; 0000000cH
  00015	84 c0		 test	 al, al
  00017	75 0e		 jne	 SHORT $LN2@wndNumberS

; 2917 : 	{
; 2918 : 		return Py_BuildException();

  00019	6a 00		 push	 0
  0001b	e8 00 00 00 00	 call	 ?Py_BuildException@@YAPAU_object@@PBDZZ ; Py_BuildException
  00020	83 c4 04	 add	 esp, 4

; 2924 : }

  00023	8b e5		 mov	 esp, ebp
  00025	5d		 pop	 ebp
  00026	c3		 ret	 0
$LN2@wndNumberS:

; 2919 : 	}
; 2920 : 
; 2921 : 	((UI::CNumberLine*)pWindow)->SetHorizontalAlign(UI::CWindow::HORIZONTAL_ALIGN_CENTER);

  00027	8b 4d fc	 mov	 ecx, DWORD PTR _pWindow$[ebp]
  0002a	6a 01		 push	 1
  0002c	e8 00 00 00 00	 call	 ?SetHorizontalAlign@CNumberLine@UI@@QAEXH@Z ; UI::CNumberLine::SetHorizontalAlign

; 2922 : 
; 2923 : 	return Py_BuildNone();

  00031	e8 00 00 00 00	 call	 ?Py_BuildNone@@YAPAU_object@@XZ ; Py_BuildNone

; 2924 : }

  00036	8b e5		 mov	 esp, ebp
  00038	5d		 pop	 ebp
  00039	c3		 ret	 0
?wndNumberSetNumberHorizontalAlignCenter@@YAPAU_object@@PAU1@0@Z ENDP ; wndNumberSetNumberHorizontalAlignCenter
_TEXT	ENDS
; Function compile flags: /Ogtp
; File C:\Users\flourine\Desktop\Xantios\client-src\Code\eterPythonLib\PythonWindowManagerModule.cpp
;	COMDAT ?wndNumberSetNumber@@YAPAU_object@@PAU1@0@Z
_TEXT	SEGMENT
_pWindow$ = -8						; size = 4
_szNumber$ = -4						; size = 4
_poSelf$ = 8						; size = 4
_poArgs$ = 12						; size = 4
?wndNumberSetNumber@@YAPAU_object@@PAU1@0@Z PROC	; wndNumberSetNumber, COMDAT

; 2896 : {

  00000	55		 push	 ebp
  00001	8b ec		 mov	 ebp, esp
  00003	83 ec 08	 sub	 esp, 8

; 2897 : 	UI::CWindow * pWindow;
; 2898 : 	if (!PyTuple_GetWindow(poArgs, 0, &pWindow))

  00006	8d 45 f8	 lea	 eax, DWORD PTR _pWindow$[ebp]
  00009	50		 push	 eax
  0000a	6a 00		 push	 0
  0000c	ff 75 0c	 push	 DWORD PTR _poArgs$[ebp]
  0000f	e8 00 00 00 00	 call	 ?PyTuple_GetWindow@@YA_NPAU_object@@HPAPAVCWindow@UI@@@Z ; PyTuple_GetWindow
  00014	83 c4 0c	 add	 esp, 12			; 0000000cH
  00017	84 c0		 test	 al, al
  00019	75 0e		 jne	 SHORT $LN2@wndNumberS
$LN5@wndNumberS:

; 2911 : }

  0001b	6a 00		 push	 0
  0001d	e8 00 00 00 00	 call	 ?Py_BuildException@@YAPAU_object@@PBDZZ ; Py_BuildException
  00022	83 c4 04	 add	 esp, 4
  00025	8b e5		 mov	 esp, ebp
  00027	5d		 pop	 ebp
  00028	c3		 ret	 0
$LN2@wndNumberS:

; 2899 : 	{
; 2900 : 		return Py_BuildException();
; 2901 : 	}
; 2902 : 	char * szNumber;
; 2903 : 	if (!PyTuple_GetString(poArgs, 1, &szNumber))

  00029	8d 45 fc	 lea	 eax, DWORD PTR _szNumber$[ebp]
  0002c	50		 push	 eax
  0002d	6a 01		 push	 1
  0002f	ff 75 0c	 push	 DWORD PTR _poArgs$[ebp]
  00032	e8 00 00 00 00	 call	 ?PyTuple_GetString@@YA_NPAU_object@@HPAPAD@Z ; PyTuple_GetString
  00037	83 c4 0c	 add	 esp, 12			; 0000000cH
  0003a	84 c0		 test	 al, al
  0003c	74 dd		 je	 SHORT $LN5@wndNumberS

; 2904 : 	{
; 2905 : 		return Py_BuildException();
; 2906 : 	}
; 2907 : 
; 2908 : 	((UI::CNumberLine*)pWindow)->SetNumber(szNumber);

  0003e	ff 75 fc	 push	 DWORD PTR _szNumber$[ebp]
  00041	8b 4d f8	 mov	 ecx, DWORD PTR _pWindow$[ebp]
  00044	e8 00 00 00 00	 call	 ?SetNumber@CNumberLine@UI@@QAEXPBD@Z ; UI::CNumberLine::SetNumber

; 2909 : 
; 2910 : 	return Py_BuildNone();

  00049	e8 00 00 00 00	 call	 ?Py_BuildNone@@YAPAU_object@@XZ ; Py_BuildNone

; 2911 : }

  0004e	8b e5		 mov	 esp, ebp
  00050	5d		 pop	 ebp
  00051	c3		 ret	 0
?wndNumberSetNumber@@YAPAU_object@@PAU1@0@Z ENDP	; wndNumberSetNumber
_TEXT	ENDS
; Function compile flags: /Ogtp
; File C:\Users\flourine\Desktop\Xantios\client-src\Code\eterPythonLib\PythonWindowManagerModule.cpp
;	COMDAT ?wndTextPositionToRenderPosition@@YAPAU_object@@PAU1@0@Z
_TEXT	SEGMENT
_pWindow$ = -8						; size = 4
_textPos$ = -4						; size = 4
_poSelf$ = 8						; size = 4
_poArgs$ = 12						; size = 4
?wndTextPositionToRenderPosition@@YAPAU_object@@PAU1@0@Z PROC ; wndTextPositionToRenderPosition, COMDAT

; 2880 : {

  00000	55		 push	 ebp
  00001	8b ec		 mov	 ebp, esp
  00003	83 ec 08	 sub	 esp, 8

; 2881 : 	UI::CWindow* pWindow;
; 2882 : 	if (!PyTuple_GetWindow(poArgs, 0, &pWindow))

  00006	8d 45 f8	 lea	 eax, DWORD PTR _pWindow$[ebp]
  00009	50		 push	 eax
  0000a	6a 00		 push	 0
  0000c	ff 75 0c	 push	 DWORD PTR _poArgs$[ebp]
  0000f	e8 00 00 00 00	 call	 ?PyTuple_GetWindow@@YA_NPAU_object@@HPAPAVCWindow@UI@@@Z ; PyTuple_GetWindow
  00014	83 c4 0c	 add	 esp, 12			; 0000000cH
  00017	84 c0		 test	 al, al
  00019	75 09		 jne	 SHORT $LN2@wndTextPos
$LN5@wndTextPos:

; 2893 : }

  0001b	e8 00 00 00 00	 call	 ?Py_BadArgument@@YAPAU_object@@XZ ; Py_BadArgument
  00020	8b e5		 mov	 esp, ebp
  00022	5d		 pop	 ebp
  00023	c3		 ret	 0
$LN2@wndTextPos:

; 2883 : 	{
; 2884 : 		return Py_BadArgument();
; 2885 : 	}
; 2886 : 	int textPos;
; 2887 : 	if (!PyTuple_GetInteger(poArgs, 1, &textPos))

  00024	8d 45 fc	 lea	 eax, DWORD PTR _textPos$[ebp]
  00027	50		 push	 eax
  00028	6a 01		 push	 1
  0002a	ff 75 0c	 push	 DWORD PTR _poArgs$[ebp]
  0002d	e8 00 00 00 00	 call	 ?PyTuple_GetInteger@@YA_NPAU_object@@HPAH@Z ; PyTuple_GetInteger
  00032	83 c4 0c	 add	 esp, 12			; 0000000cH
  00035	84 c0		 test	 al, al
  00037	74 e2		 je	 SHORT $LN5@wndTextPos

; 2888 : 	{
; 2889 : 		return Py_BadArgument();
; 2890 : 	}
; 2891 : 
; 2892 : 	return Py_BuildValue("i", ((UI::CTextLine*)pWindow)->TextPositionToRenderPosition(textPos));

  00039	ff 75 fc	 push	 DWORD PTR _textPos$[ebp]
  0003c	8b 4d f8	 mov	 ecx, DWORD PTR _pWindow$[ebp]
  0003f	e8 00 00 00 00	 call	 ?TextPositionToRenderPosition@CTextLine@UI@@QAEHH@Z ; UI::CTextLine::TextPositionToRenderPosition
  00044	50		 push	 eax
  00045	68 00 00 00 00	 push	 OFFSET ??_C@_01KBJDNOO@i@
  0004a	ff 15 00 00 00
	00		 call	 DWORD PTR __imp__Py_BuildValue
  00050	83 c4 08	 add	 esp, 8

; 2893 : }

  00053	8b e5		 mov	 esp, ebp
  00055	5d		 pop	 ebp
  00056	c3		 ret	 0
?wndTextPositionToRenderPosition@@YAPAU_object@@PAU1@0@Z ENDP ; wndTextPositionToRenderPosition
_TEXT	ENDS
; Function compile flags: /Ogtp
; File C:\Users\flourine\Desktop\Xantios\client-src\Code\eterPythonLib\PythonWindowManagerModule.cpp
;	COMDAT ?wndTextGetCharPositionByCursor@@YAPAU_object@@PAU1@0@Z
_TEXT	SEGMENT
_charPos$ = -20						; size = 12
_pWindow$ = -8						; size = 4
_cursorPos$ = -4					; size = 4
_poSelf$ = 8						; size = 4
_poArgs$ = 12						; size = 4
?wndTextGetCharPositionByCursor@@YAPAU_object@@PAU1@0@Z PROC ; wndTextGetCharPositionByCursor, COMDAT

; 2864 : {

  00000	55		 push	 ebp
  00001	8b ec		 mov	 ebp, esp
  00003	83 ec 14	 sub	 esp, 20			; 00000014H

; 2865 : 	UI::CWindow* pWindow;
; 2866 : 	if (!PyTuple_GetWindow(poArgs, 0, &pWindow))

  00006	8d 45 f8	 lea	 eax, DWORD PTR _pWindow$[ebp]
  00009	50		 push	 eax
  0000a	6a 00		 push	 0
  0000c	ff 75 0c	 push	 DWORD PTR _poArgs$[ebp]
  0000f	e8 00 00 00 00	 call	 ?PyTuple_GetWindow@@YA_NPAU_object@@HPAPAVCWindow@UI@@@Z ; PyTuple_GetWindow
  00014	83 c4 0c	 add	 esp, 12			; 0000000cH
  00017	84 c0		 test	 al, al
  00019	75 09		 jne	 SHORT $LN2@wndTextGet
$LN5@wndTextGet:

; 2878 : }

  0001b	e8 00 00 00 00	 call	 ?Py_BadArgument@@YAPAU_object@@XZ ; Py_BadArgument
  00020	8b e5		 mov	 esp, ebp
  00022	5d		 pop	 ebp
  00023	c3		 ret	 0
$LN2@wndTextGet:

; 2867 : 	{
; 2868 : 		return Py_BadArgument();
; 2869 : 	}
; 2870 : 	int cursorPos;
; 2871 : 	if (!PyTuple_GetInteger(poArgs, 1, &cursorPos))

  00024	8d 45 fc	 lea	 eax, DWORD PTR _cursorPos$[ebp]
  00027	50		 push	 eax
  00028	6a 01		 push	 1
  0002a	ff 75 0c	 push	 DWORD PTR _poArgs$[ebp]
  0002d	e8 00 00 00 00	 call	 ?PyTuple_GetInteger@@YA_NPAU_object@@HPAH@Z ; PyTuple_GetInteger
  00032	83 c4 0c	 add	 esp, 12			; 0000000cH
  00035	84 c0		 test	 al, al
  00037	74 e2		 je	 SHORT $LN5@wndTextGet

; 2872 : 	{
; 2873 : 		return Py_BadArgument();
; 2874 : 	}
; 2875 : 
; 2876 : 	auto charPos = ((UI::CTextLine*)pWindow)->GetCharPositionByCursor(cursorPos);

  00039	ff 75 fc	 push	 DWORD PTR _cursorPos$[ebp]
  0003c	8b 4d f8	 mov	 ecx, DWORD PTR _pWindow$[ebp]
  0003f	8d 45 ec	 lea	 eax, DWORD PTR _charPos$[ebp]
  00042	50		 push	 eax
  00043	e8 00 00 00 00	 call	 ?GetCharPositionByCursor@CTextLine@UI@@QAE?AV?$tuple@HHH@std@@H@Z ; UI::CTextLine::GetCharPositionByCursor

; 2877 : 	return Py_BuildValue("iii", std::get<0>(charPos), std::get<1>(charPos), std::get<2>(charPos));

  00048	ff 75 ec	 push	 DWORD PTR _charPos$[ebp]
  0004b	ff 75 f0	 push	 DWORD PTR _charPos$[ebp+4]
  0004e	ff 75 f4	 push	 DWORD PTR _charPos$[ebp+8]
  00051	68 00 00 00 00	 push	 OFFSET ??_C@_03GLKMLICL@iii@
  00056	ff 15 00 00 00
	00		 call	 DWORD PTR __imp__Py_BuildValue
  0005c	83 c4 10	 add	 esp, 16			; 00000010H

; 2878 : }

  0005f	8b e5		 mov	 esp, ebp
  00061	5d		 pop	 ebp
  00062	c3		 ret	 0
?wndTextGetCharPositionByCursor@@YAPAU_object@@PAU1@0@Z ENDP ; wndTextGetCharPositionByCursor
_TEXT	ENDS
; Function compile flags: /Ogtp
; File C:\Users\flourine\Desktop\Xantios\client-src\Code\eterPythonLib\PythonWindowManagerModule.cpp
;	COMDAT ?wndTextGetCursorPosition@@YAPAU_object@@PAU1@0@Z
_TEXT	SEGMENT
_pWindow$ = -4						; size = 4
_poSelf$ = 8						; size = 4
_poArgs$ = 12						; size = 4
?wndTextGetCursorPosition@@YAPAU_object@@PAU1@0@Z PROC	; wndTextGetCursorPosition, COMDAT

; 2854 : {

  00000	55		 push	 ebp
  00001	8b ec		 mov	 ebp, esp
  00003	51		 push	 ecx

; 2855 : 	UI::CWindow * pWindow;
; 2856 : 	if (!PyTuple_GetWindow(poArgs, 0, &pWindow))

  00004	8d 45 fc	 lea	 eax, DWORD PTR _pWindow$[ebp]
  00007	50		 push	 eax
  00008	6a 00		 push	 0
  0000a	ff 75 0c	 push	 DWORD PTR _poArgs$[ebp]
  0000d	e8 00 00 00 00	 call	 ?PyTuple_GetWindow@@YA_NPAU_object@@HPAPAVCWindow@UI@@@Z ; PyTuple_GetWindow
  00012	83 c4 0c	 add	 esp, 12			; 0000000cH
  00015	84 c0		 test	 al, al
  00017	75 0e		 jne	 SHORT $LN2@wndTextGet

; 2857 : 	{
; 2858 : 		return Py_BuildException();

  00019	6a 00		 push	 0
  0001b	e8 00 00 00 00	 call	 ?Py_BuildException@@YAPAU_object@@PBDZZ ; Py_BuildException
  00020	83 c4 04	 add	 esp, 4

; 2862 : }

  00023	8b e5		 mov	 esp, ebp
  00025	5d		 pop	 ebp
  00026	c3		 ret	 0
$LN2@wndTextGet:

; 2859 : 	}
; 2860 : 
; 2861 : 	return Py_BuildValue("i", ((UI::CTextLine*)pWindow)->GetCursorPosition());

  00027	8b 4d fc	 mov	 ecx, DWORD PTR _pWindow$[ebp]
  0002a	e8 00 00 00 00	 call	 ?GetCursorPosition@CTextLine@UI@@QAEHXZ ; UI::CTextLine::GetCursorPosition
  0002f	50		 push	 eax
  00030	68 00 00 00 00	 push	 OFFSET ??_C@_01KBJDNOO@i@
  00035	ff 15 00 00 00
	00		 call	 DWORD PTR __imp__Py_BuildValue
  0003b	83 c4 08	 add	 esp, 8

; 2862 : }

  0003e	8b e5		 mov	 esp, ebp
  00040	5d		 pop	 ebp
  00041	c3		 ret	 0
?wndTextGetCursorPosition@@YAPAU_object@@PAU1@0@Z ENDP	; wndTextGetCursorPosition
_TEXT	ENDS
; Function compile flags: /Ogtp
; File C:\Users\flourine\Desktop\Xantios\client-src\Code\eterPythonLib\PythonWindowManagerModule.cpp
;	COMDAT ?wndTextIsShowCursor@@YAPAU_object@@PAU1@0@Z
_TEXT	SEGMENT
_pWindow$ = -4						; size = 4
_poSelf$ = 8						; size = 4
_poArgs$ = 12						; size = 4
?wndTextIsShowCursor@@YAPAU_object@@PAU1@0@Z PROC	; wndTextIsShowCursor, COMDAT

; 2843 : {

  00000	55		 push	 ebp
  00001	8b ec		 mov	 ebp, esp
  00003	51		 push	 ecx

; 2844 : 	UI::CWindow* pWindow;
; 2845 : 	if (!PyTuple_GetWindow(poArgs, 0, &pWindow))

  00004	8d 45 fc	 lea	 eax, DWORD PTR _pWindow$[ebp]
  00007	50		 push	 eax
  00008	6a 00		 push	 0
  0000a	ff 75 0c	 push	 DWORD PTR _poArgs$[ebp]
  0000d	e8 00 00 00 00	 call	 ?PyTuple_GetWindow@@YA_NPAU_object@@HPAPAVCWindow@UI@@@Z ; PyTuple_GetWindow
  00012	83 c4 0c	 add	 esp, 12			; 0000000cH
  00015	84 c0		 test	 al, al
  00017	75 0e		 jne	 SHORT $LN2@wndTextIsS

; 2846 : 	{
; 2847 : 		return Py_BuildException();

  00019	6a 00		 push	 0
  0001b	e8 00 00 00 00	 call	 ?Py_BuildException@@YAPAU_object@@PBDZZ ; Py_BuildException
  00020	83 c4 04	 add	 esp, 4

; 2851 : }

  00023	8b e5		 mov	 esp, ebp
  00025	5d		 pop	 ebp
  00026	c3		 ret	 0
$LN2@wndTextIsS:

; 2848 : 	}
; 2849 : 
; 2850 : 	return Py_BuildValue("b", ((UI::CTextLine*)pWindow)->IsShowCursor());

  00027	8b 4d fc	 mov	 ecx, DWORD PTR _pWindow$[ebp]
  0002a	e8 00 00 00 00	 call	 ?IsShowCursor@CTextLine@UI@@QAE_NXZ ; UI::CTextLine::IsShowCursor
  0002f	0f b6 c0	 movzx	 eax, al
  00032	50		 push	 eax
  00033	68 00 00 00 00	 push	 OFFSET ??_C@_01OJONOECF@b@
  00038	ff 15 00 00 00
	00		 call	 DWORD PTR __imp__Py_BuildValue
  0003e	83 c4 08	 add	 esp, 8

; 2851 : }

  00041	8b e5		 mov	 esp, ebp
  00043	5d		 pop	 ebp
  00044	c3		 ret	 0
?wndTextIsShowCursor@@YAPAU_object@@PAU1@0@Z ENDP	; wndTextIsShowCursor
_TEXT	ENDS
; Function compile flags: /Ogtp
; File C:\Users\flourine\Desktop\Xantios\client-src\Code\eterPythonLib\PythonWindowManagerModule.cpp
;	COMDAT ?wndTextHideCursor@@YAPAU_object@@PAU1@0@Z
_TEXT	SEGMENT
_pWindow$ = -4						; size = 4
_poSelf$ = 8						; size = 4
_poArgs$ = 12						; size = 4
?wndTextHideCursor@@YAPAU_object@@PAU1@0@Z PROC		; wndTextHideCursor, COMDAT

; 2831 : {

  00000	55		 push	 ebp
  00001	8b ec		 mov	 ebp, esp
  00003	51		 push	 ecx

; 2832 : 	UI::CWindow * pWindow;
; 2833 : 	if (!PyTuple_GetWindow(poArgs, 0, &pWindow))

  00004	8d 45 fc	 lea	 eax, DWORD PTR _pWindow$[ebp]
  00007	50		 push	 eax
  00008	6a 00		 push	 0
  0000a	ff 75 0c	 push	 DWORD PTR _poArgs$[ebp]
  0000d	e8 00 00 00 00	 call	 ?PyTuple_GetWindow@@YA_NPAU_object@@HPAPAVCWindow@UI@@@Z ; PyTuple_GetWindow
  00012	83 c4 0c	 add	 esp, 12			; 0000000cH
  00015	84 c0		 test	 al, al
  00017	75 0e		 jne	 SHORT $LN2@wndTextHid

; 2834 : 	{
; 2835 : 		return Py_BuildException();

  00019	6a 00		 push	 0
  0001b	e8 00 00 00 00	 call	 ?Py_BuildException@@YAPAU_object@@PBDZZ ; Py_BuildException
  00020	83 c4 04	 add	 esp, 4

; 2840 : }

  00023	8b e5		 mov	 esp, ebp
  00025	5d		 pop	 ebp
  00026	c3		 ret	 0
$LN2@wndTextHid:

; 2836 : 	}
; 2837 : 
; 2838 : 	((UI::CTextLine*)pWindow)->HideCursor();

  00027	8b 4d fc	 mov	 ecx, DWORD PTR _pWindow$[ebp]
  0002a	e8 00 00 00 00	 call	 ?HideCursor@CTextLine@UI@@QAEXXZ ; UI::CTextLine::HideCursor

; 2839 : 	return Py_BuildNone();

  0002f	e8 00 00 00 00	 call	 ?Py_BuildNone@@YAPAU_object@@XZ ; Py_BuildNone

; 2840 : }

  00034	8b e5		 mov	 esp, ebp
  00036	5d		 pop	 ebp
  00037	c3		 ret	 0
?wndTextHideCursor@@YAPAU_object@@PAU1@0@Z ENDP		; wndTextHideCursor
_TEXT	ENDS
; Function compile flags: /Ogtp
; File C:\Users\flourine\Desktop\Xantios\client-src\Code\eterPythonLib\PythonWindowManagerModule.cpp
;	COMDAT ?wndTextShowCursor@@YAPAU_object@@PAU1@0@Z
_TEXT	SEGMENT
_pWindow$ = -4						; size = 4
_poSelf$ = 8						; size = 4
_poArgs$ = 12						; size = 4
?wndTextShowCursor@@YAPAU_object@@PAU1@0@Z PROC		; wndTextShowCursor, COMDAT

; 2820 : {

  00000	55		 push	 ebp
  00001	8b ec		 mov	 ebp, esp
  00003	51		 push	 ecx

; 2821 : 	UI::CWindow * pWindow;
; 2822 : 	if (!PyTuple_GetWindow(poArgs, 0, &pWindow))

  00004	8d 45 fc	 lea	 eax, DWORD PTR _pWindow$[ebp]
  00007	50		 push	 eax
  00008	6a 00		 push	 0
  0000a	ff 75 0c	 push	 DWORD PTR _poArgs$[ebp]
  0000d	e8 00 00 00 00	 call	 ?PyTuple_GetWindow@@YA_NPAU_object@@HPAPAVCWindow@UI@@@Z ; PyTuple_GetWindow
  00012	83 c4 0c	 add	 esp, 12			; 0000000cH
  00015	84 c0		 test	 al, al
  00017	75 0e		 jne	 SHORT $LN2@wndTextSho

; 2823 : 	{
; 2824 : 		return Py_BuildException();

  00019	6a 00		 push	 0
  0001b	e8 00 00 00 00	 call	 ?Py_BuildException@@YAPAU_object@@PBDZZ ; Py_BuildException
  00020	83 c4 04	 add	 esp, 4

; 2829 : }

  00023	8b e5		 mov	 esp, ebp
  00025	5d		 pop	 ebp
  00026	c3		 ret	 0
$LN2@wndTextSho:

; 2825 : 	}
; 2826 : 
; 2827 : 	((UI::CTextLine*)pWindow)->ShowCursor();

  00027	8b 4d fc	 mov	 ecx, DWORD PTR _pWindow$[ebp]
  0002a	e8 00 00 00 00	 call	 ?ShowCursor@CTextLine@UI@@QAEXXZ ; UI::CTextLine::ShowCursor

; 2828 : 	return Py_BuildNone();

  0002f	e8 00 00 00 00	 call	 ?Py_BuildNone@@YAPAU_object@@XZ ; Py_BuildNone

; 2829 : }

  00034	8b e5		 mov	 esp, ebp
  00036	5d		 pop	 ebp
  00037	c3		 ret	 0
?wndTextShowCursor@@YAPAU_object@@PAU1@0@Z ENDP		; wndTextShowCursor
_TEXT	ENDS
; Function compile flags: /Ogtp
; File C:\Users\flourine\Desktop\Xantios\client-src\Code\eterPythonLib\PythonWindowManagerModule.cpp
;	COMDAT ?wndTextGetTextSize@@YAPAU_object@@PAU1@0@Z
_TEXT	SEGMENT
_nWidth$ = -12						; size = 4
_nHeight$ = -8						; size = 4
_pWindow$ = -4						; size = 4
_poSelf$ = 8						; size = 4
_poArgs$ = 12						; size = 4
?wndTextGetTextSize@@YAPAU_object@@PAU1@0@Z PROC	; wndTextGetTextSize, COMDAT

; 2802 : {

  00000	55		 push	 ebp
  00001	8b ec		 mov	 ebp, esp
  00003	83 ec 0c	 sub	 esp, 12			; 0000000cH

; 2803 : 	UI::CWindow * pWindow;
; 2804 : 	if (!PyTuple_GetWindow(poArgs, 0, &pWindow))

  00006	8d 45 fc	 lea	 eax, DWORD PTR _pWindow$[ebp]
  00009	50		 push	 eax
  0000a	6a 00		 push	 0
  0000c	ff 75 0c	 push	 DWORD PTR _poArgs$[ebp]
  0000f	e8 00 00 00 00	 call	 ?PyTuple_GetWindow@@YA_NPAU_object@@HPAPAVCWindow@UI@@@Z ; PyTuple_GetWindow
  00014	83 c4 0c	 add	 esp, 12			; 0000000cH
  00017	84 c0		 test	 al, al
  00019	75 0e		 jne	 SHORT $LN2@wndTextGet

; 2805 : 	{
; 2806 : 		return Py_BuildException();

  0001b	6a 00		 push	 0
  0001d	e8 00 00 00 00	 call	 ?Py_BuildException@@YAPAU_object@@PBDZZ ; Py_BuildException
  00022	83 c4 04	 add	 esp, 4

; 2816 : }

  00025	8b e5		 mov	 esp, ebp
  00027	5d		 pop	 ebp
  00028	c3		 ret	 0
$LN2@wndTextGet:

; 2807 : 	}
; 2808 : 
; 2809 : 	int nWidth;
; 2810 : 	int nHeight;
; 2811 : 
; 2812 : 	UI::CTextLine* pkTextLine = (UI::CTextLine*)pWindow;
; 2813 : 	pkTextLine->GetTextSize(&nWidth, &nHeight);

  00029	8b 4d fc	 mov	 ecx, DWORD PTR _pWindow$[ebp]
  0002c	8d 45 f8	 lea	 eax, DWORD PTR _nHeight$[ebp]
  0002f	50		 push	 eax
  00030	8d 45 f4	 lea	 eax, DWORD PTR _nWidth$[ebp]
  00033	50		 push	 eax
  00034	e8 00 00 00 00	 call	 ?GetTextSize@CTextLine@UI@@QAEXPAH0@Z ; UI::CTextLine::GetTextSize

; 2814 : 
; 2815 : 	return Py_BuildValue("(ii)", nWidth, nHeight);

  00039	ff 75 f8	 push	 DWORD PTR _nHeight$[ebp]
  0003c	ff 75 f4	 push	 DWORD PTR _nWidth$[ebp]
  0003f	68 00 00 00 00	 push	 OFFSET ??_C@_04INACLLOK@?$CIii?$CJ@
  00044	ff 15 00 00 00
	00		 call	 DWORD PTR __imp__Py_BuildValue
  0004a	83 c4 0c	 add	 esp, 12			; 0000000cH

; 2816 : }

  0004d	8b e5		 mov	 esp, ebp
  0004f	5d		 pop	 ebp
  00050	c3		 ret	 0
?wndTextGetTextSize@@YAPAU_object@@PAU1@0@Z ENDP	; wndTextGetTextSize
_TEXT	ENDS
; Function compile flags: /Ogtp
; File C:\Users\flourine\Desktop\Xantios\client-src\Code\eterPythonLib\PythonWindowManagerModule.cpp
; File C:\Users\flourine\Desktop\Xantios\client-src\Code\eterPythonLib\PythonWindow.h
; File C:\Users\flourine\Desktop\Xantios\client-src\Code\eterPythonLib\PythonWindowManagerModule.cpp
; File C:\Users\flourine\Desktop\Xantios\client-src\Code\eterPythonLib\PythonWindow.h
; File C:\Users\flourine\Desktop\Xantios\client-src\Code\eterPythonLib\PythonWindowManagerModule.cpp
;	COMDAT ?wndTextSetTextClip@@YAPAU_object@@PAU1@0@Z
_TEXT	SEGMENT
_window$ = -24						; size = 4
_r$ = -20						; size = 16
__$ArrayPad$ = -4					; size = 4
_poSelf$ = 8						; size = 4
_poArgs$ = 12						; size = 4
?wndTextSetTextClip@@YAPAU_object@@PAU1@0@Z PROC	; wndTextSetTextClip, COMDAT

; 2782 : {

  00000	55		 push	 ebp
  00001	8b ec		 mov	 ebp, esp
  00003	83 ec 18	 sub	 esp, 24			; 00000018H
  00006	a1 00 00 00 00	 mov	 eax, DWORD PTR ___security_cookie
  0000b	33 c5		 xor	 eax, ebp
  0000d	89 45 fc	 mov	 DWORD PTR __$ArrayPad$[ebp], eax
  00010	56		 push	 esi
  00011	8b 75 0c	 mov	 esi, DWORD PTR _poArgs$[ebp]

; 2783 : 	UI::CWindow* window;
; 2784 : 	if (!PyTuple_GetWindow(poArgs, 0, &window))

  00014	8d 45 e8	 lea	 eax, DWORD PTR _window$[ebp]
  00017	50		 push	 eax
  00018	6a 00		 push	 0
  0001a	56		 push	 esi
  0001b	e8 00 00 00 00	 call	 ?PyTuple_GetWindow@@YA_NPAU_object@@HPAPAVCWindow@UI@@@Z ; PyTuple_GetWindow
  00020	83 c4 0c	 add	 esp, 12			; 0000000cH
  00023	84 c0		 test	 al, al
  00025	75 14		 jne	 SHORT $LN2@wndTextSet
$LN10@wndTextSet:

; 2799 : }

  00027	e8 00 00 00 00	 call	 ?Py_BadArgument@@YAPAU_object@@XZ ; Py_BadArgument
  0002c	5e		 pop	 esi
  0002d	8b 4d fc	 mov	 ecx, DWORD PTR __$ArrayPad$[ebp]
  00030	33 cd		 xor	 ecx, ebp
  00032	e8 00 00 00 00	 call	 @__security_check_cookie@4
  00037	8b e5		 mov	 esp, ebp
  00039	5d		 pop	 ebp
  0003a	c3		 ret	 0
$LN2@wndTextSet:

; 2785 : 		return Py_BadArgument();
; 2786 : 
; 2787 : 	RECT r;
; 2788 : 	if (!PyTuple_GetLong(poArgs, 1, &r.left))

  0003b	8d 45 ec	 lea	 eax, DWORD PTR _r$[ebp]
  0003e	50		 push	 eax
  0003f	6a 01		 push	 1
  00041	56		 push	 esi
  00042	e8 00 00 00 00	 call	 ?PyTuple_GetLong@@YA_NPAU_object@@HPAJ@Z ; PyTuple_GetLong
  00047	83 c4 0c	 add	 esp, 12			; 0000000cH
  0004a	84 c0		 test	 al, al
  0004c	74 d9		 je	 SHORT $LN10@wndTextSet

; 2789 : 		return Py_BadArgument();
; 2790 : 	if (!PyTuple_GetLong(poArgs, 2, &r.top))

  0004e	8d 45 f0	 lea	 eax, DWORD PTR _r$[ebp+4]
  00051	50		 push	 eax
  00052	6a 02		 push	 2
  00054	56		 push	 esi
  00055	e8 00 00 00 00	 call	 ?PyTuple_GetLong@@YA_NPAU_object@@HPAJ@Z ; PyTuple_GetLong
  0005a	83 c4 0c	 add	 esp, 12			; 0000000cH
  0005d	84 c0		 test	 al, al
  0005f	74 c6		 je	 SHORT $LN10@wndTextSet

; 2791 : 		return Py_BadArgument();
; 2792 : 	if (!PyTuple_GetLong(poArgs, 3, &r.right))

  00061	8d 45 f4	 lea	 eax, DWORD PTR _r$[ebp+8]
  00064	50		 push	 eax
  00065	6a 03		 push	 3
  00067	56		 push	 esi
  00068	e8 00 00 00 00	 call	 ?PyTuple_GetLong@@YA_NPAU_object@@HPAJ@Z ; PyTuple_GetLong
  0006d	83 c4 0c	 add	 esp, 12			; 0000000cH
  00070	84 c0		 test	 al, al
  00072	74 b3		 je	 SHORT $LN10@wndTextSet

; 2793 : 		return Py_BadArgument();
; 2794 : 	if (!PyTuple_GetLong(poArgs, 4, &r.bottom))

  00074	8d 45 f8	 lea	 eax, DWORD PTR _r$[ebp+12]
  00077	50		 push	 eax
  00078	6a 04		 push	 4
  0007a	56		 push	 esi
  0007b	e8 00 00 00 00	 call	 ?PyTuple_GetLong@@YA_NPAU_object@@HPAJ@Z ; PyTuple_GetLong
  00080	83 c4 0c	 add	 esp, 12			; 0000000cH
  00083	84 c0		 test	 al, al
  00085	74 a0		 je	 SHORT $LN10@wndTextSet
; File C:\Users\flourine\Desktop\Xantios\client-src\Code\eterPythonLib\PythonWindow.h

; 95   : 		m_clipRect = rect;

  00087	8b 45 e8	 mov	 eax, DWORD PTR _window$[ebp]
  0008a	0f 10 45 ec	 movups	 xmm0, XMMWORD PTR _r$[ebp]
; File C:\Users\flourine\Desktop\Xantios\client-src\Code\eterPythonLib\PythonWindowManagerModule.cpp

; 2799 : }

  0008e	8b 4d fc	 mov	 ecx, DWORD PTR __$ArrayPad$[ebp]
  00091	33 cd		 xor	 ecx, ebp
; File C:\Users\flourine\Desktop\Xantios\client-src\Code\eterPythonLib\PythonWindow.h

; 95   : 		m_clipRect = rect;

  00093	0f 11 40 44	 movups	 XMMWORD PTR [eax+68], xmm0
; File C:\Users\flourine\Desktop\Xantios\client-src\Code\eterPythonLib\PythonWindowManagerModule.cpp

; 2798 : 	Py_RETURN_NONE;

  00097	a1 00 00 00 00	 mov	 eax, DWORD PTR __imp___Py_NoneStruct
  0009c	5e		 pop	 esi
  0009d	ff 00		 inc	 DWORD PTR [eax]
  0009f	a1 00 00 00 00	 mov	 eax, DWORD PTR __imp___Py_NoneStruct

; 2799 : }

  000a4	e8 00 00 00 00	 call	 @__security_check_cookie@4
  000a9	8b e5		 mov	 esp, ebp
  000ab	5d		 pop	 ebp
  000ac	c3		 ret	 0
?wndTextSetTextClip@@YAPAU_object@@PAU1@0@Z ENDP	; wndTextSetTextClip
_TEXT	ENDS
; Function compile flags: /Ogtp
; File C:\Users\flourine\Desktop\Xantios\client-src\Code\eterPythonLib\PythonWindowManagerModule.cpp
;	COMDAT ?wndTextGetText@@YAPAU_object@@PAU1@0@Z
_TEXT	SEGMENT
_pWindow$ = -4						; size = 4
_poSelf$ = 8						; size = 4
_poArgs$ = 12						; size = 4
?wndTextGetText@@YAPAU_object@@PAU1@0@Z PROC		; wndTextGetText, COMDAT

; 2771 : {

  00000	55		 push	 ebp
  00001	8b ec		 mov	 ebp, esp
  00003	51		 push	 ecx

; 2772 : 	UI::CWindow * pWindow;
; 2773 : 	if (!PyTuple_GetWindow(poArgs, 0, &pWindow))

  00004	8d 45 fc	 lea	 eax, DWORD PTR _pWindow$[ebp]
  00007	50		 push	 eax
  00008	6a 00		 push	 0
  0000a	ff 75 0c	 push	 DWORD PTR _poArgs$[ebp]
  0000d	e8 00 00 00 00	 call	 ?PyTuple_GetWindow@@YA_NPAU_object@@HPAPAVCWindow@UI@@@Z ; PyTuple_GetWindow
  00012	83 c4 0c	 add	 esp, 12			; 0000000cH
  00015	84 c0		 test	 al, al
  00017	75 0e		 jne	 SHORT $LN2@wndTextGet

; 2774 : 	{
; 2775 : 		return Py_BuildException();

  00019	6a 00		 push	 0
  0001b	e8 00 00 00 00	 call	 ?Py_BuildException@@YAPAU_object@@PBDZZ ; Py_BuildException
  00020	83 c4 04	 add	 esp, 4

; 2779 : }

  00023	8b e5		 mov	 esp, ebp
  00025	5d		 pop	 ebp
  00026	c3		 ret	 0
$LN2@wndTextGet:

; 2776 : 	}
; 2777 : 
; 2778 : 	return Py_BuildValue("s", ((UI::CTextLine*)pWindow)->GetText());

  00027	8b 4d fc	 mov	 ecx, DWORD PTR _pWindow$[ebp]
  0002a	e8 00 00 00 00	 call	 ?GetText@CTextLine@UI@@QAEPBDXZ ; UI::CTextLine::GetText
  0002f	50		 push	 eax
  00030	68 00 00 00 00	 push	 OFFSET ??_C@_01LKDEMHDF@s@
  00035	ff 15 00 00 00
	00		 call	 DWORD PTR __imp__Py_BuildValue
  0003b	83 c4 08	 add	 esp, 8

; 2779 : }

  0003e	8b e5		 mov	 esp, ebp
  00040	5d		 pop	 ebp
  00041	c3		 ret	 0
?wndTextGetText@@YAPAU_object@@PAU1@0@Z ENDP		; wndTextGetText
_TEXT	ENDS
; Function compile flags: /Ogtp
; File C:\Users\flourine\Desktop\Xantios\client-src\Code\eterPythonLib\PythonWindowManagerModule.cpp
;	COMDAT ?wndTextGetSpecificTextWidth@@YAPAU_object@@PAU1@0@Z
_TEXT	SEGMENT
_pWindow$ = -8						; size = 4
_szText$ = -4						; size = 4
_poSelf$ = 8						; size = 4
_poArgs$ = 12						; size = 4
?wndTextGetSpecificTextWidth@@YAPAU_object@@PAU1@0@Z PROC ; wndTextGetSpecificTextWidth, COMDAT

; 2755 : {

  00000	55		 push	 ebp
  00001	8b ec		 mov	 ebp, esp
  00003	83 ec 08	 sub	 esp, 8

; 2756 : 	UI::CWindow* pWindow;
; 2757 : 	if (!PyTuple_GetWindow(poArgs, 0, &pWindow))

  00006	8d 45 f8	 lea	 eax, DWORD PTR _pWindow$[ebp]
  00009	50		 push	 eax
  0000a	6a 00		 push	 0
  0000c	ff 75 0c	 push	 DWORD PTR _poArgs$[ebp]
  0000f	e8 00 00 00 00	 call	 ?PyTuple_GetWindow@@YA_NPAU_object@@HPAPAVCWindow@UI@@@Z ; PyTuple_GetWindow
  00014	83 c4 0c	 add	 esp, 12			; 0000000cH
  00017	84 c0		 test	 al, al
  00019	75 09		 jne	 SHORT $LN2@wndTextGet
$LN5@wndTextGet:

; 2769 : }

  0001b	e8 00 00 00 00	 call	 ?Py_BadArgument@@YAPAU_object@@XZ ; Py_BadArgument
  00020	8b e5		 mov	 esp, ebp
  00022	5d		 pop	 ebp
  00023	c3		 ret	 0
$LN2@wndTextGet:

; 2758 : 	{
; 2759 : 		return Py_BadArgument();
; 2760 : 	}
; 2761 : 	char* szText;
; 2762 : 	if (!PyTuple_GetString(poArgs, 1, &szText))

  00024	8d 45 fc	 lea	 eax, DWORD PTR _szText$[ebp]
  00027	50		 push	 eax
  00028	6a 01		 push	 1
  0002a	ff 75 0c	 push	 DWORD PTR _poArgs$[ebp]
  0002d	e8 00 00 00 00	 call	 ?PyTuple_GetString@@YA_NPAU_object@@HPAPAD@Z ; PyTuple_GetString
  00032	83 c4 0c	 add	 esp, 12			; 0000000cH
  00035	84 c0		 test	 al, al
  00037	74 e2		 je	 SHORT $LN5@wndTextGet

; 2763 : 	{
; 2764 : 		return Py_BadArgument();
; 2765 : 	}
; 2766 : 
; 2767 : 	int textWidth = ((UI::CTextLine*)pWindow)->GetSpecificTextWidth(szText);

  00039	ff 75 fc	 push	 DWORD PTR _szText$[ebp]
  0003c	8b 4d f8	 mov	 ecx, DWORD PTR _pWindow$[ebp]
  0003f	e8 00 00 00 00	 call	 ?GetSpecificTextWidth@CTextLine@UI@@QAEHPBD@Z ; UI::CTextLine::GetSpecificTextWidth

; 2768 : 	return Py_BuildValue("i", textWidth);

  00044	50		 push	 eax
  00045	68 00 00 00 00	 push	 OFFSET ??_C@_01KBJDNOO@i@
  0004a	ff 15 00 00 00
	00		 call	 DWORD PTR __imp__Py_BuildValue
  00050	83 c4 08	 add	 esp, 8

; 2769 : }

  00053	8b e5		 mov	 esp, ebp
  00055	5d		 pop	 ebp
  00056	c3		 ret	 0
?wndTextGetSpecificTextWidth@@YAPAU_object@@PAU1@0@Z ENDP ; wndTextGetSpecificTextWidth
_TEXT	ENDS
; Function compile flags: /Ogtp
; File C:\Users\flourine\Desktop\Xantios\client-src\Code\eterPythonLib\PythonWindowManagerModule.cpp
;	COMDAT ?wndTextSetText@@YAPAU_object@@PAU1@0@Z
_TEXT	SEGMENT
_pWindow$ = -8						; size = 4
_szText$ = -4						; size = 4
_poSelf$ = 8						; size = 4
_poArgs$ = 12						; size = 4
?wndTextSetText@@YAPAU_object@@PAU1@0@Z PROC		; wndTextSetText, COMDAT

; 2739 : {

  00000	55		 push	 ebp
  00001	8b ec		 mov	 ebp, esp
  00003	83 ec 08	 sub	 esp, 8

; 2740 : 	UI::CWindow * pWindow;
; 2741 : 	if (!PyTuple_GetWindow(poArgs, 0, &pWindow))

  00006	8d 45 f8	 lea	 eax, DWORD PTR _pWindow$[ebp]
  00009	50		 push	 eax
  0000a	6a 00		 push	 0
  0000c	ff 75 0c	 push	 DWORD PTR _poArgs$[ebp]
  0000f	e8 00 00 00 00	 call	 ?PyTuple_GetWindow@@YA_NPAU_object@@HPAPAVCWindow@UI@@@Z ; PyTuple_GetWindow
  00014	83 c4 0c	 add	 esp, 12			; 0000000cH
  00017	84 c0		 test	 al, al
  00019	75 0e		 jne	 SHORT $LN2@wndTextSet
$LN5@wndTextSet:

; 2753 : }

  0001b	6a 00		 push	 0
  0001d	e8 00 00 00 00	 call	 ?Py_BuildException@@YAPAU_object@@PBDZZ ; Py_BuildException
  00022	83 c4 04	 add	 esp, 4
  00025	8b e5		 mov	 esp, ebp
  00027	5d		 pop	 ebp
  00028	c3		 ret	 0
$LN2@wndTextSet:

; 2742 : 	{
; 2743 : 		return Py_BuildException();
; 2744 : 	}
; 2745 : 	char * szText;
; 2746 : 	if (!PyTuple_GetString(poArgs, 1, &szText))

  00029	8d 45 fc	 lea	 eax, DWORD PTR _szText$[ebp]
  0002c	50		 push	 eax
  0002d	6a 01		 push	 1
  0002f	ff 75 0c	 push	 DWORD PTR _poArgs$[ebp]
  00032	e8 00 00 00 00	 call	 ?PyTuple_GetString@@YA_NPAU_object@@HPAPAD@Z ; PyTuple_GetString
  00037	83 c4 0c	 add	 esp, 12			; 0000000cH
  0003a	84 c0		 test	 al, al
  0003c	74 dd		 je	 SHORT $LN5@wndTextSet

; 2747 : 	{
; 2748 : 		return Py_BuildException();
; 2749 : 	}
; 2750 : 
; 2751 : 	((UI::CTextLine*)pWindow)->SetText(szText);

  0003e	ff 75 fc	 push	 DWORD PTR _szText$[ebp]
  00041	8b 4d f8	 mov	 ecx, DWORD PTR _pWindow$[ebp]
  00044	e8 00 00 00 00	 call	 ?SetText@CTextLine@UI@@QAEXPBD@Z ; UI::CTextLine::SetText

; 2752 : 	return Py_BuildNone();

  00049	e8 00 00 00 00	 call	 ?Py_BuildNone@@YAPAU_object@@XZ ; Py_BuildNone

; 2753 : }

  0004e	8b e5		 mov	 esp, ebp
  00050	5d		 pop	 ebp
  00051	c3		 ret	 0
?wndTextSetText@@YAPAU_object@@PAU1@0@Z ENDP		; wndTextSetText
_TEXT	ENDS
; Function compile flags: /Ogtp
; File C:\Users\flourine\Desktop\Xantios\client-src\Code\eterPythonLib\PythonWindowManagerModule.cpp
;	COMDAT ?wndTextSetLimitWidth@@YAPAU_object@@PAU1@0@Z
_TEXT	SEGMENT
_pWindow$ = -8						; size = 4
_fWidth$ = -4						; size = 4
_poSelf$ = 8						; size = 4
_poArgs$ = 12						; size = 4
?wndTextSetLimitWidth@@YAPAU_object@@PAU1@0@Z PROC	; wndTextSetLimitWidth, COMDAT

; 2723 : {

  00000	55		 push	 ebp
  00001	8b ec		 mov	 ebp, esp
  00003	83 ec 08	 sub	 esp, 8

; 2724 : 	UI::CWindow * pWindow;
; 2725 : 	if (!PyTuple_GetWindow(poArgs, 0, &pWindow))

  00006	8d 45 f8	 lea	 eax, DWORD PTR _pWindow$[ebp]
  00009	50		 push	 eax
  0000a	6a 00		 push	 0
  0000c	ff 75 0c	 push	 DWORD PTR _poArgs$[ebp]
  0000f	e8 00 00 00 00	 call	 ?PyTuple_GetWindow@@YA_NPAU_object@@HPAPAVCWindow@UI@@@Z ; PyTuple_GetWindow
  00014	83 c4 0c	 add	 esp, 12			; 0000000cH
  00017	84 c0		 test	 al, al
  00019	75 0e		 jne	 SHORT $LN2@wndTextSet
$LN5@wndTextSet:

; 2737 : }

  0001b	6a 00		 push	 0
  0001d	e8 00 00 00 00	 call	 ?Py_BuildException@@YAPAU_object@@PBDZZ ; Py_BuildException
  00022	83 c4 04	 add	 esp, 4
  00025	8b e5		 mov	 esp, ebp
  00027	5d		 pop	 ebp
  00028	c3		 ret	 0
$LN2@wndTextSet:

; 2726 : 	{
; 2727 : 		return Py_BuildException();
; 2728 : 	}
; 2729 : 	float fWidth;
; 2730 : 	if (!PyTuple_GetFloat(poArgs, 1, &fWidth))

  00029	8d 45 fc	 lea	 eax, DWORD PTR _fWidth$[ebp]
  0002c	50		 push	 eax
  0002d	6a 01		 push	 1
  0002f	ff 75 0c	 push	 DWORD PTR _poArgs$[ebp]
  00032	e8 00 00 00 00	 call	 ?PyTuple_GetFloat@@YA_NPAU_object@@HPAM@Z ; PyTuple_GetFloat
  00037	83 c4 0c	 add	 esp, 12			; 0000000cH
  0003a	84 c0		 test	 al, al
  0003c	74 dd		 je	 SHORT $LN5@wndTextSet

; 2731 : 	{
; 2732 : 		return Py_BuildException();
; 2733 : 	}
; 2734 : 
; 2735 : 	((UI::CTextLine*)pWindow)->SetLimitWidth(fWidth);

  0003e	f3 0f 10 45 fc	 movss	 xmm0, DWORD PTR _fWidth$[ebp]
  00043	51		 push	 ecx
  00044	8b 4d f8	 mov	 ecx, DWORD PTR _pWindow$[ebp]
  00047	f3 0f 11 04 24	 movss	 DWORD PTR [esp], xmm0
  0004c	e8 00 00 00 00	 call	 ?SetLimitWidth@CTextLine@UI@@QAEXM@Z ; UI::CTextLine::SetLimitWidth

; 2736 : 	return Py_BuildNone();

  00051	e8 00 00 00 00	 call	 ?Py_BuildNone@@YAPAU_object@@XZ ; Py_BuildNone

; 2737 : }

  00056	8b e5		 mov	 esp, ebp
  00058	5d		 pop	 ebp
  00059	c3		 ret	 0
?wndTextSetLimitWidth@@YAPAU_object@@PAU1@0@Z ENDP	; wndTextSetLimitWidth
_TEXT	ENDS
; Function compile flags: /Ogtp
; File C:\Users\flourine\Desktop\Xantios\client-src\Code\eterPythonLib\PythonWindowManagerModule.cpp
;	COMDAT ?wndTextSetFontColor@@YAPAU_object@@PAU1@0@Z
_TEXT	SEGMENT
_fr$1 = -20						; size = 4
_fg$2 = -16						; size = 4
_fb$3 = -12						; size = 4
_pWindow$ = -8						; size = 4
_argb$4 = -4						; size = 4
_iColor$5 = -4						; size = 4
_poSelf$ = 8						; size = 4
_poArgs$ = 12						; size = 4
?wndTextSetFontColor@@YAPAU_object@@PAU1@0@Z PROC	; wndTextSetFontColor, COMDAT

; 2671 : {

  00000	55		 push	 ebp
  00001	8b ec		 mov	 ebp, esp
  00003	83 ec 14	 sub	 esp, 20			; 00000014H

; 2672 : 	UI::CWindow * pWindow;
; 2673 : 	if (!PyTuple_GetWindow(poArgs, 0, &pWindow))

  00006	8d 45 f8	 lea	 eax, DWORD PTR _pWindow$[ebp]
  00009	56		 push	 esi
  0000a	8b 75 0c	 mov	 esi, DWORD PTR _poArgs$[ebp]
  0000d	50		 push	 eax
  0000e	6a 00		 push	 0
  00010	56		 push	 esi
  00011	e8 00 00 00 00	 call	 ?PyTuple_GetWindow@@YA_NPAU_object@@HPAPAVCWindow@UI@@@Z ; PyTuple_GetWindow
  00016	83 c4 0c	 add	 esp, 12			; 0000000cH
  00019	84 c0		 test	 al, al
  0001b	74 26		 je	 SHORT $LN6@wndTextSet

; 2674 : 	{
; 2675 : 		return Py_BuildException();
; 2676 : 	}
; 2677 : 
; 2678 : 	if (2 == PyTuple_Size(poArgs))

  0001d	56		 push	 esi
  0001e	ff 15 00 00 00
	00		 call	 DWORD PTR __imp__PyTuple_Size
  00024	83 c4 04	 add	 esp, 4
  00027	83 f8 02	 cmp	 eax, 2
  0002a	75 26		 jne	 SHORT $LN3@wndTextSet

; 2679 : 	{
; 2680 : 		int iColor;
; 2681 : 		if (!PyTuple_GetInteger(poArgs, 1, &iColor))

  0002c	8d 45 fc	 lea	 eax, DWORD PTR _iColor$5[ebp]
  0002f	50		 push	 eax
  00030	6a 01		 push	 1
  00032	56		 push	 esi
  00033	e8 00 00 00 00	 call	 ?PyTuple_GetInteger@@YA_NPAU_object@@HPAH@Z ; PyTuple_GetInteger
  00038	83 c4 0c	 add	 esp, 12			; 0000000cH
  0003b	84 c0		 test	 al, al
  0003d	0f 85 93 00 00
	00		 jne	 $LN12@wndTextSet
$LN6@wndTextSet:

; 2721 : }

  00043	6a 00		 push	 0
  00045	e8 00 00 00 00	 call	 ?Py_BuildException@@YAPAU_object@@PBDZZ ; Py_BuildException
  0004a	83 c4 04	 add	 esp, 4
  0004d	5e		 pop	 esi
  0004e	8b e5		 mov	 esp, ebp
  00050	5d		 pop	 ebp
  00051	c3		 ret	 0
$LN3@wndTextSet:

; 2682 : 		{
; 2683 : 			return Py_BuildException();
; 2684 : 		}
; 2685 : 		((UI::CTextLine*)pWindow)->SetFontColor(iColor);
; 2686 : 	}
; 2687 : 	else if (4 == PyTuple_Size(poArgs))

  00052	56		 push	 esi
  00053	ff 15 00 00 00
	00		 call	 DWORD PTR __imp__PyTuple_Size
  00059	83 c4 04	 add	 esp, 4
  0005c	83 f8 04	 cmp	 eax, 4
  0005f	75 e2		 jne	 SHORT $LN6@wndTextSet

; 2688 : 	{
; 2689 : 		float fr;
; 2690 : 		if (!PyTuple_GetFloat(poArgs, 1, &fr))

  00061	8d 45 ec	 lea	 eax, DWORD PTR _fr$1[ebp]
  00064	50		 push	 eax
  00065	6a 01		 push	 1
  00067	56		 push	 esi
  00068	e8 00 00 00 00	 call	 ?PyTuple_GetFloat@@YA_NPAU_object@@HPAM@Z ; PyTuple_GetFloat
  0006d	83 c4 0c	 add	 esp, 12			; 0000000cH
  00070	84 c0		 test	 al, al
  00072	74 cf		 je	 SHORT $LN6@wndTextSet

; 2691 : 		{
; 2692 : 			return Py_BuildException();
; 2693 : 		}
; 2694 : 		float fg;
; 2695 : 		if (!PyTuple_GetFloat(poArgs, 2, &fg))

  00074	8d 45 f0	 lea	 eax, DWORD PTR _fg$2[ebp]
  00077	50		 push	 eax
  00078	6a 02		 push	 2
  0007a	56		 push	 esi
  0007b	e8 00 00 00 00	 call	 ?PyTuple_GetFloat@@YA_NPAU_object@@HPAM@Z ; PyTuple_GetFloat
  00080	83 c4 0c	 add	 esp, 12			; 0000000cH
  00083	84 c0		 test	 al, al
  00085	74 bc		 je	 SHORT $LN6@wndTextSet

; 2696 : 		{
; 2697 : 			return Py_BuildException();
; 2698 : 		}
; 2699 : 		float fb;
; 2700 : 		if (!PyTuple_GetFloat(poArgs, 3, &fb))

  00087	8d 45 f4	 lea	 eax, DWORD PTR _fb$3[ebp]
  0008a	50		 push	 eax
  0008b	6a 03		 push	 3
  0008d	56		 push	 esi
  0008e	e8 00 00 00 00	 call	 ?PyTuple_GetFloat@@YA_NPAU_object@@HPAM@Z ; PyTuple_GetFloat
  00093	83 c4 0c	 add	 esp, 12			; 0000000cH
  00096	84 c0		 test	 al, al
  00098	74 a9		 je	 SHORT $LN6@wndTextSet

; 2701 : 		{
; 2702 : 			return Py_BuildException();
; 2703 : 		}
; 2704 : 		float fa = 1.0f;
; 2705 : 
; 2706 : 		BYTE argb[4] =
; 2707 : 		{
; 2708 : 			(BYTE) (255.0f * fb),

  0009a	f3 0f 10 0d 00
	00 00 00	 movss	 xmm1, DWORD PTR __real@437f0000
  000a2	f3 0f 10 45 f4	 movss	 xmm0, DWORD PTR _fb$3[ebp]
  000a7	f3 0f 59 c1	 mulss	 xmm0, xmm1

; 2709 : 			(BYTE) (255.0f * fg),
; 2710 : 			(BYTE) (255.0f * fr),
; 2711 : 			(BYTE) (255.0f * fa)

  000ab	c6 45 ff ff	 mov	 BYTE PTR _argb$4[ebp+3], 255 ; 000000ffH
  000af	f3 0f 2c c0	 cvttss2si eax, xmm0
  000b3	f3 0f 10 45 f0	 movss	 xmm0, DWORD PTR _fg$2[ebp]
  000b8	f3 0f 59 c1	 mulss	 xmm0, xmm1
  000bc	88 45 fc	 mov	 BYTE PTR _argb$4[ebp], al
  000bf	f3 0f 2c c0	 cvttss2si eax, xmm0
  000c3	f3 0f 10 45 ec	 movss	 xmm0, DWORD PTR _fr$1[ebp]
  000c8	f3 0f 59 c1	 mulss	 xmm0, xmm1
  000cc	88 45 fd	 mov	 BYTE PTR _argb$4[ebp+1], al
  000cf	f3 0f 2c c0	 cvttss2si eax, xmm0
  000d3	88 45 fe	 mov	 BYTE PTR _argb$4[ebp+2], al
$LN12@wndTextSet:

; 2712 : 		};
; 2713 : 		((UI::CTextLine*)pWindow)->SetFontColor(*((DWORD *) argb));
; 2714 : 	}
; 2715 : 	else
; 2716 : 	{
; 2717 : 		return Py_BuildException();
; 2718 : 	}
; 2719 : 
; 2720 : 	return Py_BuildNone();

  000d6	ff 75 fc	 push	 DWORD PTR _argb$4[ebp]
  000d9	8b 4d f8	 mov	 ecx, DWORD PTR _pWindow$[ebp]
  000dc	e8 00 00 00 00	 call	 ?SetFontColor@CTextLine@UI@@QAEXK@Z ; UI::CTextLine::SetFontColor
  000e1	e8 00 00 00 00	 call	 ?Py_BuildNone@@YAPAU_object@@XZ ; Py_BuildNone
  000e6	5e		 pop	 esi

; 2721 : }

  000e7	8b e5		 mov	 esp, ebp
  000e9	5d		 pop	 ebp
  000ea	c3		 ret	 0
?wndTextSetFontColor@@YAPAU_object@@PAU1@0@Z ENDP	; wndTextSetFontColor
_TEXT	ENDS
; Function compile flags: /Ogtp
; File C:\Users\flourine\Desktop\Xantios\client-src\Code\eterPythonLib\PythonWindowManagerModule.cpp
;	COMDAT ?wndTextSetFontName@@YAPAU_object@@PAU1@0@Z
_TEXT	SEGMENT
_pWindow$ = -8						; size = 4
_szFontName$ = -4					; size = 4
_poSelf$ = 8						; size = 4
_poArgs$ = 12						; size = 4
?wndTextSetFontName@@YAPAU_object@@PAU1@0@Z PROC	; wndTextSetFontName, COMDAT

; 2655 : {

  00000	55		 push	 ebp
  00001	8b ec		 mov	 ebp, esp
  00003	83 ec 08	 sub	 esp, 8

; 2656 : 	UI::CWindow * pWindow;
; 2657 : 	if (!PyTuple_GetWindow(poArgs, 0, &pWindow))

  00006	8d 45 f8	 lea	 eax, DWORD PTR _pWindow$[ebp]
  00009	50		 push	 eax
  0000a	6a 00		 push	 0
  0000c	ff 75 0c	 push	 DWORD PTR _poArgs$[ebp]
  0000f	e8 00 00 00 00	 call	 ?PyTuple_GetWindow@@YA_NPAU_object@@HPAPAVCWindow@UI@@@Z ; PyTuple_GetWindow
  00014	83 c4 0c	 add	 esp, 12			; 0000000cH
  00017	84 c0		 test	 al, al
  00019	75 0e		 jne	 SHORT $LN2@wndTextSet
$LN5@wndTextSet:

; 2669 : }

  0001b	6a 00		 push	 0
  0001d	e8 00 00 00 00	 call	 ?Py_BuildException@@YAPAU_object@@PBDZZ ; Py_BuildException
  00022	83 c4 04	 add	 esp, 4
  00025	8b e5		 mov	 esp, ebp
  00027	5d		 pop	 ebp
  00028	c3		 ret	 0
$LN2@wndTextSet:

; 2658 : 	{
; 2659 : 		return Py_BuildException();
; 2660 : 	}
; 2661 : 	char * szFontName;
; 2662 : 	if (!PyTuple_GetString(poArgs, 1, &szFontName))

  00029	8d 45 fc	 lea	 eax, DWORD PTR _szFontName$[ebp]
  0002c	50		 push	 eax
  0002d	6a 01		 push	 1
  0002f	ff 75 0c	 push	 DWORD PTR _poArgs$[ebp]
  00032	e8 00 00 00 00	 call	 ?PyTuple_GetString@@YA_NPAU_object@@HPAPAD@Z ; PyTuple_GetString
  00037	83 c4 0c	 add	 esp, 12			; 0000000cH
  0003a	84 c0		 test	 al, al
  0003c	74 dd		 je	 SHORT $LN5@wndTextSet

; 2663 : 	{
; 2664 : 		return Py_BuildException();
; 2665 : 	}
; 2666 : 
; 2667 : 	((UI::CTextLine*)pWindow)->SetFontName(szFontName);

  0003e	ff 75 fc	 push	 DWORD PTR _szFontName$[ebp]
  00041	8b 4d f8	 mov	 ecx, DWORD PTR _pWindow$[ebp]
  00044	e8 00 00 00 00	 call	 ?SetFontName@CTextLine@UI@@QAEXPBD@Z ; UI::CTextLine::SetFontName

; 2668 : 	return Py_BuildNone();

  00049	e8 00 00 00 00	 call	 ?Py_BuildNone@@YAPAU_object@@XZ ; Py_BuildNone

; 2669 : }

  0004e	8b e5		 mov	 esp, ebp
  00050	5d		 pop	 ebp
  00051	c3		 ret	 0
?wndTextSetFontName@@YAPAU_object@@PAU1@0@Z ENDP	; wndTextSetFontName
_TEXT	ENDS
; Function compile flags: /Ogtp
; File C:\Users\flourine\Desktop\Xantios\client-src\Code\eterPythonLib\PythonWindowManagerModule.cpp
;	COMDAT ?wndTextSetMultiLine@@YAPAU_object@@PAU1@0@Z
_TEXT	SEGMENT
_pWindow$ = -8						; size = 4
_iFlag$ = -4						; size = 4
_poSelf$ = 8						; size = 4
_poArgs$ = 12						; size = 4
?wndTextSetMultiLine@@YAPAU_object@@PAU1@0@Z PROC	; wndTextSetMultiLine, COMDAT

; 2639 : {

  00000	55		 push	 ebp
  00001	8b ec		 mov	 ebp, esp
  00003	83 ec 08	 sub	 esp, 8

; 2640 : 	UI::CWindow * pWindow;
; 2641 : 	if (!PyTuple_GetWindow(poArgs, 0, &pWindow))

  00006	8d 45 f8	 lea	 eax, DWORD PTR _pWindow$[ebp]
  00009	50		 push	 eax
  0000a	6a 00		 push	 0
  0000c	ff 75 0c	 push	 DWORD PTR _poArgs$[ebp]
  0000f	e8 00 00 00 00	 call	 ?PyTuple_GetWindow@@YA_NPAU_object@@HPAPAVCWindow@UI@@@Z ; PyTuple_GetWindow
  00014	83 c4 0c	 add	 esp, 12			; 0000000cH
  00017	84 c0		 test	 al, al
  00019	75 0e		 jne	 SHORT $LN2@wndTextSet
$LN5@wndTextSet:

; 2653 : }

  0001b	6a 00		 push	 0
  0001d	e8 00 00 00 00	 call	 ?Py_BuildException@@YAPAU_object@@PBDZZ ; Py_BuildException
  00022	83 c4 04	 add	 esp, 4
  00025	8b e5		 mov	 esp, ebp
  00027	5d		 pop	 ebp
  00028	c3		 ret	 0
$LN2@wndTextSet:

; 2642 : 	{
; 2643 : 		return Py_BuildException();
; 2644 : 	}
; 2645 : 	int iFlag;
; 2646 : 	if (!PyTuple_GetInteger(poArgs, 1, &iFlag))

  00029	8d 45 fc	 lea	 eax, DWORD PTR _iFlag$[ebp]
  0002c	50		 push	 eax
  0002d	6a 01		 push	 1
  0002f	ff 75 0c	 push	 DWORD PTR _poArgs$[ebp]
  00032	e8 00 00 00 00	 call	 ?PyTuple_GetInteger@@YA_NPAU_object@@HPAH@Z ; PyTuple_GetInteger
  00037	83 c4 0c	 add	 esp, 12			; 0000000cH
  0003a	84 c0		 test	 al, al
  0003c	74 dd		 je	 SHORT $LN5@wndTextSet

; 2647 : 	{
; 2648 : 		return Py_BuildException();
; 2649 : 	}
; 2650 : 
; 2651 : 	((UI::CTextLine*)pWindow)->SetMultiLine(iFlag);

  0003e	ff 75 fc	 push	 DWORD PTR _iFlag$[ebp]
  00041	8b 4d f8	 mov	 ecx, DWORD PTR _pWindow$[ebp]
  00044	e8 00 00 00 00	 call	 ?SetMultiLine@CTextLine@UI@@QAEXH@Z ; UI::CTextLine::SetMultiLine

; 2652 : 	return Py_BuildNone();

  00049	e8 00 00 00 00	 call	 ?Py_BuildNone@@YAPAU_object@@XZ ; Py_BuildNone

; 2653 : }

  0004e	8b e5		 mov	 esp, ebp
  00050	5d		 pop	 ebp
  00051	c3		 ret	 0
?wndTextSetMultiLine@@YAPAU_object@@PAU1@0@Z ENDP	; wndTextSetMultiLine
_TEXT	ENDS
; Function compile flags: /Ogtp
; File C:\Users\flourine\Desktop\Xantios\client-src\Code\eterPythonLib\PythonWindowManagerModule.cpp
;	COMDAT ?wndTextSetFeather@@YAPAU_object@@PAU1@0@Z
_TEXT	SEGMENT
_pWindow$ = -8						; size = 4
_iFlag$ = -4						; size = 4
_poSelf$ = 8						; size = 4
_poArgs$ = 12						; size = 4
?wndTextSetFeather@@YAPAU_object@@PAU1@0@Z PROC		; wndTextSetFeather, COMDAT

; 2623 : {

  00000	55		 push	 ebp
  00001	8b ec		 mov	 ebp, esp
  00003	83 ec 08	 sub	 esp, 8

; 2624 : 	UI::CWindow * pWindow;
; 2625 : 	if (!PyTuple_GetWindow(poArgs, 0, &pWindow))

  00006	8d 45 f8	 lea	 eax, DWORD PTR _pWindow$[ebp]
  00009	50		 push	 eax
  0000a	6a 00		 push	 0
  0000c	ff 75 0c	 push	 DWORD PTR _poArgs$[ebp]
  0000f	e8 00 00 00 00	 call	 ?PyTuple_GetWindow@@YA_NPAU_object@@HPAPAVCWindow@UI@@@Z ; PyTuple_GetWindow
  00014	83 c4 0c	 add	 esp, 12			; 0000000cH
  00017	84 c0		 test	 al, al
  00019	75 0e		 jne	 SHORT $LN2@wndTextSet
$LN5@wndTextSet:

; 2637 : }

  0001b	6a 00		 push	 0
  0001d	e8 00 00 00 00	 call	 ?Py_BuildException@@YAPAU_object@@PBDZZ ; Py_BuildException
  00022	83 c4 04	 add	 esp, 4
  00025	8b e5		 mov	 esp, ebp
  00027	5d		 pop	 ebp
  00028	c3		 ret	 0
$LN2@wndTextSet:

; 2626 : 	{
; 2627 : 		return Py_BuildException();
; 2628 : 	}
; 2629 : 	int iFlag;
; 2630 : 	if (!PyTuple_GetInteger(poArgs, 1, &iFlag))

  00029	8d 45 fc	 lea	 eax, DWORD PTR _iFlag$[ebp]
  0002c	50		 push	 eax
  0002d	6a 01		 push	 1
  0002f	ff 75 0c	 push	 DWORD PTR _poArgs$[ebp]
  00032	e8 00 00 00 00	 call	 ?PyTuple_GetInteger@@YA_NPAU_object@@HPAH@Z ; PyTuple_GetInteger
  00037	83 c4 0c	 add	 esp, 12			; 0000000cH
  0003a	84 c0		 test	 al, al
  0003c	74 dd		 je	 SHORT $LN5@wndTextSet

; 2631 : 	{
; 2632 : 		return Py_BuildException();
; 2633 : 	}
; 2634 : 
; 2635 : 	((UI::CTextLine*)pWindow)->SetFeather(iFlag);

  0003e	ff 75 fc	 push	 DWORD PTR _iFlag$[ebp]
  00041	8b 4d f8	 mov	 ecx, DWORD PTR _pWindow$[ebp]
  00044	e8 00 00 00 00	 call	 ?SetFeather@CTextLine@UI@@QAEXH@Z ; UI::CTextLine::SetFeather

; 2636 : 	return Py_BuildNone();

  00049	e8 00 00 00 00	 call	 ?Py_BuildNone@@YAPAU_object@@XZ ; Py_BuildNone

; 2637 : }

  0004e	8b e5		 mov	 esp, ebp
  00050	5d		 pop	 ebp
  00051	c3		 ret	 0
?wndTextSetFeather@@YAPAU_object@@PAU1@0@Z ENDP		; wndTextSetFeather
_TEXT	ENDS
; Function compile flags: /Ogtp
; File C:\Users\flourine\Desktop\Xantios\client-src\Code\eterPythonLib\PythonWindowManagerModule.cpp
;	COMDAT ?wndTextSetOutline@@YAPAU_object@@PAU1@0@Z
_TEXT	SEGMENT
_pWindow$ = -8						; size = 4
_iFlag$ = -4						; size = 4
_poSelf$ = 8						; size = 4
_poArgs$ = 12						; size = 4
?wndTextSetOutline@@YAPAU_object@@PAU1@0@Z PROC		; wndTextSetOutline, COMDAT

; 2607 : {

  00000	55		 push	 ebp
  00001	8b ec		 mov	 ebp, esp
  00003	83 ec 08	 sub	 esp, 8

; 2608 : 	UI::CWindow * pWindow;
; 2609 : 	if (!PyTuple_GetWindow(poArgs, 0, &pWindow))

  00006	8d 45 f8	 lea	 eax, DWORD PTR _pWindow$[ebp]
  00009	50		 push	 eax
  0000a	6a 00		 push	 0
  0000c	ff 75 0c	 push	 DWORD PTR _poArgs$[ebp]
  0000f	e8 00 00 00 00	 call	 ?PyTuple_GetWindow@@YA_NPAU_object@@HPAPAVCWindow@UI@@@Z ; PyTuple_GetWindow
  00014	83 c4 0c	 add	 esp, 12			; 0000000cH
  00017	84 c0		 test	 al, al
  00019	75 0e		 jne	 SHORT $LN2@wndTextSet
$LN5@wndTextSet:

; 2621 : }

  0001b	6a 00		 push	 0
  0001d	e8 00 00 00 00	 call	 ?Py_BuildException@@YAPAU_object@@PBDZZ ; Py_BuildException
  00022	83 c4 04	 add	 esp, 4
  00025	8b e5		 mov	 esp, ebp
  00027	5d		 pop	 ebp
  00028	c3		 ret	 0
$LN2@wndTextSet:

; 2610 : 	{
; 2611 : 		return Py_BuildException();
; 2612 : 	}
; 2613 : 	int iFlag;
; 2614 : 	if (!PyTuple_GetInteger(poArgs, 1, &iFlag))

  00029	8d 45 fc	 lea	 eax, DWORD PTR _iFlag$[ebp]
  0002c	50		 push	 eax
  0002d	6a 01		 push	 1
  0002f	ff 75 0c	 push	 DWORD PTR _poArgs$[ebp]
  00032	e8 00 00 00 00	 call	 ?PyTuple_GetInteger@@YA_NPAU_object@@HPAH@Z ; PyTuple_GetInteger
  00037	83 c4 0c	 add	 esp, 12			; 0000000cH
  0003a	84 c0		 test	 al, al
  0003c	74 dd		 je	 SHORT $LN5@wndTextSet

; 2615 : 	{
; 2616 : 		return Py_BuildException();
; 2617 : 	}
; 2618 : 
; 2619 : 	((UI::CTextLine*)pWindow)->SetOutline(iFlag);

  0003e	ff 75 fc	 push	 DWORD PTR _iFlag$[ebp]
  00041	8b 4d f8	 mov	 ecx, DWORD PTR _pWindow$[ebp]
  00044	e8 00 00 00 00	 call	 ?SetOutline@CTextLine@UI@@QAEXH@Z ; UI::CTextLine::SetOutline

; 2620 : 	return Py_BuildNone();

  00049	e8 00 00 00 00	 call	 ?Py_BuildNone@@YAPAU_object@@XZ ; Py_BuildNone

; 2621 : }

  0004e	8b e5		 mov	 esp, ebp
  00050	5d		 pop	 ebp
  00051	c3		 ret	 0
?wndTextSetOutline@@YAPAU_object@@PAU1@0@Z ENDP		; wndTextSetOutline
_TEXT	ENDS
; Function compile flags: /Ogtp
; File C:\Users\flourine\Desktop\Xantios\client-src\Code\eterPythonLib\PythonWindowManagerModule.cpp
;	COMDAT ?wndTextSetSecret@@YAPAU_object@@PAU1@0@Z
_TEXT	SEGMENT
_pWindow$ = -8						; size = 4
_iFlag$ = -4						; size = 4
_poSelf$ = 8						; size = 4
_poArgs$ = 12						; size = 4
?wndTextSetSecret@@YAPAU_object@@PAU1@0@Z PROC		; wndTextSetSecret, COMDAT

; 2591 : {

  00000	55		 push	 ebp
  00001	8b ec		 mov	 ebp, esp
  00003	83 ec 08	 sub	 esp, 8

; 2592 : 	UI::CWindow * pWindow;
; 2593 : 	if (!PyTuple_GetWindow(poArgs, 0, &pWindow))

  00006	8d 45 f8	 lea	 eax, DWORD PTR _pWindow$[ebp]
  00009	50		 push	 eax
  0000a	6a 00		 push	 0
  0000c	ff 75 0c	 push	 DWORD PTR _poArgs$[ebp]
  0000f	e8 00 00 00 00	 call	 ?PyTuple_GetWindow@@YA_NPAU_object@@HPAPAVCWindow@UI@@@Z ; PyTuple_GetWindow
  00014	83 c4 0c	 add	 esp, 12			; 0000000cH
  00017	84 c0		 test	 al, al
  00019	75 0e		 jne	 SHORT $LN2@wndTextSet
$LN5@wndTextSet:

; 2605 : }

  0001b	6a 00		 push	 0
  0001d	e8 00 00 00 00	 call	 ?Py_BuildException@@YAPAU_object@@PBDZZ ; Py_BuildException
  00022	83 c4 04	 add	 esp, 4
  00025	8b e5		 mov	 esp, ebp
  00027	5d		 pop	 ebp
  00028	c3		 ret	 0
$LN2@wndTextSet:

; 2594 : 	{
; 2595 : 		return Py_BuildException();
; 2596 : 	}
; 2597 : 	int iFlag;
; 2598 : 	if (!PyTuple_GetInteger(poArgs, 1, &iFlag))

  00029	8d 45 fc	 lea	 eax, DWORD PTR _iFlag$[ebp]
  0002c	50		 push	 eax
  0002d	6a 01		 push	 1
  0002f	ff 75 0c	 push	 DWORD PTR _poArgs$[ebp]
  00032	e8 00 00 00 00	 call	 ?PyTuple_GetInteger@@YA_NPAU_object@@HPAH@Z ; PyTuple_GetInteger
  00037	83 c4 0c	 add	 esp, 12			; 0000000cH
  0003a	84 c0		 test	 al, al
  0003c	74 dd		 je	 SHORT $LN5@wndTextSet

; 2599 : 	{
; 2600 : 		return Py_BuildException();
; 2601 : 	}
; 2602 : 
; 2603 : 	((UI::CTextLine*)pWindow)->SetSecret(iFlag);

  0003e	ff 75 fc	 push	 DWORD PTR _iFlag$[ebp]
  00041	8b 4d f8	 mov	 ecx, DWORD PTR _pWindow$[ebp]
  00044	e8 00 00 00 00	 call	 ?SetSecret@CTextLine@UI@@QAEXH@Z ; UI::CTextLine::SetSecret

; 2604 : 	return Py_BuildNone();

  00049	e8 00 00 00 00	 call	 ?Py_BuildNone@@YAPAU_object@@XZ ; Py_BuildNone

; 2605 : }

  0004e	8b e5		 mov	 esp, ebp
  00050	5d		 pop	 ebp
  00051	c3		 ret	 0
?wndTextSetSecret@@YAPAU_object@@PAU1@0@Z ENDP		; wndTextSetSecret
_TEXT	ENDS
; Function compile flags: /Ogtp
; File C:\Users\flourine\Desktop\Xantios\client-src\Code\eterPythonLib\PythonWindowManagerModule.cpp
;	COMDAT ?wndTextSetVerticalAlign@@YAPAU_object@@PAU1@0@Z
_TEXT	SEGMENT
_pWindow$ = -8						; size = 4
_iType$ = -4						; size = 4
_poSelf$ = 8						; size = 4
_poArgs$ = 12						; size = 4
?wndTextSetVerticalAlign@@YAPAU_object@@PAU1@0@Z PROC	; wndTextSetVerticalAlign, COMDAT

; 2575 : {

  00000	55		 push	 ebp
  00001	8b ec		 mov	 ebp, esp
  00003	83 ec 08	 sub	 esp, 8

; 2576 : 	UI::CWindow * pWindow;
; 2577 : 	if (!PyTuple_GetWindow(poArgs, 0, &pWindow))

  00006	8d 45 f8	 lea	 eax, DWORD PTR _pWindow$[ebp]
  00009	50		 push	 eax
  0000a	6a 00		 push	 0
  0000c	ff 75 0c	 push	 DWORD PTR _poArgs$[ebp]
  0000f	e8 00 00 00 00	 call	 ?PyTuple_GetWindow@@YA_NPAU_object@@HPAPAVCWindow@UI@@@Z ; PyTuple_GetWindow
  00014	83 c4 0c	 add	 esp, 12			; 0000000cH
  00017	84 c0		 test	 al, al
  00019	75 0e		 jne	 SHORT $LN2@wndTextSet
$LN5@wndTextSet:

; 2589 : }

  0001b	6a 00		 push	 0
  0001d	e8 00 00 00 00	 call	 ?Py_BuildException@@YAPAU_object@@PBDZZ ; Py_BuildException
  00022	83 c4 04	 add	 esp, 4
  00025	8b e5		 mov	 esp, ebp
  00027	5d		 pop	 ebp
  00028	c3		 ret	 0
$LN2@wndTextSet:

; 2578 : 	{
; 2579 : 		return Py_BuildException();
; 2580 : 	}
; 2581 : 	int iType;
; 2582 : 	if (!PyTuple_GetInteger(poArgs, 1, &iType))

  00029	8d 45 fc	 lea	 eax, DWORD PTR _iType$[ebp]
  0002c	50		 push	 eax
  0002d	6a 01		 push	 1
  0002f	ff 75 0c	 push	 DWORD PTR _poArgs$[ebp]
  00032	e8 00 00 00 00	 call	 ?PyTuple_GetInteger@@YA_NPAU_object@@HPAH@Z ; PyTuple_GetInteger
  00037	83 c4 0c	 add	 esp, 12			; 0000000cH
  0003a	84 c0		 test	 al, al
  0003c	74 dd		 je	 SHORT $LN5@wndTextSet

; 2583 : 	{
; 2584 : 		return Py_BuildException();
; 2585 : 	}
; 2586 : 
; 2587 : 	((UI::CTextLine*)pWindow)->SetVerticalAlign(iType);

  0003e	ff 75 fc	 push	 DWORD PTR _iType$[ebp]
  00041	8b 4d f8	 mov	 ecx, DWORD PTR _pWindow$[ebp]
  00044	e8 00 00 00 00	 call	 ?SetVerticalAlign@CTextLine@UI@@QAEXH@Z ; UI::CTextLine::SetVerticalAlign

; 2588 : 	return Py_BuildNone();

  00049	e8 00 00 00 00	 call	 ?Py_BuildNone@@YAPAU_object@@XZ ; Py_BuildNone

; 2589 : }

  0004e	8b e5		 mov	 esp, ebp
  00050	5d		 pop	 ebp
  00051	c3		 ret	 0
?wndTextSetVerticalAlign@@YAPAU_object@@PAU1@0@Z ENDP	; wndTextSetVerticalAlign
_TEXT	ENDS
; Function compile flags: /Ogtp
; File C:\Users\flourine\Desktop\Xantios\client-src\Code\eterPythonLib\PythonWindowManagerModule.cpp
;	COMDAT ?wndTextSetHorizontalAlign@@YAPAU_object@@PAU1@0@Z
_TEXT	SEGMENT
_pWindow$ = -8						; size = 4
_iType$ = -4						; size = 4
_poSelf$ = 8						; size = 4
_poArgs$ = 12						; size = 4
?wndTextSetHorizontalAlign@@YAPAU_object@@PAU1@0@Z PROC	; wndTextSetHorizontalAlign, COMDAT

; 2559 : {

  00000	55		 push	 ebp
  00001	8b ec		 mov	 ebp, esp
  00003	83 ec 08	 sub	 esp, 8

; 2560 : 	UI::CWindow * pWindow;
; 2561 : 	if (!PyTuple_GetWindow(poArgs, 0, &pWindow))

  00006	8d 45 f8	 lea	 eax, DWORD PTR _pWindow$[ebp]
  00009	50		 push	 eax
  0000a	6a 00		 push	 0
  0000c	ff 75 0c	 push	 DWORD PTR _poArgs$[ebp]
  0000f	e8 00 00 00 00	 call	 ?PyTuple_GetWindow@@YA_NPAU_object@@HPAPAVCWindow@UI@@@Z ; PyTuple_GetWindow
  00014	83 c4 0c	 add	 esp, 12			; 0000000cH
  00017	84 c0		 test	 al, al
  00019	75 0e		 jne	 SHORT $LN2@wndTextSet
$LN5@wndTextSet:

; 2573 : }

  0001b	6a 00		 push	 0
  0001d	e8 00 00 00 00	 call	 ?Py_BuildException@@YAPAU_object@@PBDZZ ; Py_BuildException
  00022	83 c4 04	 add	 esp, 4
  00025	8b e5		 mov	 esp, ebp
  00027	5d		 pop	 ebp
  00028	c3		 ret	 0
$LN2@wndTextSet:

; 2562 : 	{
; 2563 : 		return Py_BuildException();
; 2564 : 	}
; 2565 : 	int iType;
; 2566 : 	if (!PyTuple_GetInteger(poArgs, 1, &iType))

  00029	8d 45 fc	 lea	 eax, DWORD PTR _iType$[ebp]
  0002c	50		 push	 eax
  0002d	6a 01		 push	 1
  0002f	ff 75 0c	 push	 DWORD PTR _poArgs$[ebp]
  00032	e8 00 00 00 00	 call	 ?PyTuple_GetInteger@@YA_NPAU_object@@HPAH@Z ; PyTuple_GetInteger
  00037	83 c4 0c	 add	 esp, 12			; 0000000cH
  0003a	84 c0		 test	 al, al
  0003c	74 dd		 je	 SHORT $LN5@wndTextSet

; 2567 : 	{
; 2568 : 		return Py_BuildException();
; 2569 : 	}
; 2570 : 
; 2571 : 	((UI::CTextLine*)pWindow)->SetHorizontalAlign(iType);

  0003e	ff 75 fc	 push	 DWORD PTR _iType$[ebp]
  00041	8b 4d f8	 mov	 ecx, DWORD PTR _pWindow$[ebp]
  00044	e8 00 00 00 00	 call	 ?SetHorizontalAlign@CTextLine@UI@@QAEXH@Z ; UI::CTextLine::SetHorizontalAlign

; 2572 : 	return Py_BuildNone();

  00049	e8 00 00 00 00	 call	 ?Py_BuildNone@@YAPAU_object@@XZ ; Py_BuildNone

; 2573 : }

  0004e	8b e5		 mov	 esp, ebp
  00050	5d		 pop	 ebp
  00051	c3		 ret	 0
?wndTextSetHorizontalAlign@@YAPAU_object@@PAU1@0@Z ENDP	; wndTextSetHorizontalAlign
_TEXT	ENDS
; Function compile flags: /Ogtp
; File C:\Users\flourine\Desktop\Xantios\client-src\Code\eterPythonLib\PythonWindowManagerModule.cpp
;	COMDAT ?wndTextSetMax@@YAPAU_object@@PAU1@0@Z
_TEXT	SEGMENT
_pWindow$ = -8						; size = 4
_iMax$ = -4						; size = 4
_poSelf$ = 8						; size = 4
_poArgs$ = 12						; size = 4
?wndTextSetMax@@YAPAU_object@@PAU1@0@Z PROC		; wndTextSetMax, COMDAT

; 2543 : {

  00000	55		 push	 ebp
  00001	8b ec		 mov	 ebp, esp
  00003	83 ec 08	 sub	 esp, 8

; 2544 : 	UI::CWindow * pWindow;
; 2545 : 	if (!PyTuple_GetWindow(poArgs, 0, &pWindow))

  00006	8d 45 f8	 lea	 eax, DWORD PTR _pWindow$[ebp]
  00009	50		 push	 eax
  0000a	6a 00		 push	 0
  0000c	ff 75 0c	 push	 DWORD PTR _poArgs$[ebp]
  0000f	e8 00 00 00 00	 call	 ?PyTuple_GetWindow@@YA_NPAU_object@@HPAPAVCWindow@UI@@@Z ; PyTuple_GetWindow
  00014	83 c4 0c	 add	 esp, 12			; 0000000cH
  00017	84 c0		 test	 al, al
  00019	75 0e		 jne	 SHORT $LN2@wndTextSet
$LN5@wndTextSet:

; 2557 : }

  0001b	6a 00		 push	 0
  0001d	e8 00 00 00 00	 call	 ?Py_BuildException@@YAPAU_object@@PBDZZ ; Py_BuildException
  00022	83 c4 04	 add	 esp, 4
  00025	8b e5		 mov	 esp, ebp
  00027	5d		 pop	 ebp
  00028	c3		 ret	 0
$LN2@wndTextSet:

; 2546 : 	{
; 2547 : 		return Py_BuildException();
; 2548 : 	}
; 2549 : 	int iMax;
; 2550 : 	if (!PyTuple_GetInteger(poArgs, 1, &iMax))

  00029	8d 45 fc	 lea	 eax, DWORD PTR _iMax$[ebp]
  0002c	50		 push	 eax
  0002d	6a 01		 push	 1
  0002f	ff 75 0c	 push	 DWORD PTR _poArgs$[ebp]
  00032	e8 00 00 00 00	 call	 ?PyTuple_GetInteger@@YA_NPAU_object@@HPAH@Z ; PyTuple_GetInteger
  00037	83 c4 0c	 add	 esp, 12			; 0000000cH
  0003a	84 c0		 test	 al, al
  0003c	74 dd		 je	 SHORT $LN5@wndTextSet

; 2551 : 	{
; 2552 : 		return Py_BuildException();
; 2553 : 	}
; 2554 : 
; 2555 : 	((UI::CTextLine*)pWindow)->SetMax(iMax);

  0003e	ff 75 fc	 push	 DWORD PTR _iMax$[ebp]
  00041	8b 4d f8	 mov	 ecx, DWORD PTR _pWindow$[ebp]
  00044	e8 00 00 00 00	 call	 ?SetMax@CTextLine@UI@@QAEXH@Z ; UI::CTextLine::SetMax

; 2556 : 	return Py_BuildNone();

  00049	e8 00 00 00 00	 call	 ?Py_BuildNone@@YAPAU_object@@XZ ; Py_BuildNone

; 2557 : }

  0004e	8b e5		 mov	 esp, ebp
  00050	5d		 pop	 ebp
  00051	c3		 ret	 0
?wndTextSetMax@@YAPAU_object@@PAU1@0@Z ENDP		; wndTextSetMax
_TEXT	ENDS
; Function compile flags: /Ogtp
; File C:\Users\flourine\Desktop\Xantios\client-src\Code\eterPythonLib\PythonWindowManagerModule.cpp
;	COMDAT ?wndMgrSetAttachingFlag@@YAPAU_object@@PAU1@0@Z
_TEXT	SEGMENT
_bFlag$ = -4						; size = 4
_poSelf$ = 8						; size = 4
_poArgs$ = 12						; size = 4
?wndMgrSetAttachingFlag@@YAPAU_object@@PAU1@0@Z PROC	; wndMgrSetAttachingFlag, COMDAT

; 2530 : {

  00000	55		 push	 ebp
  00001	8b ec		 mov	 ebp, esp
  00003	51		 push	 ecx

; 2531 : 	BOOL bFlag;
; 2532 : 	if (!PyTuple_GetInteger(poArgs, 0, &bFlag))

  00004	8d 45 fc	 lea	 eax, DWORD PTR _bFlag$[ebp]
  00007	50		 push	 eax
  00008	6a 00		 push	 0
  0000a	ff 75 0c	 push	 DWORD PTR _poArgs$[ebp]
  0000d	e8 00 00 00 00	 call	 ?PyTuple_GetInteger@@YA_NPAU_object@@HPAH@Z ; PyTuple_GetInteger
  00012	83 c4 0c	 add	 esp, 12			; 0000000cH
  00015	84 c0		 test	 al, al
  00017	75 0e		 jne	 SHORT $LN2@wndMgrSetA

; 2533 : 	{
; 2534 : 		return Py_BuildException();

  00019	6a 00		 push	 0
  0001b	e8 00 00 00 00	 call	 ?Py_BuildException@@YAPAU_object@@PBDZZ ; Py_BuildException
  00020	83 c4 04	 add	 esp, 4

; 2539 : }

  00023	8b e5		 mov	 esp, ebp
  00025	5d		 pop	 ebp
  00026	c3		 ret	 0
$LN2@wndMgrSetA:

; 2535 : 	}
; 2536 : 
; 2537 : 	UI::CWindowManager::Instance().SetAttachingFlag(bFlag);

  00027	ff 75 fc	 push	 DWORD PTR _bFlag$[ebp]
  0002a	8b 0d 00 00 00
	00		 mov	 ecx, DWORD PTR ?ms_singleton@?$CSingleton@VCWindowManager@UI@@@@0PAVCWindowManager@UI@@A ; CSingleton<UI::CWindowManager>::ms_singleton
  00030	e8 00 00 00 00	 call	 ?SetAttachingFlag@CWindowManager@UI@@QAEXH@Z ; UI::CWindowManager::SetAttachingFlag

; 2538 : 	return Py_BuildNone();

  00035	e8 00 00 00 00	 call	 ?Py_BuildNone@@YAPAU_object@@XZ ; Py_BuildNone

; 2539 : }

  0003a	8b e5		 mov	 esp, ebp
  0003c	5d		 pop	 ebp
  0003d	c3		 ret	 0
?wndMgrSetAttachingFlag@@YAPAU_object@@PAU1@0@Z ENDP	; wndMgrSetAttachingFlag
_TEXT	ENDS
; Function compile flags: /Ogtp
; File C:\Users\flourine\Desktop\Xantios\client-src\Code\eterPythonLib\PythonWindowManagerModule.cpp
;	COMDAT ?wndMgrDeattachIcon@@YAPAU_object@@PAU1@0@Z
_TEXT	SEGMENT
_poSelf$ = 8						; size = 4
_poArgs$ = 12						; size = 4
?wndMgrDeattachIcon@@YAPAU_object@@PAU1@0@Z PROC	; wndMgrDeattachIcon, COMDAT

; 2525 : 	UI::CWindowManager::Instance().DeattachIcon();

  00000	8b 0d 00 00 00
	00		 mov	 ecx, DWORD PTR ?ms_singleton@?$CSingleton@VCWindowManager@UI@@@@0PAVCWindowManager@UI@@A ; CSingleton<UI::CWindowManager>::ms_singleton
  00006	e8 00 00 00 00	 call	 ?DeattachIcon@CWindowManager@UI@@QAEXXZ ; UI::CWindowManager::DeattachIcon

; 2526 : 	return Py_BuildNone();

  0000b	e9 00 00 00 00	 jmp	 ?Py_BuildNone@@YAPAU_object@@XZ ; Py_BuildNone
?wndMgrDeattachIcon@@YAPAU_object@@PAU1@0@Z ENDP	; wndMgrDeattachIcon
_TEXT	ENDS
; Function compile flags: /Ogtp
; File C:\Users\flourine\Desktop\Xantios\client-src\Code\eterPythonLib\PythonWindowManagerModule.cpp
;	COMDAT ?wndMgrAttachIcon@@YAPAU_object@@PAU1@0@Z
_TEXT	SEGMENT
_iType$ = -20						; size = 4
_iIndex$ = -16						; size = 4
_iSlotNumber$ = -12					; size = 4
_iWidth$ = -8						; size = 4
_iHeight$ = -4						; size = 4
_poSelf$ = 8						; size = 4
_poArgs$ = 12						; size = 4
?wndMgrAttachIcon@@YAPAU_object@@PAU1@0@Z PROC		; wndMgrAttachIcon, COMDAT

; 2492 : {

  00000	55		 push	 ebp
  00001	8b ec		 mov	 ebp, esp
  00003	83 ec 14	 sub	 esp, 20			; 00000014H

; 2493 : 	int iType;
; 2494 : 	if (!PyTuple_GetInteger(poArgs, 0, &iType))

  00006	8d 45 ec	 lea	 eax, DWORD PTR _iType$[ebp]
  00009	56		 push	 esi
  0000a	8b 75 0c	 mov	 esi, DWORD PTR _poArgs$[ebp]
  0000d	50		 push	 eax
  0000e	6a 00		 push	 0
  00010	56		 push	 esi
  00011	e8 00 00 00 00	 call	 ?PyTuple_GetInteger@@YA_NPAU_object@@HPAH@Z ; PyTuple_GetInteger
  00016	83 c4 0c	 add	 esp, 12			; 0000000cH
  00019	84 c0		 test	 al, al
  0001b	75 0f		 jne	 SHORT $LN2@wndMgrAtta
$LN8@wndMgrAtta:

; 2521 : }

  0001d	6a 00		 push	 0
  0001f	e8 00 00 00 00	 call	 ?Py_BuildException@@YAPAU_object@@PBDZZ ; Py_BuildException
  00024	83 c4 04	 add	 esp, 4
  00027	5e		 pop	 esi
  00028	8b e5		 mov	 esp, ebp
  0002a	5d		 pop	 ebp
  0002b	c3		 ret	 0
$LN2@wndMgrAtta:

; 2495 : 	{
; 2496 : 		return Py_BuildException();
; 2497 : 	}
; 2498 : 	int iIndex;
; 2499 : 	if (!PyTuple_GetInteger(poArgs, 1, &iIndex))

  0002c	8d 45 f0	 lea	 eax, DWORD PTR _iIndex$[ebp]
  0002f	50		 push	 eax
  00030	6a 01		 push	 1
  00032	56		 push	 esi
  00033	e8 00 00 00 00	 call	 ?PyTuple_GetInteger@@YA_NPAU_object@@HPAH@Z ; PyTuple_GetInteger
  00038	83 c4 0c	 add	 esp, 12			; 0000000cH
  0003b	84 c0		 test	 al, al
  0003d	74 de		 je	 SHORT $LN8@wndMgrAtta

; 2500 : 	{
; 2501 : 		return Py_BuildException();
; 2502 : 	}
; 2503 : 	int iSlotNumber;
; 2504 : 	if (!PyTuple_GetInteger(poArgs, 2, &iSlotNumber))

  0003f	8d 45 f4	 lea	 eax, DWORD PTR _iSlotNumber$[ebp]
  00042	50		 push	 eax
  00043	6a 02		 push	 2
  00045	56		 push	 esi
  00046	e8 00 00 00 00	 call	 ?PyTuple_GetInteger@@YA_NPAU_object@@HPAH@Z ; PyTuple_GetInteger
  0004b	83 c4 0c	 add	 esp, 12			; 0000000cH
  0004e	84 c0		 test	 al, al
  00050	74 cb		 je	 SHORT $LN8@wndMgrAtta

; 2505 : 	{
; 2506 : 		return Py_BuildException();
; 2507 : 	}
; 2508 : 	int iWidth;
; 2509 : 	if (!PyTuple_GetInteger(poArgs, 3, &iWidth))

  00052	8d 45 f8	 lea	 eax, DWORD PTR _iWidth$[ebp]
  00055	50		 push	 eax
  00056	6a 03		 push	 3
  00058	56		 push	 esi
  00059	e8 00 00 00 00	 call	 ?PyTuple_GetInteger@@YA_NPAU_object@@HPAH@Z ; PyTuple_GetInteger
  0005e	83 c4 0c	 add	 esp, 12			; 0000000cH
  00061	84 c0		 test	 al, al
  00063	74 b8		 je	 SHORT $LN8@wndMgrAtta

; 2510 : 	{
; 2511 : 		return Py_BuildException();
; 2512 : 	}
; 2513 : 	int iHeight;
; 2514 : 	if (!PyTuple_GetInteger(poArgs, 4, &iHeight))

  00065	8d 45 fc	 lea	 eax, DWORD PTR _iHeight$[ebp]
  00068	50		 push	 eax
  00069	6a 04		 push	 4
  0006b	56		 push	 esi
  0006c	e8 00 00 00 00	 call	 ?PyTuple_GetInteger@@YA_NPAU_object@@HPAH@Z ; PyTuple_GetInteger
  00071	83 c4 0c	 add	 esp, 12			; 0000000cH
  00074	84 c0		 test	 al, al
  00076	74 a5		 je	 SHORT $LN8@wndMgrAtta

; 2515 : 	{
; 2516 : 		return Py_BuildException();
; 2517 : 	}
; 2518 : 
; 2519 : 	UI::CWindowManager::Instance().AttachIcon(iType, iIndex, iSlotNumber, iWidth, iHeight);

  00078	ff 75 fc	 push	 DWORD PTR _iHeight$[ebp]
  0007b	8b 0d 00 00 00
	00		 mov	 ecx, DWORD PTR ?ms_singleton@?$CSingleton@VCWindowManager@UI@@@@0PAVCWindowManager@UI@@A ; CSingleton<UI::CWindowManager>::ms_singleton
  00081	ff 75 f8	 push	 DWORD PTR _iWidth$[ebp]
  00084	ff 75 f4	 push	 DWORD PTR _iSlotNumber$[ebp]
  00087	ff 75 f0	 push	 DWORD PTR _iIndex$[ebp]
  0008a	ff 75 ec	 push	 DWORD PTR _iType$[ebp]
  0008d	e8 00 00 00 00	 call	 ?AttachIcon@CWindowManager@UI@@QAEXKKKEE@Z ; UI::CWindowManager::AttachIcon

; 2520 : 	return Py_BuildNone();

  00092	e8 00 00 00 00	 call	 ?Py_BuildNone@@YAPAU_object@@XZ ; Py_BuildNone
  00097	5e		 pop	 esi

; 2521 : }

  00098	8b e5		 mov	 esp, ebp
  0009a	5d		 pop	 ebp
  0009b	c3		 ret	 0
?wndMgrAttachIcon@@YAPAU_object@@PAU1@0@Z ENDP		; wndMgrAttachIcon
_TEXT	ENDS
; Function compile flags: /Ogtp
; File C:\Users\flourine\Desktop\Xantios\client-src\Code\eterPythonLib\PythonWindowManagerModule.cpp
;	COMDAT ?wndBarSetColor@@YAPAU_object@@PAU1@0@Z
_TEXT	SEGMENT
_iRightColor$1 = -12					; size = 4
_iCenterColor$2 = -8					; size = 4
_pWindow$ = -8						; size = 4
_iColor$ = -4						; size = 4
_poSelf$ = 8						; size = 4
_poArgs$ = 12						; size = 4
?wndBarSetColor@@YAPAU_object@@PAU1@0@Z PROC		; wndBarSetColor, COMDAT

; 2455 : {

  00000	55		 push	 ebp
  00001	8b ec		 mov	 ebp, esp
  00003	83 ec 0c	 sub	 esp, 12			; 0000000cH

; 2456 : 	UI::CWindow * pWindow;
; 2457 : 	if (!PyTuple_GetWindow(poArgs, 0, &pWindow))

  00006	8d 45 f8	 lea	 eax, DWORD PTR _pWindow$[ebp]
  00009	56		 push	 esi
  0000a	8b 75 0c	 mov	 esi, DWORD PTR _poArgs$[ebp]
  0000d	50		 push	 eax
  0000e	6a 00		 push	 0
  00010	56		 push	 esi
  00011	e8 00 00 00 00	 call	 ?PyTuple_GetWindow@@YA_NPAU_object@@HPAPAVCWindow@UI@@@Z ; PyTuple_GetWindow
  00016	83 c4 0c	 add	 esp, 12			; 0000000cH
  00019	84 c0		 test	 al, al
  0001b	75 0f		 jne	 SHORT $LN2@wndBarSetC
$LN12@wndBarSetC:

; 2489 : }

  0001d	6a 00		 push	 0
  0001f	e8 00 00 00 00	 call	 ?Py_BuildException@@YAPAU_object@@PBDZZ ; Py_BuildException
  00024	83 c4 04	 add	 esp, 4
  00027	5e		 pop	 esi
  00028	8b e5		 mov	 esp, ebp
  0002a	5d		 pop	 ebp
  0002b	c3		 ret	 0
$LN2@wndBarSetC:

; 2458 : 	{
; 2459 : 		return Py_BuildException();
; 2460 : 	}
; 2461 : 	int iColor;
; 2462 : 	if (!PyTuple_GetInteger(poArgs, 1, &iColor))

  0002c	8d 45 fc	 lea	 eax, DWORD PTR _iColor$[ebp]
  0002f	50		 push	 eax
  00030	6a 01		 push	 1
  00032	56		 push	 esi
  00033	e8 00 00 00 00	 call	 ?PyTuple_GetInteger@@YA_NPAU_object@@HPAH@Z ; PyTuple_GetInteger
  00038	83 c4 0c	 add	 esp, 12			; 0000000cH
  0003b	84 c0		 test	 al, al
  0003d	74 de		 je	 SHORT $LN12@wndBarSetC

; 2463 : 	{
; 2464 : 		return Py_BuildException();
; 2465 : 	}
; 2466 : 
; 2467 : 	if (pWindow->IsType(UI::CBar3D::Type()))

  0003f	53		 push	 ebx
  00040	57		 push	 edi
  00041	e8 00 00 00 00	 call	 ?Type@CBar3D@UI@@SAKXZ	; UI::CBar3D::Type
  00046	8b 7d f8	 mov	 edi, DWORD PTR _pWindow$[ebp]
  00049	8b cf		 mov	 ecx, edi
  0004b	50		 push	 eax
  0004c	e8 00 00 00 00	 call	 ?IsType@CWindow@UI@@QAEHK@Z ; UI::CWindow::IsType
  00051	85 c0		 test	 eax, eax
  00053	74 54		 je	 SHORT $LN4@wndBarSetC

; 2468 : 	{
; 2469 : 		int iLeftColor = iColor;

  00055	8b 5d fc	 mov	 ebx, DWORD PTR _iColor$[ebp]

; 2470 : 
; 2471 : 		int iRightColor;
; 2472 : 		if (!PyTuple_GetInteger(poArgs, 2, &iRightColor))

  00058	8d 45 f4	 lea	 eax, DWORD PTR _iRightColor$1[ebp]
  0005b	50		 push	 eax
  0005c	6a 02		 push	 2
  0005e	56		 push	 esi
  0005f	e8 00 00 00 00	 call	 ?PyTuple_GetInteger@@YA_NPAU_object@@HPAH@Z ; PyTuple_GetInteger
  00064	83 c4 0c	 add	 esp, 12			; 0000000cH
  00067	84 c0		 test	 al, al
  00069	74 13		 je	 SHORT $LN11@wndBarSetC

; 2473 : 		{
; 2474 : 			return Py_BuildException();
; 2475 : 		}
; 2476 : 		int iCenterColor;
; 2477 : 		if (!PyTuple_GetInteger(poArgs, 3, &iCenterColor))

  0006b	8d 45 f8	 lea	 eax, DWORD PTR _iCenterColor$2[ebp]
  0006e	50		 push	 eax
  0006f	6a 03		 push	 3
  00071	56		 push	 esi
  00072	e8 00 00 00 00	 call	 ?PyTuple_GetInteger@@YA_NPAU_object@@HPAH@Z ; PyTuple_GetInteger
  00077	83 c4 0c	 add	 esp, 12			; 0000000cH
  0007a	84 c0		 test	 al, al
  0007c	75 11		 jne	 SHORT $LN7@wndBarSetC
$LN11@wndBarSetC:

; 2478 : 		{
; 2479 : 			return Py_BuildException();

  0007e	6a 00		 push	 0
  00080	e8 00 00 00 00	 call	 ?Py_BuildException@@YAPAU_object@@PBDZZ ; Py_BuildException
  00085	83 c4 04	 add	 esp, 4
  00088	5f		 pop	 edi
  00089	5b		 pop	 ebx
  0008a	5e		 pop	 esi

; 2489 : }

  0008b	8b e5		 mov	 esp, ebp
  0008d	5d		 pop	 ebp
  0008e	c3		 ret	 0
$LN7@wndBarSetC:

; 2480 : 		}
; 2481 : 
; 2482 : 		((UI::CBar3D *)pWindow)->SetColor(iLeftColor, iRightColor, iCenterColor);

  0008f	ff 75 f8	 push	 DWORD PTR _iCenterColor$2[ebp]
  00092	8b cf		 mov	 ecx, edi
  00094	ff 75 f4	 push	 DWORD PTR _iRightColor$1[ebp]
  00097	53		 push	 ebx
  00098	e8 00 00 00 00	 call	 ?SetColor@CBar3D@UI@@QAEXKKK@Z ; UI::CBar3D::SetColor

; 2487 : 	}
; 2488 : 	return Py_BuildNone();

  0009d	e8 00 00 00 00	 call	 ?Py_BuildNone@@YAPAU_object@@XZ ; Py_BuildNone
  000a2	5f		 pop	 edi
  000a3	5b		 pop	 ebx
  000a4	5e		 pop	 esi

; 2489 : }

  000a5	8b e5		 mov	 esp, ebp
  000a7	5d		 pop	 ebp
  000a8	c3		 ret	 0
$LN4@wndBarSetC:

; 2483 : 	}
; 2484 : 	else
; 2485 : 	{
; 2486 : 		((UI::CWindow *)pWindow)->SetColor(iColor);

  000a9	8b 07		 mov	 eax, DWORD PTR [edi]
  000ab	8b cf		 mov	 ecx, edi
  000ad	ff 75 fc	 push	 DWORD PTR _iColor$[ebp]
  000b0	ff 90 a4 00 00
	00		 call	 DWORD PTR [eax+164]

; 2487 : 	}
; 2488 : 	return Py_BuildNone();

  000b6	e8 00 00 00 00	 call	 ?Py_BuildNone@@YAPAU_object@@XZ ; Py_BuildNone
  000bb	5f		 pop	 edi
  000bc	5b		 pop	 ebx
  000bd	5e		 pop	 esi

; 2489 : }

  000be	8b e5		 mov	 esp, ebp
  000c0	5d		 pop	 ebp
  000c1	c3		 ret	 0
?wndBarSetColor@@YAPAU_object@@PAU1@0@Z ENDP		; wndBarSetColor
_TEXT	ENDS
; Function compile flags: /Ogtp
; File C:\Users\flourine\Desktop\Xantios\client-src\Code\eterPythonLib\PythonWindowManagerModule.cpp
;	COMDAT ?wndMgrUnlockSlot@@YAPAU_object@@PAU1@0@Z
_TEXT	SEGMENT
_iSlotIndex$ = -8					; size = 4
_pWin$ = -4						; size = 4
_poSelf$ = 8						; size = 4
_poArgs$ = 12						; size = 4
?wndMgrUnlockSlot@@YAPAU_object@@PAU1@0@Z PROC		; wndMgrUnlockSlot, COMDAT

; 2432 : {

  00000	55		 push	 ebp
  00001	8b ec		 mov	 ebp, esp
  00003	83 ec 08	 sub	 esp, 8

; 2433 : 	UI::CWindow * pWin;
; 2434 : 	if (!PyTuple_GetWindow(poArgs, 0, &pWin))

  00006	8d 45 fc	 lea	 eax, DWORD PTR _pWin$[ebp]
  00009	56		 push	 esi
  0000a	8b 75 0c	 mov	 esi, DWORD PTR _poArgs$[ebp]
  0000d	50		 push	 eax
  0000e	6a 00		 push	 0
  00010	56		 push	 esi
  00011	e8 00 00 00 00	 call	 ?PyTuple_GetWindow@@YA_NPAU_object@@HPAPAVCWindow@UI@@@Z ; PyTuple_GetWindow
  00016	83 c4 0c	 add	 esp, 12			; 0000000cH
  00019	84 c0		 test	 al, al
  0001b	75 0f		 jne	 SHORT $LN2@wndMgrUnlo
$LN6@wndMgrUnlo:

; 2452 : }

  0001d	6a 00		 push	 0
  0001f	e8 00 00 00 00	 call	 ?Py_BuildException@@YAPAU_object@@PBDZZ ; Py_BuildException
  00024	83 c4 04	 add	 esp, 4
  00027	5e		 pop	 esi
  00028	8b e5		 mov	 esp, ebp
  0002a	5d		 pop	 ebp
  0002b	c3		 ret	 0
$LN2@wndMgrUnlo:

; 2435 : 	{
; 2436 : 		return Py_BuildException();
; 2437 : 	}
; 2438 : 	int iSlotIndex;
; 2439 : 	if (!PyTuple_GetInteger(poArgs, 1, &iSlotIndex))

  0002c	8d 45 f8	 lea	 eax, DWORD PTR _iSlotIndex$[ebp]
  0002f	50		 push	 eax
  00030	6a 01		 push	 1
  00032	56		 push	 esi
  00033	e8 00 00 00 00	 call	 ?PyTuple_GetInteger@@YA_NPAU_object@@HPAH@Z ; PyTuple_GetInteger
  00038	83 c4 0c	 add	 esp, 12			; 0000000cH
  0003b	84 c0		 test	 al, al
  0003d	74 de		 je	 SHORT $LN6@wndMgrUnlo

; 2440 : 	{
; 2441 : 		return Py_BuildException();
; 2442 : 	}
; 2443 : 
; 2444 : 	if (!pWin->IsType(UI::CSlotWindow::Type()))

  0003f	e8 00 00 00 00	 call	 ?Type@CSlotWindow@UI@@SAKXZ ; UI::CSlotWindow::Type
  00044	8b 75 fc	 mov	 esi, DWORD PTR _pWin$[ebp]
  00047	8b ce		 mov	 ecx, esi
  00049	50		 push	 eax
  0004a	e8 00 00 00 00	 call	 ?IsType@CWindow@UI@@QAEHK@Z ; UI::CWindow::IsType
  0004f	85 c0		 test	 eax, eax
  00051	74 ca		 je	 SHORT $LN6@wndMgrUnlo

; 2445 : 	{
; 2446 : 		return Py_BuildException();
; 2447 : 	}
; 2448 : 
; 2449 : 	UI::CSlotWindow * pSlotWin = (UI::CSlotWindow *)pWin;
; 2450 : 	pSlotWin->UnlockSlot(iSlotIndex);

  00053	ff 75 f8	 push	 DWORD PTR _iSlotIndex$[ebp]
  00056	8b ce		 mov	 ecx, esi
  00058	e8 00 00 00 00	 call	 ?UnlockSlot@CSlotWindow@UI@@QAEXK@Z ; UI::CSlotWindow::UnlockSlot

; 2451 : 	return Py_BuildNone();

  0005d	e8 00 00 00 00	 call	 ?Py_BuildNone@@YAPAU_object@@XZ ; Py_BuildNone
  00062	5e		 pop	 esi

; 2452 : }

  00063	8b e5		 mov	 esp, ebp
  00065	5d		 pop	 ebp
  00066	c3		 ret	 0
?wndMgrUnlockSlot@@YAPAU_object@@PAU1@0@Z ENDP		; wndMgrUnlockSlot
_TEXT	ENDS
; Function compile flags: /Ogtp
; File C:\Users\flourine\Desktop\Xantios\client-src\Code\eterPythonLib\PythonWindowManagerModule.cpp
;	COMDAT ?wndMgrLockSlot@@YAPAU_object@@PAU1@0@Z
_TEXT	SEGMENT
_iSlotIndex$ = -28					; size = 4
_pWin$ = -24						; size = 4
_fLockColour$ = -20					; size = 16
__$ArrayPad$ = -4					; size = 4
_poSelf$ = 8						; size = 4
_poArgs$ = 12						; size = 4
?wndMgrLockSlot@@YAPAU_object@@PAU1@0@Z PROC		; wndMgrLockSlot, COMDAT

; 2397 : {

  00000	55		 push	 ebp
  00001	8b ec		 mov	 ebp, esp
  00003	83 ec 1c	 sub	 esp, 28			; 0000001cH
  00006	a1 00 00 00 00	 mov	 eax, DWORD PTR ___security_cookie
  0000b	33 c5		 xor	 eax, ebp
  0000d	89 45 fc	 mov	 DWORD PTR __$ArrayPad$[ebp], eax
  00010	53		 push	 ebx
  00011	8b 5d 0c	 mov	 ebx, DWORD PTR _poArgs$[ebp]

; 2398 : 	UI::CWindow * pWin;
; 2399 : 	if (!PyTuple_GetWindow(poArgs, 0, &pWin))

  00014	8d 45 e8	 lea	 eax, DWORD PTR _pWin$[ebp]
  00017	50		 push	 eax
  00018	6a 00		 push	 0
  0001a	53		 push	 ebx
  0001b	e8 00 00 00 00	 call	 ?PyTuple_GetWindow@@YA_NPAU_object@@HPAPAVCWindow@UI@@@Z ; PyTuple_GetWindow
  00020	83 c4 0c	 add	 esp, 12			; 0000000cH
  00023	84 c0		 test	 al, al
  00025	75 19		 jne	 SHORT $LN5@wndMgrLock
$LN15@wndMgrLock:

; 2429 : }

  00027	6a 00		 push	 0
  00029	e8 00 00 00 00	 call	 ?Py_BuildException@@YAPAU_object@@PBDZZ ; Py_BuildException
  0002e	83 c4 04	 add	 esp, 4
  00031	5b		 pop	 ebx
  00032	8b 4d fc	 mov	 ecx, DWORD PTR __$ArrayPad$[ebp]
  00035	33 cd		 xor	 ecx, ebp
  00037	e8 00 00 00 00	 call	 @__security_check_cookie@4
  0003c	8b e5		 mov	 esp, ebp
  0003e	5d		 pop	 ebp
  0003f	c3		 ret	 0
$LN5@wndMgrLock:

; 2400 : 	{
; 2401 : 		return Py_BuildException();
; 2402 : 	}
; 2403 : 	int iSlotIndex;
; 2404 : 	if (!PyTuple_GetInteger(poArgs, 1, &iSlotIndex))

  00040	8d 45 e4	 lea	 eax, DWORD PTR _iSlotIndex$[ebp]
  00043	50		 push	 eax
  00044	6a 01		 push	 1
  00046	53		 push	 ebx
  00047	e8 00 00 00 00	 call	 ?PyTuple_GetInteger@@YA_NPAU_object@@HPAH@Z ; PyTuple_GetInteger
  0004c	83 c4 0c	 add	 esp, 12			; 0000000cH
  0004f	84 c0		 test	 al, al
  00051	74 d4		 je	 SHORT $LN15@wndMgrLock

; 2405 : 	{
; 2406 : 		return Py_BuildException();
; 2407 : 	}
; 2408 : 
; 2409 : 	if (!pWin->IsType(UI::CSlotWindow::Type()))

  00053	e8 00 00 00 00	 call	 ?Type@CSlotWindow@UI@@SAKXZ ; UI::CSlotWindow::Type
  00058	8b 4d e8	 mov	 ecx, DWORD PTR _pWin$[ebp]
  0005b	50		 push	 eax
  0005c	e8 00 00 00 00	 call	 ?IsType@CWindow@UI@@QAEHK@Z ; UI::CWindow::IsType
  00061	85 c0		 test	 eax, eax
  00063	74 c2		 je	 SHORT $LN15@wndMgrLock

; 2410 : 	{
; 2411 : 		return Py_BuildException();
; 2412 : 	}
; 2413 : 
; 2414 : 	float fLockColour[4];
; 2415 : 	for (int i = 0, j = 2; i < sizeof(fLockColour) / sizeof(fLockColour[0]); ++i, ++j)

  00065	56		 push	 esi
  00066	57		 push	 edi
  00067	33 f6		 xor	 esi, esi
  00069	8d 7d ec	 lea	 edi, DWORD PTR _fLockColour$[ebp]
  0006c	0f 1f 40 00	 npad	 4
$LL4@wndMgrLock:

; 2416 : 	{
; 2417 : 		float& fColour = fLockColour[i];
; 2418 : 		if (!PyTuple_GetFloat(poArgs, j, &fColour))

  00070	57		 push	 edi
  00071	8d 46 02	 lea	 eax, DWORD PTR [esi+2]
  00074	50		 push	 eax
  00075	53		 push	 ebx
  00076	e8 00 00 00 00	 call	 ?PyTuple_GetFloat@@YA_NPAU_object@@HPAM@Z ; PyTuple_GetFloat
  0007b	83 c4 0c	 add	 esp, 12			; 0000000cH
  0007e	84 c0		 test	 al, al
  00080	74 0b		 je	 SHORT $LN11@wndMgrLock

; 2410 : 	{
; 2411 : 		return Py_BuildException();
; 2412 : 	}
; 2413 : 
; 2414 : 	float fLockColour[4];
; 2415 : 	for (int i = 0, j = 2; i < sizeof(fLockColour) / sizeof(fLockColour[0]); ++i, ++j)

  00082	46		 inc	 esi
  00083	83 c7 04	 add	 edi, 4
  00086	83 fe 04	 cmp	 esi, 4
  00089	72 e5		 jb	 SHORT $LL4@wndMgrLock

; 2416 : 	{
; 2417 : 		float& fColour = fLockColour[i];
; 2418 : 		if (!PyTuple_GetFloat(poArgs, j, &fColour))

  0008b	eb 0e		 jmp	 SHORT $LN3@wndMgrLock
$LN11@wndMgrLock:
  0008d	0f 57 c0	 xorps	 xmm0, xmm0

; 2419 : 		{
; 2420 : 			memset(fLockColour, 0, sizeof(fLockColour));

  00090	0f 11 45 ec	 movups	 XMMWORD PTR _fLockColour$[ebp], xmm0

; 2421 : 			fLockColour[3] = 0.5f;

  00094	c7 45 f8 00 00
	00 3f		 mov	 DWORD PTR _fLockColour$[ebp+12], 1056964608 ; 3f000000H
$LN3@wndMgrLock:

; 2422 : 			break;
; 2423 : 		}
; 2424 : 	}
; 2425 : 
; 2426 : 	UI::CSlotWindow * pSlotWin = (UI::CSlotWindow *)pWin;
; 2427 : 	pSlotWin->LockSlot(iSlotIndex, fLockColour);

  0009b	8b 4d e8	 mov	 ecx, DWORD PTR _pWin$[ebp]
  0009e	8d 45 ec	 lea	 eax, DWORD PTR _fLockColour$[ebp]
  000a1	50		 push	 eax
  000a2	ff 75 e4	 push	 DWORD PTR _iSlotIndex$[ebp]
  000a5	e8 00 00 00 00	 call	 ?LockSlot@CSlotWindow@UI@@QAEXKPBM@Z ; UI::CSlotWindow::LockSlot

; 2428 : 	return Py_BuildNone();

  000aa	e8 00 00 00 00	 call	 ?Py_BuildNone@@YAPAU_object@@XZ ; Py_BuildNone

; 2429 : }

  000af	8b 4d fc	 mov	 ecx, DWORD PTR __$ArrayPad$[ebp]
  000b2	5f		 pop	 edi
  000b3	5e		 pop	 esi
  000b4	33 cd		 xor	 ecx, ebp
  000b6	5b		 pop	 ebx
  000b7	e8 00 00 00 00	 call	 @__security_check_cookie@4
  000bc	8b e5		 mov	 esp, ebp
  000be	5d		 pop	 ebp
  000bf	c3		 ret	 0
?wndMgrLockSlot@@YAPAU_object@@PAU1@0@Z ENDP		; wndMgrLockSlot
_TEXT	ENDS
; Function compile flags: /Ogtp
; File C:\Users\flourine\Desktop\Xantios\client-src\Code\eterPythonLib\PythonWindowManagerModule.cpp
;	COMDAT ?wndMgrGetSlotCount@@YAPAU_object@@PAU1@0@Z
_TEXT	SEGMENT
_pWin$ = -4						; size = 4
_poSelf$ = 8						; size = 4
_poArgs$ = 12						; size = 4
?wndMgrGetSlotCount@@YAPAU_object@@PAU1@0@Z PROC	; wndMgrGetSlotCount, COMDAT

; 2380 : {

  00000	55		 push	 ebp
  00001	8b ec		 mov	 ebp, esp
  00003	51		 push	 ecx

; 2381 : 	UI::CWindow * pWin;
; 2382 : 	if (!PyTuple_GetWindow(poArgs, 0, &pWin))

  00004	8d 45 fc	 lea	 eax, DWORD PTR _pWin$[ebp]
  00007	50		 push	 eax
  00008	6a 00		 push	 0
  0000a	ff 75 0c	 push	 DWORD PTR _poArgs$[ebp]
  0000d	e8 00 00 00 00	 call	 ?PyTuple_GetWindow@@YA_NPAU_object@@HPAPAVCWindow@UI@@@Z ; PyTuple_GetWindow
  00012	83 c4 0c	 add	 esp, 12			; 0000000cH
  00015	84 c0		 test	 al, al
  00017	75 0e		 jne	 SHORT $LN2@wndMgrGetS
$LN5@wndMgrGetS:

; 2394 : }

  00019	6a 00		 push	 0
  0001b	e8 00 00 00 00	 call	 ?Py_BuildException@@YAPAU_object@@PBDZZ ; Py_BuildException
  00020	83 c4 04	 add	 esp, 4
  00023	8b e5		 mov	 esp, ebp
  00025	5d		 pop	 ebp
  00026	c3		 ret	 0
$LN2@wndMgrGetS:

; 2383 : 	{
; 2384 : 		return Py_BuildException();
; 2385 : 	}
; 2386 : 
; 2387 : 	if (!pWin->IsType(UI::CSlotWindow::Type()))

  00027	e8 00 00 00 00	 call	 ?Type@CSlotWindow@UI@@SAKXZ ; UI::CSlotWindow::Type
  0002c	8b 4d fc	 mov	 ecx, DWORD PTR _pWin$[ebp]
  0002f	50		 push	 eax
  00030	e8 00 00 00 00	 call	 ?IsType@CWindow@UI@@QAEHK@Z ; UI::CWindow::IsType
  00035	85 c0		 test	 eax, eax
  00037	74 e0		 je	 SHORT $LN5@wndMgrGetS

; 2388 : 	{
; 2389 : 		return Py_BuildException();
; 2390 : 	}
; 2391 : 
; 2392 : 	UI::CSlotWindow * pSlotWin = (UI::CSlotWindow *)pWin;
; 2393 : 	return Py_BuildValue("i", pSlotWin->GetSlotCount());

  00039	8b 4d fc	 mov	 ecx, DWORD PTR _pWin$[ebp]
  0003c	e8 00 00 00 00	 call	 ?GetSlotCount@CSlotWindow@UI@@QAEKXZ ; UI::CSlotWindow::GetSlotCount
  00041	50		 push	 eax
  00042	68 00 00 00 00	 push	 OFFSET ??_C@_01KBJDNOO@i@
  00047	ff 15 00 00 00
	00		 call	 DWORD PTR __imp__Py_BuildValue
  0004d	83 c4 08	 add	 esp, 8

; 2394 : }

  00050	8b e5		 mov	 esp, ebp
  00052	5d		 pop	 ebp
  00053	c3		 ret	 0
?wndMgrGetSlotCount@@YAPAU_object@@PAU1@0@Z ENDP	; wndMgrGetSlotCount
_TEXT	ENDS
; Function compile flags: /Ogtp
; File C:\Users\flourine\Desktop\Xantios\client-src\Code\eterPythonLib\PythonWindowManagerModule.cpp
;	COMDAT ?wndMgrIsSelectedSlot@@YAPAU_object@@PAU1@0@Z
_TEXT	SEGMENT
_iSlotNumber$ = -8					; size = 4
_pWin$ = -4						; size = 4
_poSelf$ = 8						; size = 4
_poArgs$ = 12						; size = 4
?wndMgrIsSelectedSlot@@YAPAU_object@@PAU1@0@Z PROC	; wndMgrIsSelectedSlot, COMDAT

; 2358 : {

  00000	55		 push	 ebp
  00001	8b ec		 mov	 ebp, esp
  00003	83 ec 08	 sub	 esp, 8

; 2359 : 	UI::CWindow * pWin;
; 2360 : 	if (!PyTuple_GetWindow(poArgs, 0, &pWin))

  00006	8d 45 fc	 lea	 eax, DWORD PTR _pWin$[ebp]
  00009	56		 push	 esi
  0000a	8b 75 0c	 mov	 esi, DWORD PTR _poArgs$[ebp]
  0000d	50		 push	 eax
  0000e	6a 00		 push	 0
  00010	56		 push	 esi
  00011	e8 00 00 00 00	 call	 ?PyTuple_GetWindow@@YA_NPAU_object@@HPAPAVCWindow@UI@@@Z ; PyTuple_GetWindow
  00016	83 c4 0c	 add	 esp, 12			; 0000000cH
  00019	84 c0		 test	 al, al
  0001b	75 0f		 jne	 SHORT $LN2@wndMgrIsSe
$LN6@wndMgrIsSe:

; 2377 : }

  0001d	6a 00		 push	 0
  0001f	e8 00 00 00 00	 call	 ?Py_BuildException@@YAPAU_object@@PBDZZ ; Py_BuildException
  00024	83 c4 04	 add	 esp, 4
  00027	5e		 pop	 esi
  00028	8b e5		 mov	 esp, ebp
  0002a	5d		 pop	 ebp
  0002b	c3		 ret	 0
$LN2@wndMgrIsSe:

; 2361 : 	{
; 2362 : 		return Py_BuildException();
; 2363 : 	}
; 2364 : 	int iSlotNumber;
; 2365 : 	if (!PyTuple_GetInteger(poArgs, 1, &iSlotNumber))

  0002c	8d 45 f8	 lea	 eax, DWORD PTR _iSlotNumber$[ebp]
  0002f	50		 push	 eax
  00030	6a 01		 push	 1
  00032	56		 push	 esi
  00033	e8 00 00 00 00	 call	 ?PyTuple_GetInteger@@YA_NPAU_object@@HPAH@Z ; PyTuple_GetInteger
  00038	83 c4 0c	 add	 esp, 12			; 0000000cH
  0003b	84 c0		 test	 al, al
  0003d	74 de		 je	 SHORT $LN6@wndMgrIsSe

; 2366 : 	{
; 2367 : 		return Py_BuildException();
; 2368 : 	}
; 2369 : 
; 2370 : 	if (!pWin->IsType(UI::CSlotWindow::Type()))

  0003f	e8 00 00 00 00	 call	 ?Type@CSlotWindow@UI@@SAKXZ ; UI::CSlotWindow::Type
  00044	8b 75 fc	 mov	 esi, DWORD PTR _pWin$[ebp]
  00047	8b ce		 mov	 ecx, esi
  00049	50		 push	 eax
  0004a	e8 00 00 00 00	 call	 ?IsType@CWindow@UI@@QAEHK@Z ; UI::CWindow::IsType
  0004f	85 c0		 test	 eax, eax
  00051	74 ca		 je	 SHORT $LN6@wndMgrIsSe

; 2371 : 	{
; 2372 : 		return Py_BuildException();
; 2373 : 	}
; 2374 : 
; 2375 : 	UI::CSlotWindow * pSlotWin = (UI::CSlotWindow *)pWin;
; 2376 : 	return Py_BuildValue("i", pSlotWin->isSelectedSlot(iSlotNumber));

  00053	ff 75 f8	 push	 DWORD PTR _iSlotNumber$[ebp]
  00056	8b ce		 mov	 ecx, esi
  00058	e8 00 00 00 00	 call	 ?isSelectedSlot@CSlotWindow@UI@@QAEHK@Z ; UI::CSlotWindow::isSelectedSlot
  0005d	50		 push	 eax
  0005e	68 00 00 00 00	 push	 OFFSET ??_C@_01KBJDNOO@i@
  00063	ff 15 00 00 00
	00		 call	 DWORD PTR __imp__Py_BuildValue
  00069	83 c4 08	 add	 esp, 8
  0006c	5e		 pop	 esi

; 2377 : }

  0006d	8b e5		 mov	 esp, ebp
  0006f	5d		 pop	 ebp
  00070	c3		 ret	 0
?wndMgrIsSelectedSlot@@YAPAU_object@@PAU1@0@Z ENDP	; wndMgrIsSelectedSlot
_TEXT	ENDS
; Function compile flags: /Ogtp
; File C:\Users\flourine\Desktop\Xantios\client-src\Code\eterPythonLib\PythonWindowManagerModule.cpp
;	COMDAT ?wndMgrGetSelectedSlotNumber@@YAPAU_object@@PAU1@0@Z
_TEXT	SEGMENT
_iSlotNumber$ = -8					; size = 4
_pWin$ = -4						; size = 4
_poSelf$ = 8						; size = 4
_poArgs$ = 12						; size = 4
?wndMgrGetSelectedSlotNumber@@YAPAU_object@@PAU1@0@Z PROC ; wndMgrGetSelectedSlotNumber, COMDAT

; 2336 : {

  00000	55		 push	 ebp
  00001	8b ec		 mov	 ebp, esp
  00003	83 ec 08	 sub	 esp, 8

; 2337 : 	UI::CWindow * pWin;
; 2338 : 	if (!PyTuple_GetWindow(poArgs, 0, &pWin))

  00006	8d 45 fc	 lea	 eax, DWORD PTR _pWin$[ebp]
  00009	56		 push	 esi
  0000a	8b 75 0c	 mov	 esi, DWORD PTR _poArgs$[ebp]
  0000d	50		 push	 eax
  0000e	6a 00		 push	 0
  00010	56		 push	 esi
  00011	e8 00 00 00 00	 call	 ?PyTuple_GetWindow@@YA_NPAU_object@@HPAPAVCWindow@UI@@@Z ; PyTuple_GetWindow
  00016	83 c4 0c	 add	 esp, 12			; 0000000cH
  00019	84 c0		 test	 al, al
  0001b	75 0f		 jne	 SHORT $LN2@wndMgrGetS
$LN6@wndMgrGetS:

; 2355 : }

  0001d	6a 00		 push	 0
  0001f	e8 00 00 00 00	 call	 ?Py_BuildException@@YAPAU_object@@PBDZZ ; Py_BuildException
  00024	83 c4 04	 add	 esp, 4
  00027	5e		 pop	 esi
  00028	8b e5		 mov	 esp, ebp
  0002a	5d		 pop	 ebp
  0002b	c3		 ret	 0
$LN2@wndMgrGetS:

; 2339 : 	{
; 2340 : 		return Py_BuildException();
; 2341 : 	}
; 2342 : 	int iSlotNumber;
; 2343 : 	if (!PyTuple_GetInteger(poArgs, 1, &iSlotNumber))

  0002c	8d 45 f8	 lea	 eax, DWORD PTR _iSlotNumber$[ebp]
  0002f	50		 push	 eax
  00030	6a 01		 push	 1
  00032	56		 push	 esi
  00033	e8 00 00 00 00	 call	 ?PyTuple_GetInteger@@YA_NPAU_object@@HPAH@Z ; PyTuple_GetInteger
  00038	83 c4 0c	 add	 esp, 12			; 0000000cH
  0003b	84 c0		 test	 al, al
  0003d	74 de		 je	 SHORT $LN6@wndMgrGetS

; 2344 : 	{
; 2345 : 		return Py_BuildException();
; 2346 : 	}
; 2347 : 
; 2348 : 	if (!pWin->IsType(UI::CSlotWindow::Type()))

  0003f	e8 00 00 00 00	 call	 ?Type@CSlotWindow@UI@@SAKXZ ; UI::CSlotWindow::Type
  00044	8b 75 fc	 mov	 esi, DWORD PTR _pWin$[ebp]
  00047	8b ce		 mov	 ecx, esi
  00049	50		 push	 eax
  0004a	e8 00 00 00 00	 call	 ?IsType@CWindow@UI@@QAEHK@Z ; UI::CWindow::IsType
  0004f	85 c0		 test	 eax, eax
  00051	74 ca		 je	 SHORT $LN6@wndMgrGetS

; 2349 : 	{
; 2350 : 		return Py_BuildException();
; 2351 : 	}
; 2352 : 
; 2353 : 	UI::CSlotWindow * pSlotWin = (UI::CSlotWindow *)pWin;
; 2354 : 	return Py_BuildValue("i", pSlotWin->GetSelectedSlotNumber(iSlotNumber));

  00053	ff 75 f8	 push	 DWORD PTR _iSlotNumber$[ebp]
  00056	8b ce		 mov	 ecx, esi
  00058	e8 00 00 00 00	 call	 ?GetSelectedSlotNumber@CSlotWindow@UI@@QAEKK@Z ; UI::CSlotWindow::GetSelectedSlotNumber
  0005d	50		 push	 eax
  0005e	68 00 00 00 00	 push	 OFFSET ??_C@_01KBJDNOO@i@
  00063	ff 15 00 00 00
	00		 call	 DWORD PTR __imp__Py_BuildValue
  00069	83 c4 08	 add	 esp, 8
  0006c	5e		 pop	 esi

; 2355 : }

  0006d	8b e5		 mov	 esp, ebp
  0006f	5d		 pop	 ebp
  00070	c3		 ret	 0
?wndMgrGetSelectedSlotNumber@@YAPAU_object@@PAU1@0@Z ENDP ; wndMgrGetSelectedSlotNumber
_TEXT	ENDS
; Function compile flags: /Ogtp
; File C:\Users\flourine\Desktop\Xantios\client-src\Code\eterPythonLib\PythonWindowManagerModule.cpp
;	COMDAT ?wndMgrGetSelectedSlotCount@@YAPAU_object@@PAU1@0@Z
_TEXT	SEGMENT
_pWin$ = -4						; size = 4
_poSelf$ = 8						; size = 4
_poArgs$ = 12						; size = 4
?wndMgrGetSelectedSlotCount@@YAPAU_object@@PAU1@0@Z PROC ; wndMgrGetSelectedSlotCount, COMDAT

; 2319 : {

  00000	55		 push	 ebp
  00001	8b ec		 mov	 ebp, esp
  00003	51		 push	 ecx

; 2320 : 	UI::CWindow * pWin;
; 2321 : 	if (!PyTuple_GetWindow(poArgs, 0, &pWin))

  00004	8d 45 fc	 lea	 eax, DWORD PTR _pWin$[ebp]
  00007	50		 push	 eax
  00008	6a 00		 push	 0
  0000a	ff 75 0c	 push	 DWORD PTR _poArgs$[ebp]
  0000d	e8 00 00 00 00	 call	 ?PyTuple_GetWindow@@YA_NPAU_object@@HPAPAVCWindow@UI@@@Z ; PyTuple_GetWindow
  00012	83 c4 0c	 add	 esp, 12			; 0000000cH
  00015	84 c0		 test	 al, al
  00017	75 0e		 jne	 SHORT $LN2@wndMgrGetS
$LN5@wndMgrGetS:

; 2333 : }

  00019	6a 00		 push	 0
  0001b	e8 00 00 00 00	 call	 ?Py_BuildException@@YAPAU_object@@PBDZZ ; Py_BuildException
  00020	83 c4 04	 add	 esp, 4
  00023	8b e5		 mov	 esp, ebp
  00025	5d		 pop	 ebp
  00026	c3		 ret	 0
$LN2@wndMgrGetS:

; 2322 : 	{
; 2323 : 		return Py_BuildException();
; 2324 : 	}
; 2325 : 
; 2326 : 	if (!pWin->IsType(UI::CSlotWindow::Type()))

  00027	e8 00 00 00 00	 call	 ?Type@CSlotWindow@UI@@SAKXZ ; UI::CSlotWindow::Type
  0002c	8b 4d fc	 mov	 ecx, DWORD PTR _pWin$[ebp]
  0002f	50		 push	 eax
  00030	e8 00 00 00 00	 call	 ?IsType@CWindow@UI@@QAEHK@Z ; UI::CWindow::IsType
  00035	85 c0		 test	 eax, eax
  00037	74 e0		 je	 SHORT $LN5@wndMgrGetS

; 2327 : 	{
; 2328 : 		return Py_BuildException();
; 2329 : 	}
; 2330 : 
; 2331 : 	UI::CSlotWindow * pSlotWin = (UI::CSlotWindow *)pWin;
; 2332 : 	return Py_BuildValue("i", pSlotWin->GetSelectedSlotCount());

  00039	8b 4d fc	 mov	 ecx, DWORD PTR _pWin$[ebp]
  0003c	e8 00 00 00 00	 call	 ?GetSelectedSlotCount@CSlotWindow@UI@@QAEKXZ ; UI::CSlotWindow::GetSelectedSlotCount
  00041	50		 push	 eax
  00042	68 00 00 00 00	 push	 OFFSET ??_C@_01KBJDNOO@i@
  00047	ff 15 00 00 00
	00		 call	 DWORD PTR __imp__Py_BuildValue
  0004d	83 c4 08	 add	 esp, 8

; 2333 : }

  00050	8b e5		 mov	 esp, ebp
  00052	5d		 pop	 ebp
  00053	c3		 ret	 0
?wndMgrGetSelectedSlotCount@@YAPAU_object@@PAU1@0@Z ENDP ; wndMgrGetSelectedSlotCount
_TEXT	ENDS
; Function compile flags: /Ogtp
; File C:\Users\flourine\Desktop\Xantios\client-src\Code\eterPythonLib\PythonWindowManagerModule.cpp
;	COMDAT ?wndMgrClearSelected@@YAPAU_object@@PAU1@0@Z
_TEXT	SEGMENT
_pWin$ = -4						; size = 4
_poSelf$ = 8						; size = 4
_poArgs$ = 12						; size = 4
?wndMgrClearSelected@@YAPAU_object@@PAU1@0@Z PROC	; wndMgrClearSelected, COMDAT

; 2300 : {

  00000	55		 push	 ebp
  00001	8b ec		 mov	 ebp, esp
  00003	51		 push	 ecx

; 2301 : 	UI::CWindow * pWin;
; 2302 : 	if (!PyTuple_GetWindow(poArgs, 0, &pWin))

  00004	8d 45 fc	 lea	 eax, DWORD PTR _pWin$[ebp]
  00007	50		 push	 eax
  00008	6a 00		 push	 0
  0000a	ff 75 0c	 push	 DWORD PTR _poArgs$[ebp]
  0000d	e8 00 00 00 00	 call	 ?PyTuple_GetWindow@@YA_NPAU_object@@HPAPAVCWindow@UI@@@Z ; PyTuple_GetWindow
  00012	83 c4 0c	 add	 esp, 12			; 0000000cH
  00015	84 c0		 test	 al, al
  00017	75 0e		 jne	 SHORT $LN2@wndMgrClea
$LN5@wndMgrClea:

; 2316 : }

  00019	6a 00		 push	 0
  0001b	e8 00 00 00 00	 call	 ?Py_BuildException@@YAPAU_object@@PBDZZ ; Py_BuildException
  00020	83 c4 04	 add	 esp, 4
  00023	8b e5		 mov	 esp, ebp
  00025	5d		 pop	 ebp
  00026	c3		 ret	 0
$LN2@wndMgrClea:

; 2303 : 	{
; 2304 : 		return Py_BuildException();
; 2305 : 	}
; 2306 : 
; 2307 : 	if (!pWin->IsType(UI::CSlotWindow::Type()))

  00027	e8 00 00 00 00	 call	 ?Type@CSlotWindow@UI@@SAKXZ ; UI::CSlotWindow::Type
  0002c	8b 4d fc	 mov	 ecx, DWORD PTR _pWin$[ebp]
  0002f	50		 push	 eax
  00030	e8 00 00 00 00	 call	 ?IsType@CWindow@UI@@QAEHK@Z ; UI::CWindow::IsType
  00035	85 c0		 test	 eax, eax
  00037	74 e0		 je	 SHORT $LN5@wndMgrClea

; 2308 : 	{
; 2309 : 		return Py_BuildException();
; 2310 : 	}
; 2311 : 
; 2312 : 	UI::CSlotWindow * pSlotWin = (UI::CSlotWindow *)pWin;
; 2313 : 	pSlotWin->ClearSelected();

  00039	8b 4d fc	 mov	 ecx, DWORD PTR _pWin$[ebp]
  0003c	e8 00 00 00 00	 call	 ?ClearSelected@CSlotWindow@UI@@QAEXXZ ; UI::CSlotWindow::ClearSelected

; 2314 : 
; 2315 : 	return Py_BuildNone();

  00041	e8 00 00 00 00	 call	 ?Py_BuildNone@@YAPAU_object@@XZ ; Py_BuildNone

; 2316 : }

  00046	8b e5		 mov	 esp, ebp
  00048	5d		 pop	 ebp
  00049	c3		 ret	 0
?wndMgrClearSelected@@YAPAU_object@@PAU1@0@Z ENDP	; wndMgrClearSelected
_TEXT	ENDS
; Function compile flags: /Ogtp
; File C:\Users\flourine\Desktop\Xantios\client-src\Code\eterPythonLib\PythonWindowManagerModule.cpp
;	COMDAT ?wndMgrSelectSlot@@YAPAU_object@@PAU1@0@Z
_TEXT	SEGMENT
_iIndex$ = -8						; size = 4
_pWin$ = -4						; size = 4
_poSelf$ = 8						; size = 4
_poArgs$ = 12						; size = 4
?wndMgrSelectSlot@@YAPAU_object@@PAU1@0@Z PROC		; wndMgrSelectSlot, COMDAT

; 2275 : {

  00000	55		 push	 ebp
  00001	8b ec		 mov	 ebp, esp
  00003	83 ec 08	 sub	 esp, 8

; 2276 : 	UI::CWindow * pWin;
; 2277 : 	if (!PyTuple_GetWindow(poArgs, 0, &pWin))

  00006	8d 45 fc	 lea	 eax, DWORD PTR _pWin$[ebp]
  00009	56		 push	 esi
  0000a	8b 75 0c	 mov	 esi, DWORD PTR _poArgs$[ebp]
  0000d	50		 push	 eax
  0000e	6a 00		 push	 0
  00010	56		 push	 esi
  00011	e8 00 00 00 00	 call	 ?PyTuple_GetWindow@@YA_NPAU_object@@HPAPAVCWindow@UI@@@Z ; PyTuple_GetWindow
  00016	83 c4 0c	 add	 esp, 12			; 0000000cH
  00019	84 c0		 test	 al, al
  0001b	75 0f		 jne	 SHORT $LN2@wndMgrSele
$LN6@wndMgrSele:

; 2297 : }

  0001d	6a 00		 push	 0
  0001f	e8 00 00 00 00	 call	 ?Py_BuildException@@YAPAU_object@@PBDZZ ; Py_BuildException
  00024	83 c4 04	 add	 esp, 4
  00027	5e		 pop	 esi
  00028	8b e5		 mov	 esp, ebp
  0002a	5d		 pop	 ebp
  0002b	c3		 ret	 0
$LN2@wndMgrSele:

; 2278 : 	{
; 2279 : 		return Py_BuildException();
; 2280 : 	}
; 2281 : 
; 2282 : 	int iIndex;
; 2283 : 	if (!PyTuple_GetInteger(poArgs, 1, &iIndex))

  0002c	8d 45 f8	 lea	 eax, DWORD PTR _iIndex$[ebp]
  0002f	50		 push	 eax
  00030	6a 01		 push	 1
  00032	56		 push	 esi
  00033	e8 00 00 00 00	 call	 ?PyTuple_GetInteger@@YA_NPAU_object@@HPAH@Z ; PyTuple_GetInteger
  00038	83 c4 0c	 add	 esp, 12			; 0000000cH
  0003b	84 c0		 test	 al, al
  0003d	74 de		 je	 SHORT $LN6@wndMgrSele

; 2284 : 	{
; 2285 : 		return Py_BuildException();
; 2286 : 	}
; 2287 : 
; 2288 : 	if (!pWin->IsType(UI::CSlotWindow::Type()))

  0003f	e8 00 00 00 00	 call	 ?Type@CSlotWindow@UI@@SAKXZ ; UI::CSlotWindow::Type
  00044	8b 75 fc	 mov	 esi, DWORD PTR _pWin$[ebp]
  00047	8b ce		 mov	 ecx, esi
  00049	50		 push	 eax
  0004a	e8 00 00 00 00	 call	 ?IsType@CWindow@UI@@QAEHK@Z ; UI::CWindow::IsType
  0004f	85 c0		 test	 eax, eax
  00051	74 ca		 je	 SHORT $LN6@wndMgrSele

; 2289 : 	{
; 2290 : 		return Py_BuildException();
; 2291 : 	}
; 2292 : 
; 2293 : 	UI::CSlotWindow * pSlotWin = (UI::CSlotWindow *)pWin;
; 2294 : 	pSlotWin->SelectSlot(iIndex);

  00053	ff 75 f8	 push	 DWORD PTR _iIndex$[ebp]
  00056	8b ce		 mov	 ecx, esi
  00058	e8 00 00 00 00	 call	 ?SelectSlot@CSlotWindow@UI@@QAEXK@Z ; UI::CSlotWindow::SelectSlot

; 2295 : 
; 2296 : 	return Py_BuildNone();

  0005d	e8 00 00 00 00	 call	 ?Py_BuildNone@@YAPAU_object@@XZ ; Py_BuildNone
  00062	5e		 pop	 esi

; 2297 : }

  00063	8b e5		 mov	 esp, ebp
  00065	5d		 pop	 ebp
  00066	c3		 ret	 0
?wndMgrSelectSlot@@YAPAU_object@@PAU1@0@Z ENDP		; wndMgrSelectSlot
_TEXT	ENDS
; Function compile flags: /Ogtp
; File C:\Users\flourine\Desktop\Xantios\client-src\Code\eterPythonLib\PythonWindowManagerModule.cpp
;	COMDAT ?wndMgrSetSlotStyle@@YAPAU_object@@PAU1@0@Z
_TEXT	SEGMENT
_iStyle$ = -8						; size = 4
_pWin$ = -4						; size = 4
_poSelf$ = 8						; size = 4
_poArgs$ = 12						; size = 4
?wndMgrSetSlotStyle@@YAPAU_object@@PAU1@0@Z PROC	; wndMgrSetSlotStyle, COMDAT

; 2250 : {

  00000	55		 push	 ebp
  00001	8b ec		 mov	 ebp, esp
  00003	83 ec 08	 sub	 esp, 8

; 2251 : 	UI::CWindow * pWin;
; 2252 : 	if (!PyTuple_GetWindow(poArgs, 0, &pWin))

  00006	8d 45 fc	 lea	 eax, DWORD PTR _pWin$[ebp]
  00009	56		 push	 esi
  0000a	8b 75 0c	 mov	 esi, DWORD PTR _poArgs$[ebp]
  0000d	50		 push	 eax
  0000e	6a 00		 push	 0
  00010	56		 push	 esi
  00011	e8 00 00 00 00	 call	 ?PyTuple_GetWindow@@YA_NPAU_object@@HPAPAVCWindow@UI@@@Z ; PyTuple_GetWindow
  00016	83 c4 0c	 add	 esp, 12			; 0000000cH
  00019	84 c0		 test	 al, al
  0001b	75 0f		 jne	 SHORT $LN2@wndMgrSetS
$LN6@wndMgrSetS:

; 2272 : }

  0001d	6a 00		 push	 0
  0001f	e8 00 00 00 00	 call	 ?Py_BuildException@@YAPAU_object@@PBDZZ ; Py_BuildException
  00024	83 c4 04	 add	 esp, 4
  00027	5e		 pop	 esi
  00028	8b e5		 mov	 esp, ebp
  0002a	5d		 pop	 ebp
  0002b	c3		 ret	 0
$LN2@wndMgrSetS:

; 2253 : 	{
; 2254 : 		return Py_BuildException();
; 2255 : 	}
; 2256 : 
; 2257 : 	int iStyle;
; 2258 : 	if (!PyTuple_GetInteger(poArgs, 1, &iStyle))

  0002c	8d 45 f8	 lea	 eax, DWORD PTR _iStyle$[ebp]
  0002f	50		 push	 eax
  00030	6a 01		 push	 1
  00032	56		 push	 esi
  00033	e8 00 00 00 00	 call	 ?PyTuple_GetInteger@@YA_NPAU_object@@HPAH@Z ; PyTuple_GetInteger
  00038	83 c4 0c	 add	 esp, 12			; 0000000cH
  0003b	84 c0		 test	 al, al
  0003d	74 de		 je	 SHORT $LN6@wndMgrSetS

; 2259 : 	{
; 2260 : 		return Py_BuildException();
; 2261 : 	}
; 2262 : 
; 2263 : 	if (!pWin->IsType(UI::CSlotWindow::Type()))

  0003f	e8 00 00 00 00	 call	 ?Type@CSlotWindow@UI@@SAKXZ ; UI::CSlotWindow::Type
  00044	8b 75 fc	 mov	 esi, DWORD PTR _pWin$[ebp]
  00047	8b ce		 mov	 ecx, esi
  00049	50		 push	 eax
  0004a	e8 00 00 00 00	 call	 ?IsType@CWindow@UI@@QAEHK@Z ; UI::CWindow::IsType
  0004f	85 c0		 test	 eax, eax
  00051	74 ca		 je	 SHORT $LN6@wndMgrSetS

; 2264 : 	{
; 2265 : 		return Py_BuildException();
; 2266 : 	}
; 2267 : 
; 2268 : 	UI::CSlotWindow * pSlotWin = (UI::CSlotWindow *)pWin;
; 2269 : 	pSlotWin->SetSlotStyle(iStyle);

  00053	ff 75 f8	 push	 DWORD PTR _iStyle$[ebp]
  00056	8b ce		 mov	 ecx, esi
  00058	e8 00 00 00 00	 call	 ?SetSlotStyle@CSlotWindow@UI@@QAEXK@Z ; UI::CSlotWindow::SetSlotStyle

; 2270 : 
; 2271 : 	return Py_BuildNone();

  0005d	e8 00 00 00 00	 call	 ?Py_BuildNone@@YAPAU_object@@XZ ; Py_BuildNone
  00062	5e		 pop	 esi

; 2272 : }

  00063	8b e5		 mov	 esp, ebp
  00065	5d		 pop	 ebp
  00066	c3		 ret	 0
?wndMgrSetSlotStyle@@YAPAU_object@@PAU1@0@Z ENDP	; wndMgrSetSlotStyle
_TEXT	ENDS
; Function compile flags: /Ogtp
; File C:\Users\flourine\Desktop\Xantios\client-src\Code\eterPythonLib\PythonWindowManagerModule.cpp
;	COMDAT ?wndMgrSetSlotType@@YAPAU_object@@PAU1@0@Z
_TEXT	SEGMENT
_iType$ = -8						; size = 4
_pWin$ = -4						; size = 4
_poSelf$ = 8						; size = 4
_poArgs$ = 12						; size = 4
?wndMgrSetSlotType@@YAPAU_object@@PAU1@0@Z PROC		; wndMgrSetSlotType, COMDAT

; 2225 : {

  00000	55		 push	 ebp
  00001	8b ec		 mov	 ebp, esp
  00003	83 ec 08	 sub	 esp, 8

; 2226 : 	UI::CWindow * pWin;
; 2227 : 	if (!PyTuple_GetWindow(poArgs, 0, &pWin))

  00006	8d 45 fc	 lea	 eax, DWORD PTR _pWin$[ebp]
  00009	56		 push	 esi
  0000a	8b 75 0c	 mov	 esi, DWORD PTR _poArgs$[ebp]
  0000d	50		 push	 eax
  0000e	6a 00		 push	 0
  00010	56		 push	 esi
  00011	e8 00 00 00 00	 call	 ?PyTuple_GetWindow@@YA_NPAU_object@@HPAPAVCWindow@UI@@@Z ; PyTuple_GetWindow
  00016	83 c4 0c	 add	 esp, 12			; 0000000cH
  00019	84 c0		 test	 al, al
  0001b	75 0f		 jne	 SHORT $LN2@wndMgrSetS
$LN6@wndMgrSetS:

; 2247 : }

  0001d	6a 00		 push	 0
  0001f	e8 00 00 00 00	 call	 ?Py_BuildException@@YAPAU_object@@PBDZZ ; Py_BuildException
  00024	83 c4 04	 add	 esp, 4
  00027	5e		 pop	 esi
  00028	8b e5		 mov	 esp, ebp
  0002a	5d		 pop	 ebp
  0002b	c3		 ret	 0
$LN2@wndMgrSetS:

; 2228 : 	{
; 2229 : 		return Py_BuildException();
; 2230 : 	}
; 2231 : 
; 2232 : 	int iType;
; 2233 : 	if (!PyTuple_GetInteger(poArgs, 1, &iType))

  0002c	8d 45 f8	 lea	 eax, DWORD PTR _iType$[ebp]
  0002f	50		 push	 eax
  00030	6a 01		 push	 1
  00032	56		 push	 esi
  00033	e8 00 00 00 00	 call	 ?PyTuple_GetInteger@@YA_NPAU_object@@HPAH@Z ; PyTuple_GetInteger
  00038	83 c4 0c	 add	 esp, 12			; 0000000cH
  0003b	84 c0		 test	 al, al
  0003d	74 de		 je	 SHORT $LN6@wndMgrSetS

; 2234 : 	{
; 2235 : 		return Py_BuildException();
; 2236 : 	}
; 2237 : 
; 2238 : 	if (!pWin->IsType(UI::CSlotWindow::Type()))

  0003f	e8 00 00 00 00	 call	 ?Type@CSlotWindow@UI@@SAKXZ ; UI::CSlotWindow::Type
  00044	8b 75 fc	 mov	 esi, DWORD PTR _pWin$[ebp]
  00047	8b ce		 mov	 ecx, esi
  00049	50		 push	 eax
  0004a	e8 00 00 00 00	 call	 ?IsType@CWindow@UI@@QAEHK@Z ; UI::CWindow::IsType
  0004f	85 c0		 test	 eax, eax
  00051	74 ca		 je	 SHORT $LN6@wndMgrSetS

; 2239 : 	{
; 2240 : 		return Py_BuildException();
; 2241 : 	}
; 2242 : 
; 2243 : 	UI::CSlotWindow * pSlotWin = (UI::CSlotWindow *)pWin;
; 2244 : 	pSlotWin->SetSlotType(iType);

  00053	ff 75 f8	 push	 DWORD PTR _iType$[ebp]
  00056	8b ce		 mov	 ecx, esi
  00058	e8 00 00 00 00	 call	 ?SetSlotType@CSlotWindow@UI@@QAEXK@Z ; UI::CSlotWindow::SetSlotType

; 2245 : 
; 2246 : 	return Py_BuildNone();

  0005d	e8 00 00 00 00	 call	 ?Py_BuildNone@@YAPAU_object@@XZ ; Py_BuildNone
  00062	5e		 pop	 esi

; 2247 : }

  00063	8b e5		 mov	 esp, ebp
  00065	5d		 pop	 ebp
  00066	c3		 ret	 0
?wndMgrSetSlotType@@YAPAU_object@@PAU1@0@Z ENDP		; wndMgrSetSlotType
_TEXT	ENDS
; Function compile flags: /Ogtp
; File C:\Users\flourine\Desktop\Xantios\client-src\Code\eterPythonLib\PythonWindowManagerModule.cpp
;	COMDAT ?wndMgrHideSlotBaseImage@@YAPAU_object@@PAU1@0@Z
_TEXT	SEGMENT
_iSlotIndex$ = -8					; size = 4
_pWin$ = -4						; size = 4
_poSelf$ = 8						; size = 4
_poArgs$ = 12						; size = 4
?wndMgrHideSlotBaseImage@@YAPAU_object@@PAU1@0@Z PROC	; wndMgrHideSlotBaseImage, COMDAT

; 2201 : {

  00000	55		 push	 ebp
  00001	8b ec		 mov	 ebp, esp
  00003	83 ec 08	 sub	 esp, 8

; 2202 : 	UI::CWindow * pWin;
; 2203 : 	if (!PyTuple_GetWindow(poArgs, 0, &pWin))

  00006	8d 45 fc	 lea	 eax, DWORD PTR _pWin$[ebp]
  00009	56		 push	 esi
  0000a	8b 75 0c	 mov	 esi, DWORD PTR _poArgs$[ebp]
  0000d	50		 push	 eax
  0000e	6a 00		 push	 0
  00010	56		 push	 esi
  00011	e8 00 00 00 00	 call	 ?PyTuple_GetWindow@@YA_NPAU_object@@HPAPAVCWindow@UI@@@Z ; PyTuple_GetWindow
  00016	83 c4 0c	 add	 esp, 12			; 0000000cH
  00019	84 c0		 test	 al, al
  0001b	75 0f		 jne	 SHORT $LN2@wndMgrHide
$LN6@wndMgrHide:

; 2222 : }

  0001d	6a 00		 push	 0
  0001f	e8 00 00 00 00	 call	 ?Py_BuildException@@YAPAU_object@@PBDZZ ; Py_BuildException
  00024	83 c4 04	 add	 esp, 4
  00027	5e		 pop	 esi
  00028	8b e5		 mov	 esp, ebp
  0002a	5d		 pop	 ebp
  0002b	c3		 ret	 0
$LN2@wndMgrHide:

; 2204 : 	{
; 2205 : 		return Py_BuildException();
; 2206 : 	}
; 2207 : 
; 2208 : 	int iSlotIndex;
; 2209 : 	if (!PyTuple_GetInteger(poArgs, 1, &iSlotIndex))

  0002c	8d 45 f8	 lea	 eax, DWORD PTR _iSlotIndex$[ebp]
  0002f	50		 push	 eax
  00030	6a 01		 push	 1
  00032	56		 push	 esi
  00033	e8 00 00 00 00	 call	 ?PyTuple_GetInteger@@YA_NPAU_object@@HPAH@Z ; PyTuple_GetInteger
  00038	83 c4 0c	 add	 esp, 12			; 0000000cH
  0003b	84 c0		 test	 al, al
  0003d	74 de		 je	 SHORT $LN6@wndMgrHide

; 2210 : 	{
; 2211 : 		return Py_BuildException();
; 2212 : 	}
; 2213 : 
; 2214 : 	if (!pWin->IsType(UI::CSlotWindow::Type()))

  0003f	e8 00 00 00 00	 call	 ?Type@CSlotWindow@UI@@SAKXZ ; UI::CSlotWindow::Type
  00044	8b 75 fc	 mov	 esi, DWORD PTR _pWin$[ebp]
  00047	8b ce		 mov	 ecx, esi
  00049	50		 push	 eax
  0004a	e8 00 00 00 00	 call	 ?IsType@CWindow@UI@@QAEHK@Z ; UI::CWindow::IsType
  0004f	85 c0		 test	 eax, eax
  00051	74 ca		 je	 SHORT $LN6@wndMgrHide

; 2215 : 	{
; 2216 : 		return Py_BuildException();
; 2217 : 	}
; 2218 : 
; 2219 : 	UI::CSlotWindow * pSlotWin = (UI::CSlotWindow *)pWin;
; 2220 : 	pSlotWin->HideSlotBaseImage(iSlotIndex);

  00053	ff 75 f8	 push	 DWORD PTR _iSlotIndex$[ebp]
  00056	8b ce		 mov	 ecx, esi
  00058	e8 00 00 00 00	 call	 ?HideSlotBaseImage@CSlotWindow@UI@@QAEXK@Z ; UI::CSlotWindow::HideSlotBaseImage

; 2221 : 	return Py_BuildNone();

  0005d	e8 00 00 00 00	 call	 ?Py_BuildNone@@YAPAU_object@@XZ ; Py_BuildNone
  00062	5e		 pop	 esi

; 2222 : }

  00063	8b e5		 mov	 esp, ebp
  00065	5d		 pop	 ebp
  00066	c3		 ret	 0
?wndMgrHideSlotBaseImage@@YAPAU_object@@PAU1@0@Z ENDP	; wndMgrHideSlotBaseImage
_TEXT	ENDS
; Function compile flags: /Ogtp
; File C:\Users\flourine\Desktop\Xantios\client-src\Code\eterPythonLib\PythonWindowManagerModule.cpp
;	COMDAT ?wndMgrShowSlotBaseImage@@YAPAU_object@@PAU1@0@Z
_TEXT	SEGMENT
_iSlotIndex$ = -8					; size = 4
_pWin$ = -4						; size = 4
_poSelf$ = 8						; size = 4
_poArgs$ = 12						; size = 4
?wndMgrShowSlotBaseImage@@YAPAU_object@@PAU1@0@Z PROC	; wndMgrShowSlotBaseImage, COMDAT

; 2177 : {

  00000	55		 push	 ebp
  00001	8b ec		 mov	 ebp, esp
  00003	83 ec 08	 sub	 esp, 8

; 2178 : 	UI::CWindow * pWin;
; 2179 : 	if (!PyTuple_GetWindow(poArgs, 0, &pWin))

  00006	8d 45 fc	 lea	 eax, DWORD PTR _pWin$[ebp]
  00009	56		 push	 esi
  0000a	8b 75 0c	 mov	 esi, DWORD PTR _poArgs$[ebp]
  0000d	50		 push	 eax
  0000e	6a 00		 push	 0
  00010	56		 push	 esi
  00011	e8 00 00 00 00	 call	 ?PyTuple_GetWindow@@YA_NPAU_object@@HPAPAVCWindow@UI@@@Z ; PyTuple_GetWindow
  00016	83 c4 0c	 add	 esp, 12			; 0000000cH
  00019	84 c0		 test	 al, al
  0001b	75 0f		 jne	 SHORT $LN2@wndMgrShow
$LN6@wndMgrShow:

; 2198 : }

  0001d	6a 00		 push	 0
  0001f	e8 00 00 00 00	 call	 ?Py_BuildException@@YAPAU_object@@PBDZZ ; Py_BuildException
  00024	83 c4 04	 add	 esp, 4
  00027	5e		 pop	 esi
  00028	8b e5		 mov	 esp, ebp
  0002a	5d		 pop	 ebp
  0002b	c3		 ret	 0
$LN2@wndMgrShow:

; 2180 : 	{
; 2181 : 		return Py_BuildException();
; 2182 : 	}
; 2183 : 
; 2184 : 	int iSlotIndex;
; 2185 : 	if (!PyTuple_GetInteger(poArgs, 1, &iSlotIndex))

  0002c	8d 45 f8	 lea	 eax, DWORD PTR _iSlotIndex$[ebp]
  0002f	50		 push	 eax
  00030	6a 01		 push	 1
  00032	56		 push	 esi
  00033	e8 00 00 00 00	 call	 ?PyTuple_GetInteger@@YA_NPAU_object@@HPAH@Z ; PyTuple_GetInteger
  00038	83 c4 0c	 add	 esp, 12			; 0000000cH
  0003b	84 c0		 test	 al, al
  0003d	74 de		 je	 SHORT $LN6@wndMgrShow

; 2186 : 	{
; 2187 : 		return Py_BuildException();
; 2188 : 	}
; 2189 : 
; 2190 : 	if (!pWin->IsType(UI::CSlotWindow::Type()))

  0003f	e8 00 00 00 00	 call	 ?Type@CSlotWindow@UI@@SAKXZ ; UI::CSlotWindow::Type
  00044	8b 75 fc	 mov	 esi, DWORD PTR _pWin$[ebp]
  00047	8b ce		 mov	 ecx, esi
  00049	50		 push	 eax
  0004a	e8 00 00 00 00	 call	 ?IsType@CWindow@UI@@QAEHK@Z ; UI::CWindow::IsType
  0004f	85 c0		 test	 eax, eax
  00051	74 ca		 je	 SHORT $LN6@wndMgrShow

; 2191 : 	{
; 2192 : 		return Py_BuildException();
; 2193 : 	}
; 2194 : 
; 2195 : 	UI::CSlotWindow * pSlotWin = (UI::CSlotWindow *)pWin;
; 2196 : 	pSlotWin->ShowSlotBaseImage(iSlotIndex);

  00053	ff 75 f8	 push	 DWORD PTR _iSlotIndex$[ebp]
  00056	8b ce		 mov	 ecx, esi
  00058	e8 00 00 00 00	 call	 ?ShowSlotBaseImage@CSlotWindow@UI@@QAEXK@Z ; UI::CSlotWindow::ShowSlotBaseImage

; 2197 : 	return Py_BuildNone();

  0005d	e8 00 00 00 00	 call	 ?Py_BuildNone@@YAPAU_object@@XZ ; Py_BuildNone
  00062	5e		 pop	 esi

; 2198 : }

  00063	8b e5		 mov	 esp, ebp
  00065	5d		 pop	 ebp
  00066	c3		 ret	 0
?wndMgrShowSlotBaseImage@@YAPAU_object@@PAU1@0@Z ENDP	; wndMgrShowSlotBaseImage
_TEXT	ENDS
; Function compile flags: /Ogtp
; File C:\Users\flourine\Desktop\Xantios\client-src\Code\eterPythonLib\PythonWindowManagerModule.cpp
;	COMDAT ?wndMgrSetUsableSlot@@YAPAU_object@@PAU1@0@Z
_TEXT	SEGMENT
_iSlotIndex$ = -8					; size = 4
_pWin$ = -4						; size = 4
_poSelf$ = 8						; size = 4
_poArgs$ = 12						; size = 4
?wndMgrSetUsableSlot@@YAPAU_object@@PAU1@0@Z PROC	; wndMgrSetUsableSlot, COMDAT

; 2152 : {

  00000	55		 push	 ebp
  00001	8b ec		 mov	 ebp, esp
  00003	83 ec 08	 sub	 esp, 8

; 2153 : 	UI::CWindow* pWin;
; 2154 : 	if (!PyTuple_GetWindow(poArgs, 0, &pWin))

  00006	8d 45 fc	 lea	 eax, DWORD PTR _pWin$[ebp]
  00009	56		 push	 esi
  0000a	8b 75 0c	 mov	 esi, DWORD PTR _poArgs$[ebp]
  0000d	50		 push	 eax
  0000e	6a 00		 push	 0
  00010	56		 push	 esi
  00011	e8 00 00 00 00	 call	 ?PyTuple_GetWindow@@YA_NPAU_object@@HPAPAVCWindow@UI@@@Z ; PyTuple_GetWindow
  00016	83 c4 0c	 add	 esp, 12			; 0000000cH
  00019	84 c0		 test	 al, al
  0001b	75 0f		 jne	 SHORT $LN2@wndMgrSetU
$LN6@wndMgrSetU:

; 2173 : }

  0001d	6a 00		 push	 0
  0001f	e8 00 00 00 00	 call	 ?Py_BuildException@@YAPAU_object@@PBDZZ ; Py_BuildException
  00024	83 c4 04	 add	 esp, 4
  00027	5e		 pop	 esi
  00028	8b e5		 mov	 esp, ebp
  0002a	5d		 pop	 ebp
  0002b	c3		 ret	 0
$LN2@wndMgrSetU:

; 2155 : 	{
; 2156 : 		return Py_BuildException();
; 2157 : 	}
; 2158 : 
; 2159 : 	int iSlotIndex;
; 2160 : 	if (!PyTuple_GetInteger(poArgs, 1, &iSlotIndex))

  0002c	8d 45 f8	 lea	 eax, DWORD PTR _iSlotIndex$[ebp]
  0002f	50		 push	 eax
  00030	6a 01		 push	 1
  00032	56		 push	 esi
  00033	e8 00 00 00 00	 call	 ?PyTuple_GetInteger@@YA_NPAU_object@@HPAH@Z ; PyTuple_GetInteger
  00038	83 c4 0c	 add	 esp, 12			; 0000000cH
  0003b	84 c0		 test	 al, al
  0003d	74 de		 je	 SHORT $LN6@wndMgrSetU

; 2161 : 	{
; 2162 : 		return Py_BuildException();
; 2163 : 	}
; 2164 : 
; 2165 : 	if (!pWin->IsType(UI::CSlotWindow::Type()))

  0003f	e8 00 00 00 00	 call	 ?Type@CSlotWindow@UI@@SAKXZ ; UI::CSlotWindow::Type
  00044	8b 75 fc	 mov	 esi, DWORD PTR _pWin$[ebp]
  00047	8b ce		 mov	 ecx, esi
  00049	50		 push	 eax
  0004a	e8 00 00 00 00	 call	 ?IsType@CWindow@UI@@QAEHK@Z ; UI::CWindow::IsType
  0004f	85 c0		 test	 eax, eax
  00051	74 ca		 je	 SHORT $LN6@wndMgrSetU

; 2166 : 	{
; 2167 : 		return Py_BuildException();
; 2168 : 	}
; 2169 : 
; 2170 : 	UI::CSlotWindow* pSlotWin = (UI::CSlotWindow*)pWin;
; 2171 : 	pSlotWin->SetUsableSlot(iSlotIndex);

  00053	ff 75 f8	 push	 DWORD PTR _iSlotIndex$[ebp]
  00056	8b ce		 mov	 ecx, esi
  00058	e8 00 00 00 00	 call	 ?SetUsableSlot@CSlotWindow@UI@@QAEXK@Z ; UI::CSlotWindow::SetUsableSlot

; 2172 : 	return Py_BuildNone();

  0005d	e8 00 00 00 00	 call	 ?Py_BuildNone@@YAPAU_object@@XZ ; Py_BuildNone
  00062	5e		 pop	 esi

; 2173 : }

  00063	8b e5		 mov	 esp, ebp
  00065	5d		 pop	 ebp
  00066	c3		 ret	 0
?wndMgrSetUsableSlot@@YAPAU_object@@PAU1@0@Z ENDP	; wndMgrSetUsableSlot
_TEXT	ENDS
; Function compile flags: /Ogtp
; File C:\Users\flourine\Desktop\Xantios\client-src\Code\eterPythonLib\PythonWindowManagerModule.cpp
;	COMDAT ?wndMgrSetUnusableSlot@@YAPAU_object@@PAU1@0@Z
_TEXT	SEGMENT
_iSlotIndex$ = -8					; size = 4
_pWin$ = -4						; size = 4
_poSelf$ = 8						; size = 4
_poArgs$ = 12						; size = 4
?wndMgrSetUnusableSlot@@YAPAU_object@@PAU1@0@Z PROC	; wndMgrSetUnusableSlot, COMDAT

; 2128 : {

  00000	55		 push	 ebp
  00001	8b ec		 mov	 ebp, esp
  00003	83 ec 08	 sub	 esp, 8

; 2129 : 	UI::CWindow* pWin;
; 2130 : 	if (!PyTuple_GetWindow(poArgs, 0, &pWin))

  00006	8d 45 fc	 lea	 eax, DWORD PTR _pWin$[ebp]
  00009	56		 push	 esi
  0000a	8b 75 0c	 mov	 esi, DWORD PTR _poArgs$[ebp]
  0000d	50		 push	 eax
  0000e	6a 00		 push	 0
  00010	56		 push	 esi
  00011	e8 00 00 00 00	 call	 ?PyTuple_GetWindow@@YA_NPAU_object@@HPAPAVCWindow@UI@@@Z ; PyTuple_GetWindow
  00016	83 c4 0c	 add	 esp, 12			; 0000000cH
  00019	84 c0		 test	 al, al
  0001b	75 0f		 jne	 SHORT $LN2@wndMgrSetU
$LN6@wndMgrSetU:

; 2149 : }

  0001d	6a 00		 push	 0
  0001f	e8 00 00 00 00	 call	 ?Py_BuildException@@YAPAU_object@@PBDZZ ; Py_BuildException
  00024	83 c4 04	 add	 esp, 4
  00027	5e		 pop	 esi
  00028	8b e5		 mov	 esp, ebp
  0002a	5d		 pop	 ebp
  0002b	c3		 ret	 0
$LN2@wndMgrSetU:

; 2131 : 	{
; 2132 : 		return Py_BuildException();
; 2133 : 	}
; 2134 : 
; 2135 : 	int iSlotIndex;
; 2136 : 	if (!PyTuple_GetInteger(poArgs, 1, &iSlotIndex))

  0002c	8d 45 f8	 lea	 eax, DWORD PTR _iSlotIndex$[ebp]
  0002f	50		 push	 eax
  00030	6a 01		 push	 1
  00032	56		 push	 esi
  00033	e8 00 00 00 00	 call	 ?PyTuple_GetInteger@@YA_NPAU_object@@HPAH@Z ; PyTuple_GetInteger
  00038	83 c4 0c	 add	 esp, 12			; 0000000cH
  0003b	84 c0		 test	 al, al
  0003d	74 de		 je	 SHORT $LN6@wndMgrSetU

; 2137 : 	{
; 2138 : 		return Py_BuildException();
; 2139 : 	}
; 2140 : 
; 2141 : 	if (!pWin->IsType(UI::CSlotWindow::Type()))

  0003f	e8 00 00 00 00	 call	 ?Type@CSlotWindow@UI@@SAKXZ ; UI::CSlotWindow::Type
  00044	8b 75 fc	 mov	 esi, DWORD PTR _pWin$[ebp]
  00047	8b ce		 mov	 ecx, esi
  00049	50		 push	 eax
  0004a	e8 00 00 00 00	 call	 ?IsType@CWindow@UI@@QAEHK@Z ; UI::CWindow::IsType
  0004f	85 c0		 test	 eax, eax
  00051	74 ca		 je	 SHORT $LN6@wndMgrSetU

; 2142 : 	{
; 2143 : 		return Py_BuildException();
; 2144 : 	}
; 2145 : 
; 2146 : 	UI::CSlotWindow* pSlotWin = (UI::CSlotWindow*)pWin;
; 2147 : 	pSlotWin->SetUnusableSlot(iSlotIndex);

  00053	ff 75 f8	 push	 DWORD PTR _iSlotIndex$[ebp]
  00056	8b ce		 mov	 ecx, esi
  00058	e8 00 00 00 00	 call	 ?SetUnusableSlot@CSlotWindow@UI@@QAEXK@Z ; UI::CSlotWindow::SetUnusableSlot

; 2148 : 	return Py_BuildNone();

  0005d	e8 00 00 00 00	 call	 ?Py_BuildNone@@YAPAU_object@@XZ ; Py_BuildNone
  00062	5e		 pop	 esi

; 2149 : }

  00063	8b e5		 mov	 esp, ebp
  00065	5d		 pop	 ebp
  00066	c3		 ret	 0
?wndMgrSetUnusableSlot@@YAPAU_object@@PAU1@0@Z ENDP	; wndMgrSetUnusableSlot
_TEXT	ENDS
; Function compile flags: /Ogtp
; File C:\Users\flourine\Desktop\Xantios\client-src\Code\eterPythonLib\PythonWindowManagerModule.cpp
;	COMDAT ?wndMgrDisableSlot@@YAPAU_object@@PAU1@0@Z
_TEXT	SEGMENT
_iSlotIndex$ = -8					; size = 4
_pWin$ = -4						; size = 4
_poSelf$ = 8						; size = 4
_poArgs$ = 12						; size = 4
?wndMgrDisableSlot@@YAPAU_object@@PAU1@0@Z PROC		; wndMgrDisableSlot, COMDAT

; 2103 : {

  00000	55		 push	 ebp
  00001	8b ec		 mov	 ebp, esp
  00003	83 ec 08	 sub	 esp, 8

; 2104 : 	UI::CWindow * pWin;
; 2105 : 	if (!PyTuple_GetWindow(poArgs, 0, &pWin))

  00006	8d 45 fc	 lea	 eax, DWORD PTR _pWin$[ebp]
  00009	56		 push	 esi
  0000a	8b 75 0c	 mov	 esi, DWORD PTR _poArgs$[ebp]
  0000d	50		 push	 eax
  0000e	6a 00		 push	 0
  00010	56		 push	 esi
  00011	e8 00 00 00 00	 call	 ?PyTuple_GetWindow@@YA_NPAU_object@@HPAPAVCWindow@UI@@@Z ; PyTuple_GetWindow
  00016	83 c4 0c	 add	 esp, 12			; 0000000cH
  00019	84 c0		 test	 al, al
  0001b	75 0f		 jne	 SHORT $LN2@wndMgrDisa
$LN6@wndMgrDisa:

; 2124 : }

  0001d	6a 00		 push	 0
  0001f	e8 00 00 00 00	 call	 ?Py_BuildException@@YAPAU_object@@PBDZZ ; Py_BuildException
  00024	83 c4 04	 add	 esp, 4
  00027	5e		 pop	 esi
  00028	8b e5		 mov	 esp, ebp
  0002a	5d		 pop	 ebp
  0002b	c3		 ret	 0
$LN2@wndMgrDisa:

; 2106 : 	{
; 2107 : 		return Py_BuildException();
; 2108 : 	}
; 2109 : 
; 2110 : 	int iSlotIndex;
; 2111 : 	if (!PyTuple_GetInteger(poArgs, 1, &iSlotIndex))

  0002c	8d 45 f8	 lea	 eax, DWORD PTR _iSlotIndex$[ebp]
  0002f	50		 push	 eax
  00030	6a 01		 push	 1
  00032	56		 push	 esi
  00033	e8 00 00 00 00	 call	 ?PyTuple_GetInteger@@YA_NPAU_object@@HPAH@Z ; PyTuple_GetInteger
  00038	83 c4 0c	 add	 esp, 12			; 0000000cH
  0003b	84 c0		 test	 al, al
  0003d	74 de		 je	 SHORT $LN6@wndMgrDisa

; 2112 : 	{
; 2113 : 		return Py_BuildException();
; 2114 : 	}
; 2115 : 
; 2116 : 	if (!pWin->IsType(UI::CSlotWindow::Type()))

  0003f	e8 00 00 00 00	 call	 ?Type@CSlotWindow@UI@@SAKXZ ; UI::CSlotWindow::Type
  00044	8b 75 fc	 mov	 esi, DWORD PTR _pWin$[ebp]
  00047	8b ce		 mov	 ecx, esi
  00049	50		 push	 eax
  0004a	e8 00 00 00 00	 call	 ?IsType@CWindow@UI@@QAEHK@Z ; UI::CWindow::IsType
  0004f	85 c0		 test	 eax, eax
  00051	74 ca		 je	 SHORT $LN6@wndMgrDisa

; 2117 : 	{
; 2118 : 		return Py_BuildException();
; 2119 : 	}
; 2120 : 
; 2121 : 	UI::CSlotWindow * pSlotWin = (UI::CSlotWindow *)pWin;
; 2122 : 	pSlotWin->DisableSlot(iSlotIndex);

  00053	ff 75 f8	 push	 DWORD PTR _iSlotIndex$[ebp]
  00056	8b ce		 mov	 ecx, esi
  00058	e8 00 00 00 00	 call	 ?DisableSlot@CSlotWindow@UI@@QAEXK@Z ; UI::CSlotWindow::DisableSlot

; 2123 : 	return Py_BuildNone();

  0005d	e8 00 00 00 00	 call	 ?Py_BuildNone@@YAPAU_object@@XZ ; Py_BuildNone
  00062	5e		 pop	 esi

; 2124 : }

  00063	8b e5		 mov	 esp, ebp
  00065	5d		 pop	 ebp
  00066	c3		 ret	 0
?wndMgrDisableSlot@@YAPAU_object@@PAU1@0@Z ENDP		; wndMgrDisableSlot
_TEXT	ENDS
; Function compile flags: /Ogtp
; File C:\Users\flourine\Desktop\Xantios\client-src\Code\eterPythonLib\PythonWindowManagerModule.cpp
;	COMDAT ?wndMgrEnableSlot@@YAPAU_object@@PAU1@0@Z
_TEXT	SEGMENT
_iSlotIndex$ = -8					; size = 4
_pWin$ = -4						; size = 4
_poSelf$ = 8						; size = 4
_poArgs$ = 12						; size = 4
?wndMgrEnableSlot@@YAPAU_object@@PAU1@0@Z PROC		; wndMgrEnableSlot, COMDAT

; 2079 : {

  00000	55		 push	 ebp
  00001	8b ec		 mov	 ebp, esp
  00003	83 ec 08	 sub	 esp, 8

; 2080 : 	UI::CWindow * pWin;
; 2081 : 	if (!PyTuple_GetWindow(poArgs, 0, &pWin))

  00006	8d 45 fc	 lea	 eax, DWORD PTR _pWin$[ebp]
  00009	56		 push	 esi
  0000a	8b 75 0c	 mov	 esi, DWORD PTR _poArgs$[ebp]
  0000d	50		 push	 eax
  0000e	6a 00		 push	 0
  00010	56		 push	 esi
  00011	e8 00 00 00 00	 call	 ?PyTuple_GetWindow@@YA_NPAU_object@@HPAPAVCWindow@UI@@@Z ; PyTuple_GetWindow
  00016	83 c4 0c	 add	 esp, 12			; 0000000cH
  00019	84 c0		 test	 al, al
  0001b	75 0f		 jne	 SHORT $LN2@wndMgrEnab
$LN6@wndMgrEnab:

; 2100 : }

  0001d	6a 00		 push	 0
  0001f	e8 00 00 00 00	 call	 ?Py_BuildException@@YAPAU_object@@PBDZZ ; Py_BuildException
  00024	83 c4 04	 add	 esp, 4
  00027	5e		 pop	 esi
  00028	8b e5		 mov	 esp, ebp
  0002a	5d		 pop	 ebp
  0002b	c3		 ret	 0
$LN2@wndMgrEnab:

; 2082 : 	{
; 2083 : 		return Py_BuildException();
; 2084 : 	}
; 2085 : 
; 2086 : 	int iSlotIndex;
; 2087 : 	if (!PyTuple_GetInteger(poArgs, 1, &iSlotIndex))

  0002c	8d 45 f8	 lea	 eax, DWORD PTR _iSlotIndex$[ebp]
  0002f	50		 push	 eax
  00030	6a 01		 push	 1
  00032	56		 push	 esi
  00033	e8 00 00 00 00	 call	 ?PyTuple_GetInteger@@YA_NPAU_object@@HPAH@Z ; PyTuple_GetInteger
  00038	83 c4 0c	 add	 esp, 12			; 0000000cH
  0003b	84 c0		 test	 al, al
  0003d	74 de		 je	 SHORT $LN6@wndMgrEnab

; 2088 : 	{
; 2089 : 		return Py_BuildException();
; 2090 : 	}
; 2091 : 
; 2092 : 	if (!pWin->IsType(UI::CSlotWindow::Type()))

  0003f	e8 00 00 00 00	 call	 ?Type@CSlotWindow@UI@@SAKXZ ; UI::CSlotWindow::Type
  00044	8b 75 fc	 mov	 esi, DWORD PTR _pWin$[ebp]
  00047	8b ce		 mov	 ecx, esi
  00049	50		 push	 eax
  0004a	e8 00 00 00 00	 call	 ?IsType@CWindow@UI@@QAEHK@Z ; UI::CWindow::IsType
  0004f	85 c0		 test	 eax, eax
  00051	74 ca		 je	 SHORT $LN6@wndMgrEnab

; 2093 : 	{
; 2094 : 		return Py_BuildException();
; 2095 : 	}
; 2096 : 
; 2097 : 	UI::CSlotWindow * pSlotWin = (UI::CSlotWindow *)pWin;
; 2098 : 	pSlotWin->EnableSlot(iSlotIndex);

  00053	ff 75 f8	 push	 DWORD PTR _iSlotIndex$[ebp]
  00056	8b ce		 mov	 ecx, esi
  00058	e8 00 00 00 00	 call	 ?EnableSlot@CSlotWindow@UI@@QAEXK@Z ; UI::CSlotWindow::EnableSlot

; 2099 : 	return Py_BuildNone();

  0005d	e8 00 00 00 00	 call	 ?Py_BuildNone@@YAPAU_object@@XZ ; Py_BuildNone
  00062	5e		 pop	 esi

; 2100 : }

  00063	8b e5		 mov	 esp, ebp
  00065	5d		 pop	 ebp
  00066	c3		 ret	 0
?wndMgrEnableSlot@@YAPAU_object@@PAU1@0@Z ENDP		; wndMgrEnableSlot
_TEXT	ENDS
; Function compile flags: /Ogtp
; File C:\Users\flourine\Desktop\Xantios\client-src\Code\eterPythonLib\PythonWindowManagerModule.cpp
;	COMDAT ?wndMgrNewDeactivateSlot@@YAPAU_object@@PAU1@0@Z
_TEXT	SEGMENT
_iSlotIndex$ = -8					; size = 4
_pWin$ = -4						; size = 4
_poSelf$ = 8						; size = 4
_poArgs$ = 12						; size = 4
?wndMgrNewDeactivateSlot@@YAPAU_object@@PAU1@0@Z PROC	; wndMgrNewDeactivateSlot, COMDAT

; 2055 : {

  00000	55		 push	 ebp
  00001	8b ec		 mov	 ebp, esp
  00003	83 ec 08	 sub	 esp, 8

; 2056 : 	UI::CWindow* pWin;
; 2057 : 	if (!PyTuple_GetWindow(poArgs, 0, &pWin))

  00006	8d 45 fc	 lea	 eax, DWORD PTR _pWin$[ebp]
  00009	56		 push	 esi
  0000a	8b 75 0c	 mov	 esi, DWORD PTR _poArgs$[ebp]
  0000d	50		 push	 eax
  0000e	6a 00		 push	 0
  00010	56		 push	 esi
  00011	e8 00 00 00 00	 call	 ?PyTuple_GetWindow@@YA_NPAU_object@@HPAPAVCWindow@UI@@@Z ; PyTuple_GetWindow
  00016	83 c4 0c	 add	 esp, 12			; 0000000cH
  00019	84 c0		 test	 al, al
  0001b	75 0f		 jne	 SHORT $LN2@wndMgrNewD
$LN6@wndMgrNewD:

; 2076 : }

  0001d	6a 00		 push	 0
  0001f	e8 00 00 00 00	 call	 ?Py_BuildException@@YAPAU_object@@PBDZZ ; Py_BuildException
  00024	83 c4 04	 add	 esp, 4
  00027	5e		 pop	 esi
  00028	8b e5		 mov	 esp, ebp
  0002a	5d		 pop	 ebp
  0002b	c3		 ret	 0
$LN2@wndMgrNewD:

; 2058 : 	{
; 2059 : 		return Py_BuildException();
; 2060 : 	}
; 2061 : 
; 2062 : 	int iSlotIndex;
; 2063 : 	if (!PyTuple_GetInteger(poArgs, 1, &iSlotIndex))

  0002c	8d 45 f8	 lea	 eax, DWORD PTR _iSlotIndex$[ebp]
  0002f	50		 push	 eax
  00030	6a 01		 push	 1
  00032	56		 push	 esi
  00033	e8 00 00 00 00	 call	 ?PyTuple_GetInteger@@YA_NPAU_object@@HPAH@Z ; PyTuple_GetInteger
  00038	83 c4 0c	 add	 esp, 12			; 0000000cH
  0003b	84 c0		 test	 al, al
  0003d	74 de		 je	 SHORT $LN6@wndMgrNewD

; 2064 : 	{
; 2065 : 		return Py_BuildException();
; 2066 : 	}
; 2067 : 
; 2068 : 	if (!pWin->IsType(UI::CSlotWindow::Type()))

  0003f	e8 00 00 00 00	 call	 ?Type@CSlotWindow@UI@@SAKXZ ; UI::CSlotWindow::Type
  00044	8b 75 fc	 mov	 esi, DWORD PTR _pWin$[ebp]
  00047	8b ce		 mov	 ecx, esi
  00049	50		 push	 eax
  0004a	e8 00 00 00 00	 call	 ?IsType@CWindow@UI@@QAEHK@Z ; UI::CWindow::IsType
  0004f	85 c0		 test	 eax, eax
  00051	74 ca		 je	 SHORT $LN6@wndMgrNewD

; 2069 : 	{
; 2070 : 		return Py_BuildException();
; 2071 : 	}
; 2072 : 
; 2073 : 	UI::CSlotWindow* pSlotWin = (UI::CSlotWindow*)pWin;
; 2074 : 	pSlotWin->NewDeactivateSlot(iSlotIndex);

  00053	ff 75 f8	 push	 DWORD PTR _iSlotIndex$[ebp]
  00056	8b ce		 mov	 ecx, esi
  00058	e8 00 00 00 00	 call	 ?NewDeactivateSlot@CSlotWindow@UI@@QAEXK@Z ; UI::CSlotWindow::NewDeactivateSlot

; 2075 : 	return Py_BuildNone();

  0005d	e8 00 00 00 00	 call	 ?Py_BuildNone@@YAPAU_object@@XZ ; Py_BuildNone
  00062	5e		 pop	 esi

; 2076 : }

  00063	8b e5		 mov	 esp, ebp
  00065	5d		 pop	 ebp
  00066	c3		 ret	 0
?wndMgrNewDeactivateSlot@@YAPAU_object@@PAU1@0@Z ENDP	; wndMgrNewDeactivateSlot
_TEXT	ENDS
; Function compile flags: /Ogtp
; File C:\Users\flourine\Desktop\Xantios\client-src\Code\eterPythonLib\PythonWindowManagerModule.cpp
;	COMDAT ?wndMgrNewActivateSlot@@YAPAU_object@@PAU1@0@Z
_TEXT	SEGMENT
_iSlotIndex$ = -8					; size = 4
_pWin$ = -4						; size = 4
_poSelf$ = 8						; size = 4
_poArgs$ = 12						; size = 4
?wndMgrNewActivateSlot@@YAPAU_object@@PAU1@0@Z PROC	; wndMgrNewActivateSlot, COMDAT

; 2031 : {

  00000	55		 push	 ebp
  00001	8b ec		 mov	 ebp, esp
  00003	83 ec 08	 sub	 esp, 8

; 2032 : 	UI::CWindow* pWin;
; 2033 : 	if (!PyTuple_GetWindow(poArgs, 0, &pWin))

  00006	8d 45 fc	 lea	 eax, DWORD PTR _pWin$[ebp]
  00009	56		 push	 esi
  0000a	8b 75 0c	 mov	 esi, DWORD PTR _poArgs$[ebp]
  0000d	50		 push	 eax
  0000e	6a 00		 push	 0
  00010	56		 push	 esi
  00011	e8 00 00 00 00	 call	 ?PyTuple_GetWindow@@YA_NPAU_object@@HPAPAVCWindow@UI@@@Z ; PyTuple_GetWindow
  00016	83 c4 0c	 add	 esp, 12			; 0000000cH
  00019	84 c0		 test	 al, al
  0001b	75 0f		 jne	 SHORT $LN2@wndMgrNewA
$LN6@wndMgrNewA:

; 2052 : }

  0001d	6a 00		 push	 0
  0001f	e8 00 00 00 00	 call	 ?Py_BuildException@@YAPAU_object@@PBDZZ ; Py_BuildException
  00024	83 c4 04	 add	 esp, 4
  00027	5e		 pop	 esi
  00028	8b e5		 mov	 esp, ebp
  0002a	5d		 pop	 ebp
  0002b	c3		 ret	 0
$LN2@wndMgrNewA:

; 2034 : 	{
; 2035 : 		return Py_BuildException();
; 2036 : 	}
; 2037 : 
; 2038 : 	int iSlotIndex;
; 2039 : 	if (!PyTuple_GetInteger(poArgs, 1, &iSlotIndex))

  0002c	8d 45 f8	 lea	 eax, DWORD PTR _iSlotIndex$[ebp]
  0002f	50		 push	 eax
  00030	6a 01		 push	 1
  00032	56		 push	 esi
  00033	e8 00 00 00 00	 call	 ?PyTuple_GetInteger@@YA_NPAU_object@@HPAH@Z ; PyTuple_GetInteger
  00038	83 c4 0c	 add	 esp, 12			; 0000000cH
  0003b	84 c0		 test	 al, al
  0003d	74 de		 je	 SHORT $LN6@wndMgrNewA

; 2040 : 	{
; 2041 : 		return Py_BuildException();
; 2042 : 	}
; 2043 : 
; 2044 : 	if (!pWin->IsType(UI::CSlotWindow::Type()))

  0003f	e8 00 00 00 00	 call	 ?Type@CSlotWindow@UI@@SAKXZ ; UI::CSlotWindow::Type
  00044	8b 75 fc	 mov	 esi, DWORD PTR _pWin$[ebp]
  00047	8b ce		 mov	 ecx, esi
  00049	50		 push	 eax
  0004a	e8 00 00 00 00	 call	 ?IsType@CWindow@UI@@QAEHK@Z ; UI::CWindow::IsType
  0004f	85 c0		 test	 eax, eax
  00051	74 ca		 je	 SHORT $LN6@wndMgrNewA

; 2045 : 	{
; 2046 : 		return Py_BuildException();
; 2047 : 	}
; 2048 : 
; 2049 : 	UI::CSlotWindow* pSlotWin = (UI::CSlotWindow*)pWin;
; 2050 : 	pSlotWin->NewActivateSlot(iSlotIndex);

  00053	ff 75 f8	 push	 DWORD PTR _iSlotIndex$[ebp]
  00056	8b ce		 mov	 ecx, esi
  00058	e8 00 00 00 00	 call	 ?NewActivateSlot@CSlotWindow@UI@@QAEXK@Z ; UI::CSlotWindow::NewActivateSlot

; 2051 : 	return Py_BuildNone();

  0005d	e8 00 00 00 00	 call	 ?Py_BuildNone@@YAPAU_object@@XZ ; Py_BuildNone
  00062	5e		 pop	 esi

; 2052 : }

  00063	8b e5		 mov	 esp, ebp
  00065	5d		 pop	 ebp
  00066	c3		 ret	 0
?wndMgrNewActivateSlot@@YAPAU_object@@PAU1@0@Z ENDP	; wndMgrNewActivateSlot
_TEXT	ENDS
; Function compile flags: /Ogtp
; File C:\Users\flourine\Desktop\Xantios\client-src\Code\eterPythonLib\PythonWindowManagerModule.cpp
;	COMDAT ?wndMgrDeactivateSlot@@YAPAU_object@@PAU1@0@Z
_TEXT	SEGMENT
_iSlotIndex$ = -8					; size = 4
_pWin$ = -4						; size = 4
_poSelf$ = 8						; size = 4
_poArgs$ = 12						; size = 4
?wndMgrDeactivateSlot@@YAPAU_object@@PAU1@0@Z PROC	; wndMgrDeactivateSlot, COMDAT

; 2007 : {

  00000	55		 push	 ebp
  00001	8b ec		 mov	 ebp, esp
  00003	83 ec 08	 sub	 esp, 8

; 2008 : 	UI::CWindow * pWin;
; 2009 : 	if (!PyTuple_GetWindow(poArgs, 0, &pWin))

  00006	8d 45 fc	 lea	 eax, DWORD PTR _pWin$[ebp]
  00009	56		 push	 esi
  0000a	8b 75 0c	 mov	 esi, DWORD PTR _poArgs$[ebp]
  0000d	50		 push	 eax
  0000e	6a 00		 push	 0
  00010	56		 push	 esi
  00011	e8 00 00 00 00	 call	 ?PyTuple_GetWindow@@YA_NPAU_object@@HPAPAVCWindow@UI@@@Z ; PyTuple_GetWindow
  00016	83 c4 0c	 add	 esp, 12			; 0000000cH
  00019	84 c0		 test	 al, al
  0001b	75 0f		 jne	 SHORT $LN2@wndMgrDeac
$LN6@wndMgrDeac:

; 2028 : }

  0001d	6a 00		 push	 0
  0001f	e8 00 00 00 00	 call	 ?Py_BuildException@@YAPAU_object@@PBDZZ ; Py_BuildException
  00024	83 c4 04	 add	 esp, 4
  00027	5e		 pop	 esi
  00028	8b e5		 mov	 esp, ebp
  0002a	5d		 pop	 ebp
  0002b	c3		 ret	 0
$LN2@wndMgrDeac:

; 2010 : 	{
; 2011 : 		return Py_BuildException();
; 2012 : 	}
; 2013 : 
; 2014 : 	int iSlotIndex;
; 2015 : 	if (!PyTuple_GetInteger(poArgs, 1, &iSlotIndex))

  0002c	8d 45 f8	 lea	 eax, DWORD PTR _iSlotIndex$[ebp]
  0002f	50		 push	 eax
  00030	6a 01		 push	 1
  00032	56		 push	 esi
  00033	e8 00 00 00 00	 call	 ?PyTuple_GetInteger@@YA_NPAU_object@@HPAH@Z ; PyTuple_GetInteger
  00038	83 c4 0c	 add	 esp, 12			; 0000000cH
  0003b	84 c0		 test	 al, al
  0003d	74 de		 je	 SHORT $LN6@wndMgrDeac

; 2016 : 	{
; 2017 : 		return Py_BuildException();
; 2018 : 	}
; 2019 : 
; 2020 : 	if (!pWin->IsType(UI::CSlotWindow::Type()))

  0003f	e8 00 00 00 00	 call	 ?Type@CSlotWindow@UI@@SAKXZ ; UI::CSlotWindow::Type
  00044	8b 75 fc	 mov	 esi, DWORD PTR _pWin$[ebp]
  00047	8b ce		 mov	 ecx, esi
  00049	50		 push	 eax
  0004a	e8 00 00 00 00	 call	 ?IsType@CWindow@UI@@QAEHK@Z ; UI::CWindow::IsType
  0004f	85 c0		 test	 eax, eax
  00051	74 ca		 je	 SHORT $LN6@wndMgrDeac

; 2021 : 	{
; 2022 : 		return Py_BuildException();
; 2023 : 	}
; 2024 : 
; 2025 : 	UI::CSlotWindow * pSlotWin = (UI::CSlotWindow *)pWin;
; 2026 : 	pSlotWin->DeactivateSlot(iSlotIndex);

  00053	ff 75 f8	 push	 DWORD PTR _iSlotIndex$[ebp]
  00056	8b ce		 mov	 ecx, esi
  00058	e8 00 00 00 00	 call	 ?DeactivateSlot@CSlotWindow@UI@@QAEXK@Z ; UI::CSlotWindow::DeactivateSlot

; 2027 : 	return Py_BuildNone();

  0005d	e8 00 00 00 00	 call	 ?Py_BuildNone@@YAPAU_object@@XZ ; Py_BuildNone
  00062	5e		 pop	 esi

; 2028 : }

  00063	8b e5		 mov	 esp, ebp
  00065	5d		 pop	 ebp
  00066	c3		 ret	 0
?wndMgrDeactivateSlot@@YAPAU_object@@PAU1@0@Z ENDP	; wndMgrDeactivateSlot
_TEXT	ENDS
; Function compile flags: /Ogtp
; File C:\Program Files\Microsoft Visual Studio\2022\Community\VC\Tools\MSVC\14.34.31933\include\vector
; File C:\Program Files\Microsoft Visual Studio\2022\Community\VC\Tools\MSVC\14.34.31933\include\xmemory
; File C:\Program Files\Microsoft Visual Studio\2022\Community\VC\Tools\MSVC\14.34.31933\include\vector
; File C:\Program Files\Microsoft Visual Studio\2022\Community\VC\Tools\MSVC\14.34.31933\include\xmemory
; File C:\Program Files\Microsoft Visual Studio\2022\Community\VC\Tools\MSVC\14.34.31933\include\vector
; File C:\Program Files\Microsoft Visual Studio\2022\Community\VC\Tools\MSVC\14.34.31933\include\xmemory
; File C:\Program Files\Microsoft Visual Studio\2022\Community\VC\Tools\MSVC\14.34.31933\include\vector
;	COMDAT ??1?$vector@MV?$allocator@M@std@@@std@@QAE@XZ
_TEXT	SEGMENT
??1?$vector@MV?$allocator@M@std@@@std@@QAE@XZ PROC	; std::vector<float,std::allocator<float> >::~vector<float,std::allocator<float> >, COMDAT
; _this$ = ecx

; 829  :     _CONSTEXPR20 ~vector() noexcept {

  00000	56		 push	 esi
  00001	8b f1		 mov	 esi, ecx

; 2107 :         if (_Myfirst) { // destroy and deallocate old array

  00003	8b 06		 mov	 eax, DWORD PTR [esi]
  00005	85 c0		 test	 eax, eax
  00007	74 40		 je	 SHORT $LN4@vector

; 2108 :             _Destroy_range(_Myfirst, _Mylast, _Al);
; 2109 :             _ASAN_VECTOR_REMOVE;
; 2110 :             _Al.deallocate(_Myfirst, static_cast<size_type>(_Myend - _Myfirst));

  00009	8b 4e 08	 mov	 ecx, DWORD PTR [esi+8]
  0000c	2b c8		 sub	 ecx, eax
; File C:\Program Files\Microsoft Visual Studio\2022\Community\VC\Tools\MSVC\14.34.31933\include\xmemory

; 830  :         _Deallocate<_New_alignof<_Ty>>(_Ptr, sizeof(_Ty) * _Count);

  0000e	83 e1 fc	 and	 ecx, -4			; fffffffcH

; 251  :         if (_Bytes >= _Big_allocation_threshold) { // boost the alignment of big allocations to help autovectorization

  00011	81 f9 00 10 00
	00		 cmp	 ecx, 4096		; 00001000H
  00017	72 12		 jb	 SHORT $LN20@vector

; 150  :     const uintptr_t _Ptr_container   = _Ptr_user[-1];

  00019	8b 50 fc	 mov	 edx, DWORD PTR [eax-4]
  0001c	83 c1 23	 add	 ecx, 35			; 00000023H

; 151  : 
; 152  :     // If the following asserts, it likely means that we are performing
; 153  :     // an aligned delete on memory coming from an unaligned allocation.
; 154  :     _STL_ASSERT(_Ptr_user[-2] == _Big_allocation_sentinel, "invalid argument");
; 155  : 
; 156  :     // Extra paranoia on aligned allocation/deallocation; ensure _Ptr_container is
; 157  :     // in range [_Min_back_shift, _Non_user_size]
; 158  : #ifdef _DEBUG
; 159  :     constexpr uintptr_t _Min_back_shift = 2 * sizeof(void*);
; 160  : #else // ^^^ _DEBUG ^^^ // vvv !_DEBUG vvv
; 161  :     constexpr uintptr_t _Min_back_shift = sizeof(void*);
; 162  : #endif // _DEBUG
; 163  :     const uintptr_t _Back_shift = reinterpret_cast<uintptr_t>(_Ptr) - _Ptr_container;

  0001f	2b c2		 sub	 eax, edx

; 164  :     _STL_VERIFY(_Back_shift >= _Min_back_shift && _Back_shift <= _Non_user_size, "invalid argument");

  00021	83 c0 fc	 add	 eax, -4			; fffffffcH
  00024	83 f8 1f	 cmp	 eax, 31			; 0000001fH
  00027	77 22		 ja	 SHORT $LN17@vector

; 165  :     _Ptr = reinterpret_cast<void*>(_Ptr_container);

  00029	8b c2		 mov	 eax, edx
$LN20@vector:

; 255  :         ::operator delete(_Ptr, _Bytes);

  0002b	51		 push	 ecx
  0002c	50		 push	 eax
  0002d	e8 00 00 00 00	 call	 ??3@YAXPAXI@Z		; operator delete
; File C:\Program Files\Microsoft Visual Studio\2022\Community\VC\Tools\MSVC\14.34.31933\include\vector

; 2112 :             _Myfirst = nullptr;

  00032	c7 06 00 00 00
	00		 mov	 DWORD PTR [esi], 0
; File C:\Program Files\Microsoft Visual Studio\2022\Community\VC\Tools\MSVC\14.34.31933\include\xmemory

; 255  :         ::operator delete(_Ptr, _Bytes);

  00038	83 c4 08	 add	 esp, 8
; File C:\Program Files\Microsoft Visual Studio\2022\Community\VC\Tools\MSVC\14.34.31933\include\vector

; 2113 :             _Mylast  = nullptr;

  0003b	c7 46 04 00 00
	00 00		 mov	 DWORD PTR [esi+4], 0

; 2114 :             _Myend   = nullptr;

  00042	c7 46 08 00 00
	00 00		 mov	 DWORD PTR [esi+8], 0
$LN4@vector:
  00049	5e		 pop	 esi

; 835  :     }

  0004a	c3		 ret	 0
$LN17@vector:
; File C:\Program Files\Microsoft Visual Studio\2022\Community\VC\Tools\MSVC\14.34.31933\include\xmemory

; 164  :     _STL_VERIFY(_Back_shift >= _Min_back_shift && _Back_shift <= _Non_user_size, "invalid argument");

  0004b	e8 00 00 00 00	 call	 __invalid_parameter_noinfo_noreturn
$LN25@vector:
  00050	cc		 int	 3
??1?$vector@MV?$allocator@M@std@@@std@@QAE@XZ ENDP	; std::vector<float,std::allocator<float> >::~vector<float,std::allocator<float> >
_TEXT	ENDS
; Function compile flags: /Ogtp
; File C:\Users\flourine\Desktop\Xantios\client-src\Code\eterPythonLib\PythonWindowManagerModule.cpp
; File C:\Program Files\Microsoft Visual Studio\2022\Community\VC\Tools\MSVC\14.34.31933\include\xmemory
; File C:\Users\flourine\Desktop\Xantios\client-src\Code\eterPythonLib\PythonWindowManagerModule.cpp
; File C:\Program Files\Microsoft Visual Studio\2022\Community\VC\Tools\MSVC\14.34.31933\include\vector
; File C:\Program Files\Microsoft Visual Studio\2022\Community\VC\Tools\MSVC\14.34.31933\include\xmemory
; File C:\Program Files\Microsoft Visual Studio\2022\Community\VC\Tools\MSVC\14.34.31933\include\vector
; File C:\Program Files\Microsoft Visual Studio\2022\Community\VC\Tools\MSVC\14.34.31933\include\xmemory
; File C:\Program Files\Microsoft Visual Studio\2022\Community\VC\Tools\MSVC\14.34.31933\include\vector
; File C:\Users\flourine\Desktop\Xantios\client-src\Code\eterPythonLib\PythonWindowManagerModule.cpp
; File C:\Program Files\Microsoft Visual Studio\2022\Community\VC\Tools\MSVC\14.34.31933\include\vector
; File C:\Users\flourine\Desktop\Xantios\client-src\Code\eterPythonLib\PythonWindowManagerModule.cpp
; File C:\Program Files\Microsoft Visual Studio\2022\Community\VC\Tools\MSVC\14.34.31933\include\vector
; File C:\Users\flourine\Desktop\Xantios\client-src\Code\eterPythonLib\PythonWindowManagerModule.cpp
; File C:\Program Files\Microsoft Visual Studio\2022\Community\VC\Tools\MSVC\14.34.31933\include\vector
; File C:\Users\flourine\Desktop\Xantios\client-src\Code\eterPythonLib\PythonWindowManagerModule.cpp
; File C:\Program Files\Microsoft Visual Studio\2022\Community\VC\Tools\MSVC\14.34.31933\include\vector
; File C:\Users\flourine\Desktop\Xantios\client-src\Code\eterPythonLib\PythonWindowManagerModule.cpp
; File C:\Program Files\Microsoft Visual Studio\2022\Community\VC\Tools\MSVC\14.34.31933\include\vector
; File C:\Users\flourine\Desktop\Xantios\client-src\Code\eterPythonLib\PythonWindowManagerModule.cpp
; File C:\Program Files\Microsoft Visual Studio\2022\Community\VC\Tools\MSVC\14.34.31933\include\vector
; File C:\Users\flourine\Desktop\Xantios\client-src\Code\eterPythonLib\PythonWindowManagerModule.cpp
; File C:\Program Files\Microsoft Visual Studio\2022\Community\VC\Tools\MSVC\14.34.31933\include\vector
; File C:\Program Files\Microsoft Visual Studio\2022\Community\VC\Tools\MSVC\14.34.31933\include\xmemory
; File C:\Program Files\Microsoft Visual Studio\2022\Community\VC\Tools\MSVC\14.34.31933\include\vector
; File C:\Program Files\Microsoft Visual Studio\2022\Community\VC\Tools\MSVC\14.34.31933\include\xmemory
; File C:\Users\flourine\Desktop\Xantios\client-src\Code\eterPythonLib\PythonWindowManagerModule.cpp
; File C:\Program Files\Microsoft Visual Studio\2022\Community\VC\Tools\MSVC\14.34.31933\include\xmemory
; File C:\Users\flourine\Desktop\Xantios\client-src\Code\eterPythonLib\PythonWindowManagerModule.cpp
;	COMDAT ?wndMgrActivateSlot@@YAPAU_object@@PAU1@0@Z
_TEXT	SEGMENT
_diffuseColour$ = -40					; size = 12
_iSlotIndex$ = -28					; size = 4
$T3 = -24						; size = 4
_pWin$ = -20						; size = 4
_pTuple$ = -16						; size = 4
__$EHRec$ = -12						; size = 12
_poSelf$ = 8						; size = 4
_poArgs$ = 12						; size = 4
?wndMgrActivateSlot@@YAPAU_object@@PAU1@0@Z PROC	; wndMgrActivateSlot, COMDAT

; 1967 : {

  00000	55		 push	 ebp
  00001	8b ec		 mov	 ebp, esp
  00003	6a ff		 push	 -1
  00005	68 00 00 00 00	 push	 __ehhandler$?wndMgrActivateSlot@@YAPAU_object@@PAU1@0@Z
  0000a	64 a1 00 00 00
	00		 mov	 eax, DWORD PTR fs:0
  00010	50		 push	 eax
  00011	83 ec 1c	 sub	 esp, 28			; 0000001cH
  00014	53		 push	 ebx
  00015	56		 push	 esi
  00016	57		 push	 edi
  00017	a1 00 00 00 00	 mov	 eax, DWORD PTR ___security_cookie
  0001c	33 c5		 xor	 eax, ebp
  0001e	50		 push	 eax
  0001f	8d 45 f4	 lea	 eax, DWORD PTR __$EHRec$[ebp]
  00022	64 a3 00 00 00
	00		 mov	 DWORD PTR fs:0, eax

; 1968 : 	UI::CWindow * pWin;
; 1969 : 	if (!PyTuple_GetWindow(poArgs, 0, &pWin))

  00028	8b 7d 0c	 mov	 edi, DWORD PTR _poArgs$[ebp]
  0002b	8d 45 ec	 lea	 eax, DWORD PTR _pWin$[ebp]
  0002e	50		 push	 eax
  0002f	6a 00		 push	 0
  00031	57		 push	 edi
  00032	e8 00 00 00 00	 call	 ?PyTuple_GetWindow@@YA_NPAU_object@@HPAPAVCWindow@UI@@@Z ; PyTuple_GetWindow
  00037	83 c4 0c	 add	 esp, 12			; 0000000cH
  0003a	84 c0		 test	 al, al
  0003c	75 1c		 jne	 SHORT $LN5@wndMgrActi
$LN107@wndMgrActi:

; 2004 : }

  0003e	6a 00		 push	 0
  00040	e8 00 00 00 00	 call	 ?Py_BuildException@@YAPAU_object@@PBDZZ ; Py_BuildException
  00045	83 c4 04	 add	 esp, 4
  00048	8b 4d f4	 mov	 ecx, DWORD PTR __$EHRec$[ebp]
  0004b	64 89 0d 00 00
	00 00		 mov	 DWORD PTR fs:0, ecx
  00052	59		 pop	 ecx
  00053	5f		 pop	 edi
  00054	5e		 pop	 esi
  00055	5b		 pop	 ebx
  00056	8b e5		 mov	 esp, ebp
  00058	5d		 pop	 ebp
  00059	c3		 ret	 0
$LN5@wndMgrActi:

; 1970 : 	{
; 1971 : 		return Py_BuildException();
; 1972 : 	}
; 1973 : 
; 1974 : 	int iSlotIndex;
; 1975 : 	if (!PyTuple_GetInteger(poArgs, 1, &iSlotIndex))

  0005a	8d 45 e4	 lea	 eax, DWORD PTR _iSlotIndex$[ebp]
  0005d	50		 push	 eax
  0005e	6a 01		 push	 1
  00060	57		 push	 edi
  00061	e8 00 00 00 00	 call	 ?PyTuple_GetInteger@@YA_NPAU_object@@HPAH@Z ; PyTuple_GetInteger
  00066	83 c4 0c	 add	 esp, 12			; 0000000cH
  00069	84 c0		 test	 al, al
  0006b	74 d1		 je	 SHORT $LN107@wndMgrActi

; 1976 : 	{
; 1977 : 		return Py_BuildException();
; 1978 : 	}
; 1979 : 
; 1980 : 	if (!pWin->IsType(UI::CSlotWindow::Type()))

  0006d	e8 00 00 00 00	 call	 ?Type@CSlotWindow@UI@@SAKXZ ; UI::CSlotWindow::Type
  00072	8b 4d ec	 mov	 ecx, DWORD PTR _pWin$[ebp]
  00075	50		 push	 eax
  00076	e8 00 00 00 00	 call	 ?IsType@CWindow@UI@@QAEHK@Z ; UI::CWindow::IsType
  0007b	85 c0		 test	 eax, eax
  0007d	74 bf		 je	 SHORT $LN107@wndMgrActi
; File C:\Program Files\Microsoft Visual Studio\2022\Community\VC\Tools\MSVC\14.34.31933\include\xmemory

; 77   :         return ::operator new(_Bytes);

  0007f	6a 10		 push	 16			; 00000010H
; File C:\Users\flourine\Desktop\Xantios\client-src\Code\eterPythonLib\PythonWindowManagerModule.cpp

; 1985 : 	std::vector<float> diffuseColour(4, 0.0f);

  00081	c7 45 e8 00 00
	00 00		 mov	 DWORD PTR $T3[ebp], 0
; File C:\Program Files\Microsoft Visual Studio\2022\Community\VC\Tools\MSVC\14.34.31933\include\vector

; 390  :     _CONSTEXPR20 _Vector_val() noexcept : _Myfirst(), _Mylast(), _Myend() {}

  00088	c7 45 d8 00 00
	00 00		 mov	 DWORD PTR _diffuseColour$[ebp], 0
  0008f	c7 45 dc 00 00
	00 00		 mov	 DWORD PTR _diffuseColour$[ebp+4], 0
  00096	c7 45 e0 00 00
	00 00		 mov	 DWORD PTR _diffuseColour$[ebp+8], 0
; File C:\Program Files\Microsoft Visual Studio\2022\Community\VC\Tools\MSVC\14.34.31933\include\xmemory

; 77   :         return ::operator new(_Bytes);

  0009d	e8 00 00 00 00	 call	 ??2@YAPAXI@Z		; operator new

; 235  :         return _Traits::_Allocate(_Bytes);

  000a2	8b f0		 mov	 esi, eax

; 1831 :             if (_Is_all_bits_zero(_Val)) {

  000a4	8d 45 e8	 lea	 eax, DWORD PTR $T3[ebp]
  000a7	50		 push	 eax
; File C:\Program Files\Microsoft Visual Studio\2022\Community\VC\Tools\MSVC\14.34.31933\include\vector

; 2053 :         _Myfirst           = _Newvec;

  000a8	89 75 d8	 mov	 DWORD PTR _diffuseColour$[ebp], esi

; 2054 :         _Mylast            = _Newvec;
; 2055 :         _Myend             = _Newvec + _Newcapacity;

  000ab	8d 5e 10	 lea	 ebx, DWORD PTR [esi+16]
  000ae	89 5d e0	 mov	 DWORD PTR _diffuseColour$[ebp+8], ebx
; File C:\Program Files\Microsoft Visual Studio\2022\Community\VC\Tools\MSVC\14.34.31933\include\xmemory

; 1831 :             if (_Is_all_bits_zero(_Val)) {

  000b1	e8 00 00 00 00	 call	 ??$_Is_all_bits_zero@M@std@@YA_NABM@Z ; std::_Is_all_bits_zero<float>
  000b6	83 c4 08	 add	 esp, 8
  000b9	84 c0		 test	 al, al
  000bb	74 0d		 je	 SHORT $LN76@wndMgrActi

; 1832 :                 _Fill_zero_memset(_Unfancy(_First), static_cast<size_t>(_Count));

  000bd	6a 04		 push	 4
  000bf	56		 push	 esi
  000c0	e8 00 00 00 00	 call	 ??$_Fill_zero_memset@PAM@std@@YAXPAMI@Z ; std::_Fill_zero_memset<float *>
  000c5	83 c4 08	 add	 esp, 8

; 1833 :                 return _First + _Count;

  000c8	eb 1e		 jmp	 SHORT $LN72@wndMgrActi
$LN76@wndMgrActi:

; 680  :             ::new (_Voidify_iter(_Ptr)) _Objty(_STD forward<_Types>(_Args)...);

  000ca	c7 06 00 00 00
	00		 mov	 DWORD PTR [esi], 0
  000d0	8d 5e 10	 lea	 ebx, DWORD PTR [esi+16]
  000d3	c7 46 04 00 00
	00 00		 mov	 DWORD PTR [esi+4], 0
  000da	c7 46 08 00 00
	00 00		 mov	 DWORD PTR [esi+8], 0
  000e1	c7 46 0c 00 00
	00 00		 mov	 DWORD PTR [esi+12], 0
$LN72@wndMgrActi:
; File C:\Program Files\Microsoft Visual Studio\2022\Community\VC\Tools\MSVC\14.34.31933\include\vector

; 2135 :                 _My_data._Mylast = _Uninitialized_fill_n(_My_data._Myfirst, _Count, _Val..., _Al);

  000e8	89 5d dc	 mov	 DWORD PTR _diffuseColour$[ebp+4], ebx
; File C:\Users\flourine\Desktop\Xantios\client-src\Code\eterPythonLib\PythonWindowManagerModule.cpp

; 1987 : 	if (PyTuple_GetObject(poArgs, 2, &pTuple))

  000eb	8d 45 f0	 lea	 eax, DWORD PTR _pTuple$[ebp]
  000ee	c7 45 fc 00 00
	00 00		 mov	 DWORD PTR __$EHRec$[ebp+8], 0
  000f5	50		 push	 eax
  000f6	6a 02		 push	 2
  000f8	57		 push	 edi
  000f9	e8 00 00 00 00	 call	 ?PyTuple_GetObject@@YA_NPAU_object@@HPAPAU1@@Z ; PyTuple_GetObject
  000fe	83 c4 0c	 add	 esp, 12			; 0000000cH
  00101	84 c0		 test	 al, al
  00103	74 50		 je	 SHORT $LN3@wndMgrActi

; 1988 : 	{
; 1989 : 		if (PyTuple_Size(pTuple) == 4)

  00105	ff 75 f0	 push	 DWORD PTR _pTuple$[ebp]
  00108	ff 15 00 00 00
	00		 call	 DWORD PTR __imp__PyTuple_Size
  0010e	83 c4 04	 add	 esp, 4
  00111	83 f8 04	 cmp	 eax, 4
  00114	75 3f		 jne	 SHORT $LN3@wndMgrActi
; File C:\Program Files\Microsoft Visual Studio\2022\Community\VC\Tools\MSVC\14.34.31933\include\vector

; 1932 :         return static_cast<size_type>(_My_data._Mylast - _My_data._Myfirst);

  00116	8b 45 dc	 mov	 eax, DWORD PTR _diffuseColour$[ebp+4]
; File C:\Users\flourine\Desktop\Xantios\client-src\Code\eterPythonLib\PythonWindowManagerModule.cpp

; 1991 : 			for (size_t i = 0; i < diffuseColour.size(); ++i)

  00119	33 f6		 xor	 esi, esi
; File C:\Program Files\Microsoft Visual Studio\2022\Community\VC\Tools\MSVC\14.34.31933\include\vector

; 1932 :         return static_cast<size_type>(_My_data._Mylast - _My_data._Myfirst);

  0011b	8b 4d d8	 mov	 ecx, DWORD PTR _diffuseColour$[ebp]
  0011e	2b c1		 sub	 eax, ecx
  00120	c1 f8 02	 sar	 eax, 2
; File C:\Users\flourine\Desktop\Xantios\client-src\Code\eterPythonLib\PythonWindowManagerModule.cpp

; 1991 : 			for (size_t i = 0; i < diffuseColour.size(); ++i)

  00123	85 c0		 test	 eax, eax
  00125	74 2e		 je	 SHORT $LN3@wndMgrActi
$LL4@wndMgrActi:
; File C:\Program Files\Microsoft Visual Studio\2022\Community\VC\Tools\MSVC\14.34.31933\include\vector

; 1952 :         return _My_data._Myfirst[_Pos];

  00127	8d 04 b1	 lea	 eax, DWORD PTR [ecx+esi*4]
; File C:\Users\flourine\Desktop\Xantios\client-src\Code\eterPythonLib\PythonWindowManagerModule.cpp

; 1993 : 				if (!PyTuple_GetFloat(pTuple, i, &diffuseColour[i]))

  0012a	50		 push	 eax
  0012b	56		 push	 esi
  0012c	ff 75 f0	 push	 DWORD PTR _pTuple$[ebp]
  0012f	e8 00 00 00 00	 call	 ?PyTuple_GetFloat@@YA_NPAU_object@@HPAM@Z ; PyTuple_GetFloat
  00134	83 c4 0c	 add	 esp, 12			; 0000000cH
  00137	84 c0		 test	 al, al
  00139	75 0a		 jne	 SHORT $LN2@wndMgrActi

; 1994 : 				{
; 1995 : 					diffuseColour[i] = 0.0f;

  0013b	8b 45 d8	 mov	 eax, DWORD PTR _diffuseColour$[ebp]
  0013e	c7 04 b0 00 00
	00 00		 mov	 DWORD PTR [eax+esi*4], 0
$LN2@wndMgrActi:
; File C:\Program Files\Microsoft Visual Studio\2022\Community\VC\Tools\MSVC\14.34.31933\include\vector

; 1932 :         return static_cast<size_type>(_My_data._Mylast - _My_data._Myfirst);

  00145	8b 45 dc	 mov	 eax, DWORD PTR _diffuseColour$[ebp+4]
; File C:\Users\flourine\Desktop\Xantios\client-src\Code\eterPythonLib\PythonWindowManagerModule.cpp

; 1991 : 			for (size_t i = 0; i < diffuseColour.size(); ++i)

  00148	46		 inc	 esi
; File C:\Program Files\Microsoft Visual Studio\2022\Community\VC\Tools\MSVC\14.34.31933\include\vector

; 1932 :         return static_cast<size_type>(_My_data._Mylast - _My_data._Myfirst);

  00149	8b 4d d8	 mov	 ecx, DWORD PTR _diffuseColour$[ebp]
  0014c	2b c1		 sub	 eax, ecx
  0014e	c1 f8 02	 sar	 eax, 2
; File C:\Users\flourine\Desktop\Xantios\client-src\Code\eterPythonLib\PythonWindowManagerModule.cpp

; 1991 : 			for (size_t i = 0; i < diffuseColour.size(); ++i)

  00151	3b f0		 cmp	 esi, eax
  00153	72 d2		 jb	 SHORT $LL4@wndMgrActi
$LN3@wndMgrActi:

; 1996 : 				}
; 1997 : 			}
; 1998 : 		}
; 1999 : 	}
; 2000 : 
; 2001 : 	UI::CSlotWindow * pSlotWin = (UI::CSlotWindow *)pWin;
; 2002 : 	pSlotWin->ActivateSlot(iSlotIndex, diffuseColour);

  00155	8b 4d ec	 mov	 ecx, DWORD PTR _pWin$[ebp]
  00158	8d 45 d8	 lea	 eax, DWORD PTR _diffuseColour$[ebp]
  0015b	50		 push	 eax
  0015c	ff 75 e4	 push	 DWORD PTR _iSlotIndex$[ebp]
  0015f	e8 00 00 00 00	 call	 ?ActivateSlot@CSlotWindow@UI@@QAEXKABV?$vector@MV?$allocator@M@std@@@std@@@Z ; UI::CSlotWindow::ActivateSlot

; 2003 : 	return Py_BuildNone();

  00164	e8 00 00 00 00	 call	 ?Py_BuildNone@@YAPAU_object@@XZ ; Py_BuildNone
; File C:\Program Files\Microsoft Visual Studio\2022\Community\VC\Tools\MSVC\14.34.31933\include\vector

; 2107 :         if (_Myfirst) { // destroy and deallocate old array

  00169	8b 55 d8	 mov	 edx, DWORD PTR _diffuseColour$[ebp]
; File C:\Users\flourine\Desktop\Xantios\client-src\Code\eterPythonLib\PythonWindowManagerModule.cpp

; 2003 : 	return Py_BuildNone();

  0016c	8b f0		 mov	 esi, eax
; File C:\Program Files\Microsoft Visual Studio\2022\Community\VC\Tools\MSVC\14.34.31933\include\vector

; 2107 :         if (_Myfirst) { // destroy and deallocate old array

  0016e	85 d2		 test	 edx, edx
  00170	74 2c		 je	 SHORT $LN16@wndMgrActi

; 2110 :             _Al.deallocate(_Myfirst, static_cast<size_type>(_Myend - _Myfirst));

  00172	8b 4d e0	 mov	 ecx, DWORD PTR _diffuseColour$[ebp+8]
; File C:\Program Files\Microsoft Visual Studio\2022\Community\VC\Tools\MSVC\14.34.31933\include\xmemory

; 830  :         _Deallocate<_New_alignof<_Ty>>(_Ptr, sizeof(_Ty) * _Count);

  00175	8b c2		 mov	 eax, edx
; File C:\Program Files\Microsoft Visual Studio\2022\Community\VC\Tools\MSVC\14.34.31933\include\vector

; 2110 :             _Al.deallocate(_Myfirst, static_cast<size_type>(_Myend - _Myfirst));

  00177	2b ca		 sub	 ecx, edx
; File C:\Program Files\Microsoft Visual Studio\2022\Community\VC\Tools\MSVC\14.34.31933\include\xmemory

; 830  :         _Deallocate<_New_alignof<_Ty>>(_Ptr, sizeof(_Ty) * _Count);

  00179	83 e1 fc	 and	 ecx, -4			; fffffffcH

; 251  :         if (_Bytes >= _Big_allocation_threshold) { // boost the alignment of big allocations to help autovectorization

  0017c	81 f9 00 10 00
	00		 cmp	 ecx, 4096		; 00001000H
  00182	72 10		 jb	 SHORT $LN32@wndMgrActi

; 150  :     const uintptr_t _Ptr_container   = _Ptr_user[-1];

  00184	8b 50 fc	 mov	 edx, DWORD PTR [eax-4]
  00187	83 c1 23	 add	 ecx, 35			; 00000023H
  0018a	2b c2		 sub	 eax, edx

; 164  :     _STL_VERIFY(_Back_shift >= _Min_back_shift && _Back_shift <= _Non_user_size, "invalid argument");

  0018c	83 c0 fc	 add	 eax, -4			; fffffffcH
  0018f	83 f8 1f	 cmp	 eax, 31			; 0000001fH
  00192	77 1e		 ja	 SHORT $LN109@wndMgrActi
$LN32@wndMgrActi:

; 255  :         ::operator delete(_Ptr, _Bytes);

  00194	51		 push	 ecx
  00195	52		 push	 edx
  00196	e8 00 00 00 00	 call	 ??3@YAXPAXI@Z		; operator delete
  0019b	83 c4 08	 add	 esp, 8
$LN16@wndMgrActi:
; File C:\Users\flourine\Desktop\Xantios\client-src\Code\eterPythonLib\PythonWindowManagerModule.cpp

; 2003 : 	return Py_BuildNone();

  0019e	8b c6		 mov	 eax, esi

; 2004 : }

  001a0	8b 4d f4	 mov	 ecx, DWORD PTR __$EHRec$[ebp]
  001a3	64 89 0d 00 00
	00 00		 mov	 DWORD PTR fs:0, ecx
  001aa	59		 pop	 ecx
  001ab	5f		 pop	 edi
  001ac	5e		 pop	 esi
  001ad	5b		 pop	 ebx
  001ae	8b e5		 mov	 esp, ebp
  001b0	5d		 pop	 ebp
  001b1	c3		 ret	 0
$LN109@wndMgrActi:
; File C:\Program Files\Microsoft Visual Studio\2022\Community\VC\Tools\MSVC\14.34.31933\include\xmemory

; 164  :     _STL_VERIFY(_Back_shift >= _Min_back_shift && _Back_shift <= _Non_user_size, "invalid argument");

  001b2	e8 00 00 00 00	 call	 __invalid_parameter_noinfo_noreturn
$LN106@wndMgrActi:
  001b7	cc		 int	 3
_TEXT	ENDS
;	COMDAT text$x
text$x	SEGMENT
__unwindfunclet$?wndMgrActivateSlot@@YAPAU_object@@PAU1@0@Z$0:
  00000	8d 4d d8	 lea	 ecx, DWORD PTR _diffuseColour$[ebp]
  00003	e9 00 00 00 00	 jmp	 ??1?$vector@MV?$allocator@M@std@@@std@@QAE@XZ ; std::vector<float,std::allocator<float> >::~vector<float,std::allocator<float> >
  00008	cc		 int	 3
  00009	cc		 int	 3
  0000a	cc		 int	 3
  0000b	cc		 int	 3
  0000c	cc		 int	 3
__ehhandler$?wndMgrActivateSlot@@YAPAU_object@@PAU1@0@Z:
  0000d	90		 npad	 1
  0000e	90		 npad	 1
  0000f	8b 54 24 08	 mov	 edx, DWORD PTR [esp+8]
  00013	8d 42 0c	 lea	 eax, DWORD PTR [edx+12]
  00016	8b 4a d4	 mov	 ecx, DWORD PTR [edx-44]
  00019	33 c8		 xor	 ecx, eax
  0001b	e8 00 00 00 00	 call	 @__security_check_cookie@4
  00020	b8 00 00 00 00	 mov	 eax, OFFSET __ehfuncinfo$?wndMgrActivateSlot@@YAPAU_object@@PAU1@0@Z
  00025	e9 00 00 00 00	 jmp	 ___CxxFrameHandler3
text$x	ENDS
?wndMgrActivateSlot@@YAPAU_object@@PAU1@0@Z ENDP	; wndMgrActivateSlot
; Function compile flags: /Ogtp
; File C:\Users\flourine\Desktop\Xantios\client-src\Code\eterPythonLib\PythonWindowManagerModule.cpp
;	COMDAT ?wndMgrSetToggleSlot@@YAPAU_object@@PAU1@0@Z
_TEXT	SEGMENT
_poSelf$ = 8						; size = 4
_poArgs$ = 12						; size = 4
?wndMgrSetToggleSlot@@YAPAU_object@@PAU1@0@Z PROC	; wndMgrSetToggleSlot, COMDAT

; 1962 : 	assert(!"wndMgrSetToggleSlot - Don't use such function");
; 1963 : 	return Py_BuildNone();

  00000	e9 00 00 00 00	 jmp	 ?Py_BuildNone@@YAPAU_object@@XZ ; Py_BuildNone
?wndMgrSetToggleSlot@@YAPAU_object@@PAU1@0@Z ENDP	; wndMgrSetToggleSlot
_TEXT	ENDS
; Function compile flags: /Ogtp
; File C:\Users\flourine\Desktop\Xantios\client-src\Code\eterPythonLib\PythonWindowManagerModule.cpp
;	COMDAT ?wndMgrSetSlotCoolTime@@YAPAU_object@@PAU1@0@Z
_TEXT	SEGMENT
_iSlotIndex$ = -16					; size = 4
_fCoolTime$ = -12					; size = 4
_pWin$ = -8						; size = 4
_fElapsedTime$ = -4					; size = 4
_poSelf$ = 8						; size = 4
_poArgs$ = 12						; size = 4
?wndMgrSetSlotCoolTime@@YAPAU_object@@PAU1@0@Z PROC	; wndMgrSetSlotCoolTime, COMDAT

; 1927 : {

  00000	55		 push	 ebp
  00001	8b ec		 mov	 ebp, esp
  00003	83 ec 10	 sub	 esp, 16			; 00000010H

; 1928 : 	UI::CWindow * pWin;
; 1929 : 	if (!PyTuple_GetWindow(poArgs, 0, &pWin))

  00006	8d 45 f8	 lea	 eax, DWORD PTR _pWin$[ebp]
  00009	56		 push	 esi
  0000a	8b 75 0c	 mov	 esi, DWORD PTR _poArgs$[ebp]
  0000d	50		 push	 eax
  0000e	6a 00		 push	 0
  00010	56		 push	 esi
  00011	e8 00 00 00 00	 call	 ?PyTuple_GetWindow@@YA_NPAU_object@@HPAPAVCWindow@UI@@@Z ; PyTuple_GetWindow
  00016	83 c4 0c	 add	 esp, 12			; 0000000cH
  00019	84 c0		 test	 al, al
  0001b	75 0f		 jne	 SHORT $LN2@wndMgrSetS
$LN7@wndMgrSetS:

; 1958 : }

  0001d	6a 00		 push	 0
  0001f	e8 00 00 00 00	 call	 ?Py_BuildException@@YAPAU_object@@PBDZZ ; Py_BuildException
  00024	83 c4 04	 add	 esp, 4
  00027	5e		 pop	 esi
  00028	8b e5		 mov	 esp, ebp
  0002a	5d		 pop	 ebp
  0002b	c3		 ret	 0
$LN2@wndMgrSetS:

; 1930 : 	{
; 1931 : 		return Py_BuildException();
; 1932 : 	}
; 1933 : 
; 1934 : 	int iSlotIndex;
; 1935 : 	if (!PyTuple_GetInteger(poArgs, 1, &iSlotIndex))

  0002c	8d 45 f0	 lea	 eax, DWORD PTR _iSlotIndex$[ebp]
  0002f	50		 push	 eax
  00030	6a 01		 push	 1
  00032	56		 push	 esi
  00033	e8 00 00 00 00	 call	 ?PyTuple_GetInteger@@YA_NPAU_object@@HPAH@Z ; PyTuple_GetInteger
  00038	83 c4 0c	 add	 esp, 12			; 0000000cH
  0003b	84 c0		 test	 al, al
  0003d	74 de		 je	 SHORT $LN7@wndMgrSetS

; 1936 : 	{
; 1937 : 		return Py_BuildException();
; 1938 : 	}
; 1939 : 
; 1940 : 	float fCoolTime;
; 1941 : 	if (!PyTuple_GetFloat(poArgs, 2, &fCoolTime))

  0003f	8d 45 f4	 lea	 eax, DWORD PTR _fCoolTime$[ebp]
  00042	50		 push	 eax
  00043	6a 02		 push	 2
  00045	56		 push	 esi
  00046	e8 00 00 00 00	 call	 ?PyTuple_GetFloat@@YA_NPAU_object@@HPAM@Z ; PyTuple_GetFloat
  0004b	83 c4 0c	 add	 esp, 12			; 0000000cH
  0004e	84 c0		 test	 al, al
  00050	74 cb		 je	 SHORT $LN7@wndMgrSetS

; 1942 : 	{
; 1943 : 		return Py_BuildException();
; 1944 : 	}
; 1945 : 
; 1946 : 	float fElapsedTime = 0.0f;
; 1947 : 	PyTuple_GetFloat(poArgs, 3, &fElapsedTime);

  00052	8d 45 fc	 lea	 eax, DWORD PTR _fElapsedTime$[ebp]
  00055	c7 45 fc 00 00
	00 00		 mov	 DWORD PTR _fElapsedTime$[ebp], 0
  0005c	50		 push	 eax
  0005d	6a 03		 push	 3
  0005f	56		 push	 esi
  00060	e8 00 00 00 00	 call	 ?PyTuple_GetFloat@@YA_NPAU_object@@HPAM@Z ; PyTuple_GetFloat
  00065	83 c4 0c	 add	 esp, 12			; 0000000cH

; 1948 : 
; 1949 : 	if (!pWin->IsType(UI::CSlotWindow::Type()))

  00068	e8 00 00 00 00	 call	 ?Type@CSlotWindow@UI@@SAKXZ ; UI::CSlotWindow::Type
  0006d	8b 75 f8	 mov	 esi, DWORD PTR _pWin$[ebp]
  00070	8b ce		 mov	 ecx, esi
  00072	50		 push	 eax
  00073	e8 00 00 00 00	 call	 ?IsType@CWindow@UI@@QAEHK@Z ; UI::CWindow::IsType
  00078	85 c0		 test	 eax, eax
  0007a	74 a1		 je	 SHORT $LN7@wndMgrSetS

; 1950 : 	{
; 1951 : 		return Py_BuildException();
; 1952 : 	}
; 1953 : 
; 1954 : 	UI::CSlotWindow * pSlotWin = (UI::CSlotWindow *)pWin;
; 1955 : 	pSlotWin->SetSlotCoolTime(iSlotIndex, fCoolTime, fElapsedTime);

  0007c	f3 0f 10 45 fc	 movss	 xmm0, DWORD PTR _fElapsedTime$[ebp]
  00081	83 ec 08	 sub	 esp, 8
  00084	8b ce		 mov	 ecx, esi
  00086	f3 0f 11 44 24
	04		 movss	 DWORD PTR [esp+4], xmm0
  0008c	f3 0f 10 45 f4	 movss	 xmm0, DWORD PTR _fCoolTime$[ebp]
  00091	f3 0f 11 04 24	 movss	 DWORD PTR [esp], xmm0
  00096	ff 75 f0	 push	 DWORD PTR _iSlotIndex$[ebp]
  00099	e8 00 00 00 00	 call	 ?SetSlotCoolTime@CSlotWindow@UI@@QAEXKMM@Z ; UI::CSlotWindow::SetSlotCoolTime

; 1956 : 
; 1957 : 	return Py_BuildNone();

  0009e	e8 00 00 00 00	 call	 ?Py_BuildNone@@YAPAU_object@@XZ ; Py_BuildNone
  000a3	5e		 pop	 esi

; 1958 : }

  000a4	8b e5		 mov	 esp, ebp
  000a6	5d		 pop	 ebp
  000a7	c3		 ret	 0
?wndMgrSetSlotCoolTime@@YAPAU_object@@PAU1@0@Z ENDP	; wndMgrSetSlotCoolTime
_TEXT	ENDS
; Function compile flags: /Ogtp
; File C:\Users\flourine\Desktop\Xantios\client-src\Code\eterPythonLib\PythonWindowManagerModule.cpp
;	COMDAT ?wndMgrSetSlotCountNew@@YAPAU_object@@PAU1@0@Z
_TEXT	SEGMENT
_iSlotIndex$ = -16					; size = 4
_iGrade$ = -12						; size = 4
_iCount$ = -8						; size = 4
_pWin$ = -4						; size = 4
_poSelf$ = 8						; size = 4
_poArgs$ = 12						; size = 4
?wndMgrSetSlotCountNew@@YAPAU_object@@PAU1@0@Z PROC	; wndMgrSetSlotCountNew, COMDAT

; 1890 : {

  00000	55		 push	 ebp
  00001	8b ec		 mov	 ebp, esp
  00003	83 ec 10	 sub	 esp, 16			; 00000010H

; 1891 : 	UI::CWindow * pWin;
; 1892 : 	if (!PyTuple_GetWindow(poArgs, 0, &pWin))

  00006	8d 45 fc	 lea	 eax, DWORD PTR _pWin$[ebp]
  00009	56		 push	 esi
  0000a	8b 75 0c	 mov	 esi, DWORD PTR _poArgs$[ebp]
  0000d	50		 push	 eax
  0000e	6a 00		 push	 0
  00010	56		 push	 esi
  00011	e8 00 00 00 00	 call	 ?PyTuple_GetWindow@@YA_NPAU_object@@HPAPAVCWindow@UI@@@Z ; PyTuple_GetWindow
  00016	83 c4 0c	 add	 esp, 12			; 0000000cH
  00019	84 c0		 test	 al, al
  0001b	75 0f		 jne	 SHORT $LN2@wndMgrSetS
$LN8@wndMgrSetS:

; 1924 : }

  0001d	6a 00		 push	 0
  0001f	e8 00 00 00 00	 call	 ?Py_BuildException@@YAPAU_object@@PBDZZ ; Py_BuildException
  00024	83 c4 04	 add	 esp, 4
  00027	5e		 pop	 esi
  00028	8b e5		 mov	 esp, ebp
  0002a	5d		 pop	 ebp
  0002b	c3		 ret	 0
$LN2@wndMgrSetS:

; 1893 : 	{
; 1894 : 		return Py_BuildException();
; 1895 : 	}
; 1896 : 
; 1897 : 	int iSlotIndex;
; 1898 : 	if (!PyTuple_GetInteger(poArgs, 1, &iSlotIndex))

  0002c	8d 45 f0	 lea	 eax, DWORD PTR _iSlotIndex$[ebp]
  0002f	50		 push	 eax
  00030	6a 01		 push	 1
  00032	56		 push	 esi
  00033	e8 00 00 00 00	 call	 ?PyTuple_GetInteger@@YA_NPAU_object@@HPAH@Z ; PyTuple_GetInteger
  00038	83 c4 0c	 add	 esp, 12			; 0000000cH
  0003b	84 c0		 test	 al, al
  0003d	74 de		 je	 SHORT $LN8@wndMgrSetS

; 1899 : 	{
; 1900 : 		return Py_BuildException();
; 1901 : 	}
; 1902 : 
; 1903 : 	int iGrade;
; 1904 : 	if (!PyTuple_GetInteger(poArgs, 2, &iGrade))

  0003f	8d 45 f4	 lea	 eax, DWORD PTR _iGrade$[ebp]
  00042	50		 push	 eax
  00043	6a 02		 push	 2
  00045	56		 push	 esi
  00046	e8 00 00 00 00	 call	 ?PyTuple_GetInteger@@YA_NPAU_object@@HPAH@Z ; PyTuple_GetInteger
  0004b	83 c4 0c	 add	 esp, 12			; 0000000cH
  0004e	84 c0		 test	 al, al
  00050	74 cb		 je	 SHORT $LN8@wndMgrSetS

; 1905 : 	{
; 1906 : 		return Py_BuildException();
; 1907 : 	}
; 1908 : 
; 1909 : 	int iCount;
; 1910 : 	if (!PyTuple_GetInteger(poArgs, 3, &iCount))

  00052	8d 45 f8	 lea	 eax, DWORD PTR _iCount$[ebp]
  00055	50		 push	 eax
  00056	6a 03		 push	 3
  00058	56		 push	 esi
  00059	e8 00 00 00 00	 call	 ?PyTuple_GetInteger@@YA_NPAU_object@@HPAH@Z ; PyTuple_GetInteger
  0005e	83 c4 0c	 add	 esp, 12			; 0000000cH
  00061	84 c0		 test	 al, al
  00063	74 b8		 je	 SHORT $LN8@wndMgrSetS

; 1911 : 	{
; 1912 : 		return Py_BuildException();
; 1913 : 	}
; 1914 : 
; 1915 : 	if (!pWin->IsType(UI::CSlotWindow::Type()))

  00065	e8 00 00 00 00	 call	 ?Type@CSlotWindow@UI@@SAKXZ ; UI::CSlotWindow::Type
  0006a	8b 75 fc	 mov	 esi, DWORD PTR _pWin$[ebp]
  0006d	8b ce		 mov	 ecx, esi
  0006f	50		 push	 eax
  00070	e8 00 00 00 00	 call	 ?IsType@CWindow@UI@@QAEHK@Z ; UI::CWindow::IsType
  00075	85 c0		 test	 eax, eax
  00077	74 a4		 je	 SHORT $LN8@wndMgrSetS

; 1916 : 	{
; 1917 : 		return Py_BuildException();
; 1918 : 	}
; 1919 : 
; 1920 : 	UI::CSlotWindow * pSlotWin = (UI::CSlotWindow *)pWin;
; 1921 : 	pSlotWin->SetSlotCountNew(iSlotIndex, iGrade, iCount);

  00079	ff 75 f8	 push	 DWORD PTR _iCount$[ebp]
  0007c	8b ce		 mov	 ecx, esi
  0007e	ff 75 f4	 push	 DWORD PTR _iGrade$[ebp]
  00081	ff 75 f0	 push	 DWORD PTR _iSlotIndex$[ebp]
  00084	e8 00 00 00 00	 call	 ?SetSlotCountNew@CSlotWindow@UI@@QAEXKKK@Z ; UI::CSlotWindow::SetSlotCountNew

; 1922 : 
; 1923 : 	return Py_BuildNone();

  00089	e8 00 00 00 00	 call	 ?Py_BuildNone@@YAPAU_object@@XZ ; Py_BuildNone
  0008e	5e		 pop	 esi

; 1924 : }

  0008f	8b e5		 mov	 esp, ebp
  00091	5d		 pop	 ebp
  00092	c3		 ret	 0
?wndMgrSetSlotCountNew@@YAPAU_object@@PAU1@0@Z ENDP	; wndMgrSetSlotCountNew
_TEXT	ENDS
; Function compile flags: /Ogtp
; File C:\Users\flourine\Desktop\Xantios\client-src\Code\eterPythonLib\PythonWindowManagerModule.cpp
;	COMDAT ?wndMgrSetSlotCount@@YAPAU_object@@PAU1@0@Z
_TEXT	SEGMENT
_iSlotIndex$ = -12					; size = 4
_iCount$ = -8						; size = 4
_pWin$ = -4						; size = 4
_poSelf$ = 8						; size = 4
_poArgs$ = 12						; size = 4
?wndMgrSetSlotCount@@YAPAU_object@@PAU1@0@Z PROC	; wndMgrSetSlotCount, COMDAT

; 1859 : {

  00000	55		 push	 ebp
  00001	8b ec		 mov	 ebp, esp
  00003	83 ec 0c	 sub	 esp, 12			; 0000000cH

; 1860 : 	UI::CWindow * pWin;
; 1861 : 	if (!PyTuple_GetWindow(poArgs, 0, &pWin))

  00006	8d 45 fc	 lea	 eax, DWORD PTR _pWin$[ebp]
  00009	56		 push	 esi
  0000a	8b 75 0c	 mov	 esi, DWORD PTR _poArgs$[ebp]
  0000d	50		 push	 eax
  0000e	6a 00		 push	 0
  00010	56		 push	 esi
  00011	e8 00 00 00 00	 call	 ?PyTuple_GetWindow@@YA_NPAU_object@@HPAPAVCWindow@UI@@@Z ; PyTuple_GetWindow
  00016	83 c4 0c	 add	 esp, 12			; 0000000cH
  00019	84 c0		 test	 al, al
  0001b	75 0f		 jne	 SHORT $LN2@wndMgrSetS
$LN7@wndMgrSetS:

; 1887 : }

  0001d	6a 00		 push	 0
  0001f	e8 00 00 00 00	 call	 ?Py_BuildException@@YAPAU_object@@PBDZZ ; Py_BuildException
  00024	83 c4 04	 add	 esp, 4
  00027	5e		 pop	 esi
  00028	8b e5		 mov	 esp, ebp
  0002a	5d		 pop	 ebp
  0002b	c3		 ret	 0
$LN2@wndMgrSetS:

; 1862 : 	{
; 1863 : 		return Py_BuildException();
; 1864 : 	}
; 1865 : 
; 1866 : 	int iSlotIndex;
; 1867 : 	if (!PyTuple_GetInteger(poArgs, 1, &iSlotIndex))

  0002c	8d 45 f4	 lea	 eax, DWORD PTR _iSlotIndex$[ebp]
  0002f	50		 push	 eax
  00030	6a 01		 push	 1
  00032	56		 push	 esi
  00033	e8 00 00 00 00	 call	 ?PyTuple_GetInteger@@YA_NPAU_object@@HPAH@Z ; PyTuple_GetInteger
  00038	83 c4 0c	 add	 esp, 12			; 0000000cH
  0003b	84 c0		 test	 al, al
  0003d	74 de		 je	 SHORT $LN7@wndMgrSetS

; 1868 : 	{
; 1869 : 		return Py_BuildException();
; 1870 : 	}
; 1871 : 
; 1872 : 	int iCount;
; 1873 : 	if (!PyTuple_GetInteger(poArgs, 2, &iCount))

  0003f	8d 45 f8	 lea	 eax, DWORD PTR _iCount$[ebp]
  00042	50		 push	 eax
  00043	6a 02		 push	 2
  00045	56		 push	 esi
  00046	e8 00 00 00 00	 call	 ?PyTuple_GetInteger@@YA_NPAU_object@@HPAH@Z ; PyTuple_GetInteger
  0004b	83 c4 0c	 add	 esp, 12			; 0000000cH
  0004e	84 c0		 test	 al, al
  00050	74 cb		 je	 SHORT $LN7@wndMgrSetS

; 1874 : 	{
; 1875 : 		return Py_BuildException();
; 1876 : 	}
; 1877 : 
; 1878 : 	if (!pWin->IsType(UI::CSlotWindow::Type()))

  00052	e8 00 00 00 00	 call	 ?Type@CSlotWindow@UI@@SAKXZ ; UI::CSlotWindow::Type
  00057	8b 75 fc	 mov	 esi, DWORD PTR _pWin$[ebp]
  0005a	8b ce		 mov	 ecx, esi
  0005c	50		 push	 eax
  0005d	e8 00 00 00 00	 call	 ?IsType@CWindow@UI@@QAEHK@Z ; UI::CWindow::IsType
  00062	85 c0		 test	 eax, eax
  00064	74 b7		 je	 SHORT $LN7@wndMgrSetS

; 1879 : 	{
; 1880 : 		return Py_BuildException();
; 1881 : 	}
; 1882 : 
; 1883 : 	UI::CSlotWindow * pSlotWin = (UI::CSlotWindow *)pWin;
; 1884 : 	pSlotWin->SetSlotCount(iSlotIndex, iCount);

  00066	ff 75 f8	 push	 DWORD PTR _iCount$[ebp]
  00069	8b ce		 mov	 ecx, esi
  0006b	ff 75 f4	 push	 DWORD PTR _iSlotIndex$[ebp]
  0006e	e8 00 00 00 00	 call	 ?SetSlotCount@CSlotWindow@UI@@QAEXKK@Z ; UI::CSlotWindow::SetSlotCount

; 1885 : 
; 1886 : 	return Py_BuildNone();

  00073	e8 00 00 00 00	 call	 ?Py_BuildNone@@YAPAU_object@@XZ ; Py_BuildNone
  00078	5e		 pop	 esi

; 1887 : }

  00079	8b e5		 mov	 esp, ebp
  0007b	5d		 pop	 ebp
  0007c	c3		 ret	 0
?wndMgrSetSlotCount@@YAPAU_object@@PAU1@0@Z ENDP	; wndMgrSetSlotCount
_TEXT	ENDS
; Function compile flags: /Ogtp
; File C:\Users\flourine\Desktop\Xantios\client-src\Code\eterPythonLib\PythonWindowManagerModule.cpp
;	COMDAT ?wndMgrSetSlot@@YAPAU_object@@PAU1@0@Z
_TEXT	SEGMENT
_diffuseColor$ = -44					; size = 16
_iSlotIndex$ = -28					; size = 4
_iItemIndex$ = -24					; size = 4
_iWidth$ = -20						; size = 4
_iHeight$ = -16						; size = 4
_iImageHandle$ = -12					; size = 4
_pWin$ = -8						; size = 4
_pTuple$ = -4						; size = 4
_poSelf$ = 8						; size = 4
_poArgs$ = 12						; size = 4
?wndMgrSetSlot@@YAPAU_object@@PAU1@0@Z PROC		; wndMgrSetSlot, COMDAT

; 1778 : {

  00000	55		 push	 ebp
  00001	8b ec		 mov	 ebp, esp
  00003	83 ec 2c	 sub	 esp, 44			; 0000002cH

; 1779 : 	UI::CWindow * pWin;
; 1780 : 	if (!PyTuple_GetWindow(poArgs, 0, &pWin))

  00006	8d 45 f8	 lea	 eax, DWORD PTR _pWin$[ebp]
  00009	56		 push	 esi
  0000a	8b 75 0c	 mov	 esi, DWORD PTR _poArgs$[ebp]
  0000d	50		 push	 eax
  0000e	6a 00		 push	 0
  00010	56		 push	 esi
  00011	e8 00 00 00 00	 call	 ?PyTuple_GetWindow@@YA_NPAU_object@@HPAPAVCWindow@UI@@@Z ; PyTuple_GetWindow
  00016	83 c4 0c	 add	 esp, 12			; 0000000cH
  00019	84 c0		 test	 al, al
  0001b	75 0f		 jne	 SHORT $LN2@wndMgrSetS
$LN30@wndMgrSetS:

; 1856 : }

  0001d	6a 00		 push	 0
  0001f	e8 00 00 00 00	 call	 ?Py_BuildException@@YAPAU_object@@PBDZZ ; Py_BuildException
  00024	83 c4 04	 add	 esp, 4
  00027	5e		 pop	 esi
  00028	8b e5		 mov	 esp, ebp
  0002a	5d		 pop	 ebp
  0002b	c3		 ret	 0
$LN2@wndMgrSetS:

; 1781 : 	{
; 1782 : 		return Py_BuildException();
; 1783 : 	}
; 1784 : 
; 1785 : 	int iSlotIndex;
; 1786 : 	if (!PyTuple_GetInteger(poArgs, 1, &iSlotIndex))

  0002c	8d 45 e4	 lea	 eax, DWORD PTR _iSlotIndex$[ebp]
  0002f	50		 push	 eax
  00030	6a 01		 push	 1
  00032	56		 push	 esi
  00033	e8 00 00 00 00	 call	 ?PyTuple_GetInteger@@YA_NPAU_object@@HPAH@Z ; PyTuple_GetInteger
  00038	83 c4 0c	 add	 esp, 12			; 0000000cH
  0003b	84 c0		 test	 al, al
  0003d	74 de		 je	 SHORT $LN30@wndMgrSetS

; 1787 : 	{
; 1788 : 		return Py_BuildException();
; 1789 : 	}
; 1790 : 
; 1791 : 	int iItemIndex;
; 1792 : 	if (!PyTuple_GetInteger(poArgs, 2, &iItemIndex))

  0003f	8d 45 e8	 lea	 eax, DWORD PTR _iItemIndex$[ebp]
  00042	50		 push	 eax
  00043	6a 02		 push	 2
  00045	56		 push	 esi
  00046	e8 00 00 00 00	 call	 ?PyTuple_GetInteger@@YA_NPAU_object@@HPAH@Z ; PyTuple_GetInteger
  0004b	83 c4 0c	 add	 esp, 12			; 0000000cH
  0004e	84 c0		 test	 al, al
  00050	74 cb		 je	 SHORT $LN30@wndMgrSetS

; 1793 : 	{
; 1794 : 		return Py_BuildException();
; 1795 : 	}
; 1796 : 
; 1797 : 	int iWidth;
; 1798 : 	if (!PyTuple_GetInteger(poArgs, 3, &iWidth))

  00052	8d 45 ec	 lea	 eax, DWORD PTR _iWidth$[ebp]
  00055	50		 push	 eax
  00056	6a 03		 push	 3
  00058	56		 push	 esi
  00059	e8 00 00 00 00	 call	 ?PyTuple_GetInteger@@YA_NPAU_object@@HPAH@Z ; PyTuple_GetInteger
  0005e	83 c4 0c	 add	 esp, 12			; 0000000cH
  00061	84 c0		 test	 al, al
  00063	74 b8		 je	 SHORT $LN30@wndMgrSetS

; 1799 : 	{
; 1800 : 		return Py_BuildException();
; 1801 : 	}
; 1802 : 
; 1803 : 	int iHeight;
; 1804 : 	if (!PyTuple_GetInteger(poArgs, 4, &iHeight))

  00065	8d 45 f0	 lea	 eax, DWORD PTR _iHeight$[ebp]
  00068	50		 push	 eax
  00069	6a 04		 push	 4
  0006b	56		 push	 esi
  0006c	e8 00 00 00 00	 call	 ?PyTuple_GetInteger@@YA_NPAU_object@@HPAH@Z ; PyTuple_GetInteger
  00071	83 c4 0c	 add	 esp, 12			; 0000000cH
  00074	84 c0		 test	 al, al
  00076	74 a5		 je	 SHORT $LN30@wndMgrSetS

; 1805 : 	{
; 1806 : 		return Py_BuildException();
; 1807 : 	}
; 1808 : 
; 1809 : 	int iImageHandle;
; 1810 : 	if (!PyTuple_GetInteger(poArgs, 5, &iImageHandle))

  00078	8d 45 f4	 lea	 eax, DWORD PTR _iImageHandle$[ebp]
  0007b	50		 push	 eax
  0007c	6a 05		 push	 5
  0007e	56		 push	 esi
  0007f	e8 00 00 00 00	 call	 ?PyTuple_GetInteger@@YA_NPAU_object@@HPAH@Z ; PyTuple_GetInteger
  00084	83 c4 0c	 add	 esp, 12			; 0000000cH
  00087	84 c0		 test	 al, al
  00089	74 92		 je	 SHORT $LN30@wndMgrSetS

; 1811 : 	{
; 1812 : 		return Py_BuildException();
; 1813 : 	}
; 1814 : 
; 1815 : 	D3DXCOLOR diffuseColor;
; 1816 : 	PyObject* pTuple;
; 1817 : 	if (!PyTuple_GetObject(poArgs, 6, &pTuple))

  0008b	8d 45 fc	 lea	 eax, DWORD PTR _pTuple$[ebp]
  0008e	50		 push	 eax
  0008f	6a 06		 push	 6
  00091	56		 push	 esi
  00092	e8 00 00 00 00	 call	 ?PyTuple_GetObject@@YA_NPAU_object@@HPAPAU1@@Z ; PyTuple_GetObject
  00097	83 c4 0c	 add	 esp, 12			; 0000000cH
  0009a	84 c0		 test	 al, al
  0009c	75 0d		 jne	 SHORT $LN8@wndMgrSetS

; 1818 : 	{
; 1819 : 		diffuseColor = D3DXCOLOR(1.0, 1.0, 1.0, 1.0);

  0009e	0f 28 05 00 00
	00 00		 movaps	 xmm0, XMMWORD PTR __xmm@3f8000003f8000003f8000003f800000
  000a5	0f 11 45 d4	 movups	 XMMWORD PTR _diffuseColor$[ebp], xmm0

; 1820 : 		//return Py_BuildException();
; 1821 : 	}

  000a9	eb 79		 jmp	 SHORT $LN14@wndMgrSetS
$LN8@wndMgrSetS:

; 1822 : 	else
; 1823 : 		// get diffuse color from pTuple
; 1824 : 	{
; 1825 : 		if (PyTuple_Size(pTuple) != 4)

  000ab	ff 75 fc	 push	 DWORD PTR _pTuple$[ebp]
  000ae	ff 15 00 00 00
	00		 call	 DWORD PTR __imp__PyTuple_Size
  000b4	83 c4 04	 add	 esp, 4
  000b7	83 f8 04	 cmp	 eax, 4
  000ba	0f 85 5d ff ff
	ff		 jne	 $LN30@wndMgrSetS

; 1826 : 		{
; 1827 : 			return Py_BuildException();
; 1828 : 		}
; 1829 : 		if (!PyTuple_GetFloat(pTuple, 0, &diffuseColor.r))

  000c0	8d 45 d4	 lea	 eax, DWORD PTR _diffuseColor$[ebp]
  000c3	50		 push	 eax
  000c4	6a 00		 push	 0
  000c6	ff 75 fc	 push	 DWORD PTR _pTuple$[ebp]
  000c9	e8 00 00 00 00	 call	 ?PyTuple_GetFloat@@YA_NPAU_object@@HPAM@Z ; PyTuple_GetFloat
  000ce	83 c4 0c	 add	 esp, 12			; 0000000cH
  000d1	84 c0		 test	 al, al
  000d3	0f 84 44 ff ff
	ff		 je	 $LN30@wndMgrSetS

; 1830 : 		{
; 1831 : 			return Py_BuildException();
; 1832 : 		}
; 1833 : 		if (!PyTuple_GetFloat(pTuple, 1, &diffuseColor.g))

  000d9	8d 45 d8	 lea	 eax, DWORD PTR _diffuseColor$[ebp+4]
  000dc	50		 push	 eax
  000dd	6a 01		 push	 1
  000df	ff 75 fc	 push	 DWORD PTR _pTuple$[ebp]
  000e2	e8 00 00 00 00	 call	 ?PyTuple_GetFloat@@YA_NPAU_object@@HPAM@Z ; PyTuple_GetFloat
  000e7	83 c4 0c	 add	 esp, 12			; 0000000cH
  000ea	84 c0		 test	 al, al
  000ec	0f 84 2b ff ff
	ff		 je	 $LN30@wndMgrSetS

; 1834 : 		{
; 1835 : 			return Py_BuildException();
; 1836 : 		}
; 1837 : 		if (!PyTuple_GetFloat(pTuple, 2, &diffuseColor.b))

  000f2	8d 45 dc	 lea	 eax, DWORD PTR _diffuseColor$[ebp+8]
  000f5	50		 push	 eax
  000f6	6a 02		 push	 2
  000f8	ff 75 fc	 push	 DWORD PTR _pTuple$[ebp]
  000fb	e8 00 00 00 00	 call	 ?PyTuple_GetFloat@@YA_NPAU_object@@HPAM@Z ; PyTuple_GetFloat
  00100	83 c4 0c	 add	 esp, 12			; 0000000cH
  00103	84 c0		 test	 al, al
  00105	0f 84 12 ff ff
	ff		 je	 $LN30@wndMgrSetS

; 1838 : 		{
; 1839 : 			return Py_BuildException();
; 1840 : 		}
; 1841 : 		if (!PyTuple_GetFloat(pTuple, 3, &diffuseColor.a))

  0010b	8d 45 e0	 lea	 eax, DWORD PTR _diffuseColor$[ebp+12]
  0010e	50		 push	 eax
  0010f	6a 03		 push	 3
  00111	ff 75 fc	 push	 DWORD PTR _pTuple$[ebp]
  00114	e8 00 00 00 00	 call	 ?PyTuple_GetFloat@@YA_NPAU_object@@HPAM@Z ; PyTuple_GetFloat
  00119	83 c4 0c	 add	 esp, 12			; 0000000cH
  0011c	84 c0		 test	 al, al
  0011e	0f 84 f9 fe ff
	ff		 je	 $LN30@wndMgrSetS
$LN14@wndMgrSetS:

; 1842 : 		{
; 1843 : 			return Py_BuildException();
; 1844 : 		}
; 1845 : 	}
; 1846 : 
; 1847 : 	if (!pWin->IsType(UI::CSlotWindow::Type()))

  00124	e8 00 00 00 00	 call	 ?Type@CSlotWindow@UI@@SAKXZ ; UI::CSlotWindow::Type
  00129	8b 75 f8	 mov	 esi, DWORD PTR _pWin$[ebp]
  0012c	8b ce		 mov	 ecx, esi
  0012e	50		 push	 eax
  0012f	e8 00 00 00 00	 call	 ?IsType@CWindow@UI@@QAEHK@Z ; UI::CWindow::IsType
  00134	85 c0		 test	 eax, eax
  00136	0f 84 e1 fe ff
	ff		 je	 $LN30@wndMgrSetS

; 1848 : 	{
; 1849 : 		return Py_BuildException();
; 1850 : 	}
; 1851 : 
; 1852 : 	UI::CSlotWindow * pSlotWin = (UI::CSlotWindow *)pWin;
; 1853 : 	pSlotWin->SetSlot(iSlotIndex, iItemIndex, iWidth, iHeight, (CGraphicImage *)iImageHandle, diffuseColor);

  0013c	8d 45 d4	 lea	 eax, DWORD PTR _diffuseColor$[ebp]
  0013f	8b ce		 mov	 ecx, esi
  00141	50		 push	 eax
  00142	ff 75 f4	 push	 DWORD PTR _iImageHandle$[ebp]
  00145	ff 75 f0	 push	 DWORD PTR _iHeight$[ebp]
  00148	ff 75 ec	 push	 DWORD PTR _iWidth$[ebp]
  0014b	ff 75 e8	 push	 DWORD PTR _iItemIndex$[ebp]
  0014e	ff 75 e4	 push	 DWORD PTR _iSlotIndex$[ebp]
  00151	e8 00 00 00 00	 call	 ?SetSlot@CSlotWindow@UI@@QAEXKKEEPAVCGraphicImage@@AAUD3DXCOLOR@@@Z ; UI::CSlotWindow::SetSlot

; 1854 : 
; 1855 : 	return Py_BuildNone();

  00156	e8 00 00 00 00	 call	 ?Py_BuildNone@@YAPAU_object@@XZ ; Py_BuildNone
  0015b	5e		 pop	 esi

; 1856 : }

  0015c	8b e5		 mov	 esp, ebp
  0015e	5d		 pop	 ebp
  0015f	c3		 ret	 0
?wndMgrSetSlot@@YAPAU_object@@PAU1@0@Z ENDP		; wndMgrSetSlot
_TEXT	ENDS
; Function compile flags: /Ogtp
; File C:\Users\flourine\Desktop\Xantios\client-src\Code\eterPythonLib\PythonWindowManagerModule.cpp
;	COMDAT ?wndMgrHasSlot@@YAPAU_object@@PAU1@0@Z
_TEXT	SEGMENT
_iSlotIndex$ = -8					; size = 4
_pWin$ = -4						; size = 4
_poSelf$ = 8						; size = 4
_poArgs$ = 12						; size = 4
?wndMgrHasSlot@@YAPAU_object@@PAU1@0@Z PROC		; wndMgrHasSlot, COMDAT

; 1754 : {

  00000	55		 push	 ebp
  00001	8b ec		 mov	 ebp, esp
  00003	83 ec 08	 sub	 esp, 8

; 1755 : 	UI::CWindow * pWin;
; 1756 : 	if (!PyTuple_GetWindow(poArgs, 0, &pWin))

  00006	8d 45 fc	 lea	 eax, DWORD PTR _pWin$[ebp]
  00009	56		 push	 esi
  0000a	8b 75 0c	 mov	 esi, DWORD PTR _poArgs$[ebp]
  0000d	50		 push	 eax
  0000e	6a 00		 push	 0
  00010	56		 push	 esi
  00011	e8 00 00 00 00	 call	 ?PyTuple_GetWindow@@YA_NPAU_object@@HPAPAVCWindow@UI@@@Z ; PyTuple_GetWindow
  00016	83 c4 0c	 add	 esp, 12			; 0000000cH
  00019	84 c0		 test	 al, al
  0001b	75 0f		 jne	 SHORT $LN2@wndMgrHasS
$LN6@wndMgrHasS:

; 1775 : }

  0001d	6a 00		 push	 0
  0001f	e8 00 00 00 00	 call	 ?Py_BuildException@@YAPAU_object@@PBDZZ ; Py_BuildException
  00024	83 c4 04	 add	 esp, 4
  00027	5e		 pop	 esi
  00028	8b e5		 mov	 esp, ebp
  0002a	5d		 pop	 ebp
  0002b	c3		 ret	 0
$LN2@wndMgrHasS:

; 1757 : 	{
; 1758 : 		return Py_BuildException();
; 1759 : 	}
; 1760 : 
; 1761 : 	int iSlotIndex;
; 1762 : 	if (!PyTuple_GetInteger(poArgs, 1, &iSlotIndex))

  0002c	8d 45 f8	 lea	 eax, DWORD PTR _iSlotIndex$[ebp]
  0002f	50		 push	 eax
  00030	6a 01		 push	 1
  00032	56		 push	 esi
  00033	e8 00 00 00 00	 call	 ?PyTuple_GetInteger@@YA_NPAU_object@@HPAH@Z ; PyTuple_GetInteger
  00038	83 c4 0c	 add	 esp, 12			; 0000000cH
  0003b	84 c0		 test	 al, al
  0003d	74 de		 je	 SHORT $LN6@wndMgrHasS

; 1763 : 	{
; 1764 : 		return Py_BuildException();
; 1765 : 	}
; 1766 : 
; 1767 : 	if (!pWin->IsType(UI::CSlotWindow::Type()))

  0003f	e8 00 00 00 00	 call	 ?Type@CSlotWindow@UI@@SAKXZ ; UI::CSlotWindow::Type
  00044	8b 75 fc	 mov	 esi, DWORD PTR _pWin$[ebp]
  00047	8b ce		 mov	 ecx, esi
  00049	50		 push	 eax
  0004a	e8 00 00 00 00	 call	 ?IsType@CWindow@UI@@QAEHK@Z ; UI::CWindow::IsType
  0004f	85 c0		 test	 eax, eax
  00051	74 ca		 je	 SHORT $LN6@wndMgrHasS

; 1768 : 	{
; 1769 : 		return Py_BuildException();
; 1770 : 	}
; 1771 : 
; 1772 : 	UI::CSlotWindow * pSlotWin = (UI::CSlotWindow *)pWin;
; 1773 : 
; 1774 : 	return Py_BuildValue("i", pSlotWin->HasSlot(iSlotIndex));

  00053	ff 75 f8	 push	 DWORD PTR _iSlotIndex$[ebp]
  00056	8b ce		 mov	 ecx, esi
  00058	e8 00 00 00 00	 call	 ?HasSlot@CSlotWindow@UI@@QAEHK@Z ; UI::CSlotWindow::HasSlot
  0005d	50		 push	 eax
  0005e	68 00 00 00 00	 push	 OFFSET ??_C@_01KBJDNOO@i@
  00063	ff 15 00 00 00
	00		 call	 DWORD PTR __imp__Py_BuildValue
  00069	83 c4 08	 add	 esp, 8
  0006c	5e		 pop	 esi

; 1775 : }

  0006d	8b e5		 mov	 esp, ebp
  0006f	5d		 pop	 ebp
  00070	c3		 ret	 0
?wndMgrHasSlot@@YAPAU_object@@PAU1@0@Z ENDP		; wndMgrHasSlot
_TEXT	ENDS
; Function compile flags: /Ogtp
; File C:\Users\flourine\Desktop\Xantios\client-src\Code\eterPythonLib\PythonWindowManagerModule.cpp
;	COMDAT ?wndMgrClearAllSlot@@YAPAU_object@@PAU1@0@Z
_TEXT	SEGMENT
_pWin$ = -4						; size = 4
_poSelf$ = 8						; size = 4
_poArgs$ = 12						; size = 4
?wndMgrClearAllSlot@@YAPAU_object@@PAU1@0@Z PROC	; wndMgrClearAllSlot, COMDAT

; 1735 : {

  00000	55		 push	 ebp
  00001	8b ec		 mov	 ebp, esp
  00003	51		 push	 ecx

; 1736 : 	UI::CWindow * pWin;
; 1737 : 	if (!PyTuple_GetWindow(poArgs, 0, &pWin))

  00004	8d 45 fc	 lea	 eax, DWORD PTR _pWin$[ebp]
  00007	50		 push	 eax
  00008	6a 00		 push	 0
  0000a	ff 75 0c	 push	 DWORD PTR _poArgs$[ebp]
  0000d	e8 00 00 00 00	 call	 ?PyTuple_GetWindow@@YA_NPAU_object@@HPAPAVCWindow@UI@@@Z ; PyTuple_GetWindow
  00012	83 c4 0c	 add	 esp, 12			; 0000000cH
  00015	84 c0		 test	 al, al
  00017	75 0e		 jne	 SHORT $LN2@wndMgrClea
$LN5@wndMgrClea:

; 1751 : }

  00019	6a 00		 push	 0
  0001b	e8 00 00 00 00	 call	 ?Py_BuildException@@YAPAU_object@@PBDZZ ; Py_BuildException
  00020	83 c4 04	 add	 esp, 4
  00023	8b e5		 mov	 esp, ebp
  00025	5d		 pop	 ebp
  00026	c3		 ret	 0
$LN2@wndMgrClea:

; 1738 : 	{
; 1739 : 		return Py_BuildException();
; 1740 : 	}
; 1741 : 
; 1742 : 	if (!pWin->IsType(UI::CSlotWindow::Type()))

  00027	e8 00 00 00 00	 call	 ?Type@CSlotWindow@UI@@SAKXZ ; UI::CSlotWindow::Type
  0002c	8b 4d fc	 mov	 ecx, DWORD PTR _pWin$[ebp]
  0002f	50		 push	 eax
  00030	e8 00 00 00 00	 call	 ?IsType@CWindow@UI@@QAEHK@Z ; UI::CWindow::IsType
  00035	85 c0		 test	 eax, eax
  00037	74 e0		 je	 SHORT $LN5@wndMgrClea

; 1743 : 	{
; 1744 : 		return Py_BuildException();
; 1745 : 	}
; 1746 : 
; 1747 : 	UI::CSlotWindow * pSlotWin = (UI::CSlotWindow *)pWin;
; 1748 : 	pSlotWin->ClearAllSlot();

  00039	8b 4d fc	 mov	 ecx, DWORD PTR _pWin$[ebp]
  0003c	e8 00 00 00 00	 call	 ?ClearAllSlot@CSlotWindow@UI@@QAEXXZ ; UI::CSlotWindow::ClearAllSlot

; 1749 : 
; 1750 : 	return Py_BuildNone();

  00041	e8 00 00 00 00	 call	 ?Py_BuildNone@@YAPAU_object@@XZ ; Py_BuildNone

; 1751 : }

  00046	8b e5		 mov	 esp, ebp
  00048	5d		 pop	 ebp
  00049	c3		 ret	 0
?wndMgrClearAllSlot@@YAPAU_object@@PAU1@0@Z ENDP	; wndMgrClearAllSlot
_TEXT	ENDS
; Function compile flags: /Ogtp
; File C:\Users\flourine\Desktop\Xantios\client-src\Code\eterPythonLib\PythonWindowManagerModule.cpp
;	COMDAT ?wndMgrClearSlot@@YAPAU_object@@PAU1@0@Z
_TEXT	SEGMENT
_iSlotIndex$ = -8					; size = 4
_pWin$ = -4						; size = 4
_poSelf$ = 8						; size = 4
_poArgs$ = 12						; size = 4
?wndMgrClearSlot@@YAPAU_object@@PAU1@0@Z PROC		; wndMgrClearSlot, COMDAT

; 1710 : {

  00000	55		 push	 ebp
  00001	8b ec		 mov	 ebp, esp
  00003	83 ec 08	 sub	 esp, 8

; 1711 : 	UI::CWindow * pWin;
; 1712 : 	if (!PyTuple_GetWindow(poArgs, 0, &pWin))

  00006	8d 45 fc	 lea	 eax, DWORD PTR _pWin$[ebp]
  00009	56		 push	 esi
  0000a	8b 75 0c	 mov	 esi, DWORD PTR _poArgs$[ebp]
  0000d	50		 push	 eax
  0000e	6a 00		 push	 0
  00010	56		 push	 esi
  00011	e8 00 00 00 00	 call	 ?PyTuple_GetWindow@@YA_NPAU_object@@HPAPAVCWindow@UI@@@Z ; PyTuple_GetWindow
  00016	83 c4 0c	 add	 esp, 12			; 0000000cH
  00019	84 c0		 test	 al, al
  0001b	75 0f		 jne	 SHORT $LN2@wndMgrClea
$LN6@wndMgrClea:

; 1732 : }

  0001d	6a 00		 push	 0
  0001f	e8 00 00 00 00	 call	 ?Py_BuildException@@YAPAU_object@@PBDZZ ; Py_BuildException
  00024	83 c4 04	 add	 esp, 4
  00027	5e		 pop	 esi
  00028	8b e5		 mov	 esp, ebp
  0002a	5d		 pop	 ebp
  0002b	c3		 ret	 0
$LN2@wndMgrClea:

; 1713 : 	{
; 1714 : 		return Py_BuildException();
; 1715 : 	}
; 1716 : 
; 1717 : 	int iSlotIndex;
; 1718 : 	if (!PyTuple_GetInteger(poArgs, 1, &iSlotIndex))

  0002c	8d 45 f8	 lea	 eax, DWORD PTR _iSlotIndex$[ebp]
  0002f	50		 push	 eax
  00030	6a 01		 push	 1
  00032	56		 push	 esi
  00033	e8 00 00 00 00	 call	 ?PyTuple_GetInteger@@YA_NPAU_object@@HPAH@Z ; PyTuple_GetInteger
  00038	83 c4 0c	 add	 esp, 12			; 0000000cH
  0003b	84 c0		 test	 al, al
  0003d	74 de		 je	 SHORT $LN6@wndMgrClea

; 1719 : 	{
; 1720 : 		return Py_BuildException();
; 1721 : 	}
; 1722 : 
; 1723 : 	if (!pWin->IsType(UI::CSlotWindow::Type()))

  0003f	e8 00 00 00 00	 call	 ?Type@CSlotWindow@UI@@SAKXZ ; UI::CSlotWindow::Type
  00044	8b 75 fc	 mov	 esi, DWORD PTR _pWin$[ebp]
  00047	8b ce		 mov	 ecx, esi
  00049	50		 push	 eax
  0004a	e8 00 00 00 00	 call	 ?IsType@CWindow@UI@@QAEHK@Z ; UI::CWindow::IsType
  0004f	85 c0		 test	 eax, eax
  00051	74 ca		 je	 SHORT $LN6@wndMgrClea

; 1724 : 	{
; 1725 : 		return Py_BuildException();
; 1726 : 	}
; 1727 : 
; 1728 : 	UI::CSlotWindow * pSlotWin = (UI::CSlotWindow *)pWin;
; 1729 : 	pSlotWin->ClearSlot(iSlotIndex);

  00053	ff 75 f8	 push	 DWORD PTR _iSlotIndex$[ebp]
  00056	8b ce		 mov	 ecx, esi
  00058	e8 00 00 00 00	 call	 ?ClearSlot@CSlotWindow@UI@@QAEXK@Z ; UI::CSlotWindow::ClearSlot

; 1730 : 
; 1731 : 	return Py_BuildNone();

  0005d	e8 00 00 00 00	 call	 ?Py_BuildNone@@YAPAU_object@@XZ ; Py_BuildNone
  00062	5e		 pop	 esi

; 1732 : }

  00063	8b e5		 mov	 esp, ebp
  00065	5d		 pop	 ebp
  00066	c3		 ret	 0
?wndMgrClearSlot@@YAPAU_object@@PAU1@0@Z ENDP		; wndMgrClearSlot
_TEXT	ENDS
; Function compile flags: /Ogtp
; File C:\Users\flourine\Desktop\Xantios\client-src\Code\eterPythonLib\PythonWindowManagerModule.cpp
;	COMDAT ?wndMgrDisableSlotHighlightedGreen@@YAPAU_object@@PAU1@0@Z
_TEXT	SEGMENT
_iSlotIndex$ = -8					; size = 4
_pWin$ = -4						; size = 4
_poSelf$ = 8						; size = 4
_poArgs$ = 12						; size = 4
?wndMgrDisableSlotHighlightedGreen@@YAPAU_object@@PAU1@0@Z PROC ; wndMgrDisableSlotHighlightedGreen, COMDAT

; 1688 : {

  00000	55		 push	 ebp
  00001	8b ec		 mov	 ebp, esp
  00003	83 ec 08	 sub	 esp, 8

; 1689 : 	UI::CWindow* pWin;
; 1690 : 	if (!PyTuple_GetWindow(poArgs, 0, &pWin))

  00006	8d 45 fc	 lea	 eax, DWORD PTR _pWin$[ebp]
  00009	56		 push	 esi
  0000a	8b 75 0c	 mov	 esi, DWORD PTR _poArgs$[ebp]
  0000d	50		 push	 eax
  0000e	6a 00		 push	 0
  00010	56		 push	 esi
  00011	e8 00 00 00 00	 call	 ?PyTuple_GetWindow@@YA_NPAU_object@@HPAPAVCWindow@UI@@@Z ; PyTuple_GetWindow
  00016	83 c4 0c	 add	 esp, 12			; 0000000cH
  00019	84 c0		 test	 al, al
  0001b	75 0f		 jne	 SHORT $LN2@wndMgrDisa
$LN6@wndMgrDisa:

; 1706 : }

  0001d	6a 00		 push	 0
  0001f	e8 00 00 00 00	 call	 ?Py_BuildException@@YAPAU_object@@PBDZZ ; Py_BuildException
  00024	83 c4 04	 add	 esp, 4
  00027	5e		 pop	 esi
  00028	8b e5		 mov	 esp, ebp
  0002a	5d		 pop	 ebp
  0002b	c3		 ret	 0
$LN2@wndMgrDisa:

; 1691 : 	{
; 1692 : 		return Py_BuildException();
; 1693 : 	}
; 1694 : 	int iSlotIndex;
; 1695 : 	if (!PyTuple_GetInteger(poArgs, 1, &iSlotIndex))

  0002c	8d 45 f8	 lea	 eax, DWORD PTR _iSlotIndex$[ebp]
  0002f	50		 push	 eax
  00030	6a 01		 push	 1
  00032	56		 push	 esi
  00033	e8 00 00 00 00	 call	 ?PyTuple_GetInteger@@YA_NPAU_object@@HPAH@Z ; PyTuple_GetInteger
  00038	83 c4 0c	 add	 esp, 12			; 0000000cH
  0003b	84 c0		 test	 al, al
  0003d	74 de		 je	 SHORT $LN6@wndMgrDisa

; 1696 : 	{
; 1697 : 		return Py_BuildException();
; 1698 : 	}
; 1699 : 	if (!pWin->IsType(UI::CSlotWindow::Type()))

  0003f	e8 00 00 00 00	 call	 ?Type@CSlotWindow@UI@@SAKXZ ; UI::CSlotWindow::Type
  00044	8b 75 fc	 mov	 esi, DWORD PTR _pWin$[ebp]
  00047	8b ce		 mov	 ecx, esi
  00049	50		 push	 eax
  0004a	e8 00 00 00 00	 call	 ?IsType@CWindow@UI@@QAEHK@Z ; UI::CWindow::IsType
  0004f	85 c0		 test	 eax, eax
  00051	74 ca		 je	 SHORT $LN6@wndMgrDisa

; 1700 : 	{
; 1701 : 		return Py_BuildException();
; 1702 : 	}
; 1703 : 	UI::CSlotWindow* pSlotWin = (UI::CSlotWindow*)pWin;
; 1704 : 	pSlotWin->DisableSlotHighlightedGreen(iSlotIndex);

  00053	ff 75 f8	 push	 DWORD PTR _iSlotIndex$[ebp]
  00056	8b ce		 mov	 ecx, esi
  00058	e8 00 00 00 00	 call	 ?DisableSlotHighlightedGreen@CSlotWindow@UI@@QAEXK@Z ; UI::CSlotWindow::DisableSlotHighlightedGreen

; 1705 : 	return Py_BuildNone();

  0005d	e8 00 00 00 00	 call	 ?Py_BuildNone@@YAPAU_object@@XZ ; Py_BuildNone
  00062	5e		 pop	 esi

; 1706 : }

  00063	8b e5		 mov	 esp, ebp
  00065	5d		 pop	 ebp
  00066	c3		 ret	 0
?wndMgrDisableSlotHighlightedGreen@@YAPAU_object@@PAU1@0@Z ENDP ; wndMgrDisableSlotHighlightedGreen
_TEXT	ENDS
; Function compile flags: /Ogtp
; File C:\Users\flourine\Desktop\Xantios\client-src\Code\eterPythonLib\PythonWindowManagerModule.cpp
;	COMDAT ?wndMgrSetSlotHighlightedGreeen@@YAPAU_object@@PAU1@0@Z
_TEXT	SEGMENT
_iSlotIndex$ = -8					; size = 4
_pWin$ = -4						; size = 4
_poSelf$ = 8						; size = 4
_poArgs$ = 12						; size = 4
?wndMgrSetSlotHighlightedGreeen@@YAPAU_object@@PAU1@0@Z PROC ; wndMgrSetSlotHighlightedGreeen, COMDAT

; 1667 : {

  00000	55		 push	 ebp
  00001	8b ec		 mov	 ebp, esp
  00003	83 ec 08	 sub	 esp, 8

; 1668 : 	UI::CWindow* pWin;
; 1669 : 	if (!PyTuple_GetWindow(poArgs, 0, &pWin))

  00006	8d 45 fc	 lea	 eax, DWORD PTR _pWin$[ebp]
  00009	56		 push	 esi
  0000a	8b 75 0c	 mov	 esi, DWORD PTR _poArgs$[ebp]
  0000d	50		 push	 eax
  0000e	6a 00		 push	 0
  00010	56		 push	 esi
  00011	e8 00 00 00 00	 call	 ?PyTuple_GetWindow@@YA_NPAU_object@@HPAPAVCWindow@UI@@@Z ; PyTuple_GetWindow
  00016	83 c4 0c	 add	 esp, 12			; 0000000cH
  00019	84 c0		 test	 al, al
  0001b	75 0f		 jne	 SHORT $LN2@wndMgrSetS
$LN6@wndMgrSetS:

; 1685 : }

  0001d	6a 00		 push	 0
  0001f	e8 00 00 00 00	 call	 ?Py_BuildException@@YAPAU_object@@PBDZZ ; Py_BuildException
  00024	83 c4 04	 add	 esp, 4
  00027	5e		 pop	 esi
  00028	8b e5		 mov	 esp, ebp
  0002a	5d		 pop	 ebp
  0002b	c3		 ret	 0
$LN2@wndMgrSetS:

; 1670 : 	{
; 1671 : 		return Py_BuildException();
; 1672 : 	}
; 1673 : 	int iSlotIndex;
; 1674 : 	if (!PyTuple_GetInteger(poArgs, 1, &iSlotIndex))

  0002c	8d 45 f8	 lea	 eax, DWORD PTR _iSlotIndex$[ebp]
  0002f	50		 push	 eax
  00030	6a 01		 push	 1
  00032	56		 push	 esi
  00033	e8 00 00 00 00	 call	 ?PyTuple_GetInteger@@YA_NPAU_object@@HPAH@Z ; PyTuple_GetInteger
  00038	83 c4 0c	 add	 esp, 12			; 0000000cH
  0003b	84 c0		 test	 al, al
  0003d	74 de		 je	 SHORT $LN6@wndMgrSetS

; 1675 : 	{
; 1676 : 		return Py_BuildException();
; 1677 : 	}
; 1678 : 	if (!pWin->IsType(UI::CSlotWindow::Type()))

  0003f	e8 00 00 00 00	 call	 ?Type@CSlotWindow@UI@@SAKXZ ; UI::CSlotWindow::Type
  00044	8b 75 fc	 mov	 esi, DWORD PTR _pWin$[ebp]
  00047	8b ce		 mov	 ecx, esi
  00049	50		 push	 eax
  0004a	e8 00 00 00 00	 call	 ?IsType@CWindow@UI@@QAEHK@Z ; UI::CWindow::IsType
  0004f	85 c0		 test	 eax, eax
  00051	74 ca		 je	 SHORT $LN6@wndMgrSetS

; 1679 : 	{
; 1680 : 		return Py_BuildException();
; 1681 : 	}
; 1682 : 	UI::CSlotWindow* pSlotWin = static_cast<UI::CSlotWindow*>(pWin);
; 1683 : 	pSlotWin->SetSlotHighlightedGreeen(iSlotIndex);

  00053	ff 75 f8	 push	 DWORD PTR _iSlotIndex$[ebp]
  00056	8b ce		 mov	 ecx, esi
  00058	e8 00 00 00 00	 call	 ?SetSlotHighlightedGreeen@CSlotWindow@UI@@QAEXK@Z ; UI::CSlotWindow::SetSlotHighlightedGreeen

; 1684 : 	return Py_BuildNone();

  0005d	e8 00 00 00 00	 call	 ?Py_BuildNone@@YAPAU_object@@XZ ; Py_BuildNone
  00062	5e		 pop	 esi

; 1685 : }

  00063	8b e5		 mov	 esp, ebp
  00065	5d		 pop	 ebp
  00066	c3		 ret	 0
?wndMgrSetSlotHighlightedGreeen@@YAPAU_object@@PAU1@0@Z ENDP ; wndMgrSetSlotHighlightedGreeen
_TEXT	ENDS
; Function compile flags: /Ogtp
; File C:\Users\flourine\Desktop\Xantios\client-src\Code\eterPythonLib\PythonWindowManagerModule.cpp
;	COMDAT ?wndMgrGetPickedSlotNumber@@YAPAU_object@@PAU1@0@Z
_TEXT	SEGMENT
_pSlot$ = -12						; size = 4
_pWin$ = -8						; size = 4
_focusItem$ = -4					; size = 1
_poSelf$ = 8						; size = 4
_poArgs$ = 12						; size = 4
?wndMgrGetPickedSlotNumber@@YAPAU_object@@PAU1@0@Z PROC	; wndMgrGetPickedSlotNumber, COMDAT

; 1646 : {

  00000	55		 push	 ebp
  00001	8b ec		 mov	 ebp, esp
  00003	83 ec 0c	 sub	 esp, 12			; 0000000cH

; 1647 : 	UI::CWindow* pWin;
; 1648 : 	if (!PyTuple_GetWindow(poArgs, 0, &pWin))

  00006	8d 45 f8	 lea	 eax, DWORD PTR _pWin$[ebp]
  00009	50		 push	 eax
  0000a	6a 00		 push	 0
  0000c	ff 75 0c	 push	 DWORD PTR _poArgs$[ebp]
  0000f	e8 00 00 00 00	 call	 ?PyTuple_GetWindow@@YA_NPAU_object@@HPAPAVCWindow@UI@@@Z ; PyTuple_GetWindow
  00014	83 c4 0c	 add	 esp, 12			; 0000000cH
  00017	84 c0		 test	 al, al
  00019	75 09		 jne	 SHORT $LN2@wndMgrGetP

; 1649 : 	{
; 1650 : 		return Py_BadArgument();

  0001b	e8 00 00 00 00	 call	 ?Py_BadArgument@@YAPAU_object@@XZ ; Py_BadArgument

; 1663 : }

  00020	8b e5		 mov	 esp, ebp
  00022	5d		 pop	 ebp
  00023	c3		 ret	 0
$LN2@wndMgrGetP:

; 1651 : 	}
; 1652 : 	bool focusItem;
; 1653 : 	if (!PyTuple_GetBoolean(poArgs, 1, &focusItem))

  00024	8d 45 fc	 lea	 eax, DWORD PTR _focusItem$[ebp]
  00027	50		 push	 eax
  00028	6a 01		 push	 1
  0002a	ff 75 0c	 push	 DWORD PTR _poArgs$[ebp]
  0002d	e8 00 00 00 00	 call	 ?PyTuple_GetBoolean@@YA_NPAU_object@@HPA_N@Z ; PyTuple_GetBoolean
  00032	0f b6 4d fc	 movzx	 ecx, BYTE PTR _focusItem$[ebp]
  00036	83 c4 0c	 add	 esp, 12			; 0000000cH
  00039	84 c0		 test	 al, al
  0003b	ba 01 00 00 00	 mov	 edx, 1

; 1654 : 	{
; 1655 : 		focusItem = true;
; 1656 : 	}
; 1657 : 
; 1658 : 	UI::CGridSlotWindow* pSlotWin = (UI::CGridSlotWindow*)pWin;
; 1659 : 	UI::CSlotWindow::TSlot* pSlot;
; 1660 : 	pSlotWin->GetPickedSlotPointer(&pSlot, focusItem);

  00040	8d 45 f4	 lea	 eax, DWORD PTR _pSlot$[ebp]
  00043	0f 44 ca	 cmove	 ecx, edx
  00046	88 4d fc	 mov	 BYTE PTR _focusItem$[ebp], cl
  00049	ff 75 fc	 push	 DWORD PTR _focusItem$[ebp]
  0004c	8b 4d f8	 mov	 ecx, DWORD PTR _pWin$[ebp]
  0004f	50		 push	 eax
  00050	e8 00 00 00 00	 call	 ?GetPickedSlotPointer@CGridSlotWindow@UI@@QAEHPAPAUSSlot@CSlotWindow@2@_N@Z ; UI::CGridSlotWindow::GetPickedSlotPointer

; 1661 : 
; 1662 : 	return Py_BuildValue("i", pSlot ? (int)pSlot->dwSlotNumber : -1);

  00055	8b 45 f4	 mov	 eax, DWORD PTR _pSlot$[ebp]
  00058	85 c0		 test	 eax, eax
  0005a	74 16		 je	 SHORT $LN5@wndMgrGetP
  0005c	8b 40 04	 mov	 eax, DWORD PTR [eax+4]
  0005f	50		 push	 eax
  00060	68 00 00 00 00	 push	 OFFSET ??_C@_01KBJDNOO@i@
  00065	ff 15 00 00 00
	00		 call	 DWORD PTR __imp__Py_BuildValue
  0006b	83 c4 08	 add	 esp, 8

; 1663 : }

  0006e	8b e5		 mov	 esp, ebp
  00070	5d		 pop	 ebp
  00071	c3		 ret	 0
$LN5@wndMgrGetP:

; 1661 : 
; 1662 : 	return Py_BuildValue("i", pSlot ? (int)pSlot->dwSlotNumber : -1);

  00072	83 c8 ff	 or	 eax, -1
  00075	50		 push	 eax
  00076	68 00 00 00 00	 push	 OFFSET ??_C@_01KBJDNOO@i@
  0007b	ff 15 00 00 00
	00		 call	 DWORD PTR __imp__Py_BuildValue
  00081	83 c4 08	 add	 esp, 8

; 1663 : }

  00084	8b e5		 mov	 esp, ebp
  00086	5d		 pop	 ebp
  00087	c3		 ret	 0
?wndMgrGetPickedSlotNumber@@YAPAU_object@@PAU1@0@Z ENDP	; wndMgrGetPickedSlotNumber
_TEXT	ENDS
; Function compile flags: /Ogtp
; File C:\Users\flourine\Desktop\Xantios\client-src\Code\eterPythonLib\PythonWindowManagerModule.cpp
;	COMDAT ?wndMgrIsSwitchableItem@@YAPAU_object@@PAU1@0@Z
_TEXT	SEGMENT
_pWin$ = -4						; size = 4
_poSelf$ = 8						; size = 4
_poArgs$ = 12						; size = 4
?wndMgrIsSwitchableItem@@YAPAU_object@@PAU1@0@Z PROC	; wndMgrIsSwitchableItem, COMDAT

; 1629 : {

  00000	55		 push	 ebp
  00001	8b ec		 mov	 ebp, esp
  00003	51		 push	 ecx

; 1630 : 	UI::CWindow* pWin;
; 1631 : 	if (!PyTuple_GetWindow(poArgs, 0, &pWin))

  00004	8d 45 fc	 lea	 eax, DWORD PTR _pWin$[ebp]
  00007	50		 push	 eax
  00008	6a 00		 push	 0
  0000a	ff 75 0c	 push	 DWORD PTR _poArgs$[ebp]
  0000d	e8 00 00 00 00	 call	 ?PyTuple_GetWindow@@YA_NPAU_object@@HPAPAVCWindow@UI@@@Z ; PyTuple_GetWindow
  00012	83 c4 0c	 add	 esp, 12			; 0000000cH
  00015	84 c0		 test	 al, al
  00017	75 09		 jne	 SHORT $LN2@wndMgrIsSw
$LN5@wndMgrIsSw:

; 1643 : }

  00019	e8 00 00 00 00	 call	 ?Py_BadArgument@@YAPAU_object@@XZ ; Py_BadArgument
  0001e	8b e5		 mov	 esp, ebp
  00020	5d		 pop	 ebp
  00021	c3		 ret	 0
$LN2@wndMgrIsSw:

; 1632 : 	{
; 1633 : 		return Py_BadArgument();
; 1634 : 	}
; 1635 : 
; 1636 : 	if (!pWin->IsType(UI::CSlotWindow::Type()))

  00022	e8 00 00 00 00	 call	 ?Type@CSlotWindow@UI@@SAKXZ ; UI::CSlotWindow::Type
  00027	8b 4d fc	 mov	 ecx, DWORD PTR _pWin$[ebp]
  0002a	50		 push	 eax
  0002b	e8 00 00 00 00	 call	 ?IsType@CWindow@UI@@QAEHK@Z ; UI::CWindow::IsType
  00030	85 c0		 test	 eax, eax
  00032	74 e5		 je	 SHORT $LN5@wndMgrIsSw

; 1637 : 	{
; 1638 : 		return Py_BadArgument();
; 1639 : 	}
; 1640 : 
; 1641 : 	UI::CSlotWindow* pSlotWin = (UI::CSlotWindow*)pWin;
; 1642 : 	return Py_BuildValue("b", pSlotWin->IsSwitchableItem());

  00034	8b 4d fc	 mov	 ecx, DWORD PTR _pWin$[ebp]
  00037	e8 00 00 00 00	 call	 ?IsSwitchableItem@CSlotWindow@UI@@QBEHXZ ; UI::CSlotWindow::IsSwitchableItem
  0003c	50		 push	 eax
  0003d	68 00 00 00 00	 push	 OFFSET ??_C@_01OJONOECF@b@
  00042	ff 15 00 00 00
	00		 call	 DWORD PTR __imp__Py_BuildValue
  00048	83 c4 08	 add	 esp, 8

; 1643 : }

  0004b	8b e5		 mov	 esp, ebp
  0004d	5d		 pop	 ebp
  0004e	c3		 ret	 0
?wndMgrIsSwitchableItem@@YAPAU_object@@PAU1@0@Z ENDP	; wndMgrIsSwitchableItem
_TEXT	ENDS
; Function compile flags: /Ogtp
; File C:\Users\flourine\Desktop\Xantios\client-src\Code\eterPythonLib\PythonWindowManagerModule.cpp
;	COMDAT ?wndMgrSetSwitchableItem@@YAPAU_object@@PAU1@0@Z
_TEXT	SEGMENT
_iFlag$ = -8						; size = 4
_pWin$ = -4						; size = 4
_poSelf$ = 8						; size = 4
_poArgs$ = 12						; size = 4
?wndMgrSetSwitchableItem@@YAPAU_object@@PAU1@0@Z PROC	; wndMgrSetSwitchableItem, COMDAT

; 1605 : {

  00000	55		 push	 ebp
  00001	8b ec		 mov	 ebp, esp
  00003	83 ec 08	 sub	 esp, 8

; 1606 : 	UI::CWindow* pWin;
; 1607 : 	if (!PyTuple_GetWindow(poArgs, 0, &pWin))

  00006	8d 45 fc	 lea	 eax, DWORD PTR _pWin$[ebp]
  00009	56		 push	 esi
  0000a	8b 75 0c	 mov	 esi, DWORD PTR _poArgs$[ebp]
  0000d	50		 push	 eax
  0000e	6a 00		 push	 0
  00010	56		 push	 esi
  00011	e8 00 00 00 00	 call	 ?PyTuple_GetWindow@@YA_NPAU_object@@HPAPAVCWindow@UI@@@Z ; PyTuple_GetWindow
  00016	83 c4 0c	 add	 esp, 12			; 0000000cH
  00019	84 c0		 test	 al, al
  0001b	75 0a		 jne	 SHORT $LN2@wndMgrSetS
$LN6@wndMgrSetS:

; 1626 : }

  0001d	e8 00 00 00 00	 call	 ?Py_BadArgument@@YAPAU_object@@XZ ; Py_BadArgument
  00022	5e		 pop	 esi
  00023	8b e5		 mov	 esp, ebp
  00025	5d		 pop	 ebp
  00026	c3		 ret	 0
$LN2@wndMgrSetS:

; 1608 : 	{
; 1609 : 		return Py_BadArgument();
; 1610 : 	}
; 1611 : 	int iFlag;
; 1612 : 	if (!PyTuple_GetInteger(poArgs, 1, &iFlag))

  00027	8d 45 f8	 lea	 eax, DWORD PTR _iFlag$[ebp]
  0002a	50		 push	 eax
  0002b	6a 01		 push	 1
  0002d	56		 push	 esi
  0002e	e8 00 00 00 00	 call	 ?PyTuple_GetInteger@@YA_NPAU_object@@HPAH@Z ; PyTuple_GetInteger
  00033	83 c4 0c	 add	 esp, 12			; 0000000cH
  00036	84 c0		 test	 al, al
  00038	74 e3		 je	 SHORT $LN6@wndMgrSetS

; 1613 : 	{
; 1614 : 		return Py_BadArgument();
; 1615 : 	}
; 1616 : 
; 1617 : 	if (!pWin->IsType(UI::CSlotWindow::Type()))

  0003a	e8 00 00 00 00	 call	 ?Type@CSlotWindow@UI@@SAKXZ ; UI::CSlotWindow::Type
  0003f	8b 75 fc	 mov	 esi, DWORD PTR _pWin$[ebp]
  00042	8b ce		 mov	 ecx, esi
  00044	50		 push	 eax
  00045	e8 00 00 00 00	 call	 ?IsType@CWindow@UI@@QAEHK@Z ; UI::CWindow::IsType
  0004a	85 c0		 test	 eax, eax
  0004c	74 cf		 je	 SHORT $LN6@wndMgrSetS

; 1618 : 	{
; 1619 : 		return Py_BadArgument();
; 1620 : 	}
; 1621 : 
; 1622 : 	UI::CSlotWindow* pSlotWin = (UI::CSlotWindow*)pWin;
; 1623 : 	pSlotWin->SetSwitchableItem(iFlag);

  0004e	ff 75 f8	 push	 DWORD PTR _iFlag$[ebp]
  00051	8b ce		 mov	 ecx, esi
  00053	e8 00 00 00 00	 call	 ?SetSwitchableItem@CSlotWindow@UI@@QAEXH@Z ; UI::CSlotWindow::SetSwitchableItem

; 1624 : 
; 1625 : 	return Py_BuildNone();

  00058	e8 00 00 00 00	 call	 ?Py_BuildNone@@YAPAU_object@@XZ ; Py_BuildNone
  0005d	5e		 pop	 esi

; 1626 : }

  0005e	8b e5		 mov	 esp, ebp
  00060	5d		 pop	 ebp
  00061	c3		 ret	 0
?wndMgrSetSwitchableItem@@YAPAU_object@@PAU1@0@Z ENDP	; wndMgrSetSwitchableItem
_TEXT	ENDS
; Function compile flags: /Ogtp
; File C:\Users\flourine\Desktop\Xantios\client-src\Code\eterPythonLib\PythonWindowManagerModule.cpp
;	COMDAT ?wndMgrIsSwitchMode@@YAPAU_object@@PAU1@0@Z
_TEXT	SEGMENT
_pWin$ = -4						; size = 4
_poSelf$ = 8						; size = 4
_poArgs$ = 12						; size = 4
?wndMgrIsSwitchMode@@YAPAU_object@@PAU1@0@Z PROC	; wndMgrIsSwitchMode, COMDAT

; 1588 : {

  00000	55		 push	 ebp
  00001	8b ec		 mov	 ebp, esp
  00003	51		 push	 ecx

; 1589 : 	UI::CWindow* pWin;
; 1590 : 	if (!PyTuple_GetWindow(poArgs, 0, &pWin))

  00004	8d 45 fc	 lea	 eax, DWORD PTR _pWin$[ebp]
  00007	50		 push	 eax
  00008	6a 00		 push	 0
  0000a	ff 75 0c	 push	 DWORD PTR _poArgs$[ebp]
  0000d	e8 00 00 00 00	 call	 ?PyTuple_GetWindow@@YA_NPAU_object@@HPAPAVCWindow@UI@@@Z ; PyTuple_GetWindow
  00012	83 c4 0c	 add	 esp, 12			; 0000000cH
  00015	84 c0		 test	 al, al
  00017	75 09		 jne	 SHORT $LN2@wndMgrIsSw
$LN5@wndMgrIsSw:

; 1602 : }

  00019	e8 00 00 00 00	 call	 ?Py_BadArgument@@YAPAU_object@@XZ ; Py_BadArgument
  0001e	8b e5		 mov	 esp, ebp
  00020	5d		 pop	 ebp
  00021	c3		 ret	 0
$LN2@wndMgrIsSw:

; 1591 : 	{
; 1592 : 		return Py_BadArgument();
; 1593 : 	}
; 1594 : 
; 1595 : 	if (!pWin->IsType(UI::CSlotWindow::Type()))

  00022	e8 00 00 00 00	 call	 ?Type@CSlotWindow@UI@@SAKXZ ; UI::CSlotWindow::Type
  00027	8b 4d fc	 mov	 ecx, DWORD PTR _pWin$[ebp]
  0002a	50		 push	 eax
  0002b	e8 00 00 00 00	 call	 ?IsType@CWindow@UI@@QAEHK@Z ; UI::CWindow::IsType
  00030	85 c0		 test	 eax, eax
  00032	74 e5		 je	 SHORT $LN5@wndMgrIsSw

; 1596 : 	{
; 1597 : 		return Py_BadArgument();
; 1598 : 	}
; 1599 : 
; 1600 : 	UI::CSlotWindow* pSlotWin = (UI::CSlotWindow*)pWin;
; 1601 : 	return Py_BuildValue("b", pSlotWin->IsSwitchMode());

  00034	8b 4d fc	 mov	 ecx, DWORD PTR _pWin$[ebp]
  00037	e8 00 00 00 00	 call	 ?IsSwitchMode@CSlotWindow@UI@@QBEHXZ ; UI::CSlotWindow::IsSwitchMode
  0003c	50		 push	 eax
  0003d	68 00 00 00 00	 push	 OFFSET ??_C@_01OJONOECF@b@
  00042	ff 15 00 00 00
	00		 call	 DWORD PTR __imp__Py_BuildValue
  00048	83 c4 08	 add	 esp, 8

; 1602 : }

  0004b	8b e5		 mov	 esp, ebp
  0004d	5d		 pop	 ebp
  0004e	c3		 ret	 0
?wndMgrIsSwitchMode@@YAPAU_object@@PAU1@0@Z ENDP	; wndMgrIsSwitchMode
_TEXT	ENDS
; Function compile flags: /Ogtp
; File C:\Users\flourine\Desktop\Xantios\client-src\Code\eterPythonLib\PythonWindowManagerModule.cpp
;	COMDAT ?wndMgrSetSwitchMode@@YAPAU_object@@PAU1@0@Z
_TEXT	SEGMENT
_iFlag$ = -8						; size = 4
_pWin$ = -4						; size = 4
_poSelf$ = 8						; size = 4
_poArgs$ = 12						; size = 4
?wndMgrSetSwitchMode@@YAPAU_object@@PAU1@0@Z PROC	; wndMgrSetSwitchMode, COMDAT

; 1564 : {

  00000	55		 push	 ebp
  00001	8b ec		 mov	 ebp, esp
  00003	83 ec 08	 sub	 esp, 8

; 1565 : 	UI::CWindow* pWin;
; 1566 : 	if (!PyTuple_GetWindow(poArgs, 0, &pWin))

  00006	8d 45 fc	 lea	 eax, DWORD PTR _pWin$[ebp]
  00009	56		 push	 esi
  0000a	8b 75 0c	 mov	 esi, DWORD PTR _poArgs$[ebp]
  0000d	50		 push	 eax
  0000e	6a 00		 push	 0
  00010	56		 push	 esi
  00011	e8 00 00 00 00	 call	 ?PyTuple_GetWindow@@YA_NPAU_object@@HPAPAVCWindow@UI@@@Z ; PyTuple_GetWindow
  00016	83 c4 0c	 add	 esp, 12			; 0000000cH
  00019	84 c0		 test	 al, al
  0001b	75 0a		 jne	 SHORT $LN2@wndMgrSetS
$LN6@wndMgrSetS:

; 1585 : }

  0001d	e8 00 00 00 00	 call	 ?Py_BadArgument@@YAPAU_object@@XZ ; Py_BadArgument
  00022	5e		 pop	 esi
  00023	8b e5		 mov	 esp, ebp
  00025	5d		 pop	 ebp
  00026	c3		 ret	 0
$LN2@wndMgrSetS:

; 1567 : 	{
; 1568 : 		return Py_BadArgument();
; 1569 : 	}
; 1570 : 	int iFlag;
; 1571 : 	if (!PyTuple_GetInteger(poArgs, 1, &iFlag))

  00027	8d 45 f8	 lea	 eax, DWORD PTR _iFlag$[ebp]
  0002a	50		 push	 eax
  0002b	6a 01		 push	 1
  0002d	56		 push	 esi
  0002e	e8 00 00 00 00	 call	 ?PyTuple_GetInteger@@YA_NPAU_object@@HPAH@Z ; PyTuple_GetInteger
  00033	83 c4 0c	 add	 esp, 12			; 0000000cH
  00036	84 c0		 test	 al, al
  00038	74 e3		 je	 SHORT $LN6@wndMgrSetS

; 1572 : 	{
; 1573 : 		return Py_BadArgument();
; 1574 : 	}
; 1575 : 
; 1576 : 	if (!pWin->IsType(UI::CSlotWindow::Type()))

  0003a	e8 00 00 00 00	 call	 ?Type@CSlotWindow@UI@@SAKXZ ; UI::CSlotWindow::Type
  0003f	8b 75 fc	 mov	 esi, DWORD PTR _pWin$[ebp]
  00042	8b ce		 mov	 ecx, esi
  00044	50		 push	 eax
  00045	e8 00 00 00 00	 call	 ?IsType@CWindow@UI@@QAEHK@Z ; UI::CWindow::IsType
  0004a	85 c0		 test	 eax, eax
  0004c	74 cf		 je	 SHORT $LN6@wndMgrSetS

; 1577 : 	{
; 1578 : 		return Py_BadArgument();
; 1579 : 	}
; 1580 : 
; 1581 : 	UI::CSlotWindow* pSlotWin = (UI::CSlotWindow*)pWin;
; 1582 : 	pSlotWin->SetSwitchMode(iFlag);

  0004e	ff 75 f8	 push	 DWORD PTR _iFlag$[ebp]
  00051	8b ce		 mov	 ecx, esi
  00053	e8 00 00 00 00	 call	 ?SetSwitchMode@CSlotWindow@UI@@QAEXH@Z ; UI::CSlotWindow::SetSwitchMode

; 1583 : 
; 1584 : 	return Py_BuildNone();

  00058	e8 00 00 00 00	 call	 ?Py_BuildNone@@YAPAU_object@@XZ ; Py_BuildNone
  0005d	5e		 pop	 esi

; 1585 : }

  0005e	8b e5		 mov	 esp, ebp
  00060	5d		 pop	 ebp
  00061	c3		 ret	 0
?wndMgrSetSwitchMode@@YAPAU_object@@PAU1@0@Z ENDP	; wndMgrSetSwitchMode
_TEXT	ENDS
; Function compile flags: /Ogtp
; File C:\Users\flourine\Desktop\Xantios\client-src\Code\eterPythonLib\PythonWindowManagerModule.cpp
;	COMDAT ?wndMgrIsUsableItem@@YAPAU_object@@PAU1@0@Z
_TEXT	SEGMENT
_pWin$ = -4						; size = 4
_poSelf$ = 8						; size = 4
_poArgs$ = 12						; size = 4
?wndMgrIsUsableItem@@YAPAU_object@@PAU1@0@Z PROC	; wndMgrIsUsableItem, COMDAT

; 1547 : {

  00000	55		 push	 ebp
  00001	8b ec		 mov	 ebp, esp
  00003	51		 push	 ecx

; 1548 : 	UI::CWindow* pWin;
; 1549 : 	if (!PyTuple_GetWindow(poArgs, 0, &pWin))

  00004	8d 45 fc	 lea	 eax, DWORD PTR _pWin$[ebp]
  00007	50		 push	 eax
  00008	6a 00		 push	 0
  0000a	ff 75 0c	 push	 DWORD PTR _poArgs$[ebp]
  0000d	e8 00 00 00 00	 call	 ?PyTuple_GetWindow@@YA_NPAU_object@@HPAPAVCWindow@UI@@@Z ; PyTuple_GetWindow
  00012	83 c4 0c	 add	 esp, 12			; 0000000cH
  00015	84 c0		 test	 al, al
  00017	75 09		 jne	 SHORT $LN2@wndMgrIsUs
$LN5@wndMgrIsUs:

; 1561 : }

  00019	e8 00 00 00 00	 call	 ?Py_BadArgument@@YAPAU_object@@XZ ; Py_BadArgument
  0001e	8b e5		 mov	 esp, ebp
  00020	5d		 pop	 ebp
  00021	c3		 ret	 0
$LN2@wndMgrIsUs:

; 1550 : 	{
; 1551 : 		return Py_BadArgument();
; 1552 : 	}
; 1553 : 
; 1554 : 	if (!pWin->IsType(UI::CSlotWindow::Type()))

  00022	e8 00 00 00 00	 call	 ?Type@CSlotWindow@UI@@SAKXZ ; UI::CSlotWindow::Type
  00027	8b 4d fc	 mov	 ecx, DWORD PTR _pWin$[ebp]
  0002a	50		 push	 eax
  0002b	e8 00 00 00 00	 call	 ?IsType@CWindow@UI@@QAEHK@Z ; UI::CWindow::IsType
  00030	85 c0		 test	 eax, eax
  00032	74 e5		 je	 SHORT $LN5@wndMgrIsUs

; 1555 : 	{
; 1556 : 		return Py_BadArgument();
; 1557 : 	}
; 1558 : 
; 1559 : 	UI::CSlotWindow* pSlotWin = (UI::CSlotWindow*)pWin;
; 1560 : 	return Py_BuildValue("b", pSlotWin->IsUsableItem());

  00034	8b 4d fc	 mov	 ecx, DWORD PTR _pWin$[ebp]
  00037	e8 00 00 00 00	 call	 ?IsUsableItem@CSlotWindow@UI@@QBEHXZ ; UI::CSlotWindow::IsUsableItem
  0003c	50		 push	 eax
  0003d	68 00 00 00 00	 push	 OFFSET ??_C@_01OJONOECF@b@
  00042	ff 15 00 00 00
	00		 call	 DWORD PTR __imp__Py_BuildValue
  00048	83 c4 08	 add	 esp, 8

; 1561 : }

  0004b	8b e5		 mov	 esp, ebp
  0004d	5d		 pop	 ebp
  0004e	c3		 ret	 0
?wndMgrIsUsableItem@@YAPAU_object@@PAU1@0@Z ENDP	; wndMgrIsUsableItem
_TEXT	ENDS
; Function compile flags: /Ogtp
; File C:\Users\flourine\Desktop\Xantios\client-src\Code\eterPythonLib\PythonWindowManagerModule.cpp
;	COMDAT ?wndMgrSetUsableItem@@YAPAU_object@@PAU1@0@Z
_TEXT	SEGMENT
_iFlag$ = -8						; size = 4
_pWin$ = -4						; size = 4
_poSelf$ = 8						; size = 4
_poArgs$ = 12						; size = 4
?wndMgrSetUsableItem@@YAPAU_object@@PAU1@0@Z PROC	; wndMgrSetUsableItem, COMDAT

; 1523 : {

  00000	55		 push	 ebp
  00001	8b ec		 mov	 ebp, esp
  00003	83 ec 08	 sub	 esp, 8

; 1524 : 	UI::CWindow * pWin;
; 1525 : 	if (!PyTuple_GetWindow(poArgs, 0, &pWin))

  00006	8d 45 fc	 lea	 eax, DWORD PTR _pWin$[ebp]
  00009	56		 push	 esi
  0000a	8b 75 0c	 mov	 esi, DWORD PTR _poArgs$[ebp]
  0000d	50		 push	 eax
  0000e	6a 00		 push	 0
  00010	56		 push	 esi
  00011	e8 00 00 00 00	 call	 ?PyTuple_GetWindow@@YA_NPAU_object@@HPAPAVCWindow@UI@@@Z ; PyTuple_GetWindow
  00016	83 c4 0c	 add	 esp, 12			; 0000000cH
  00019	84 c0		 test	 al, al
  0001b	75 0f		 jne	 SHORT $LN2@wndMgrSetU
$LN6@wndMgrSetU:

; 1544 : }

  0001d	6a 00		 push	 0
  0001f	e8 00 00 00 00	 call	 ?Py_BuildException@@YAPAU_object@@PBDZZ ; Py_BuildException
  00024	83 c4 04	 add	 esp, 4
  00027	5e		 pop	 esi
  00028	8b e5		 mov	 esp, ebp
  0002a	5d		 pop	 ebp
  0002b	c3		 ret	 0
$LN2@wndMgrSetU:

; 1526 : 	{
; 1527 : 		return Py_BuildException();
; 1528 : 	}
; 1529 : 	int iFlag;
; 1530 : 	if (!PyTuple_GetInteger(poArgs, 1, &iFlag))

  0002c	8d 45 f8	 lea	 eax, DWORD PTR _iFlag$[ebp]
  0002f	50		 push	 eax
  00030	6a 01		 push	 1
  00032	56		 push	 esi
  00033	e8 00 00 00 00	 call	 ?PyTuple_GetInteger@@YA_NPAU_object@@HPAH@Z ; PyTuple_GetInteger
  00038	83 c4 0c	 add	 esp, 12			; 0000000cH
  0003b	84 c0		 test	 al, al
  0003d	74 de		 je	 SHORT $LN6@wndMgrSetU

; 1531 : 	{
; 1532 : 		return Py_BuildException();
; 1533 : 	}
; 1534 : 
; 1535 : 	if (!pWin->IsType(UI::CSlotWindow::Type()))

  0003f	e8 00 00 00 00	 call	 ?Type@CSlotWindow@UI@@SAKXZ ; UI::CSlotWindow::Type
  00044	8b 75 fc	 mov	 esi, DWORD PTR _pWin$[ebp]
  00047	8b ce		 mov	 ecx, esi
  00049	50		 push	 eax
  0004a	e8 00 00 00 00	 call	 ?IsType@CWindow@UI@@QAEHK@Z ; UI::CWindow::IsType
  0004f	85 c0		 test	 eax, eax
  00051	74 ca		 je	 SHORT $LN6@wndMgrSetU

; 1536 : 	{
; 1537 : 		return Py_BuildException();
; 1538 : 	}
; 1539 : 
; 1540 : 	UI::CSlotWindow* pSlotWin = static_cast<UI::CSlotWindow*>(pWin);
; 1541 : 	pSlotWin->SetUsableItem(iFlag);

  00053	ff 75 f8	 push	 DWORD PTR _iFlag$[ebp]
  00056	8b ce		 mov	 ecx, esi
  00058	e8 00 00 00 00	 call	 ?SetUsableItem@CSlotWindow@UI@@QAEXH@Z ; UI::CSlotWindow::SetUsableItem

; 1542 : 
; 1543 : 	return Py_BuildNone();

  0005d	e8 00 00 00 00	 call	 ?Py_BuildNone@@YAPAU_object@@XZ ; Py_BuildNone
  00062	5e		 pop	 esi

; 1544 : }

  00063	8b e5		 mov	 esp, ebp
  00065	5d		 pop	 ebp
  00066	c3		 ret	 0
?wndMgrSetUsableItem@@YAPAU_object@@PAU1@0@Z ENDP	; wndMgrSetUsableItem
_TEXT	ENDS
; Function compile flags: /Ogtp
; File C:\Users\flourine\Desktop\Xantios\client-src\Code\eterPythonLib\PythonWindowManagerModule.cpp
;	COMDAT ?wndMgrIsUseMode@@YAPAU_object@@PAU1@0@Z
_TEXT	SEGMENT
_pWin$ = -4						; size = 4
_poSelf$ = 8						; size = 4
_poArgs$ = 12						; size = 4
?wndMgrIsUseMode@@YAPAU_object@@PAU1@0@Z PROC		; wndMgrIsUseMode, COMDAT

; 1506 : {

  00000	55		 push	 ebp
  00001	8b ec		 mov	 ebp, esp
  00003	51		 push	 ecx

; 1507 : 	UI::CWindow* pWin;
; 1508 : 	if (!PyTuple_GetWindow(poArgs, 0, &pWin))

  00004	8d 45 fc	 lea	 eax, DWORD PTR _pWin$[ebp]
  00007	50		 push	 eax
  00008	6a 00		 push	 0
  0000a	ff 75 0c	 push	 DWORD PTR _poArgs$[ebp]
  0000d	e8 00 00 00 00	 call	 ?PyTuple_GetWindow@@YA_NPAU_object@@HPAPAVCWindow@UI@@@Z ; PyTuple_GetWindow
  00012	83 c4 0c	 add	 esp, 12			; 0000000cH
  00015	84 c0		 test	 al, al
  00017	75 09		 jne	 SHORT $LN2@wndMgrIsUs
$LN5@wndMgrIsUs:

; 1520 : }

  00019	e8 00 00 00 00	 call	 ?Py_BadArgument@@YAPAU_object@@XZ ; Py_BadArgument
  0001e	8b e5		 mov	 esp, ebp
  00020	5d		 pop	 ebp
  00021	c3		 ret	 0
$LN2@wndMgrIsUs:

; 1509 : 	{
; 1510 : 		return Py_BadArgument();
; 1511 : 	}
; 1512 : 
; 1513 : 	if (!pWin->IsType(UI::CSlotWindow::Type()))

  00022	e8 00 00 00 00	 call	 ?Type@CSlotWindow@UI@@SAKXZ ; UI::CSlotWindow::Type
  00027	8b 4d fc	 mov	 ecx, DWORD PTR _pWin$[ebp]
  0002a	50		 push	 eax
  0002b	e8 00 00 00 00	 call	 ?IsType@CWindow@UI@@QAEHK@Z ; UI::CWindow::IsType
  00030	85 c0		 test	 eax, eax
  00032	74 e5		 je	 SHORT $LN5@wndMgrIsUs

; 1514 : 	{
; 1515 : 		return Py_BadArgument();
; 1516 : 	}
; 1517 : 
; 1518 : 	UI::CSlotWindow* pSlotWin = (UI::CSlotWindow*)pWin;
; 1519 : 	return Py_BuildValue("b", pSlotWin->IsUseMode());

  00034	8b 4d fc	 mov	 ecx, DWORD PTR _pWin$[ebp]
  00037	e8 00 00 00 00	 call	 ?IsUseMode@CSlotWindow@UI@@QBEHXZ ; UI::CSlotWindow::IsUseMode
  0003c	50		 push	 eax
  0003d	68 00 00 00 00	 push	 OFFSET ??_C@_01OJONOECF@b@
  00042	ff 15 00 00 00
	00		 call	 DWORD PTR __imp__Py_BuildValue
  00048	83 c4 08	 add	 esp, 8

; 1520 : }

  0004b	8b e5		 mov	 esp, ebp
  0004d	5d		 pop	 ebp
  0004e	c3		 ret	 0
?wndMgrIsUseMode@@YAPAU_object@@PAU1@0@Z ENDP		; wndMgrIsUseMode
_TEXT	ENDS
; Function compile flags: /Ogtp
; File C:\Users\flourine\Desktop\Xantios\client-src\Code\eterPythonLib\PythonWindowManagerModule.cpp
;	COMDAT ?wndMgrSetUseMode@@YAPAU_object@@PAU1@0@Z
_TEXT	SEGMENT
_iFlag$ = -8						; size = 4
_pWin$ = -4						; size = 4
_poSelf$ = 8						; size = 4
_poArgs$ = 12						; size = 4
?wndMgrSetUseMode@@YAPAU_object@@PAU1@0@Z PROC		; wndMgrSetUseMode, COMDAT

; 1482 : {

  00000	55		 push	 ebp
  00001	8b ec		 mov	 ebp, esp
  00003	83 ec 08	 sub	 esp, 8

; 1483 : 	UI::CWindow * pWin;
; 1484 : 	if (!PyTuple_GetWindow(poArgs, 0, &pWin))

  00006	8d 45 fc	 lea	 eax, DWORD PTR _pWin$[ebp]
  00009	56		 push	 esi
  0000a	8b 75 0c	 mov	 esi, DWORD PTR _poArgs$[ebp]
  0000d	50		 push	 eax
  0000e	6a 00		 push	 0
  00010	56		 push	 esi
  00011	e8 00 00 00 00	 call	 ?PyTuple_GetWindow@@YA_NPAU_object@@HPAPAVCWindow@UI@@@Z ; PyTuple_GetWindow
  00016	83 c4 0c	 add	 esp, 12			; 0000000cH
  00019	84 c0		 test	 al, al
  0001b	75 0f		 jne	 SHORT $LN2@wndMgrSetU
$LN6@wndMgrSetU:

; 1503 : }

  0001d	6a 00		 push	 0
  0001f	e8 00 00 00 00	 call	 ?Py_BuildException@@YAPAU_object@@PBDZZ ; Py_BuildException
  00024	83 c4 04	 add	 esp, 4
  00027	5e		 pop	 esi
  00028	8b e5		 mov	 esp, ebp
  0002a	5d		 pop	 ebp
  0002b	c3		 ret	 0
$LN2@wndMgrSetU:

; 1485 : 	{
; 1486 : 		return Py_BuildException();
; 1487 : 	}
; 1488 : 	int iFlag;
; 1489 : 	if (!PyTuple_GetInteger(poArgs, 1, &iFlag))

  0002c	8d 45 f8	 lea	 eax, DWORD PTR _iFlag$[ebp]
  0002f	50		 push	 eax
  00030	6a 01		 push	 1
  00032	56		 push	 esi
  00033	e8 00 00 00 00	 call	 ?PyTuple_GetInteger@@YA_NPAU_object@@HPAH@Z ; PyTuple_GetInteger
  00038	83 c4 0c	 add	 esp, 12			; 0000000cH
  0003b	84 c0		 test	 al, al
  0003d	74 de		 je	 SHORT $LN6@wndMgrSetU

; 1490 : 	{
; 1491 : 		return Py_BuildException();
; 1492 : 	}
; 1493 : 
; 1494 : 	if (!pWin->IsType(UI::CSlotWindow::Type()))

  0003f	e8 00 00 00 00	 call	 ?Type@CSlotWindow@UI@@SAKXZ ; UI::CSlotWindow::Type
  00044	8b 75 fc	 mov	 esi, DWORD PTR _pWin$[ebp]
  00047	8b ce		 mov	 ecx, esi
  00049	50		 push	 eax
  0004a	e8 00 00 00 00	 call	 ?IsType@CWindow@UI@@QAEHK@Z ; UI::CWindow::IsType
  0004f	85 c0		 test	 eax, eax
  00051	74 ca		 je	 SHORT $LN6@wndMgrSetU

; 1495 : 	{
; 1496 : 		return Py_BuildException();
; 1497 : 	}
; 1498 : 
; 1499 : 	UI::CSlotWindow * pSlotWin = (UI::CSlotWindow *)pWin;
; 1500 : 	pSlotWin->SetUseMode(iFlag);

  00053	ff 75 f8	 push	 DWORD PTR _iFlag$[ebp]
  00056	8b ce		 mov	 ecx, esi
  00058	e8 00 00 00 00	 call	 ?SetUseMode@CSlotWindow@UI@@QAEXH@Z ; UI::CSlotWindow::SetUseMode

; 1501 : 
; 1502 : 	return Py_BuildNone();

  0005d	e8 00 00 00 00	 call	 ?Py_BuildNone@@YAPAU_object@@XZ ; Py_BuildNone
  00062	5e		 pop	 esi

; 1503 : }

  00063	8b e5		 mov	 esp, ebp
  00065	5d		 pop	 ebp
  00066	c3		 ret	 0
?wndMgrSetUseMode@@YAPAU_object@@PAU1@0@Z ENDP		; wndMgrSetUseMode
_TEXT	ENDS
; Function compile flags: /Ogtp
; File C:\Users\flourine\Desktop\Xantios\client-src\Code\eterPythonLib\PythonWindowManagerModule.cpp
;	COMDAT ?wndMgrRefreshSlot@@YAPAU_object@@PAU1@0@Z
_TEXT	SEGMENT
_pWin$ = -4						; size = 4
_poSelf$ = 8						; size = 4
_poArgs$ = 12						; size = 4
?wndMgrRefreshSlot@@YAPAU_object@@PAU1@0@Z PROC		; wndMgrRefreshSlot, COMDAT

; 1463 : {

  00000	55		 push	 ebp
  00001	8b ec		 mov	 ebp, esp
  00003	51		 push	 ecx

; 1464 : 	UI::CWindow * pWin;
; 1465 : 	if (!PyTuple_GetWindow(poArgs, 0, &pWin))

  00004	8d 45 fc	 lea	 eax, DWORD PTR _pWin$[ebp]
  00007	50		 push	 eax
  00008	6a 00		 push	 0
  0000a	ff 75 0c	 push	 DWORD PTR _poArgs$[ebp]
  0000d	e8 00 00 00 00	 call	 ?PyTuple_GetWindow@@YA_NPAU_object@@HPAPAVCWindow@UI@@@Z ; PyTuple_GetWindow
  00012	83 c4 0c	 add	 esp, 12			; 0000000cH
  00015	84 c0		 test	 al, al
  00017	75 0e		 jne	 SHORT $LN2@wndMgrRefr
$LN5@wndMgrRefr:

; 1479 : }

  00019	6a 00		 push	 0
  0001b	e8 00 00 00 00	 call	 ?Py_BuildException@@YAPAU_object@@PBDZZ ; Py_BuildException
  00020	83 c4 04	 add	 esp, 4
  00023	8b e5		 mov	 esp, ebp
  00025	5d		 pop	 ebp
  00026	c3		 ret	 0
$LN2@wndMgrRefr:

; 1466 : 	{
; 1467 : 		return Py_BuildException();
; 1468 : 	}
; 1469 : 
; 1470 : 	if (!pWin->IsType(UI::CSlotWindow::Type()))

  00027	e8 00 00 00 00	 call	 ?Type@CSlotWindow@UI@@SAKXZ ; UI::CSlotWindow::Type
  0002c	8b 4d fc	 mov	 ecx, DWORD PTR _pWin$[ebp]
  0002f	50		 push	 eax
  00030	e8 00 00 00 00	 call	 ?IsType@CWindow@UI@@QAEHK@Z ; UI::CWindow::IsType
  00035	85 c0		 test	 eax, eax
  00037	74 e0		 je	 SHORT $LN5@wndMgrRefr

; 1471 : 	{
; 1472 : 		return Py_BuildException();
; 1473 : 	}
; 1474 : 
; 1475 : 	UI::CSlotWindow * pSlotWin = (UI::CSlotWindow *)pWin;
; 1476 : 	pSlotWin->RefreshSlot();

  00039	8b 4d fc	 mov	 ecx, DWORD PTR _pWin$[ebp]
  0003c	e8 00 00 00 00	 call	 ?RefreshSlot@CSlotWindow@UI@@QAEXXZ ; UI::CSlotWindow::RefreshSlot

; 1477 : 
; 1478 : 	return Py_BuildNone();

  00041	e8 00 00 00 00	 call	 ?Py_BuildNone@@YAPAU_object@@XZ ; Py_BuildNone

; 1479 : }

  00046	8b e5		 mov	 esp, ebp
  00048	5d		 pop	 ebp
  00049	c3		 ret	 0
?wndMgrRefreshSlot@@YAPAU_object@@PAU1@0@Z ENDP		; wndMgrRefreshSlot
_TEXT	ENDS
; Function compile flags: /Ogtp
; File C:\Users\flourine\Desktop\Xantios\client-src\Code\eterPythonLib\PythonWindowManagerModule.cpp
;	COMDAT ?wndMgrHideRequirementSign@@YAPAU_object@@PAU1@0@Z
_TEXT	SEGMENT
_pWindow$ = -8						; size = 4
_iSlotNumber$ = -4					; size = 4
_poSelf$ = 8						; size = 4
_poArgs$ = 12						; size = 4
?wndMgrHideRequirementSign@@YAPAU_object@@PAU1@0@Z PROC	; wndMgrHideRequirementSign, COMDAT

; 1443 : {

  00000	55		 push	 ebp
  00001	8b ec		 mov	 ebp, esp
  00003	83 ec 08	 sub	 esp, 8

; 1444 : 	UI::CWindow * pWindow;
; 1445 : 	if (!PyTuple_GetWindow(poArgs, 0, &pWindow))

  00006	8d 45 f8	 lea	 eax, DWORD PTR _pWindow$[ebp]
  00009	50		 push	 eax
  0000a	6a 00		 push	 0
  0000c	ff 75 0c	 push	 DWORD PTR _poArgs$[ebp]
  0000f	e8 00 00 00 00	 call	 ?PyTuple_GetWindow@@YA_NPAU_object@@HPAPAVCWindow@UI@@@Z ; PyTuple_GetWindow
  00014	83 c4 0c	 add	 esp, 12			; 0000000cH
  00017	84 c0		 test	 al, al
  00019	75 0e		 jne	 SHORT $LN2@wndMgrHide
$LN5@wndMgrHide:

; 1460 : }

  0001b	6a 00		 push	 0
  0001d	e8 00 00 00 00	 call	 ?Py_BuildException@@YAPAU_object@@PBDZZ ; Py_BuildException
  00022	83 c4 04	 add	 esp, 4
  00025	8b e5		 mov	 esp, ebp
  00027	5d		 pop	 ebp
  00028	c3		 ret	 0
$LN2@wndMgrHide:

; 1446 : 	{
; 1447 : 		return Py_BuildException();
; 1448 : 	}
; 1449 : 
; 1450 : 	int iSlotNumber;
; 1451 : 	if (!PyTuple_GetInteger(poArgs, 1, &iSlotNumber))

  00029	8d 45 fc	 lea	 eax, DWORD PTR _iSlotNumber$[ebp]
  0002c	50		 push	 eax
  0002d	6a 01		 push	 1
  0002f	ff 75 0c	 push	 DWORD PTR _poArgs$[ebp]
  00032	e8 00 00 00 00	 call	 ?PyTuple_GetInteger@@YA_NPAU_object@@HPAH@Z ; PyTuple_GetInteger
  00037	83 c4 0c	 add	 esp, 12			; 0000000cH
  0003a	84 c0		 test	 al, al
  0003c	74 dd		 je	 SHORT $LN5@wndMgrHide

; 1452 : 	{
; 1453 : 		return Py_BuildException();
; 1454 : 	}
; 1455 : 
; 1456 : 	UI::CSlotWindow * pSlotWin = (UI::CSlotWindow *)pWindow;
; 1457 : 	pSlotWin->HideRequirementSign(iSlotNumber);

  0003e	ff 75 fc	 push	 DWORD PTR _iSlotNumber$[ebp]
  00041	8b 4d f8	 mov	 ecx, DWORD PTR _pWindow$[ebp]
  00044	e8 00 00 00 00	 call	 ?HideRequirementSign@CSlotWindow@UI@@QAEXK@Z ; UI::CSlotWindow::HideRequirementSign

; 1458 : 
; 1459 : 	return Py_BuildNone();

  00049	e8 00 00 00 00	 call	 ?Py_BuildNone@@YAPAU_object@@XZ ; Py_BuildNone

; 1460 : }

  0004e	8b e5		 mov	 esp, ebp
  00050	5d		 pop	 ebp
  00051	c3		 ret	 0
?wndMgrHideRequirementSign@@YAPAU_object@@PAU1@0@Z ENDP	; wndMgrHideRequirementSign
_TEXT	ENDS
; Function compile flags: /Ogtp
; File C:\Users\flourine\Desktop\Xantios\client-src\Code\eterPythonLib\PythonWindowManagerModule.cpp
;	COMDAT ?wndMgrShowRequirementSign@@YAPAU_object@@PAU1@0@Z
_TEXT	SEGMENT
_pWindow$ = -8						; size = 4
_iSlotNumber$ = -4					; size = 4
_poSelf$ = 8						; size = 4
_poArgs$ = 12						; size = 4
?wndMgrShowRequirementSign@@YAPAU_object@@PAU1@0@Z PROC	; wndMgrShowRequirementSign, COMDAT

; 1423 : {

  00000	55		 push	 ebp
  00001	8b ec		 mov	 ebp, esp
  00003	83 ec 08	 sub	 esp, 8

; 1424 : 	UI::CWindow * pWindow;
; 1425 : 	if (!PyTuple_GetWindow(poArgs, 0, &pWindow))

  00006	8d 45 f8	 lea	 eax, DWORD PTR _pWindow$[ebp]
  00009	50		 push	 eax
  0000a	6a 00		 push	 0
  0000c	ff 75 0c	 push	 DWORD PTR _poArgs$[ebp]
  0000f	e8 00 00 00 00	 call	 ?PyTuple_GetWindow@@YA_NPAU_object@@HPAPAVCWindow@UI@@@Z ; PyTuple_GetWindow
  00014	83 c4 0c	 add	 esp, 12			; 0000000cH
  00017	84 c0		 test	 al, al
  00019	75 0e		 jne	 SHORT $LN2@wndMgrShow
$LN5@wndMgrShow:

; 1440 : }

  0001b	6a 00		 push	 0
  0001d	e8 00 00 00 00	 call	 ?Py_BuildException@@YAPAU_object@@PBDZZ ; Py_BuildException
  00022	83 c4 04	 add	 esp, 4
  00025	8b e5		 mov	 esp, ebp
  00027	5d		 pop	 ebp
  00028	c3		 ret	 0
$LN2@wndMgrShow:

; 1426 : 	{
; 1427 : 		return Py_BuildException();
; 1428 : 	}
; 1429 : 
; 1430 : 	int iSlotNumber;
; 1431 : 	if (!PyTuple_GetInteger(poArgs, 1, &iSlotNumber))

  00029	8d 45 fc	 lea	 eax, DWORD PTR _iSlotNumber$[ebp]
  0002c	50		 push	 eax
  0002d	6a 01		 push	 1
  0002f	ff 75 0c	 push	 DWORD PTR _poArgs$[ebp]
  00032	e8 00 00 00 00	 call	 ?PyTuple_GetInteger@@YA_NPAU_object@@HPAH@Z ; PyTuple_GetInteger
  00037	83 c4 0c	 add	 esp, 12			; 0000000cH
  0003a	84 c0		 test	 al, al
  0003c	74 dd		 je	 SHORT $LN5@wndMgrShow

; 1432 : 	{
; 1433 : 		return Py_BuildException();
; 1434 : 	}
; 1435 : 
; 1436 : 	UI::CSlotWindow * pSlotWin = (UI::CSlotWindow *)pWindow;
; 1437 : 	pSlotWin->ShowRequirementSign(iSlotNumber);

  0003e	ff 75 fc	 push	 DWORD PTR _iSlotNumber$[ebp]
  00041	8b 4d f8	 mov	 ecx, DWORD PTR _pWindow$[ebp]
  00044	e8 00 00 00 00	 call	 ?ShowRequirementSign@CSlotWindow@UI@@QAEXK@Z ; UI::CSlotWindow::ShowRequirementSign

; 1438 : 
; 1439 : 	return Py_BuildNone();

  00049	e8 00 00 00 00	 call	 ?Py_BuildNone@@YAPAU_object@@XZ ; Py_BuildNone

; 1440 : }

  0004e	8b e5		 mov	 esp, ebp
  00050	5d		 pop	 ebp
  00051	c3		 ret	 0
?wndMgrShowRequirementSign@@YAPAU_object@@PAU1@0@Z ENDP	; wndMgrShowRequirementSign
_TEXT	ENDS
; Function compile flags: /Ogtp
; File C:\Users\flourine\Desktop\Xantios\client-src\Code\eterPythonLib\PythonWindowManagerModule.cpp
;	COMDAT ?wndMgrHideAllSlotButton@@YAPAU_object@@PAU1@0@Z
_TEXT	SEGMENT
_pWindow$ = -4						; size = 4
_poSelf$ = 8						; size = 4
_poArgs$ = 12						; size = 4
?wndMgrHideAllSlotButton@@YAPAU_object@@PAU1@0@Z PROC	; wndMgrHideAllSlotButton, COMDAT

; 1409 : {

  00000	55		 push	 ebp
  00001	8b ec		 mov	 ebp, esp
  00003	51		 push	 ecx

; 1410 : 	UI::CWindow * pWindow;
; 1411 : 	if (!PyTuple_GetWindow(poArgs, 0, &pWindow))

  00004	8d 45 fc	 lea	 eax, DWORD PTR _pWindow$[ebp]
  00007	50		 push	 eax
  00008	6a 00		 push	 0
  0000a	ff 75 0c	 push	 DWORD PTR _poArgs$[ebp]
  0000d	e8 00 00 00 00	 call	 ?PyTuple_GetWindow@@YA_NPAU_object@@HPAPAVCWindow@UI@@@Z ; PyTuple_GetWindow
  00012	83 c4 0c	 add	 esp, 12			; 0000000cH
  00015	84 c0		 test	 al, al
  00017	75 0e		 jne	 SHORT $LN2@wndMgrHide

; 1412 : 	{
; 1413 : 		return Py_BuildException();

  00019	6a 00		 push	 0
  0001b	e8 00 00 00 00	 call	 ?Py_BuildException@@YAPAU_object@@PBDZZ ; Py_BuildException
  00020	83 c4 04	 add	 esp, 4

; 1420 : }

  00023	8b e5		 mov	 esp, ebp
  00025	5d		 pop	 ebp
  00026	c3		 ret	 0
$LN2@wndMgrHide:

; 1414 : 	}
; 1415 : 
; 1416 : 	UI::CSlotWindow * pSlotWin = (UI::CSlotWindow *)pWindow;
; 1417 : 	pSlotWin->HideAllSlotButton();

  00027	8b 4d fc	 mov	 ecx, DWORD PTR _pWindow$[ebp]
  0002a	e8 00 00 00 00	 call	 ?HideAllSlotButton@CSlotWindow@UI@@QAEXXZ ; UI::CSlotWindow::HideAllSlotButton

; 1418 : 
; 1419 : 	return Py_BuildNone();

  0002f	e8 00 00 00 00	 call	 ?Py_BuildNone@@YAPAU_object@@XZ ; Py_BuildNone

; 1420 : }

  00034	8b e5		 mov	 esp, ebp
  00036	5d		 pop	 ebp
  00037	c3		 ret	 0
?wndMgrHideAllSlotButton@@YAPAU_object@@PAU1@0@Z ENDP	; wndMgrHideAllSlotButton
_TEXT	ENDS
; Function compile flags: /Ogtp
; File C:\Users\flourine\Desktop\Xantios\client-src\Code\eterPythonLib\PythonWindowManagerModule.cpp
;	COMDAT ?wndMgrShowSlotButton@@YAPAU_object@@PAU1@0@Z
_TEXT	SEGMENT
_pWindow$ = -8						; size = 4
_iSlotNumber$ = -4					; size = 4
_poSelf$ = 8						; size = 4
_poArgs$ = 12						; size = 4
?wndMgrShowSlotButton@@YAPAU_object@@PAU1@0@Z PROC	; wndMgrShowSlotButton, COMDAT

; 1389 : {

  00000	55		 push	 ebp
  00001	8b ec		 mov	 ebp, esp
  00003	83 ec 08	 sub	 esp, 8

; 1390 : 	UI::CWindow * pWindow;
; 1391 : 	if (!PyTuple_GetWindow(poArgs, 0, &pWindow))

  00006	8d 45 f8	 lea	 eax, DWORD PTR _pWindow$[ebp]
  00009	50		 push	 eax
  0000a	6a 00		 push	 0
  0000c	ff 75 0c	 push	 DWORD PTR _poArgs$[ebp]
  0000f	e8 00 00 00 00	 call	 ?PyTuple_GetWindow@@YA_NPAU_object@@HPAPAVCWindow@UI@@@Z ; PyTuple_GetWindow
  00014	83 c4 0c	 add	 esp, 12			; 0000000cH
  00017	84 c0		 test	 al, al
  00019	75 0e		 jne	 SHORT $LN2@wndMgrShow
$LN5@wndMgrShow:

; 1406 : }

  0001b	6a 00		 push	 0
  0001d	e8 00 00 00 00	 call	 ?Py_BuildException@@YAPAU_object@@PBDZZ ; Py_BuildException
  00022	83 c4 04	 add	 esp, 4
  00025	8b e5		 mov	 esp, ebp
  00027	5d		 pop	 ebp
  00028	c3		 ret	 0
$LN2@wndMgrShow:

; 1392 : 	{
; 1393 : 		return Py_BuildException();
; 1394 : 	}
; 1395 : 
; 1396 : 	int iSlotNumber;
; 1397 : 	if (!PyTuple_GetInteger(poArgs, 1, &iSlotNumber))

  00029	8d 45 fc	 lea	 eax, DWORD PTR _iSlotNumber$[ebp]
  0002c	50		 push	 eax
  0002d	6a 01		 push	 1
  0002f	ff 75 0c	 push	 DWORD PTR _poArgs$[ebp]
  00032	e8 00 00 00 00	 call	 ?PyTuple_GetInteger@@YA_NPAU_object@@HPAH@Z ; PyTuple_GetInteger
  00037	83 c4 0c	 add	 esp, 12			; 0000000cH
  0003a	84 c0		 test	 al, al
  0003c	74 dd		 je	 SHORT $LN5@wndMgrShow

; 1398 : 	{
; 1399 : 		return Py_BuildException();
; 1400 : 	}
; 1401 : 
; 1402 : 	UI::CSlotWindow * pSlotWin = (UI::CSlotWindow *)pWindow;
; 1403 : 	pSlotWin->ShowSlotButton(iSlotNumber);

  0003e	ff 75 fc	 push	 DWORD PTR _iSlotNumber$[ebp]
  00041	8b 4d f8	 mov	 ecx, DWORD PTR _pWindow$[ebp]
  00044	e8 00 00 00 00	 call	 ?ShowSlotButton@CSlotWindow@UI@@QAEXK@Z ; UI::CSlotWindow::ShowSlotButton

; 1404 : 
; 1405 : 	return Py_BuildNone();

  00049	e8 00 00 00 00	 call	 ?Py_BuildNone@@YAPAU_object@@XZ ; Py_BuildNone

; 1406 : }

  0004e	8b e5		 mov	 esp, ebp
  00050	5d		 pop	 ebp
  00051	c3		 ret	 0
?wndMgrShowSlotButton@@YAPAU_object@@PAU1@0@Z ENDP	; wndMgrShowSlotButton
_TEXT	ENDS
; Function compile flags: /Ogtp
; File C:\Users\flourine\Desktop\Xantios\client-src\Code\eterPythonLib\PythonWindowManagerModule.cpp
;	COMDAT ?wndMgrAppendRequirementSignImage@@YAPAU_object@@PAU1@0@Z
_TEXT	SEGMENT
_pWindow$ = -8						; size = 4
_szImageName$ = -4					; size = 4
_poSelf$ = 8						; size = 4
_poArgs$ = 12						; size = 4
?wndMgrAppendRequirementSignImage@@YAPAU_object@@PAU1@0@Z PROC ; wndMgrAppendRequirementSignImage, COMDAT

; 1369 : {

  00000	55		 push	 ebp
  00001	8b ec		 mov	 ebp, esp
  00003	83 ec 08	 sub	 esp, 8

; 1370 : 	UI::CWindow * pWindow;
; 1371 : 	if (!PyTuple_GetWindow(poArgs, 0, &pWindow))

  00006	8d 45 f8	 lea	 eax, DWORD PTR _pWindow$[ebp]
  00009	50		 push	 eax
  0000a	6a 00		 push	 0
  0000c	ff 75 0c	 push	 DWORD PTR _poArgs$[ebp]
  0000f	e8 00 00 00 00	 call	 ?PyTuple_GetWindow@@YA_NPAU_object@@HPAPAVCWindow@UI@@@Z ; PyTuple_GetWindow
  00014	83 c4 0c	 add	 esp, 12			; 0000000cH
  00017	84 c0		 test	 al, al
  00019	75 0e		 jne	 SHORT $LN2@wndMgrAppe
$LN5@wndMgrAppe:

; 1386 : }

  0001b	6a 00		 push	 0
  0001d	e8 00 00 00 00	 call	 ?Py_BuildException@@YAPAU_object@@PBDZZ ; Py_BuildException
  00022	83 c4 04	 add	 esp, 4
  00025	8b e5		 mov	 esp, ebp
  00027	5d		 pop	 ebp
  00028	c3		 ret	 0
$LN2@wndMgrAppe:

; 1372 : 	{
; 1373 : 		return Py_BuildException();
; 1374 : 	}
; 1375 : 
; 1376 : 	char * szImageName;
; 1377 : 	if (!PyTuple_GetString(poArgs, 1, &szImageName))

  00029	8d 45 fc	 lea	 eax, DWORD PTR _szImageName$[ebp]
  0002c	50		 push	 eax
  0002d	6a 01		 push	 1
  0002f	ff 75 0c	 push	 DWORD PTR _poArgs$[ebp]
  00032	e8 00 00 00 00	 call	 ?PyTuple_GetString@@YA_NPAU_object@@HPAPAD@Z ; PyTuple_GetString
  00037	83 c4 0c	 add	 esp, 12			; 0000000cH
  0003a	84 c0		 test	 al, al
  0003c	74 dd		 je	 SHORT $LN5@wndMgrAppe

; 1378 : 	{
; 1379 : 		return Py_BuildException();
; 1380 : 	}
; 1381 : 
; 1382 : 	UI::CSlotWindow * pSlotWin = (UI::CSlotWindow *)pWindow;
; 1383 : 	pSlotWin->AppendRequirementSignImage(szImageName);

  0003e	ff 75 fc	 push	 DWORD PTR _szImageName$[ebp]
  00041	8b 4d f8	 mov	 ecx, DWORD PTR _pWindow$[ebp]
  00044	e8 00 00 00 00	 call	 ?AppendRequirementSignImage@CSlotWindow@UI@@QAEXPBD@Z ; UI::CSlotWindow::AppendRequirementSignImage

; 1384 : 
; 1385 : 	return Py_BuildNone();

  00049	e8 00 00 00 00	 call	 ?Py_BuildNone@@YAPAU_object@@XZ ; Py_BuildNone

; 1386 : }

  0004e	8b e5		 mov	 esp, ebp
  00050	5d		 pop	 ebp
  00051	c3		 ret	 0
?wndMgrAppendRequirementSignImage@@YAPAU_object@@PAU1@0@Z ENDP ; wndMgrAppendRequirementSignImage
_TEXT	ENDS
; Function compile flags: /Ogtp
; File C:\Users\flourine\Desktop\Xantios\client-src\Code\eterPythonLib\PythonWindowManagerModule.cpp
;	COMDAT ?wndMgrAppendSlotButton@@YAPAU_object@@PAU1@0@Z
_TEXT	SEGMENT
_pWindow$ = -16						; size = 4
_szUpImageName$ = -12					; size = 4
_szOverImageName$ = -8					; size = 4
_szDownImageName$ = -4					; size = 4
_poSelf$ = 8						; size = 4
_poArgs$ = 12						; size = 4
?wndMgrAppendSlotButton@@YAPAU_object@@PAU1@0@Z PROC	; wndMgrAppendSlotButton, COMDAT

; 1339 : {

  00000	55		 push	 ebp
  00001	8b ec		 mov	 ebp, esp
  00003	83 ec 10	 sub	 esp, 16			; 00000010H

; 1340 : 	UI::CWindow * pWindow;
; 1341 : 	if (!PyTuple_GetWindow(poArgs, 0, &pWindow))

  00006	8d 45 f0	 lea	 eax, DWORD PTR _pWindow$[ebp]
  00009	56		 push	 esi
  0000a	8b 75 0c	 mov	 esi, DWORD PTR _poArgs$[ebp]
  0000d	50		 push	 eax
  0000e	6a 00		 push	 0
  00010	56		 push	 esi
  00011	e8 00 00 00 00	 call	 ?PyTuple_GetWindow@@YA_NPAU_object@@HPAPAVCWindow@UI@@@Z ; PyTuple_GetWindow
  00016	83 c4 0c	 add	 esp, 12			; 0000000cH
  00019	84 c0		 test	 al, al
  0001b	75 0f		 jne	 SHORT $LN2@wndMgrAppe
$LN7@wndMgrAppe:

; 1366 : }

  0001d	6a 00		 push	 0
  0001f	e8 00 00 00 00	 call	 ?Py_BuildException@@YAPAU_object@@PBDZZ ; Py_BuildException
  00024	83 c4 04	 add	 esp, 4
  00027	5e		 pop	 esi
  00028	8b e5		 mov	 esp, ebp
  0002a	5d		 pop	 ebp
  0002b	c3		 ret	 0
$LN2@wndMgrAppe:

; 1342 : 	{
; 1343 : 		return Py_BuildException();
; 1344 : 	}
; 1345 : 
; 1346 : 	char * szUpImageName;
; 1347 : 	if (!PyTuple_GetString(poArgs, 1, &szUpImageName))

  0002c	8d 45 f4	 lea	 eax, DWORD PTR _szUpImageName$[ebp]
  0002f	50		 push	 eax
  00030	6a 01		 push	 1
  00032	56		 push	 esi
  00033	e8 00 00 00 00	 call	 ?PyTuple_GetString@@YA_NPAU_object@@HPAPAD@Z ; PyTuple_GetString
  00038	83 c4 0c	 add	 esp, 12			; 0000000cH
  0003b	84 c0		 test	 al, al
  0003d	74 de		 je	 SHORT $LN7@wndMgrAppe

; 1348 : 	{
; 1349 : 		return Py_BuildException();
; 1350 : 	}
; 1351 : 	char * szOverImageName;
; 1352 : 	if (!PyTuple_GetString(poArgs, 2, &szOverImageName))

  0003f	8d 45 f8	 lea	 eax, DWORD PTR _szOverImageName$[ebp]
  00042	50		 push	 eax
  00043	6a 02		 push	 2
  00045	56		 push	 esi
  00046	e8 00 00 00 00	 call	 ?PyTuple_GetString@@YA_NPAU_object@@HPAPAD@Z ; PyTuple_GetString
  0004b	83 c4 0c	 add	 esp, 12			; 0000000cH
  0004e	84 c0		 test	 al, al
  00050	74 cb		 je	 SHORT $LN7@wndMgrAppe

; 1353 : 	{
; 1354 : 		return Py_BuildException();
; 1355 : 	}
; 1356 : 	char * szDownImageName;
; 1357 : 	if (!PyTuple_GetString(poArgs, 3, &szDownImageName))

  00052	8d 45 fc	 lea	 eax, DWORD PTR _szDownImageName$[ebp]
  00055	50		 push	 eax
  00056	6a 03		 push	 3
  00058	56		 push	 esi
  00059	e8 00 00 00 00	 call	 ?PyTuple_GetString@@YA_NPAU_object@@HPAPAD@Z ; PyTuple_GetString
  0005e	83 c4 0c	 add	 esp, 12			; 0000000cH
  00061	84 c0		 test	 al, al
  00063	74 b8		 je	 SHORT $LN7@wndMgrAppe

; 1358 : 	{
; 1359 : 		return Py_BuildException();
; 1360 : 	}
; 1361 : 
; 1362 : 	UI::CSlotWindow * pSlotWin = (UI::CSlotWindow *)pWindow;
; 1363 : 	pSlotWin->AppendSlotButton(szUpImageName, szOverImageName, szDownImageName);

  00065	ff 75 fc	 push	 DWORD PTR _szDownImageName$[ebp]
  00068	8b 4d f0	 mov	 ecx, DWORD PTR _pWindow$[ebp]
  0006b	ff 75 f8	 push	 DWORD PTR _szOverImageName$[ebp]
  0006e	ff 75 f4	 push	 DWORD PTR _szUpImageName$[ebp]
  00071	e8 00 00 00 00	 call	 ?AppendSlotButton@CSlotWindow@UI@@QAEXPBD00@Z ; UI::CSlotWindow::AppendSlotButton

; 1364 : 
; 1365 : 	return Py_BuildNone();

  00076	e8 00 00 00 00	 call	 ?Py_BuildNone@@YAPAU_object@@XZ ; Py_BuildNone
  0007b	5e		 pop	 esi

; 1366 : }

  0007c	8b e5		 mov	 esp, ebp
  0007e	5d		 pop	 ebp
  0007f	c3		 ret	 0
?wndMgrAppendSlotButton@@YAPAU_object@@PAU1@0@Z ENDP	; wndMgrAppendSlotButton
_TEXT	ENDS
; Function compile flags: /Ogtp
; File C:\Users\flourine\Desktop\Xantios\client-src\Code\eterPythonLib\PythonWindowManagerModule.cpp
;	COMDAT ?wndMgrDeleteCoverButton@@YAPAU_object@@PAU1@0@Z
_TEXT	SEGMENT
_pWindow$ = -8						; size = 4
_iSlotIndex$ = -4					; size = 4
_poSelf$ = 8						; size = 4
_poArgs$ = 12						; size = 4
?wndMgrDeleteCoverButton@@YAPAU_object@@PAU1@0@Z PROC	; wndMgrDeleteCoverButton, COMDAT

; 1319 : {

  00000	55		 push	 ebp
  00001	8b ec		 mov	 ebp, esp
  00003	83 ec 08	 sub	 esp, 8

; 1320 : 	UI::CWindow* pWindow;
; 1321 : 	if (!PyTuple_GetWindow(poArgs, 0, &pWindow))

  00006	8d 45 f8	 lea	 eax, DWORD PTR _pWindow$[ebp]
  00009	50		 push	 eax
  0000a	6a 00		 push	 0
  0000c	ff 75 0c	 push	 DWORD PTR _poArgs$[ebp]
  0000f	e8 00 00 00 00	 call	 ?PyTuple_GetWindow@@YA_NPAU_object@@HPAPAVCWindow@UI@@@Z ; PyTuple_GetWindow
  00014	83 c4 0c	 add	 esp, 12			; 0000000cH
  00017	84 c0		 test	 al, al
  00019	75 0e		 jne	 SHORT $LN2@wndMgrDele
$LN5@wndMgrDele:

; 1336 : }

  0001b	6a 00		 push	 0
  0001d	e8 00 00 00 00	 call	 ?Py_BuildException@@YAPAU_object@@PBDZZ ; Py_BuildException
  00022	83 c4 04	 add	 esp, 4
  00025	8b e5		 mov	 esp, ebp
  00027	5d		 pop	 ebp
  00028	c3		 ret	 0
$LN2@wndMgrDele:

; 1322 : 	{
; 1323 : 		return Py_BuildException();
; 1324 : 	}
; 1325 : 
; 1326 : 	int iSlotIndex;
; 1327 : 	if (!PyTuple_GetInteger(poArgs, 1, &iSlotIndex))

  00029	8d 45 fc	 lea	 eax, DWORD PTR _iSlotIndex$[ebp]
  0002c	50		 push	 eax
  0002d	6a 01		 push	 1
  0002f	ff 75 0c	 push	 DWORD PTR _poArgs$[ebp]
  00032	e8 00 00 00 00	 call	 ?PyTuple_GetInteger@@YA_NPAU_object@@HPAH@Z ; PyTuple_GetInteger
  00037	83 c4 0c	 add	 esp, 12			; 0000000cH
  0003a	84 c0		 test	 al, al
  0003c	74 dd		 je	 SHORT $LN5@wndMgrDele

; 1328 : 	{
; 1329 : 		return Py_BuildException();
; 1330 : 	}
; 1331 : 
; 1332 : 	UI::CSlotWindow* pSlotWin = (UI::CSlotWindow*)pWindow;
; 1333 : 	pSlotWin->DeleteCoverButton(iSlotIndex);

  0003e	ff 75 fc	 push	 DWORD PTR _iSlotIndex$[ebp]
  00041	8b 4d f8	 mov	 ecx, DWORD PTR _pWindow$[ebp]
  00044	e8 00 00 00 00	 call	 ?DeleteCoverButton@CSlotWindow@UI@@QAEXK@Z ; UI::CSlotWindow::DeleteCoverButton

; 1334 : 
; 1335 : 	return Py_BuildNone();

  00049	e8 00 00 00 00	 call	 ?Py_BuildNone@@YAPAU_object@@XZ ; Py_BuildNone

; 1336 : }

  0004e	8b e5		 mov	 esp, ebp
  00050	5d		 pop	 ebp
  00051	c3		 ret	 0
?wndMgrDeleteCoverButton@@YAPAU_object@@PAU1@0@Z ENDP	; wndMgrDeleteCoverButton
_TEXT	ENDS
; Function compile flags: /Ogtp
; File C:\Users\flourine\Desktop\Xantios\client-src\Code\eterPythonLib\PythonWindowManagerModule.cpp
; File C:\Program Files\Microsoft Visual Studio\2022\Community\VC\Tools\MSVC\14.34.31933\include\vector
; File C:\Users\flourine\Desktop\Xantios\client-src\Code\eterPythonLib\PythonWindowManagerModule.cpp
; File C:\Program Files\Microsoft Visual Studio\2022\Community\VC\Tools\MSVC\14.34.31933\include\vector
; File C:\Program Files\Microsoft Visual Studio\2022\Community\VC\Tools\MSVC\14.34.31933\include\xmemory
; File C:\Program Files\Microsoft Visual Studio\2022\Community\VC\Tools\MSVC\14.34.31933\include\vector
; File C:\Program Files\Microsoft Visual Studio\2022\Community\VC\Tools\MSVC\14.34.31933\include\xmemory
; File C:\Users\flourine\Desktop\Xantios\client-src\Code\eterPythonLib\PythonWindowManagerModule.cpp
; File C:\Program Files\Microsoft Visual Studio\2022\Community\VC\Tools\MSVC\14.34.31933\include\xmemory
; File C:\Users\flourine\Desktop\Xantios\client-src\Code\eterPythonLib\PythonWindowManagerModule.cpp
;	COMDAT ?wndMgrGetSlotIndices@@YAPAU_object@@PAU1@0@Z
_TEXT	SEGMENT
_v_slots$ = -20						; size = 12
_<end>$L0$1$ = -8					; size = 4
_pyTuple$1$ = -4					; size = 4
_pWindow$ = -4						; size = 4
_poSelf$ = 8						; size = 4
_poArgs$ = 12						; size = 4
?wndMgrGetSlotIndices@@YAPAU_object@@PAU1@0@Z PROC	; wndMgrGetSlotIndices, COMDAT

; 1298 : {

  00000	55		 push	 ebp
  00001	8b ec		 mov	 ebp, esp
  00003	83 ec 14	 sub	 esp, 20			; 00000014H

; 1299 : 	UI::CWindow* pWindow;
; 1300 : 	if (!PyTuple_GetWindow(poArgs, 0, &pWindow))

  00006	8d 45 fc	 lea	 eax, DWORD PTR _pWindow$[ebp]
  00009	50		 push	 eax
  0000a	6a 00		 push	 0
  0000c	ff 75 0c	 push	 DWORD PTR _poArgs$[ebp]
  0000f	e8 00 00 00 00	 call	 ?PyTuple_GetWindow@@YA_NPAU_object@@HPAPAVCWindow@UI@@@Z ; PyTuple_GetWindow
  00014	83 c4 0c	 add	 esp, 12			; 0000000cH
  00017	84 c0		 test	 al, al
  00019	75 0e		 jne	 SHORT $LN5@wndMgrGetS

; 1301 : 	{
; 1302 : 		return Py_BuildException();

  0001b	6a 00		 push	 0
  0001d	e8 00 00 00 00	 call	 ?Py_BuildException@@YAPAU_object@@PBDZZ ; Py_BuildException
  00022	83 c4 04	 add	 esp, 4

; 1316 : }

  00025	8b e5		 mov	 esp, ebp
  00027	5d		 pop	 ebp
  00028	c3		 ret	 0
$LN5@wndMgrGetS:

; 1303 : 	}
; 1304 : 
; 1305 : 	UI::CSlotWindow* pSlotWin = (UI::CSlotWindow*)pWindow;
; 1306 : 	std::vector<uint32_t> v_slots = pSlotWin->GetSlotIndincies();

  00029	8b 4d fc	 mov	 ecx, DWORD PTR _pWindow$[ebp]
  0002c	8d 45 ec	 lea	 eax, DWORD PTR _v_slots$[ebp]
  0002f	53		 push	 ebx
  00030	56		 push	 esi
  00031	57		 push	 edi
  00032	50		 push	 eax
  00033	e8 00 00 00 00	 call	 ?GetSlotIndincies@CSlotWindow@UI@@QAE?AV?$vector@IV?$allocator@I@std@@@std@@XZ ; UI::CSlotWindow::GetSlotIndincies
; File C:\Program Files\Microsoft Visual Studio\2022\Community\VC\Tools\MSVC\14.34.31933\include\vector

; 1932 :         return static_cast<size_type>(_My_data._Mylast - _My_data._Myfirst);

  00038	8b 45 f0	 mov	 eax, DWORD PTR _v_slots$[ebp+4]
  0003b	2b 45 ec	 sub	 eax, DWORD PTR _v_slots$[ebp]
  0003e	c1 f8 02	 sar	 eax, 2
; File C:\Users\flourine\Desktop\Xantios\client-src\Code\eterPythonLib\PythonWindowManagerModule.cpp

; 1308 : 	PyObject* pyTuple = PyTuple_New(v_slots.size());

  00041	50		 push	 eax
  00042	ff 15 00 00 00
	00		 call	 DWORD PTR __imp__PyTuple_New

; 1309 : 	int idx = 0;
; 1310 : 	for (const auto& rItem : v_slots)

  00048	8b 7d ec	 mov	 edi, DWORD PTR _v_slots$[ebp]
  0004b	8b f0		 mov	 esi, eax
  0004d	8b 45 f0	 mov	 eax, DWORD PTR _v_slots$[ebp+4]
  00050	83 c4 04	 add	 esp, 4
  00053	33 db		 xor	 ebx, ebx
  00055	89 75 fc	 mov	 DWORD PTR _pyTuple$1$[ebp], esi
  00058	89 45 f8	 mov	 DWORD PTR _<end>$L0$1$[ebp], eax
  0005b	3b f8		 cmp	 edi, eax
  0005d	74 2b		 je	 SHORT $LN3@wndMgrGetS
  0005f	90		 npad	 1
$LL4@wndMgrGetS:

; 1311 : 	{
; 1312 : 		PyTuple_SetItem(pyTuple, idx++, Py_BuildValue("i", rItem));

  00060	ff 37		 push	 DWORD PTR [edi]
  00062	8b f3		 mov	 esi, ebx
  00064	43		 inc	 ebx
  00065	68 00 00 00 00	 push	 OFFSET ??_C@_01KBJDNOO@i@
  0006a	ff 15 00 00 00
	00		 call	 DWORD PTR __imp__Py_BuildValue
  00070	50		 push	 eax
  00071	56		 push	 esi
  00072	8b 75 fc	 mov	 esi, DWORD PTR _pyTuple$1$[ebp]
  00075	56		 push	 esi
  00076	ff 15 00 00 00
	00		 call	 DWORD PTR __imp__PyTuple_SetItem
  0007c	83 c7 04	 add	 edi, 4
  0007f	83 c4 14	 add	 esp, 20			; 00000014H
  00082	3b 7d f8	 cmp	 edi, DWORD PTR _<end>$L0$1$[ebp]
  00085	75 d9		 jne	 SHORT $LL4@wndMgrGetS
  00087	8b 7d ec	 mov	 edi, DWORD PTR _v_slots$[ebp]
$LN3@wndMgrGetS:
; File C:\Program Files\Microsoft Visual Studio\2022\Community\VC\Tools\MSVC\14.34.31933\include\vector

; 2107 :         if (_Myfirst) { // destroy and deallocate old array

  0008a	85 ff		 test	 edi, edi
  0008c	74 2c		 je	 SHORT $LN11@wndMgrGetS

; 2110 :             _Al.deallocate(_Myfirst, static_cast<size_type>(_Myend - _Myfirst));

  0008e	8b 4d f4	 mov	 ecx, DWORD PTR _v_slots$[ebp+8]
; File C:\Program Files\Microsoft Visual Studio\2022\Community\VC\Tools\MSVC\14.34.31933\include\xmemory

; 830  :         _Deallocate<_New_alignof<_Ty>>(_Ptr, sizeof(_Ty) * _Count);

  00091	8b c7		 mov	 eax, edi
; File C:\Program Files\Microsoft Visual Studio\2022\Community\VC\Tools\MSVC\14.34.31933\include\vector

; 2110 :             _Al.deallocate(_Myfirst, static_cast<size_type>(_Myend - _Myfirst));

  00093	2b cf		 sub	 ecx, edi
; File C:\Program Files\Microsoft Visual Studio\2022\Community\VC\Tools\MSVC\14.34.31933\include\xmemory

; 830  :         _Deallocate<_New_alignof<_Ty>>(_Ptr, sizeof(_Ty) * _Count);

  00095	83 e1 fc	 and	 ecx, -4			; fffffffcH

; 251  :         if (_Bytes >= _Big_allocation_threshold) { // boost the alignment of big allocations to help autovectorization

  00098	81 f9 00 10 00
	00		 cmp	 ecx, 4096		; 00001000H
  0009e	72 10		 jb	 SHORT $LN27@wndMgrGetS

; 150  :     const uintptr_t _Ptr_container   = _Ptr_user[-1];

  000a0	8b 78 fc	 mov	 edi, DWORD PTR [eax-4]
  000a3	83 c1 23	 add	 ecx, 35			; 00000023H
  000a6	2b c7		 sub	 eax, edi

; 164  :     _STL_VERIFY(_Back_shift >= _Min_back_shift && _Back_shift <= _Non_user_size, "invalid argument");

  000a8	83 c0 fc	 add	 eax, -4			; fffffffcH
  000ab	83 f8 1f	 cmp	 eax, 31			; 0000001fH
  000ae	77 13		 ja	 SHORT $LN41@wndMgrGetS
$LN27@wndMgrGetS:

; 255  :         ::operator delete(_Ptr, _Bytes);

  000b0	51		 push	 ecx
  000b1	57		 push	 edi
  000b2	e8 00 00 00 00	 call	 ??3@YAXPAXI@Z		; operator delete
  000b7	83 c4 08	 add	 esp, 8
$LN11@wndMgrGetS:
; File C:\Users\flourine\Desktop\Xantios\client-src\Code\eterPythonLib\PythonWindowManagerModule.cpp

; 1315 : 	return pyTuple;

  000ba	5f		 pop	 edi
  000bb	8b c6		 mov	 eax, esi
  000bd	5e		 pop	 esi
  000be	5b		 pop	 ebx

; 1316 : }

  000bf	8b e5		 mov	 esp, ebp
  000c1	5d		 pop	 ebp
  000c2	c3		 ret	 0
$LN41@wndMgrGetS:
; File C:\Program Files\Microsoft Visual Studio\2022\Community\VC\Tools\MSVC\14.34.31933\include\xmemory

; 164  :     _STL_VERIFY(_Back_shift >= _Min_back_shift && _Back_shift <= _Non_user_size, "invalid argument");

  000c3	e8 00 00 00 00	 call	 __invalid_parameter_noinfo_noreturn
$LN39@wndMgrGetS:
  000c8	cc		 int	 3
?wndMgrGetSlotIndices@@YAPAU_object@@PAU1@0@Z ENDP	; wndMgrGetSlotIndices
_TEXT	ENDS
; Function compile flags: /Ogtp
; File C:\Users\flourine\Desktop\Xantios\client-src\Code\eterPythonLib\PythonWindowManagerModule.cpp
;	COMDAT ?wndMgrSetAlwaysRenderCoverButton@@YAPAU_object@@PAU1@0@Z
_TEXT	SEGMENT
_pWindow$ = -12						; size = 4
_iSlotIndex$ = -8					; size = 4
_bAlwaysRender$ = -4					; size = 1
_poSelf$ = 8						; size = 4
_poArgs$ = 12						; size = 4
?wndMgrSetAlwaysRenderCoverButton@@YAPAU_object@@PAU1@0@Z PROC ; wndMgrSetAlwaysRenderCoverButton, COMDAT

; 1271 : {

  00000	55		 push	 ebp
  00001	8b ec		 mov	 ebp, esp
  00003	83 ec 0c	 sub	 esp, 12			; 0000000cH

; 1272 : 	UI::CWindow * pWindow;
; 1273 : 	if (!PyTuple_GetWindow(poArgs, 0, &pWindow))

  00006	8d 45 f4	 lea	 eax, DWORD PTR _pWindow$[ebp]
  00009	56		 push	 esi
  0000a	8b 75 0c	 mov	 esi, DWORD PTR _poArgs$[ebp]
  0000d	50		 push	 eax
  0000e	6a 00		 push	 0
  00010	56		 push	 esi
  00011	e8 00 00 00 00	 call	 ?PyTuple_GetWindow@@YA_NPAU_object@@HPAPAVCWindow@UI@@@Z ; PyTuple_GetWindow
  00016	83 c4 0c	 add	 esp, 12			; 0000000cH
  00019	84 c0		 test	 al, al
  0001b	75 0f		 jne	 SHORT $LN2@wndMgrSetA
$LN6@wndMgrSetA:

; 1295 : }

  0001d	6a 00		 push	 0
  0001f	e8 00 00 00 00	 call	 ?Py_BuildException@@YAPAU_object@@PBDZZ ; Py_BuildException
  00024	83 c4 04	 add	 esp, 4
  00027	5e		 pop	 esi
  00028	8b e5		 mov	 esp, ebp
  0002a	5d		 pop	 ebp
  0002b	c3		 ret	 0
$LN2@wndMgrSetA:

; 1274 : 	{
; 1275 : 		return Py_BuildException();
; 1276 : 	}
; 1277 : 
; 1278 : 	int iSlotIndex;
; 1279 : 	bool bAlwaysRender = false;
; 1280 : 
; 1281 : 	if (!PyTuple_GetInteger(poArgs, 1, &iSlotIndex))

  0002c	8d 45 f8	 lea	 eax, DWORD PTR _iSlotIndex$[ebp]
  0002f	c6 45 fc 00	 mov	 BYTE PTR _bAlwaysRender$[ebp], 0
  00033	50		 push	 eax
  00034	6a 01		 push	 1
  00036	56		 push	 esi
  00037	e8 00 00 00 00	 call	 ?PyTuple_GetInteger@@YA_NPAU_object@@HPAH@Z ; PyTuple_GetInteger
  0003c	83 c4 0c	 add	 esp, 12			; 0000000cH
  0003f	84 c0		 test	 al, al
  00041	74 da		 je	 SHORT $LN6@wndMgrSetA

; 1282 : 	{
; 1283 : 		return Py_BuildException();
; 1284 : 	}
; 1285 : 
; 1286 : 	if (!PyTuple_GetBoolean(poArgs, 2, &bAlwaysRender))

  00043	8d 45 fc	 lea	 eax, DWORD PTR _bAlwaysRender$[ebp]
  00046	50		 push	 eax
  00047	6a 02		 push	 2
  00049	56		 push	 esi
  0004a	e8 00 00 00 00	 call	 ?PyTuple_GetBoolean@@YA_NPAU_object@@HPA_N@Z ; PyTuple_GetBoolean
  0004f	83 c4 0c	 add	 esp, 12			; 0000000cH
  00052	84 c0		 test	 al, al
  00054	74 c7		 je	 SHORT $LN6@wndMgrSetA

; 1287 : 	{
; 1288 : 		return Py_BuildException();
; 1289 : 	}
; 1290 : 
; 1291 : 	UI::CSlotWindow * pSlotWin = (UI::CSlotWindow *)pWindow;
; 1292 : 	pSlotWin->SetAlwaysRenderCoverButton(iSlotIndex, bAlwaysRender);

  00056	ff 75 fc	 push	 DWORD PTR _bAlwaysRender$[ebp]
  00059	8b 4d f4	 mov	 ecx, DWORD PTR _pWindow$[ebp]
  0005c	ff 75 f8	 push	 DWORD PTR _iSlotIndex$[ebp]
  0005f	e8 00 00 00 00	 call	 ?SetAlwaysRenderCoverButton@CSlotWindow@UI@@QAEXK_N@Z ; UI::CSlotWindow::SetAlwaysRenderCoverButton

; 1293 : 
; 1294 : 	return Py_BuildNone();

  00064	e8 00 00 00 00	 call	 ?Py_BuildNone@@YAPAU_object@@XZ ; Py_BuildNone
  00069	5e		 pop	 esi

; 1295 : }

  0006a	8b e5		 mov	 esp, ebp
  0006c	5d		 pop	 ebp
  0006d	c3		 ret	 0
?wndMgrSetAlwaysRenderCoverButton@@YAPAU_object@@PAU1@0@Z ENDP ; wndMgrSetAlwaysRenderCoverButton
_TEXT	ENDS
; Function compile flags: /Ogtp
; File C:\Users\flourine\Desktop\Xantios\client-src\Code\eterPythonLib\PythonWindowManagerModule.cpp
;	COMDAT ?wndMgrIsDisableCoverButton@@YAPAU_object@@PAU1@0@Z
_TEXT	SEGMENT
_pWindow$ = -8						; size = 4
_iSlotIndex$ = -4					; size = 4
_poSelf$ = 8						; size = 4
_poArgs$ = 12						; size = 4
?wndMgrIsDisableCoverButton@@YAPAU_object@@PAU1@0@Z PROC ; wndMgrIsDisableCoverButton, COMDAT

; 1253 : {

  00000	55		 push	 ebp
  00001	8b ec		 mov	 ebp, esp
  00003	83 ec 08	 sub	 esp, 8

; 1254 : 	UI::CWindow * pWindow;
; 1255 : 	if (!PyTuple_GetWindow(poArgs, 0, &pWindow))

  00006	8d 45 f8	 lea	 eax, DWORD PTR _pWindow$[ebp]
  00009	50		 push	 eax
  0000a	6a 00		 push	 0
  0000c	ff 75 0c	 push	 DWORD PTR _poArgs$[ebp]
  0000f	e8 00 00 00 00	 call	 ?PyTuple_GetWindow@@YA_NPAU_object@@HPAPAVCWindow@UI@@@Z ; PyTuple_GetWindow
  00014	83 c4 0c	 add	 esp, 12			; 0000000cH
  00017	84 c0		 test	 al, al
  00019	75 0e		 jne	 SHORT $LN2@wndMgrIsDi
$LN5@wndMgrIsDi:

; 1268 : }

  0001b	6a 00		 push	 0
  0001d	e8 00 00 00 00	 call	 ?Py_BuildException@@YAPAU_object@@PBDZZ ; Py_BuildException
  00022	83 c4 04	 add	 esp, 4
  00025	8b e5		 mov	 esp, ebp
  00027	5d		 pop	 ebp
  00028	c3		 ret	 0
$LN2@wndMgrIsDi:

; 1256 : 	{
; 1257 : 		return Py_BuildException();
; 1258 : 	}
; 1259 : 
; 1260 : 	int iSlotIndex;
; 1261 : 	if (!PyTuple_GetInteger(poArgs, 1, &iSlotIndex))

  00029	8d 45 fc	 lea	 eax, DWORD PTR _iSlotIndex$[ebp]
  0002c	50		 push	 eax
  0002d	6a 01		 push	 1
  0002f	ff 75 0c	 push	 DWORD PTR _poArgs$[ebp]
  00032	e8 00 00 00 00	 call	 ?PyTuple_GetInteger@@YA_NPAU_object@@HPAH@Z ; PyTuple_GetInteger
  00037	83 c4 0c	 add	 esp, 12			; 0000000cH
  0003a	84 c0		 test	 al, al
  0003c	74 dd		 je	 SHORT $LN5@wndMgrIsDi

; 1262 : 	{
; 1263 : 		return Py_BuildException();
; 1264 : 	}
; 1265 : 
; 1266 : 	UI::CSlotWindow * pSlotWin = (UI::CSlotWindow *)pWindow;
; 1267 : 	return Py_BuildValue("i", pSlotWin->IsDisableCoverButton(iSlotIndex));

  0003e	ff 75 fc	 push	 DWORD PTR _iSlotIndex$[ebp]
  00041	8b 4d f8	 mov	 ecx, DWORD PTR _pWindow$[ebp]
  00044	e8 00 00 00 00	 call	 ?IsDisableCoverButton@CSlotWindow@UI@@QAEHK@Z ; UI::CSlotWindow::IsDisableCoverButton
  00049	50		 push	 eax
  0004a	68 00 00 00 00	 push	 OFFSET ??_C@_01KBJDNOO@i@
  0004f	ff 15 00 00 00
	00		 call	 DWORD PTR __imp__Py_BuildValue
  00055	83 c4 08	 add	 esp, 8

; 1268 : }

  00058	8b e5		 mov	 esp, ebp
  0005a	5d		 pop	 ebp
  0005b	c3		 ret	 0
?wndMgrIsDisableCoverButton@@YAPAU_object@@PAU1@0@Z ENDP ; wndMgrIsDisableCoverButton
_TEXT	ENDS
; Function compile flags: /Ogtp
; File C:\Users\flourine\Desktop\Xantios\client-src\Code\eterPythonLib\PythonWindowManagerModule.cpp
;	COMDAT ?wndMgrDisableCoverButton@@YAPAU_object@@PAU1@0@Z
_TEXT	SEGMENT
_pWindow$ = -8						; size = 4
_iSlotIndex$ = -4					; size = 4
_poSelf$ = 8						; size = 4
_poArgs$ = 12						; size = 4
?wndMgrDisableCoverButton@@YAPAU_object@@PAU1@0@Z PROC	; wndMgrDisableCoverButton, COMDAT

; 1233 : {

  00000	55		 push	 ebp
  00001	8b ec		 mov	 ebp, esp
  00003	83 ec 08	 sub	 esp, 8

; 1234 : 	UI::CWindow * pWindow;
; 1235 : 	if (!PyTuple_GetWindow(poArgs, 0, &pWindow))

  00006	8d 45 f8	 lea	 eax, DWORD PTR _pWindow$[ebp]
  00009	50		 push	 eax
  0000a	6a 00		 push	 0
  0000c	ff 75 0c	 push	 DWORD PTR _poArgs$[ebp]
  0000f	e8 00 00 00 00	 call	 ?PyTuple_GetWindow@@YA_NPAU_object@@HPAPAVCWindow@UI@@@Z ; PyTuple_GetWindow
  00014	83 c4 0c	 add	 esp, 12			; 0000000cH
  00017	84 c0		 test	 al, al
  00019	75 0e		 jne	 SHORT $LN2@wndMgrDisa
$LN5@wndMgrDisa:

; 1250 : }

  0001b	6a 00		 push	 0
  0001d	e8 00 00 00 00	 call	 ?Py_BuildException@@YAPAU_object@@PBDZZ ; Py_BuildException
  00022	83 c4 04	 add	 esp, 4
  00025	8b e5		 mov	 esp, ebp
  00027	5d		 pop	 ebp
  00028	c3		 ret	 0
$LN2@wndMgrDisa:

; 1236 : 	{
; 1237 : 		return Py_BuildException();
; 1238 : 	}
; 1239 : 
; 1240 : 	int iSlotIndex;
; 1241 : 	if (!PyTuple_GetInteger(poArgs, 1, &iSlotIndex))

  00029	8d 45 fc	 lea	 eax, DWORD PTR _iSlotIndex$[ebp]
  0002c	50		 push	 eax
  0002d	6a 01		 push	 1
  0002f	ff 75 0c	 push	 DWORD PTR _poArgs$[ebp]
  00032	e8 00 00 00 00	 call	 ?PyTuple_GetInteger@@YA_NPAU_object@@HPAH@Z ; PyTuple_GetInteger
  00037	83 c4 0c	 add	 esp, 12			; 0000000cH
  0003a	84 c0		 test	 al, al
  0003c	74 dd		 je	 SHORT $LN5@wndMgrDisa

; 1242 : 	{
; 1243 : 		return Py_BuildException();
; 1244 : 	}
; 1245 : 
; 1246 : 	UI::CSlotWindow * pSlotWin = (UI::CSlotWindow *)pWindow;
; 1247 : 	pSlotWin->DisableCoverButton(iSlotIndex);

  0003e	ff 75 fc	 push	 DWORD PTR _iSlotIndex$[ebp]
  00041	8b 4d f8	 mov	 ecx, DWORD PTR _pWindow$[ebp]
  00044	e8 00 00 00 00	 call	 ?DisableCoverButton@CSlotWindow@UI@@QAEXK@Z ; UI::CSlotWindow::DisableCoverButton

; 1248 : 
; 1249 : 	return Py_BuildNone();

  00049	e8 00 00 00 00	 call	 ?Py_BuildNone@@YAPAU_object@@XZ ; Py_BuildNone

; 1250 : }

  0004e	8b e5		 mov	 esp, ebp
  00050	5d		 pop	 ebp
  00051	c3		 ret	 0
?wndMgrDisableCoverButton@@YAPAU_object@@PAU1@0@Z ENDP	; wndMgrDisableCoverButton
_TEXT	ENDS
; Function compile flags: /Ogtp
; File C:\Users\flourine\Desktop\Xantios\client-src\Code\eterPythonLib\PythonWindowManagerModule.cpp
;	COMDAT ?wndMgrEnableCoverButton@@YAPAU_object@@PAU1@0@Z
_TEXT	SEGMENT
_pWindow$ = -8						; size = 4
_iSlotIndex$ = -4					; size = 4
_poSelf$ = 8						; size = 4
_poArgs$ = 12						; size = 4
?wndMgrEnableCoverButton@@YAPAU_object@@PAU1@0@Z PROC	; wndMgrEnableCoverButton, COMDAT

; 1213 : {

  00000	55		 push	 ebp
  00001	8b ec		 mov	 ebp, esp
  00003	83 ec 08	 sub	 esp, 8

; 1214 : 	UI::CWindow * pWindow;
; 1215 : 	if (!PyTuple_GetWindow(poArgs, 0, &pWindow))

  00006	8d 45 f8	 lea	 eax, DWORD PTR _pWindow$[ebp]
  00009	50		 push	 eax
  0000a	6a 00		 push	 0
  0000c	ff 75 0c	 push	 DWORD PTR _poArgs$[ebp]
  0000f	e8 00 00 00 00	 call	 ?PyTuple_GetWindow@@YA_NPAU_object@@HPAPAVCWindow@UI@@@Z ; PyTuple_GetWindow
  00014	83 c4 0c	 add	 esp, 12			; 0000000cH
  00017	84 c0		 test	 al, al
  00019	75 0e		 jne	 SHORT $LN2@wndMgrEnab
$LN5@wndMgrEnab:

; 1230 : }

  0001b	6a 00		 push	 0
  0001d	e8 00 00 00 00	 call	 ?Py_BuildException@@YAPAU_object@@PBDZZ ; Py_BuildException
  00022	83 c4 04	 add	 esp, 4
  00025	8b e5		 mov	 esp, ebp
  00027	5d		 pop	 ebp
  00028	c3		 ret	 0
$LN2@wndMgrEnab:

; 1216 : 	{
; 1217 : 		return Py_BuildException();
; 1218 : 	}
; 1219 : 
; 1220 : 	int iSlotIndex;
; 1221 : 	if (!PyTuple_GetInteger(poArgs, 1, &iSlotIndex))

  00029	8d 45 fc	 lea	 eax, DWORD PTR _iSlotIndex$[ebp]
  0002c	50		 push	 eax
  0002d	6a 01		 push	 1
  0002f	ff 75 0c	 push	 DWORD PTR _poArgs$[ebp]
  00032	e8 00 00 00 00	 call	 ?PyTuple_GetInteger@@YA_NPAU_object@@HPAH@Z ; PyTuple_GetInteger
  00037	83 c4 0c	 add	 esp, 12			; 0000000cH
  0003a	84 c0		 test	 al, al
  0003c	74 dd		 je	 SHORT $LN5@wndMgrEnab

; 1222 : 	{
; 1223 : 		return Py_BuildException();
; 1224 : 	}
; 1225 : 
; 1226 : 	UI::CSlotWindow * pSlotWin = (UI::CSlotWindow *)pWindow;
; 1227 : 	pSlotWin->EnableCoverButton(iSlotIndex);

  0003e	ff 75 fc	 push	 DWORD PTR _iSlotIndex$[ebp]
  00041	8b 4d f8	 mov	 ecx, DWORD PTR _pWindow$[ebp]
  00044	e8 00 00 00 00	 call	 ?EnableCoverButton@CSlotWindow@UI@@QAEXK@Z ; UI::CSlotWindow::EnableCoverButton

; 1228 : 
; 1229 : 	return Py_BuildNone();

  00049	e8 00 00 00 00	 call	 ?Py_BuildNone@@YAPAU_object@@XZ ; Py_BuildNone

; 1230 : }

  0004e	8b e5		 mov	 esp, ebp
  00050	5d		 pop	 ebp
  00051	c3		 ret	 0
?wndMgrEnableCoverButton@@YAPAU_object@@PAU1@0@Z ENDP	; wndMgrEnableCoverButton
_TEXT	ENDS
; Function compile flags: /Ogtp
; File C:\Users\flourine\Desktop\Xantios\client-src\Code\eterPythonLib\PythonWindowManagerModule.cpp
;	COMDAT ?wndMgrSetCoverButton@@YAPAU_object@@PAU1@0@Z
_TEXT	SEGMENT
_pWindow$ = -32						; size = 4
_iSlotIndex$ = -28					; size = 4
_szUpImageName$ = -24					; size = 4
_szOverImageName$ = -20					; size = 4
_szDownImageName$ = -16					; size = 4
_szDisableImageName$ = -12				; size = 4
_iLeftButtonEnable$ = -8				; size = 4
_iRightButtonEnable$ = -4				; size = 4
_poSelf$ = 8						; size = 4
_poArgs$ = 12						; size = 4
?wndMgrSetCoverButton@@YAPAU_object@@PAU1@0@Z PROC	; wndMgrSetCoverButton, COMDAT

; 1161 : {

  00000	55		 push	 ebp
  00001	8b ec		 mov	 ebp, esp
  00003	83 ec 20	 sub	 esp, 32			; 00000020H

; 1162 : 	UI::CWindow * pWindow;
; 1163 : 	if (!PyTuple_GetWindow(poArgs, 0, &pWindow))

  00006	8d 45 e0	 lea	 eax, DWORD PTR _pWindow$[ebp]
  00009	56		 push	 esi
  0000a	8b 75 0c	 mov	 esi, DWORD PTR _poArgs$[ebp]
  0000d	50		 push	 eax
  0000e	6a 00		 push	 0
  00010	56		 push	 esi
  00011	e8 00 00 00 00	 call	 ?PyTuple_GetWindow@@YA_NPAU_object@@HPAPAVCWindow@UI@@@Z ; PyTuple_GetWindow
  00016	83 c4 0c	 add	 esp, 12			; 0000000cH
  00019	84 c0		 test	 al, al
  0001b	75 0f		 jne	 SHORT $LN2@wndMgrSetC
$LN11@wndMgrSetC:

; 1210 : }

  0001d	6a 00		 push	 0
  0001f	e8 00 00 00 00	 call	 ?Py_BuildException@@YAPAU_object@@PBDZZ ; Py_BuildException
  00024	83 c4 04	 add	 esp, 4
  00027	5e		 pop	 esi
  00028	8b e5		 mov	 esp, ebp
  0002a	5d		 pop	 ebp
  0002b	c3		 ret	 0
$LN2@wndMgrSetC:

; 1164 : 	{
; 1165 : 		return Py_BuildException();
; 1166 : 	}
; 1167 : 
; 1168 : 	int iSlotIndex;
; 1169 : 	if (!PyTuple_GetInteger(poArgs, 1, &iSlotIndex))

  0002c	8d 45 e4	 lea	 eax, DWORD PTR _iSlotIndex$[ebp]
  0002f	50		 push	 eax
  00030	6a 01		 push	 1
  00032	56		 push	 esi
  00033	e8 00 00 00 00	 call	 ?PyTuple_GetInteger@@YA_NPAU_object@@HPAH@Z ; PyTuple_GetInteger
  00038	83 c4 0c	 add	 esp, 12			; 0000000cH
  0003b	84 c0		 test	 al, al
  0003d	74 de		 je	 SHORT $LN11@wndMgrSetC

; 1170 : 	{
; 1171 : 		return Py_BuildException();
; 1172 : 	}
; 1173 : 
; 1174 : 	char * szUpImageName;
; 1175 : 	if (!PyTuple_GetString(poArgs, 2, &szUpImageName))

  0003f	8d 45 e8	 lea	 eax, DWORD PTR _szUpImageName$[ebp]
  00042	50		 push	 eax
  00043	6a 02		 push	 2
  00045	56		 push	 esi
  00046	e8 00 00 00 00	 call	 ?PyTuple_GetString@@YA_NPAU_object@@HPAPAD@Z ; PyTuple_GetString
  0004b	83 c4 0c	 add	 esp, 12			; 0000000cH
  0004e	84 c0		 test	 al, al
  00050	74 cb		 je	 SHORT $LN11@wndMgrSetC

; 1176 : 	{
; 1177 : 		return Py_BuildException();
; 1178 : 	}
; 1179 : 	char * szOverImageName;
; 1180 : 	if (!PyTuple_GetString(poArgs, 3, &szOverImageName))

  00052	8d 45 ec	 lea	 eax, DWORD PTR _szOverImageName$[ebp]
  00055	50		 push	 eax
  00056	6a 03		 push	 3
  00058	56		 push	 esi
  00059	e8 00 00 00 00	 call	 ?PyTuple_GetString@@YA_NPAU_object@@HPAPAD@Z ; PyTuple_GetString
  0005e	83 c4 0c	 add	 esp, 12			; 0000000cH
  00061	84 c0		 test	 al, al
  00063	74 b8		 je	 SHORT $LN11@wndMgrSetC

; 1181 : 	{
; 1182 : 		return Py_BuildException();
; 1183 : 	}
; 1184 : 	char * szDownImageName;
; 1185 : 	if (!PyTuple_GetString(poArgs, 4, &szDownImageName))

  00065	8d 45 f0	 lea	 eax, DWORD PTR _szDownImageName$[ebp]
  00068	50		 push	 eax
  00069	6a 04		 push	 4
  0006b	56		 push	 esi
  0006c	e8 00 00 00 00	 call	 ?PyTuple_GetString@@YA_NPAU_object@@HPAPAD@Z ; PyTuple_GetString
  00071	83 c4 0c	 add	 esp, 12			; 0000000cH
  00074	84 c0		 test	 al, al
  00076	74 a5		 je	 SHORT $LN11@wndMgrSetC

; 1186 : 	{
; 1187 : 		return Py_BuildException();
; 1188 : 	}
; 1189 : 	char * szDisableImageName;
; 1190 : 	if (!PyTuple_GetString(poArgs, 5, &szDisableImageName))

  00078	8d 45 f4	 lea	 eax, DWORD PTR _szDisableImageName$[ebp]
  0007b	50		 push	 eax
  0007c	6a 05		 push	 5
  0007e	56		 push	 esi
  0007f	e8 00 00 00 00	 call	 ?PyTuple_GetString@@YA_NPAU_object@@HPAPAD@Z ; PyTuple_GetString
  00084	83 c4 0c	 add	 esp, 12			; 0000000cH
  00087	84 c0		 test	 al, al
  00089	74 92		 je	 SHORT $LN11@wndMgrSetC

; 1191 : 	{
; 1192 : 		return Py_BuildException();
; 1193 : 	}
; 1194 : 
; 1195 : 	int iLeftButtonEnable;
; 1196 : 	if (!PyTuple_GetInteger(poArgs, 6, &iLeftButtonEnable))

  0008b	8d 45 f8	 lea	 eax, DWORD PTR _iLeftButtonEnable$[ebp]
  0008e	50		 push	 eax
  0008f	6a 06		 push	 6
  00091	56		 push	 esi
  00092	e8 00 00 00 00	 call	 ?PyTuple_GetInteger@@YA_NPAU_object@@HPAH@Z ; PyTuple_GetInteger
  00097	83 c4 0c	 add	 esp, 12			; 0000000cH
  0009a	84 c0		 test	 al, al
  0009c	0f 84 7b ff ff
	ff		 je	 $LN11@wndMgrSetC

; 1197 : 	{
; 1198 : 		return Py_BuildException();
; 1199 : 	}
; 1200 : 	int iRightButtonEnable;
; 1201 : 	if (!PyTuple_GetInteger(poArgs, 7, &iRightButtonEnable))

  000a2	8d 45 fc	 lea	 eax, DWORD PTR _iRightButtonEnable$[ebp]
  000a5	50		 push	 eax
  000a6	6a 07		 push	 7
  000a8	56		 push	 esi
  000a9	e8 00 00 00 00	 call	 ?PyTuple_GetInteger@@YA_NPAU_object@@HPAH@Z ; PyTuple_GetInteger
  000ae	83 c4 0c	 add	 esp, 12			; 0000000cH
  000b1	84 c0		 test	 al, al
  000b3	0f 84 64 ff ff
	ff		 je	 $LN11@wndMgrSetC

; 1202 : 	{
; 1203 : 		return Py_BuildException();
; 1204 : 	}
; 1205 : 
; 1206 : 	UI::CSlotWindow * pSlotWin = (UI::CSlotWindow *)pWindow;
; 1207 : 	pSlotWin->SetCoverButton(iSlotIndex, szUpImageName, szOverImageName, szDownImageName, szDisableImageName, iLeftButtonEnable, iRightButtonEnable);

  000b9	ff 75 fc	 push	 DWORD PTR _iRightButtonEnable$[ebp]
  000bc	8b 4d e0	 mov	 ecx, DWORD PTR _pWindow$[ebp]
  000bf	ff 75 f8	 push	 DWORD PTR _iLeftButtonEnable$[ebp]
  000c2	ff 75 f4	 push	 DWORD PTR _szDisableImageName$[ebp]
  000c5	ff 75 f0	 push	 DWORD PTR _szDownImageName$[ebp]
  000c8	ff 75 ec	 push	 DWORD PTR _szOverImageName$[ebp]
  000cb	ff 75 e8	 push	 DWORD PTR _szUpImageName$[ebp]
  000ce	ff 75 e4	 push	 DWORD PTR _iSlotIndex$[ebp]
  000d1	e8 00 00 00 00	 call	 ?SetCoverButton@CSlotWindow@UI@@QAEXKPBD000HH@Z ; UI::CSlotWindow::SetCoverButton

; 1208 : 
; 1209 : 	return Py_BuildNone();

  000d6	e8 00 00 00 00	 call	 ?Py_BuildNone@@YAPAU_object@@XZ ; Py_BuildNone
  000db	5e		 pop	 esi

; 1210 : }

  000dc	8b e5		 mov	 esp, ebp
  000de	5d		 pop	 ebp
  000df	c3		 ret	 0
?wndMgrSetCoverButton@@YAPAU_object@@PAU1@0@Z ENDP	; wndMgrSetCoverButton
_TEXT	ENDS
; Function compile flags: /Ogtp
; File C:\Users\flourine\Desktop\Xantios\client-src\Code\eterPythonLib\PythonWindowManagerModule.cpp
;	COMDAT ?wndMgrSetSlotBaseImage@@YAPAU_object@@PAU1@0@Z
_TEXT	SEGMENT
_szFileName$ = -24					; size = 4
_fr$ = -20						; size = 4
_fg$ = -16						; size = 4
_fb$ = -12						; size = 4
_fa$ = -8						; size = 4
_pWin$ = -4						; size = 4
_poSelf$ = 8						; size = 4
_poArgs$ = 12						; size = 4
?wndMgrSetSlotBaseImage@@YAPAU_object@@PAU1@0@Z PROC	; wndMgrSetSlotBaseImage, COMDAT

; 1114 : {

  00000	55		 push	 ebp
  00001	8b ec		 mov	 ebp, esp
  00003	83 ec 18	 sub	 esp, 24			; 00000018H

; 1115 : 	UI::CWindow * pWin;
; 1116 : 	if (!PyTuple_GetWindow(poArgs, 0, &pWin))

  00006	8d 45 fc	 lea	 eax, DWORD PTR _pWin$[ebp]
  00009	56		 push	 esi
  0000a	8b 75 0c	 mov	 esi, DWORD PTR _poArgs$[ebp]
  0000d	50		 push	 eax
  0000e	6a 00		 push	 0
  00010	56		 push	 esi
  00011	e8 00 00 00 00	 call	 ?PyTuple_GetWindow@@YA_NPAU_object@@HPAPAVCWindow@UI@@@Z ; PyTuple_GetWindow
  00016	83 c4 0c	 add	 esp, 12			; 0000000cH
  00019	84 c0		 test	 al, al
  0001b	75 0f		 jne	 SHORT $LN2@wndMgrSetS
$LN10@wndMgrSetS:

; 1158 : }

  0001d	6a 00		 push	 0
  0001f	e8 00 00 00 00	 call	 ?Py_BuildException@@YAPAU_object@@PBDZZ ; Py_BuildException
  00024	83 c4 04	 add	 esp, 4
  00027	5e		 pop	 esi
  00028	8b e5		 mov	 esp, ebp
  0002a	5d		 pop	 ebp
  0002b	c3		 ret	 0
$LN2@wndMgrSetS:

; 1117 : 	{
; 1118 : 		return Py_BuildException();
; 1119 : 	}
; 1120 : 
; 1121 : 	char * szFileName;
; 1122 : 	if (!PyTuple_GetString(poArgs, 1, &szFileName))

  0002c	8d 45 e8	 lea	 eax, DWORD PTR _szFileName$[ebp]
  0002f	50		 push	 eax
  00030	6a 01		 push	 1
  00032	56		 push	 esi
  00033	e8 00 00 00 00	 call	 ?PyTuple_GetString@@YA_NPAU_object@@HPAPAD@Z ; PyTuple_GetString
  00038	83 c4 0c	 add	 esp, 12			; 0000000cH
  0003b	84 c0		 test	 al, al
  0003d	74 de		 je	 SHORT $LN10@wndMgrSetS

; 1123 : 	{
; 1124 : 		return Py_BuildException();
; 1125 : 	}
; 1126 : 
; 1127 : 	float fr;
; 1128 : 	if (!PyTuple_GetFloat(poArgs, 2, &fr))

  0003f	8d 45 ec	 lea	 eax, DWORD PTR _fr$[ebp]
  00042	50		 push	 eax
  00043	6a 02		 push	 2
  00045	56		 push	 esi
  00046	e8 00 00 00 00	 call	 ?PyTuple_GetFloat@@YA_NPAU_object@@HPAM@Z ; PyTuple_GetFloat
  0004b	83 c4 0c	 add	 esp, 12			; 0000000cH
  0004e	84 c0		 test	 al, al
  00050	74 cb		 je	 SHORT $LN10@wndMgrSetS

; 1129 : 	{
; 1130 : 		return Py_BuildException();
; 1131 : 	}
; 1132 : 	float fg;
; 1133 : 	if (!PyTuple_GetFloat(poArgs, 3, &fg))

  00052	8d 45 f0	 lea	 eax, DWORD PTR _fg$[ebp]
  00055	50		 push	 eax
  00056	6a 03		 push	 3
  00058	56		 push	 esi
  00059	e8 00 00 00 00	 call	 ?PyTuple_GetFloat@@YA_NPAU_object@@HPAM@Z ; PyTuple_GetFloat
  0005e	83 c4 0c	 add	 esp, 12			; 0000000cH
  00061	84 c0		 test	 al, al
  00063	74 b8		 je	 SHORT $LN10@wndMgrSetS

; 1134 : 	{
; 1135 : 		return Py_BuildException();
; 1136 : 	}
; 1137 : 	float fb;
; 1138 : 	if (!PyTuple_GetFloat(poArgs, 4, &fb))

  00065	8d 45 f4	 lea	 eax, DWORD PTR _fb$[ebp]
  00068	50		 push	 eax
  00069	6a 04		 push	 4
  0006b	56		 push	 esi
  0006c	e8 00 00 00 00	 call	 ?PyTuple_GetFloat@@YA_NPAU_object@@HPAM@Z ; PyTuple_GetFloat
  00071	83 c4 0c	 add	 esp, 12			; 0000000cH
  00074	84 c0		 test	 al, al
  00076	74 a5		 je	 SHORT $LN10@wndMgrSetS

; 1139 : 	{
; 1140 : 		return Py_BuildException();
; 1141 : 	}
; 1142 : 	float fa;
; 1143 : 	if (!PyTuple_GetFloat(poArgs, 5, &fa))

  00078	8d 45 f8	 lea	 eax, DWORD PTR _fa$[ebp]
  0007b	50		 push	 eax
  0007c	6a 05		 push	 5
  0007e	56		 push	 esi
  0007f	e8 00 00 00 00	 call	 ?PyTuple_GetFloat@@YA_NPAU_object@@HPAM@Z ; PyTuple_GetFloat
  00084	83 c4 0c	 add	 esp, 12			; 0000000cH
  00087	84 c0		 test	 al, al
  00089	74 92		 je	 SHORT $LN10@wndMgrSetS

; 1144 : 	{
; 1145 : 		return Py_BuildException();
; 1146 : 	}
; 1147 : 
; 1148 : 	if (!pWin->IsType(UI::CSlotWindow::Type()))

  0008b	e8 00 00 00 00	 call	 ?Type@CSlotWindow@UI@@SAKXZ ; UI::CSlotWindow::Type
  00090	8b 75 fc	 mov	 esi, DWORD PTR _pWin$[ebp]
  00093	8b ce		 mov	 ecx, esi
  00095	50		 push	 eax
  00096	e8 00 00 00 00	 call	 ?IsType@CWindow@UI@@QAEHK@Z ; UI::CWindow::IsType
  0009b	85 c0		 test	 eax, eax
  0009d	75 19		 jne	 SHORT $LN8@wndMgrSetS

; 1149 : 	{
; 1150 : 		TraceError("wndMgr.ArrangeSlot : not a slot window");

  0009f	68 00 00 00 00	 push	 OFFSET ??_C@_0CH@HCFLPGH@wndMgr?4ArrangeSlot?5?3?5not?5a?5slot@
  000a4	e8 00 00 00 00	 call	 ?TraceError@@YAXPBDZZ	; TraceError

; 1151 : 		return Py_BuildException();

  000a9	6a 00		 push	 0
  000ab	e8 00 00 00 00	 call	 ?Py_BuildException@@YAPAU_object@@PBDZZ ; Py_BuildException
  000b0	83 c4 08	 add	 esp, 8
  000b3	5e		 pop	 esi

; 1158 : }

  000b4	8b e5		 mov	 esp, ebp
  000b6	5d		 pop	 ebp
  000b7	c3		 ret	 0
$LN8@wndMgrSetS:

; 1152 : 	}
; 1153 : 
; 1154 : 	UI::CSlotWindow * pSlotWin = (UI::CSlotWindow *)pWin;
; 1155 : 	pSlotWin->SetSlotBaseImage(szFileName, fr, fg, fb, fa);

  000b8	f3 0f 10 45 f8	 movss	 xmm0, DWORD PTR _fa$[ebp]
  000bd	83 ec 10	 sub	 esp, 16			; 00000010H
  000c0	8b ce		 mov	 ecx, esi
  000c2	f3 0f 11 44 24
	0c		 movss	 DWORD PTR [esp+12], xmm0
  000c8	f3 0f 10 45 f4	 movss	 xmm0, DWORD PTR _fb$[ebp]
  000cd	f3 0f 11 44 24
	08		 movss	 DWORD PTR [esp+8], xmm0
  000d3	f3 0f 10 45 f0	 movss	 xmm0, DWORD PTR _fg$[ebp]
  000d8	f3 0f 11 44 24
	04		 movss	 DWORD PTR [esp+4], xmm0
  000de	f3 0f 10 45 ec	 movss	 xmm0, DWORD PTR _fr$[ebp]
  000e3	f3 0f 11 04 24	 movss	 DWORD PTR [esp], xmm0
  000e8	ff 75 e8	 push	 DWORD PTR _szFileName$[ebp]
  000eb	e8 00 00 00 00	 call	 ?SetSlotBaseImage@CSlotWindow@UI@@QAEXPBDMMMM@Z ; UI::CSlotWindow::SetSlotBaseImage

; 1156 : 
; 1157 : 	return Py_BuildNone();

  000f0	e8 00 00 00 00	 call	 ?Py_BuildNone@@YAPAU_object@@XZ ; Py_BuildNone
  000f5	5e		 pop	 esi

; 1158 : }

  000f6	8b e5		 mov	 esp, ebp
  000f8	5d		 pop	 ebp
  000f9	c3		 ret	 0
?wndMgrSetSlotBaseImage@@YAPAU_object@@PAU1@0@Z ENDP	; wndMgrSetSlotBaseImage
_TEXT	ENDS
; Function compile flags: /Ogtp
; File C:\Users\flourine\Desktop\Xantios\client-src\Code\eterPythonLib\PythonWindowManagerModule.cpp
;	COMDAT ?wndMgrArrangeSlot@@YAPAU_object@@PAU1@0@Z
_TEXT	SEGMENT
_iStartIndex$ = -32					; size = 4
_ixCellCount$ = -28					; size = 4
_iyCellCount$ = -24					; size = 4
_ixCellSize$ = -20					; size = 4
_iyCellSize$ = -16					; size = 4
_ixBlank$ = -12						; size = 4
_iyBlank$ = -8						; size = 4
_pWin$ = -4						; size = 4
_poSelf$ = 8						; size = 4
_poArgs$ = 12						; size = 4
?wndMgrArrangeSlot@@YAPAU_object@@PAU1@0@Z PROC		; wndMgrArrangeSlot, COMDAT

; 1052 : {

  00000	55		 push	 ebp
  00001	8b ec		 mov	 ebp, esp
  00003	83 ec 20	 sub	 esp, 32			; 00000020H

; 1053 : 	UI::CWindow * pWin;
; 1054 : 	if (!PyTuple_GetWindow(poArgs, 0, &pWin))

  00006	8d 45 fc	 lea	 eax, DWORD PTR _pWin$[ebp]
  00009	56		 push	 esi
  0000a	8b 75 0c	 mov	 esi, DWORD PTR _poArgs$[ebp]
  0000d	50		 push	 eax
  0000e	6a 00		 push	 0
  00010	56		 push	 esi
  00011	e8 00 00 00 00	 call	 ?PyTuple_GetWindow@@YA_NPAU_object@@HPAPAVCWindow@UI@@@Z ; PyTuple_GetWindow
  00016	83 c4 0c	 add	 esp, 12			; 0000000cH
  00019	84 c0		 test	 al, al
  0001b	75 0f		 jne	 SHORT $LN2@wndMgrArra
$LN12@wndMgrArra:

; 1111 : }

  0001d	6a 00		 push	 0
  0001f	e8 00 00 00 00	 call	 ?Py_BuildException@@YAPAU_object@@PBDZZ ; Py_BuildException
  00024	83 c4 04	 add	 esp, 4
  00027	5e		 pop	 esi
  00028	8b e5		 mov	 esp, ebp
  0002a	5d		 pop	 ebp
  0002b	c3		 ret	 0
$LN2@wndMgrArra:

; 1055 : 	{
; 1056 : 		return Py_BuildException();
; 1057 : 	}
; 1058 : 
; 1059 : 	int iStartIndex;
; 1060 : 	if (!PyTuple_GetInteger(poArgs, 1, &iStartIndex))

  0002c	8d 45 e0	 lea	 eax, DWORD PTR _iStartIndex$[ebp]
  0002f	50		 push	 eax
  00030	6a 01		 push	 1
  00032	56		 push	 esi
  00033	e8 00 00 00 00	 call	 ?PyTuple_GetInteger@@YA_NPAU_object@@HPAH@Z ; PyTuple_GetInteger
  00038	83 c4 0c	 add	 esp, 12			; 0000000cH
  0003b	84 c0		 test	 al, al
  0003d	74 de		 je	 SHORT $LN12@wndMgrArra

; 1061 : 	{
; 1062 : 		return Py_BuildException();
; 1063 : 	}
; 1064 : 
; 1065 : 	int ixCellCount;
; 1066 : 	if (!PyTuple_GetInteger(poArgs, 2, &ixCellCount))

  0003f	8d 45 e4	 lea	 eax, DWORD PTR _ixCellCount$[ebp]
  00042	50		 push	 eax
  00043	6a 02		 push	 2
  00045	56		 push	 esi
  00046	e8 00 00 00 00	 call	 ?PyTuple_GetInteger@@YA_NPAU_object@@HPAH@Z ; PyTuple_GetInteger
  0004b	83 c4 0c	 add	 esp, 12			; 0000000cH
  0004e	84 c0		 test	 al, al
  00050	74 cb		 je	 SHORT $LN12@wndMgrArra

; 1067 : 	{
; 1068 : 		return Py_BuildException();
; 1069 : 	}
; 1070 : 
; 1071 : 	int iyCellCount;
; 1072 : 	if (!PyTuple_GetInteger(poArgs, 3, &iyCellCount))

  00052	8d 45 e8	 lea	 eax, DWORD PTR _iyCellCount$[ebp]
  00055	50		 push	 eax
  00056	6a 03		 push	 3
  00058	56		 push	 esi
  00059	e8 00 00 00 00	 call	 ?PyTuple_GetInteger@@YA_NPAU_object@@HPAH@Z ; PyTuple_GetInteger
  0005e	83 c4 0c	 add	 esp, 12			; 0000000cH
  00061	84 c0		 test	 al, al
  00063	74 b8		 je	 SHORT $LN12@wndMgrArra

; 1073 : 	{
; 1074 : 		return Py_BuildException();
; 1075 : 	}
; 1076 : 
; 1077 : 	int ixCellSize;
; 1078 : 	if (!PyTuple_GetInteger(poArgs, 4, &ixCellSize))

  00065	8d 45 ec	 lea	 eax, DWORD PTR _ixCellSize$[ebp]
  00068	50		 push	 eax
  00069	6a 04		 push	 4
  0006b	56		 push	 esi
  0006c	e8 00 00 00 00	 call	 ?PyTuple_GetInteger@@YA_NPAU_object@@HPAH@Z ; PyTuple_GetInteger
  00071	83 c4 0c	 add	 esp, 12			; 0000000cH
  00074	84 c0		 test	 al, al
  00076	74 a5		 je	 SHORT $LN12@wndMgrArra

; 1079 : 	{
; 1080 : 		return Py_BuildException();
; 1081 : 	}
; 1082 : 
; 1083 : 	int iyCellSize;
; 1084 : 	if (!PyTuple_GetInteger(poArgs, 5, &iyCellSize))

  00078	8d 45 f0	 lea	 eax, DWORD PTR _iyCellSize$[ebp]
  0007b	50		 push	 eax
  0007c	6a 05		 push	 5
  0007e	56		 push	 esi
  0007f	e8 00 00 00 00	 call	 ?PyTuple_GetInteger@@YA_NPAU_object@@HPAH@Z ; PyTuple_GetInteger
  00084	83 c4 0c	 add	 esp, 12			; 0000000cH
  00087	84 c0		 test	 al, al
  00089	74 92		 je	 SHORT $LN12@wndMgrArra

; 1085 : 	{
; 1086 : 		return Py_BuildException();
; 1087 : 	}
; 1088 : 
; 1089 : 	int ixBlank;
; 1090 : 	if (!PyTuple_GetInteger(poArgs, 6, &ixBlank))

  0008b	8d 45 f4	 lea	 eax, DWORD PTR _ixBlank$[ebp]
  0008e	50		 push	 eax
  0008f	6a 06		 push	 6
  00091	56		 push	 esi
  00092	e8 00 00 00 00	 call	 ?PyTuple_GetInteger@@YA_NPAU_object@@HPAH@Z ; PyTuple_GetInteger
  00097	83 c4 0c	 add	 esp, 12			; 0000000cH
  0009a	84 c0		 test	 al, al
  0009c	0f 84 7b ff ff
	ff		 je	 $LN12@wndMgrArra

; 1091 : 	{
; 1092 : 		return Py_BuildException();
; 1093 : 	}
; 1094 : 
; 1095 : 	int iyBlank;
; 1096 : 	if (!PyTuple_GetInteger(poArgs, 7, &iyBlank))

  000a2	8d 45 f8	 lea	 eax, DWORD PTR _iyBlank$[ebp]
  000a5	50		 push	 eax
  000a6	6a 07		 push	 7
  000a8	56		 push	 esi
  000a9	e8 00 00 00 00	 call	 ?PyTuple_GetInteger@@YA_NPAU_object@@HPAH@Z ; PyTuple_GetInteger
  000ae	83 c4 0c	 add	 esp, 12			; 0000000cH
  000b1	84 c0		 test	 al, al
  000b3	0f 84 64 ff ff
	ff		 je	 $LN12@wndMgrArra

; 1097 : 	{
; 1098 : 		return Py_BuildException();
; 1099 : 	}
; 1100 : 
; 1101 : 	if (!pWin->IsType(UI::CGridSlotWindow::Type()))

  000b9	e8 00 00 00 00	 call	 ?Type@CGridSlotWindow@UI@@SAKXZ ; UI::CGridSlotWindow::Type
  000be	8b 75 fc	 mov	 esi, DWORD PTR _pWin$[ebp]
  000c1	8b ce		 mov	 ecx, esi
  000c3	50		 push	 eax
  000c4	e8 00 00 00 00	 call	 ?IsType@CWindow@UI@@QAEHK@Z ; UI::CWindow::IsType
  000c9	85 c0		 test	 eax, eax
  000cb	75 19		 jne	 SHORT $LN10@wndMgrArra

; 1102 : 	{
; 1103 : 		TraceError("wndMgr.ArrangeSlot : not a grid window");

  000cd	68 00 00 00 00	 push	 OFFSET ??_C@_0CH@FFGFLEBP@wndMgr?4ArrangeSlot?5?3?5not?5a?5grid@
  000d2	e8 00 00 00 00	 call	 ?TraceError@@YAXPBDZZ	; TraceError

; 1104 : 		return Py_BuildException();

  000d7	6a 00		 push	 0
  000d9	e8 00 00 00 00	 call	 ?Py_BuildException@@YAPAU_object@@PBDZZ ; Py_BuildException
  000de	83 c4 08	 add	 esp, 8
  000e1	5e		 pop	 esi

; 1111 : }

  000e2	8b e5		 mov	 esp, ebp
  000e4	5d		 pop	 ebp
  000e5	c3		 ret	 0
$LN10@wndMgrArra:

; 1105 : 	}
; 1106 : 
; 1107 : 	UI::CGridSlotWindow * pGridSlotWin = (UI::CGridSlotWindow *)pWin;
; 1108 : 	pGridSlotWin->ArrangeGridSlot(iStartIndex, ixCellCount, iyCellCount, ixCellSize, iyCellSize, ixBlank, iyBlank);

  000e6	ff 75 f8	 push	 DWORD PTR _iyBlank$[ebp]
  000e9	8b ce		 mov	 ecx, esi
  000eb	ff 75 f4	 push	 DWORD PTR _ixBlank$[ebp]
  000ee	ff 75 f0	 push	 DWORD PTR _iyCellSize$[ebp]
  000f1	ff 75 ec	 push	 DWORD PTR _ixCellSize$[ebp]
  000f4	ff 75 e8	 push	 DWORD PTR _iyCellCount$[ebp]
  000f7	ff 75 e4	 push	 DWORD PTR _ixCellCount$[ebp]
  000fa	ff 75 e0	 push	 DWORD PTR _iStartIndex$[ebp]
  000fd	e8 00 00 00 00	 call	 ?ArrangeGridSlot@CGridSlotWindow@UI@@QAEXKKKHHHH@Z ; UI::CGridSlotWindow::ArrangeGridSlot

; 1109 : 
; 1110 : 	return Py_BuildNone();

  00102	e8 00 00 00 00	 call	 ?Py_BuildNone@@YAPAU_object@@XZ ; Py_BuildNone
  00107	5e		 pop	 esi

; 1111 : }

  00108	8b e5		 mov	 esp, ebp
  0010a	5d		 pop	 ebp
  0010b	c3		 ret	 0
?wndMgrArrangeSlot@@YAPAU_object@@PAU1@0@Z ENDP		; wndMgrArrangeSlot
_TEXT	ENDS
; Function compile flags: /Ogtp
; File C:\Users\flourine\Desktop\Xantios\client-src\Code\eterPythonLib\PythonWindowManagerModule.cpp
;	COMDAT ?wndMgrAppendSlot@@YAPAU_object@@PAU1@0@Z
_TEXT	SEGMENT
_iIndex$ = -24						; size = 4
_ixPosition$ = -20					; size = 4
_iyPosition$ = -16					; size = 4
_ixCellSize$ = -12					; size = 4
_iyCellSize$ = -8					; size = 4
_pWin$ = -4						; size = 4
_poSelf$ = 8						; size = 4
_poArgs$ = 12						; size = 4
?wndMgrAppendSlot@@YAPAU_object@@PAU1@0@Z PROC		; wndMgrAppendSlot, COMDAT

; 1003 : {

  00000	55		 push	 ebp
  00001	8b ec		 mov	 ebp, esp
  00003	83 ec 18	 sub	 esp, 24			; 00000018H

; 1004 : 	UI::CWindow * pWin;
; 1005 : 	if (!PyTuple_GetWindow(poArgs, 0, &pWin))

  00006	8d 45 fc	 lea	 eax, DWORD PTR _pWin$[ebp]
  00009	56		 push	 esi
  0000a	8b 75 0c	 mov	 esi, DWORD PTR _poArgs$[ebp]
  0000d	50		 push	 eax
  0000e	6a 00		 push	 0
  00010	56		 push	 esi
  00011	e8 00 00 00 00	 call	 ?PyTuple_GetWindow@@YA_NPAU_object@@HPAPAVCWindow@UI@@@Z ; PyTuple_GetWindow
  00016	83 c4 0c	 add	 esp, 12			; 0000000cH
  00019	84 c0		 test	 al, al
  0001b	75 0f		 jne	 SHORT $LN2@wndMgrAppe
$LN10@wndMgrAppe:

; 1049 : }

  0001d	6a 00		 push	 0
  0001f	e8 00 00 00 00	 call	 ?Py_BuildException@@YAPAU_object@@PBDZZ ; Py_BuildException
  00024	83 c4 04	 add	 esp, 4
  00027	5e		 pop	 esi
  00028	8b e5		 mov	 esp, ebp
  0002a	5d		 pop	 ebp
  0002b	c3		 ret	 0
$LN2@wndMgrAppe:

; 1006 : 	{
; 1007 : 		return Py_BuildException();
; 1008 : 	}
; 1009 : 
; 1010 : 	int iIndex;
; 1011 : 	if (!PyTuple_GetInteger(poArgs, 1, &iIndex))

  0002c	8d 45 e8	 lea	 eax, DWORD PTR _iIndex$[ebp]
  0002f	50		 push	 eax
  00030	6a 01		 push	 1
  00032	56		 push	 esi
  00033	e8 00 00 00 00	 call	 ?PyTuple_GetInteger@@YA_NPAU_object@@HPAH@Z ; PyTuple_GetInteger
  00038	83 c4 0c	 add	 esp, 12			; 0000000cH
  0003b	84 c0		 test	 al, al
  0003d	74 de		 je	 SHORT $LN10@wndMgrAppe

; 1012 : 	{
; 1013 : 		return Py_BuildException();
; 1014 : 	}
; 1015 : 
; 1016 : 	int ixPosition;
; 1017 : 	if (!PyTuple_GetInteger(poArgs, 2, &ixPosition))

  0003f	8d 45 ec	 lea	 eax, DWORD PTR _ixPosition$[ebp]
  00042	50		 push	 eax
  00043	6a 02		 push	 2
  00045	56		 push	 esi
  00046	e8 00 00 00 00	 call	 ?PyTuple_GetInteger@@YA_NPAU_object@@HPAH@Z ; PyTuple_GetInteger
  0004b	83 c4 0c	 add	 esp, 12			; 0000000cH
  0004e	84 c0		 test	 al, al
  00050	74 cb		 je	 SHORT $LN10@wndMgrAppe

; 1018 : 	{
; 1019 : 		return Py_BuildException();
; 1020 : 	}
; 1021 : 
; 1022 : 	int iyPosition;
; 1023 : 	if (!PyTuple_GetInteger(poArgs, 3, &iyPosition))

  00052	8d 45 f0	 lea	 eax, DWORD PTR _iyPosition$[ebp]
  00055	50		 push	 eax
  00056	6a 03		 push	 3
  00058	56		 push	 esi
  00059	e8 00 00 00 00	 call	 ?PyTuple_GetInteger@@YA_NPAU_object@@HPAH@Z ; PyTuple_GetInteger
  0005e	83 c4 0c	 add	 esp, 12			; 0000000cH
  00061	84 c0		 test	 al, al
  00063	74 b8		 je	 SHORT $LN10@wndMgrAppe

; 1024 : 	{
; 1025 : 		return Py_BuildException();
; 1026 : 	}
; 1027 : 
; 1028 : 	int ixCellSize;
; 1029 : 	if (!PyTuple_GetInteger(poArgs, 4, &ixCellSize))

  00065	8d 45 f4	 lea	 eax, DWORD PTR _ixCellSize$[ebp]
  00068	50		 push	 eax
  00069	6a 04		 push	 4
  0006b	56		 push	 esi
  0006c	e8 00 00 00 00	 call	 ?PyTuple_GetInteger@@YA_NPAU_object@@HPAH@Z ; PyTuple_GetInteger
  00071	83 c4 0c	 add	 esp, 12			; 0000000cH
  00074	84 c0		 test	 al, al
  00076	74 a5		 je	 SHORT $LN10@wndMgrAppe

; 1030 : 	{
; 1031 : 		return Py_BuildException();
; 1032 : 	}
; 1033 : 
; 1034 : 	int iyCellSize;
; 1035 : 	if (!PyTuple_GetInteger(poArgs, 5, &iyCellSize))

  00078	8d 45 f8	 lea	 eax, DWORD PTR _iyCellSize$[ebp]
  0007b	50		 push	 eax
  0007c	6a 05		 push	 5
  0007e	56		 push	 esi
  0007f	e8 00 00 00 00	 call	 ?PyTuple_GetInteger@@YA_NPAU_object@@HPAH@Z ; PyTuple_GetInteger
  00084	83 c4 0c	 add	 esp, 12			; 0000000cH
  00087	84 c0		 test	 al, al
  00089	74 92		 je	 SHORT $LN10@wndMgrAppe

; 1036 : 	{
; 1037 : 		return Py_BuildException();
; 1038 : 	}
; 1039 : 
; 1040 : 	if (!pWin->IsType(UI::CSlotWindow::Type()))

  0008b	e8 00 00 00 00	 call	 ?Type@CSlotWindow@UI@@SAKXZ ; UI::CSlotWindow::Type
  00090	8b 75 fc	 mov	 esi, DWORD PTR _pWin$[ebp]
  00093	8b ce		 mov	 ecx, esi
  00095	50		 push	 eax
  00096	e8 00 00 00 00	 call	 ?IsType@CWindow@UI@@QAEHK@Z ; UI::CWindow::IsType
  0009b	85 c0		 test	 eax, eax
  0009d	0f 84 7a ff ff
	ff		 je	 $LN10@wndMgrAppe

; 1041 : 	{
; 1042 : 		return Py_BuildException();
; 1043 : 	}
; 1044 : 
; 1045 : 	UI::CSlotWindow * pSlotWin = (UI::CSlotWindow *)pWin;
; 1046 : 	pSlotWin->AppendSlot(iIndex, ixPosition, iyPosition, ixCellSize, iyCellSize);

  000a3	ff 75 f8	 push	 DWORD PTR _iyCellSize$[ebp]
  000a6	8b ce		 mov	 ecx, esi
  000a8	ff 75 f4	 push	 DWORD PTR _ixCellSize$[ebp]
  000ab	ff 75 f0	 push	 DWORD PTR _iyPosition$[ebp]
  000ae	ff 75 ec	 push	 DWORD PTR _ixPosition$[ebp]
  000b1	ff 75 e8	 push	 DWORD PTR _iIndex$[ebp]
  000b4	e8 00 00 00 00	 call	 ?AppendSlot@CSlotWindow@UI@@QAEXKHHHH@Z ; UI::CSlotWindow::AppendSlot

; 1047 : 
; 1048 : 	return Py_BuildNone();

  000b9	e8 00 00 00 00	 call	 ?Py_BuildNone@@YAPAU_object@@XZ ; Py_BuildNone
  000be	5e		 pop	 esi

; 1049 : }

  000bf	8b e5		 mov	 esp, ebp
  000c1	5d		 pop	 ebp
  000c2	c3		 ret	 0
?wndMgrAppendSlot@@YAPAU_object@@PAU1@0@Z ENDP		; wndMgrAppendSlot
_TEXT	ENDS
; Function compile flags: /Ogtp
; File C:\Users\flourine\Desktop\Xantios\client-src\Code\eterPythonLib\PythonWindowManagerModule.cpp
;	COMDAT ?wndMgrUpdateRect@@YAPAU_object@@PAU1@0@Z
_TEXT	SEGMENT
_pWin$ = -4						; size = 4
_poSelf$ = 8						; size = 4
_poArgs$ = 12						; size = 4
?wndMgrUpdateRect@@YAPAU_object@@PAU1@0@Z PROC		; wndMgrUpdateRect, COMDAT

; 991  : {

  00000	55		 push	 ebp
  00001	8b ec		 mov	 ebp, esp
  00003	51		 push	 ecx

; 992  : 	UI::CWindow * pWin;
; 993  : 	if (!PyTuple_GetWindow(poArgs, 0, &pWin))

  00004	8d 45 fc	 lea	 eax, DWORD PTR _pWin$[ebp]
  00007	50		 push	 eax
  00008	6a 00		 push	 0
  0000a	ff 75 0c	 push	 DWORD PTR _poArgs$[ebp]
  0000d	e8 00 00 00 00	 call	 ?PyTuple_GetWindow@@YA_NPAU_object@@HPAPAVCWindow@UI@@@Z ; PyTuple_GetWindow
  00012	83 c4 0c	 add	 esp, 12			; 0000000cH
  00015	84 c0		 test	 al, al
  00017	75 0e		 jne	 SHORT $LN2@wndMgrUpda

; 994  : 	{
; 995  : 		return Py_BuildException();

  00019	6a 00		 push	 0
  0001b	e8 00 00 00 00	 call	 ?Py_BuildException@@YAPAU_object@@PBDZZ ; Py_BuildException
  00020	83 c4 04	 add	 esp, 4

; 1000 : }

  00023	8b e5		 mov	 esp, ebp
  00025	5d		 pop	 ebp
  00026	c3		 ret	 0
$LN2@wndMgrUpda:

; 996  : 	}
; 997  : 
; 998  : 	pWin->UpdateRect();

  00027	8b 4d fc	 mov	 ecx, DWORD PTR _pWin$[ebp]
  0002a	e8 00 00 00 00	 call	 ?UpdateRect@CWindow@UI@@QAEJXZ ; UI::CWindow::UpdateRect

; 999  : 	return Py_BuildNone();

  0002f	e8 00 00 00 00	 call	 ?Py_BuildNone@@YAPAU_object@@XZ ; Py_BuildNone

; 1000 : }

  00034	8b e5		 mov	 esp, ebp
  00036	5d		 pop	 ebp
  00037	c3		 ret	 0
?wndMgrUpdateRect@@YAPAU_object@@PAU1@0@Z ENDP		; wndMgrUpdateRect
_TEXT	ENDS
; Function compile flags: /Ogtp
; File C:\Users\flourine\Desktop\Xantios\client-src\Code\eterPythonLib\PythonWindowManagerModule.cpp
; File C:\Users\flourine\Desktop\Xantios\client-src\Code\eterPythonLib\PythonWindow.h
; File C:\Users\flourine\Desktop\Xantios\client-src\Code\eterPythonLib\PythonWindowManagerModule.cpp
; File C:\Users\flourine\Desktop\Xantios\client-src\Code\eterPythonLib\PythonWindow.h
; File C:\Users\flourine\Desktop\Xantios\client-src\Code\eterPythonLib\PythonWindowManagerModule.cpp
; File C:\Users\flourine\Desktop\Xantios\client-src\Code\eterPythonLib\PythonWindow.h
; File C:\Users\flourine\Desktop\Xantios\client-src\Code\eterPythonLib\PythonWindowManagerModule.cpp
;	COMDAT ?wndMgrSetLimitBias@@YAPAU_object@@PAU1@0@Z
_TEXT	SEGMENT
_l$ = -20						; size = 4
_pWin$ = -16						; size = 4
_r$ = -12						; size = 4
_t$ = -8						; size = 4
_b$ = -4						; size = 4
_poSelf$ = 8						; size = 4
_poArgs$ = 12						; size = 4
?wndMgrSetLimitBias@@YAPAU_object@@PAU1@0@Z PROC	; wndMgrSetLimitBias, COMDAT

; 958  : {

  00000	55		 push	 ebp
  00001	8b ec		 mov	 ebp, esp
  00003	83 ec 14	 sub	 esp, 20			; 00000014H

; 959  : 	UI::CWindow * pWin;
; 960  : 	if (!PyTuple_GetWindow(poArgs, 0, &pWin))

  00006	8d 45 f0	 lea	 eax, DWORD PTR _pWin$[ebp]
  00009	56		 push	 esi
  0000a	8b 75 0c	 mov	 esi, DWORD PTR _poArgs$[ebp]
  0000d	50		 push	 eax
  0000e	6a 00		 push	 0
  00010	56		 push	 esi
  00011	e8 00 00 00 00	 call	 ?PyTuple_GetWindow@@YA_NPAU_object@@HPAPAVCWindow@UI@@@Z ; PyTuple_GetWindow
  00016	83 c4 0c	 add	 esp, 12			; 0000000cH
  00019	84 c0		 test	 al, al
  0001b	75 0f		 jne	 SHORT $LN2@wndMgrSetL
$LN10@wndMgrSetL:

; 988  : }

  0001d	6a 00		 push	 0
  0001f	e8 00 00 00 00	 call	 ?Py_BuildException@@YAPAU_object@@PBDZZ ; Py_BuildException
  00024	83 c4 04	 add	 esp, 4
  00027	5e		 pop	 esi
  00028	8b e5		 mov	 esp, ebp
  0002a	5d		 pop	 ebp
  0002b	c3		 ret	 0
$LN2@wndMgrSetL:

; 961  : 	{
; 962  : 		return Py_BuildException();
; 963  : 	}
; 964  : 
; 965  : 	int l;
; 966  : 	if (!PyTuple_GetInteger(poArgs, 1, &l))

  0002c	8d 45 ec	 lea	 eax, DWORD PTR _l$[ebp]
  0002f	50		 push	 eax
  00030	6a 01		 push	 1
  00032	56		 push	 esi
  00033	e8 00 00 00 00	 call	 ?PyTuple_GetInteger@@YA_NPAU_object@@HPAH@Z ; PyTuple_GetInteger
  00038	83 c4 0c	 add	 esp, 12			; 0000000cH
  0003b	84 c0		 test	 al, al
  0003d	74 de		 je	 SHORT $LN10@wndMgrSetL

; 967  : 	{
; 968  : 		return Py_BuildException();
; 969  : 	}
; 970  : 	int r;
; 971  : 	if (!PyTuple_GetInteger(poArgs, 2, &r))

  0003f	8d 45 f4	 lea	 eax, DWORD PTR _r$[ebp]
  00042	50		 push	 eax
  00043	6a 02		 push	 2
  00045	56		 push	 esi
  00046	e8 00 00 00 00	 call	 ?PyTuple_GetInteger@@YA_NPAU_object@@HPAH@Z ; PyTuple_GetInteger
  0004b	83 c4 0c	 add	 esp, 12			; 0000000cH
  0004e	84 c0		 test	 al, al
  00050	74 cb		 je	 SHORT $LN10@wndMgrSetL

; 972  : 	{
; 973  : 		return Py_BuildException();
; 974  : 	}
; 975  : 	int t;
; 976  : 	if (!PyTuple_GetInteger(poArgs, 3, &t))

  00052	8d 45 f8	 lea	 eax, DWORD PTR _t$[ebp]
  00055	50		 push	 eax
  00056	6a 03		 push	 3
  00058	56		 push	 esi
  00059	e8 00 00 00 00	 call	 ?PyTuple_GetInteger@@YA_NPAU_object@@HPAH@Z ; PyTuple_GetInteger
  0005e	83 c4 0c	 add	 esp, 12			; 0000000cH
  00061	84 c0		 test	 al, al
  00063	74 b8		 je	 SHORT $LN10@wndMgrSetL

; 977  : 	{
; 978  : 		return Py_BuildException();
; 979  : 	}
; 980  : 	int b;
; 981  : 	if (!PyTuple_GetInteger(poArgs, 4, &b))

  00065	8d 45 fc	 lea	 eax, DWORD PTR _b$[ebp]
  00068	50		 push	 eax
  00069	6a 04		 push	 4
  0006b	56		 push	 esi
  0006c	e8 00 00 00 00	 call	 ?PyTuple_GetInteger@@YA_NPAU_object@@HPAH@Z ; PyTuple_GetInteger
  00071	83 c4 0c	 add	 esp, 12			; 0000000cH
  00074	84 c0		 test	 al, al
  00076	74 a5		 je	 SHORT $LN10@wndMgrSetL
; File C:\Users\flourine\Desktop\Xantios\client-src\Code\eterPythonLib\PythonWindow.h

; 102  : 	void			SetLimitBias(long l, long r, long t, long b) { m_limitBiasRect.left = l, m_limitBiasRect.right = r, m_limitBiasRect.top = t, m_limitBiasRect.bottom = b; }

  00078	8b 55 f0	 mov	 edx, DWORD PTR _pWin$[ebp]
; File C:\Users\flourine\Desktop\Xantios\client-src\Code\eterPythonLib\PythonWindowManagerModule.cpp

; 986  : 	pWin->SetLimitBias(l, r, t, b);

  0007b	8b 75 f8	 mov	 esi, DWORD PTR _t$[ebp]
  0007e	8b 4d f4	 mov	 ecx, DWORD PTR _r$[ebp]
; File C:\Users\flourine\Desktop\Xantios\client-src\Code\eterPythonLib\PythonWindow.h

; 102  : 	void			SetLimitBias(long l, long r, long t, long b) { m_limitBiasRect.left = l, m_limitBiasRect.right = r, m_limitBiasRect.top = t, m_limitBiasRect.bottom = b; }

  00081	8b 45 ec	 mov	 eax, DWORD PTR _l$[ebp]
  00084	57		 push	 edi
; File C:\Users\flourine\Desktop\Xantios\client-src\Code\eterPythonLib\PythonWindowManagerModule.cpp

; 986  : 	pWin->SetLimitBias(l, r, t, b);

  00085	8b 7d fc	 mov	 edi, DWORD PTR _b$[ebp]
; File C:\Users\flourine\Desktop\Xantios\client-src\Code\eterPythonLib\PythonWindow.h

; 102  : 	void			SetLimitBias(long l, long r, long t, long b) { m_limitBiasRect.left = l, m_limitBiasRect.right = r, m_limitBiasRect.top = t, m_limitBiasRect.bottom = b; }

  00088	89 42 54	 mov	 DWORD PTR [edx+84], eax
  0008b	89 4a 5c	 mov	 DWORD PTR [edx+92], ecx
  0008e	89 72 58	 mov	 DWORD PTR [edx+88], esi
  00091	89 7a 60	 mov	 DWORD PTR [edx+96], edi
; File C:\Users\flourine\Desktop\Xantios\client-src\Code\eterPythonLib\PythonWindowManagerModule.cpp

; 987  : 	return Py_BuildNone();

  00094	e8 00 00 00 00	 call	 ?Py_BuildNone@@YAPAU_object@@XZ ; Py_BuildNone
  00099	5f		 pop	 edi
  0009a	5e		 pop	 esi

; 988  : }

  0009b	8b e5		 mov	 esp, ebp
  0009d	5d		 pop	 ebp
  0009e	c3		 ret	 0
?wndMgrSetLimitBias@@YAPAU_object@@PAU1@0@Z ENDP	; wndMgrSetLimitBias
_TEXT	ENDS
; Function compile flags: /Ogtp
; File C:\Users\flourine\Desktop\Xantios\client-src\Code\eterPythonLib\PythonWindowManagerModule.cpp
; File C:\Users\flourine\Desktop\Xantios\client-src\Code\eterPythonLib\PythonWindow.h
; File C:\Users\flourine\Desktop\Xantios\client-src\Code\eterPythonLib\PythonWindowManagerModule.cpp
;	COMDAT ?wndMgrRemoveFlag@@YAPAU_object@@PAU1@0@Z
_TEXT	SEGMENT
_win$ = -8						; size = 4
_pszFlag$ = -4						; size = 4
_poSelf$ = 8						; size = 4
_poArgs$ = 12						; size = 4
?wndMgrRemoveFlag@@YAPAU_object@@PAU1@0@Z PROC		; wndMgrRemoveFlag, COMDAT

; 936  : {

  00000	55		 push	 ebp
  00001	8b ec		 mov	 ebp, esp
  00003	83 ec 08	 sub	 esp, 8

; 937  : 	UI::CWindow* win;
; 938  : 	if (!PyTuple_GetWindow(poArgs, 0, &win))

  00006	8d 45 f8	 lea	 eax, DWORD PTR _win$[ebp]
  00009	50		 push	 eax
  0000a	6a 00		 push	 0
  0000c	ff 75 0c	 push	 DWORD PTR _poArgs$[ebp]
  0000f	e8 00 00 00 00	 call	 ?PyTuple_GetWindow@@YA_NPAU_object@@HPAPAVCWindow@UI@@@Z ; PyTuple_GetWindow
  00014	83 c4 0c	 add	 esp, 12			; 0000000cH
  00017	84 c0		 test	 al, al
  00019	75 09		 jne	 SHORT $LN2@wndMgrRemo
$LN10@wndMgrRemo:

; 955  : }

  0001b	e8 00 00 00 00	 call	 ?Py_BadArgument@@YAPAU_object@@XZ ; Py_BadArgument
  00020	8b e5		 mov	 esp, ebp
  00022	5d		 pop	 ebp
  00023	c3		 ret	 0
$LN2@wndMgrRemo:

; 939  : 		return Py_BadArgument();
; 940  : 
; 941  : 	char* pszFlag;
; 942  : 	if (!PyTuple_GetString(poArgs, 1, &pszFlag))

  00024	8d 45 fc	 lea	 eax, DWORD PTR _pszFlag$[ebp]
  00027	50		 push	 eax
  00028	6a 01		 push	 1
  0002a	ff 75 0c	 push	 DWORD PTR _poArgs$[ebp]
  0002d	e8 00 00 00 00	 call	 ?PyTuple_GetString@@YA_NPAU_object@@HPAPAD@Z ; PyTuple_GetString
  00032	83 c4 0c	 add	 esp, 12			; 0000000cH
  00035	84 c0		 test	 al, al
  00037	74 e2		 je	 SHORT $LN10@wndMgrRemo

; 943  : 		return Py_BadArgument();
; 944  : 
; 945  : 	if (*pszFlag)

  00039	8b 45 fc	 mov	 eax, DWORD PTR _pszFlag$[ebp]
  0003c	80 38 00	 cmp	 BYTE PTR [eax], 0
  0003f	74 30		 je	 SHORT $LN6@wndMgrRemo

; 946  : 	{
; 947  : 		const uint32_t flag = GetFlag(pszFlag);

  00041	50		 push	 eax
  00042	e8 00 00 00 00	 call	 ?GetFlag@@YAIPBD@Z	; GetFlag
  00047	8b c8		 mov	 ecx, eax
  00049	83 c4 04	 add	 esp, 4

; 948  : 		if (!flag)

  0004c	85 c9		 test	 ecx, ecx
  0004e	75 19		 jne	 SHORT $LN5@wndMgrRemo

; 949  : 			TraceError("Unknown window flag %s", pszFlag);

  00050	ff 75 fc	 push	 DWORD PTR _pszFlag$[ebp]
  00053	68 00 00 00 00	 push	 OFFSET ??_C@_0BH@KIGIHPAM@Unknown?5window?5flag?5?$CFs@
  00058	e8 00 00 00 00	 call	 ?TraceError@@YAXPBDZZ	; TraceError
  0005d	83 c4 08	 add	 esp, 8

; 954  : 	return Py_BuildNone();

  00060	e8 00 00 00 00	 call	 ?Py_BuildNone@@YAPAU_object@@XZ ; Py_BuildNone

; 955  : }

  00065	8b e5		 mov	 esp, ebp
  00067	5d		 pop	 ebp
  00068	c3		 ret	 0
$LN5@wndMgrRemo:
; File C:\Users\flourine\Desktop\Xantios\client-src\Code\eterPythonLib\PythonWindow.h

; 138  : 	void			RemoveFlag(DWORD flag)	{ REMOVE_BIT(m_dwFlag, flag);	}

  00069	8b 45 f8	 mov	 eax, DWORD PTR _win$[ebp]
  0006c	f7 d1		 not	 ecx
  0006e	21 48 78	 and	 DWORD PTR [eax+120], ecx
$LN6@wndMgrRemo:
; File C:\Users\flourine\Desktop\Xantios\client-src\Code\eterPythonLib\PythonWindowManagerModule.cpp

; 954  : 	return Py_BuildNone();

  00071	e8 00 00 00 00	 call	 ?Py_BuildNone@@YAPAU_object@@XZ ; Py_BuildNone

; 955  : }

  00076	8b e5		 mov	 esp, ebp
  00078	5d		 pop	 ebp
  00079	c3		 ret	 0
?wndMgrRemoveFlag@@YAPAU_object@@PAU1@0@Z ENDP		; wndMgrRemoveFlag
_TEXT	ENDS
; Function compile flags: /Ogtp
; File C:\Users\flourine\Desktop\Xantios\client-src\Code\eterPythonLib\PythonWindowManagerModule.cpp
; File C:\Users\flourine\Desktop\Xantios\client-src\Code\eterPythonLib\PythonWindow.h
; File C:\Users\flourine\Desktop\Xantios\client-src\Code\eterPythonLib\PythonWindowManagerModule.cpp
; File C:\Users\flourine\Desktop\Xantios\client-src\Code\eterPythonLib\PythonWindow.h
; File C:\Users\flourine\Desktop\Xantios\client-src\Code\eterPythonLib\PythonWindowManagerModule.cpp
; File C:\Users\flourine\Desktop\Xantios\client-src\Code\eterPythonLib\PythonWindow.h
; File C:\Users\flourine\Desktop\Xantios\client-src\Code\eterPythonLib\PythonWindowManagerModule.cpp
; File C:\Users\flourine\Desktop\Xantios\client-src\Code\eterPythonLib\PythonWindow.h
; File C:\Users\flourine\Desktop\Xantios\client-src\Code\eterPythonLib\PythonWindowManagerModule.cpp
; File C:\Users\flourine\Desktop\Xantios\client-src\Code\eterPythonLib\PythonWindow.h
; File C:\Users\flourine\Desktop\Xantios\client-src\Code\eterPythonLib\PythonWindowManagerModule.cpp
; File C:\Users\flourine\Desktop\Xantios\client-src\Code\eterPythonLib\PythonWindow.h
; File C:\Users\flourine\Desktop\Xantios\client-src\Code\eterPythonLib\PythonWindowManagerModule.cpp
; File C:\Users\flourine\Desktop\Xantios\client-src\Code\eterPythonLib\PythonWindow.h
; File C:\Users\flourine\Desktop\Xantios\client-src\Code\eterPythonLib\PythonWindowManagerModule.cpp
; File C:\Users\flourine\Desktop\Xantios\client-src\Code\eterPythonLib\PythonWindow.h
; File C:\Users\flourine\Desktop\Xantios\client-src\Code\eterPythonLib\PythonWindowManagerModule.cpp
; File C:\Users\flourine\Desktop\Xantios\client-src\Code\eterPythonLib\PythonWindow.h
; File C:\Users\flourine\Desktop\Xantios\client-src\Code\eterPythonLib\PythonWindowManagerModule.cpp
; File C:\Users\flourine\Desktop\Xantios\client-src\Code\eterPythonLib\PythonWindow.h
; File C:\Users\flourine\Desktop\Xantios\client-src\Code\eterPythonLib\PythonWindowManagerModule.cpp
; File C:\Users\flourine\Desktop\Xantios\client-src\Code\eterPythonLib\PythonWindow.h
; File C:\Users\flourine\Desktop\Xantios\client-src\Code\eterPythonLib\PythonWindowManagerModule.cpp
; File C:\Users\flourine\Desktop\Xantios\client-src\Code\eterPythonLib\PythonWindow.h
; File C:\Users\flourine\Desktop\Xantios\client-src\Code\eterPythonLib\PythonWindowManagerModule.cpp
;	COMDAT ?wndMgrAddFlag@@YAPAU_object@@PAU1@0@Z
_TEXT	SEGMENT
_pWin$ = -8						; size = 4
_pszFlag$ = -4						; size = 4
_poSelf$ = 8						; size = 4
_poArgs$ = 12						; size = 4
?wndMgrAddFlag@@YAPAU_object@@PAU1@0@Z PROC		; wndMgrAddFlag, COMDAT

; 863  : {

  00000	55		 push	 ebp
  00001	8b ec		 mov	 ebp, esp
  00003	83 ec 08	 sub	 esp, 8

; 864  : 	UI::CWindow * pWin;
; 865  : 	if (!PyTuple_GetWindow(poArgs, 0, &pWin))

  00006	8d 45 f8	 lea	 eax, DWORD PTR _pWin$[ebp]
  00009	50		 push	 eax
  0000a	6a 00		 push	 0
  0000c	ff 75 0c	 push	 DWORD PTR _poArgs$[ebp]
  0000f	e8 00 00 00 00	 call	 ?PyTuple_GetWindow@@YA_NPAU_object@@HPAPAVCWindow@UI@@@Z ; PyTuple_GetWindow
  00014	83 c4 0c	 add	 esp, 12			; 0000000cH
  00017	84 c0		 test	 al, al
  00019	75 0e		 jne	 SHORT $LN2@wndMgrAddF
$LN54@wndMgrAddF:

; 933  : }

  0001b	6a 00		 push	 0
  0001d	e8 00 00 00 00	 call	 ?Py_BuildException@@YAPAU_object@@PBDZZ ; Py_BuildException
  00022	83 c4 04	 add	 esp, 4
  00025	8b e5		 mov	 esp, ebp
  00027	5d		 pop	 ebp
  00028	c3		 ret	 0
$LN2@wndMgrAddF:

; 866  : 	{
; 867  : 		return Py_BuildException();
; 868  : 	}
; 869  : 
; 870  : 	char * pszFlag;
; 871  : 	if (!PyTuple_GetString(poArgs, 1, &pszFlag))

  00029	8d 45 fc	 lea	 eax, DWORD PTR _pszFlag$[ebp]
  0002c	50		 push	 eax
  0002d	6a 01		 push	 1
  0002f	ff 75 0c	 push	 DWORD PTR _poArgs$[ebp]
  00032	e8 00 00 00 00	 call	 ?PyTuple_GetString@@YA_NPAU_object@@HPAPAD@Z ; PyTuple_GetString
  00037	83 c4 0c	 add	 esp, 12			; 0000000cH
  0003a	84 c0		 test	 al, al
  0003c	74 dd		 je	 SHORT $LN54@wndMgrAddF

; 872  : 	{
; 873  : 		return Py_BuildException();
; 874  : 	}
; 875  : 
; 876  : 	if (pszFlag && *pszFlag)

  0003e	8b 45 fc	 mov	 eax, DWORD PTR _pszFlag$[ebp]
  00041	85 c0		 test	 eax, eax
  00043	0f 84 d9 01 00
	00		 je	 $LN28@wndMgrAddF
  00049	80 38 00	 cmp	 BYTE PTR [eax], 0
  0004c	0f 84 d0 01 00
	00		 je	 $LN28@wndMgrAddF

; 877  : 	{
; 878  : 		if (!stricmp(pszFlag, "movable"))

  00052	68 00 00 00 00	 push	 OFFSET ??_C@_07BNIMILPP@movable@
  00057	50		 push	 eax
  00058	e8 00 00 00 00	 call	 __stricmp
  0005d	83 c4 08	 add	 esp, 8
  00060	85 c0		 test	 eax, eax
  00062	75 10		 jne	 SHORT $LN5@wndMgrAddF
; File C:\Users\flourine\Desktop\Xantios\client-src\Code\eterPythonLib\PythonWindow.h

; 137  : 	void			AddFlag(DWORD flag)		{ SET_BIT(m_dwFlag, flag);		}

  00064	8b 45 f8	 mov	 eax, DWORD PTR _pWin$[ebp]
  00067	83 48 78 01	 or	 DWORD PTR [eax+120], 1
; File C:\Users\flourine\Desktop\Xantios\client-src\Code\eterPythonLib\PythonWindowManagerModule.cpp

; 932  : 	return Py_BuildNone();

  0006b	e8 00 00 00 00	 call	 ?Py_BuildNone@@YAPAU_object@@XZ ; Py_BuildNone

; 933  : }

  00070	8b e5		 mov	 esp, ebp
  00072	5d		 pop	 ebp
  00073	c3		 ret	 0
$LN5@wndMgrAddF:

; 879  : 		{
; 880  : 			pWin->AddFlag(UI::CWindow::FLAG_MOVABLE);
; 881  : 		}
; 882  : 		else if (!stricmp(pszFlag, "limit"))

  00074	68 00 00 00 00	 push	 OFFSET ??_C@_05GADAOHMC@limit@
  00079	ff 75 fc	 push	 DWORD PTR _pszFlag$[ebp]
  0007c	e8 00 00 00 00	 call	 __stricmp
  00081	83 c4 08	 add	 esp, 8
  00084	85 c0		 test	 eax, eax
  00086	75 10		 jne	 SHORT $LN7@wndMgrAddF
; File C:\Users\flourine\Desktop\Xantios\client-src\Code\eterPythonLib\PythonWindow.h

; 137  : 	void			AddFlag(DWORD flag)		{ SET_BIT(m_dwFlag, flag);		}

  00088	8b 45 f8	 mov	 eax, DWORD PTR _pWin$[ebp]
  0008b	83 48 78 02	 or	 DWORD PTR [eax+120], 2
; File C:\Users\flourine\Desktop\Xantios\client-src\Code\eterPythonLib\PythonWindowManagerModule.cpp

; 932  : 	return Py_BuildNone();

  0008f	e8 00 00 00 00	 call	 ?Py_BuildNone@@YAPAU_object@@XZ ; Py_BuildNone

; 933  : }

  00094	8b e5		 mov	 esp, ebp
  00096	5d		 pop	 ebp
  00097	c3		 ret	 0
$LN7@wndMgrAddF:

; 883  : 		{
; 884  : 			pWin->AddFlag(UI::CWindow::FLAG_LIMIT);
; 885  : 		}
; 886  : 		else if (!stricmp(pszFlag, "dragable"))

  00098	68 00 00 00 00	 push	 OFFSET ??_C@_08KCAGBJHE@dragable@
  0009d	ff 75 fc	 push	 DWORD PTR _pszFlag$[ebp]
  000a0	e8 00 00 00 00	 call	 __stricmp
  000a5	83 c4 08	 add	 esp, 8
  000a8	85 c0		 test	 eax, eax
  000aa	75 10		 jne	 SHORT $LN9@wndMgrAddF
; File C:\Users\flourine\Desktop\Xantios\client-src\Code\eterPythonLib\PythonWindow.h

; 137  : 	void			AddFlag(DWORD flag)		{ SET_BIT(m_dwFlag, flag);		}

  000ac	8b 45 f8	 mov	 eax, DWORD PTR _pWin$[ebp]
  000af	83 48 78 08	 or	 DWORD PTR [eax+120], 8
; File C:\Users\flourine\Desktop\Xantios\client-src\Code\eterPythonLib\PythonWindowManagerModule.cpp

; 932  : 	return Py_BuildNone();

  000b3	e8 00 00 00 00	 call	 ?Py_BuildNone@@YAPAU_object@@XZ ; Py_BuildNone

; 933  : }

  000b8	8b e5		 mov	 esp, ebp
  000ba	5d		 pop	 ebp
  000bb	c3		 ret	 0
$LN9@wndMgrAddF:

; 887  : 		{
; 888  : 			pWin->AddFlag(UI::CWindow::FLAG_DRAGABLE);
; 889  : 		}
; 890  : 		else if (!stricmp(pszFlag, "attach"))

  000bc	68 00 00 00 00	 push	 OFFSET ??_C@_06LHJMGKLI@attach@
  000c1	ff 75 fc	 push	 DWORD PTR _pszFlag$[ebp]
  000c4	e8 00 00 00 00	 call	 __stricmp
  000c9	83 c4 08	 add	 esp, 8
  000cc	85 c0		 test	 eax, eax
  000ce	75 10		 jne	 SHORT $LN11@wndMgrAddF
; File C:\Users\flourine\Desktop\Xantios\client-src\Code\eterPythonLib\PythonWindow.h

; 137  : 	void			AddFlag(DWORD flag)		{ SET_BIT(m_dwFlag, flag);		}

  000d0	8b 45 f8	 mov	 eax, DWORD PTR _pWin$[ebp]
  000d3	83 48 78 10	 or	 DWORD PTR [eax+120], 16	; 00000010H
; File C:\Users\flourine\Desktop\Xantios\client-src\Code\eterPythonLib\PythonWindowManagerModule.cpp

; 932  : 	return Py_BuildNone();

  000d7	e8 00 00 00 00	 call	 ?Py_BuildNone@@YAPAU_object@@XZ ; Py_BuildNone

; 933  : }

  000dc	8b e5		 mov	 esp, ebp
  000de	5d		 pop	 ebp
  000df	c3		 ret	 0
$LN11@wndMgrAddF:

; 891  : 		{
; 892  : 			pWin->AddFlag(UI::CWindow::FLAG_ATTACH);
; 893  : 		}
; 894  : 		else if (!stricmp(pszFlag, "restrict_x"))

  000e0	68 00 00 00 00	 push	 OFFSET ??_C@_0L@KAJDFNK@restrict_x@
  000e5	ff 75 fc	 push	 DWORD PTR _pszFlag$[ebp]
  000e8	e8 00 00 00 00	 call	 __stricmp
  000ed	83 c4 08	 add	 esp, 8
  000f0	85 c0		 test	 eax, eax
  000f2	75 10		 jne	 SHORT $LN13@wndMgrAddF
; File C:\Users\flourine\Desktop\Xantios\client-src\Code\eterPythonLib\PythonWindow.h

; 137  : 	void			AddFlag(DWORD flag)		{ SET_BIT(m_dwFlag, flag);		}

  000f4	8b 45 f8	 mov	 eax, DWORD PTR _pWin$[ebp]
  000f7	83 48 78 20	 or	 DWORD PTR [eax+120], 32	; 00000020H
; File C:\Users\flourine\Desktop\Xantios\client-src\Code\eterPythonLib\PythonWindowManagerModule.cpp

; 932  : 	return Py_BuildNone();

  000fb	e8 00 00 00 00	 call	 ?Py_BuildNone@@YAPAU_object@@XZ ; Py_BuildNone

; 933  : }

  00100	8b e5		 mov	 esp, ebp
  00102	5d		 pop	 ebp
  00103	c3		 ret	 0
$LN13@wndMgrAddF:

; 895  : 		{
; 896  : 			pWin->AddFlag(UI::CWindow::FLAG_RESTRICT_X);
; 897  : 		}
; 898  : 		else if (!stricmp(pszFlag, "restrict_y"))

  00104	68 00 00 00 00	 push	 OFFSET ??_C@_0L@BDBCAEJL@restrict_y@
  00109	ff 75 fc	 push	 DWORD PTR _pszFlag$[ebp]
  0010c	e8 00 00 00 00	 call	 __stricmp
  00111	83 c4 08	 add	 esp, 8
  00114	85 c0		 test	 eax, eax
  00116	75 10		 jne	 SHORT $LN15@wndMgrAddF
; File C:\Users\flourine\Desktop\Xantios\client-src\Code\eterPythonLib\PythonWindow.h

; 137  : 	void			AddFlag(DWORD flag)		{ SET_BIT(m_dwFlag, flag);		}

  00118	8b 45 f8	 mov	 eax, DWORD PTR _pWin$[ebp]
  0011b	83 48 78 40	 or	 DWORD PTR [eax+120], 64	; 00000040H
; File C:\Users\flourine\Desktop\Xantios\client-src\Code\eterPythonLib\PythonWindowManagerModule.cpp

; 932  : 	return Py_BuildNone();

  0011f	e8 00 00 00 00	 call	 ?Py_BuildNone@@YAPAU_object@@XZ ; Py_BuildNone

; 933  : }

  00124	8b e5		 mov	 esp, ebp
  00126	5d		 pop	 ebp
  00127	c3		 ret	 0
$LN15@wndMgrAddF:

; 899  : 		{
; 900  : 			pWin->AddFlag(UI::CWindow::FLAG_RESTRICT_Y);
; 901  : 		}
; 902  : 		else if (!stricmp(pszFlag, "float"))

  00128	68 00 00 00 00	 push	 OFFSET ??_C@_05KNFBNCOH@float@
  0012d	ff 75 fc	 push	 DWORD PTR _pszFlag$[ebp]
  00130	e8 00 00 00 00	 call	 __stricmp
  00135	83 c4 08	 add	 esp, 8
  00138	85 c0		 test	 eax, eax
  0013a	75 13		 jne	 SHORT $LN17@wndMgrAddF
; File C:\Users\flourine\Desktop\Xantios\client-src\Code\eterPythonLib\PythonWindow.h

; 137  : 	void			AddFlag(DWORD flag)		{ SET_BIT(m_dwFlag, flag);		}

  0013c	8b 45 f8	 mov	 eax, DWORD PTR _pWin$[ebp]
  0013f	81 48 78 00 01
	00 00		 or	 DWORD PTR [eax+120], 256 ; 00000100H
; File C:\Users\flourine\Desktop\Xantios\client-src\Code\eterPythonLib\PythonWindowManagerModule.cpp

; 932  : 	return Py_BuildNone();

  00146	e8 00 00 00 00	 call	 ?Py_BuildNone@@YAPAU_object@@XZ ; Py_BuildNone

; 933  : }

  0014b	8b e5		 mov	 esp, ebp
  0014d	5d		 pop	 ebp
  0014e	c3		 ret	 0
$LN17@wndMgrAddF:

; 903  : 		{
; 904  : 			pWin->AddFlag(UI::CWindow::FLAG_FLOAT);
; 905  : 		}
; 906  : 		else if (!stricmp(pszFlag, "not_pick"))

  0014f	68 00 00 00 00	 push	 OFFSET ??_C@_08BCAHNCDJ@not_pick@
  00154	ff 75 fc	 push	 DWORD PTR _pszFlag$[ebp]
  00157	e8 00 00 00 00	 call	 __stricmp
  0015c	83 c4 08	 add	 esp, 8
  0015f	85 c0		 test	 eax, eax
  00161	75 13		 jne	 SHORT $LN19@wndMgrAddF
; File C:\Users\flourine\Desktop\Xantios\client-src\Code\eterPythonLib\PythonWindow.h

; 137  : 	void			AddFlag(DWORD flag)		{ SET_BIT(m_dwFlag, flag);		}

  00163	8b 45 f8	 mov	 eax, DWORD PTR _pWin$[ebp]
  00166	81 48 78 00 02
	00 00		 or	 DWORD PTR [eax+120], 512 ; 00000200H
; File C:\Users\flourine\Desktop\Xantios\client-src\Code\eterPythonLib\PythonWindowManagerModule.cpp

; 932  : 	return Py_BuildNone();

  0016d	e8 00 00 00 00	 call	 ?Py_BuildNone@@YAPAU_object@@XZ ; Py_BuildNone

; 933  : }

  00172	8b e5		 mov	 esp, ebp
  00174	5d		 pop	 ebp
  00175	c3		 ret	 0
$LN19@wndMgrAddF:

; 907  : 		{
; 908  : 			pWin->AddFlag(UI::CWindow::FLAG_NOT_PICK);
; 909  : 		}
; 910  : 		else if (!stricmp(pszFlag, "ignore_size"))

  00176	68 00 00 00 00	 push	 OFFSET ??_C@_0M@HHFJIJHL@ignore_size@
  0017b	ff 75 fc	 push	 DWORD PTR _pszFlag$[ebp]
  0017e	e8 00 00 00 00	 call	 __stricmp
  00183	83 c4 08	 add	 esp, 8
  00186	85 c0		 test	 eax, eax
  00188	75 13		 jne	 SHORT $LN21@wndMgrAddF
; File C:\Users\flourine\Desktop\Xantios\client-src\Code\eterPythonLib\PythonWindow.h

; 137  : 	void			AddFlag(DWORD flag)		{ SET_BIT(m_dwFlag, flag);		}

  0018a	8b 45 f8	 mov	 eax, DWORD PTR _pWin$[ebp]
  0018d	81 48 78 00 04
	00 00		 or	 DWORD PTR [eax+120], 1024 ; 00000400H
; File C:\Users\flourine\Desktop\Xantios\client-src\Code\eterPythonLib\PythonWindowManagerModule.cpp

; 932  : 	return Py_BuildNone();

  00194	e8 00 00 00 00	 call	 ?Py_BuildNone@@YAPAU_object@@XZ ; Py_BuildNone

; 933  : }

  00199	8b e5		 mov	 esp, ebp
  0019b	5d		 pop	 ebp
  0019c	c3		 ret	 0
$LN21@wndMgrAddF:

; 911  : 		{
; 912  : 			pWin->AddFlag(UI::CWindow::FLAG_IGNORE_SIZE);
; 913  : 		}
; 914  : 		else if (!stricmp(pszFlag, "rtl"))

  0019d	68 00 00 00 00	 push	 OFFSET ??_C@_03IFDNKMND@rtl@
  001a2	ff 75 fc	 push	 DWORD PTR _pszFlag$[ebp]
  001a5	e8 00 00 00 00	 call	 __stricmp
  001aa	83 c4 08	 add	 esp, 8
  001ad	85 c0		 test	 eax, eax
  001af	75 13		 jne	 SHORT $LN23@wndMgrAddF
; File C:\Users\flourine\Desktop\Xantios\client-src\Code\eterPythonLib\PythonWindow.h

; 137  : 	void			AddFlag(DWORD flag)		{ SET_BIT(m_dwFlag, flag);		}

  001b1	8b 45 f8	 mov	 eax, DWORD PTR _pWin$[ebp]
  001b4	81 48 78 00 08
	00 00		 or	 DWORD PTR [eax+120], 2048 ; 00000800H
; File C:\Users\flourine\Desktop\Xantios\client-src\Code\eterPythonLib\PythonWindowManagerModule.cpp

; 932  : 	return Py_BuildNone();

  001bb	e8 00 00 00 00	 call	 ?Py_BuildNone@@YAPAU_object@@XZ ; Py_BuildNone

; 933  : }

  001c0	8b e5		 mov	 esp, ebp
  001c2	5d		 pop	 ebp
  001c3	c3		 ret	 0
$LN23@wndMgrAddF:

; 915  : 		{
; 916  : 			pWin->AddFlag(UI::CWindow::FLAG_RTL);
; 917  : 		}
; 918  : 		else if (!stricmp(pszFlag, "ltr"))

  001c4	68 00 00 00 00	 push	 OFFSET ??_C@_03OBLKLDKA@ltr@
  001c9	ff 75 fc	 push	 DWORD PTR _pszFlag$[ebp]
  001cc	e8 00 00 00 00	 call	 __stricmp
  001d1	83 c4 08	 add	 esp, 8
  001d4	85 c0		 test	 eax, eax
  001d6	75 13		 jne	 SHORT $LN25@wndMgrAddF
; File C:\Users\flourine\Desktop\Xantios\client-src\Code\eterPythonLib\PythonWindow.h

; 138  : 	void			RemoveFlag(DWORD flag)	{ REMOVE_BIT(m_dwFlag, flag);	}

  001d8	8b 45 f8	 mov	 eax, DWORD PTR _pWin$[ebp]
  001db	81 60 78 ff f7
	ff ff		 and	 DWORD PTR [eax+120], -2049 ; fffff7ffH
; File C:\Users\flourine\Desktop\Xantios\client-src\Code\eterPythonLib\PythonWindowManagerModule.cpp

; 932  : 	return Py_BuildNone();

  001e2	e8 00 00 00 00	 call	 ?Py_BuildNone@@YAPAU_object@@XZ ; Py_BuildNone

; 933  : }

  001e7	8b e5		 mov	 esp, ebp
  001e9	5d		 pop	 ebp
  001ea	c3		 ret	 0
$LN25@wndMgrAddF:

; 919  : 		{
; 920  : 			pWin->RemoveFlag(UI::CWindow::FLAG_RTL);
; 921  : 		}
; 922  : 		else if (!stricmp(pszFlag, "animate"))

  001eb	68 00 00 00 00	 push	 OFFSET ??_C@_07NLKEJFGN@animate@
  001f0	ff 75 fc	 push	 DWORD PTR _pszFlag$[ebp]
  001f3	e8 00 00 00 00	 call	 __stricmp
  001f8	83 c4 08	 add	 esp, 8
  001fb	85 c0		 test	 eax, eax
  001fd	75 13		 jne	 SHORT $LN27@wndMgrAddF
; File C:\Users\flourine\Desktop\Xantios\client-src\Code\eterPythonLib\PythonWindow.h

; 137  : 	void			AddFlag(DWORD flag)		{ SET_BIT(m_dwFlag, flag);		}

  001ff	8b 45 f8	 mov	 eax, DWORD PTR _pWin$[ebp]
  00202	81 48 78 00 10
	00 00		 or	 DWORD PTR [eax+120], 4096 ; 00001000H
; File C:\Users\flourine\Desktop\Xantios\client-src\Code\eterPythonLib\PythonWindowManagerModule.cpp

; 932  : 	return Py_BuildNone();

  00209	e8 00 00 00 00	 call	 ?Py_BuildNone@@YAPAU_object@@XZ ; Py_BuildNone

; 933  : }

  0020e	8b e5		 mov	 esp, ebp
  00210	5d		 pop	 ebp
  00211	c3		 ret	 0
$LN27@wndMgrAddF:

; 923  : 		{
; 924  : 			pWin->AddFlag(UI::CWindow::FLAG_ANIMATED_BOARD);
; 925  : 		}
; 926  : 		else
; 927  : 		{
; 928  : 			TraceError("Unknown window flag %s", pszFlag);

  00212	ff 75 fc	 push	 DWORD PTR _pszFlag$[ebp]
  00215	68 00 00 00 00	 push	 OFFSET ??_C@_0BH@KIGIHPAM@Unknown?5window?5flag?5?$CFs@
  0021a	e8 00 00 00 00	 call	 ?TraceError@@YAXPBDZZ	; TraceError
  0021f	83 c4 08	 add	 esp, 8
$LN28@wndMgrAddF:

; 932  : 	return Py_BuildNone();

  00222	e8 00 00 00 00	 call	 ?Py_BuildNone@@YAPAU_object@@XZ ; Py_BuildNone

; 933  : }

  00227	8b e5		 mov	 esp, ebp
  00229	5d		 pop	 ebp
  0022a	c3		 ret	 0
?wndMgrAddFlag@@YAPAU_object@@PAU1@0@Z ENDP		; wndMgrAddFlag
_TEXT	ENDS
; Function compile flags: /Ogtp
; File C:\Users\flourine\Desktop\Xantios\client-src\Code\eterPythonLib\PythonWindowManagerModule.cpp
;	COMDAT ?GetFlag@@YAIPBD@Z
_TEXT	SEGMENT
_pszFlag$ = 8						; size = 4
?GetFlag@@YAIPBD@Z PROC					; GetFlag, COMDAT

; 837  : {

  00000	55		 push	 ebp
  00001	8b ec		 mov	 ebp, esp
  00003	56		 push	 esi

; 838  : 	if (!stricmp(pszFlag, "moveable"))

  00004	8b 75 08	 mov	 esi, DWORD PTR _pszFlag$[ebp]
  00007	68 00 00 00 00	 push	 OFFSET ??_C@_08GKKIIJO@moveable@
  0000c	56		 push	 esi
  0000d	e8 00 00 00 00	 call	 __stricmp
  00012	83 c4 08	 add	 esp, 8
  00015	85 c0		 test	 eax, eax
  00017	75 08		 jne	 SHORT $LN2@GetFlag

; 839  : 		return UI::CWindow::FLAG_MOVABLE;

  00019	b8 01 00 00 00	 mov	 eax, 1
  0001e	5e		 pop	 esi

; 857  : 		return UI::CWindow::FLAG_ANIMATED_BOARD;
; 858  : 	else
; 859  : 		return 0;
; 860  : }

  0001f	5d		 pop	 ebp
  00020	c3		 ret	 0
$LN2@GetFlag:

; 840  : 	else if (!stricmp(pszFlag, "dragable"))

  00021	68 00 00 00 00	 push	 OFFSET ??_C@_08KCAGBJHE@dragable@
  00026	56		 push	 esi
  00027	e8 00 00 00 00	 call	 __stricmp
  0002c	83 c4 08	 add	 esp, 8
  0002f	85 c0		 test	 eax, eax
  00031	75 08		 jne	 SHORT $LN4@GetFlag

; 841  : 		return UI::CWindow::FLAG_DRAGABLE;

  00033	b8 08 00 00 00	 mov	 eax, 8
  00038	5e		 pop	 esi

; 857  : 		return UI::CWindow::FLAG_ANIMATED_BOARD;
; 858  : 	else
; 859  : 		return 0;
; 860  : }

  00039	5d		 pop	 ebp
  0003a	c3		 ret	 0
$LN4@GetFlag:

; 842  : 	else if (!stricmp(pszFlag, "attach"))

  0003b	68 00 00 00 00	 push	 OFFSET ??_C@_06LHJMGKLI@attach@
  00040	56		 push	 esi
  00041	e8 00 00 00 00	 call	 __stricmp
  00046	83 c4 08	 add	 esp, 8
  00049	85 c0		 test	 eax, eax
  0004b	75 08		 jne	 SHORT $LN6@GetFlag

; 843  : 		return UI::CWindow::FLAG_ATTACH;

  0004d	b8 10 00 00 00	 mov	 eax, 16			; 00000010H
  00052	5e		 pop	 esi

; 857  : 		return UI::CWindow::FLAG_ANIMATED_BOARD;
; 858  : 	else
; 859  : 		return 0;
; 860  : }

  00053	5d		 pop	 ebp
  00054	c3		 ret	 0
$LN6@GetFlag:

; 844  : 	else if (!stricmp(pszFlag, "restrict_x"))

  00055	68 00 00 00 00	 push	 OFFSET ??_C@_0L@KAJDFNK@restrict_x@
  0005a	56		 push	 esi
  0005b	e8 00 00 00 00	 call	 __stricmp
  00060	83 c4 08	 add	 esp, 8
  00063	85 c0		 test	 eax, eax
  00065	75 08		 jne	 SHORT $LN8@GetFlag

; 845  : 		return UI::CWindow::FLAG_RESTRICT_X;

  00067	b8 20 00 00 00	 mov	 eax, 32			; 00000020H
  0006c	5e		 pop	 esi

; 857  : 		return UI::CWindow::FLAG_ANIMATED_BOARD;
; 858  : 	else
; 859  : 		return 0;
; 860  : }

  0006d	5d		 pop	 ebp
  0006e	c3		 ret	 0
$LN8@GetFlag:

; 846  : 	else if (!stricmp(pszFlag, "restrict_y"))

  0006f	68 00 00 00 00	 push	 OFFSET ??_C@_0L@BDBCAEJL@restrict_y@
  00074	56		 push	 esi
  00075	e8 00 00 00 00	 call	 __stricmp
  0007a	83 c4 08	 add	 esp, 8
  0007d	85 c0		 test	 eax, eax
  0007f	75 08		 jne	 SHORT $LN10@GetFlag

; 847  : 		return UI::CWindow::FLAG_RESTRICT_Y;

  00081	b8 40 00 00 00	 mov	 eax, 64			; 00000040H
  00086	5e		 pop	 esi

; 857  : 		return UI::CWindow::FLAG_ANIMATED_BOARD;
; 858  : 	else
; 859  : 		return 0;
; 860  : }

  00087	5d		 pop	 ebp
  00088	c3		 ret	 0
$LN10@GetFlag:

; 848  : 	else if (!stricmp(pszFlag, "float"))

  00089	68 00 00 00 00	 push	 OFFSET ??_C@_05KNFBNCOH@float@
  0008e	56		 push	 esi
  0008f	e8 00 00 00 00	 call	 __stricmp
  00094	83 c4 08	 add	 esp, 8
  00097	85 c0		 test	 eax, eax
  00099	75 08		 jne	 SHORT $LN12@GetFlag

; 849  : 		return UI::CWindow::FLAG_FLOAT;

  0009b	b8 00 01 00 00	 mov	 eax, 256		; 00000100H
  000a0	5e		 pop	 esi

; 857  : 		return UI::CWindow::FLAG_ANIMATED_BOARD;
; 858  : 	else
; 859  : 		return 0;
; 860  : }

  000a1	5d		 pop	 ebp
  000a2	c3		 ret	 0
$LN12@GetFlag:

; 850  : 	else if (!stricmp(pszFlag, "not_pick"))

  000a3	68 00 00 00 00	 push	 OFFSET ??_C@_08BCAHNCDJ@not_pick@
  000a8	56		 push	 esi
  000a9	e8 00 00 00 00	 call	 __stricmp
  000ae	83 c4 08	 add	 esp, 8
  000b1	85 c0		 test	 eax, eax
  000b3	75 08		 jne	 SHORT $LN14@GetFlag

; 851  : 		return UI::CWindow::FLAG_NOT_PICK;

  000b5	b8 00 02 00 00	 mov	 eax, 512		; 00000200H
  000ba	5e		 pop	 esi

; 857  : 		return UI::CWindow::FLAG_ANIMATED_BOARD;
; 858  : 	else
; 859  : 		return 0;
; 860  : }

  000bb	5d		 pop	 ebp
  000bc	c3		 ret	 0
$LN14@GetFlag:

; 852  : 	else if (!stricmp(pszFlag, "ignore_size"))

  000bd	68 00 00 00 00	 push	 OFFSET ??_C@_0M@HHFJIJHL@ignore_size@
  000c2	56		 push	 esi
  000c3	e8 00 00 00 00	 call	 __stricmp
  000c8	83 c4 08	 add	 esp, 8
  000cb	85 c0		 test	 eax, eax
  000cd	75 08		 jne	 SHORT $LN16@GetFlag

; 853  : 		return UI::CWindow::FLAG_IGNORE_SIZE;

  000cf	b8 00 04 00 00	 mov	 eax, 1024		; 00000400H
  000d4	5e		 pop	 esi

; 857  : 		return UI::CWindow::FLAG_ANIMATED_BOARD;
; 858  : 	else
; 859  : 		return 0;
; 860  : }

  000d5	5d		 pop	 ebp
  000d6	c3		 ret	 0
$LN16@GetFlag:

; 854  : 	else if (!stricmp(pszFlag, "rtl"))

  000d7	68 00 00 00 00	 push	 OFFSET ??_C@_03IFDNKMND@rtl@
  000dc	56		 push	 esi
  000dd	e8 00 00 00 00	 call	 __stricmp
  000e2	83 c4 08	 add	 esp, 8
  000e5	85 c0		 test	 eax, eax
  000e7	75 08		 jne	 SHORT $LN18@GetFlag

; 855  : 		return UI::CWindow::FLAG_RTL;

  000e9	b8 00 08 00 00	 mov	 eax, 2048		; 00000800H
  000ee	5e		 pop	 esi

; 857  : 		return UI::CWindow::FLAG_ANIMATED_BOARD;
; 858  : 	else
; 859  : 		return 0;
; 860  : }

  000ef	5d		 pop	 ebp
  000f0	c3		 ret	 0
$LN18@GetFlag:

; 856  : 	else if (!stricmp(pszFlag, "animate"))

  000f1	68 00 00 00 00	 push	 OFFSET ??_C@_07NLKEJFGN@animate@
  000f6	56		 push	 esi
  000f7	e8 00 00 00 00	 call	 __stricmp
  000fc	83 c4 08	 add	 esp, 8
  000ff	f7 d8		 neg	 eax
  00101	1b c0		 sbb	 eax, eax
  00103	25 00 f0 ff ff	 and	 eax, -4096		; fffff000H
  00108	05 00 10 00 00	 add	 eax, 4096		; 00001000H
  0010d	5e		 pop	 esi

; 857  : 		return UI::CWindow::FLAG_ANIMATED_BOARD;
; 858  : 	else
; 859  : 		return 0;
; 860  : }

  0010e	5d		 pop	 ebp
  0010f	c3		 ret	 0
?GetFlag@@YAIPBD@Z ENDP					; GetFlag
_TEXT	ENDS
; Function compile flags: /Ogtp
; File C:\Users\flourine\Desktop\Xantios\client-src\Code\eterPythonLib\PythonWindowManagerModule.cpp
;	COMDAT ?wndMgrGetChildCount@@YAPAU_object@@PAU1@0@Z
_TEXT	SEGMENT
_pWin$ = -4						; size = 4
_poSelf$ = 8						; size = 4
_poArgs$ = 12						; size = 4
?wndMgrGetChildCount@@YAPAU_object@@PAU1@0@Z PROC	; wndMgrGetChildCount, COMDAT

; 826  : {

  00000	55		 push	 ebp
  00001	8b ec		 mov	 ebp, esp
  00003	51		 push	 ecx

; 827  : 	UI::CWindow * pWin;
; 828  : 	if (!PyTuple_GetWindow(poArgs, 0, &pWin))

  00004	8d 45 fc	 lea	 eax, DWORD PTR _pWin$[ebp]
  00007	50		 push	 eax
  00008	6a 00		 push	 0
  0000a	ff 75 0c	 push	 DWORD PTR _poArgs$[ebp]
  0000d	e8 00 00 00 00	 call	 ?PyTuple_GetWindow@@YA_NPAU_object@@HPAPAVCWindow@UI@@@Z ; PyTuple_GetWindow
  00012	83 c4 0c	 add	 esp, 12			; 0000000cH
  00015	84 c0		 test	 al, al
  00017	75 0e		 jne	 SHORT $LN2@wndMgrGetC

; 829  : 	{
; 830  : 		return Py_BuildException();

  00019	6a 00		 push	 0
  0001b	e8 00 00 00 00	 call	 ?Py_BuildException@@YAPAU_object@@PBDZZ ; Py_BuildException
  00020	83 c4 04	 add	 esp, 4

; 834  : }

  00023	8b e5		 mov	 esp, ebp
  00025	5d		 pop	 ebp
  00026	c3		 ret	 0
$LN2@wndMgrGetC:

; 831  : 	}
; 832  : 
; 833  : 	return Py_BuildValue("i", pWin->GetChildCount());

  00027	8b 45 fc	 mov	 eax, DWORD PTR _pWin$[ebp]
  0002a	ff b0 88 00 00
	00		 push	 DWORD PTR [eax+136]
  00030	68 00 00 00 00	 push	 OFFSET ??_C@_01KBJDNOO@i@
  00035	ff 15 00 00 00
	00		 call	 DWORD PTR __imp__Py_BuildValue
  0003b	83 c4 08	 add	 esp, 8

; 834  : }

  0003e	8b e5		 mov	 esp, ebp
  00040	5d		 pop	 ebp
  00041	c3		 ret	 0
?wndMgrGetChildCount@@YAPAU_object@@PAU1@0@Z ENDP	; wndMgrGetChildCount
_TEXT	ENDS
; Function compile flags: /Ogtp
; File C:\Users\flourine\Desktop\Xantios\client-src\Code\eterPythonLib\PythonWindowManagerModule.cpp
;	COMDAT ?wndMgrIsPickedWindow@@YAPAU_object@@PAU1@0@Z
_TEXT	SEGMENT
_pWin$ = -4						; size = 4
_poSelf$ = 8						; size = 4
_poArgs$ = 12						; size = 4
?wndMgrIsPickedWindow@@YAPAU_object@@PAU1@0@Z PROC	; wndMgrIsPickedWindow, COMDAT

; 814  : {

  00000	55		 push	 ebp
  00001	8b ec		 mov	 ebp, esp
  00003	51		 push	 ecx

; 815  : 	UI::CWindow * pWin;
; 816  : 	if (!PyTuple_GetWindow(poArgs, 0, &pWin))

  00004	8d 45 fc	 lea	 eax, DWORD PTR _pWin$[ebp]
  00007	50		 push	 eax
  00008	6a 00		 push	 0
  0000a	ff 75 0c	 push	 DWORD PTR _poArgs$[ebp]
  0000d	e8 00 00 00 00	 call	 ?PyTuple_GetWindow@@YA_NPAU_object@@HPAPAVCWindow@UI@@@Z ; PyTuple_GetWindow
  00012	83 c4 0c	 add	 esp, 12			; 0000000cH
  00015	84 c0		 test	 al, al
  00017	75 0e		 jne	 SHORT $LN2@wndMgrIsPi

; 817  : 	{
; 818  : 		return Py_BuildException();

  00019	6a 00		 push	 0
  0001b	e8 00 00 00 00	 call	 ?Py_BuildException@@YAPAU_object@@PBDZZ ; Py_BuildException
  00020	83 c4 04	 add	 esp, 4

; 823  : }

  00023	8b e5		 mov	 esp, ebp
  00025	5d		 pop	 ebp
  00026	c3		 ret	 0
$LN2@wndMgrIsPi:

; 819  : 	}
; 820  : 
; 821  : 	UI::CWindow * pPickedWin = UI::CWindowManager::Instance().GetPointWindow();

  00027	a1 00 00 00 00	 mov	 eax, DWORD PTR ?ms_singleton@?$CSingleton@VCWindowManager@UI@@@@0PAVCWindowManager@UI@@A ; CSingleton<UI::CWindowManager>::ms_singleton

; 822  : 	return Py_BuildValue("i", pWin == pPickedWin ? 1 : 0);

  0002c	33 c9		 xor	 ecx, ecx
  0002e	8b 40 70	 mov	 eax, DWORD PTR [eax+112]
  00031	39 45 fc	 cmp	 DWORD PTR _pWin$[ebp], eax
  00034	0f 94 c1	 sete	 cl
  00037	51		 push	 ecx
  00038	68 00 00 00 00	 push	 OFFSET ??_C@_01KBJDNOO@i@
  0003d	ff 15 00 00 00
	00		 call	 DWORD PTR __imp__Py_BuildValue
  00043	83 c4 08	 add	 esp, 8

; 823  : }

  00046	8b e5		 mov	 esp, ebp
  00048	5d		 pop	 ebp
  00049	c3		 ret	 0
?wndMgrIsPickedWindow@@YAPAU_object@@PAU1@0@Z ENDP	; wndMgrIsPickedWindow
_TEXT	ENDS
; Function compile flags: /Ogtp
; File C:\Users\flourine\Desktop\Xantios\client-src\Code\eterPythonLib\PythonWindowManagerModule.cpp
;	COMDAT ?wndMgrIsDragging@@YAPAU_object@@PAU1@0@Z
_TEXT	SEGMENT
_poSelf$ = 8						; size = 4
_poArgs$ = 12						; size = 4
?wndMgrIsDragging@@YAPAU_object@@PAU1@0@Z PROC		; wndMgrIsDragging, COMDAT

; 810  : 	return Py_BuildValue("i", UI::CWindowManager::Instance().IsDragging());

  00000	8b 0d 00 00 00
	00		 mov	 ecx, DWORD PTR ?ms_singleton@?$CSingleton@VCWindowManager@UI@@@@0PAVCWindowManager@UI@@A ; CSingleton<UI::CWindowManager>::ms_singleton
  00006	e8 00 00 00 00	 call	 ?IsDragging@CWindowManager@UI@@QAEHXZ ; UI::CWindowManager::IsDragging
  0000b	50		 push	 eax
  0000c	68 00 00 00 00	 push	 OFFSET ??_C@_01KBJDNOO@i@
  00011	ff 15 00 00 00
	00		 call	 DWORD PTR __imp__Py_BuildValue
  00017	83 c4 08	 add	 esp, 8

; 811  : }

  0001a	c3		 ret	 0
?wndMgrIsDragging@@YAPAU_object@@PAU1@0@Z ENDP		; wndMgrIsDragging
_TEXT	ENDS
; Function compile flags: /Ogtp
; File C:\Users\flourine\Desktop\Xantios\client-src\Code\eterPythonLib\PythonWindowManagerModule.cpp
;	COMDAT ?wndMgrGetMousePosition@@YAPAU_object@@PAU1@0@Z
_TEXT	SEGMENT
_lx$ = -8						; size = 4
_ly$ = -4						; size = 4
_poSelf$ = 8						; size = 4
_poArgs$ = 12						; size = 4
?wndMgrGetMousePosition@@YAPAU_object@@PAU1@0@Z PROC	; wndMgrGetMousePosition, COMDAT

; 802  : {

  00000	55		 push	 ebp
  00001	8b ec		 mov	 ebp, esp
  00003	83 ec 08	 sub	 esp, 8

; 803  : 	long lx, ly;
; 804  : 	UI::CWindowManager::Instance().GetMousePosition(lx, ly);

  00006	8b 0d 00 00 00
	00		 mov	 ecx, DWORD PTR ?ms_singleton@?$CSingleton@VCWindowManager@UI@@@@0PAVCWindowManager@UI@@A ; CSingleton<UI::CWindowManager>::ms_singleton
  0000c	8d 45 fc	 lea	 eax, DWORD PTR _ly$[ebp]
  0000f	50		 push	 eax
  00010	8d 45 f8	 lea	 eax, DWORD PTR _lx$[ebp]
  00013	50		 push	 eax
  00014	e8 00 00 00 00	 call	 ?GetMousePosition@CWindowManager@UI@@QAEXAAJ0@Z ; UI::CWindowManager::GetMousePosition

; 805  : 	return Py_BuildValue("ii", lx, ly);

  00019	ff 75 fc	 push	 DWORD PTR _ly$[ebp]
  0001c	ff 75 f8	 push	 DWORD PTR _lx$[ebp]
  0001f	68 00 00 00 00	 push	 OFFSET ??_C@_02PDIHAGKM@ii@
  00024	ff 15 00 00 00
	00		 call	 DWORD PTR __imp__Py_BuildValue
  0002a	83 c4 0c	 add	 esp, 12			; 0000000cH

; 806  : }

  0002d	8b e5		 mov	 esp, ebp
  0002f	5d		 pop	 ebp
  00030	c3		 ret	 0
?wndMgrGetMousePosition@@YAPAU_object@@PAU1@0@Z ENDP	; wndMgrGetMousePosition
_TEXT	ENDS
; Function compile flags: /Ogtp
; File C:\Users\flourine\Desktop\Xantios\client-src\Code\eterPythonLib\PythonWindowManagerModule.cpp
;	COMDAT ?wndMgrGetScreenHeight@@YAPAU_object@@PAU1@0@Z
_TEXT	SEGMENT
_poSelf$ = 8						; size = 4
_poArgs$ = 12						; size = 4
?wndMgrGetScreenHeight@@YAPAU_object@@PAU1@0@Z PROC	; wndMgrGetScreenHeight, COMDAT

; 798  : 	return Py_BuildValue("i", UI::CWindowManager::Instance().GetScreenHeight());

  00000	a1 00 00 00 00	 mov	 eax, DWORD PTR ?ms_singleton@?$CSingleton@VCWindowManager@UI@@@@0PAVCWindowManager@UI@@A ; CSingleton<UI::CWindowManager>::ms_singleton
  00005	ff 70 08	 push	 DWORD PTR [eax+8]
  00008	68 00 00 00 00	 push	 OFFSET ??_C@_01KBJDNOO@i@
  0000d	ff 15 00 00 00
	00		 call	 DWORD PTR __imp__Py_BuildValue
  00013	83 c4 08	 add	 esp, 8

; 799  : }

  00016	c3		 ret	 0
?wndMgrGetScreenHeight@@YAPAU_object@@PAU1@0@Z ENDP	; wndMgrGetScreenHeight
_TEXT	ENDS
; Function compile flags: /Ogtp
; File C:\Users\flourine\Desktop\Xantios\client-src\Code\eterPythonLib\PythonWindowManagerModule.cpp
;	COMDAT ?wndMgrGetScreenWidth@@YAPAU_object@@PAU1@0@Z
_TEXT	SEGMENT
_poSelf$ = 8						; size = 4
_poArgs$ = 12						; size = 4
?wndMgrGetScreenWidth@@YAPAU_object@@PAU1@0@Z PROC	; wndMgrGetScreenWidth, COMDAT

; 793  : 	return Py_BuildValue("i", UI::CWindowManager::Instance().GetScreenWidth());

  00000	a1 00 00 00 00	 mov	 eax, DWORD PTR ?ms_singleton@?$CSingleton@VCWindowManager@UI@@@@0PAVCWindowManager@UI@@A ; CSingleton<UI::CWindowManager>::ms_singleton
  00005	ff 70 04	 push	 DWORD PTR [eax+4]
  00008	68 00 00 00 00	 push	 OFFSET ??_C@_01KBJDNOO@i@
  0000d	ff 15 00 00 00
	00		 call	 DWORD PTR __imp__Py_BuildValue
  00013	83 c4 08	 add	 esp, 8

; 794  : }

  00016	c3		 ret	 0
?wndMgrGetScreenWidth@@YAPAU_object@@PAU1@0@Z ENDP	; wndMgrGetScreenWidth
_TEXT	ENDS
; Function compile flags: /Ogtp
; File C:\Users\flourine\Desktop\Xantios\client-src\Code\eterPythonLib\PythonWindowManagerModule.cpp
;	COMDAT ?wndMgrGetHyperlink@@YAPAU_object@@PAU1@0@Z
_TEXT	SEGMENT
_retBuf$ = -1028					; size = 1024
__$ArrayPad$ = -4					; size = 4
_poSelf$ = 8						; size = 4
_poArgs$ = 12						; size = 4
?wndMgrGetHyperlink@@YAPAU_object@@PAU1@0@Z PROC	; wndMgrGetHyperlink, COMDAT

; 783  : {

  00000	55		 push	 ebp
  00001	8b ec		 mov	 ebp, esp
  00003	81 ec 04 04 00
	00		 sub	 esp, 1028		; 00000404H
  00009	a1 00 00 00 00	 mov	 eax, DWORD PTR ___security_cookie
  0000e	33 c5		 xor	 eax, ebp
  00010	89 45 fc	 mov	 DWORD PTR __$ArrayPad$[ebp], eax

; 784  : 	char retBuf[1024];
; 785  : 	int retLen = CGraphicTextInstance::Hyperlink_GetText(retBuf, sizeof(retBuf) - 1);

  00013	8d 85 fc fb ff
	ff		 lea	 eax, DWORD PTR _retBuf$[ebp]
  00019	68 ff 03 00 00	 push	 1023			; 000003ffH
  0001e	50		 push	 eax
  0001f	e8 00 00 00 00	 call	 ?Hyperlink_GetText@CGraphicTextInstance@@SAHPADH@Z ; CGraphicTextInstance::Hyperlink_GetText
  00024	83 c4 08	 add	 esp, 8

; 786  : 	retBuf[retLen] = '\0';

  00027	3d 00 04 00 00	 cmp	 eax, 1024		; 00000400H
  0002c	73 2c		 jae	 SHORT $LN3@wndMgrGetH

; 787  : 
; 788  : 	return Py_BuildValue("s#", retBuf, retLen);

  0002e	50		 push	 eax
  0002f	c6 84 05 fc fb
	ff ff 00	 mov	 BYTE PTR _retBuf$[ebp+eax], 0
  00037	8d 85 fc fb ff
	ff		 lea	 eax, DWORD PTR _retBuf$[ebp]
  0003d	50		 push	 eax
  0003e	68 00 00 00 00	 push	 OFFSET ??_C@_02OIKAIHIF@s?$CD@
  00043	ff 15 00 00 00
	00		 call	 DWORD PTR __imp__Py_BuildValue

; 789  : }

  00049	8b 4d fc	 mov	 ecx, DWORD PTR __$ArrayPad$[ebp]
  0004c	83 c4 0c	 add	 esp, 12			; 0000000cH
  0004f	33 cd		 xor	 ecx, ebp
  00051	e8 00 00 00 00	 call	 @__security_check_cookie@4
  00056	8b e5		 mov	 esp, ebp
  00058	5d		 pop	 ebp
  00059	c3		 ret	 0
$LN3@wndMgrGetH:

; 786  : 	retBuf[retLen] = '\0';

  0005a	e8 00 00 00 00	 call	 ___report_rangecheckfailure
$LN5@wndMgrGetH:
  0005f	cc		 int	 3
?wndMgrGetHyperlink@@YAPAU_object@@PAU1@0@Z ENDP	; wndMgrGetHyperlink
_TEXT	ENDS
; Function compile flags: /Ogtp
; File C:\Users\flourine\Desktop\Xantios\client-src\Code\eterPythonLib\PythonWindowManagerModule.cpp
;	COMDAT ?wndMgrGetMouseLocalPosition@@YAPAU_object@@PAU1@0@Z
_TEXT	SEGMENT
_lx$ = -12						; size = 4
_ly$ = -8						; size = 4
_pWin$ = -4						; size = 4
_poSelf$ = 8						; size = 4
_poArgs$ = 12						; size = 4
?wndMgrGetMouseLocalPosition@@YAPAU_object@@PAU1@0@Z PROC ; wndMgrGetMouseLocalPosition, COMDAT

; 770  : {

  00000	55		 push	 ebp
  00001	8b ec		 mov	 ebp, esp
  00003	83 ec 0c	 sub	 esp, 12			; 0000000cH

; 771  : 	UI::CWindow * pWin;
; 772  : 	if (!PyTuple_GetWindow(poArgs, 0, &pWin))

  00006	8d 45 fc	 lea	 eax, DWORD PTR _pWin$[ebp]
  00009	50		 push	 eax
  0000a	6a 00		 push	 0
  0000c	ff 75 0c	 push	 DWORD PTR _poArgs$[ebp]
  0000f	e8 00 00 00 00	 call	 ?PyTuple_GetWindow@@YA_NPAU_object@@HPAPAVCWindow@UI@@@Z ; PyTuple_GetWindow
  00014	83 c4 0c	 add	 esp, 12			; 0000000cH
  00017	84 c0		 test	 al, al
  00019	75 0e		 jne	 SHORT $LN2@wndMgrGetM

; 773  : 	{
; 774  : 		return Py_BuildException();

  0001b	6a 00		 push	 0
  0001d	e8 00 00 00 00	 call	 ?Py_BuildException@@YAPAU_object@@PBDZZ ; Py_BuildException
  00022	83 c4 04	 add	 esp, 4

; 780  : }

  00025	8b e5		 mov	 esp, ebp
  00027	5d		 pop	 ebp
  00028	c3		 ret	 0
$LN2@wndMgrGetM:

; 775  : 	}
; 776  : 
; 777  : 	long lx, ly;
; 778  : 	pWin->GetMouseLocalPosition(lx, ly);

  00029	8b 4d fc	 mov	 ecx, DWORD PTR _pWin$[ebp]
  0002c	8d 45 f8	 lea	 eax, DWORD PTR _ly$[ebp]
  0002f	50		 push	 eax
  00030	8d 45 f4	 lea	 eax, DWORD PTR _lx$[ebp]
  00033	50		 push	 eax
  00034	e8 00 00 00 00	 call	 ?GetMouseLocalPosition@CWindow@UI@@QAEXAAJ0@Z ; UI::CWindow::GetMouseLocalPosition

; 779  : 	return Py_BuildValue("ii", lx, ly);

  00039	ff 75 f8	 push	 DWORD PTR _ly$[ebp]
  0003c	ff 75 f4	 push	 DWORD PTR _lx$[ebp]
  0003f	68 00 00 00 00	 push	 OFFSET ??_C@_02PDIHAGKM@ii@
  00044	ff 15 00 00 00
	00		 call	 DWORD PTR __imp__Py_BuildValue
  0004a	83 c4 0c	 add	 esp, 12			; 0000000cH

; 780  : }

  0004d	8b e5		 mov	 esp, ebp
  0004f	5d		 pop	 ebp
  00050	c3		 ret	 0
?wndMgrGetMouseLocalPosition@@YAPAU_object@@PAU1@0@Z ENDP ; wndMgrGetMouseLocalPosition
_TEXT	ENDS
; Function compile flags: /Ogtp
; File C:\Users\flourine\Desktop\Xantios\client-src\Code\eterPythonLib\PythonWindowManagerModule.cpp
;	COMDAT ?wndMgrIsIn@@YAPAU_object@@PAU1@0@Z
_TEXT	SEGMENT
_pWin$ = -8						; size = 4
_bCheckChilds$ = -1					; size = 1
_poSelf$ = 8						; size = 4
_poArgs$ = 12						; size = 4
?wndMgrIsIn@@YAPAU_object@@PAU1@0@Z PROC		; wndMgrIsIn, COMDAT

; 735  : {

  00000	55		 push	 ebp
  00001	8b ec		 mov	 ebp, esp
  00003	83 ec 08	 sub	 esp, 8

; 736  : 	UI::CWindow * pWin;
; 737  : 	if (!PyTuple_GetWindow(poArgs, 0, &pWin))

  00006	8d 45 f8	 lea	 eax, DWORD PTR _pWin$[ebp]
  00009	50		 push	 eax
  0000a	6a 00		 push	 0
  0000c	ff 75 0c	 push	 DWORD PTR _poArgs$[ebp]
  0000f	e8 00 00 00 00	 call	 ?PyTuple_GetWindow@@YA_NPAU_object@@HPAPAVCWindow@UI@@@Z ; PyTuple_GetWindow
  00014	83 c4 0c	 add	 esp, 12			; 0000000cH
  00017	84 c0		 test	 al, al
  00019	75 0e		 jne	 SHORT $LN2@wndMgrIsIn

; 738  : 	{
; 739  : 		return Py_BuildException();

  0001b	6a 00		 push	 0
  0001d	e8 00 00 00 00	 call	 ?Py_BuildException@@YAPAU_object@@PBDZZ ; Py_BuildException
  00022	83 c4 04	 add	 esp, 4

; 764  : #else
; 765  : 	return Py_BuildValue("i", pWin == UI::CWindowManager::Instance().GetPointWindow());
; 766  : #endif
; 767  : }

  00025	8b e5		 mov	 esp, ebp
  00027	5d		 pop	 ebp
  00028	c3		 ret	 0
$LN2@wndMgrIsIn:

; 740  : 	}
; 741  : 
; 742  : #ifdef INGAME_WIKI
; 743  : 	bool bCheckChilds;
; 744  : 	if (!PyTuple_GetBoolean(poArgs, 1, &bCheckChilds))

  00029	8d 45 ff	 lea	 eax, DWORD PTR _bCheckChilds$[ebp]
  0002c	50		 push	 eax
  0002d	6a 01		 push	 1
  0002f	ff 75 0c	 push	 DWORD PTR _poArgs$[ebp]
  00032	e8 00 00 00 00	 call	 ?PyTuple_GetBoolean@@YA_NPAU_object@@HPA_N@Z ; PyTuple_GetBoolean

; 745  : 	{
; 746  : 		bCheckChilds = false;
; 747  : 	}
; 748  : 
; 749  : 	UI::CWindow* pWinPoint = UI::CWindowManager::Instance().GetPointWindow();

  00037	8b 0d 00 00 00
	00		 mov	 ecx, DWORD PTR ?ms_singleton@?$CSingleton@VCWindowManager@UI@@@@0PAVCWindowManager@UI@@A ; CSingleton<UI::CWindowManager>::ms_singleton
  0003d	83 c4 0c	 add	 esp, 12			; 0000000cH

; 750  : 	if (pWin == pWinPoint)

  00040	8b 55 f8	 mov	 edx, DWORD PTR _pWin$[ebp]
  00043	f6 d8		 neg	 al
  00045	1a c0		 sbb	 al, al
  00047	22 45 ff	 and	 al, BYTE PTR _bCheckChilds$[ebp]
  0004a	88 45 ff	 mov	 BYTE PTR _bCheckChilds$[ebp], al
  0004d	8b 49 70	 mov	 ecx, DWORD PTR [ecx+112]
  00050	3b d1		 cmp	 edx, ecx
  00052	75 14		 jne	 SHORT $LN4@wndMgrIsIn
$LN9@wndMgrIsIn:

; 764  : #else
; 765  : 	return Py_BuildValue("i", pWin == UI::CWindowManager::Instance().GetPointWindow());
; 766  : #endif
; 767  : }

  00054	6a 01		 push	 1
  00056	68 00 00 00 00	 push	 OFFSET ??_C@_01OJONOECF@b@
  0005b	ff 15 00 00 00
	00		 call	 DWORD PTR __imp__Py_BuildValue
  00061	83 c4 08	 add	 esp, 8
  00064	8b e5		 mov	 esp, ebp
  00066	5d		 pop	 ebp
  00067	c3		 ret	 0
$LN4@wndMgrIsIn:

; 751  : 	{
; 752  : 		return Py_BuildValue("b", true);
; 753  : 	}
; 754  : 
; 755  : 	if (bCheckChilds && pWinPoint)

  00068	84 c0		 test	 al, al
  0006a	74 12		 je	 SHORT $LN6@wndMgrIsIn
  0006c	85 c9		 test	 ecx, ecx
  0006e	74 0e		 je	 SHORT $LN6@wndMgrIsIn

; 756  : 	{
; 757  : 		if (pWin->IsChild(pWinPoint, true))

  00070	6a 01		 push	 1
  00072	51		 push	 ecx
  00073	8b ca		 mov	 ecx, edx
  00075	e8 00 00 00 00	 call	 ?IsChild@CWindow@UI@@QAE_NPAV12@_N@Z ; UI::CWindow::IsChild
  0007a	84 c0		 test	 al, al
  0007c	75 d6		 jne	 SHORT $LN9@wndMgrIsIn
$LN6@wndMgrIsIn:

; 758  : 		{
; 759  : 			return Py_BuildValue("b", true);
; 760  : 		}
; 761  : 	}
; 762  : 
; 763  : 	return Py_BuildValue("b", false);

  0007e	6a 00		 push	 0

; 764  : #else
; 765  : 	return Py_BuildValue("i", pWin == UI::CWindowManager::Instance().GetPointWindow());
; 766  : #endif
; 767  : }

  00080	68 00 00 00 00	 push	 OFFSET ??_C@_01OJONOECF@b@
  00085	ff 15 00 00 00
	00		 call	 DWORD PTR __imp__Py_BuildValue
  0008b	83 c4 08	 add	 esp, 8
  0008e	8b e5		 mov	 esp, ebp
  00090	5d		 pop	 ebp
  00091	c3		 ret	 0
?wndMgrIsIn@@YAPAU_object@@PAU1@0@Z ENDP		; wndMgrIsIn
_TEXT	ENDS
; Function compile flags: /Ogtp
; File C:\Users\flourine\Desktop\Xantios\client-src\Code\eterPythonLib\PythonWindowManagerModule.cpp
;	COMDAT ?wndMgrSetWindowVerticalAlign@@YAPAU_object@@PAU1@0@Z
_TEXT	SEGMENT
_pWin$ = -8						; size = 4
_iAlign$ = -4						; size = 4
_poSelf$ = 8						; size = 4
_poArgs$ = 12						; size = 4
?wndMgrSetWindowVerticalAlign@@YAPAU_object@@PAU1@0@Z PROC ; wndMgrSetWindowVerticalAlign, COMDAT

; 717  : {

  00000	55		 push	 ebp
  00001	8b ec		 mov	 ebp, esp
  00003	83 ec 08	 sub	 esp, 8

; 718  : 	UI::CWindow * pWin;
; 719  : 	if (!PyTuple_GetWindow(poArgs, 0, &pWin))

  00006	8d 45 f8	 lea	 eax, DWORD PTR _pWin$[ebp]
  00009	50		 push	 eax
  0000a	6a 00		 push	 0
  0000c	ff 75 0c	 push	 DWORD PTR _poArgs$[ebp]
  0000f	e8 00 00 00 00	 call	 ?PyTuple_GetWindow@@YA_NPAU_object@@HPAPAVCWindow@UI@@@Z ; PyTuple_GetWindow
  00014	83 c4 0c	 add	 esp, 12			; 0000000cH
  00017	84 c0		 test	 al, al
  00019	75 0e		 jne	 SHORT $LN2@wndMgrSetW
$LN5@wndMgrSetW:

; 732  : }

  0001b	6a 00		 push	 0
  0001d	e8 00 00 00 00	 call	 ?Py_BuildException@@YAPAU_object@@PBDZZ ; Py_BuildException
  00022	83 c4 04	 add	 esp, 4
  00025	8b e5		 mov	 esp, ebp
  00027	5d		 pop	 ebp
  00028	c3		 ret	 0
$LN2@wndMgrSetW:

; 720  : 	{
; 721  : 		return Py_BuildException();
; 722  : 	}
; 723  : 	int iAlign;
; 724  : 	if (!PyTuple_GetInteger(poArgs, 1, &iAlign))

  00029	8d 45 fc	 lea	 eax, DWORD PTR _iAlign$[ebp]
  0002c	50		 push	 eax
  0002d	6a 01		 push	 1
  0002f	ff 75 0c	 push	 DWORD PTR _poArgs$[ebp]
  00032	e8 00 00 00 00	 call	 ?PyTuple_GetInteger@@YA_NPAU_object@@HPAH@Z ; PyTuple_GetInteger
  00037	83 c4 0c	 add	 esp, 12			; 0000000cH
  0003a	84 c0		 test	 al, al
  0003c	74 dd		 je	 SHORT $LN5@wndMgrSetW

; 725  : 	{
; 726  : 		return Py_BuildException();
; 727  : 	}
; 728  : 
; 729  : 	pWin->SetVerticalAlign(iAlign);

  0003e	ff 75 fc	 push	 DWORD PTR _iAlign$[ebp]
  00041	8b 4d f8	 mov	 ecx, DWORD PTR _pWin$[ebp]
  00044	e8 00 00 00 00	 call	 ?SetVerticalAlign@CWindow@UI@@QAEXK@Z ; UI::CWindow::SetVerticalAlign

; 730  : 
; 731  : 	return Py_BuildNone();

  00049	e8 00 00 00 00	 call	 ?Py_BuildNone@@YAPAU_object@@XZ ; Py_BuildNone

; 732  : }

  0004e	8b e5		 mov	 esp, ebp
  00050	5d		 pop	 ebp
  00051	c3		 ret	 0
?wndMgrSetWindowVerticalAlign@@YAPAU_object@@PAU1@0@Z ENDP ; wndMgrSetWindowVerticalAlign
_TEXT	ENDS
; Function compile flags: /Ogtp
; File C:\Users\flourine\Desktop\Xantios\client-src\Code\eterPythonLib\PythonWindowManagerModule.cpp
;	COMDAT ?wndMgrSetWindowHorizontalAlign@@YAPAU_object@@PAU1@0@Z
_TEXT	SEGMENT
_pWin$ = -8						; size = 4
_iAlign$ = -4						; size = 4
_poSelf$ = 8						; size = 4
_poArgs$ = 12						; size = 4
?wndMgrSetWindowHorizontalAlign@@YAPAU_object@@PAU1@0@Z PROC ; wndMgrSetWindowHorizontalAlign, COMDAT

; 699  : {

  00000	55		 push	 ebp
  00001	8b ec		 mov	 ebp, esp
  00003	83 ec 08	 sub	 esp, 8

; 700  : 	UI::CWindow * pWin;
; 701  : 	if (!PyTuple_GetWindow(poArgs, 0, &pWin))

  00006	8d 45 f8	 lea	 eax, DWORD PTR _pWin$[ebp]
  00009	50		 push	 eax
  0000a	6a 00		 push	 0
  0000c	ff 75 0c	 push	 DWORD PTR _poArgs$[ebp]
  0000f	e8 00 00 00 00	 call	 ?PyTuple_GetWindow@@YA_NPAU_object@@HPAPAVCWindow@UI@@@Z ; PyTuple_GetWindow
  00014	83 c4 0c	 add	 esp, 12			; 0000000cH
  00017	84 c0		 test	 al, al
  00019	75 0e		 jne	 SHORT $LN2@wndMgrSetW
$LN5@wndMgrSetW:

; 714  : }

  0001b	6a 00		 push	 0
  0001d	e8 00 00 00 00	 call	 ?Py_BuildException@@YAPAU_object@@PBDZZ ; Py_BuildException
  00022	83 c4 04	 add	 esp, 4
  00025	8b e5		 mov	 esp, ebp
  00027	5d		 pop	 ebp
  00028	c3		 ret	 0
$LN2@wndMgrSetW:

; 702  : 	{
; 703  : 		return Py_BuildException();
; 704  : 	}
; 705  : 	int iAlign;
; 706  : 	if (!PyTuple_GetInteger(poArgs, 1, &iAlign))

  00029	8d 45 fc	 lea	 eax, DWORD PTR _iAlign$[ebp]
  0002c	50		 push	 eax
  0002d	6a 01		 push	 1
  0002f	ff 75 0c	 push	 DWORD PTR _poArgs$[ebp]
  00032	e8 00 00 00 00	 call	 ?PyTuple_GetInteger@@YA_NPAU_object@@HPAH@Z ; PyTuple_GetInteger
  00037	83 c4 0c	 add	 esp, 12			; 0000000cH
  0003a	84 c0		 test	 al, al
  0003c	74 dd		 je	 SHORT $LN5@wndMgrSetW

; 707  : 	{
; 708  : 		return Py_BuildException();
; 709  : 	}
; 710  : 
; 711  : 	pWin->SetHorizontalAlign(iAlign);

  0003e	ff 75 fc	 push	 DWORD PTR _iAlign$[ebp]
  00041	8b 4d f8	 mov	 ecx, DWORD PTR _pWin$[ebp]
  00044	e8 00 00 00 00	 call	 ?SetHorizontalAlign@CWindow@UI@@QAEXK@Z ; UI::CWindow::SetHorizontalAlign

; 712  : 
; 713  : 	return Py_BuildNone();

  00049	e8 00 00 00 00	 call	 ?Py_BuildNone@@YAPAU_object@@XZ ; Py_BuildNone

; 714  : }

  0004e	8b e5		 mov	 esp, ebp
  00050	5d		 pop	 ebp
  00051	c3		 ret	 0
?wndMgrSetWindowHorizontalAlign@@YAPAU_object@@PAU1@0@Z ENDP ; wndMgrSetWindowHorizontalAlign
_TEXT	ENDS
; Function compile flags: /Ogtp
; File C:\Users\flourine\Desktop\Xantios\client-src\Code\eterPythonLib\PythonWindowManagerModule.cpp
;	COMDAT ?wndMgrGetWindowRect@@YAPAU_object@@PAU1@0@Z
_TEXT	SEGMENT
_pWin$ = -4						; size = 4
_poSelf$ = 8						; size = 4
_poArgs$ = 12						; size = 4
?wndMgrGetWindowRect@@YAPAU_object@@PAU1@0@Z PROC	; wndMgrGetWindowRect, COMDAT

; 687  : {

  00000	55		 push	 ebp
  00001	8b ec		 mov	 ebp, esp
  00003	51		 push	 ecx

; 688  : 	UI::CWindow * pWin;
; 689  : 	if (!PyTuple_GetWindow(poArgs, 0, &pWin))

  00004	8d 45 fc	 lea	 eax, DWORD PTR _pWin$[ebp]
  00007	50		 push	 eax
  00008	6a 00		 push	 0
  0000a	ff 75 0c	 push	 DWORD PTR _poArgs$[ebp]
  0000d	e8 00 00 00 00	 call	 ?PyTuple_GetWindow@@YA_NPAU_object@@HPAPAVCWindow@UI@@@Z ; PyTuple_GetWindow
  00012	83 c4 0c	 add	 esp, 12			; 0000000cH
  00015	84 c0		 test	 al, al
  00017	75 0e		 jne	 SHORT $LN2@wndMgrGetW

; 690  : 	{
; 691  : 		return Py_BuildException();

  00019	6a 00		 push	 0
  0001b	e8 00 00 00 00	 call	 ?Py_BuildException@@YAPAU_object@@PBDZZ ; Py_BuildException
  00020	83 c4 04	 add	 esp, 4

; 696  : }

  00023	8b e5		 mov	 esp, ebp
  00025	5d		 pop	 ebp
  00026	c3		 ret	 0
$LN2@wndMgrGetW:

; 692  : 	}
; 693  : 
; 694  : 	RECT & rRect = pWin->GetRect();

  00027	8b 4d fc	 mov	 ecx, DWORD PTR _pWin$[ebp]

; 695  : 	return Py_BuildValue("iiii", rRect.left, rRect.top, rRect.right - rRect.left, rRect.bottom - rRect.top);

  0002a	8b 51 38	 mov	 edx, DWORD PTR [ecx+56]
  0002d	8b 41 40	 mov	 eax, DWORD PTR [ecx+64]
  00030	2b c2		 sub	 eax, edx
  00032	50		 push	 eax
  00033	8b 41 3c	 mov	 eax, DWORD PTR [ecx+60]
  00036	2b 41 34	 sub	 eax, DWORD PTR [ecx+52]
  00039	50		 push	 eax
  0003a	52		 push	 edx
  0003b	ff 71 34	 push	 DWORD PTR [ecx+52]
  0003e	68 00 00 00 00	 push	 OFFSET ??_C@_04BIOIIFBG@iiii@
  00043	ff 15 00 00 00
	00		 call	 DWORD PTR __imp__Py_BuildValue
  00049	83 c4 14	 add	 esp, 20			; 00000014H

; 696  : }

  0004c	8b e5		 mov	 esp, ebp
  0004e	5d		 pop	 ebp
  0004f	c3		 ret	 0
?wndMgrGetWindowRect@@YAPAU_object@@PAU1@0@Z ENDP	; wndMgrGetWindowRect
_TEXT	ENDS
; Function compile flags: /Ogtp
; File C:\Users\flourine\Desktop\Xantios\client-src\Code\eterPythonLib\PythonWindowManagerModule.cpp
;	COMDAT ?wndMgrGetWndGlobalPosition@@YAPAU_object@@PAU1@0@Z
_TEXT	SEGMENT
_pWindow$ = -4						; size = 4
_poSelf$ = 8						; size = 4
_poArgs$ = 12						; size = 4
?wndMgrGetWndGlobalPosition@@YAPAU_object@@PAU1@0@Z PROC ; wndMgrGetWndGlobalPosition, COMDAT

; 675  : {

  00000	55		 push	 ebp
  00001	8b ec		 mov	 ebp, esp
  00003	51		 push	 ecx

; 676  : 	UI::CWindow * pWindow;
; 677  : 	if (!PyTuple_GetWindow(poArgs, 0, &pWindow))

  00004	8d 45 fc	 lea	 eax, DWORD PTR _pWindow$[ebp]
  00007	50		 push	 eax
  00008	6a 00		 push	 0
  0000a	ff 75 0c	 push	 DWORD PTR _poArgs$[ebp]
  0000d	e8 00 00 00 00	 call	 ?PyTuple_GetWindow@@YA_NPAU_object@@HPAPAVCWindow@UI@@@Z ; PyTuple_GetWindow
  00012	83 c4 0c	 add	 esp, 12			; 0000000cH
  00015	84 c0		 test	 al, al
  00017	75 0e		 jne	 SHORT $LN2@wndMgrGetW

; 678  : 	{
; 679  : 		return Py_BuildException();

  00019	6a 00		 push	 0
  0001b	e8 00 00 00 00	 call	 ?Py_BuildException@@YAPAU_object@@PBDZZ ; Py_BuildException
  00020	83 c4 04	 add	 esp, 4

; 684  : }

  00023	8b e5		 mov	 esp, ebp
  00025	5d		 pop	 ebp
  00026	c3		 ret	 0
$LN2@wndMgrGetW:

; 680  : 	}
; 681  : 
; 682  : 	RECT & rRect = pWindow->GetRect();

  00027	8b 45 fc	 mov	 eax, DWORD PTR _pWindow$[ebp]

; 683  : 	return Py_BuildValue("ii", rRect.left, rRect.top);

  0002a	ff 70 38	 push	 DWORD PTR [eax+56]
  0002d	ff 70 34	 push	 DWORD PTR [eax+52]
  00030	68 00 00 00 00	 push	 OFFSET ??_C@_02PDIHAGKM@ii@
  00035	ff 15 00 00 00
	00		 call	 DWORD PTR __imp__Py_BuildValue
  0003b	83 c4 0c	 add	 esp, 12			; 0000000cH

; 684  : }

  0003e	8b e5		 mov	 esp, ebp
  00040	5d		 pop	 ebp
  00041	c3		 ret	 0
?wndMgrGetWndGlobalPosition@@YAPAU_object@@PAU1@0@Z ENDP ; wndMgrGetWndGlobalPosition
_TEXT	ENDS
; Function compile flags: /Ogtp
; File C:\Users\flourine\Desktop\Xantios\client-src\Code\eterPythonLib\PythonWindowManagerModule.cpp
;	COMDAT ?wndMgrGetWndLocalPosition@@YAPAU_object@@PAU1@0@Z
_TEXT	SEGMENT
_lx$ = -12						; size = 4
_ly$ = -8						; size = 4
_pWin$ = -4						; size = 4
_poSelf$ = 8						; size = 4
_poArgs$ = 12						; size = 4
?wndMgrGetWndLocalPosition@@YAPAU_object@@PAU1@0@Z PROC	; wndMgrGetWndLocalPosition, COMDAT

; 661  : {

  00000	55		 push	 ebp
  00001	8b ec		 mov	 ebp, esp
  00003	83 ec 0c	 sub	 esp, 12			; 0000000cH

; 662  : 	UI::CWindow * pWin;
; 663  : 	if (!PyTuple_GetWindow(poArgs, 0, &pWin))

  00006	8d 45 fc	 lea	 eax, DWORD PTR _pWin$[ebp]
  00009	50		 push	 eax
  0000a	6a 00		 push	 0
  0000c	ff 75 0c	 push	 DWORD PTR _poArgs$[ebp]
  0000f	e8 00 00 00 00	 call	 ?PyTuple_GetWindow@@YA_NPAU_object@@HPAPAVCWindow@UI@@@Z ; PyTuple_GetWindow
  00014	83 c4 0c	 add	 esp, 12			; 0000000cH
  00017	84 c0		 test	 al, al
  00019	75 0e		 jne	 SHORT $LN2@wndMgrGetW

; 664  : 	{
; 665  : 		return Py_BuildException();

  0001b	6a 00		 push	 0
  0001d	e8 00 00 00 00	 call	 ?Py_BuildException@@YAPAU_object@@PBDZZ ; Py_BuildException
  00022	83 c4 04	 add	 esp, 4

; 672  : }

  00025	8b e5		 mov	 esp, ebp
  00027	5d		 pop	 ebp
  00028	c3		 ret	 0
$LN2@wndMgrGetW:

; 666  : 	}
; 667  : 
; 668  : 	long lx, ly;
; 669  : 	pWin->GetPosition(&lx, &ly);

  00029	8b 4d fc	 mov	 ecx, DWORD PTR _pWin$[ebp]
  0002c	8d 45 f8	 lea	 eax, DWORD PTR _ly$[ebp]
  0002f	50		 push	 eax
  00030	8d 45 f4	 lea	 eax, DWORD PTR _lx$[ebp]
  00033	50		 push	 eax
  00034	e8 00 00 00 00	 call	 ?GetPosition@CWindow@UI@@QAEXPAJ0@Z ; UI::CWindow::GetPosition

; 670  : 
; 671  : 	return Py_BuildValue("ii", lx, ly);

  00039	ff 75 f8	 push	 DWORD PTR _ly$[ebp]
  0003c	ff 75 f4	 push	 DWORD PTR _lx$[ebp]
  0003f	68 00 00 00 00	 push	 OFFSET ??_C@_02PDIHAGKM@ii@
  00044	ff 15 00 00 00
	00		 call	 DWORD PTR __imp__Py_BuildValue
  0004a	83 c4 0c	 add	 esp, 12			; 0000000cH

; 672  : }

  0004d	8b e5		 mov	 esp, ebp
  0004f	5d		 pop	 ebp
  00050	c3		 ret	 0
?wndMgrGetWndLocalPosition@@YAPAU_object@@PAU1@0@Z ENDP	; wndMgrGetWndLocalPosition
_TEXT	ENDS
; Function compile flags: /Ogtp
; File C:\Users\flourine\Desktop\Xantios\client-src\Code\eterPythonLib\PythonWindowManagerModule.cpp
;	COMDAT ?wndMgrGetWndHeight@@YAPAU_object@@PAU1@0@Z
_TEXT	SEGMENT
_pWin$ = -4						; size = 4
_poSelf$ = 8						; size = 4
_poArgs$ = 12						; size = 4
?wndMgrGetWndHeight@@YAPAU_object@@PAU1@0@Z PROC	; wndMgrGetWndHeight, COMDAT

; 650  : {

  00000	55		 push	 ebp
  00001	8b ec		 mov	 ebp, esp
  00003	51		 push	 ecx

; 651  : 	UI::CWindow * pWin;
; 652  : 	if (!PyTuple_GetWindow(poArgs, 0, &pWin))

  00004	8d 45 fc	 lea	 eax, DWORD PTR _pWin$[ebp]
  00007	50		 push	 eax
  00008	6a 00		 push	 0
  0000a	ff 75 0c	 push	 DWORD PTR _poArgs$[ebp]
  0000d	e8 00 00 00 00	 call	 ?PyTuple_GetWindow@@YA_NPAU_object@@HPAPAVCWindow@UI@@@Z ; PyTuple_GetWindow
  00012	83 c4 0c	 add	 esp, 12			; 0000000cH
  00015	84 c0		 test	 al, al
  00017	75 0e		 jne	 SHORT $LN2@wndMgrGetW

; 653  : 	{
; 654  : 		return Py_BuildException();

  00019	6a 00		 push	 0
  0001b	e8 00 00 00 00	 call	 ?Py_BuildException@@YAPAU_object@@PBDZZ ; Py_BuildException
  00020	83 c4 04	 add	 esp, 4

; 658  : }

  00023	8b e5		 mov	 esp, ebp
  00025	5d		 pop	 ebp
  00026	c3		 ret	 0
$LN2@wndMgrGetW:

; 655  : 	}
; 656  : 
; 657  : 	return Py_BuildValue("i", pWin->GetHeight());

  00027	8b 45 fc	 mov	 eax, DWORD PTR _pWin$[ebp]
  0002a	ff 70 30	 push	 DWORD PTR [eax+48]
  0002d	68 00 00 00 00	 push	 OFFSET ??_C@_01KBJDNOO@i@
  00032	ff 15 00 00 00
	00		 call	 DWORD PTR __imp__Py_BuildValue
  00038	83 c4 08	 add	 esp, 8

; 658  : }

  0003b	8b e5		 mov	 esp, ebp
  0003d	5d		 pop	 ebp
  0003e	c3		 ret	 0
?wndMgrGetWndHeight@@YAPAU_object@@PAU1@0@Z ENDP	; wndMgrGetWndHeight
_TEXT	ENDS
; Function compile flags: /Ogtp
; File C:\Users\flourine\Desktop\Xantios\client-src\Code\eterPythonLib\PythonWindowManagerModule.cpp
;	COMDAT ?wndMgrGetWndWidth@@YAPAU_object@@PAU1@0@Z
_TEXT	SEGMENT
_pWin$ = -4						; size = 4
_poSelf$ = 8						; size = 4
_poArgs$ = 12						; size = 4
?wndMgrGetWndWidth@@YAPAU_object@@PAU1@0@Z PROC		; wndMgrGetWndWidth, COMDAT

; 639  : {

  00000	55		 push	 ebp
  00001	8b ec		 mov	 ebp, esp
  00003	51		 push	 ecx

; 640  : 	UI::CWindow * pWin;
; 641  : 	if (!PyTuple_GetWindow(poArgs, 0, &pWin))

  00004	8d 45 fc	 lea	 eax, DWORD PTR _pWin$[ebp]
  00007	50		 push	 eax
  00008	6a 00		 push	 0
  0000a	ff 75 0c	 push	 DWORD PTR _poArgs$[ebp]
  0000d	e8 00 00 00 00	 call	 ?PyTuple_GetWindow@@YA_NPAU_object@@HPAPAVCWindow@UI@@@Z ; PyTuple_GetWindow
  00012	83 c4 0c	 add	 esp, 12			; 0000000cH
  00015	84 c0		 test	 al, al
  00017	75 0e		 jne	 SHORT $LN2@wndMgrGetW

; 642  : 	{
; 643  : 		return Py_BuildException();

  00019	6a 00		 push	 0
  0001b	e8 00 00 00 00	 call	 ?Py_BuildException@@YAPAU_object@@PBDZZ ; Py_BuildException
  00020	83 c4 04	 add	 esp, 4

; 647  : }

  00023	8b e5		 mov	 esp, ebp
  00025	5d		 pop	 ebp
  00026	c3		 ret	 0
$LN2@wndMgrGetW:

; 644  : 	}
; 645  : 
; 646  : 	return Py_BuildValue("i", pWin->GetWidth());

  00027	8b 45 fc	 mov	 eax, DWORD PTR _pWin$[ebp]
  0002a	ff 70 2c	 push	 DWORD PTR [eax+44]
  0002d	68 00 00 00 00	 push	 OFFSET ??_C@_01KBJDNOO@i@
  00032	ff 15 00 00 00
	00		 call	 DWORD PTR __imp__Py_BuildValue
  00038	83 c4 08	 add	 esp, 8

; 647  : }

  0003b	8b e5		 mov	 esp, ebp
  0003d	5d		 pop	 ebp
  0003e	c3		 ret	 0
?wndMgrGetWndWidth@@YAPAU_object@@PAU1@0@Z ENDP		; wndMgrGetWndWidth
_TEXT	ENDS
; Function compile flags: /Ogtp
; File C:\Users\flourine\Desktop\Xantios\client-src\Code\eterPythonLib\PythonWindowManagerModule.cpp
; File C:\Program Files\Microsoft Visual Studio\2022\Community\VC\Tools\MSVC\14.34.31933\include\xstring
; File C:\Users\flourine\Desktop\Xantios\client-src\Code\eterPythonLib\PythonWindowManagerModule.cpp
;	COMDAT ?wndMgrGetName@@YAPAU_object@@PAU1@0@Z
_TEXT	SEGMENT
_pWin$ = -4						; size = 4
_poSelf$ = 8						; size = 4
_poArgs$ = 12						; size = 4
?wndMgrGetName@@YAPAU_object@@PAU1@0@Z PROC		; wndMgrGetName, COMDAT

; 628  : {

  00000	55		 push	 ebp
  00001	8b ec		 mov	 ebp, esp
  00003	51		 push	 ecx

; 629  : 	UI::CWindow * pWin;
; 630  : 	if (!PyTuple_GetWindow(poArgs, 0, &pWin))

  00004	8d 45 fc	 lea	 eax, DWORD PTR _pWin$[ebp]
  00007	50		 push	 eax
  00008	6a 00		 push	 0
  0000a	ff 75 0c	 push	 DWORD PTR _poArgs$[ebp]
  0000d	e8 00 00 00 00	 call	 ?PyTuple_GetWindow@@YA_NPAU_object@@HPAPAVCWindow@UI@@@Z ; PyTuple_GetWindow
  00012	83 c4 0c	 add	 esp, 12			; 0000000cH
  00015	84 c0		 test	 al, al
  00017	75 0e		 jne	 SHORT $LN2@wndMgrGetN

; 631  : 	{
; 632  : 		return Py_BuildException();

  00019	6a 00		 push	 0
  0001b	e8 00 00 00 00	 call	 ?Py_BuildException@@YAPAU_object@@PBDZZ ; Py_BuildException
  00020	83 c4 04	 add	 esp, 4

; 636  : }

  00023	8b e5		 mov	 esp, ebp
  00025	5d		 pop	 ebp
  00026	c3		 ret	 0
$LN2@wndMgrGetN:
; File C:\Program Files\Microsoft Visual Studio\2022\Community\VC\Tools\MSVC\14.34.31933\include\xstring

; 4259 :         return _Mypair._Myval2._Myptr();

  00027	8b 45 fc	 mov	 eax, DWORD PTR _pWin$[ebp]
  0002a	83 c0 04	 add	 eax, 4

; 2301 :         return _BUF_SIZE <= _Myres;

  0002d	83 78 14 10	 cmp	 DWORD PTR [eax+20], 16	; 00000010H

; 2293 :         if (_Large_string_engaged()) {

  00031	72 02		 jb	 SHORT $LN9@wndMgrGetN

; 2294 :             _Result = _Unfancy(_Bx._Ptr);

  00033	8b 00		 mov	 eax, DWORD PTR [eax]
$LN9@wndMgrGetN:
; File C:\Users\flourine\Desktop\Xantios\client-src\Code\eterPythonLib\PythonWindowManagerModule.cpp

; 635  : 	return Py_BuildValue("s", pWin->GetName());

  00035	50		 push	 eax
  00036	68 00 00 00 00	 push	 OFFSET ??_C@_01LKDEMHDF@s@
  0003b	ff 15 00 00 00
	00		 call	 DWORD PTR __imp__Py_BuildValue
  00041	83 c4 08	 add	 esp, 8

; 636  : }

  00044	8b e5		 mov	 esp, ebp
  00046	5d		 pop	 ebp
  00047	c3		 ret	 0
?wndMgrGetName@@YAPAU_object@@PAU1@0@Z ENDP		; wndMgrGetName
_TEXT	ENDS
; Function compile flags: /Ogtp
; File C:\Users\flourine\Desktop\Xantios\client-src\Code\eterPythonLib\PythonWindowManagerModule.cpp
;	COMDAT ?wndMgrSetWndPosition@@YAPAU_object@@PAU1@0@Z
_TEXT	SEGMENT
_pWin$ = -12						; size = 4
_x$ = -8						; size = 4
_y$ = -4						; size = 4
_poSelf$ = 8						; size = 4
_poArgs$ = 12						; size = 4
?wndMgrSetWndPosition@@YAPAU_object@@PAU1@0@Z PROC	; wndMgrSetWndPosition, COMDAT

; 606  : {

  00000	55		 push	 ebp
  00001	8b ec		 mov	 ebp, esp
  00003	83 ec 0c	 sub	 esp, 12			; 0000000cH

; 607  : 	UI::CWindow * pWin;
; 608  : 	if (!PyTuple_GetWindow(poArgs, 0, &pWin))

  00006	8d 45 f4	 lea	 eax, DWORD PTR _pWin$[ebp]
  00009	56		 push	 esi
  0000a	8b 75 0c	 mov	 esi, DWORD PTR _poArgs$[ebp]
  0000d	50		 push	 eax
  0000e	6a 00		 push	 0
  00010	56		 push	 esi
  00011	e8 00 00 00 00	 call	 ?PyTuple_GetWindow@@YA_NPAU_object@@HPAPAVCWindow@UI@@@Z ; PyTuple_GetWindow
  00016	83 c4 0c	 add	 esp, 12			; 0000000cH
  00019	84 c0		 test	 al, al
  0001b	75 0f		 jne	 SHORT $LN2@wndMgrSetW
$LN6@wndMgrSetW:

; 625  : }

  0001d	6a 00		 push	 0
  0001f	e8 00 00 00 00	 call	 ?Py_BuildException@@YAPAU_object@@PBDZZ ; Py_BuildException
  00024	83 c4 04	 add	 esp, 4
  00027	5e		 pop	 esi
  00028	8b e5		 mov	 esp, ebp
  0002a	5d		 pop	 ebp
  0002b	c3		 ret	 0
$LN2@wndMgrSetW:

; 609  : 	{
; 610  : 		return Py_BuildException();
; 611  : 	}
; 612  : 	int x;
; 613  : 	if (!PyTuple_GetInteger(poArgs, 1, &x))

  0002c	8d 45 f8	 lea	 eax, DWORD PTR _x$[ebp]
  0002f	50		 push	 eax
  00030	6a 01		 push	 1
  00032	56		 push	 esi
  00033	e8 00 00 00 00	 call	 ?PyTuple_GetInteger@@YA_NPAU_object@@HPAH@Z ; PyTuple_GetInteger
  00038	83 c4 0c	 add	 esp, 12			; 0000000cH
  0003b	84 c0		 test	 al, al
  0003d	74 de		 je	 SHORT $LN6@wndMgrSetW

; 614  : 	{
; 615  : 		return Py_BuildException();
; 616  : 	}
; 617  : 	int y;
; 618  : 	if (!PyTuple_GetInteger(poArgs, 2, &y))

  0003f	8d 45 fc	 lea	 eax, DWORD PTR _y$[ebp]
  00042	50		 push	 eax
  00043	6a 02		 push	 2
  00045	56		 push	 esi
  00046	e8 00 00 00 00	 call	 ?PyTuple_GetInteger@@YA_NPAU_object@@HPAH@Z ; PyTuple_GetInteger
  0004b	83 c4 0c	 add	 esp, 12			; 0000000cH
  0004e	84 c0		 test	 al, al
  00050	74 cb		 je	 SHORT $LN6@wndMgrSetW

; 619  : 	{
; 620  : 		return Py_BuildException();
; 621  : 	}
; 622  : 
; 623  : 	pWin->SetPosition(x, y);

  00052	ff 75 fc	 push	 DWORD PTR _y$[ebp]
  00055	8b 4d f4	 mov	 ecx, DWORD PTR _pWin$[ebp]
  00058	ff 75 f8	 push	 DWORD PTR _x$[ebp]
  0005b	e8 00 00 00 00	 call	 ?SetPosition@CWindow@UI@@QAEXJJ@Z ; UI::CWindow::SetPosition

; 624  : 	return Py_BuildNone();

  00060	e8 00 00 00 00	 call	 ?Py_BuildNone@@YAPAU_object@@XZ ; Py_BuildNone
  00065	5e		 pop	 esi

; 625  : }

  00066	8b e5		 mov	 esp, ebp
  00068	5d		 pop	 ebp
  00069	c3		 ret	 0
?wndMgrSetWndPosition@@YAPAU_object@@PAU1@0@Z ENDP	; wndMgrSetWndPosition
_TEXT	ENDS
; Function compile flags: /Ogtp
; File C:\Users\flourine\Desktop\Xantios\client-src\Code\eterPythonLib\PythonWindowManagerModule.cpp
;	COMDAT ?wndMgrSetWndSize@@YAPAU_object@@PAU1@0@Z
_TEXT	SEGMENT
_pWin$ = -12						; size = 4
_width$ = -8						; size = 4
_height$ = -4						; size = 4
_poSelf$ = 8						; size = 4
_poArgs$ = 12						; size = 4
?wndMgrSetWndSize@@YAPAU_object@@PAU1@0@Z PROC		; wndMgrSetWndSize, COMDAT

; 584  : {

  00000	55		 push	 ebp
  00001	8b ec		 mov	 ebp, esp
  00003	83 ec 0c	 sub	 esp, 12			; 0000000cH

; 585  : 	UI::CWindow * pWin;
; 586  : 	if (!PyTuple_GetWindow(poArgs, 0, &pWin))

  00006	8d 45 f4	 lea	 eax, DWORD PTR _pWin$[ebp]
  00009	56		 push	 esi
  0000a	8b 75 0c	 mov	 esi, DWORD PTR _poArgs$[ebp]
  0000d	50		 push	 eax
  0000e	6a 00		 push	 0
  00010	56		 push	 esi
  00011	e8 00 00 00 00	 call	 ?PyTuple_GetWindow@@YA_NPAU_object@@HPAPAVCWindow@UI@@@Z ; PyTuple_GetWindow
  00016	83 c4 0c	 add	 esp, 12			; 0000000cH
  00019	84 c0		 test	 al, al
  0001b	75 0f		 jne	 SHORT $LN2@wndMgrSetW
$LN6@wndMgrSetW:

; 603  : }

  0001d	6a 00		 push	 0
  0001f	e8 00 00 00 00	 call	 ?Py_BuildException@@YAPAU_object@@PBDZZ ; Py_BuildException
  00024	83 c4 04	 add	 esp, 4
  00027	5e		 pop	 esi
  00028	8b e5		 mov	 esp, ebp
  0002a	5d		 pop	 ebp
  0002b	c3		 ret	 0
$LN2@wndMgrSetW:

; 587  : 	{
; 588  : 		return Py_BuildException();
; 589  : 	}
; 590  : 	int width;
; 591  : 	if (!PyTuple_GetInteger(poArgs, 1, &width))

  0002c	8d 45 f8	 lea	 eax, DWORD PTR _width$[ebp]
  0002f	50		 push	 eax
  00030	6a 01		 push	 1
  00032	56		 push	 esi
  00033	e8 00 00 00 00	 call	 ?PyTuple_GetInteger@@YA_NPAU_object@@HPAH@Z ; PyTuple_GetInteger
  00038	83 c4 0c	 add	 esp, 12			; 0000000cH
  0003b	84 c0		 test	 al, al
  0003d	74 de		 je	 SHORT $LN6@wndMgrSetW

; 592  : 	{
; 593  : 		return Py_BuildException();
; 594  : 	}
; 595  : 	int height;
; 596  : 	if (!PyTuple_GetInteger(poArgs, 2, &height))

  0003f	8d 45 fc	 lea	 eax, DWORD PTR _height$[ebp]
  00042	50		 push	 eax
  00043	6a 02		 push	 2
  00045	56		 push	 esi
  00046	e8 00 00 00 00	 call	 ?PyTuple_GetInteger@@YA_NPAU_object@@HPAH@Z ; PyTuple_GetInteger
  0004b	83 c4 0c	 add	 esp, 12			; 0000000cH
  0004e	84 c0		 test	 al, al
  00050	74 cb		 je	 SHORT $LN6@wndMgrSetW

; 597  : 	{
; 598  : 		return Py_BuildException();
; 599  : 	}
; 600  : 
; 601  : 	pWin->SetSize(width, height);

  00052	ff 75 fc	 push	 DWORD PTR _height$[ebp]
  00055	8b 4d f4	 mov	 ecx, DWORD PTR _pWin$[ebp]
  00058	ff 75 f8	 push	 DWORD PTR _width$[ebp]
  0005b	e8 00 00 00 00	 call	 ?SetSize@CWindow@UI@@QAEXJJ@Z ; UI::CWindow::SetSize

; 602  : 	return Py_BuildNone();

  00060	e8 00 00 00 00	 call	 ?Py_BuildNone@@YAPAU_object@@XZ ; Py_BuildNone
  00065	5e		 pop	 esi

; 603  : }

  00066	8b e5		 mov	 esp, ebp
  00068	5d		 pop	 ebp
  00069	c3		 ret	 0
?wndMgrSetWndSize@@YAPAU_object@@PAU1@0@Z ENDP		; wndMgrSetWndSize
_TEXT	ENDS
; Function compile flags: /Ogtp
; File C:\Users\flourine\Desktop\Xantios\client-src\Code\eterPythonLib\PythonWindowManagerModule.cpp
;	COMDAT ?wndMgrSetPickAlways@@YAPAU_object@@PAU1@0@Z
_TEXT	SEGMENT
_pWin$ = -4						; size = 4
_poSelf$ = 8						; size = 4
_poArgs$ = 12						; size = 4
?wndMgrSetPickAlways@@YAPAU_object@@PAU1@0@Z PROC	; wndMgrSetPickAlways, COMDAT

; 572  : {

  00000	55		 push	 ebp
  00001	8b ec		 mov	 ebp, esp
  00003	51		 push	 ecx

; 573  : 	UI::CWindow * pWin;
; 574  : 	if (!PyTuple_GetWindow(poArgs, 0, &pWin))

  00004	8d 45 fc	 lea	 eax, DWORD PTR _pWin$[ebp]
  00007	50		 push	 eax
  00008	6a 00		 push	 0
  0000a	ff 75 0c	 push	 DWORD PTR _poArgs$[ebp]
  0000d	e8 00 00 00 00	 call	 ?PyTuple_GetWindow@@YA_NPAU_object@@HPAPAVCWindow@UI@@@Z ; PyTuple_GetWindow
  00012	83 c4 0c	 add	 esp, 12			; 0000000cH
  00015	84 c0		 test	 al, al
  00017	75 0e		 jne	 SHORT $LN2@wndMgrSetP

; 575  : 	{
; 576  : 		return Py_BuildException();

  00019	6a 00		 push	 0
  0001b	e8 00 00 00 00	 call	 ?Py_BuildException@@YAPAU_object@@PBDZZ ; Py_BuildException
  00020	83 c4 04	 add	 esp, 4

; 581  : }

  00023	8b e5		 mov	 esp, ebp
  00025	5d		 pop	 ebp
  00026	c3		 ret	 0
$LN2@wndMgrSetP:

; 577  : 	}
; 578  : 
; 579  : 	UI::CWindowManager::Instance().SetPickAlways(pWin);

  00027	ff 75 fc	 push	 DWORD PTR _pWin$[ebp]
  0002a	8b 0d 00 00 00
	00		 mov	 ecx, DWORD PTR ?ms_singleton@?$CSingleton@VCWindowManager@UI@@@@0PAVCWindowManager@UI@@A ; CSingleton<UI::CWindowManager>::ms_singleton
  00030	e8 00 00 00 00	 call	 ?SetPickAlways@CWindowManager@UI@@QAEXPAVCWindow@2@@Z ; UI::CWindowManager::SetPickAlways

; 580  : 	return Py_BuildNone();

  00035	e8 00 00 00 00	 call	 ?Py_BuildNone@@YAPAU_object@@XZ ; Py_BuildNone

; 581  : }

  0003a	8b e5		 mov	 esp, ebp
  0003c	5d		 pop	 ebp
  0003d	c3		 ret	 0
?wndMgrSetPickAlways@@YAPAU_object@@PAU1@0@Z ENDP	; wndMgrSetPickAlways
_TEXT	ENDS
; Function compile flags: /Ogtp
; File C:\Users\flourine\Desktop\Xantios\client-src\Code\eterPythonLib\PythonWindowManagerModule.cpp
;	COMDAT ?wndMgrSetParent@@YAPAU_object@@PAU1@0@Z
_TEXT	SEGMENT
_pWin$ = -8						; size = 4
_pParentWin$ = -4					; size = 4
_poSelf$ = 8						; size = 4
_poArgs$ = 12						; size = 4
?wndMgrSetParent@@YAPAU_object@@PAU1@0@Z PROC		; wndMgrSetParent, COMDAT

; 555  : {

  00000	55		 push	 ebp
  00001	8b ec		 mov	 ebp, esp
  00003	83 ec 08	 sub	 esp, 8

; 556  : 	UI::CWindow * pWin;
; 557  : 	if (!PyTuple_GetWindow(poArgs, 0, &pWin))

  00006	8d 45 f8	 lea	 eax, DWORD PTR _pWin$[ebp]
  00009	50		 push	 eax
  0000a	6a 00		 push	 0
  0000c	ff 75 0c	 push	 DWORD PTR _poArgs$[ebp]
  0000f	e8 00 00 00 00	 call	 ?PyTuple_GetWindow@@YA_NPAU_object@@HPAPAVCWindow@UI@@@Z ; PyTuple_GetWindow
  00014	83 c4 0c	 add	 esp, 12			; 0000000cH
  00017	84 c0		 test	 al, al
  00019	75 0e		 jne	 SHORT $LN2@wndMgrSetP
$LN5@wndMgrSetP:

; 569  : }

  0001b	6a 00		 push	 0
  0001d	e8 00 00 00 00	 call	 ?Py_BuildException@@YAPAU_object@@PBDZZ ; Py_BuildException
  00022	83 c4 04	 add	 esp, 4
  00025	8b e5		 mov	 esp, ebp
  00027	5d		 pop	 ebp
  00028	c3		 ret	 0
$LN2@wndMgrSetP:

; 558  : 	{
; 559  : 		return Py_BuildException();
; 560  : 	}
; 561  : 	UI::CWindow * pParentWin;
; 562  : 	if (!PyTuple_GetWindow(poArgs, 1, &pParentWin))

  00029	8d 45 fc	 lea	 eax, DWORD PTR _pParentWin$[ebp]
  0002c	50		 push	 eax
  0002d	6a 01		 push	 1
  0002f	ff 75 0c	 push	 DWORD PTR _poArgs$[ebp]
  00032	e8 00 00 00 00	 call	 ?PyTuple_GetWindow@@YA_NPAU_object@@HPAPAVCWindow@UI@@@Z ; PyTuple_GetWindow
  00037	83 c4 0c	 add	 esp, 12			; 0000000cH
  0003a	84 c0		 test	 al, al
  0003c	74 dd		 je	 SHORT $LN5@wndMgrSetP

; 563  : 	{
; 564  : 		return Py_BuildException();
; 565  : 	}
; 566  : 
; 567  : 	UI::CWindowManager::Instance().SetParent(pWin, pParentWin);

  0003e	ff 75 fc	 push	 DWORD PTR _pParentWin$[ebp]
  00041	8b 0d 00 00 00
	00		 mov	 ecx, DWORD PTR ?ms_singleton@?$CSingleton@VCWindowManager@UI@@@@0PAVCWindowManager@UI@@A ; CSingleton<UI::CWindowManager>::ms_singleton
  00047	ff 75 f8	 push	 DWORD PTR _pWin$[ebp]
  0004a	e8 00 00 00 00	 call	 ?SetParent@CWindowManager@UI@@QAEXPAVCWindow@2@0@Z ; UI::CWindowManager::SetParent

; 568  : 	return Py_BuildNone();

  0004f	e8 00 00 00 00	 call	 ?Py_BuildNone@@YAPAU_object@@XZ ; Py_BuildNone

; 569  : }

  00054	8b e5		 mov	 esp, ebp
  00056	5d		 pop	 ebp
  00057	c3		 ret	 0
?wndMgrSetParent@@YAPAU_object@@PAU1@0@Z ENDP		; wndMgrSetParent
_TEXT	ENDS
; Function compile flags: /Ogtp
; File C:\Users\flourine\Desktop\Xantios\client-src\Code\eterPythonLib\PythonWindowManagerModule.cpp
;	COMDAT ?wndMgrSetScreenSize@@YAPAU_object@@PAU1@0@Z
_TEXT	SEGMENT
_width$ = -8						; size = 4
_height$ = -4						; size = 4
_poSelf$ = 8						; size = 4
_poArgs$ = 12						; size = 4
?wndMgrSetScreenSize@@YAPAU_object@@PAU1@0@Z PROC	; wndMgrSetScreenSize, COMDAT

; 538  : {

  00000	55		 push	 ebp
  00001	8b ec		 mov	 ebp, esp
  00003	83 ec 08	 sub	 esp, 8

; 539  : 	int width;
; 540  : 	if (!PyTuple_GetInteger(poArgs, 0, &width))

  00006	8d 45 f8	 lea	 eax, DWORD PTR _width$[ebp]
  00009	50		 push	 eax
  0000a	6a 00		 push	 0
  0000c	ff 75 0c	 push	 DWORD PTR _poArgs$[ebp]
  0000f	e8 00 00 00 00	 call	 ?PyTuple_GetInteger@@YA_NPAU_object@@HPAH@Z ; PyTuple_GetInteger
  00014	83 c4 0c	 add	 esp, 12			; 0000000cH
  00017	84 c0		 test	 al, al
  00019	75 0e		 jne	 SHORT $LN2@wndMgrSetS
$LN5@wndMgrSetS:

; 552  : }

  0001b	6a 00		 push	 0
  0001d	e8 00 00 00 00	 call	 ?Py_BuildException@@YAPAU_object@@PBDZZ ; Py_BuildException
  00022	83 c4 04	 add	 esp, 4
  00025	8b e5		 mov	 esp, ebp
  00027	5d		 pop	 ebp
  00028	c3		 ret	 0
$LN2@wndMgrSetS:

; 541  : 	{
; 542  : 		return Py_BuildException();
; 543  : 	}
; 544  : 	int height;
; 545  : 	if (!PyTuple_GetInteger(poArgs, 1, &height))

  00029	8d 45 fc	 lea	 eax, DWORD PTR _height$[ebp]
  0002c	50		 push	 eax
  0002d	6a 01		 push	 1
  0002f	ff 75 0c	 push	 DWORD PTR _poArgs$[ebp]
  00032	e8 00 00 00 00	 call	 ?PyTuple_GetInteger@@YA_NPAU_object@@HPAH@Z ; PyTuple_GetInteger
  00037	83 c4 0c	 add	 esp, 12			; 0000000cH
  0003a	84 c0		 test	 al, al
  0003c	74 dd		 je	 SHORT $LN5@wndMgrSetS

; 546  : 	{
; 547  : 		return Py_BuildException();
; 548  : 	}
; 549  : 
; 550  : 	UI::CWindowManager::Instance().SetScreenSize(width, height);

  0003e	ff 75 fc	 push	 DWORD PTR _height$[ebp]
  00041	8b 0d 00 00 00
	00		 mov	 ecx, DWORD PTR ?ms_singleton@?$CSingleton@VCWindowManager@UI@@@@0PAVCWindowManager@UI@@A ; CSingleton<UI::CWindowManager>::ms_singleton
  00047	ff 75 f8	 push	 DWORD PTR _width$[ebp]
  0004a	e8 00 00 00 00	 call	 ?SetScreenSize@CWindowManager@UI@@QAEXJJ@Z ; UI::CWindowManager::SetScreenSize

; 551  : 	return Py_BuildNone();

  0004f	e8 00 00 00 00	 call	 ?Py_BuildNone@@YAPAU_object@@XZ ; Py_BuildNone

; 552  : }

  00054	8b e5		 mov	 esp, ebp
  00056	5d		 pop	 ebp
  00057	c3		 ret	 0
?wndMgrSetScreenSize@@YAPAU_object@@PAU1@0@Z ENDP	; wndMgrSetScreenSize
_TEXT	ENDS
; Function compile flags: /Ogtp
; File C:\Users\flourine\Desktop\Xantios\client-src\Code\eterPythonLib\PythonWindowManagerModule.cpp
;	COMDAT ?wndMgrIsRTL@@YAPAU_object@@PAU1@0@Z
_TEXT	SEGMENT
_pWin$ = -4						; size = 4
_poSelf$ = 8						; size = 4
_poArgs$ = 12						; size = 4
?wndMgrIsRTL@@YAPAU_object@@PAU1@0@Z PROC		; wndMgrIsRTL, COMDAT

; 509  : {

  00000	55		 push	 ebp
  00001	8b ec		 mov	 ebp, esp
  00003	51		 push	 ecx

; 510  : 	UI::CWindow * pWin;
; 511  : 	if (!PyTuple_GetWindow(poArgs, 0, &pWin))

  00004	8d 45 fc	 lea	 eax, DWORD PTR _pWin$[ebp]
  00007	50		 push	 eax
  00008	6a 00		 push	 0
  0000a	ff 75 0c	 push	 DWORD PTR _poArgs$[ebp]
  0000d	e8 00 00 00 00	 call	 ?PyTuple_GetWindow@@YA_NPAU_object@@HPAPAVCWindow@UI@@@Z ; PyTuple_GetWindow
  00012	83 c4 0c	 add	 esp, 12			; 0000000cH
  00015	84 c0		 test	 al, al
  00017	75 0e		 jne	 SHORT $LN2@wndMgrIsRT

; 512  : 	{
; 513  : 		return Py_BuildException();

  00019	6a 00		 push	 0
  0001b	e8 00 00 00 00	 call	 ?Py_BuildException@@YAPAU_object@@PBDZZ ; Py_BuildException
  00020	83 c4 04	 add	 esp, 4

; 517  : }

  00023	8b e5		 mov	 esp, ebp
  00025	5d		 pop	 ebp
  00026	c3		 ret	 0
$LN2@wndMgrIsRT:

; 514  : 	}
; 515  : 
; 516  : 	return Py_BuildValue("i", pWin->IsFlag(UI::CWindow::FLAG_RTL));

  00027	8b 45 fc	 mov	 eax, DWORD PTR _pWin$[ebp]
  0002a	8b 40 78	 mov	 eax, DWORD PTR [eax+120]
  0002d	c1 e8 0b	 shr	 eax, 11			; 0000000bH
  00030	83 e0 01	 and	 eax, 1
  00033	50		 push	 eax
  00034	68 00 00 00 00	 push	 OFFSET ??_C@_01KBJDNOO@i@
  00039	ff 15 00 00 00
	00		 call	 DWORD PTR __imp__Py_BuildValue
  0003f	83 c4 08	 add	 esp, 8

; 517  : }

  00042	8b e5		 mov	 esp, ebp
  00044	5d		 pop	 ebp
  00045	c3		 ret	 0
?wndMgrIsRTL@@YAPAU_object@@PAU1@0@Z ENDP		; wndMgrIsRTL
_TEXT	ENDS
; Function compile flags: /Ogtp
; File C:\Users\flourine\Desktop\Xantios\client-src\Code\eterPythonLib\PythonWindowManagerModule.cpp
;	COMDAT ?wndMgrIsShow@@YAPAU_object@@PAU1@0@Z
_TEXT	SEGMENT
_pWin$ = -4						; size = 4
_poSelf$ = 8						; size = 4
_poArgs$ = 12						; size = 4
?wndMgrIsShow@@YAPAU_object@@PAU1@0@Z PROC		; wndMgrIsShow, COMDAT

; 498  : {

  00000	55		 push	 ebp
  00001	8b ec		 mov	 ebp, esp
  00003	51		 push	 ecx

; 499  : 	UI::CWindow * pWin;
; 500  : 	if (!PyTuple_GetWindow(poArgs, 0, &pWin))

  00004	8d 45 fc	 lea	 eax, DWORD PTR _pWin$[ebp]
  00007	50		 push	 eax
  00008	6a 00		 push	 0
  0000a	ff 75 0c	 push	 DWORD PTR _poArgs$[ebp]
  0000d	e8 00 00 00 00	 call	 ?PyTuple_GetWindow@@YA_NPAU_object@@HPAPAVCWindow@UI@@@Z ; PyTuple_GetWindow
  00012	83 c4 0c	 add	 esp, 12			; 0000000cH
  00015	84 c0		 test	 al, al
  00017	75 0e		 jne	 SHORT $LN2@wndMgrIsSh

; 501  : 	{
; 502  : 		return Py_BuildException();

  00019	6a 00		 push	 0
  0001b	e8 00 00 00 00	 call	 ?Py_BuildException@@YAPAU_object@@PBDZZ ; Py_BuildException
  00020	83 c4 04	 add	 esp, 4

; 506  : }

  00023	8b e5		 mov	 esp, ebp
  00025	5d		 pop	 ebp
  00026	c3		 ret	 0
$LN2@wndMgrIsSh:

; 503  : 	}
; 504  : 
; 505  : 	return Py_BuildValue("i", pWin->IsShow());

  00027	8b 4d fc	 mov	 ecx, DWORD PTR _pWin$[ebp]
  0002a	8b 01		 mov	 eax, DWORD PTR [ecx]
  0002c	8b 40 04	 mov	 eax, DWORD PTR [eax+4]
  0002f	ff d0		 call	 eax
  00031	0f b6 c0	 movzx	 eax, al
  00034	50		 push	 eax
  00035	68 00 00 00 00	 push	 OFFSET ??_C@_01KBJDNOO@i@
  0003a	ff 15 00 00 00
	00		 call	 DWORD PTR __imp__Py_BuildValue
  00040	83 c4 08	 add	 esp, 8

; 506  : }

  00043	8b e5		 mov	 esp, ebp
  00045	5d		 pop	 ebp
  00046	c3		 ret	 0
?wndMgrIsShow@@YAPAU_object@@PAU1@0@Z ENDP		; wndMgrIsShow
_TEXT	ENDS
; Function compile flags: /Ogtp
; File C:\Users\flourine\Desktop\Xantios\client-src\Code\eterPythonLib\PythonWindowManagerModule.cpp
;	COMDAT ?wndMgrHide@@YAPAU_object@@PAU1@0@Z
_TEXT	SEGMENT
_pWin$ = -4						; size = 4
_poSelf$ = 8						; size = 4
_poArgs$ = 12						; size = 4
?wndMgrHide@@YAPAU_object@@PAU1@0@Z PROC		; wndMgrHide, COMDAT

; 486  : {

  00000	55		 push	 ebp
  00001	8b ec		 mov	 ebp, esp
  00003	51		 push	 ecx

; 487  : 	UI::CWindow * pWin;
; 488  : 	if (!PyTuple_GetWindow(poArgs, 0, &pWin))

  00004	8d 45 fc	 lea	 eax, DWORD PTR _pWin$[ebp]
  00007	50		 push	 eax
  00008	6a 00		 push	 0
  0000a	ff 75 0c	 push	 DWORD PTR _poArgs$[ebp]
  0000d	e8 00 00 00 00	 call	 ?PyTuple_GetWindow@@YA_NPAU_object@@HPAPAVCWindow@UI@@@Z ; PyTuple_GetWindow
  00012	83 c4 0c	 add	 esp, 12			; 0000000cH
  00015	84 c0		 test	 al, al
  00017	75 0e		 jne	 SHORT $LN2@wndMgrHide

; 489  : 	{
; 490  : 		return Py_BuildException();

  00019	6a 00		 push	 0
  0001b	e8 00 00 00 00	 call	 ?Py_BuildException@@YAPAU_object@@PBDZZ ; Py_BuildException
  00020	83 c4 04	 add	 esp, 4

; 495  : }

  00023	8b e5		 mov	 esp, ebp
  00025	5d		 pop	 ebp
  00026	c3		 ret	 0
$LN2@wndMgrHide:

; 491  : 	}
; 492  : 
; 493  : 	pWin->Hide();

  00027	8b 4d fc	 mov	 ecx, DWORD PTR _pWin$[ebp]
  0002a	e8 00 00 00 00	 call	 ?Hide@CWindow@UI@@QAEXXZ ; UI::CWindow::Hide

; 494  : 	return Py_BuildNone();

  0002f	e8 00 00 00 00	 call	 ?Py_BuildNone@@YAPAU_object@@XZ ; Py_BuildNone

; 495  : }

  00034	8b e5		 mov	 esp, ebp
  00036	5d		 pop	 ebp
  00037	c3		 ret	 0
?wndMgrHide@@YAPAU_object@@PAU1@0@Z ENDP		; wndMgrHide
_TEXT	ENDS
; Function compile flags: /Ogtp
; File C:\Users\flourine\Desktop\Xantios\client-src\Code\eterPythonLib\PythonWindowManagerModule.cpp
;	COMDAT ?wndMgrShow@@YAPAU_object@@PAU1@0@Z
_TEXT	SEGMENT
_pWin$ = -4						; size = 4
_poSelf$ = 8						; size = 4
_poArgs$ = 12						; size = 4
?wndMgrShow@@YAPAU_object@@PAU1@0@Z PROC		; wndMgrShow, COMDAT

; 474  : {

  00000	55		 push	 ebp
  00001	8b ec		 mov	 ebp, esp
  00003	51		 push	 ecx

; 475  : 	UI::CWindow * pWin;
; 476  : 	if (!PyTuple_GetWindow(poArgs, 0, &pWin))

  00004	8d 45 fc	 lea	 eax, DWORD PTR _pWin$[ebp]
  00007	50		 push	 eax
  00008	6a 00		 push	 0
  0000a	ff 75 0c	 push	 DWORD PTR _poArgs$[ebp]
  0000d	e8 00 00 00 00	 call	 ?PyTuple_GetWindow@@YA_NPAU_object@@HPAPAVCWindow@UI@@@Z ; PyTuple_GetWindow
  00012	83 c4 0c	 add	 esp, 12			; 0000000cH
  00015	84 c0		 test	 al, al
  00017	75 0e		 jne	 SHORT $LN2@wndMgrShow

; 477  : 	{
; 478  : 		return Py_BuildException();

  00019	6a 00		 push	 0
  0001b	e8 00 00 00 00	 call	 ?Py_BuildException@@YAPAU_object@@PBDZZ ; Py_BuildException
  00020	83 c4 04	 add	 esp, 4

; 483  : }

  00023	8b e5		 mov	 esp, ebp
  00025	5d		 pop	 ebp
  00026	c3		 ret	 0
$LN2@wndMgrShow:

; 479  : 	}
; 480  : 
; 481  : 	pWin->Show();

  00027	8b 4d fc	 mov	 ecx, DWORD PTR _pWin$[ebp]
  0002a	e8 00 00 00 00	 call	 ?Show@CWindow@UI@@QAEXXZ ; UI::CWindow::Show

; 482  : 	return Py_BuildNone();

  0002f	e8 00 00 00 00	 call	 ?Py_BuildNone@@YAPAU_object@@XZ ; Py_BuildNone

; 483  : }

  00034	8b e5		 mov	 esp, ebp
  00036	5d		 pop	 ebp
  00037	c3		 ret	 0
?wndMgrShow@@YAPAU_object@@PAU1@0@Z ENDP		; wndMgrShow
_TEXT	ENDS
; Function compile flags: /Ogtp
; File C:\Users\flourine\Desktop\Xantios\client-src\Code\eterPythonLib\PythonWindowManagerModule.cpp
;	COMDAT ?wndMgrIsTop@@YAPAU_object@@PAU1@0@Z
_TEXT	SEGMENT
_pWin$ = -4						; size = 4
_poSelf$ = 8						; size = 4
_poArgs$ = 12						; size = 4
?wndMgrIsTop@@YAPAU_object@@PAU1@0@Z PROC		; wndMgrIsTop, COMDAT

; 462  : {

  00000	55		 push	 ebp
  00001	8b ec		 mov	 ebp, esp
  00003	51		 push	 ecx

; 463  : 	UI::CWindow* pWin;
; 464  : 	if (!PyTuple_GetWindow(poArgs, 0, &pWin))

  00004	8d 45 fc	 lea	 eax, DWORD PTR _pWin$[ebp]
  00007	50		 push	 eax
  00008	6a 00		 push	 0
  0000a	ff 75 0c	 push	 DWORD PTR _poArgs$[ebp]
  0000d	e8 00 00 00 00	 call	 ?PyTuple_GetWindow@@YA_NPAU_object@@HPAPAVCWindow@UI@@@Z ; PyTuple_GetWindow
  00012	83 c4 0c	 add	 esp, 12			; 0000000cH
  00015	84 c0		 test	 al, al
  00017	75 09		 jne	 SHORT $LN2@wndMgrIsTo

; 465  : 	{
; 466  : 		return Py_BadArgument();

  00019	e8 00 00 00 00	 call	 ?Py_BadArgument@@YAPAU_object@@XZ ; Py_BadArgument

; 471  : }

  0001e	8b e5		 mov	 esp, ebp
  00020	5d		 pop	 ebp
  00021	c3		 ret	 0
$LN2@wndMgrIsTo:

; 467  : 	}
; 468  : 
; 469  : 	bool isTop = UI::CWindowManager::Instance().IsTop(pWin);

  00022	ff 75 fc	 push	 DWORD PTR _pWin$[ebp]
  00025	8b 0d 00 00 00
	00		 mov	 ecx, DWORD PTR ?ms_singleton@?$CSingleton@VCWindowManager@UI@@@@0PAVCWindowManager@UI@@A ; CSingleton<UI::CWindowManager>::ms_singleton
  0002b	e8 00 00 00 00	 call	 ?IsTop@CWindowManager@UI@@QAE_NPAVCWindow@2@@Z ; UI::CWindowManager::IsTop

; 470  : 	return Py_BuildValue("b", isTop);

  00030	0f b6 c0	 movzx	 eax, al
  00033	50		 push	 eax
  00034	68 00 00 00 00	 push	 OFFSET ??_C@_01OJONOECF@b@
  00039	ff 15 00 00 00
	00		 call	 DWORD PTR __imp__Py_BuildValue
  0003f	83 c4 08	 add	 esp, 8

; 471  : }

  00042	8b e5		 mov	 esp, ebp
  00044	5d		 pop	 ebp
  00045	c3		 ret	 0
?wndMgrIsTop@@YAPAU_object@@PAU1@0@Z ENDP		; wndMgrIsTop
_TEXT	ENDS
; Function compile flags: /Ogtp
; File C:\Users\flourine\Desktop\Xantios\client-src\Code\eterPythonLib\PythonWindowManagerModule.cpp
;	COMDAT ?wndMgrSetTop@@YAPAU_object@@PAU1@0@Z
_TEXT	SEGMENT
_pWin$ = -4						; size = 4
_poSelf$ = 8						; size = 4
_poArgs$ = 12						; size = 4
?wndMgrSetTop@@YAPAU_object@@PAU1@0@Z PROC		; wndMgrSetTop, COMDAT

; 450  : {

  00000	55		 push	 ebp
  00001	8b ec		 mov	 ebp, esp
  00003	51		 push	 ecx

; 451  : 	UI::CWindow * pWin;
; 452  : 	if (!PyTuple_GetWindow(poArgs, 0, &pWin))

  00004	8d 45 fc	 lea	 eax, DWORD PTR _pWin$[ebp]
  00007	50		 push	 eax
  00008	6a 00		 push	 0
  0000a	ff 75 0c	 push	 DWORD PTR _poArgs$[ebp]
  0000d	e8 00 00 00 00	 call	 ?PyTuple_GetWindow@@YA_NPAU_object@@HPAPAVCWindow@UI@@@Z ; PyTuple_GetWindow
  00012	83 c4 0c	 add	 esp, 12			; 0000000cH
  00015	84 c0		 test	 al, al
  00017	75 0e		 jne	 SHORT $LN2@wndMgrSetT

; 453  : 	{
; 454  : 		return Py_BuildException();

  00019	6a 00		 push	 0
  0001b	e8 00 00 00 00	 call	 ?Py_BuildException@@YAPAU_object@@PBDZZ ; Py_BuildException
  00020	83 c4 04	 add	 esp, 4

; 459  : }

  00023	8b e5		 mov	 esp, ebp
  00025	5d		 pop	 ebp
  00026	c3		 ret	 0
$LN2@wndMgrSetT:

; 455  : 	}
; 456  : 
; 457  : 	UI::CWindowManager::Instance().SetTop(pWin);

  00027	ff 75 fc	 push	 DWORD PTR _pWin$[ebp]
  0002a	8b 0d 00 00 00
	00		 mov	 ecx, DWORD PTR ?ms_singleton@?$CSingleton@VCWindowManager@UI@@@@0PAVCWindowManager@UI@@A ; CSingleton<UI::CWindowManager>::ms_singleton
  00030	e8 00 00 00 00	 call	 ?SetTop@CWindowManager@UI@@QAEXPAVCWindow@2@@Z ; UI::CWindowManager::SetTop

; 458  : 	return Py_BuildNone();

  00035	e8 00 00 00 00	 call	 ?Py_BuildNone@@YAPAU_object@@XZ ; Py_BuildNone

; 459  : }

  0003a	8b e5		 mov	 esp, ebp
  0003c	5d		 pop	 ebp
  0003d	c3		 ret	 0
?wndMgrSetTop@@YAPAU_object@@PAU1@0@Z ENDP		; wndMgrSetTop
_TEXT	ENDS
; Function compile flags: /Ogtp
; File C:\Users\flourine\Desktop\Xantios\client-src\Code\eterPythonLib\PythonWindowManagerModule.cpp
;	COMDAT ?wndMgrSetName@@YAPAU_object@@PAU1@0@Z
_TEXT	SEGMENT
_pWin$ = -8						; size = 4
_szName$ = -4						; size = 4
_poSelf$ = 8						; size = 4
_poArgs$ = 12						; size = 4
?wndMgrSetName@@YAPAU_object@@PAU1@0@Z PROC		; wndMgrSetName, COMDAT

; 433  : {

  00000	55		 push	 ebp
  00001	8b ec		 mov	 ebp, esp
  00003	83 ec 08	 sub	 esp, 8

; 434  : 	UI::CWindow * pWin;
; 435  : 	if (!PyTuple_GetWindow(poArgs, 0, &pWin))

  00006	8d 45 f8	 lea	 eax, DWORD PTR _pWin$[ebp]
  00009	50		 push	 eax
  0000a	6a 00		 push	 0
  0000c	ff 75 0c	 push	 DWORD PTR _poArgs$[ebp]
  0000f	e8 00 00 00 00	 call	 ?PyTuple_GetWindow@@YA_NPAU_object@@HPAPAVCWindow@UI@@@Z ; PyTuple_GetWindow
  00014	83 c4 0c	 add	 esp, 12			; 0000000cH
  00017	84 c0		 test	 al, al
  00019	75 0e		 jne	 SHORT $LN2@wndMgrSetN
$LN5@wndMgrSetN:

; 447  : }

  0001b	6a 00		 push	 0
  0001d	e8 00 00 00 00	 call	 ?Py_BuildException@@YAPAU_object@@PBDZZ ; Py_BuildException
  00022	83 c4 04	 add	 esp, 4
  00025	8b e5		 mov	 esp, ebp
  00027	5d		 pop	 ebp
  00028	c3		 ret	 0
$LN2@wndMgrSetN:

; 436  : 	{
; 437  : 		return Py_BuildException();
; 438  : 	}
; 439  : 	char * szName;
; 440  : 	if (!PyTuple_GetString(poArgs, 1, &szName))

  00029	8d 45 fc	 lea	 eax, DWORD PTR _szName$[ebp]
  0002c	50		 push	 eax
  0002d	6a 01		 push	 1
  0002f	ff 75 0c	 push	 DWORD PTR _poArgs$[ebp]
  00032	e8 00 00 00 00	 call	 ?PyTuple_GetString@@YA_NPAU_object@@HPAPAD@Z ; PyTuple_GetString
  00037	83 c4 0c	 add	 esp, 12			; 0000000cH
  0003a	84 c0		 test	 al, al
  0003c	74 dd		 je	 SHORT $LN5@wndMgrSetN

; 441  : 	{
; 442  : 		return Py_BuildException();
; 443  : 	}
; 444  : 
; 445  : 	pWin->SetName(szName);

  0003e	ff 75 fc	 push	 DWORD PTR _szName$[ebp]
  00041	8b 4d f8	 mov	 ecx, DWORD PTR _pWin$[ebp]
  00044	e8 00 00 00 00	 call	 ?SetName@CWindow@UI@@QAEXPBD@Z ; UI::CWindow::SetName

; 446  : 	return Py_BuildNone();

  00049	e8 00 00 00 00	 call	 ?Py_BuildNone@@YAPAU_object@@XZ ; Py_BuildNone

; 447  : }

  0004e	8b e5		 mov	 esp, ebp
  00050	5d		 pop	 ebp
  00051	c3		 ret	 0
?wndMgrSetName@@YAPAU_object@@PAU1@0@Z ENDP		; wndMgrSetName
_TEXT	ENDS
; Function compile flags: /Ogtp
; File C:\Users\flourine\Desktop\Xantios\client-src\Code\eterPythonLib\PythonWindowManagerModule.cpp
;	COMDAT ?wndMgrUnlock@@YAPAU_object@@PAU1@0@Z
_TEXT	SEGMENT
_poSelf$ = 8						; size = 4
_poArgs$ = 12						; size = 4
?wndMgrUnlock@@YAPAU_object@@PAU1@0@Z PROC		; wndMgrUnlock, COMDAT

; 428  : 	UI::CWindowManager::Instance().UnlockWindow();

  00000	8b 0d 00 00 00
	00		 mov	 ecx, DWORD PTR ?ms_singleton@?$CSingleton@VCWindowManager@UI@@@@0PAVCWindowManager@UI@@A ; CSingleton<UI::CWindowManager>::ms_singleton
  00006	e8 00 00 00 00	 call	 ?UnlockWindow@CWindowManager@UI@@QAEXXZ ; UI::CWindowManager::UnlockWindow

; 429  : 	return Py_BuildNone();

  0000b	e9 00 00 00 00	 jmp	 ?Py_BuildNone@@YAPAU_object@@XZ ; Py_BuildNone
?wndMgrUnlock@@YAPAU_object@@PAU1@0@Z ENDP		; wndMgrUnlock
_TEXT	ENDS
; Function compile flags: /Ogtp
; File C:\Users\flourine\Desktop\Xantios\client-src\Code\eterPythonLib\PythonWindowManagerModule.cpp
;	COMDAT ?wndMgrLock@@YAPAU_object@@PAU1@0@Z
_TEXT	SEGMENT
_pWin$ = -4						; size = 4
_poSelf$ = 8						; size = 4
_poArgs$ = 12						; size = 4
?wndMgrLock@@YAPAU_object@@PAU1@0@Z PROC		; wndMgrLock, COMDAT

; 415  : {

  00000	55		 push	 ebp
  00001	8b ec		 mov	 ebp, esp
  00003	51		 push	 ecx

; 416  : 	UI::CWindow * pWin;
; 417  : 	if (!PyTuple_GetWindow(poArgs, 0, &pWin))

  00004	8d 45 fc	 lea	 eax, DWORD PTR _pWin$[ebp]
  00007	50		 push	 eax
  00008	6a 00		 push	 0
  0000a	ff 75 0c	 push	 DWORD PTR _poArgs$[ebp]
  0000d	e8 00 00 00 00	 call	 ?PyTuple_GetWindow@@YA_NPAU_object@@HPAPAVCWindow@UI@@@Z ; PyTuple_GetWindow
  00012	83 c4 0c	 add	 esp, 12			; 0000000cH
  00015	84 c0		 test	 al, al
  00017	75 0e		 jne	 SHORT $LN2@wndMgrLock

; 418  : 	{
; 419  : 		return Py_BuildException();

  00019	6a 00		 push	 0
  0001b	e8 00 00 00 00	 call	 ?Py_BuildException@@YAPAU_object@@PBDZZ ; Py_BuildException
  00020	83 c4 04	 add	 esp, 4

; 424  : }

  00023	8b e5		 mov	 esp, ebp
  00025	5d		 pop	 ebp
  00026	c3		 ret	 0
$LN2@wndMgrLock:

; 420  : 	}
; 421  : 
; 422  : 	UI::CWindowManager::Instance().LockWindow(pWin);

  00027	ff 75 fc	 push	 DWORD PTR _pWin$[ebp]
  0002a	8b 0d 00 00 00
	00		 mov	 ecx, DWORD PTR ?ms_singleton@?$CSingleton@VCWindowManager@UI@@@@0PAVCWindowManager@UI@@A ; CSingleton<UI::CWindowManager>::ms_singleton
  00030	e8 00 00 00 00	 call	 ?LockWindow@CWindowManager@UI@@QAEXPAVCWindow@2@@Z ; UI::CWindowManager::LockWindow

; 423  : 	return Py_BuildNone();

  00035	e8 00 00 00 00	 call	 ?Py_BuildNone@@YAPAU_object@@XZ ; Py_BuildNone

; 424  : }

  0003a	8b e5		 mov	 esp, ebp
  0003c	5d		 pop	 ebp
  0003d	c3		 ret	 0
?wndMgrLock@@YAPAU_object@@PAU1@0@Z ENDP		; wndMgrLock
_TEXT	ENDS
; Function compile flags: /Ogtp
; File C:\Users\flourine\Desktop\Xantios\client-src\Code\eterPythonLib\PythonWindowManagerModule.cpp
;	COMDAT ?wndMgrKillFocus@@YAPAU_object@@PAU1@0@Z
_TEXT	SEGMENT
_pWin$ = -4						; size = 4
_poSelf$ = 8						; size = 4
_poArgs$ = 12						; size = 4
?wndMgrKillFocus@@YAPAU_object@@PAU1@0@Z PROC		; wndMgrKillFocus, COMDAT

; 397  : {

  00000	55		 push	 ebp
  00001	8b ec		 mov	 ebp, esp
  00003	51		 push	 ecx

; 398  : 	UI::CWindow * pWin;
; 399  : 	if (PyTuple_GetWindow(poArgs, 0, &pWin))

  00004	8d 45 fc	 lea	 eax, DWORD PTR _pWin$[ebp]
  00007	50		 push	 eax
  00008	6a 00		 push	 0
  0000a	ff 75 0c	 push	 DWORD PTR _poArgs$[ebp]
  0000d	e8 00 00 00 00	 call	 ?PyTuple_GetWindow@@YA_NPAU_object@@HPAPAVCWindow@UI@@@Z ; PyTuple_GetWindow
  00012	8b 0d 00 00 00
	00		 mov	 ecx, DWORD PTR ?ms_singleton@?$CSingleton@VCWindowManager@UI@@@@0PAVCWindowManager@UI@@A ; CSingleton<UI::CWindowManager>::ms_singleton
  00018	83 c4 0c	 add	 esp, 12			; 0000000cH
  0001b	84 c0		 test	 al, al
  0001d	74 10		 je	 SHORT $LN2@wndMgrKill

; 400  : 	{
; 401  : 		if (pWin == UI::CWindowManager::Instance().GetActivateWindow())

  0001f	e8 00 00 00 00	 call	 ?GetActivateWindow@CWindowManager@UI@@QAEPAVCWindow@2@XZ ; UI::CWindowManager::GetActivateWindow
  00024	39 45 fc	 cmp	 DWORD PTR _pWin$[ebp], eax
  00027	75 0b		 jne	 SHORT $LN3@wndMgrKill

; 402  : 		{
; 403  : 			UI::CWindowManager::Instance().DeactivateWindow();

  00029	8b 0d 00 00 00
	00		 mov	 ecx, DWORD PTR ?ms_singleton@?$CSingleton@VCWindowManager@UI@@@@0PAVCWindowManager@UI@@A ; CSingleton<UI::CWindowManager>::ms_singleton
$LN2@wndMgrKill:

; 404  : 		}
; 405  : 	}
; 406  : 	else
; 407  : 	{
; 408  : 		UI::CWindowManager::Instance().DeactivateWindow();
; 409  : 	}
; 410  : 
; 411  : 	return Py_BuildNone();

  0002f	e8 00 00 00 00	 call	 ?DeactivateWindow@CWindowManager@UI@@QAEXXZ ; UI::CWindowManager::DeactivateWindow
$LN3@wndMgrKill:
  00034	e8 00 00 00 00	 call	 ?Py_BuildNone@@YAPAU_object@@XZ ; Py_BuildNone

; 412  : }

  00039	8b e5		 mov	 esp, ebp
  0003b	5d		 pop	 ebp
  0003c	c3		 ret	 0
?wndMgrKillFocus@@YAPAU_object@@PAU1@0@Z ENDP		; wndMgrKillFocus
_TEXT	ENDS
; Function compile flags: /Ogtp
; File C:\Users\flourine\Desktop\Xantios\client-src\Code\eterPythonLib\PythonWindowManagerModule.cpp
;	COMDAT ?wndMgrSetFocus@@YAPAU_object@@PAU1@0@Z
_TEXT	SEGMENT
_pWin$ = -4						; size = 4
_poSelf$ = 8						; size = 4
_poArgs$ = 12						; size = 4
?wndMgrSetFocus@@YAPAU_object@@PAU1@0@Z PROC		; wndMgrSetFocus, COMDAT

; 385  : {

  00000	55		 push	 ebp
  00001	8b ec		 mov	 ebp, esp
  00003	51		 push	 ecx

; 386  : 	UI::CWindow * pWin;
; 387  : 	if (!PyTuple_GetWindow(poArgs, 0, &pWin))

  00004	8d 45 fc	 lea	 eax, DWORD PTR _pWin$[ebp]
  00007	50		 push	 eax
  00008	6a 00		 push	 0
  0000a	ff 75 0c	 push	 DWORD PTR _poArgs$[ebp]
  0000d	e8 00 00 00 00	 call	 ?PyTuple_GetWindow@@YA_NPAU_object@@HPAPAVCWindow@UI@@@Z ; PyTuple_GetWindow
  00012	83 c4 0c	 add	 esp, 12			; 0000000cH
  00015	84 c0		 test	 al, al
  00017	75 0e		 jne	 SHORT $LN2@wndMgrSetF

; 388  : 	{
; 389  : 		return Py_BuildException();

  00019	6a 00		 push	 0
  0001b	e8 00 00 00 00	 call	 ?Py_BuildException@@YAPAU_object@@PBDZZ ; Py_BuildException
  00020	83 c4 04	 add	 esp, 4

; 394  : }

  00023	8b e5		 mov	 esp, ebp
  00025	5d		 pop	 ebp
  00026	c3		 ret	 0
$LN2@wndMgrSetF:

; 390  : 	}
; 391  : 
; 392  : 	UI::CWindowManager::Instance().ActivateWindow(pWin);

  00027	ff 75 fc	 push	 DWORD PTR _pWin$[ebp]
  0002a	8b 0d 00 00 00
	00		 mov	 ecx, DWORD PTR ?ms_singleton@?$CSingleton@VCWindowManager@UI@@@@0PAVCWindowManager@UI@@A ; CSingleton<UI::CWindowManager>::ms_singleton
  00030	e8 00 00 00 00	 call	 ?ActivateWindow@CWindowManager@UI@@QAEXPAVCWindow@2@@Z ; UI::CWindowManager::ActivateWindow

; 393  : 	return Py_BuildNone();

  00035	e8 00 00 00 00	 call	 ?Py_BuildNone@@YAPAU_object@@XZ ; Py_BuildNone

; 394  : }

  0003a	8b e5		 mov	 esp, ebp
  0003c	5d		 pop	 ebp
  0003d	c3		 ret	 0
?wndMgrSetFocus@@YAPAU_object@@PAU1@0@Z ENDP		; wndMgrSetFocus
_TEXT	ENDS
; Function compile flags: /Ogtp
; File C:\Users\flourine\Desktop\Xantios\client-src\Code\eterPythonLib\PythonWindowManagerModule.cpp
;	COMDAT ?wndMgrIsFocus@@YAPAU_object@@PAU1@0@Z
_TEXT	SEGMENT
_pWindow$ = -4						; size = 4
_poSelf$ = 8						; size = 4
_poArgs$ = 12						; size = 4
?wndMgrIsFocus@@YAPAU_object@@PAU1@0@Z PROC		; wndMgrIsFocus, COMDAT

; 374  : {

  00000	55		 push	 ebp
  00001	8b ec		 mov	 ebp, esp
  00003	51		 push	 ecx

; 375  : 	UI::CWindow * pWindow;
; 376  : 	if (!PyTuple_GetWindow(poArgs, 0, &pWindow))

  00004	8d 45 fc	 lea	 eax, DWORD PTR _pWindow$[ebp]
  00007	50		 push	 eax
  00008	6a 00		 push	 0
  0000a	ff 75 0c	 push	 DWORD PTR _poArgs$[ebp]
  0000d	e8 00 00 00 00	 call	 ?PyTuple_GetWindow@@YA_NPAU_object@@HPAPAVCWindow@UI@@@Z ; PyTuple_GetWindow
  00012	83 c4 0c	 add	 esp, 12			; 0000000cH
  00015	84 c0		 test	 al, al
  00017	75 0e		 jne	 SHORT $LN2@wndMgrIsFo

; 377  : 	{
; 378  : 		return Py_BuildException();

  00019	6a 00		 push	 0
  0001b	e8 00 00 00 00	 call	 ?Py_BuildException@@YAPAU_object@@PBDZZ ; Py_BuildException
  00020	83 c4 04	 add	 esp, 4

; 382  : }

  00023	8b e5		 mov	 esp, ebp
  00025	5d		 pop	 ebp
  00026	c3		 ret	 0
$LN2@wndMgrIsFo:

; 379  : 	}
; 380  : 
; 381  : 	return Py_BuildValue("i", pWindow == UI::CWindowManager::Instance().GetActivateWindow());

  00027	8b 0d 00 00 00
	00		 mov	 ecx, DWORD PTR ?ms_singleton@?$CSingleton@VCWindowManager@UI@@@@0PAVCWindowManager@UI@@A ; CSingleton<UI::CWindowManager>::ms_singleton
  0002d	e8 00 00 00 00	 call	 ?GetActivateWindow@CWindowManager@UI@@QAEPAVCWindow@2@XZ ; UI::CWindowManager::GetActivateWindow
  00032	33 c9		 xor	 ecx, ecx
  00034	39 45 fc	 cmp	 DWORD PTR _pWindow$[ebp], eax
  00037	0f 94 c1	 sete	 cl
  0003a	51		 push	 ecx
  0003b	68 00 00 00 00	 push	 OFFSET ??_C@_01KBJDNOO@i@
  00040	ff 15 00 00 00
	00		 call	 DWORD PTR __imp__Py_BuildValue
  00046	83 c4 08	 add	 esp, 8

; 382  : }

  00049	8b e5		 mov	 esp, ebp
  0004b	5d		 pop	 ebp
  0004c	c3		 ret	 0
?wndMgrIsFocus@@YAPAU_object@@PAU1@0@Z ENDP		; wndMgrIsFocus
_TEXT	ENDS
; Function compile flags: /Ogtp
; File C:\Users\flourine\Desktop\Xantios\client-src\Code\eterPythonLib\PythonWindowManagerModule.cpp
;	COMDAT ?wndMgrDestroy@@YAPAU_object@@PAU1@0@Z
_TEXT	SEGMENT
_pWin$ = -4						; size = 4
_poSelf$ = 8						; size = 4
_poArgs$ = 12						; size = 4
?wndMgrDestroy@@YAPAU_object@@PAU1@0@Z PROC		; wndMgrDestroy, COMDAT

; 362  : {

  00000	55		 push	 ebp
  00001	8b ec		 mov	 ebp, esp
  00003	51		 push	 ecx

; 363  : 	UI::CWindow * pWin;
; 364  : 	if (!PyTuple_GetWindow(poArgs, 0, &pWin))

  00004	8d 45 fc	 lea	 eax, DWORD PTR _pWin$[ebp]
  00007	50		 push	 eax
  00008	6a 00		 push	 0
  0000a	ff 75 0c	 push	 DWORD PTR _poArgs$[ebp]
  0000d	e8 00 00 00 00	 call	 ?PyTuple_GetWindow@@YA_NPAU_object@@HPAPAVCWindow@UI@@@Z ; PyTuple_GetWindow
  00012	83 c4 0c	 add	 esp, 12			; 0000000cH
  00015	84 c0		 test	 al, al
  00017	75 0e		 jne	 SHORT $LN2@wndMgrDest

; 365  : 	{
; 366  : 		return Py_BuildException();

  00019	6a 00		 push	 0
  0001b	e8 00 00 00 00	 call	 ?Py_BuildException@@YAPAU_object@@PBDZZ ; Py_BuildException
  00020	83 c4 04	 add	 esp, 4

; 371  : }

  00023	8b e5		 mov	 esp, ebp
  00025	5d		 pop	 ebp
  00026	c3		 ret	 0
$LN2@wndMgrDest:

; 367  : 	}
; 368  : 
; 369  : 	UI::CWindowManager::Instance().DestroyWindow(pWin);

  00027	ff 75 fc	 push	 DWORD PTR _pWin$[ebp]
  0002a	8b 0d 00 00 00
	00		 mov	 ecx, DWORD PTR ?ms_singleton@?$CSingleton@VCWindowManager@UI@@@@0PAVCWindowManager@UI@@A ; CSingleton<UI::CWindowManager>::ms_singleton
  00030	e8 00 00 00 00	 call	 ?DestroyWindow@CWindowManager@UI@@QAEXPAVCWindow@2@@Z ; UI::CWindowManager::DestroyWindow

; 370  : 	return Py_BuildNone();

  00035	e8 00 00 00 00	 call	 ?Py_BuildNone@@YAPAU_object@@XZ ; Py_BuildNone

; 371  : }

  0003a	8b e5		 mov	 esp, ebp
  0003c	5d		 pop	 ebp
  0003d	c3		 ret	 0
?wndMgrDestroy@@YAPAU_object@@PAU1@0@Z ENDP		; wndMgrDestroy
_TEXT	ENDS
; Function compile flags: /Ogtp
; File C:\Users\flourine\Desktop\Xantios\client-src\Code\eterPythonLib\PythonWindowManagerModule.cpp
;	COMDAT ?wndMgrRegisterNumberLine@@YAPAU_object@@PAU1@0@Z
_TEXT	SEGMENT
_po$ = -8						; size = 4
_szLayer$ = -4						; size = 4
_poSelf$ = 8						; size = 4
_poArgs$ = 12						; size = 4
?wndMgrRegisterNumberLine@@YAPAU_object@@PAU1@0@Z PROC	; wndMgrRegisterNumberLine, COMDAT

; 343  : {

  00000	55		 push	 ebp
  00001	8b ec		 mov	 ebp, esp
  00003	83 ec 08	 sub	 esp, 8

; 344  : 	PyObject * po;
; 345  : 	if (!PyTuple_GetObject(poArgs, 0, &po))

  00006	8d 45 f8	 lea	 eax, DWORD PTR _po$[ebp]
  00009	50		 push	 eax
  0000a	6a 00		 push	 0
  0000c	ff 75 0c	 push	 DWORD PTR _poArgs$[ebp]
  0000f	e8 00 00 00 00	 call	 ?PyTuple_GetObject@@YA_NPAU_object@@HPAPAU1@@Z ; PyTuple_GetObject
  00014	83 c4 0c	 add	 esp, 12			; 0000000cH
  00017	84 c0		 test	 al, al
  00019	75 0e		 jne	 SHORT $LN2@wndMgrRegi
$LN5@wndMgrRegi:

; 357  : }

  0001b	6a 00		 push	 0
  0001d	e8 00 00 00 00	 call	 ?Py_BuildException@@YAPAU_object@@PBDZZ ; Py_BuildException
  00022	83 c4 04	 add	 esp, 4
  00025	8b e5		 mov	 esp, ebp
  00027	5d		 pop	 ebp
  00028	c3		 ret	 0
$LN2@wndMgrRegi:

; 346  : 	{
; 347  : 		return Py_BuildException();
; 348  : 	}
; 349  : 	char * szLayer;
; 350  : 	if (!PyTuple_GetString(poArgs, 1, &szLayer))

  00029	8d 45 fc	 lea	 eax, DWORD PTR _szLayer$[ebp]
  0002c	50		 push	 eax
  0002d	6a 01		 push	 1
  0002f	ff 75 0c	 push	 DWORD PTR _poArgs$[ebp]
  00032	e8 00 00 00 00	 call	 ?PyTuple_GetString@@YA_NPAU_object@@HPAPAD@Z ; PyTuple_GetString
  00037	83 c4 0c	 add	 esp, 12			; 0000000cH
  0003a	84 c0		 test	 al, al
  0003c	74 dd		 je	 SHORT $LN5@wndMgrRegi

; 351  : 	{
; 352  : 		return Py_BuildException();
; 353  : 	}
; 354  : 
; 355  : 	UI::CWindow * pWindow = UI::CWindowManager::Instance().RegisterNumberLine(po, szLayer);

  0003e	ff 75 fc	 push	 DWORD PTR _szLayer$[ebp]
  00041	8b 0d 00 00 00
	00		 mov	 ecx, DWORD PTR ?ms_singleton@?$CSingleton@VCWindowManager@UI@@@@0PAVCWindowManager@UI@@A ; CSingleton<UI::CWindowManager>::ms_singleton
  00047	ff 75 f8	 push	 DWORD PTR _po$[ebp]
  0004a	e8 00 00 00 00	 call	 ?RegisterNumberLine@CWindowManager@UI@@QAEPAVCWindow@2@PAU_object@@PBD@Z ; UI::CWindowManager::RegisterNumberLine

; 356  : 	return Py_BuildValue("i", pWindow);

  0004f	50		 push	 eax
  00050	68 00 00 00 00	 push	 OFFSET ??_C@_01KBJDNOO@i@
  00055	ff 15 00 00 00
	00		 call	 DWORD PTR __imp__Py_BuildValue
  0005b	83 c4 08	 add	 esp, 8

; 357  : }

  0005e	8b e5		 mov	 esp, ebp
  00060	5d		 pop	 ebp
  00061	c3		 ret	 0
?wndMgrRegisterNumberLine@@YAPAU_object@@PAU1@0@Z ENDP	; wndMgrRegisterNumberLine
_TEXT	ENDS
; Function compile flags: /Ogtp
; File C:\Users\flourine\Desktop\Xantios\client-src\Code\eterPythonLib\PythonWindowManagerModule.cpp
;	COMDAT ?wndMgrRegisterBar3D@@YAPAU_object@@PAU1@0@Z
_TEXT	SEGMENT
_po$ = -8						; size = 4
_szLayer$ = -4						; size = 4
_poSelf$ = 8						; size = 4
_poArgs$ = 12						; size = 4
?wndMgrRegisterBar3D@@YAPAU_object@@PAU1@0@Z PROC	; wndMgrRegisterBar3D, COMDAT

; 325  : {

  00000	55		 push	 ebp
  00001	8b ec		 mov	 ebp, esp
  00003	83 ec 08	 sub	 esp, 8

; 326  : 	PyObject * po;
; 327  : 	if (!PyTuple_GetObject(poArgs, 0, &po))

  00006	8d 45 f8	 lea	 eax, DWORD PTR _po$[ebp]
  00009	50		 push	 eax
  0000a	6a 00		 push	 0
  0000c	ff 75 0c	 push	 DWORD PTR _poArgs$[ebp]
  0000f	e8 00 00 00 00	 call	 ?PyTuple_GetObject@@YA_NPAU_object@@HPAPAU1@@Z ; PyTuple_GetObject
  00014	83 c4 0c	 add	 esp, 12			; 0000000cH
  00017	84 c0		 test	 al, al
  00019	75 0e		 jne	 SHORT $LN2@wndMgrRegi
$LN5@wndMgrRegi:

; 339  : }

  0001b	6a 00		 push	 0
  0001d	e8 00 00 00 00	 call	 ?Py_BuildException@@YAPAU_object@@PBDZZ ; Py_BuildException
  00022	83 c4 04	 add	 esp, 4
  00025	8b e5		 mov	 esp, ebp
  00027	5d		 pop	 ebp
  00028	c3		 ret	 0
$LN2@wndMgrRegi:

; 328  : 	{
; 329  : 		return Py_BuildException();
; 330  : 	}
; 331  : 	char * szLayer;
; 332  : 	if (!PyTuple_GetString(poArgs, 1, &szLayer))

  00029	8d 45 fc	 lea	 eax, DWORD PTR _szLayer$[ebp]
  0002c	50		 push	 eax
  0002d	6a 01		 push	 1
  0002f	ff 75 0c	 push	 DWORD PTR _poArgs$[ebp]
  00032	e8 00 00 00 00	 call	 ?PyTuple_GetString@@YA_NPAU_object@@HPAPAD@Z ; PyTuple_GetString
  00037	83 c4 0c	 add	 esp, 12			; 0000000cH
  0003a	84 c0		 test	 al, al
  0003c	74 dd		 je	 SHORT $LN5@wndMgrRegi

; 333  : 	{
; 334  : 		return Py_BuildException();
; 335  : 	}
; 336  : 
; 337  : 	UI::CWindow * pWindow = UI::CWindowManager::Instance().RegisterBar3D(po, szLayer);

  0003e	ff 75 fc	 push	 DWORD PTR _szLayer$[ebp]
  00041	8b 0d 00 00 00
	00		 mov	 ecx, DWORD PTR ?ms_singleton@?$CSingleton@VCWindowManager@UI@@@@0PAVCWindowManager@UI@@A ; CSingleton<UI::CWindowManager>::ms_singleton
  00047	ff 75 f8	 push	 DWORD PTR _po$[ebp]
  0004a	e8 00 00 00 00	 call	 ?RegisterBar3D@CWindowManager@UI@@QAEPAVCWindow@2@PAU_object@@PBD@Z ; UI::CWindowManager::RegisterBar3D

; 338  : 	return Py_BuildValue("i", pWindow);

  0004f	50		 push	 eax
  00050	68 00 00 00 00	 push	 OFFSET ??_C@_01KBJDNOO@i@
  00055	ff 15 00 00 00
	00		 call	 DWORD PTR __imp__Py_BuildValue
  0005b	83 c4 08	 add	 esp, 8

; 339  : }

  0005e	8b e5		 mov	 esp, ebp
  00060	5d		 pop	 ebp
  00061	c3		 ret	 0
?wndMgrRegisterBar3D@@YAPAU_object@@PAU1@0@Z ENDP	; wndMgrRegisterBar3D
_TEXT	ENDS
; Function compile flags: /Ogtp
; File C:\Users\flourine\Desktop\Xantios\client-src\Code\eterPythonLib\PythonWindowManagerModule.cpp
;	COMDAT ?wndMgrRegisterLine@@YAPAU_object@@PAU1@0@Z
_TEXT	SEGMENT
_po$ = -8						; size = 4
_szLayer$ = -4						; size = 4
_poSelf$ = 8						; size = 4
_poArgs$ = 12						; size = 4
?wndMgrRegisterLine@@YAPAU_object@@PAU1@0@Z PROC	; wndMgrRegisterLine, COMDAT

; 307  : {

  00000	55		 push	 ebp
  00001	8b ec		 mov	 ebp, esp
  00003	83 ec 08	 sub	 esp, 8

; 308  : 	PyObject * po;
; 309  : 	if (!PyTuple_GetObject(poArgs, 0, &po))

  00006	8d 45 f8	 lea	 eax, DWORD PTR _po$[ebp]
  00009	50		 push	 eax
  0000a	6a 00		 push	 0
  0000c	ff 75 0c	 push	 DWORD PTR _poArgs$[ebp]
  0000f	e8 00 00 00 00	 call	 ?PyTuple_GetObject@@YA_NPAU_object@@HPAPAU1@@Z ; PyTuple_GetObject
  00014	83 c4 0c	 add	 esp, 12			; 0000000cH
  00017	84 c0		 test	 al, al
  00019	75 0e		 jne	 SHORT $LN2@wndMgrRegi
$LN5@wndMgrRegi:

; 321  : }

  0001b	6a 00		 push	 0
  0001d	e8 00 00 00 00	 call	 ?Py_BuildException@@YAPAU_object@@PBDZZ ; Py_BuildException
  00022	83 c4 04	 add	 esp, 4
  00025	8b e5		 mov	 esp, ebp
  00027	5d		 pop	 ebp
  00028	c3		 ret	 0
$LN2@wndMgrRegi:

; 310  : 	{
; 311  : 		return Py_BuildException();
; 312  : 	}
; 313  : 	char * szLayer;
; 314  : 	if (!PyTuple_GetString(poArgs, 1, &szLayer))

  00029	8d 45 fc	 lea	 eax, DWORD PTR _szLayer$[ebp]
  0002c	50		 push	 eax
  0002d	6a 01		 push	 1
  0002f	ff 75 0c	 push	 DWORD PTR _poArgs$[ebp]
  00032	e8 00 00 00 00	 call	 ?PyTuple_GetString@@YA_NPAU_object@@HPAPAD@Z ; PyTuple_GetString
  00037	83 c4 0c	 add	 esp, 12			; 0000000cH
  0003a	84 c0		 test	 al, al
  0003c	74 dd		 je	 SHORT $LN5@wndMgrRegi

; 315  : 	{
; 316  : 		return Py_BuildException();
; 317  : 	}
; 318  : 
; 319  : 	UI::CWindow * pWindow = UI::CWindowManager::Instance().RegisterLine(po, szLayer);

  0003e	ff 75 fc	 push	 DWORD PTR _szLayer$[ebp]
  00041	8b 0d 00 00 00
	00		 mov	 ecx, DWORD PTR ?ms_singleton@?$CSingleton@VCWindowManager@UI@@@@0PAVCWindowManager@UI@@A ; CSingleton<UI::CWindowManager>::ms_singleton
  00047	ff 75 f8	 push	 DWORD PTR _po$[ebp]
  0004a	e8 00 00 00 00	 call	 ?RegisterLine@CWindowManager@UI@@QAEPAVCWindow@2@PAU_object@@PBD@Z ; UI::CWindowManager::RegisterLine

; 320  : 	return Py_BuildValue("i", pWindow);

  0004f	50		 push	 eax
  00050	68 00 00 00 00	 push	 OFFSET ??_C@_01KBJDNOO@i@
  00055	ff 15 00 00 00
	00		 call	 DWORD PTR __imp__Py_BuildValue
  0005b	83 c4 08	 add	 esp, 8

; 321  : }

  0005e	8b e5		 mov	 esp, ebp
  00060	5d		 pop	 ebp
  00061	c3		 ret	 0
?wndMgrRegisterLine@@YAPAU_object@@PAU1@0@Z ENDP	; wndMgrRegisterLine
_TEXT	ENDS
; Function compile flags: /Ogtp
; File C:\Users\flourine\Desktop\Xantios\client-src\Code\eterPythonLib\PythonWindowManagerModule.cpp
;	COMDAT ?wndMgrRegisterBar@@YAPAU_object@@PAU1@0@Z
_TEXT	SEGMENT
_po$ = -8						; size = 4
_szLayer$ = -4						; size = 4
_poSelf$ = 8						; size = 4
_poArgs$ = 12						; size = 4
?wndMgrRegisterBar@@YAPAU_object@@PAU1@0@Z PROC		; wndMgrRegisterBar, COMDAT

; 289  : {

  00000	55		 push	 ebp
  00001	8b ec		 mov	 ebp, esp
  00003	83 ec 08	 sub	 esp, 8

; 290  : 	PyObject * po;
; 291  : 	if (!PyTuple_GetObject(poArgs, 0, &po))

  00006	8d 45 f8	 lea	 eax, DWORD PTR _po$[ebp]
  00009	50		 push	 eax
  0000a	6a 00		 push	 0
  0000c	ff 75 0c	 push	 DWORD PTR _poArgs$[ebp]
  0000f	e8 00 00 00 00	 call	 ?PyTuple_GetObject@@YA_NPAU_object@@HPAPAU1@@Z ; PyTuple_GetObject
  00014	83 c4 0c	 add	 esp, 12			; 0000000cH
  00017	84 c0		 test	 al, al
  00019	75 0e		 jne	 SHORT $LN2@wndMgrRegi
$LN5@wndMgrRegi:

; 303  : }

  0001b	6a 00		 push	 0
  0001d	e8 00 00 00 00	 call	 ?Py_BuildException@@YAPAU_object@@PBDZZ ; Py_BuildException
  00022	83 c4 04	 add	 esp, 4
  00025	8b e5		 mov	 esp, ebp
  00027	5d		 pop	 ebp
  00028	c3		 ret	 0
$LN2@wndMgrRegi:

; 292  : 	{
; 293  : 		return Py_BuildException();
; 294  : 	}
; 295  : 	char * szLayer;
; 296  : 	if (!PyTuple_GetString(poArgs, 1, &szLayer))

  00029	8d 45 fc	 lea	 eax, DWORD PTR _szLayer$[ebp]
  0002c	50		 push	 eax
  0002d	6a 01		 push	 1
  0002f	ff 75 0c	 push	 DWORD PTR _poArgs$[ebp]
  00032	e8 00 00 00 00	 call	 ?PyTuple_GetString@@YA_NPAU_object@@HPAPAD@Z ; PyTuple_GetString
  00037	83 c4 0c	 add	 esp, 12			; 0000000cH
  0003a	84 c0		 test	 al, al
  0003c	74 dd		 je	 SHORT $LN5@wndMgrRegi

; 297  : 	{
; 298  : 		return Py_BuildException();
; 299  : 	}
; 300  : 
; 301  : 	UI::CWindow * pWindow = UI::CWindowManager::Instance().RegisterBar(po, szLayer);

  0003e	ff 75 fc	 push	 DWORD PTR _szLayer$[ebp]
  00041	8b 0d 00 00 00
	00		 mov	 ecx, DWORD PTR ?ms_singleton@?$CSingleton@VCWindowManager@UI@@@@0PAVCWindowManager@UI@@A ; CSingleton<UI::CWindowManager>::ms_singleton
  00047	ff 75 f8	 push	 DWORD PTR _po$[ebp]
  0004a	e8 00 00 00 00	 call	 ?RegisterBar@CWindowManager@UI@@QAEPAVCWindow@2@PAU_object@@PBD@Z ; UI::CWindowManager::RegisterBar

; 302  : 	return Py_BuildValue("i", pWindow);

  0004f	50		 push	 eax
  00050	68 00 00 00 00	 push	 OFFSET ??_C@_01KBJDNOO@i@
  00055	ff 15 00 00 00
	00		 call	 DWORD PTR __imp__Py_BuildValue
  0005b	83 c4 08	 add	 esp, 8

; 303  : }

  0005e	8b e5		 mov	 esp, ebp
  00060	5d		 pop	 ebp
  00061	c3		 ret	 0
?wndMgrRegisterBar@@YAPAU_object@@PAU1@0@Z ENDP		; wndMgrRegisterBar
_TEXT	ENDS
; Function compile flags: /Ogtp
; File C:\Users\flourine\Desktop\Xantios\client-src\Code\eterPythonLib\PythonWindowManagerModule.cpp
;	COMDAT ?wndMgrRegisterBox@@YAPAU_object@@PAU1@0@Z
_TEXT	SEGMENT
_po$ = -8						; size = 4
_szLayer$ = -4						; size = 4
_poSelf$ = 8						; size = 4
_poArgs$ = 12						; size = 4
?wndMgrRegisterBox@@YAPAU_object@@PAU1@0@Z PROC		; wndMgrRegisterBox, COMDAT

; 271  : {

  00000	55		 push	 ebp
  00001	8b ec		 mov	 ebp, esp
  00003	83 ec 08	 sub	 esp, 8

; 272  : 	PyObject * po;
; 273  : 	if (!PyTuple_GetObject(poArgs, 0, &po))

  00006	8d 45 f8	 lea	 eax, DWORD PTR _po$[ebp]
  00009	50		 push	 eax
  0000a	6a 00		 push	 0
  0000c	ff 75 0c	 push	 DWORD PTR _poArgs$[ebp]
  0000f	e8 00 00 00 00	 call	 ?PyTuple_GetObject@@YA_NPAU_object@@HPAPAU1@@Z ; PyTuple_GetObject
  00014	83 c4 0c	 add	 esp, 12			; 0000000cH
  00017	84 c0		 test	 al, al
  00019	75 0e		 jne	 SHORT $LN2@wndMgrRegi
$LN5@wndMgrRegi:

; 285  : }

  0001b	6a 00		 push	 0
  0001d	e8 00 00 00 00	 call	 ?Py_BuildException@@YAPAU_object@@PBDZZ ; Py_BuildException
  00022	83 c4 04	 add	 esp, 4
  00025	8b e5		 mov	 esp, ebp
  00027	5d		 pop	 ebp
  00028	c3		 ret	 0
$LN2@wndMgrRegi:

; 274  : 	{
; 275  : 		return Py_BuildException();
; 276  : 	}
; 277  : 	char * szLayer;
; 278  : 	if (!PyTuple_GetString(poArgs, 1, &szLayer))

  00029	8d 45 fc	 lea	 eax, DWORD PTR _szLayer$[ebp]
  0002c	50		 push	 eax
  0002d	6a 01		 push	 1
  0002f	ff 75 0c	 push	 DWORD PTR _poArgs$[ebp]
  00032	e8 00 00 00 00	 call	 ?PyTuple_GetString@@YA_NPAU_object@@HPAPAD@Z ; PyTuple_GetString
  00037	83 c4 0c	 add	 esp, 12			; 0000000cH
  0003a	84 c0		 test	 al, al
  0003c	74 dd		 je	 SHORT $LN5@wndMgrRegi

; 279  : 	{
; 280  : 		return Py_BuildException();
; 281  : 	}
; 282  : 
; 283  : 	UI::CWindow * pWindow = UI::CWindowManager::Instance().RegisterBox(po, szLayer);

  0003e	ff 75 fc	 push	 DWORD PTR _szLayer$[ebp]
  00041	8b 0d 00 00 00
	00		 mov	 ecx, DWORD PTR ?ms_singleton@?$CSingleton@VCWindowManager@UI@@@@0PAVCWindowManager@UI@@A ; CSingleton<UI::CWindowManager>::ms_singleton
  00047	ff 75 f8	 push	 DWORD PTR _po$[ebp]
  0004a	e8 00 00 00 00	 call	 ?RegisterBox@CWindowManager@UI@@QAEPAVCWindow@2@PAU_object@@PBD@Z ; UI::CWindowManager::RegisterBox

; 284  : 	return Py_BuildValue("i", pWindow);

  0004f	50		 push	 eax
  00050	68 00 00 00 00	 push	 OFFSET ??_C@_01KBJDNOO@i@
  00055	ff 15 00 00 00
	00		 call	 DWORD PTR __imp__Py_BuildValue
  0005b	83 c4 08	 add	 esp, 8

; 285  : }

  0005e	8b e5		 mov	 esp, ebp
  00060	5d		 pop	 ebp
  00061	c3		 ret	 0
?wndMgrRegisterBox@@YAPAU_object@@PAU1@0@Z ENDP		; wndMgrRegisterBox
_TEXT	ENDS
; Function compile flags: /Ogtp
; File C:\Users\flourine\Desktop\Xantios\client-src\Code\eterPythonLib\PythonWindowManagerModule.cpp
;	COMDAT ?wndMgrRegisterDragButton@@YAPAU_object@@PAU1@0@Z
_TEXT	SEGMENT
_po$ = -8						; size = 4
_szLayer$ = -4						; size = 4
_poSelf$ = 8						; size = 4
_poArgs$ = 12						; size = 4
?wndMgrRegisterDragButton@@YAPAU_object@@PAU1@0@Z PROC	; wndMgrRegisterDragButton, COMDAT

; 253  : {

  00000	55		 push	 ebp
  00001	8b ec		 mov	 ebp, esp
  00003	83 ec 08	 sub	 esp, 8

; 254  : 	PyObject * po;
; 255  : 	if (!PyTuple_GetObject(poArgs, 0, &po))

  00006	8d 45 f8	 lea	 eax, DWORD PTR _po$[ebp]
  00009	50		 push	 eax
  0000a	6a 00		 push	 0
  0000c	ff 75 0c	 push	 DWORD PTR _poArgs$[ebp]
  0000f	e8 00 00 00 00	 call	 ?PyTuple_GetObject@@YA_NPAU_object@@HPAPAU1@@Z ; PyTuple_GetObject
  00014	83 c4 0c	 add	 esp, 12			; 0000000cH
  00017	84 c0		 test	 al, al
  00019	75 0e		 jne	 SHORT $LN2@wndMgrRegi
$LN5@wndMgrRegi:

; 267  : }

  0001b	6a 00		 push	 0
  0001d	e8 00 00 00 00	 call	 ?Py_BuildException@@YAPAU_object@@PBDZZ ; Py_BuildException
  00022	83 c4 04	 add	 esp, 4
  00025	8b e5		 mov	 esp, ebp
  00027	5d		 pop	 ebp
  00028	c3		 ret	 0
$LN2@wndMgrRegi:

; 256  : 	{
; 257  : 		return Py_BuildException();
; 258  : 	}
; 259  : 	char * szLayer;
; 260  : 	if (!PyTuple_GetString(poArgs, 1, &szLayer))

  00029	8d 45 fc	 lea	 eax, DWORD PTR _szLayer$[ebp]
  0002c	50		 push	 eax
  0002d	6a 01		 push	 1
  0002f	ff 75 0c	 push	 DWORD PTR _poArgs$[ebp]
  00032	e8 00 00 00 00	 call	 ?PyTuple_GetString@@YA_NPAU_object@@HPAPAD@Z ; PyTuple_GetString
  00037	83 c4 0c	 add	 esp, 12			; 0000000cH
  0003a	84 c0		 test	 al, al
  0003c	74 dd		 je	 SHORT $LN5@wndMgrRegi

; 261  : 	{
; 262  : 		return Py_BuildException();
; 263  : 	}
; 264  : 
; 265  : 	UI::CWindow * pWindow = UI::CWindowManager::Instance().RegisterDragButton(po, szLayer);

  0003e	ff 75 fc	 push	 DWORD PTR _szLayer$[ebp]
  00041	8b 0d 00 00 00
	00		 mov	 ecx, DWORD PTR ?ms_singleton@?$CSingleton@VCWindowManager@UI@@@@0PAVCWindowManager@UI@@A ; CSingleton<UI::CWindowManager>::ms_singleton
  00047	ff 75 f8	 push	 DWORD PTR _po$[ebp]
  0004a	e8 00 00 00 00	 call	 ?RegisterDragButton@CWindowManager@UI@@QAEPAVCWindow@2@PAU_object@@PBD@Z ; UI::CWindowManager::RegisterDragButton

; 266  : 	return Py_BuildValue("i", pWindow);

  0004f	50		 push	 eax
  00050	68 00 00 00 00	 push	 OFFSET ??_C@_01KBJDNOO@i@
  00055	ff 15 00 00 00
	00		 call	 DWORD PTR __imp__Py_BuildValue
  0005b	83 c4 08	 add	 esp, 8

; 267  : }

  0005e	8b e5		 mov	 esp, ebp
  00060	5d		 pop	 ebp
  00061	c3		 ret	 0
?wndMgrRegisterDragButton@@YAPAU_object@@PAU1@0@Z ENDP	; wndMgrRegisterDragButton
_TEXT	ENDS
; Function compile flags: /Ogtp
; File C:\Users\flourine\Desktop\Xantios\client-src\Code\eterPythonLib\PythonWindowManagerModule.cpp
;	COMDAT ?wndMgrRegisterToggleButton@@YAPAU_object@@PAU1@0@Z
_TEXT	SEGMENT
_po$ = -8						; size = 4
_szLayer$ = -4						; size = 4
_poSelf$ = 8						; size = 4
_poArgs$ = 12						; size = 4
?wndMgrRegisterToggleButton@@YAPAU_object@@PAU1@0@Z PROC ; wndMgrRegisterToggleButton, COMDAT

; 235  : {

  00000	55		 push	 ebp
  00001	8b ec		 mov	 ebp, esp
  00003	83 ec 08	 sub	 esp, 8

; 236  : 	PyObject * po;
; 237  : 	if (!PyTuple_GetObject(poArgs, 0, &po))

  00006	8d 45 f8	 lea	 eax, DWORD PTR _po$[ebp]
  00009	50		 push	 eax
  0000a	6a 00		 push	 0
  0000c	ff 75 0c	 push	 DWORD PTR _poArgs$[ebp]
  0000f	e8 00 00 00 00	 call	 ?PyTuple_GetObject@@YA_NPAU_object@@HPAPAU1@@Z ; PyTuple_GetObject
  00014	83 c4 0c	 add	 esp, 12			; 0000000cH
  00017	84 c0		 test	 al, al
  00019	75 0e		 jne	 SHORT $LN2@wndMgrRegi
$LN5@wndMgrRegi:

; 249  : }

  0001b	6a 00		 push	 0
  0001d	e8 00 00 00 00	 call	 ?Py_BuildException@@YAPAU_object@@PBDZZ ; Py_BuildException
  00022	83 c4 04	 add	 esp, 4
  00025	8b e5		 mov	 esp, ebp
  00027	5d		 pop	 ebp
  00028	c3		 ret	 0
$LN2@wndMgrRegi:

; 238  : 	{
; 239  : 		return Py_BuildException();
; 240  : 	}
; 241  : 	char * szLayer;
; 242  : 	if (!PyTuple_GetString(poArgs, 1, &szLayer))

  00029	8d 45 fc	 lea	 eax, DWORD PTR _szLayer$[ebp]
  0002c	50		 push	 eax
  0002d	6a 01		 push	 1
  0002f	ff 75 0c	 push	 DWORD PTR _poArgs$[ebp]
  00032	e8 00 00 00 00	 call	 ?PyTuple_GetString@@YA_NPAU_object@@HPAPAD@Z ; PyTuple_GetString
  00037	83 c4 0c	 add	 esp, 12			; 0000000cH
  0003a	84 c0		 test	 al, al
  0003c	74 dd		 je	 SHORT $LN5@wndMgrRegi

; 243  : 	{
; 244  : 		return Py_BuildException();
; 245  : 	}
; 246  : 
; 247  : 	UI::CWindow * pWindow = UI::CWindowManager::Instance().RegisterToggleButton(po, szLayer);

  0003e	ff 75 fc	 push	 DWORD PTR _szLayer$[ebp]
  00041	8b 0d 00 00 00
	00		 mov	 ecx, DWORD PTR ?ms_singleton@?$CSingleton@VCWindowManager@UI@@@@0PAVCWindowManager@UI@@A ; CSingleton<UI::CWindowManager>::ms_singleton
  00047	ff 75 f8	 push	 DWORD PTR _po$[ebp]
  0004a	e8 00 00 00 00	 call	 ?RegisterToggleButton@CWindowManager@UI@@QAEPAVCWindow@2@PAU_object@@PBD@Z ; UI::CWindowManager::RegisterToggleButton

; 248  : 	return Py_BuildValue("i", pWindow);

  0004f	50		 push	 eax
  00050	68 00 00 00 00	 push	 OFFSET ??_C@_01KBJDNOO@i@
  00055	ff 15 00 00 00
	00		 call	 DWORD PTR __imp__Py_BuildValue
  0005b	83 c4 08	 add	 esp, 8

; 249  : }

  0005e	8b e5		 mov	 esp, ebp
  00060	5d		 pop	 ebp
  00061	c3		 ret	 0
?wndMgrRegisterToggleButton@@YAPAU_object@@PAU1@0@Z ENDP ; wndMgrRegisterToggleButton
_TEXT	ENDS
; Function compile flags: /Ogtp
; File C:\Users\flourine\Desktop\Xantios\client-src\Code\eterPythonLib\PythonWindowManagerModule.cpp
;	COMDAT ?wndMgrRegisterRadioButton@@YAPAU_object@@PAU1@0@Z
_TEXT	SEGMENT
_po$ = -8						; size = 4
_szLayer$ = -4						; size = 4
_poSelf$ = 8						; size = 4
_poArgs$ = 12						; size = 4
?wndMgrRegisterRadioButton@@YAPAU_object@@PAU1@0@Z PROC	; wndMgrRegisterRadioButton, COMDAT

; 217  : {

  00000	55		 push	 ebp
  00001	8b ec		 mov	 ebp, esp
  00003	83 ec 08	 sub	 esp, 8

; 218  : 	PyObject * po;
; 219  : 	if (!PyTuple_GetObject(poArgs, 0, &po))

  00006	8d 45 f8	 lea	 eax, DWORD PTR _po$[ebp]
  00009	50		 push	 eax
  0000a	6a 00		 push	 0
  0000c	ff 75 0c	 push	 DWORD PTR _poArgs$[ebp]
  0000f	e8 00 00 00 00	 call	 ?PyTuple_GetObject@@YA_NPAU_object@@HPAPAU1@@Z ; PyTuple_GetObject
  00014	83 c4 0c	 add	 esp, 12			; 0000000cH
  00017	84 c0		 test	 al, al
  00019	75 0e		 jne	 SHORT $LN2@wndMgrRegi
$LN5@wndMgrRegi:

; 231  : }

  0001b	6a 00		 push	 0
  0001d	e8 00 00 00 00	 call	 ?Py_BuildException@@YAPAU_object@@PBDZZ ; Py_BuildException
  00022	83 c4 04	 add	 esp, 4
  00025	8b e5		 mov	 esp, ebp
  00027	5d		 pop	 ebp
  00028	c3		 ret	 0
$LN2@wndMgrRegi:

; 220  : 	{
; 221  : 		return Py_BuildException();
; 222  : 	}
; 223  : 	char * szLayer;
; 224  : 	if (!PyTuple_GetString(poArgs, 1, &szLayer))

  00029	8d 45 fc	 lea	 eax, DWORD PTR _szLayer$[ebp]
  0002c	50		 push	 eax
  0002d	6a 01		 push	 1
  0002f	ff 75 0c	 push	 DWORD PTR _poArgs$[ebp]
  00032	e8 00 00 00 00	 call	 ?PyTuple_GetString@@YA_NPAU_object@@HPAPAD@Z ; PyTuple_GetString
  00037	83 c4 0c	 add	 esp, 12			; 0000000cH
  0003a	84 c0		 test	 al, al
  0003c	74 dd		 je	 SHORT $LN5@wndMgrRegi

; 225  : 	{
; 226  : 		return Py_BuildException();
; 227  : 	}
; 228  : 
; 229  : 	UI::CWindow * pWindow = UI::CWindowManager::Instance().RegisterRadioButton(po, szLayer);

  0003e	ff 75 fc	 push	 DWORD PTR _szLayer$[ebp]
  00041	8b 0d 00 00 00
	00		 mov	 ecx, DWORD PTR ?ms_singleton@?$CSingleton@VCWindowManager@UI@@@@0PAVCWindowManager@UI@@A ; CSingleton<UI::CWindowManager>::ms_singleton
  00047	ff 75 f8	 push	 DWORD PTR _po$[ebp]
  0004a	e8 00 00 00 00	 call	 ?RegisterRadioButton@CWindowManager@UI@@QAEPAVCWindow@2@PAU_object@@PBD@Z ; UI::CWindowManager::RegisterRadioButton

; 230  : 	return Py_BuildValue("i", pWindow);

  0004f	50		 push	 eax
  00050	68 00 00 00 00	 push	 OFFSET ??_C@_01KBJDNOO@i@
  00055	ff 15 00 00 00
	00		 call	 DWORD PTR __imp__Py_BuildValue
  0005b	83 c4 08	 add	 esp, 8

; 231  : }

  0005e	8b e5		 mov	 esp, ebp
  00060	5d		 pop	 ebp
  00061	c3		 ret	 0
?wndMgrRegisterRadioButton@@YAPAU_object@@PAU1@0@Z ENDP	; wndMgrRegisterRadioButton
_TEXT	ENDS
; Function compile flags: /Ogtp
; File C:\Users\flourine\Desktop\Xantios\client-src\Code\eterPythonLib\PythonWindowManagerModule.cpp
;	COMDAT ?wndMgrRegisterButton@@YAPAU_object@@PAU1@0@Z
_TEXT	SEGMENT
_po$ = -8						; size = 4
_szLayer$ = -4						; size = 4
_poSelf$ = 8						; size = 4
_poArgs$ = 12						; size = 4
?wndMgrRegisterButton@@YAPAU_object@@PAU1@0@Z PROC	; wndMgrRegisterButton, COMDAT

; 199  : {

  00000	55		 push	 ebp
  00001	8b ec		 mov	 ebp, esp
  00003	83 ec 08	 sub	 esp, 8

; 200  : 	PyObject * po;
; 201  : 	if (!PyTuple_GetObject(poArgs, 0, &po))

  00006	8d 45 f8	 lea	 eax, DWORD PTR _po$[ebp]
  00009	50		 push	 eax
  0000a	6a 00		 push	 0
  0000c	ff 75 0c	 push	 DWORD PTR _poArgs$[ebp]
  0000f	e8 00 00 00 00	 call	 ?PyTuple_GetObject@@YA_NPAU_object@@HPAPAU1@@Z ; PyTuple_GetObject
  00014	83 c4 0c	 add	 esp, 12			; 0000000cH
  00017	84 c0		 test	 al, al
  00019	75 0e		 jne	 SHORT $LN2@wndMgrRegi
$LN5@wndMgrRegi:

; 213  : }

  0001b	6a 00		 push	 0
  0001d	e8 00 00 00 00	 call	 ?Py_BuildException@@YAPAU_object@@PBDZZ ; Py_BuildException
  00022	83 c4 04	 add	 esp, 4
  00025	8b e5		 mov	 esp, ebp
  00027	5d		 pop	 ebp
  00028	c3		 ret	 0
$LN2@wndMgrRegi:

; 202  : 	{
; 203  : 		return Py_BuildException();
; 204  : 	}
; 205  : 	char * szLayer;
; 206  : 	if (!PyTuple_GetString(poArgs, 1, &szLayer))

  00029	8d 45 fc	 lea	 eax, DWORD PTR _szLayer$[ebp]
  0002c	50		 push	 eax
  0002d	6a 01		 push	 1
  0002f	ff 75 0c	 push	 DWORD PTR _poArgs$[ebp]
  00032	e8 00 00 00 00	 call	 ?PyTuple_GetString@@YA_NPAU_object@@HPAPAD@Z ; PyTuple_GetString
  00037	83 c4 0c	 add	 esp, 12			; 0000000cH
  0003a	84 c0		 test	 al, al
  0003c	74 dd		 je	 SHORT $LN5@wndMgrRegi

; 207  : 	{
; 208  : 		return Py_BuildException();
; 209  : 	}
; 210  : 
; 211  : 	UI::CWindow * pWindow = UI::CWindowManager::Instance().RegisterButton(po, szLayer);

  0003e	ff 75 fc	 push	 DWORD PTR _szLayer$[ebp]
  00041	8b 0d 00 00 00
	00		 mov	 ecx, DWORD PTR ?ms_singleton@?$CSingleton@VCWindowManager@UI@@@@0PAVCWindowManager@UI@@A ; CSingleton<UI::CWindowManager>::ms_singleton
  00047	ff 75 f8	 push	 DWORD PTR _po$[ebp]
  0004a	e8 00 00 00 00	 call	 ?RegisterButton@CWindowManager@UI@@QAEPAVCWindow@2@PAU_object@@PBD@Z ; UI::CWindowManager::RegisterButton

; 212  : 	return Py_BuildValue("i", pWindow);

  0004f	50		 push	 eax
  00050	68 00 00 00 00	 push	 OFFSET ??_C@_01KBJDNOO@i@
  00055	ff 15 00 00 00
	00		 call	 DWORD PTR __imp__Py_BuildValue
  0005b	83 c4 08	 add	 esp, 8

; 213  : }

  0005e	8b e5		 mov	 esp, ebp
  00060	5d		 pop	 ebp
  00061	c3		 ret	 0
?wndMgrRegisterButton@@YAPAU_object@@PAU1@0@Z ENDP	; wndMgrRegisterButton
_TEXT	ENDS
; Function compile flags: /Ogtp
; File C:\Users\flourine\Desktop\Xantios\client-src\Code\eterPythonLib\PythonWindowManagerModule.cpp
;	COMDAT ?wndMgrRegisterAniImageBox@@YAPAU_object@@PAU1@0@Z
_TEXT	SEGMENT
_po$ = -8						; size = 4
_szLayer$ = -4						; size = 4
_poSelf$ = 8						; size = 4
_poArgs$ = 12						; size = 4
?wndMgrRegisterAniImageBox@@YAPAU_object@@PAU1@0@Z PROC	; wndMgrRegisterAniImageBox, COMDAT

; 181  : {

  00000	55		 push	 ebp
  00001	8b ec		 mov	 ebp, esp
  00003	83 ec 08	 sub	 esp, 8

; 182  : 	PyObject * po;
; 183  : 	if (!PyTuple_GetObject(poArgs, 0, &po))

  00006	8d 45 f8	 lea	 eax, DWORD PTR _po$[ebp]
  00009	50		 push	 eax
  0000a	6a 00		 push	 0
  0000c	ff 75 0c	 push	 DWORD PTR _poArgs$[ebp]
  0000f	e8 00 00 00 00	 call	 ?PyTuple_GetObject@@YA_NPAU_object@@HPAPAU1@@Z ; PyTuple_GetObject
  00014	83 c4 0c	 add	 esp, 12			; 0000000cH
  00017	84 c0		 test	 al, al
  00019	75 0e		 jne	 SHORT $LN2@wndMgrRegi
$LN5@wndMgrRegi:

; 195  : }

  0001b	6a 00		 push	 0
  0001d	e8 00 00 00 00	 call	 ?Py_BuildException@@YAPAU_object@@PBDZZ ; Py_BuildException
  00022	83 c4 04	 add	 esp, 4
  00025	8b e5		 mov	 esp, ebp
  00027	5d		 pop	 ebp
  00028	c3		 ret	 0
$LN2@wndMgrRegi:

; 184  : 	{
; 185  : 		return Py_BuildException();
; 186  : 	}
; 187  : 	char * szLayer;
; 188  : 	if (!PyTuple_GetString(poArgs, 1, &szLayer))

  00029	8d 45 fc	 lea	 eax, DWORD PTR _szLayer$[ebp]
  0002c	50		 push	 eax
  0002d	6a 01		 push	 1
  0002f	ff 75 0c	 push	 DWORD PTR _poArgs$[ebp]
  00032	e8 00 00 00 00	 call	 ?PyTuple_GetString@@YA_NPAU_object@@HPAPAD@Z ; PyTuple_GetString
  00037	83 c4 0c	 add	 esp, 12			; 0000000cH
  0003a	84 c0		 test	 al, al
  0003c	74 dd		 je	 SHORT $LN5@wndMgrRegi

; 189  : 	{
; 190  : 		return Py_BuildException();
; 191  : 	}
; 192  : 
; 193  : 	UI::CWindow * pWindow = UI::CWindowManager::Instance().RegisterAniImageBox(po, szLayer);

  0003e	ff 75 fc	 push	 DWORD PTR _szLayer$[ebp]
  00041	8b 0d 00 00 00
	00		 mov	 ecx, DWORD PTR ?ms_singleton@?$CSingleton@VCWindowManager@UI@@@@0PAVCWindowManager@UI@@A ; CSingleton<UI::CWindowManager>::ms_singleton
  00047	ff 75 f8	 push	 DWORD PTR _po$[ebp]
  0004a	e8 00 00 00 00	 call	 ?RegisterAniImageBox@CWindowManager@UI@@QAEPAVCWindow@2@PAU_object@@PBD@Z ; UI::CWindowManager::RegisterAniImageBox

; 194  : 	return Py_BuildValue("i", pWindow);

  0004f	50		 push	 eax
  00050	68 00 00 00 00	 push	 OFFSET ??_C@_01KBJDNOO@i@
  00055	ff 15 00 00 00
	00		 call	 DWORD PTR __imp__Py_BuildValue
  0005b	83 c4 08	 add	 esp, 8

; 195  : }

  0005e	8b e5		 mov	 esp, ebp
  00060	5d		 pop	 ebp
  00061	c3		 ret	 0
?wndMgrRegisterAniImageBox@@YAPAU_object@@PAU1@0@Z ENDP	; wndMgrRegisterAniImageBox
_TEXT	ENDS
; Function compile flags: /Ogtp
; File C:\Users\flourine\Desktop\Xantios\client-src\Code\eterPythonLib\PythonWindowManagerModule.cpp
;	COMDAT ?wndMgrRegisterExpandedImageBox@@YAPAU_object@@PAU1@0@Z
_TEXT	SEGMENT
_po$ = -8						; size = 4
_szLayer$ = -4						; size = 4
_poSelf$ = 8						; size = 4
_poArgs$ = 12						; size = 4
?wndMgrRegisterExpandedImageBox@@YAPAU_object@@PAU1@0@Z PROC ; wndMgrRegisterExpandedImageBox, COMDAT

; 163  : {

  00000	55		 push	 ebp
  00001	8b ec		 mov	 ebp, esp
  00003	83 ec 08	 sub	 esp, 8

; 164  : 	PyObject * po;
; 165  : 	if (!PyTuple_GetObject(poArgs, 0, &po))

  00006	8d 45 f8	 lea	 eax, DWORD PTR _po$[ebp]
  00009	50		 push	 eax
  0000a	6a 00		 push	 0
  0000c	ff 75 0c	 push	 DWORD PTR _poArgs$[ebp]
  0000f	e8 00 00 00 00	 call	 ?PyTuple_GetObject@@YA_NPAU_object@@HPAPAU1@@Z ; PyTuple_GetObject
  00014	83 c4 0c	 add	 esp, 12			; 0000000cH
  00017	84 c0		 test	 al, al
  00019	75 0e		 jne	 SHORT $LN2@wndMgrRegi
$LN5@wndMgrRegi:

; 177  : }

  0001b	6a 00		 push	 0
  0001d	e8 00 00 00 00	 call	 ?Py_BuildException@@YAPAU_object@@PBDZZ ; Py_BuildException
  00022	83 c4 04	 add	 esp, 4
  00025	8b e5		 mov	 esp, ebp
  00027	5d		 pop	 ebp
  00028	c3		 ret	 0
$LN2@wndMgrRegi:

; 166  : 	{
; 167  : 		return Py_BuildException();
; 168  : 	}
; 169  : 	char * szLayer;
; 170  : 	if (!PyTuple_GetString(poArgs, 1, &szLayer))

  00029	8d 45 fc	 lea	 eax, DWORD PTR _szLayer$[ebp]
  0002c	50		 push	 eax
  0002d	6a 01		 push	 1
  0002f	ff 75 0c	 push	 DWORD PTR _poArgs$[ebp]
  00032	e8 00 00 00 00	 call	 ?PyTuple_GetString@@YA_NPAU_object@@HPAPAD@Z ; PyTuple_GetString
  00037	83 c4 0c	 add	 esp, 12			; 0000000cH
  0003a	84 c0		 test	 al, al
  0003c	74 dd		 je	 SHORT $LN5@wndMgrRegi

; 171  : 	{
; 172  : 		return Py_BuildException();
; 173  : 	}
; 174  : 
; 175  : 	UI::CWindow * pWindow = UI::CWindowManager::Instance().RegisterExpandedImageBox(po, szLayer);

  0003e	ff 75 fc	 push	 DWORD PTR _szLayer$[ebp]
  00041	8b 0d 00 00 00
	00		 mov	 ecx, DWORD PTR ?ms_singleton@?$CSingleton@VCWindowManager@UI@@@@0PAVCWindowManager@UI@@A ; CSingleton<UI::CWindowManager>::ms_singleton
  00047	ff 75 f8	 push	 DWORD PTR _po$[ebp]
  0004a	e8 00 00 00 00	 call	 ?RegisterExpandedImageBox@CWindowManager@UI@@QAEPAVCWindow@2@PAU_object@@PBD@Z ; UI::CWindowManager::RegisterExpandedImageBox

; 176  : 	return Py_BuildValue("i", pWindow);

  0004f	50		 push	 eax
  00050	68 00 00 00 00	 push	 OFFSET ??_C@_01KBJDNOO@i@
  00055	ff 15 00 00 00
	00		 call	 DWORD PTR __imp__Py_BuildValue
  0005b	83 c4 08	 add	 esp, 8

; 177  : }

  0005e	8b e5		 mov	 esp, ebp
  00060	5d		 pop	 ebp
  00061	c3		 ret	 0
?wndMgrRegisterExpandedImageBox@@YAPAU_object@@PAU1@0@Z ENDP ; wndMgrRegisterExpandedImageBox
_TEXT	ENDS
; Function compile flags: /Ogtp
; File C:\Users\flourine\Desktop\Xantios\client-src\Code\eterPythonLib\PythonWindowManagerModule.cpp
;	COMDAT ?wndMgrRegisterImageBox@@YAPAU_object@@PAU1@0@Z
_TEXT	SEGMENT
_po$ = -8						; size = 4
_szLayer$ = -4						; size = 4
_poSelf$ = 8						; size = 4
_poArgs$ = 12						; size = 4
?wndMgrRegisterImageBox@@YAPAU_object@@PAU1@0@Z PROC	; wndMgrRegisterImageBox, COMDAT

; 145  : {

  00000	55		 push	 ebp
  00001	8b ec		 mov	 ebp, esp
  00003	83 ec 08	 sub	 esp, 8

; 146  : 	PyObject * po;
; 147  : 	if (!PyTuple_GetObject(poArgs, 0, &po))

  00006	8d 45 f8	 lea	 eax, DWORD PTR _po$[ebp]
  00009	50		 push	 eax
  0000a	6a 00		 push	 0
  0000c	ff 75 0c	 push	 DWORD PTR _poArgs$[ebp]
  0000f	e8 00 00 00 00	 call	 ?PyTuple_GetObject@@YA_NPAU_object@@HPAPAU1@@Z ; PyTuple_GetObject
  00014	83 c4 0c	 add	 esp, 12			; 0000000cH
  00017	84 c0		 test	 al, al
  00019	75 0e		 jne	 SHORT $LN2@wndMgrRegi
$LN5@wndMgrRegi:

; 159  : }

  0001b	6a 00		 push	 0
  0001d	e8 00 00 00 00	 call	 ?Py_BuildException@@YAPAU_object@@PBDZZ ; Py_BuildException
  00022	83 c4 04	 add	 esp, 4
  00025	8b e5		 mov	 esp, ebp
  00027	5d		 pop	 ebp
  00028	c3		 ret	 0
$LN2@wndMgrRegi:

; 148  : 	{
; 149  : 		return Py_BuildException();
; 150  : 	}
; 151  : 	char * szLayer;
; 152  : 	if (!PyTuple_GetString(poArgs, 1, &szLayer))

  00029	8d 45 fc	 lea	 eax, DWORD PTR _szLayer$[ebp]
  0002c	50		 push	 eax
  0002d	6a 01		 push	 1
  0002f	ff 75 0c	 push	 DWORD PTR _poArgs$[ebp]
  00032	e8 00 00 00 00	 call	 ?PyTuple_GetString@@YA_NPAU_object@@HPAPAD@Z ; PyTuple_GetString
  00037	83 c4 0c	 add	 esp, 12			; 0000000cH
  0003a	84 c0		 test	 al, al
  0003c	74 dd		 je	 SHORT $LN5@wndMgrRegi

; 153  : 	{
; 154  : 		return Py_BuildException();
; 155  : 	}
; 156  : 
; 157  : 	UI::CWindow * pWindow = UI::CWindowManager::Instance().RegisterImageBox(po, szLayer);

  0003e	ff 75 fc	 push	 DWORD PTR _szLayer$[ebp]
  00041	8b 0d 00 00 00
	00		 mov	 ecx, DWORD PTR ?ms_singleton@?$CSingleton@VCWindowManager@UI@@@@0PAVCWindowManager@UI@@A ; CSingleton<UI::CWindowManager>::ms_singleton
  00047	ff 75 f8	 push	 DWORD PTR _po$[ebp]
  0004a	e8 00 00 00 00	 call	 ?RegisterImageBox@CWindowManager@UI@@QAEPAVCWindow@2@PAU_object@@PBD@Z ; UI::CWindowManager::RegisterImageBox

; 158  : 	return Py_BuildValue("i", pWindow);

  0004f	50		 push	 eax
  00050	68 00 00 00 00	 push	 OFFSET ??_C@_01KBJDNOO@i@
  00055	ff 15 00 00 00
	00		 call	 DWORD PTR __imp__Py_BuildValue
  0005b	83 c4 08	 add	 esp, 8

; 159  : }

  0005e	8b e5		 mov	 esp, ebp
  00060	5d		 pop	 ebp
  00061	c3		 ret	 0
?wndMgrRegisterImageBox@@YAPAU_object@@PAU1@0@Z ENDP	; wndMgrRegisterImageBox
_TEXT	ENDS
; Function compile flags: /Ogtp
; File C:\Users\flourine\Desktop\Xantios\client-src\Code\eterPythonLib\PythonWindowManagerModule.cpp
;	COMDAT ?wndMgrRegisterMarkBox@@YAPAU_object@@PAU1@0@Z
_TEXT	SEGMENT
_po$ = -8						; size = 4
_szLayer$ = -4						; size = 4
_poSelf$ = 8						; size = 4
_poArgs$ = 12						; size = 4
?wndMgrRegisterMarkBox@@YAPAU_object@@PAU1@0@Z PROC	; wndMgrRegisterMarkBox, COMDAT

; 127  : {

  00000	55		 push	 ebp
  00001	8b ec		 mov	 ebp, esp
  00003	83 ec 08	 sub	 esp, 8

; 128  : 	PyObject * po;
; 129  : 	if (!PyTuple_GetObject(poArgs, 0, &po))

  00006	8d 45 f8	 lea	 eax, DWORD PTR _po$[ebp]
  00009	50		 push	 eax
  0000a	6a 00		 push	 0
  0000c	ff 75 0c	 push	 DWORD PTR _poArgs$[ebp]
  0000f	e8 00 00 00 00	 call	 ?PyTuple_GetObject@@YA_NPAU_object@@HPAPAU1@@Z ; PyTuple_GetObject
  00014	83 c4 0c	 add	 esp, 12			; 0000000cH
  00017	84 c0		 test	 al, al
  00019	75 0e		 jne	 SHORT $LN2@wndMgrRegi
$LN5@wndMgrRegi:

; 141  : }

  0001b	6a 00		 push	 0
  0001d	e8 00 00 00 00	 call	 ?Py_BuildException@@YAPAU_object@@PBDZZ ; Py_BuildException
  00022	83 c4 04	 add	 esp, 4
  00025	8b e5		 mov	 esp, ebp
  00027	5d		 pop	 ebp
  00028	c3		 ret	 0
$LN2@wndMgrRegi:

; 130  : 	{
; 131  : 		return Py_BuildException();
; 132  : 	}
; 133  : 	char * szLayer;
; 134  : 	if (!PyTuple_GetString(poArgs, 1, &szLayer))

  00029	8d 45 fc	 lea	 eax, DWORD PTR _szLayer$[ebp]
  0002c	50		 push	 eax
  0002d	6a 01		 push	 1
  0002f	ff 75 0c	 push	 DWORD PTR _poArgs$[ebp]
  00032	e8 00 00 00 00	 call	 ?PyTuple_GetString@@YA_NPAU_object@@HPAPAD@Z ; PyTuple_GetString
  00037	83 c4 0c	 add	 esp, 12			; 0000000cH
  0003a	84 c0		 test	 al, al
  0003c	74 dd		 je	 SHORT $LN5@wndMgrRegi

; 135  : 	{
; 136  : 		return Py_BuildException();
; 137  : 	}
; 138  : 
; 139  : 	UI::CWindow * pWindow = UI::CWindowManager::Instance().RegisterMarkBox(po, szLayer);

  0003e	ff 75 fc	 push	 DWORD PTR _szLayer$[ebp]
  00041	8b 0d 00 00 00
	00		 mov	 ecx, DWORD PTR ?ms_singleton@?$CSingleton@VCWindowManager@UI@@@@0PAVCWindowManager@UI@@A ; CSingleton<UI::CWindowManager>::ms_singleton
  00047	ff 75 f8	 push	 DWORD PTR _po$[ebp]
  0004a	e8 00 00 00 00	 call	 ?RegisterMarkBox@CWindowManager@UI@@QAEPAVCWindow@2@PAU_object@@PBD@Z ; UI::CWindowManager::RegisterMarkBox

; 140  : 	return Py_BuildValue("i", pWindow);

  0004f	50		 push	 eax
  00050	68 00 00 00 00	 push	 OFFSET ??_C@_01KBJDNOO@i@
  00055	ff 15 00 00 00
	00		 call	 DWORD PTR __imp__Py_BuildValue
  0005b	83 c4 08	 add	 esp, 8

; 141  : }

  0005e	8b e5		 mov	 esp, ebp
  00060	5d		 pop	 ebp
  00061	c3		 ret	 0
?wndMgrRegisterMarkBox@@YAPAU_object@@PAU1@0@Z ENDP	; wndMgrRegisterMarkBox
_TEXT	ENDS
; Function compile flags: /Ogtp
; File C:\Users\flourine\Desktop\Xantios\client-src\Code\eterPythonLib\PythonWindowManagerModule.cpp
;	COMDAT ?wndMgrRegisterTextLine@@YAPAU_object@@PAU1@0@Z
_TEXT	SEGMENT
_po$ = -8						; size = 4
_szLayer$ = -4						; size = 4
_poSelf$ = 8						; size = 4
_poArgs$ = 12						; size = 4
?wndMgrRegisterTextLine@@YAPAU_object@@PAU1@0@Z PROC	; wndMgrRegisterTextLine, COMDAT

; 109  : {

  00000	55		 push	 ebp
  00001	8b ec		 mov	 ebp, esp
  00003	83 ec 08	 sub	 esp, 8

; 110  : 	PyObject * po;
; 111  : 	if (!PyTuple_GetObject(poArgs, 0, &po))

  00006	8d 45 f8	 lea	 eax, DWORD PTR _po$[ebp]
  00009	50		 push	 eax
  0000a	6a 00		 push	 0
  0000c	ff 75 0c	 push	 DWORD PTR _poArgs$[ebp]
  0000f	e8 00 00 00 00	 call	 ?PyTuple_GetObject@@YA_NPAU_object@@HPAPAU1@@Z ; PyTuple_GetObject
  00014	83 c4 0c	 add	 esp, 12			; 0000000cH
  00017	84 c0		 test	 al, al
  00019	75 0e		 jne	 SHORT $LN2@wndMgrRegi
$LN5@wndMgrRegi:

; 123  : }

  0001b	6a 00		 push	 0
  0001d	e8 00 00 00 00	 call	 ?Py_BuildException@@YAPAU_object@@PBDZZ ; Py_BuildException
  00022	83 c4 04	 add	 esp, 4
  00025	8b e5		 mov	 esp, ebp
  00027	5d		 pop	 ebp
  00028	c3		 ret	 0
$LN2@wndMgrRegi:

; 112  : 	{
; 113  : 		return Py_BuildException();
; 114  : 	}
; 115  : 	char * szLayer;
; 116  : 	if (!PyTuple_GetString(poArgs, 1, &szLayer))

  00029	8d 45 fc	 lea	 eax, DWORD PTR _szLayer$[ebp]
  0002c	50		 push	 eax
  0002d	6a 01		 push	 1
  0002f	ff 75 0c	 push	 DWORD PTR _poArgs$[ebp]
  00032	e8 00 00 00 00	 call	 ?PyTuple_GetString@@YA_NPAU_object@@HPAPAD@Z ; PyTuple_GetString
  00037	83 c4 0c	 add	 esp, 12			; 0000000cH
  0003a	84 c0		 test	 al, al
  0003c	74 dd		 je	 SHORT $LN5@wndMgrRegi

; 117  : 	{
; 118  : 		return Py_BuildException();
; 119  : 	}
; 120  : 
; 121  : 	UI::CWindow * pWindow = UI::CWindowManager::Instance().RegisterTextLine(po, szLayer);

  0003e	ff 75 fc	 push	 DWORD PTR _szLayer$[ebp]
  00041	8b 0d 00 00 00
	00		 mov	 ecx, DWORD PTR ?ms_singleton@?$CSingleton@VCWindowManager@UI@@@@0PAVCWindowManager@UI@@A ; CSingleton<UI::CWindowManager>::ms_singleton
  00047	ff 75 f8	 push	 DWORD PTR _po$[ebp]
  0004a	e8 00 00 00 00	 call	 ?RegisterTextLine@CWindowManager@UI@@QAEPAVCWindow@2@PAU_object@@PBD@Z ; UI::CWindowManager::RegisterTextLine

; 122  : 	return Py_BuildValue("i", pWindow);

  0004f	50		 push	 eax
  00050	68 00 00 00 00	 push	 OFFSET ??_C@_01KBJDNOO@i@
  00055	ff 15 00 00 00
	00		 call	 DWORD PTR __imp__Py_BuildValue
  0005b	83 c4 08	 add	 esp, 8

; 123  : }

  0005e	8b e5		 mov	 esp, ebp
  00060	5d		 pop	 ebp
  00061	c3		 ret	 0
?wndMgrRegisterTextLine@@YAPAU_object@@PAU1@0@Z ENDP	; wndMgrRegisterTextLine
_TEXT	ENDS
; Function compile flags: /Ogtp
; File C:\Users\flourine\Desktop\Xantios\client-src\Code\eterPythonLib\PythonWindowManagerModule.cpp
;	COMDAT ?wndMgrRegisterGridSlotWindow@@YAPAU_object@@PAU1@0@Z
_TEXT	SEGMENT
_po$ = -8						; size = 4
_szLayer$ = -4						; size = 4
_poSelf$ = 8						; size = 4
_poArgs$ = 12						; size = 4
?wndMgrRegisterGridSlotWindow@@YAPAU_object@@PAU1@0@Z PROC ; wndMgrRegisterGridSlotWindow, COMDAT

; 91   : {

  00000	55		 push	 ebp
  00001	8b ec		 mov	 ebp, esp
  00003	83 ec 08	 sub	 esp, 8

; 92   : 	PyObject * po;
; 93   : 	if (!PyTuple_GetObject(poArgs, 0, &po))

  00006	8d 45 f8	 lea	 eax, DWORD PTR _po$[ebp]
  00009	50		 push	 eax
  0000a	6a 00		 push	 0
  0000c	ff 75 0c	 push	 DWORD PTR _poArgs$[ebp]
  0000f	e8 00 00 00 00	 call	 ?PyTuple_GetObject@@YA_NPAU_object@@HPAPAU1@@Z ; PyTuple_GetObject
  00014	83 c4 0c	 add	 esp, 12			; 0000000cH
  00017	84 c0		 test	 al, al
  00019	75 0e		 jne	 SHORT $LN2@wndMgrRegi
$LN5@wndMgrRegi:

; 105  : }

  0001b	6a 00		 push	 0
  0001d	e8 00 00 00 00	 call	 ?Py_BuildException@@YAPAU_object@@PBDZZ ; Py_BuildException
  00022	83 c4 04	 add	 esp, 4
  00025	8b e5		 mov	 esp, ebp
  00027	5d		 pop	 ebp
  00028	c3		 ret	 0
$LN2@wndMgrRegi:

; 94   : 	{
; 95   : 		return Py_BuildException();
; 96   : 	}
; 97   : 	char * szLayer;
; 98   : 	if (!PyTuple_GetString(poArgs, 1, &szLayer))

  00029	8d 45 fc	 lea	 eax, DWORD PTR _szLayer$[ebp]
  0002c	50		 push	 eax
  0002d	6a 01		 push	 1
  0002f	ff 75 0c	 push	 DWORD PTR _poArgs$[ebp]
  00032	e8 00 00 00 00	 call	 ?PyTuple_GetString@@YA_NPAU_object@@HPAPAD@Z ; PyTuple_GetString
  00037	83 c4 0c	 add	 esp, 12			; 0000000cH
  0003a	84 c0		 test	 al, al
  0003c	74 dd		 je	 SHORT $LN5@wndMgrRegi

; 99   : 	{
; 100  : 		return Py_BuildException();
; 101  : 	}
; 102  : 
; 103  : 	UI::CWindow * pWindow = UI::CWindowManager::Instance().RegisterGridSlotWindow(po, szLayer);

  0003e	ff 75 fc	 push	 DWORD PTR _szLayer$[ebp]
  00041	8b 0d 00 00 00
	00		 mov	 ecx, DWORD PTR ?ms_singleton@?$CSingleton@VCWindowManager@UI@@@@0PAVCWindowManager@UI@@A ; CSingleton<UI::CWindowManager>::ms_singleton
  00047	ff 75 f8	 push	 DWORD PTR _po$[ebp]
  0004a	e8 00 00 00 00	 call	 ?RegisterGridSlotWindow@CWindowManager@UI@@QAEPAVCWindow@2@PAU_object@@PBD@Z ; UI::CWindowManager::RegisterGridSlotWindow

; 104  : 	return Py_BuildValue("i", pWindow);

  0004f	50		 push	 eax
  00050	68 00 00 00 00	 push	 OFFSET ??_C@_01KBJDNOO@i@
  00055	ff 15 00 00 00
	00		 call	 DWORD PTR __imp__Py_BuildValue
  0005b	83 c4 08	 add	 esp, 8

; 105  : }

  0005e	8b e5		 mov	 esp, ebp
  00060	5d		 pop	 ebp
  00061	c3		 ret	 0
?wndMgrRegisterGridSlotWindow@@YAPAU_object@@PAU1@0@Z ENDP ; wndMgrRegisterGridSlotWindow
_TEXT	ENDS
; Function compile flags: /Ogtp
; File C:\Users\flourine\Desktop\Xantios\client-src\Code\eterPythonLib\PythonWindowManagerModule.cpp
;	COMDAT ?wndMgrRegisterSlotWindow@@YAPAU_object@@PAU1@0@Z
_TEXT	SEGMENT
_po$ = -8						; size = 4
_szLayer$ = -4						; size = 4
_poSelf$ = 8						; size = 4
_poArgs$ = 12						; size = 4
?wndMgrRegisterSlotWindow@@YAPAU_object@@PAU1@0@Z PROC	; wndMgrRegisterSlotWindow, COMDAT

; 73   : {

  00000	55		 push	 ebp
  00001	8b ec		 mov	 ebp, esp
  00003	83 ec 08	 sub	 esp, 8

; 74   : 	PyObject * po;
; 75   : 	if (!PyTuple_GetObject(poArgs, 0, &po))

  00006	8d 45 f8	 lea	 eax, DWORD PTR _po$[ebp]
  00009	50		 push	 eax
  0000a	6a 00		 push	 0
  0000c	ff 75 0c	 push	 DWORD PTR _poArgs$[ebp]
  0000f	e8 00 00 00 00	 call	 ?PyTuple_GetObject@@YA_NPAU_object@@HPAPAU1@@Z ; PyTuple_GetObject
  00014	83 c4 0c	 add	 esp, 12			; 0000000cH
  00017	84 c0		 test	 al, al
  00019	75 0e		 jne	 SHORT $LN2@wndMgrRegi
$LN5@wndMgrRegi:

; 87   : }

  0001b	6a 00		 push	 0
  0001d	e8 00 00 00 00	 call	 ?Py_BuildException@@YAPAU_object@@PBDZZ ; Py_BuildException
  00022	83 c4 04	 add	 esp, 4
  00025	8b e5		 mov	 esp, ebp
  00027	5d		 pop	 ebp
  00028	c3		 ret	 0
$LN2@wndMgrRegi:

; 76   : 	{
; 77   : 		return Py_BuildException();
; 78   : 	}
; 79   : 	char * szLayer;
; 80   : 	if (!PyTuple_GetString(poArgs, 1, &szLayer))

  00029	8d 45 fc	 lea	 eax, DWORD PTR _szLayer$[ebp]
  0002c	50		 push	 eax
  0002d	6a 01		 push	 1
  0002f	ff 75 0c	 push	 DWORD PTR _poArgs$[ebp]
  00032	e8 00 00 00 00	 call	 ?PyTuple_GetString@@YA_NPAU_object@@HPAPAD@Z ; PyTuple_GetString
  00037	83 c4 0c	 add	 esp, 12			; 0000000cH
  0003a	84 c0		 test	 al, al
  0003c	74 dd		 je	 SHORT $LN5@wndMgrRegi

; 81   : 	{
; 82   : 		return Py_BuildException();
; 83   : 	}
; 84   : 
; 85   : 	UI::CWindow * pWindow = UI::CWindowManager::Instance().RegisterSlotWindow(po, szLayer);

  0003e	ff 75 fc	 push	 DWORD PTR _szLayer$[ebp]
  00041	8b 0d 00 00 00
	00		 mov	 ecx, DWORD PTR ?ms_singleton@?$CSingleton@VCWindowManager@UI@@@@0PAVCWindowManager@UI@@A ; CSingleton<UI::CWindowManager>::ms_singleton
  00047	ff 75 f8	 push	 DWORD PTR _po$[ebp]
  0004a	e8 00 00 00 00	 call	 ?RegisterSlotWindow@CWindowManager@UI@@QAEPAVCWindow@2@PAU_object@@PBD@Z ; UI::CWindowManager::RegisterSlotWindow

; 86   : 	return Py_BuildValue("i", pWindow);

  0004f	50		 push	 eax
  00050	68 00 00 00 00	 push	 OFFSET ??_C@_01KBJDNOO@i@
  00055	ff 15 00 00 00
	00		 call	 DWORD PTR __imp__Py_BuildValue
  0005b	83 c4 08	 add	 esp, 8

; 87   : }

  0005e	8b e5		 mov	 esp, ebp
  00060	5d		 pop	 ebp
  00061	c3		 ret	 0
?wndMgrRegisterSlotWindow@@YAPAU_object@@PAU1@0@Z ENDP	; wndMgrRegisterSlotWindow
_TEXT	ENDS
; Function compile flags: /Ogtp
; File C:\Users\flourine\Desktop\Xantios\client-src\Code\eterPythonLib\PythonWindowManagerModule.cpp
;	COMDAT ?wndMgrRegister@@YAPAU_object@@PAU1@0@Z
_TEXT	SEGMENT
_po$ = -8						; size = 4
_szLayer$ = -4						; size = 4
_poSelf$ = 8						; size = 4
_poArgs$ = 12						; size = 4
?wndMgrRegister@@YAPAU_object@@PAU1@0@Z PROC		; wndMgrRegister, COMDAT

; 49   : {

  00000	55		 push	 ebp
  00001	8b ec		 mov	 ebp, esp
  00003	83 ec 08	 sub	 esp, 8

; 50   : 	PyObject * po;
; 51   : 	if (!PyTuple_GetObject(poArgs, 0, &po))

  00006	8d 45 f8	 lea	 eax, DWORD PTR _po$[ebp]
  00009	50		 push	 eax
  0000a	6a 00		 push	 0
  0000c	ff 75 0c	 push	 DWORD PTR _poArgs$[ebp]
  0000f	e8 00 00 00 00	 call	 ?PyTuple_GetObject@@YA_NPAU_object@@HPAPAU1@@Z ; PyTuple_GetObject
  00014	83 c4 0c	 add	 esp, 12			; 0000000cH
  00017	84 c0		 test	 al, al
  00019	75 0e		 jne	 SHORT $LN2@wndMgrRegi
$LN6@wndMgrRegi:

; 69   : }

  0001b	6a 00		 push	 0
  0001d	e8 00 00 00 00	 call	 ?Py_BuildException@@YAPAU_object@@PBDZZ ; Py_BuildException
  00022	83 c4 04	 add	 esp, 4
  00025	8b e5		 mov	 esp, ebp
  00027	5d		 pop	 ebp
  00028	c3		 ret	 0
$LN2@wndMgrRegi:

; 52   : 	{
; 53   : 		return Py_BuildException();
; 54   : 	}
; 55   : 	char * szLayer;
; 56   : 	if (!PyTuple_GetString(poArgs, 1, &szLayer))

  00029	8d 45 fc	 lea	 eax, DWORD PTR _szLayer$[ebp]
  0002c	50		 push	 eax
  0002d	6a 01		 push	 1
  0002f	ff 75 0c	 push	 DWORD PTR _poArgs$[ebp]
  00032	e8 00 00 00 00	 call	 ?PyTuple_GetString@@YA_NPAU_object@@HPAPAD@Z ; PyTuple_GetString
  00037	83 c4 0c	 add	 esp, 12			; 0000000cH
  0003a	84 c0		 test	 al, al
  0003c	74 dd		 je	 SHORT $LN6@wndMgrRegi

; 57   : 	{
; 58   : 		return Py_BuildException();
; 59   : 	}
; 60   : 
; 61   : 	UI::CWindowManager& kWndMgr = UI::CWindowManager::Instance();
; 62   : 	UI::CWindow * pWindow = kWndMgr.RegisterWindow(po, szLayer);

  0003e	ff 75 fc	 push	 DWORD PTR _szLayer$[ebp]
  00041	8b 0d 00 00 00
	00		 mov	 ecx, DWORD PTR ?ms_singleton@?$CSingleton@VCWindowManager@UI@@@@0PAVCWindowManager@UI@@A ; CSingleton<UI::CWindowManager>::ms_singleton
  00047	ff 75 f8	 push	 DWORD PTR _po$[ebp]
  0004a	e8 00 00 00 00	 call	 ?RegisterWindow@CWindowManager@UI@@QAEPAVCWindow@2@PAU_object@@PBD@Z ; UI::CWindowManager::RegisterWindow

; 63   : 	if (!pWindow)

  0004f	85 c0		 test	 eax, eax
  00051	74 c8		 je	 SHORT $LN6@wndMgrRegi

; 64   : 	{
; 65   : 		return Py_BuildException();
; 66   : 	}
; 67   : 
; 68   : 	return Py_BuildValue("i", pWindow);

  00053	50		 push	 eax
  00054	68 00 00 00 00	 push	 OFFSET ??_C@_01KBJDNOO@i@
  00059	ff 15 00 00 00
	00		 call	 DWORD PTR __imp__Py_BuildValue
  0005f	83 c4 08	 add	 esp, 8

; 69   : }

  00062	8b e5		 mov	 esp, ebp
  00064	5d		 pop	 ebp
  00065	c3		 ret	 0
?wndMgrRegister@@YAPAU_object@@PAU1@0@Z ENDP		; wndMgrRegister
_TEXT	ENDS
; Function compile flags: /Ogtp
; File C:\Users\flourine\Desktop\Xantios\client-src\Code\eterPythonLib\PythonWindowManagerModule.cpp
;	COMDAT ?wndMgrSetMouseHandler@@YAPAU_object@@PAU1@0@Z
_TEXT	SEGMENT
_poHandler$ = -4					; size = 4
_poSelf$ = 8						; size = 4
_poArgs$ = 12						; size = 4
?wndMgrSetMouseHandler@@YAPAU_object@@PAU1@0@Z PROC	; wndMgrSetMouseHandler, COMDAT

; 34   : {

  00000	55		 push	 ebp
  00001	8b ec		 mov	 ebp, esp
  00003	51		 push	 ecx

; 35   : 	PyObject * poHandler;
; 36   : 	if (!PyTuple_GetObject(poArgs, 0, &poHandler))

  00004	8d 45 fc	 lea	 eax, DWORD PTR _poHandler$[ebp]
  00007	50		 push	 eax
  00008	6a 00		 push	 0
  0000a	ff 75 0c	 push	 DWORD PTR _poArgs$[ebp]
  0000d	e8 00 00 00 00	 call	 ?PyTuple_GetObject@@YA_NPAU_object@@HPAPAU1@@Z ; PyTuple_GetObject
  00012	83 c4 0c	 add	 esp, 12			; 0000000cH
  00015	84 c0		 test	 al, al
  00017	75 0e		 jne	 SHORT $LN2@wndMgrSetM

; 37   : 	{
; 38   : 		return Py_BuildException();

  00019	6a 00		 push	 0
  0001b	e8 00 00 00 00	 call	 ?Py_BuildException@@YAPAU_object@@PBDZZ ; Py_BuildException
  00020	83 c4 04	 add	 esp, 4

; 43   : }

  00023	8b e5		 mov	 esp, ebp
  00025	5d		 pop	 ebp
  00026	c3		 ret	 0
$LN2@wndMgrSetM:

; 39   : 	}
; 40   : 
; 41   : 	UI::CWindowManager::Instance().SetMouseHandler(poHandler);

  00027	ff 75 fc	 push	 DWORD PTR _poHandler$[ebp]
  0002a	8b 0d 00 00 00
	00		 mov	 ecx, DWORD PTR ?ms_singleton@?$CSingleton@VCWindowManager@UI@@@@0PAVCWindowManager@UI@@A ; CSingleton<UI::CWindowManager>::ms_singleton
  00030	e8 00 00 00 00	 call	 ?SetMouseHandler@CWindowManager@UI@@QAEXPAU_object@@@Z ; UI::CWindowManager::SetMouseHandler

; 42   : 	return Py_BuildNone();

  00035	e8 00 00 00 00	 call	 ?Py_BuildNone@@YAPAU_object@@XZ ; Py_BuildNone

; 43   : }

  0003a	8b e5		 mov	 esp, ebp
  0003c	5d		 pop	 ebp
  0003d	c3		 ret	 0
?wndMgrSetMouseHandler@@YAPAU_object@@PAU1@0@Z ENDP	; wndMgrSetMouseHandler
_TEXT	ENDS
; Function compile flags: /Ogtp
; File C:\Users\flourine\Desktop\Xantios\client-src\Code\eterPythonLib\PythonWindowManagerModule.cpp
;	COMDAT ?wndMgrOnceIgnoreMouseLeftButtonUpEvent@@YAPAU_object@@PAU1@0@Z
_TEXT	SEGMENT
_poSelf$ = 8						; size = 4
_poArgs$ = 12						; size = 4
?wndMgrOnceIgnoreMouseLeftButtonUpEvent@@YAPAU_object@@PAU1@0@Z PROC ; wndMgrOnceIgnoreMouseLeftButtonUpEvent, COMDAT

; 29   : 	UI::CWindowManager::Instance().OnceIgnoreMouseLeftButtonUpEvent();

  00000	8b 0d 00 00 00
	00		 mov	 ecx, DWORD PTR ?ms_singleton@?$CSingleton@VCWindowManager@UI@@@@0PAVCWindowManager@UI@@A ; CSingleton<UI::CWindowManager>::ms_singleton
  00006	e8 00 00 00 00	 call	 ?OnceIgnoreMouseLeftButtonUpEvent@CWindowManager@UI@@QAEXXZ ; UI::CWindowManager::OnceIgnoreMouseLeftButtonUpEvent

; 30   : 	return Py_BuildNone();

  0000b	e9 00 00 00 00	 jmp	 ?Py_BuildNone@@YAPAU_object@@XZ ; Py_BuildNone
?wndMgrOnceIgnoreMouseLeftButtonUpEvent@@YAPAU_object@@PAU1@0@Z ENDP ; wndMgrOnceIgnoreMouseLeftButtonUpEvent
_TEXT	ENDS
; Function compile flags: /Ogtp
; File C:\Users\flourine\Desktop\Xantios\client-src\Code\eterPythonLib\PythonWindowManagerModule.cpp
;	COMDAT ?wndMgrGetAspect@@YAPAU_object@@PAU1@0@Z
_TEXT	SEGMENT
_poSelf$ = 8						; size = 4
_poArgs$ = 12						; size = 4
?wndMgrGetAspect@@YAPAU_object@@PAU1@0@Z PROC		; wndMgrGetAspect, COMDAT

; 24   : 	return Py_BuildValue("f", UI::CWindowManager::Instance().GetAspect());

  00000	8b 0d 00 00 00
	00		 mov	 ecx, DWORD PTR ?ms_singleton@?$CSingleton@VCWindowManager@UI@@@@0PAVCWindowManager@UI@@A ; CSingleton<UI::CWindowManager>::ms_singleton
  00006	e8 00 00 00 00	 call	 ?GetAspect@CWindowManager@UI@@QAEMXZ ; UI::CWindowManager::GetAspect
  0000b	83 ec 08	 sub	 esp, 8
  0000e	dd 1c 24	 fstp	 QWORD PTR [esp]
  00011	68 00 00 00 00	 push	 OFFSET ??_C@_01INIBCBCB@f@
  00016	ff 15 00 00 00
	00		 call	 DWORD PTR __imp__Py_BuildValue
  0001c	83 c4 0c	 add	 esp, 12			; 0000000cH

; 25   : }

  0001f	c3		 ret	 0
?wndMgrGetAspect@@YAPAU_object@@PAU1@0@Z ENDP		; wndMgrGetAspect
_TEXT	ENDS
; Function compile flags: /Ogtp
; File C:\Users\flourine\Desktop\Xantios\client-src\Code\eterPythonLib\PythonWindowManagerModule.cpp
;	COMDAT ?PyTuple_GetWindow@@YA_NPAU_object@@HPAPAVCWindow@UI@@@Z
_TEXT	SEGMENT
_iHandle$ = -4						; size = 4
_poArgs$ = 8						; size = 4
_pos$ = 12						; size = 4
_ppRetWindow$ = 16					; size = 4
?PyTuple_GetWindow@@YA_NPAU_object@@HPAPAVCWindow@UI@@@Z PROC ; PyTuple_GetWindow, COMDAT

; 7    : {

  00000	55		 push	 ebp
  00001	8b ec		 mov	 ebp, esp
  00003	51		 push	 ecx

; 8    : 	int iHandle;
; 9    : 	if (!PyTuple_GetInteger(poArgs, pos, &iHandle))

  00004	8d 45 fc	 lea	 eax, DWORD PTR _iHandle$[ebp]
  00007	50		 push	 eax
  00008	ff 75 0c	 push	 DWORD PTR _pos$[ebp]
  0000b	ff 75 08	 push	 DWORD PTR _poArgs$[ebp]
  0000e	e8 00 00 00 00	 call	 ?PyTuple_GetInteger@@YA_NPAU_object@@HPAH@Z ; PyTuple_GetInteger
  00013	83 c4 0c	 add	 esp, 12			; 0000000cH
  00016	84 c0		 test	 al, al
  00018	74 12		 je	 SHORT $LN5@PyTuple_Ge

; 10   : 	{
; 11   : 		return false;
; 12   : 	}
; 13   : 	if (!iHandle)

  0001a	8b 4d fc	 mov	 ecx, DWORD PTR _iHandle$[ebp]
  0001d	85 c9		 test	 ecx, ecx
  0001f	74 0b		 je	 SHORT $LN5@PyTuple_Ge

; 16   : 	}
; 17   : 
; 18   : 	*ppRetWindow = (UI::CWindow*)iHandle;

  00021	8b 45 10	 mov	 eax, DWORD PTR _ppRetWindow$[ebp]
  00024	89 08		 mov	 DWORD PTR [eax], ecx

; 19   : 	return true;

  00026	b0 01		 mov	 al, 1

; 20   : }

  00028	8b e5		 mov	 esp, ebp
  0002a	5d		 pop	 ebp
  0002b	c3		 ret	 0
$LN5@PyTuple_Ge:

; 14   : 	{
; 15   : 		return false;

  0002c	32 c0		 xor	 al, al

; 20   : }

  0002e	8b e5		 mov	 esp, ebp
  00030	5d		 pop	 ebp
  00031	c3		 ret	 0
?PyTuple_GetWindow@@YA_NPAU_object@@HPAPAVCWindow@UI@@@Z ENDP ; PyTuple_GetWindow
_TEXT	ENDS
; Function compile flags: /Ogtp
; File C:\Program Files\Microsoft Visual Studio\2022\Community\VC\Tools\MSVC\14.34.31933\include\xmemory
;	COMDAT ??$_Allocate_manually_vector_aligned@U_Default_allocate_traits@std@@@std@@YAPAXI@Z
_TEXT	SEGMENT
__Bytes$ = 8						; size = 4
??$_Allocate_manually_vector_aligned@U_Default_allocate_traits@std@@@std@@YAPAXI@Z PROC ; std::_Allocate_manually_vector_aligned<std::_Default_allocate_traits>, COMDAT

; 127  : __declspec(allocator) void* _Allocate_manually_vector_aligned(const size_t _Bytes) {

  00000	55		 push	 ebp
  00001	8b ec		 mov	 ebp, esp

; 128  :     // allocate _Bytes manually aligned to at least _Big_allocation_alignment
; 129  :     const size_t _Block_size = _Non_user_size + _Bytes;

  00003	8b 45 08	 mov	 eax, DWORD PTR __Bytes$[ebp]
  00006	8d 48 23	 lea	 ecx, DWORD PTR [eax+35]

; 130  :     if (_Block_size <= _Bytes) {

  00009	3b c8		 cmp	 ecx, eax
  0000b	0f 86 00 00 00
	00		 jbe	 ?_Throw_bad_array_new_length@std@@YAXXZ ; std::_Throw_bad_array_new_length

; 77   :         return ::operator new(_Bytes);

  00011	51		 push	 ecx
  00012	e8 00 00 00 00	 call	 ??2@YAPAXI@Z		; operator new

; 131  :         _Throw_bad_array_new_length(); // add overflow
; 132  :     }
; 133  : 
; 134  :     const uintptr_t _Ptr_container = reinterpret_cast<uintptr_t>(_Traits::_Allocate(_Block_size));

  00017	8b c8		 mov	 ecx, eax

; 77   :         return ::operator new(_Bytes);

  00019	83 c4 04	 add	 esp, 4

; 135  :     _STL_VERIFY(_Ptr_container != 0, "invalid argument"); // validate even in release since we're doing p[-1]

  0001c	85 c9		 test	 ecx, ecx
  0001e	74 0b		 je	 SHORT $LN7@Allocate_m

; 136  :     void* const _Ptr = reinterpret_cast<void*>((_Ptr_container + _Non_user_size) & ~(_Big_allocation_alignment - 1));

  00020	8d 41 23	 lea	 eax, DWORD PTR [ecx+35]
  00023	83 e0 e0	 and	 eax, -32		; ffffffe0H

; 137  :     static_cast<uintptr_t*>(_Ptr)[-1] = _Ptr_container;

  00026	89 48 fc	 mov	 DWORD PTR [eax-4], ecx

; 138  : 
; 139  : #ifdef _DEBUG
; 140  :     static_cast<uintptr_t*>(_Ptr)[-2] = _Big_allocation_sentinel;
; 141  : #endif // _DEBUG
; 142  :     return _Ptr;
; 143  : }

  00029	5d		 pop	 ebp
  0002a	c3		 ret	 0
$LN7@Allocate_m:

; 135  :     _STL_VERIFY(_Ptr_container != 0, "invalid argument"); // validate even in release since we're doing p[-1]

  0002b	e9 00 00 00 00	 jmp	 __invalid_parameter_noinfo_noreturn
??$_Allocate_manually_vector_aligned@U_Default_allocate_traits@std@@@std@@YAPAXI@Z ENDP ; std::_Allocate_manually_vector_aligned<std::_Default_allocate_traits>
_TEXT	ENDS
; Function compile flags: /Ogtp
; File C:\Users\flourine\Desktop\Xantios\client-src\Code\eterPythonLib\PythonWindowManagerModule.cpp
;	COMDAT ?initwndMgr@@YAXXZ
_TEXT	SEGMENT
?initwndMgr@@YAXXZ PROC					; initwndMgr, COMDAT

; 4439 : {

  00000	56		 push	 esi
  00001	57		 push	 edi

; 4440 : 	static PyMethodDef s_methods[] =
; 4441 : 	{
; 4442 : 		// WindowManager
; 4443 : 		{ "SetMouseHandler",			wndMgrSetMouseHandler,				METH_VARARGS },
; 4444 : 		{ "SetScreenSize",				wndMgrSetScreenSize,				METH_VARARGS },
; 4445 : 		{ "GetScreenWidth",				wndMgrGetScreenWidth,				METH_VARARGS },
; 4446 : 		{ "GetScreenHeight",			wndMgrGetScreenHeight,				METH_VARARGS },
; 4447 : 		{ "AttachIcon",					wndMgrAttachIcon,					METH_VARARGS },
; 4448 : 		{ "DeattachIcon",				wndMgrDeattachIcon,					METH_VARARGS },
; 4449 : 		{ "SetAttachingFlag",			wndMgrSetAttachingFlag,				METH_VARARGS },
; 4450 : 		{ "GetAspect",					wndMgrGetAspect,					METH_VARARGS },
; 4451 : 		{ "GetHyperlink",				wndMgrGetHyperlink,					METH_VARARGS },
; 4452 : 		{ "OnceIgnoreMouseLeftButtonUpEvent",	wndMgrOnceIgnoreMouseLeftButtonUpEvent,		METH_VARARGS },
; 4453 : 
; 4454 : 		// Window
; 4455 : 		{ "Register",					wndMgrRegister,						METH_VARARGS },
; 4456 : 		{ "RegisterSlotWindow",			wndMgrRegisterSlotWindow,			METH_VARARGS },
; 4457 : 		{ "RegisterGridSlotWindow",		wndMgrRegisterGridSlotWindow,		METH_VARARGS },
; 4458 : 		{ "RegisterTextLine",			wndMgrRegisterTextLine,				METH_VARARGS },
; 4459 : 		{ "RegisterMarkBox",			wndMgrRegisterMarkBox,				METH_VARARGS },
; 4460 : 		{ "RegisterImageBox",			wndMgrRegisterImageBox,				METH_VARARGS },
; 4461 : 		{ "RegisterExpandedImageBox",	wndMgrRegisterExpandedImageBox,		METH_VARARGS },
; 4462 : 		{ "RegisterAniImageBox",		wndMgrRegisterAniImageBox,			METH_VARARGS },
; 4463 : 		{ "RegisterButton",				wndMgrRegisterButton,				METH_VARARGS },
; 4464 : 		{ "RegisterRadioButton",		wndMgrRegisterRadioButton,			METH_VARARGS },
; 4465 : 		{ "RegisterToggleButton",		wndMgrRegisterToggleButton,			METH_VARARGS },
; 4466 : 		{ "RegisterDragButton",			wndMgrRegisterDragButton,			METH_VARARGS },
; 4467 : 		{ "RegisterBox",				wndMgrRegisterBox,					METH_VARARGS },
; 4468 : 		{ "RegisterBar",				wndMgrRegisterBar,					METH_VARARGS },
; 4469 : 		{ "RegisterLine",				wndMgrRegisterLine,					METH_VARARGS },
; 4470 : 		{ "RegisterBar3D",				wndMgrRegisterBar3D,				METH_VARARGS },
; 4471 : 		{ "RegisterNumberLine",			wndMgrRegisterNumberLine,			METH_VARARGS },
; 4472 : 		{ "Destroy",					wndMgrDestroy,						METH_VARARGS },
; 4473 : 		{ "AddFlag",					wndMgrAddFlag,						METH_VARARGS },
; 4474 : 		{"RemoveFlag",					wndMgrRemoveFlag,					METH_VARARGS},
; 4475 : 		{ "IsRTL",						wndMgrIsRTL,						METH_VARARGS },
; 4476 : 
; 4477 : #ifdef ENABLE_MOUSEWHEEL_EVENT
; 4478 : 		{ "SetScrollable",				wndMgrSetScrollable,				METH_VARARGS },
; 4479 : #endif
; 4480 : 
; 4481 : 		// Base Window
; 4482 : 		{ "SetName",					wndMgrSetName,						METH_VARARGS },
; 4483 : 		{ "GetName",					wndMgrGetName,						METH_VARARGS },
; 4484 : 
; 4485 : 		{ "SetTop",						wndMgrSetTop,						METH_VARARGS },
; 4486 : 		{ "IsTop",						wndMgrIsTop,						METH_VARARGS },
; 4487 : 
; 4488 : 		{ "Show",						wndMgrShow,							METH_VARARGS },
; 4489 : 		{ "Hide",						wndMgrHide,							METH_VARARGS },
; 4490 : 		{ "IsShow",						wndMgrIsShow,						METH_VARARGS },
; 4491 : 		{ "SetParent",					wndMgrSetParent,					METH_VARARGS },
; 4492 : 		{ "SetPickAlways",				wndMgrSetPickAlways,				METH_VARARGS },
; 4493 : 
; 4494 : 		{ "IsFocus",					wndMgrIsFocus,						METH_VARARGS },
; 4495 : 		{ "SetFocus",					wndMgrSetFocus,						METH_VARARGS },
; 4496 : 		{ "KillFocus",					wndMgrKillFocus,					METH_VARARGS },
; 4497 : 		{ "Lock",						wndMgrLock,							METH_VARARGS },
; 4498 : 		{ "Unlock",						wndMgrUnlock,						METH_VARARGS },
; 4499 : 
; 4500 : 		{ "SetWindowSize",				wndMgrSetWndSize,					METH_VARARGS },
; 4501 : 		{ "SetWindowPosition",			wndMgrSetWndPosition,				METH_VARARGS },
; 4502 : 		{ "GetWindowWidth",				wndMgrGetWndWidth,					METH_VARARGS },
; 4503 : 		{ "GetWindowHeight",			wndMgrGetWndHeight,					METH_VARARGS },
; 4504 : 		{ "GetWindowLocalPosition",		wndMgrGetWndLocalPosition,			METH_VARARGS },
; 4505 : 		{ "GetWindowGlobalPosition",	wndMgrGetWndGlobalPosition,			METH_VARARGS },
; 4506 : 		{ "GetWindowRect",				wndMgrGetWindowRect,				METH_VARARGS },
; 4507 : 		{ "SetWindowHorizontalAlign",	wndMgrSetWindowHorizontalAlign,		METH_VARARGS },
; 4508 : 		{ "SetWindowVerticalAlign",		wndMgrSetWindowVerticalAlign,		METH_VARARGS },
; 4509 : 
; 4510 : 		{ "GetChildCount",				wndMgrGetChildCount,				METH_VARARGS },
; 4511 : 
; 4512 : 		{ "IsPickedWindow",				wndMgrIsPickedWindow,				METH_VARARGS },
; 4513 : 		{ "IsIn",						wndMgrIsIn,							METH_VARARGS },
; 4514 : 		{ "GetMouseLocalPosition",		wndMgrGetMouseLocalPosition,		METH_VARARGS },
; 4515 : 		{ "GetMousePosition",			wndMgrGetMousePosition,				METH_VARARGS },
; 4516 : 		{ "IsDragging",					wndMgrIsDragging,					METH_VARARGS },
; 4517 : 
; 4518 : 		{ "SetLimitBias",				wndMgrSetLimitBias,					METH_VARARGS },
; 4519 : 
; 4520 : 		{ "UpdateRect",					wndMgrUpdateRect,					METH_VARARGS },
; 4521 : 
; 4522 : 		// Slot Window
; 4523 : 		{ "AppendSlot",					wndMgrAppendSlot,					METH_VARARGS },
; 4524 : 		{ "ArrangeSlot",				wndMgrArrangeSlot,					METH_VARARGS },
; 4525 : 		{ "ClearSlot",					wndMgrClearSlot,					METH_VARARGS },
; 4526 : 		{ "ClearAllSlot",				wndMgrClearAllSlot,					METH_VARARGS },
; 4527 : 		{ "HasSlot",					wndMgrHasSlot,						METH_VARARGS },
; 4528 : 		{ "SetSlot",					wndMgrSetSlot,						METH_VARARGS },
; 4529 : 		{ "SetSlotCount",				wndMgrSetSlotCount,					METH_VARARGS },
; 4530 : 		{ "SetSlotCountNew",			wndMgrSetSlotCountNew,				METH_VARARGS },
; 4531 : 		{ "SetSlotCoolTime",			wndMgrSetSlotCoolTime,				METH_VARARGS },
; 4532 : 		{ "SetToggleSlot",				wndMgrSetToggleSlot,				METH_VARARGS },
; 4533 : 		{ "ActivateSlot",				wndMgrActivateSlot,					METH_VARARGS },
; 4534 : 		{ "DeactivateSlot",				wndMgrDeactivateSlot,				METH_VARARGS },
; 4535 : 
; 4536 : 		{ "NewActivateSlot",			wndMgrNewActivateSlot,				METH_VARARGS },
; 4537 : 		{ "NewDeactivateSlot",			wndMgrNewDeactivateSlot,			METH_VARARGS },
; 4538 : 
; 4539 : 		{ "EnableSlot",					wndMgrEnableSlot,					METH_VARARGS },
; 4540 : 		{ "DisableSlot",				wndMgrDisableSlot,					METH_VARARGS },
; 4541 : #ifdef ENABLE_RENEWAL_SHOP_SELLING
; 4542 : 		{ "SetUnusableSlot",			wndMgrSetUnusableSlot,				METH_VARARGS },
; 4543 : 		{ "SetUsableSlot",				wndMgrSetUsableSlot,				METH_VARARGS },
; 4544 : #endif
; 4545 : 		{ "ShowSlotBaseImage",			wndMgrShowSlotBaseImage,			METH_VARARGS },
; 4546 : 		{ "HideSlotBaseImage",			wndMgrHideSlotBaseImage,			METH_VARARGS },
; 4547 : 		{ "SetSlotType",				wndMgrSetSlotType,					METH_VARARGS },
; 4548 : 		{ "SetSlotStyle",				wndMgrSetSlotStyle,					METH_VARARGS },
; 4549 : 		{ "SetSlotBaseImage",			wndMgrSetSlotBaseImage,				METH_VARARGS },
; 4550 : 
; 4551 : 		{ "SetCoverButton",				wndMgrSetCoverButton,				METH_VARARGS },
; 4552 : 		{ "EnableCoverButton",			wndMgrEnableCoverButton,			METH_VARARGS },
; 4553 : 		{ "DisableCoverButton",			wndMgrDisableCoverButton,			METH_VARARGS },
; 4554 : 		{ "IsDisableCoverButton",		wndMgrIsDisableCoverButton,			METH_VARARGS },
; 4555 : 		{ "SetAlwaysRenderCoverButton",	wndMgrSetAlwaysRenderCoverButton,	METH_VARARGS },
; 4556 : 		{ "DeleteCoverButton",			wndMgrDeleteCoverButton,			METH_VARARGS },
; 4557 : 
; 4558 : 		{ "GetSlotIndices",				wndMgrGetSlotIndices,				METH_VARARGS },
; 4559 : 
; 4560 : 		{ "AppendSlotButton",			wndMgrAppendSlotButton,				METH_VARARGS },
; 4561 : 		{ "AppendRequirementSignImage",	wndMgrAppendRequirementSignImage,	METH_VARARGS },
; 4562 : 		{ "ShowSlotButton",				wndMgrShowSlotButton,				METH_VARARGS },
; 4563 : 		{ "HideAllSlotButton",			wndMgrHideAllSlotButton,			METH_VARARGS },
; 4564 : 		{ "ShowRequirementSign",		wndMgrShowRequirementSign,			METH_VARARGS },
; 4565 : 		{ "HideRequirementSign",		wndMgrHideRequirementSign,			METH_VARARGS },
; 4566 : 		{ "RefreshSlot",				wndMgrRefreshSlot,					METH_VARARGS },
; 4567 : 		{ "SetUseMode",					wndMgrSetUseMode,					METH_VARARGS },
; 4568 : 		{ "IsUseMode",					wndMgrIsUseMode,					METH_VARARGS },
; 4569 : 		{ "SetUsableItem",				wndMgrSetUsableItem,				METH_VARARGS },
; 4570 : 		{ "IsUsableItem",				wndMgrIsUsableItem,					METH_VARARGS },
; 4571 : 		{ "SetSwitchMode",				wndMgrSetSwitchMode,				METH_VARARGS },
; 4572 : 		{ "IsSwitchMode",				wndMgrIsSwitchMode,					METH_VARARGS },
; 4573 : 		{ "SetSwitchableItem",			wndMgrSetSwitchableItem,			METH_VARARGS },
; 4574 : 		{ "IsSwitchableItem",			wndMgrIsSwitchableItem,				METH_VARARGS },
; 4575 : 		{ "GetPickedSlotNumber",		wndMgrGetPickedSlotNumber,			METH_VARARGS },
; 4576 : 
; 4577 : #ifdef ENABLE_RENEWAL_EXCHANGE
; 4578 : 		{ "SetSlotHighlightedGreeen",	wndMgrSetSlotHighlightedGreeen,		METH_VARARGS },
; 4579 : 		{ "DisableSlotHighlightedGreen", wndMgrDisableSlotHighlightedGreen,	METH_VARARGS },
; 4580 : #endif
; 4581 : 
; 4582 : 		{ "SelectSlot",					wndMgrSelectSlot,					METH_VARARGS },
; 4583 : 		{ "ClearSelected",				wndMgrClearSelected,				METH_VARARGS },
; 4584 : 		{ "GetSelectedSlotCount",		wndMgrGetSelectedSlotCount,			METH_VARARGS },
; 4585 : 		{ "GetSelectedSlotNumber",		wndMgrGetSelectedSlotNumber,		METH_VARARGS },
; 4586 : 		{ "IsSelectedSlot",				wndMgrIsSelectedSlot,				METH_VARARGS },
; 4587 : 		{ "GetSlotCount",				wndMgrGetSlotCount,					METH_VARARGS },
; 4588 : 		{ "LockSlot",					wndMgrLockSlot,						METH_VARARGS },
; 4589 : 		{ "UnlockSlot",					wndMgrUnlockSlot,					METH_VARARGS },
; 4590 : 
; 4591 : 		// Bar
; 4592 : 		{ "SetColor",					wndBarSetColor,						METH_VARARGS },
; 4593 : 
; 4594 : 		// TextLine
; 4595 : 		{ "SetMax",						wndTextSetMax,						METH_VARARGS },
; 4596 : 		{ "SetHorizontalAlign",			wndTextSetHorizontalAlign,			METH_VARARGS },
; 4597 : 		{ "SetVerticalAlign",			wndTextSetVerticalAlign,			METH_VARARGS },
; 4598 : 		{ "SetSecret",					wndTextSetSecret,					METH_VARARGS },
; 4599 : 		{ "SetOutline",					wndTextSetOutline,					METH_VARARGS },
; 4600 : 		{ "SetFeather",					wndTextSetFeather,					METH_VARARGS },
; 4601 : 		{ "SetMultiLine",				wndTextSetMultiLine,				METH_VARARGS },
; 4602 : 		{ "SetText",					wndTextSetText,						METH_VARARGS },
; 4603 : 		{ "GetSpecificTextWidth",		wndTextGetSpecificTextWidth,		METH_VARARGS },
; 4604 : 		{ "SetFontName",				wndTextSetFontName,					METH_VARARGS },
; 4605 : 		{ "SetFontColor",				wndTextSetFontColor,				METH_VARARGS },
; 4606 : 		{ "SetLimitWidth",				wndTextSetLimitWidth,				METH_VARARGS },
; 4607 : 		{ "GetText",					wndTextGetText,						METH_VARARGS },
; 4608 : 		{ "SetClipRect", wndTextSetTextClip, METH_VARARGS },
; 4609 : 		{ "GetTextSize",				wndTextGetTextSize,					METH_VARARGS },
; 4610 : 		{ "ShowCursor",					wndTextShowCursor,					METH_VARARGS },
; 4611 : 		{ "HideCursor",					wndTextHideCursor,					METH_VARARGS },
; 4612 : 		{ "GetCursorPosition",			wndTextGetCursorPosition,			METH_VARARGS },
; 4613 : 		{ "GetCharPositionByCursor",	wndTextGetCharPositionByCursor,		METH_VARARGS },
; 4614 : 		{ "TextPositionToRenderPosition",	wndTextPositionToRenderPosition,	METH_VARARGS },
; 4615 : 		// NumberLine
; 4616 : 		{ "SetNumber",						wndNumberSetNumber,							METH_VARARGS },
; 4617 : 		{ "SetNumberHorizontalAlignCenter",	wndNumberSetNumberHorizontalAlignCenter,	METH_VARARGS },
; 4618 : 		{ "SetNumberHorizontalAlignRight",	wndNumberSetNumberHorizontalAlignRight,		METH_VARARGS },
; 4619 : 		{ "SetNumberVerticalAlignCenter",	wndNumberSetNumberVerticalAlignCenter,		METH_VARARGS },
; 4620 : 		{ "SetPath",						wndNumberSetPath,							METH_VARARGS },
; 4621 : 
; 4622 : 		// ImageBox
; 4623 : 		{ "MarkBox_SetImage",			wndMarkBox_SetImage,				METH_VARARGS },
; 4624 : 		{ "MarkBox_SetImageFilename",	wndMarkBox_SetImageFilename,		METH_VARARGS },
; 4625 : 		{ "MarkBox_Load",				wndMarkBox_Load,					METH_VARARGS },
; 4626 : 		{ "MarkBox_SetIndex",			wndMarkBox_SetIndex,				METH_VARARGS },
; 4627 : 		{ "MarkBox_SetScale",			wndMarkBox_SetScale,				METH_VARARGS },
; 4628 : 		{ "MarkBox_SetDiffuseColor",	wndMarkBox_SetDiffuseColor,			METH_VARARGS },
; 4629 : 
; 4630 : 		// ImageBox
; 4631 : 		{ "LoadImage",					wndImageLoadImage,					METH_VARARGS },
; 4632 : 		{ "SetDiffuseColor",			wndImageSetDiffuseColor,			METH_VARARGS },
; 4633 : 		{ "GetWidth",					wndImageGetWidth,					METH_VARARGS },
; 4634 : 		{ "GetHeight",					wndImageGetHeight,					METH_VARARGS },
; 4635 : 		{ "GetTexturePtr",				wndImageGetTexturePtr,				METH_VARARGS },
; 4636 : 		// ExpandedImageBox
; 4637 : 		{ "SetScale",					wndImageSetScale,					METH_VARARGS },
; 4638 : 		{ "SetOrigin",					wndImageSetOrigin,					METH_VARARGS },
; 4639 : 		{ "SetRotation",				wndImageSetRotation,				METH_VARARGS },
; 4640 : 		{ "SetRenderingMode",			wndImageSetRenderingMode,			METH_VARARGS },
; 4641 : 		// AniImageBox
; 4642 : 		{ "SetDelay",					wndImageSetDelay,					METH_VARARGS },
; 4643 : 		{ "GetDelay",					wndImageGetDelay,					METH_VARARGS },
; 4644 : 		{ "AppendImage",				wndImageAppendImage,				METH_VARARGS },
; 4645 : 		{ "ResetFrame",					wndImageResetFrame,					METH_VARARGS },
; 4646 : 
; 4647 : 		// Button
; 4648 : 		{ "SetUpVisual",				wndButtonSetUpVisual,				METH_VARARGS },
; 4649 : 		{ "SetOverVisual",				wndButtonSetOverVisual,				METH_VARARGS },
; 4650 : 		{ "SetDownVisual",				wndButtonSetDownVisual,				METH_VARARGS },
; 4651 : 		{ "SetDisableVisual",			wndButtonSetDisableVisual,			METH_VARARGS },
; 4652 : 		{ "GetUpVisualFileName",		wndButtonGetUpVisualFileName,		METH_VARARGS },
; 4653 : 		{ "GetOverVisualFileName",		wndButtonGetOverVisualFileName,		METH_VARARGS },
; 4654 : 		{ "GetDownVisualFileName",		wndButtonGetDownVisualFileName,		METH_VARARGS },
; 4655 : 		{ "Flash",						wndButtonFlash,						METH_VARARGS },
; 4656 : 		{ "Enable",						wndButtonEnable,					METH_VARARGS },
; 4657 : 		{ "Disable",					wndButtonDisable,					METH_VARARGS },
; 4658 : 		{ "IsEnabled",					wndButtonIsEnabled,					METH_VARARGS },
; 4659 : 		{ "Down",						wndButtonDown,						METH_VARARGS },
; 4660 : 		{ "SetUp",						wndButtonSetUp,						METH_VARARGS },
; 4661 : 		{ "IsDown",						wndButtonIsDown,					METH_VARARGS },
; 4662 : 
; 4663 : 		// DragButton
; 4664 : 		{ "SetRestrictMovementArea",	wndButtonSetRestrictMovementArea,	METH_VARARGS },
; 4665 : 
; 4666 : 		// For Debug
; 4667 : 		{ "SetOutlineFlag",				wndMgrSetOutlineFlag,				METH_VARARGS },
; 4668 : 		{ "ShowOverInWindowName",		wndMgrShowOverInWindowName,			METH_VARARGS },
; 4669 : 
; 4670 : #ifdef ENABLE_SLOT_WINDOW_EX
; 4671 : 		{ "IsActivatedSlot",			wndMgrIsActivatedSlot, METH_VARARGS },
; 4672 : 		{ "GetSlotCoolTime",			wndMgrGetSlotCoolTime, METH_VARARGS },
; 4673 : #endif
; 4674 : 
; 4675 : #ifdef TRANSMUTATION_SYSTEM
; 4676 : 		{ "EnableSlotCoverImage",		wndMgrEnableSlotCoverImage,			METH_VARARGS },
; 4677 : 		{ "DisableSlotCoverImage",		wndMgrDisableSlotCoverImage,		METH_VARARGS },
; 4678 : 		{ "ActivateChangeLookSlot",		wndMgrActivateChangeLookSlot,		METH_VARARGS },
; 4679 : 		{ "DeactivateChangeLookSlot",	wndMgrDeactivateChangeLookSlot,		METH_VARARGS },
; 4680 : #endif
; 4681 : 		{ "GetItemIndex",				wndMgrGetItemIndex,					METH_VARARGS },
; 4682 : 
; 4683 : #ifdef INGAME_WIKI
; 4684 : 		{ "RegisterWikiRenderTarget",	wndMgrRegisterWikiRenderTarget,		METH_VARARGS },
; 4685 : 		{ "SetInsideRender",			wndMgrSetInsideRender,				METH_VARARGS },
; 4686 : 		{ "SetRenderingRect",			wndSetRenderingRect,				METH_VARARGS },
; 4687 : 		{ "GetRenderBox",				wndMgrGetRenderBox,					METH_VARARGS },
; 4688 : 		{ "SetWikiRenderTarget",		wndMgrSetWikiRenderTarget,			METH_VARARGS },
; 4689 : 		{ "SetFixedRenderPos",			wndTextSetFixedRenderPos,			METH_VARARGS },
; 4690 : 		{ "GetRenderPos",				wndTextGetRenderPos,				METH_VARARGS },
; 4691 : 		{ "UnloadImage",				wndImageUnloadImage,				METH_VARARGS },
; 4692 : 		{ "IsShowCursor",				wndTextIsShowCursor,				METH_VARARGS },
; 4693 : #endif
; 4694 : 
; 4695 : #ifdef ENABLE_RT_EXTENSION
; 4696 : 		{ "RegisterRenderTarget",	wndMgrRegisterRenderTarget,			METH_VARARGS },
; 4697 : 		{ "RT_LoadImage",			wndRenderTargetLoadImage,			METH_VARARGS },
; 4698 : 		{ "RT_SetRenderTarget",		wndRenderTargetSetRenderTarget,		METH_VARARGS },
; 4699 : 		{ "RT_SetRenderHair",		wndRenderTargetSetRenderHair,		METH_VARARGS },
; 4700 : 		{ "RT_SetRenderArmor",		wndRenderTargetSetRenderArmor,		METH_VARARGS },
; 4701 : 		{ "RT_SetRenderWeapon",		wndRenderTargetSetRenderWeapon,		METH_VARARGS },
; 4702 : #ifdef ENABLE_SASH_COSTUME_SYSTEM
; 4703 : 		{ "RT_SetRenderSash",		wndRenderTargetSetRenderSash,		METH_VARARGS },
; 4704 : #endif
; 4705 : #ifdef ENABLE_SHINING_SYSTEM
; 4706 : 		{ "RT_SetRenderToggleShining",	wndRenderTargetSetRenderToggleShining,	METH_VARARGS },
; 4707 : #endif
; 4708 : 		{ "RT_SetRenderMotion",		wndRenderTargetSetRendererMotion,	METH_VARARGS },
; 4709 : 		{ "RT_SetRenderDistance",	wndRenderTargetSetRenderDistance,	METH_VARARGS },
; 4710 : 		{ "RT_GetRenderDistance",	wndRenderTargetGetRenderDistance,	METH_VARARGS },
; 4711 : 		{ "RT_SetLightPosition",	wndRenderTargetSetLightPosition,	METH_VARARGS },
; 4712 : 		{ "RT_GetLightPosition",	wndRenderTargetGetLightPosition,	METH_VARARGS },
; 4713 : 		{ "RT_SetRotation",			wndRenderTargetSetRotation,			METH_VARARGS },
; 4714 : 		{ "RT_GetRotation",			wndRenderTargetGetRotation,			METH_VARARGS },
; 4715 : 		{ "RT_SetRotationMode",		wndRenderTargetSetRotationMode,		METH_VARARGS },
; 4716 : 		{ "RT_DestroyRender",		wndRenderTargetDestroyRender,		METH_VARARGS },
; 4717 : 
; 4718 : 		{ "LockCursor",				wndMgrLockCursor,					METH_VARARGS },
; 4719 : 		{ "UnlockCursor",			wndMgrUnlockCursor,					METH_VARARGS },
; 4720 : #endif
; 4721 : 
; 4722 : 		/*** Start New Pet System ***/
; 4723 : 		{ "SetSlotScale", wndMgrSetSlotScale, METH_VARARGS },
; 4724 : 		{ "SetSlotBaseImageScale", wndMgrSetSlotBaseImageScale, METH_VARARGS },
; 4725 : 		/*** End New Pet System ***/
; 4726 : 
; 4727 : 		{ "SetCoolTimeImageBox", wndMgrSetCoolTimeImageBox, METH_VARARGS },
; 4728 : 		{ "SetStartCoolTimeImageBox", wndMgrSetStartCoolTimeImageBox, METH_VARARGS },
; 4729 : 		{ NULL,							NULL,								NULL },
; 4730 : 	};
; 4731 : 
; 4732 : 	PyObject * poModule = Py_InitModule("wndMgr", s_methods);

  00002	68 f5 03 00 00	 push	 1013			; 000003f5H
  00007	6a 00		 push	 0
  00009	6a 00		 push	 0
  0000b	68 00 00 00 00	 push	 OFFSET ?s_methods@?1??initwndMgr@@YAXXZ@4PAUPyMethodDef@@A
  00010	68 00 00 00 00	 push	 OFFSET ??_C@_06CMPPDHLC@wndMgr@
  00015	ff 15 00 00 00
	00		 call	 DWORD PTR __imp__Py_InitModule4

; 4733 : 
; 4734 : //	PyObject * poMgrModule = Py_InitModule("wndMgr", s_methods);
; 4735 : //	PyObject * poTextModule = Py_InitModule("wndText", s_methods);
; 4736 : //	PyObject * poSlotModule = Py_InitModule("wndSlot", s_methods);
; 4737 : 
; 4738 : 	PyModule_AddIntConstant(poModule, "SLOT_STYLE_NONE",				UI::SLOT_STYLE_NONE);

  0001b	8b 35 00 00 00
	00		 mov	 esi, DWORD PTR __imp__PyModule_AddIntConstant
  00021	8b f8		 mov	 edi, eax
  00023	6a 00		 push	 0
  00025	68 00 00 00 00	 push	 OFFSET ??_C@_0BA@CEBPCJJF@SLOT_STYLE_NONE@
  0002a	57		 push	 edi
  0002b	ff d6		 call	 esi

; 4739 : 	PyModule_AddIntConstant(poModule, "SLOT_STYLE_PICK_UP",				UI::SLOT_STYLE_PICK_UP);

  0002d	6a 01		 push	 1
  0002f	68 00 00 00 00	 push	 OFFSET ??_C@_0BD@HIHLPNEG@SLOT_STYLE_PICK_UP@
  00034	57		 push	 edi
  00035	ff d6		 call	 esi

; 4740 : 	PyModule_AddIntConstant(poModule, "SLOT_STYLE_SELECT",				UI::SLOT_STYLE_SELECT);

  00037	6a 02		 push	 2
  00039	68 00 00 00 00	 push	 OFFSET ??_C@_0BC@DPNNOEON@SLOT_STYLE_SELECT@
  0003e	57		 push	 edi
  0003f	ff d6		 call	 esi

; 4741 : 
; 4742 : 	PyModule_AddIntConstant(poModule, "TEXT_HORIZONTAL_ALIGN_LEFT",		CGraphicTextInstance::HORIZONTAL_ALIGN_LEFT);

  00041	6a 01		 push	 1
  00043	68 00 00 00 00	 push	 OFFSET ??_C@_0BL@KJOOHAME@TEXT_HORIZONTAL_ALIGN_LEFT@
  00048	57		 push	 edi
  00049	ff d6		 call	 esi
  0004b	83 c4 44	 add	 esp, 68			; 00000044H

; 4743 : 	PyModule_AddIntConstant(poModule, "TEXT_HORIZONTAL_ALIGN_RIGHT",	CGraphicTextInstance::HORIZONTAL_ALIGN_RIGHT);

  0004e	6a 03		 push	 3
  00050	68 00 00 00 00	 push	 OFFSET ??_C@_0BM@BDNLMDBC@TEXT_HORIZONTAL_ALIGN_RIGHT@
  00055	57		 push	 edi
  00056	ff d6		 call	 esi

; 4744 : 	PyModule_AddIntConstant(poModule, "TEXT_HORIZONTAL_ALIGN_CENTER",	CGraphicTextInstance::HORIZONTAL_ALIGN_CENTER);

  00058	6a 02		 push	 2
  0005a	68 00 00 00 00	 push	 OFFSET ??_C@_0BN@MHHHIBEN@TEXT_HORIZONTAL_ALIGN_CENTER@
  0005f	57		 push	 edi
  00060	ff d6		 call	 esi

; 4745 : 	PyModule_AddIntConstant(poModule, "TEXT_VERTICAL_ALIGN_TOP",		CGraphicTextInstance::VERTICAL_ALIGN_TOP);

  00062	6a 10		 push	 16			; 00000010H
  00064	68 00 00 00 00	 push	 OFFSET ??_C@_0BI@PIKJCBDF@TEXT_VERTICAL_ALIGN_TOP@
  00069	57		 push	 edi
  0006a	ff d6		 call	 esi

; 4746 : 	PyModule_AddIntConstant(poModule, "TEXT_VERTICAL_ALIGN_BOTTOM",		CGraphicTextInstance::VERTICAL_ALIGN_BOTTOM);

  0006c	6a 30		 push	 48			; 00000030H
  0006e	68 00 00 00 00	 push	 OFFSET ??_C@_0BL@IKMFEFFI@TEXT_VERTICAL_ALIGN_BOTTOM@
  00073	57		 push	 edi
  00074	ff d6		 call	 esi

; 4747 : 	PyModule_AddIntConstant(poModule, "TEXT_VERTICAL_ALIGN_CENTER",		CGraphicTextInstance::VERTICAL_ALIGN_CENTER);

  00076	6a 20		 push	 32			; 00000020H
  00078	68 00 00 00 00	 push	 OFFSET ??_C@_0BL@GHLEGJOB@TEXT_VERTICAL_ALIGN_CENTER@
  0007d	57		 push	 edi
  0007e	ff d6		 call	 esi

; 4748 : 
; 4749 : 	PyModule_AddIntConstant(poModule, "HORIZONTAL_ALIGN_LEFT",			UI::CWindow::HORIZONTAL_ALIGN_LEFT);

  00080	6a 00		 push	 0
  00082	68 00 00 00 00	 push	 OFFSET ??_C@_0BG@CEANPPL@HORIZONTAL_ALIGN_LEFT@
  00087	57		 push	 edi
  00088	ff d6		 call	 esi
  0008a	83 c4 48	 add	 esp, 72			; 00000048H

; 4750 : 	PyModule_AddIntConstant(poModule, "HORIZONTAL_ALIGN_CENTER",		UI::CWindow::HORIZONTAL_ALIGN_CENTER);

  0008d	6a 01		 push	 1
  0008f	68 00 00 00 00	 push	 OFFSET ??_C@_0BI@NJMALOKG@HORIZONTAL_ALIGN_CENTER@
  00094	57		 push	 edi
  00095	ff d6		 call	 esi

; 4751 : 	PyModule_AddIntConstant(poModule, "HORIZONTAL_ALIGN_RIGHT",			UI::CWindow::HORIZONTAL_ALIGN_RIGHT);

  00097	6a 02		 push	 2
  00099	68 00 00 00 00	 push	 OFFSET ??_C@_0BH@KFBGEAIA@HORIZONTAL_ALIGN_RIGHT@
  0009e	57		 push	 edi
  0009f	ff d6		 call	 esi

; 4752 : 	PyModule_AddIntConstant(poModule, "VERTICAL_ALIGN_TOP",				UI::CWindow::VERTICAL_ALIGN_TOP);

  000a1	6a 00		 push	 0
  000a3	68 00 00 00 00	 push	 OFFSET ??_C@_0BD@PBJDAEOI@VERTICAL_ALIGN_TOP@
  000a8	57		 push	 edi
  000a9	ff d6		 call	 esi

; 4753 : 	PyModule_AddIntConstant(poModule, "VERTICAL_ALIGN_CENTER",			UI::CWindow::VERTICAL_ALIGN_CENTER);

  000ab	6a 01		 push	 1
  000ad	68 00 00 00 00	 push	 OFFSET ??_C@_0BG@MMBKMGNO@VERTICAL_ALIGN_CENTER@
  000b2	57		 push	 edi
  000b3	ff d6		 call	 esi

; 4754 : 	PyModule_AddIntConstant(poModule, "VERTICAL_ALIGN_BOTTOM",			UI::CWindow::VERTICAL_ALIGN_BOTTOM);

  000b5	6a 02		 push	 2
  000b7	68 00 00 00 00	 push	 OFFSET ??_C@_0BG@CBGLOKGH@VERTICAL_ALIGN_BOTTOM@
  000bc	57		 push	 edi
  000bd	ff d6		 call	 esi

; 4755 : 
; 4756 : 	PyModule_AddIntConstant(poModule, "RENDERING_MODE_MODULATE",		CGraphicExpandedImageInstance::RENDERING_MODE_MODULATE);

  000bf	6a 03		 push	 3
  000c1	68 00 00 00 00	 push	 OFFSET ??_C@_0BI@BNOJCJOH@RENDERING_MODE_MODULATE@
  000c6	57		 push	 edi
  000c7	ff d6		 call	 esi
  000c9	83 c4 48	 add	 esp, 72			; 00000048H
  000cc	5f		 pop	 edi
  000cd	5e		 pop	 esi

; 4757 : }

  000ce	c3		 ret	 0
?initwndMgr@@YAXXZ ENDP					; initwndMgr
_TEXT	ENDS
; Function compile flags: /Ogtp
; File C:\Program Files\Microsoft Visual Studio\2022\Community\VC\Tools\MSVC\14.34.31933\include\exception
;	COMDAT ?_Throw_bad_array_new_length@std@@YAXXZ
_TEXT	SEGMENT
$T1 = -12						; size = 12
?_Throw_bad_array_new_length@std@@YAXXZ PROC		; std::_Throw_bad_array_new_length, COMDAT

; 323  : [[noreturn]] inline void _Throw_bad_array_new_length() {

  00000	55		 push	 ebp
  00001	8b ec		 mov	 ebp, esp
  00003	83 ec 0c	 sub	 esp, 12			; 0000000cH

; 324  :     _THROW(bad_array_new_length{});

  00006	8d 4d f4	 lea	 ecx, DWORD PTR $T1[ebp]
  00009	e8 00 00 00 00	 call	 ??0bad_array_new_length@std@@QAE@XZ ; std::bad_array_new_length::bad_array_new_length
  0000e	68 00 00 00 00	 push	 OFFSET __TI3?AVbad_array_new_length@std@@
  00013	8d 45 f4	 lea	 eax, DWORD PTR $T1[ebp]
  00016	50		 push	 eax
  00017	e8 00 00 00 00	 call	 __CxxThrowException@8
$LN3@Throw_bad_:
  0001c	cc		 int	 3
?_Throw_bad_array_new_length@std@@YAXXZ ENDP		; std::_Throw_bad_array_new_length
_TEXT	ENDS
; Function compile flags: /Ogtp
; File C:\Program Files\Microsoft Visual Studio\2022\Community\VC\Tools\MSVC\14.34.31933\include\vcruntime_exception.h
;	COMDAT ??_Gbad_array_new_length@std@@UAEPAXI@Z
_TEXT	SEGMENT
___flags$ = 8						; size = 4
??_Gbad_array_new_length@std@@UAEPAXI@Z PROC		; std::bad_array_new_length::`scalar deleting destructor', COMDAT
; _this$ = ecx
  00000	55		 push	 ebp
  00001	8b ec		 mov	 ebp, esp

; 89   :     {

  00003	56		 push	 esi
  00004	8b f1		 mov	 esi, ecx

; 90   :         __std_exception_destroy(&_Data);

  00006	8d 46 04	 lea	 eax, DWORD PTR [esi+4]
  00009	c7 06 00 00 00
	00		 mov	 DWORD PTR [esi], OFFSET ??_7exception@std@@6B@
  0000f	50		 push	 eax
  00010	e8 00 00 00 00	 call	 ___std_exception_destroy
  00015	83 c4 04	 add	 esp, 4
  00018	f6 45 08 01	 test	 BYTE PTR ___flags$[ebp], 1
  0001c	74 0b		 je	 SHORT $LN12@scalar
  0001e	6a 0c		 push	 12			; 0000000cH
  00020	56		 push	 esi
  00021	e8 00 00 00 00	 call	 ??3@YAXPAXI@Z		; operator delete
  00026	83 c4 08	 add	 esp, 8
$LN12@scalar:
  00029	8b c6		 mov	 eax, esi
  0002b	5e		 pop	 esi
  0002c	5d		 pop	 ebp
  0002d	c2 04 00	 ret	 4
??_Gbad_array_new_length@std@@UAEPAXI@Z ENDP		; std::bad_array_new_length::`scalar deleting destructor'
_TEXT	ENDS
; Function compile flags: /Ogtp
; File C:\Program Files\Microsoft Visual Studio\2022\Community\VC\Tools\MSVC\14.34.31933\include\vcruntime_exception.h
;	COMDAT ??0bad_array_new_length@std@@QAE@ABV01@@Z
_TEXT	SEGMENT
___that$ = 8						; size = 4
??0bad_array_new_length@std@@QAE@ABV01@@Z PROC		; std::bad_array_new_length::bad_array_new_length, COMDAT
; _this$ = ecx
  00000	55		 push	 ebp
  00001	8b ec		 mov	 ebp, esp

; 72   :     {

  00003	56		 push	 esi
  00004	8b f1		 mov	 esi, ecx
  00006	0f 57 c0	 xorps	 xmm0, xmm0

; 71   :         : _Data()

  00009	8d 46 04	 lea	 eax, DWORD PTR [esi+4]

; 73   :         __std_exception_copy(&_Other._Data, &_Data);

  0000c	50		 push	 eax
  0000d	c7 06 00 00 00
	00		 mov	 DWORD PTR [esi], OFFSET ??_7exception@std@@6B@
  00013	66 0f d6 00	 movq	 QWORD PTR [eax], xmm0
  00017	8b 45 08	 mov	 eax, DWORD PTR ___that$[ebp]
  0001a	83 c0 04	 add	 eax, 4
  0001d	50		 push	 eax
  0001e	e8 00 00 00 00	 call	 ___std_exception_copy
  00023	83 c4 08	 add	 esp, 8
  00026	c7 06 00 00 00
	00		 mov	 DWORD PTR [esi], OFFSET ??_7bad_array_new_length@std@@6B@
  0002c	8b c6		 mov	 eax, esi
  0002e	5e		 pop	 esi
  0002f	5d		 pop	 ebp
  00030	c2 04 00	 ret	 4
??0bad_array_new_length@std@@QAE@ABV01@@Z ENDP		; std::bad_array_new_length::bad_array_new_length
_TEXT	ENDS
; Function compile flags: /Ogtp
; File C:\Program Files\Microsoft Visual Studio\2022\Community\VC\Tools\MSVC\14.34.31933\include\vcruntime_exception.h
;	COMDAT ??1bad_array_new_length@std@@UAE@XZ
_TEXT	SEGMENT
??1bad_array_new_length@std@@UAE@XZ PROC		; std::bad_array_new_length::~bad_array_new_length, COMDAT
; _this$ = ecx

; 90   :         __std_exception_destroy(&_Data);

  00000	8d 41 04	 lea	 eax, DWORD PTR [ecx+4]
  00003	c7 01 00 00 00
	00		 mov	 DWORD PTR [ecx], OFFSET ??_7exception@std@@6B@
  00009	50		 push	 eax
  0000a	e8 00 00 00 00	 call	 ___std_exception_destroy
  0000f	59		 pop	 ecx
  00010	c3		 ret	 0
??1bad_array_new_length@std@@UAE@XZ ENDP		; std::bad_array_new_length::~bad_array_new_length
_TEXT	ENDS
; Function compile flags: /Ogtp
; File C:\Program Files\Microsoft Visual Studio\2022\Community\VC\Tools\MSVC\14.34.31933\include\vcruntime_exception.h
;	COMDAT ??0bad_array_new_length@std@@QAE@XZ
_TEXT	SEGMENT
??0bad_array_new_length@std@@QAE@XZ PROC		; std::bad_array_new_length::bad_array_new_length, COMDAT
; _this$ = ecx

; 141  :     {

  00000	0f 57 c0	 xorps	 xmm0, xmm0

; 142  :     }

  00003	8b c1		 mov	 eax, ecx

; 65   :         : _Data()

  00005	66 0f d6 41 04	 movq	 QWORD PTR [ecx+4], xmm0

; 66   :     {
; 67   :         _Data._What = _Message;

  0000a	c7 41 04 00 00
	00 00		 mov	 DWORD PTR [ecx+4], OFFSET ??_C@_0BF@KINCDENJ@bad?5array?5new?5length@

; 141  :     {

  00011	c7 01 00 00 00
	00		 mov	 DWORD PTR [ecx], OFFSET ??_7bad_array_new_length@std@@6B@

; 142  :     }

  00017	c3		 ret	 0
??0bad_array_new_length@std@@QAE@XZ ENDP		; std::bad_array_new_length::bad_array_new_length
_TEXT	ENDS
; Function compile flags: /Ogtp
; File C:\Program Files\Microsoft Visual Studio\2022\Community\VC\Tools\MSVC\14.34.31933\include\vcruntime_exception.h
;	COMDAT ??_Gbad_alloc@std@@UAEPAXI@Z
_TEXT	SEGMENT
___flags$ = 8						; size = 4
??_Gbad_alloc@std@@UAEPAXI@Z PROC			; std::bad_alloc::`scalar deleting destructor', COMDAT
; _this$ = ecx
  00000	55		 push	 ebp
  00001	8b ec		 mov	 ebp, esp

; 89   :     {

  00003	56		 push	 esi
  00004	8b f1		 mov	 esi, ecx

; 90   :         __std_exception_destroy(&_Data);

  00006	8d 46 04	 lea	 eax, DWORD PTR [esi+4]
  00009	c7 06 00 00 00
	00		 mov	 DWORD PTR [esi], OFFSET ??_7exception@std@@6B@
  0000f	50		 push	 eax
  00010	e8 00 00 00 00	 call	 ___std_exception_destroy
  00015	83 c4 04	 add	 esp, 4
  00018	f6 45 08 01	 test	 BYTE PTR ___flags$[ebp], 1
  0001c	74 0b		 je	 SHORT $LN9@scalar
  0001e	6a 0c		 push	 12			; 0000000cH
  00020	56		 push	 esi
  00021	e8 00 00 00 00	 call	 ??3@YAXPAXI@Z		; operator delete
  00026	83 c4 08	 add	 esp, 8
$LN9@scalar:
  00029	8b c6		 mov	 eax, esi
  0002b	5e		 pop	 esi
  0002c	5d		 pop	 ebp
  0002d	c2 04 00	 ret	 4
??_Gbad_alloc@std@@UAEPAXI@Z ENDP			; std::bad_alloc::`scalar deleting destructor'
_TEXT	ENDS
; Function compile flags: /Ogtp
; File C:\Program Files\Microsoft Visual Studio\2022\Community\VC\Tools\MSVC\14.34.31933\include\vcruntime_exception.h
;	COMDAT ??0bad_alloc@std@@QAE@ABV01@@Z
_TEXT	SEGMENT
___that$ = 8						; size = 4
??0bad_alloc@std@@QAE@ABV01@@Z PROC			; std::bad_alloc::bad_alloc, COMDAT
; _this$ = ecx
  00000	55		 push	 ebp
  00001	8b ec		 mov	 ebp, esp

; 72   :     {

  00003	56		 push	 esi
  00004	8b f1		 mov	 esi, ecx
  00006	0f 57 c0	 xorps	 xmm0, xmm0

; 71   :         : _Data()

  00009	8d 46 04	 lea	 eax, DWORD PTR [esi+4]

; 73   :         __std_exception_copy(&_Other._Data, &_Data);

  0000c	50		 push	 eax
  0000d	c7 06 00 00 00
	00		 mov	 DWORD PTR [esi], OFFSET ??_7exception@std@@6B@
  00013	66 0f d6 00	 movq	 QWORD PTR [eax], xmm0
  00017	8b 45 08	 mov	 eax, DWORD PTR ___that$[ebp]
  0001a	83 c0 04	 add	 eax, 4
  0001d	50		 push	 eax
  0001e	e8 00 00 00 00	 call	 ___std_exception_copy
  00023	83 c4 08	 add	 esp, 8
  00026	c7 06 00 00 00
	00		 mov	 DWORD PTR [esi], OFFSET ??_7bad_alloc@std@@6B@
  0002c	8b c6		 mov	 eax, esi
  0002e	5e		 pop	 esi
  0002f	5d		 pop	 ebp
  00030	c2 04 00	 ret	 4
??0bad_alloc@std@@QAE@ABV01@@Z ENDP			; std::bad_alloc::bad_alloc
_TEXT	ENDS
; Function compile flags: /Ogtp
; File C:\Program Files\Microsoft Visual Studio\2022\Community\VC\Tools\MSVC\14.34.31933\include\vcruntime_exception.h
;	COMDAT ??_Gexception@std@@UAEPAXI@Z
_TEXT	SEGMENT
___flags$ = 8						; size = 4
??_Gexception@std@@UAEPAXI@Z PROC			; std::exception::`scalar deleting destructor', COMDAT
; _this$ = ecx
  00000	55		 push	 ebp
  00001	8b ec		 mov	 ebp, esp

; 89   :     {

  00003	56		 push	 esi
  00004	8b f1		 mov	 esi, ecx

; 90   :         __std_exception_destroy(&_Data);

  00006	8d 46 04	 lea	 eax, DWORD PTR [esi+4]
  00009	c7 06 00 00 00
	00		 mov	 DWORD PTR [esi], OFFSET ??_7exception@std@@6B@
  0000f	50		 push	 eax
  00010	e8 00 00 00 00	 call	 ___std_exception_destroy
  00015	83 c4 04	 add	 esp, 4
  00018	f6 45 08 01	 test	 BYTE PTR ___flags$[ebp], 1
  0001c	74 0b		 je	 SHORT $LN6@scalar
  0001e	6a 0c		 push	 12			; 0000000cH
  00020	56		 push	 esi
  00021	e8 00 00 00 00	 call	 ??3@YAXPAXI@Z		; operator delete
  00026	83 c4 08	 add	 esp, 8
$LN6@scalar:
  00029	8b c6		 mov	 eax, esi
  0002b	5e		 pop	 esi
  0002c	5d		 pop	 ebp
  0002d	c2 04 00	 ret	 4
??_Gexception@std@@UAEPAXI@Z ENDP			; std::exception::`scalar deleting destructor'
_TEXT	ENDS
; Function compile flags: /Ogtp
; File C:\Program Files\Microsoft Visual Studio\2022\Community\VC\Tools\MSVC\14.34.31933\include\vcruntime_exception.h
;	COMDAT ?what@exception@std@@UBEPBDXZ
_TEXT	SEGMENT
?what@exception@std@@UBEPBDXZ PROC			; std::exception::what, COMDAT
; _this$ = ecx

; 95   :         return _Data._What ? _Data._What : "Unknown exception";

  00000	8b 49 04	 mov	 ecx, DWORD PTR [ecx+4]
  00003	b8 00 00 00 00	 mov	 eax, OFFSET ??_C@_0BC@EOODALEL@Unknown?5exception@
  00008	85 c9		 test	 ecx, ecx
  0000a	0f 45 c1	 cmovne	 eax, ecx

; 96   :     }

  0000d	c3		 ret	 0
?what@exception@std@@UBEPBDXZ ENDP			; std::exception::what
_TEXT	ENDS
; Function compile flags: /Ogtp
; File C:\Program Files\Microsoft Visual Studio\2022\Community\VC\Tools\MSVC\14.34.31933\include\vcruntime_exception.h
;	COMDAT ??1exception@std@@UAE@XZ
_TEXT	SEGMENT
??1exception@std@@UAE@XZ PROC				; std::exception::~exception, COMDAT
; _this$ = ecx

; 90   :         __std_exception_destroy(&_Data);

  00000	8d 41 04	 lea	 eax, DWORD PTR [ecx+4]
  00003	c7 01 00 00 00
	00		 mov	 DWORD PTR [ecx], OFFSET ??_7exception@std@@6B@
  00009	50		 push	 eax
  0000a	e8 00 00 00 00	 call	 ___std_exception_destroy
  0000f	59		 pop	 ecx

; 91   :     }

  00010	c3		 ret	 0
??1exception@std@@UAE@XZ ENDP				; std::exception::~exception
_TEXT	ENDS
; Function compile flags: /Ogtp
; File C:\Program Files\Microsoft Visual Studio\2022\Community\VC\Tools\MSVC\14.34.31933\include\vcruntime_exception.h
;	COMDAT ??0exception@std@@QAE@ABV01@@Z
_TEXT	SEGMENT
__Other$ = 8						; size = 4
??0exception@std@@QAE@ABV01@@Z PROC			; std::exception::exception, COMDAT
; _this$ = ecx

; 72   :     {

  00000	55		 push	 ebp
  00001	8b ec		 mov	 ebp, esp
  00003	56		 push	 esi
  00004	8b f1		 mov	 esi, ecx
  00006	0f 57 c0	 xorps	 xmm0, xmm0
  00009	8d 46 04	 lea	 eax, DWORD PTR [esi+4]

; 73   :         __std_exception_copy(&_Other._Data, &_Data);

  0000c	50		 push	 eax
  0000d	c7 06 00 00 00
	00		 mov	 DWORD PTR [esi], OFFSET ??_7exception@std@@6B@
  00013	66 0f d6 00	 movq	 QWORD PTR [eax], xmm0
  00017	8b 45 08	 mov	 eax, DWORD PTR __Other$[ebp]
  0001a	83 c0 04	 add	 eax, 4
  0001d	50		 push	 eax
  0001e	e8 00 00 00 00	 call	 ___std_exception_copy
  00023	83 c4 08	 add	 esp, 8

; 74   :     }

  00026	8b c6		 mov	 eax, esi
  00028	5e		 pop	 esi
  00029	5d		 pop	 ebp
  0002a	c2 04 00	 ret	 4
??0exception@std@@QAE@ABV01@@Z ENDP			; std::exception::exception
_TEXT	ENDS
; Function compile flags: /Ogtp
; File C:\Program Files (x86)\Windows Kits\10\Include\10.0.22621.0\ucrt\stdio.h
;	COMDAT __snprintf
_TEXT	SEGMENT
__Buffer$ = 8						; size = 4
__BufferCount$ = 12					; size = 4
__Format$ = 16						; size = 4
__snprintf PROC						; COMDAT

; 1947 :     {

  00000	55		 push	 ebp
  00001	8b ec		 mov	 ebp, esp

; 1392 :         int const _Result = __stdio_common_vsprintf(

  00003	8d 45 14	 lea	 eax, DWORD PTR __Format$[ebp+4]
  00006	50		 push	 eax
  00007	6a 00		 push	 0
  00009	ff 75 10	 push	 DWORD PTR __Format$[ebp]
  0000c	ff 75 0c	 push	 DWORD PTR __BufferCount$[ebp]
  0000f	ff 75 08	 push	 DWORD PTR __Buffer$[ebp]
  00012	e8 00 00 00 00	 call	 ___local_stdio_printf_options
  00017	8b 08		 mov	 ecx, DWORD PTR [eax]
  00019	ff 70 04	 push	 DWORD PTR [eax+4]
  0001c	83 c9 01	 or	 ecx, 1
  0001f	51		 push	 ecx
  00020	e8 00 00 00 00	 call	 ___stdio_common_vsprintf

; 1393 :             _CRT_INTERNAL_LOCAL_PRINTF_OPTIONS | _CRT_INTERNAL_PRINTF_LEGACY_VSPRINTF_NULL_TERMINATION,
; 1394 :             _Buffer, _BufferCount, _Format, _Locale, _ArgList);
; 1395 : 
; 1396 :         return _Result < 0 ? -1 : _Result;

  00025	83 c9 ff	 or	 ecx, -1
  00028	83 c4 1c	 add	 esp, 28			; 0000001cH
  0002b	85 c0		 test	 eax, eax
  0002d	0f 48 c1	 cmovs	 eax, ecx

; 1948 :         int _Result;
; 1949 :         va_list _ArgList;
; 1950 :         __crt_va_start(_ArgList, _Format);
; 1951 :         _Result = _vsnprintf(_Buffer, _BufferCount, _Format, _ArgList);
; 1952 :         __crt_va_end(_ArgList);
; 1953 :         return _Result;
; 1954 :     }

  00030	5d		 pop	 ebp
  00031	c3		 ret	 0
__snprintf ENDP
_TEXT	ENDS
; Function compile flags: /Ogtp
; File C:\Program Files (x86)\Windows Kits\10\Include\10.0.22621.0\ucrt\corecrt_stdio_config.h
;	COMDAT ___local_stdio_printf_options
_TEXT	SEGMENT
___local_stdio_printf_options PROC			; COMDAT

; 91   :         static unsigned __int64 _OptionsStorage;
; 92   :         return &_OptionsStorage;

  00000	b8 00 00 00 00	 mov	 eax, OFFSET ?_OptionsStorage@?1??__local_stdio_printf_options@@9@4_KA ; `__local_stdio_printf_options'::`2'::_OptionsStorage

; 93   :     }

  00005	c3		 ret	 0
___local_stdio_printf_options ENDP
_TEXT	ENDS
END
