; Listing generated by Microsoft (R) Optimizing Compiler Version 19.34.31942.0 

	TITLE	C:\Users\flourine\Desktop\Xantios\client-src\Code\EffectLib\Distribute\SimpleLightInstance.obj
	.686P
	.XMM
	include listing.inc
	.model	flat

INCLUDELIB LIBCMT
INCLUDELIB OLDNAMES

PUBLIC	?_Fake_alloc@std@@3U_Fake_allocator@1@B		; std::_Fake_alloc
PUBLIC	??_7?$CDynamicPool@VCLightInstance@@@@6B@	; CDynamicPool<CLightInstance>::`vftable'
PUBLIC	??_G?$CDynamicPool@VCLightInstance@@@@UAEPAXI@Z	; CDynamicPool<CLightInstance>::`scalar deleting destructor'
PUBLIC	??_R4?$CDynamicPool@VCLightInstance@@@@6B@	; CDynamicPool<CLightInstance>::`RTTI Complete Object Locator'
PUBLIC	??_R0?AV?$CDynamicPool@VCLightInstance@@@@@8	; CDynamicPool<CLightInstance> `RTTI Type Descriptor'
PUBLIC	??_R3?$CDynamicPool@VCLightInstance@@@@8	; CDynamicPool<CLightInstance>::`RTTI Class Hierarchy Descriptor'
PUBLIC	??_R2?$CDynamicPool@VCLightInstance@@@@8	; CDynamicPool<CLightInstance>::`RTTI Base Class Array'
PUBLIC	??_R1A@?0A@EA@?$CDynamicPool@VCLightInstance@@@@8 ; CDynamicPool<CLightInstance>::`RTTI Base Class Descriptor at (0,-1,0,64)'
EXTRN	??_E?$CDynamicPool@VCLightInstance@@@@UAEPAXI@Z:PROC ; CDynamicPool<CLightInstance>::`vector deleting destructor'
EXTRN	??_7type_info@@6B@:QWORD			; type_info::`vftable'
;	COMDAT ??_R1A@?0A@EA@?$CDynamicPool@VCLightInstance@@@@8
rdata$r	SEGMENT
??_R1A@?0A@EA@?$CDynamicPool@VCLightInstance@@@@8 DD FLAT:??_R0?AV?$CDynamicPool@VCLightInstance@@@@@8 ; CDynamicPool<CLightInstance>::`RTTI Base Class Descriptor at (0,-1,0,64)'
	DD	00H
	DD	00H
	DD	0ffffffffH
	DD	00H
	DD	040H
	DD	FLAT:??_R3?$CDynamicPool@VCLightInstance@@@@8
rdata$r	ENDS
;	COMDAT ??_R2?$CDynamicPool@VCLightInstance@@@@8
rdata$r	SEGMENT
??_R2?$CDynamicPool@VCLightInstance@@@@8 DD FLAT:??_R1A@?0A@EA@?$CDynamicPool@VCLightInstance@@@@8 ; CDynamicPool<CLightInstance>::`RTTI Base Class Array'
rdata$r	ENDS
;	COMDAT ??_R3?$CDynamicPool@VCLightInstance@@@@8
rdata$r	SEGMENT
??_R3?$CDynamicPool@VCLightInstance@@@@8 DD 00H		; CDynamicPool<CLightInstance>::`RTTI Class Hierarchy Descriptor'
	DD	00H
	DD	01H
	DD	FLAT:??_R2?$CDynamicPool@VCLightInstance@@@@8
rdata$r	ENDS
;	COMDAT ??_R0?AV?$CDynamicPool@VCLightInstance@@@@@8
data$rs	SEGMENT
??_R0?AV?$CDynamicPool@VCLightInstance@@@@@8 DD FLAT:??_7type_info@@6B@ ; CDynamicPool<CLightInstance> `RTTI Type Descriptor'
	DD	00H
	DB	'.?AV?$CDynamicPool@VCLightInstance@@@@', 00H
data$rs	ENDS
;	COMDAT ??_R4?$CDynamicPool@VCLightInstance@@@@6B@
rdata$r	SEGMENT
??_R4?$CDynamicPool@VCLightInstance@@@@6B@ DD 00H	; CDynamicPool<CLightInstance>::`RTTI Complete Object Locator'
	DD	00H
	DD	00H
	DD	FLAT:??_R0?AV?$CDynamicPool@VCLightInstance@@@@@8
	DD	FLAT:??_R3?$CDynamicPool@VCLightInstance@@@@8
rdata$r	ENDS
;	COMDAT ??_7?$CDynamicPool@VCLightInstance@@@@6B@
CONST	SEGMENT
??_7?$CDynamicPool@VCLightInstance@@@@6B@ DD FLAT:??_R4?$CDynamicPool@VCLightInstance@@@@6B@ ; CDynamicPool<CLightInstance>::`vftable'
	DD	FLAT:??_E?$CDynamicPool@VCLightInstance@@@@UAEPAXI@Z
CONST	ENDS
;	COMDAT ?_Fake_alloc@std@@3U_Fake_allocator@1@B
CONST	SEGMENT
?_Fake_alloc@std@@3U_Fake_allocator@1@B	ORG $+1		; std::_Fake_alloc
CONST	ENDS
PUBLIC	??0exception@std@@QAE@ABV01@@Z			; std::exception::exception
PUBLIC	??1exception@std@@UAE@XZ			; std::exception::~exception
PUBLIC	?what@exception@std@@UBEPBDXZ			; std::exception::what
PUBLIC	??_Gexception@std@@UAEPAXI@Z			; std::exception::`scalar deleting destructor'
PUBLIC	??0bad_alloc@std@@QAE@ABV01@@Z			; std::bad_alloc::bad_alloc
PUBLIC	??_Gbad_alloc@std@@UAEPAXI@Z			; std::bad_alloc::`scalar deleting destructor'
PUBLIC	??0bad_array_new_length@std@@QAE@XZ		; std::bad_array_new_length::bad_array_new_length
PUBLIC	??1bad_array_new_length@std@@UAE@XZ		; std::bad_array_new_length::~bad_array_new_length
PUBLIC	??0bad_array_new_length@std@@QAE@ABV01@@Z	; std::bad_array_new_length::bad_array_new_length
PUBLIC	??_Gbad_array_new_length@std@@UAEPAXI@Z		; std::bad_array_new_length::`scalar deleting destructor'
PUBLIC	?_Throw_bad_array_new_length@std@@YAXXZ		; std::_Throw_bad_array_new_length
PUBLIC	??$_Allocate_manually_vector_aligned@U_Default_allocate_traits@std@@@std@@YAPAXI@Z ; std::_Allocate_manually_vector_aligned<std::_Default_allocate_traits>
PUBLIC	??0CLightInstance@@QAE@XZ			; CLightInstance::CLightInstance
PUBLIC	??1CLightInstance@@UAE@XZ			; CLightInstance::~CLightInstance
PUBLIC	?OnSetDataPointer@CLightInstance@@MAEXPAVCEffectElementBase@@@Z ; CLightInstance::OnSetDataPointer
PUBLIC	?OnInitialize@CLightInstance@@MAEXXZ		; CLightInstance::OnInitialize
PUBLIC	?OnDestroy@CLightInstance@@MAEXXZ		; CLightInstance::OnDestroy
PUBLIC	?OnUpdate@CLightInstance@@MAE_NM@Z		; CLightInstance::OnUpdate
PUBLIC	?OnRender@CLightInstance@@MAEXXZ		; CLightInstance::OnRender
PUBLIC	?DestroySystem@CLightInstance@@SAXXZ		; CLightInstance::DestroySystem
PUBLIC	?New@CLightInstance@@SAPAV1@XZ			; CLightInstance::New
PUBLIC	?Delete@CLightInstance@@SAXPAV1@@Z		; CLightInstance::Delete
PUBLIC	??_GCLightInstance@@UAEPAXI@Z			; CLightInstance::`scalar deleting destructor'
PUBLIC	??1?$CDynamicPool@VCLightInstance@@@@UAE@XZ	; CDynamicPool<CLightInstance>::~CDynamicPool<CLightInstance>
PUBLIC	?Delete@?$CDynamicPool@VCLightInstance@@@@KAXPAVCLightInstance@@@Z ; CDynamicPool<CLightInstance>::Delete
PUBLIC	?_Xlength@?$vector@PAVCLightInstance@@V?$allocator@PAVCLightInstance@@@std@@@std@@CAXXZ ; std::vector<CLightInstance *,std::allocator<CLightInstance *> >::_Xlength
PUBLIC	??$_Emplace_reallocate@ABQAVCLightInstance@@@?$vector@PAVCLightInstance@@V?$allocator@PAVCLightInstance@@@std@@@std@@AAEPAPAVCLightInstance@@QAPAV2@ABQAV2@@Z ; std::vector<CLightInstance *,std::allocator<CLightInstance *> >::_Emplace_reallocate<CLightInstance * const &>
PUBLIC	??$_Copy_memmove@PAPAVCLightInstance@@PAPAV1@@std@@YAPAPAVCLightInstance@@PAPAV1@00@Z ; std::_Copy_memmove<CLightInstance * *,CLightInstance * *>
PUBLIC	??_7exception@std@@6B@				; std::exception::`vftable'
PUBLIC	??_C@_0BC@EOODALEL@Unknown?5exception@		; `string'
PUBLIC	??_7bad_alloc@std@@6B@				; std::bad_alloc::`vftable'
PUBLIC	??_7bad_array_new_length@std@@6B@		; std::bad_array_new_length::`vftable'
PUBLIC	??_C@_0BF@KINCDENJ@bad?5array?5new?5length@	; `string'
PUBLIC	__TI3?AVbad_array_new_length@std@@
PUBLIC	__CTA3?AVbad_array_new_length@std@@
PUBLIC	??_R0?AVbad_array_new_length@std@@@8		; std::bad_array_new_length `RTTI Type Descriptor'
PUBLIC	__CT??_R0?AVbad_array_new_length@std@@@8??0bad_array_new_length@std@@QAE@ABV01@@Z12
PUBLIC	??_R0?AVbad_alloc@std@@@8			; std::bad_alloc `RTTI Type Descriptor'
PUBLIC	__CT??_R0?AVbad_alloc@std@@@8??0bad_alloc@std@@QAE@ABV01@@Z12
PUBLIC	??_R0?AVexception@std@@@8			; std::exception `RTTI Type Descriptor'
PUBLIC	__CT??_R0?AVexception@std@@@8??0exception@std@@QAE@ABV01@@Z12
PUBLIC	??_R4exception@std@@6B@				; std::exception::`RTTI Complete Object Locator'
PUBLIC	??_R3exception@std@@8				; std::exception::`RTTI Class Hierarchy Descriptor'
PUBLIC	??_R2exception@std@@8				; std::exception::`RTTI Base Class Array'
PUBLIC	??_R1A@?0A@EA@exception@std@@8			; std::exception::`RTTI Base Class Descriptor at (0,-1,0,64)'
PUBLIC	??_R4bad_alloc@std@@6B@				; std::bad_alloc::`RTTI Complete Object Locator'
PUBLIC	??_R3bad_alloc@std@@8				; std::bad_alloc::`RTTI Class Hierarchy Descriptor'
PUBLIC	??_R2bad_alloc@std@@8				; std::bad_alloc::`RTTI Base Class Array'
PUBLIC	??_R1A@?0A@EA@bad_alloc@std@@8			; std::bad_alloc::`RTTI Base Class Descriptor at (0,-1,0,64)'
PUBLIC	??_R4bad_array_new_length@std@@6B@		; std::bad_array_new_length::`RTTI Complete Object Locator'
PUBLIC	??_R3bad_array_new_length@std@@8		; std::bad_array_new_length::`RTTI Class Hierarchy Descriptor'
PUBLIC	??_R2bad_array_new_length@std@@8		; std::bad_array_new_length::`RTTI Base Class Array'
PUBLIC	??_R1A@?0A@EA@bad_array_new_length@std@@8	; std::bad_array_new_length::`RTTI Base Class Descriptor at (0,-1,0,64)'
PUBLIC	?ms_singleton@?$CSingleton@VCLightManager@@@@0PAVCLightManager@@A ; CSingleton<CLightManager>::ms_singleton
PUBLIC	?ms_kPool@CLightInstance@@2V?$CDynamicPool@VCLightInstance@@@@A ; CLightInstance::ms_kPool
PUBLIC	??_7CLightInstance@@6B@				; CLightInstance::`vftable'
PUBLIC	??_C@_0BA@FOIKENOD@vector?5too?5long@		; `string'
PUBLIC	??_R4CLightInstance@@6B@			; CLightInstance::`RTTI Complete Object Locator'
PUBLIC	??_R0?AVCLightInstance@@@8			; CLightInstance `RTTI Type Descriptor'
PUBLIC	??_R3CLightInstance@@8				; CLightInstance::`RTTI Class Hierarchy Descriptor'
PUBLIC	??_R2CLightInstance@@8				; CLightInstance::`RTTI Base Class Array'
PUBLIC	??_R1A@?0A@EA@CLightInstance@@8			; CLightInstance::`RTTI Base Class Descriptor at (0,-1,0,64)'
PUBLIC	??_R1A@?0A@EA@CEffectElementBaseInstance@@8	; CEffectElementBaseInstance::`RTTI Base Class Descriptor at (0,-1,0,64)'
PUBLIC	??_R0?AVCEffectElementBaseInstance@@@8		; CEffectElementBaseInstance `RTTI Type Descriptor'
PUBLIC	??_R3CEffectElementBaseInstance@@8		; CEffectElementBaseInstance::`RTTI Class Hierarchy Descriptor'
PUBLIC	??_R2CEffectElementBaseInstance@@8		; CEffectElementBaseInstance::`RTTI Base Class Array'
EXTRN	??2@YAPAXI@Z:PROC				; operator new
EXTRN	??3@YAXPAXI@Z:PROC				; operator delete
EXTRN	_atexit:PROC
EXTRN	__invalid_parameter_noinfo_noreturn:PROC
EXTRN	___std_exception_copy:PROC
EXTRN	___std_exception_destroy:PROC
EXTRN	??_Eexception@std@@UAEPAXI@Z:PROC		; std::exception::`vector deleting destructor'
EXTRN	??_Ebad_alloc@std@@UAEPAXI@Z:PROC		; std::bad_alloc::`vector deleting destructor'
EXTRN	??_Ebad_array_new_length@std@@UAEPAXI@Z:PROC	; std::bad_array_new_length::`vector deleting destructor'
EXTRN	?_Xlength_error@std@@YAXPBD@Z:PROC		; std::_Xlength_error
EXTRN	_D3DXVec3TransformCoord@12:PROC
EXTRN	?SetDiffuseColor@CLight@@QAEXMMMM@Z:PROC	; CLight::SetDiffuseColor
EXTRN	?SetAmbientColor@CLight@@QAEXMMMM@Z:PROC	; CLight::SetAmbientColor
EXTRN	?SetRange@CLight@@QAEXM@Z:PROC			; CLight::SetRange
EXTRN	?SetPosition@CLight@@QAEXMMM@Z:PROC		; CLight::SetPosition
EXTRN	?RegisterLight@CLightManager@@QAEXW4ELightType@@PAKAAU_D3DLIGHT9@@@Z:PROC ; CLightManager::RegisterLight
EXTRN	?GetLight@CLightManager@@QAEPAVCLight@@K@Z:PROC	; CLightManager::GetLight
EXTRN	?DeleteLight@CLightManager@@QAEXK@Z:PROC	; CLightManager::DeleteLight
EXTRN	?GetPosition@CEffectElementBase@@QAEXMAAUD3DXVECTOR3@@@Z:PROC ; CEffectElementBase::GetPosition
EXTRN	??0CEffectElementBaseInstance@@QAE@XZ:PROC	; CEffectElementBaseInstance::CEffectElementBaseInstance
EXTRN	??1CEffectElementBaseInstance@@UAE@XZ:PROC	; CEffectElementBaseInstance::~CEffectElementBaseInstance
EXTRN	?Initialize@CEffectElementBaseInstance@@QAEXXZ:PROC ; CEffectElementBaseInstance::Initialize
EXTRN	?Destroy@CEffectElementBaseInstance@@QAEXXZ:PROC ; CEffectElementBaseInstance::Destroy
EXTRN	?isActive@CEffectElementBaseInstance@@QAE_NXZ:PROC ; CEffectElementBaseInstance::isActive
EXTRN	?GetRange@CLightData@@QAEXMAAM@Z:PROC		; CLightData::GetRange
EXTRN	?GetDuration@CLightData@@QAEMXZ:PROC		; CLightData::GetDuration
EXTRN	?InitializeLight@CLightData@@QAEXAAU_D3DLIGHT9@@@Z:PROC ; CLightData::InitializeLight
EXTRN	??_ECLightInstance@@UAEPAXI@Z:PROC		; CLightInstance::`vector deleting destructor'
EXTRN	@__security_check_cookie@4:PROC
EXTRN	__CxxThrowException@8:PROC
EXTRN	___CxxFrameHandler3:PROC
EXTRN	_memmove:PROC
EXTRN	___security_cookie:DWORD
EXTRN	__fltused:DWORD
;	COMDAT ?ms_singleton@?$CSingleton@VCLightManager@@@@0PAVCLightManager@@A
_BSS	SEGMENT
?ms_singleton@?$CSingleton@VCLightManager@@@@0PAVCLightManager@@A DD 01H DUP (?) ; CSingleton<CLightManager>::ms_singleton
_BSS	ENDS
CRT$XCU	SEGMENT
??ms_kPool$initializer$@CLightInstance@@2P6AXXZA@@3P6AXXZA DD FLAT:??__E?ms_kPool@CLightInstance@@2V?$CDynamicPool@VCLightInstance@@@@A@@YAXXZ ; ??ms_kPool$initializer$@CLightInstance@@2P6AXXZA@@3P6AXXZA
CRT$XCU	ENDS
;	COMDAT ??_R2CEffectElementBaseInstance@@8
rdata$r	SEGMENT
??_R2CEffectElementBaseInstance@@8 DD FLAT:??_R1A@?0A@EA@CEffectElementBaseInstance@@8 ; CEffectElementBaseInstance::`RTTI Base Class Array'
rdata$r	ENDS
;	COMDAT ??_R3CEffectElementBaseInstance@@8
rdata$r	SEGMENT
??_R3CEffectElementBaseInstance@@8 DD 00H		; CEffectElementBaseInstance::`RTTI Class Hierarchy Descriptor'
	DD	00H
	DD	01H
	DD	FLAT:??_R2CEffectElementBaseInstance@@8
rdata$r	ENDS
;	COMDAT ??_R0?AVCEffectElementBaseInstance@@@8
data$rs	SEGMENT
??_R0?AVCEffectElementBaseInstance@@@8 DD FLAT:??_7type_info@@6B@ ; CEffectElementBaseInstance `RTTI Type Descriptor'
	DD	00H
	DB	'.?AVCEffectElementBaseInstance@@', 00H
data$rs	ENDS
;	COMDAT ??_R1A@?0A@EA@CEffectElementBaseInstance@@8
rdata$r	SEGMENT
??_R1A@?0A@EA@CEffectElementBaseInstance@@8 DD FLAT:??_R0?AVCEffectElementBaseInstance@@@8 ; CEffectElementBaseInstance::`RTTI Base Class Descriptor at (0,-1,0,64)'
	DD	00H
	DD	00H
	DD	0ffffffffH
	DD	00H
	DD	040H
	DD	FLAT:??_R3CEffectElementBaseInstance@@8
rdata$r	ENDS
;	COMDAT ??_R1A@?0A@EA@CLightInstance@@8
rdata$r	SEGMENT
??_R1A@?0A@EA@CLightInstance@@8 DD FLAT:??_R0?AVCLightInstance@@@8 ; CLightInstance::`RTTI Base Class Descriptor at (0,-1,0,64)'
	DD	01H
	DD	00H
	DD	0ffffffffH
	DD	00H
	DD	040H
	DD	FLAT:??_R3CLightInstance@@8
rdata$r	ENDS
;	COMDAT ??_R2CLightInstance@@8
rdata$r	SEGMENT
??_R2CLightInstance@@8 DD FLAT:??_R1A@?0A@EA@CLightInstance@@8 ; CLightInstance::`RTTI Base Class Array'
	DD	FLAT:??_R1A@?0A@EA@CEffectElementBaseInstance@@8
rdata$r	ENDS
;	COMDAT ??_R3CLightInstance@@8
rdata$r	SEGMENT
??_R3CLightInstance@@8 DD 00H				; CLightInstance::`RTTI Class Hierarchy Descriptor'
	DD	00H
	DD	02H
	DD	FLAT:??_R2CLightInstance@@8
rdata$r	ENDS
;	COMDAT ??_R0?AVCLightInstance@@@8
data$rs	SEGMENT
??_R0?AVCLightInstance@@@8 DD FLAT:??_7type_info@@6B@	; CLightInstance `RTTI Type Descriptor'
	DD	00H
	DB	'.?AVCLightInstance@@', 00H
data$rs	ENDS
;	COMDAT ??_R4CLightInstance@@6B@
rdata$r	SEGMENT
??_R4CLightInstance@@6B@ DD 00H				; CLightInstance::`RTTI Complete Object Locator'
	DD	00H
	DD	00H
	DD	FLAT:??_R0?AVCLightInstance@@@8
	DD	FLAT:??_R3CLightInstance@@8
rdata$r	ENDS
;	COMDAT ??_C@_0BA@FOIKENOD@vector?5too?5long@
CONST	SEGMENT
??_C@_0BA@FOIKENOD@vector?5too?5long@ DB 'vector too long', 00H ; `string'
CONST	ENDS
;	COMDAT ??_7CLightInstance@@6B@
CONST	SEGMENT
??_7CLightInstance@@6B@ DD FLAT:??_R4CLightInstance@@6B@ ; CLightInstance::`vftable'
	DD	FLAT:??_ECLightInstance@@UAEPAXI@Z
	DD	FLAT:?OnSetDataPointer@CLightInstance@@MAEXPAVCEffectElementBase@@@Z
	DD	FLAT:?OnInitialize@CLightInstance@@MAEXXZ
	DD	FLAT:?OnDestroy@CLightInstance@@MAEXXZ
	DD	FLAT:?OnUpdate@CLightInstance@@MAE_NM@Z
	DD	FLAT:?OnRender@CLightInstance@@MAEXXZ
CONST	ENDS
_DATA	SEGMENT
?ms_kPool@CLightInstance@@2V?$CDynamicPool@VCLightInstance@@@@A DD FLAT:??_7?$CDynamicPool@VCLightInstance@@@@6B@ ; CLightInstance::ms_kPool
	DD	00H
	DD	00H
	DD	00H
	DD	00H
	DD	00H
	DD	00H
	DD	00H
	DD	00H
_DATA	ENDS
;	COMDAT ??_R1A@?0A@EA@bad_array_new_length@std@@8
rdata$r	SEGMENT
??_R1A@?0A@EA@bad_array_new_length@std@@8 DD FLAT:??_R0?AVbad_array_new_length@std@@@8 ; std::bad_array_new_length::`RTTI Base Class Descriptor at (0,-1,0,64)'
	DD	02H
	DD	00H
	DD	0ffffffffH
	DD	00H
	DD	040H
	DD	FLAT:??_R3bad_array_new_length@std@@8
rdata$r	ENDS
;	COMDAT ??_R2bad_array_new_length@std@@8
rdata$r	SEGMENT
??_R2bad_array_new_length@std@@8 DD FLAT:??_R1A@?0A@EA@bad_array_new_length@std@@8 ; std::bad_array_new_length::`RTTI Base Class Array'
	DD	FLAT:??_R1A@?0A@EA@bad_alloc@std@@8
	DD	FLAT:??_R1A@?0A@EA@exception@std@@8
rdata$r	ENDS
;	COMDAT ??_R3bad_array_new_length@std@@8
rdata$r	SEGMENT
??_R3bad_array_new_length@std@@8 DD 00H			; std::bad_array_new_length::`RTTI Class Hierarchy Descriptor'
	DD	00H
	DD	03H
	DD	FLAT:??_R2bad_array_new_length@std@@8
rdata$r	ENDS
;	COMDAT ??_R4bad_array_new_length@std@@6B@
rdata$r	SEGMENT
??_R4bad_array_new_length@std@@6B@ DD 00H		; std::bad_array_new_length::`RTTI Complete Object Locator'
	DD	00H
	DD	00H
	DD	FLAT:??_R0?AVbad_array_new_length@std@@@8
	DD	FLAT:??_R3bad_array_new_length@std@@8
rdata$r	ENDS
;	COMDAT ??_R1A@?0A@EA@bad_alloc@std@@8
rdata$r	SEGMENT
??_R1A@?0A@EA@bad_alloc@std@@8 DD FLAT:??_R0?AVbad_alloc@std@@@8 ; std::bad_alloc::`RTTI Base Class Descriptor at (0,-1,0,64)'
	DD	01H
	DD	00H
	DD	0ffffffffH
	DD	00H
	DD	040H
	DD	FLAT:??_R3bad_alloc@std@@8
rdata$r	ENDS
;	COMDAT ??_R2bad_alloc@std@@8
rdata$r	SEGMENT
??_R2bad_alloc@std@@8 DD FLAT:??_R1A@?0A@EA@bad_alloc@std@@8 ; std::bad_alloc::`RTTI Base Class Array'
	DD	FLAT:??_R1A@?0A@EA@exception@std@@8
rdata$r	ENDS
;	COMDAT ??_R3bad_alloc@std@@8
rdata$r	SEGMENT
??_R3bad_alloc@std@@8 DD 00H				; std::bad_alloc::`RTTI Class Hierarchy Descriptor'
	DD	00H
	DD	02H
	DD	FLAT:??_R2bad_alloc@std@@8
rdata$r	ENDS
;	COMDAT ??_R4bad_alloc@std@@6B@
rdata$r	SEGMENT
??_R4bad_alloc@std@@6B@ DD 00H				; std::bad_alloc::`RTTI Complete Object Locator'
	DD	00H
	DD	00H
	DD	FLAT:??_R0?AVbad_alloc@std@@@8
	DD	FLAT:??_R3bad_alloc@std@@8
rdata$r	ENDS
;	COMDAT ??_R1A@?0A@EA@exception@std@@8
rdata$r	SEGMENT
??_R1A@?0A@EA@exception@std@@8 DD FLAT:??_R0?AVexception@std@@@8 ; std::exception::`RTTI Base Class Descriptor at (0,-1,0,64)'
	DD	00H
	DD	00H
	DD	0ffffffffH
	DD	00H
	DD	040H
	DD	FLAT:??_R3exception@std@@8
rdata$r	ENDS
;	COMDAT ??_R2exception@std@@8
rdata$r	SEGMENT
??_R2exception@std@@8 DD FLAT:??_R1A@?0A@EA@exception@std@@8 ; std::exception::`RTTI Base Class Array'
rdata$r	ENDS
;	COMDAT ??_R3exception@std@@8
rdata$r	SEGMENT
??_R3exception@std@@8 DD 00H				; std::exception::`RTTI Class Hierarchy Descriptor'
	DD	00H
	DD	01H
	DD	FLAT:??_R2exception@std@@8
rdata$r	ENDS
;	COMDAT ??_R4exception@std@@6B@
rdata$r	SEGMENT
??_R4exception@std@@6B@ DD 00H				; std::exception::`RTTI Complete Object Locator'
	DD	00H
	DD	00H
	DD	FLAT:??_R0?AVexception@std@@@8
	DD	FLAT:??_R3exception@std@@8
rdata$r	ENDS
;	COMDAT __CT??_R0?AVexception@std@@@8??0exception@std@@QAE@ABV01@@Z12
xdata$x	SEGMENT
__CT??_R0?AVexception@std@@@8??0exception@std@@QAE@ABV01@@Z12 DD 00H
	DD	FLAT:??_R0?AVexception@std@@@8
	DD	00H
	DD	0ffffffffH
	ORG $+4
	DD	0cH
	DD	FLAT:??0exception@std@@QAE@ABV01@@Z
xdata$x	ENDS
;	COMDAT ??_R0?AVexception@std@@@8
data$r	SEGMENT
??_R0?AVexception@std@@@8 DD FLAT:??_7type_info@@6B@	; std::exception `RTTI Type Descriptor'
	DD	00H
	DB	'.?AVexception@std@@', 00H
data$r	ENDS
;	COMDAT __CT??_R0?AVbad_alloc@std@@@8??0bad_alloc@std@@QAE@ABV01@@Z12
xdata$x	SEGMENT
__CT??_R0?AVbad_alloc@std@@@8??0bad_alloc@std@@QAE@ABV01@@Z12 DD 010H
	DD	FLAT:??_R0?AVbad_alloc@std@@@8
	DD	00H
	DD	0ffffffffH
	ORG $+4
	DD	0cH
	DD	FLAT:??0bad_alloc@std@@QAE@ABV01@@Z
xdata$x	ENDS
;	COMDAT ??_R0?AVbad_alloc@std@@@8
data$r	SEGMENT
??_R0?AVbad_alloc@std@@@8 DD FLAT:??_7type_info@@6B@	; std::bad_alloc `RTTI Type Descriptor'
	DD	00H
	DB	'.?AVbad_alloc@std@@', 00H
data$r	ENDS
;	COMDAT __CT??_R0?AVbad_array_new_length@std@@@8??0bad_array_new_length@std@@QAE@ABV01@@Z12
xdata$x	SEGMENT
__CT??_R0?AVbad_array_new_length@std@@@8??0bad_array_new_length@std@@QAE@ABV01@@Z12 DD 00H
	DD	FLAT:??_R0?AVbad_array_new_length@std@@@8
	DD	00H
	DD	0ffffffffH
	ORG $+4
	DD	0cH
	DD	FLAT:??0bad_array_new_length@std@@QAE@ABV01@@Z
xdata$x	ENDS
;	COMDAT ??_R0?AVbad_array_new_length@std@@@8
data$r	SEGMENT
??_R0?AVbad_array_new_length@std@@@8 DD FLAT:??_7type_info@@6B@ ; std::bad_array_new_length `RTTI Type Descriptor'
	DD	00H
	DB	'.?AVbad_array_new_length@std@@', 00H
data$r	ENDS
;	COMDAT __CTA3?AVbad_array_new_length@std@@
xdata$x	SEGMENT
__CTA3?AVbad_array_new_length@std@@ DD 03H
	DD	FLAT:__CT??_R0?AVbad_array_new_length@std@@@8??0bad_array_new_length@std@@QAE@ABV01@@Z12
	DD	FLAT:__CT??_R0?AVbad_alloc@std@@@8??0bad_alloc@std@@QAE@ABV01@@Z12
	DD	FLAT:__CT??_R0?AVexception@std@@@8??0exception@std@@QAE@ABV01@@Z12
xdata$x	ENDS
;	COMDAT __TI3?AVbad_array_new_length@std@@
xdata$x	SEGMENT
__TI3?AVbad_array_new_length@std@@ DD 00H
	DD	FLAT:??1bad_array_new_length@std@@UAE@XZ
	DD	00H
	DD	FLAT:__CTA3?AVbad_array_new_length@std@@
xdata$x	ENDS
;	COMDAT ??_C@_0BF@KINCDENJ@bad?5array?5new?5length@
CONST	SEGMENT
??_C@_0BF@KINCDENJ@bad?5array?5new?5length@ DB 'bad array new length', 00H ; `string'
CONST	ENDS
;	COMDAT ??_7bad_array_new_length@std@@6B@
CONST	SEGMENT
??_7bad_array_new_length@std@@6B@ DD FLAT:??_R4bad_array_new_length@std@@6B@ ; std::bad_array_new_length::`vftable'
	DD	FLAT:??_Ebad_array_new_length@std@@UAEPAXI@Z
	DD	FLAT:?what@exception@std@@UBEPBDXZ
CONST	ENDS
;	COMDAT ??_7bad_alloc@std@@6B@
CONST	SEGMENT
??_7bad_alloc@std@@6B@ DD FLAT:??_R4bad_alloc@std@@6B@	; std::bad_alloc::`vftable'
	DD	FLAT:??_Ebad_alloc@std@@UAEPAXI@Z
	DD	FLAT:?what@exception@std@@UBEPBDXZ
CONST	ENDS
;	COMDAT ??_C@_0BC@EOODALEL@Unknown?5exception@
CONST	SEGMENT
??_C@_0BC@EOODALEL@Unknown?5exception@ DB 'Unknown exception', 00H ; `string'
CONST	ENDS
;	COMDAT ??_7exception@std@@6B@
CONST	SEGMENT
??_7exception@std@@6B@ DD FLAT:??_R4exception@std@@6B@	; std::exception::`vftable'
	DD	FLAT:??_Eexception@std@@UAEPAXI@Z
	DD	FLAT:?what@exception@std@@UBEPBDXZ
CONST	ENDS
;	COMDAT xdata$x
xdata$x	SEGMENT
__unwindtable$?Alloc@?$CDynamicPool@VCLightInstance@@@@QAEPAVCLightInstance@@XZ DD 0ffffffffH
	DD	FLAT:__unwindfunclet$?Alloc@?$CDynamicPool@VCLightInstance@@@@QAEPAVCLightInstance@@XZ$0
__ehfuncinfo$?Alloc@?$CDynamicPool@VCLightInstance@@@@QAEPAVCLightInstance@@XZ DD 019930522H
	DD	01H
	DD	FLAT:__unwindtable$?Alloc@?$CDynamicPool@VCLightInstance@@@@QAEPAVCLightInstance@@XZ
	DD	2 DUP(00H)
	DD	2 DUP(00H)
	DD	00H
	DD	01H
xdata$x	ENDS
;	COMDAT xdata$x
xdata$x	SEGMENT
__unwindtable$?New@CLightInstance@@SAPAV1@XZ DD 0ffffffffH
	DD	FLAT:__unwindfunclet$?New@CLightInstance@@SAPAV1@XZ$0
__ehfuncinfo$?New@CLightInstance@@SAPAV1@XZ DD 019930522H
	DD	01H
	DD	FLAT:__unwindtable$?New@CLightInstance@@SAPAV1@XZ
	DD	2 DUP(00H)
	DD	2 DUP(00H)
	DD	00H
	DD	01H
xdata$x	ENDS
;	COMDAT xdata$x
xdata$x	SEGMENT
__ehfuncinfo$??1CLightInstance@@UAE@XZ DD 019930522H
	DD	00H
	DD	00H
	DD	2 DUP(00H)
	DD	2 DUP(00H)
	DD	00H
	DD	05H
xdata$x	ENDS
;	COMDAT xdata$x
xdata$x	SEGMENT
__unwindtable$??0CLightInstance@@QAE@XZ DD 0ffffffffH
	DD	FLAT:__unwindfunclet$??0CLightInstance@@QAE@XZ$0
__ehfuncinfo$??0CLightInstance@@QAE@XZ DD 019930522H
	DD	01H
	DD	FLAT:__unwindtable$??0CLightInstance@@QAE@XZ
	DD	2 DUP(00H)
	DD	2 DUP(00H)
	DD	00H
	DD	01H
xdata$x	ENDS
; Function compile flags: /Ogtp
; File C:\Program Files\Microsoft Visual Studio\2022\Community\VC\Tools\MSVC\14.34.31933\include\xutility
;	COMDAT ??$_Copy_memmove@PAPAVCLightInstance@@PAPAV1@@std@@YAPAPAVCLightInstance@@PAPAV1@00@Z
_TEXT	SEGMENT
__First$ = 8						; size = 4
__Last$ = 12						; size = 4
__Dest$ = 16						; size = 4
??$_Copy_memmove@PAPAVCLightInstance@@PAPAV1@@std@@YAPAPAVCLightInstance@@PAPAV1@00@Z PROC ; std::_Copy_memmove<CLightInstance * *,CLightInstance * *>, COMDAT

; 3833 : _OutCtgIt _Copy_memmove(_CtgIt _First, _CtgIt _Last, _OutCtgIt _Dest) {

  00000	55		 push	 ebp
  00001	8b ec		 mov	 ebp, esp

; 3834 :     auto _FirstPtr              = _To_address(_First);
; 3835 :     auto _LastPtr               = _To_address(_Last);
; 3836 :     auto _DestPtr               = _To_address(_Dest);
; 3837 :     const char* const _First_ch = const_cast<const char*>(reinterpret_cast<const volatile char*>(_FirstPtr));
; 3838 :     const char* const _Last_ch  = const_cast<const char*>(reinterpret_cast<const volatile char*>(_LastPtr));
; 3839 :     char* const _Dest_ch        = const_cast<char*>(reinterpret_cast<const volatile char*>(_DestPtr));
; 3840 :     const auto _Count           = static_cast<size_t>(_Last_ch - _First_ch);

  00003	8b 45 08	 mov	 eax, DWORD PTR __First$[ebp]
  00006	56		 push	 esi

; 3841 :     _CSTD memmove(_Dest_ch, _First_ch, _Count);

  00007	8b 75 10	 mov	 esi, DWORD PTR __Dest$[ebp]
  0000a	57		 push	 edi
  0000b	8b 7d 0c	 mov	 edi, DWORD PTR __Last$[ebp]
  0000e	2b f8		 sub	 edi, eax
  00010	57		 push	 edi
  00011	50		 push	 eax
  00012	56		 push	 esi
  00013	e8 00 00 00 00	 call	 _memmove
  00018	83 c4 0c	 add	 esp, 12			; 0000000cH

; 3842 :     if constexpr (is_pointer_v<_OutCtgIt>) {
; 3843 :         return reinterpret_cast<_OutCtgIt>(_Dest_ch + _Count);

  0001b	8d 04 37	 lea	 eax, DWORD PTR [edi+esi]
  0001e	5f		 pop	 edi
  0001f	5e		 pop	 esi

; 3844 :     } else {
; 3845 :         return _Dest + (_LastPtr - _FirstPtr);
; 3846 :     }
; 3847 : }

  00020	5d		 pop	 ebp
  00021	c3		 ret	 0
??$_Copy_memmove@PAPAVCLightInstance@@PAPAV1@@std@@YAPAPAVCLightInstance@@PAPAV1@00@Z ENDP ; std::_Copy_memmove<CLightInstance * *,CLightInstance * *>
_TEXT	ENDS
; Function compile flags: /Ogtp
; File C:\Program Files\Microsoft Visual Studio\2022\Community\VC\Tools\MSVC\14.34.31933\include\vector
; File C:\Program Files\Microsoft Visual Studio\2022\Community\VC\Tools\MSVC\14.34.31933\include\xmemory
; File C:\Program Files\Microsoft Visual Studio\2022\Community\VC\Tools\MSVC\14.34.31933\include\vector
; File C:\Program Files\Microsoft Visual Studio\2022\Community\VC\Tools\MSVC\14.34.31933\include\xmemory
; File C:\Program Files\Microsoft Visual Studio\2022\Community\VC\Tools\MSVC\14.34.31933\include\vector
; File C:\Program Files\Microsoft Visual Studio\2022\Community\VC\Tools\MSVC\14.34.31933\include\xmemory
; File C:\Program Files\Microsoft Visual Studio\2022\Community\VC\Tools\MSVC\14.34.31933\include\vector
; File C:\Program Files\Microsoft Visual Studio\2022\Community\VC\Tools\MSVC\14.34.31933\include\xmemory
; File C:\Program Files\Microsoft Visual Studio\2022\Community\VC\Tools\MSVC\14.34.31933\include\vector
; File C:\Program Files\Microsoft Visual Studio\2022\Community\VC\Tools\MSVC\14.34.31933\include\xmemory
; File C:\Program Files\Microsoft Visual Studio\2022\Community\VC\Tools\MSVC\14.34.31933\include\vector
; File C:\Program Files\Microsoft Visual Studio\2022\Community\VC\Tools\MSVC\14.34.31933\include\xmemory
; File C:\Program Files\Microsoft Visual Studio\2022\Community\VC\Tools\MSVC\14.34.31933\include\vector
; File C:\Program Files\Microsoft Visual Studio\2022\Community\VC\Tools\MSVC\14.34.31933\include\xmemory
; File C:\Program Files\Microsoft Visual Studio\2022\Community\VC\Tools\MSVC\14.34.31933\include\vector
; File C:\Program Files\Microsoft Visual Studio\2022\Community\VC\Tools\MSVC\14.34.31933\include\xmemory
; File C:\Program Files\Microsoft Visual Studio\2022\Community\VC\Tools\MSVC\14.34.31933\include\vector
; File C:\Program Files\Microsoft Visual Studio\2022\Community\VC\Tools\MSVC\14.34.31933\include\xmemory
; File C:\Program Files\Microsoft Visual Studio\2022\Community\VC\Tools\MSVC\14.34.31933\include\vector
;	COMDAT ??$_Emplace_reallocate@ABQAVCLightInstance@@@?$vector@PAVCLightInstance@@V?$allocator@PAVCLightInstance@@@std@@@std@@AAEPAPAVCLightInstance@@QAPAV2@ABQAV2@@Z
_TEXT	SEGMENT
__Newsize$1$ = -12					; size = 4
tv639 = -8						; size = 4
tv622 = -4						; size = 4
__Whereptr$ = 8						; size = 4
_<_Val_0>$ = 12						; size = 4
??$_Emplace_reallocate@ABQAVCLightInstance@@@?$vector@PAVCLightInstance@@V?$allocator@PAVCLightInstance@@@std@@@std@@AAEPAPAVCLightInstance@@QAPAV2@ABQAV2@@Z PROC ; std::vector<CLightInstance *,std::allocator<CLightInstance *> >::_Emplace_reallocate<CLightInstance * const &>, COMDAT
; _this$ = ecx

; 875  :     _CONSTEXPR20 pointer _Emplace_reallocate(const pointer _Whereptr, _Valty&&... _Val) {

  00000	55		 push	 ebp
  00001	8b ec		 mov	 ebp, esp
  00003	83 ec 0c	 sub	 esp, 12			; 0000000cH
  00006	53		 push	 ebx

; 876  :         // reallocate and insert by perfectly forwarding _Val at _Whereptr
; 877  :         _Alty& _Al        = _Getal();
; 878  :         auto& _My_data    = _Mypair._Myval2;
; 879  :         pointer& _Myfirst = _My_data._Myfirst;
; 880  :         pointer& _Mylast  = _My_data._Mylast;
; 881  : 
; 882  :         _STL_INTERNAL_CHECK(_Mylast == _My_data._Myend); // check that we have no unused capacity
; 883  : 
; 884  :         const auto _Whereoff = static_cast<size_type>(_Whereptr - _Myfirst);

  00007	8b 5d 08	 mov	 ebx, DWORD PTR __Whereptr$[ebp]
  0000a	56		 push	 esi
  0000b	8b f1		 mov	 esi, ecx
  0000d	57		 push	 edi
  0000e	8b 0e		 mov	 ecx, DWORD PTR [esi]
  00010	2b d9		 sub	 ebx, ecx

; 885  :         const auto _Oldsize  = static_cast<size_type>(_Mylast - _Myfirst);

  00012	8b 46 04	 mov	 eax, DWORD PTR [esi+4]
  00015	2b c1		 sub	 eax, ecx
  00017	c1 fb 02	 sar	 ebx, 2
  0001a	c1 f8 02	 sar	 eax, 2

; 886  : 
; 887  :         if (_Oldsize == max_size()) {

  0001d	3d ff ff ff 3f	 cmp	 eax, 1073741823		; 3fffffffH
  00022	0f 84 0f 01 00
	00		 je	 $LN88@Emplace_re

; 1942 :         return static_cast<size_type>(_My_data._Myend - _My_data._Myfirst);

  00028	8b 56 08	 mov	 edx, DWORD PTR [esi+8]

; 889  :         }
; 890  : 
; 891  :         const size_type _Newsize     = _Oldsize + 1;

  0002b	8d 78 01	 lea	 edi, DWORD PTR [eax+1]

; 1942 :         return static_cast<size_type>(_My_data._Myend - _My_data._Myfirst);

  0002e	2b d1		 sub	 edx, ecx

; 889  :         }
; 890  : 
; 891  :         const size_type _Newsize     = _Oldsize + 1;

  00030	89 7d f4	 mov	 DWORD PTR __Newsize$1$[ebp], edi

; 1942 :         return static_cast<size_type>(_My_data._Myend - _My_data._Myfirst);

  00033	c1 fa 02	 sar	 edx, 2

; 2029 :         if (_Oldcapacity > _Max - _Oldcapacity / 2) {

  00036	b8 ff ff ff 3f	 mov	 eax, 1073741823		; 3fffffffH
  0003b	8b ca		 mov	 ecx, edx
  0003d	d1 e9		 shr	 ecx, 1
  0003f	2b c1		 sub	 eax, ecx
  00041	3b d0		 cmp	 edx, eax
  00043	76 15		 jbe	 SHORT $LN12@Emplace_re

; 2030 :             return _Max; // geometric growth would overflow

  00045	b8 fc ff ff ff	 mov	 eax, -4			; fffffffcH
; File C:\Program Files\Microsoft Visual Studio\2022\Community\VC\Tools\MSVC\14.34.31933\include\xmemory

; 229  :             return _Allocate_manually_vector_aligned<_Traits>(_Bytes);

  0004a	50		 push	 eax
; File C:\Program Files\Microsoft Visual Studio\2022\Community\VC\Tools\MSVC\14.34.31933\include\vector

; 2030 :             return _Max; // geometric growth would overflow

  0004b	89 45 f8	 mov	 DWORD PTR tv639[ebp], eax
; File C:\Program Files\Microsoft Visual Studio\2022\Community\VC\Tools\MSVC\14.34.31933\include\xmemory

; 229  :             return _Allocate_manually_vector_aligned<_Traits>(_Bytes);

  0004e	e8 00 00 00 00	 call	 ??$_Allocate_manually_vector_aligned@U_Default_allocate_traits@std@@@std@@YAPAXI@Z ; std::_Allocate_manually_vector_aligned<std::_Default_allocate_traits>
  00053	83 c4 04	 add	 esp, 4
  00056	8b f8		 mov	 edi, eax
  00058	eb 47		 jmp	 SHORT $LN23@Emplace_re
$LN12@Emplace_re:
; File C:\Program Files\Microsoft Visual Studio\2022\Community\VC\Tools\MSVC\14.34.31933\include\vector

; 2033 :         const size_type _Geometric = _Oldcapacity + _Oldcapacity / 2;

  0005a	8d 04 11	 lea	 eax, DWORD PTR [ecx+edx]
; File C:\Program Files\Microsoft Visual Studio\2022\Community\VC\Tools\MSVC\14.34.31933\include\xmemory

; 60   :         if (_Count > _Max_possible) {

  0005d	8b cf		 mov	 ecx, edi
  0005f	3b c7		 cmp	 eax, edi
  00061	0f 43 c8	 cmovae	 ecx, eax
  00064	81 f9 ff ff ff
	3f		 cmp	 ecx, 1073741823		; 3fffffffH
  0006a	0f 87 cc 00 00
	00		 ja	 $LN89@Emplace_re

; 62   :         }
; 63   :     }
; 64   : 
; 65   :     return _Count * _Ty_size;

  00070	8d 04 8d 00 00
	00 00		 lea	 eax, DWORD PTR [ecx*4]
  00077	89 45 f8	 mov	 DWORD PTR tv639[ebp], eax

; 228  :         if (_Bytes >= _Big_allocation_threshold) { // boost the alignment of big allocations to help autovectorization

  0007a	3d 00 10 00 00	 cmp	 eax, 4096		; 00001000H
  0007f	72 0d		 jb	 SHORT $LN24@Emplace_re

; 229  :             return _Allocate_manually_vector_aligned<_Traits>(_Bytes);

  00081	50		 push	 eax
  00082	e8 00 00 00 00	 call	 ??$_Allocate_manually_vector_aligned@U_Default_allocate_traits@std@@@std@@YAPAXI@Z ; std::_Allocate_manually_vector_aligned<std::_Default_allocate_traits>
  00087	83 c4 04	 add	 esp, 4
  0008a	8b f8		 mov	 edi, eax
  0008c	eb 13		 jmp	 SHORT $LN23@Emplace_re
$LN24@Emplace_re:

; 230  :         }
; 231  :     }
; 232  : #endif // defined(_M_IX86) || defined(_M_X64)
; 233  : 
; 234  :     if (_Bytes != 0) {

  0008e	85 c0		 test	 eax, eax
  00090	74 0d		 je	 SHORT $LN25@Emplace_re

; 77   :         return ::operator new(_Bytes);

  00092	50		 push	 eax
  00093	e8 00 00 00 00	 call	 ??2@YAPAXI@Z		; operator new
  00098	83 c4 04	 add	 esp, 4

; 235  :         return _Traits::_Allocate(_Bytes);

  0009b	8b f8		 mov	 edi, eax
  0009d	eb 02		 jmp	 SHORT $LN23@Emplace_re
$LN25@Emplace_re:

; 236  :     }
; 237  : 
; 238  :     return nullptr;

  0009f	33 ff		 xor	 edi, edi
$LN23@Emplace_re:
; File C:\Program Files\Microsoft Visual Studio\2022\Community\VC\Tools\MSVC\14.34.31933\include\vector

; 899  :         _Alty_traits::construct(_Al, _Unfancy(_Newvec + _Whereoff), _STD forward<_Valty>(_Val)...);

  000a1	8b 45 0c	 mov	 eax, DWORD PTR _<_Val_0>$[ebp]
  000a4	8d 0c 9f	 lea	 ecx, DWORD PTR [edi+ebx*4]

; 900  :         _Constructed_first = _Newvec + _Whereoff;
; 901  : 
; 902  :         if (_Whereptr == _Mylast) { // at back, provide strong guarantee

  000a7	8b 5d 08	 mov	 ebx, DWORD PTR __Whereptr$[ebp]
  000aa	89 4d fc	 mov	 DWORD PTR tv622[ebp], ecx
  000ad	8b 00		 mov	 eax, DWORD PTR [eax]
  000af	89 01		 mov	 DWORD PTR [ecx], eax
  000b1	8b 46 04	 mov	 eax, DWORD PTR [esi+4]
  000b4	8b 0e		 mov	 ecx, DWORD PTR [esi]
  000b6	3b d8		 cmp	 ebx, eax
  000b8	75 07		 jne	 SHORT $LN4@Emplace_re

; 908  :         } else { // provide basic guarantee

  000ba	8b 5d fc	 mov	 ebx, DWORD PTR tv622[ebp]
; File C:\Program Files\Microsoft Visual Studio\2022\Community\VC\Tools\MSVC\14.34.31933\include\xmemory

; 1800 :             _Copy_memmove(_UFirst, _ULast, _Unfancy(_Dest));

  000bd	8b d7		 mov	 edx, edi
; File C:\Program Files\Microsoft Visual Studio\2022\Community\VC\Tools\MSVC\14.34.31933\include\vector

; 908  :         } else { // provide basic guarantee

  000bf	eb 16		 jmp	 SHORT $LN73@Emplace_re
$LN4@Emplace_re:
; File C:\Program Files\Microsoft Visual Studio\2022\Community\VC\Tools\MSVC\14.34.31933\include\xmemory

; 1800 :             _Copy_memmove(_UFirst, _ULast, _Unfancy(_Dest));

  000c1	57		 push	 edi
  000c2	53		 push	 ebx
  000c3	51		 push	 ecx
  000c4	e8 00 00 00 00	 call	 ??$_Copy_memmove@PAPAVCLightInstance@@PAPAV1@@std@@YAPAPAVCLightInstance@@PAPAV1@00@Z ; std::_Copy_memmove<CLightInstance * *,CLightInstance * *>
  000c9	8b 46 04	 mov	 eax, DWORD PTR [esi+4]
  000cc	8b cb		 mov	 ecx, ebx
; File C:\Program Files\Microsoft Visual Studio\2022\Community\VC\Tools\MSVC\14.34.31933\include\vector

; 911  :             _Uninitialized_move(_Whereptr, _Mylast, _Newvec + _Whereoff + 1, _Al);

  000ce	8b 5d fc	 mov	 ebx, DWORD PTR tv622[ebp]
; File C:\Program Files\Microsoft Visual Studio\2022\Community\VC\Tools\MSVC\14.34.31933\include\xmemory

; 1800 :             _Copy_memmove(_UFirst, _ULast, _Unfancy(_Dest));

  000d1	83 c4 0c	 add	 esp, 12			; 0000000cH
; File C:\Program Files\Microsoft Visual Studio\2022\Community\VC\Tools\MSVC\14.34.31933\include\vector

; 911  :             _Uninitialized_move(_Whereptr, _Mylast, _Newvec + _Whereoff + 1, _Al);

  000d4	8d 53 04	 lea	 edx, DWORD PTR [ebx+4]
$LN73@Emplace_re:
  000d7	52		 push	 edx
  000d8	50		 push	 eax
  000d9	51		 push	 ecx
  000da	e8 00 00 00 00	 call	 ??$_Copy_memmove@PAPAVCLightInstance@@PAPAV1@@std@@YAPAPAVCLightInstance@@PAPAV1@00@Z ; std::_Copy_memmove<CLightInstance * *,CLightInstance * *>

; 2086 :         if (_Myfirst) { // destroy and deallocate old array

  000df	8b 06		 mov	 eax, DWORD PTR [esi]

; 911  :             _Uninitialized_move(_Whereptr, _Mylast, _Newvec + _Whereoff + 1, _Al);

  000e1	83 c4 0c	 add	 esp, 12			; 0000000cH

; 2086 :         if (_Myfirst) { // destroy and deallocate old array

  000e4	85 c0		 test	 eax, eax
  000e6	74 2c		 je	 SHORT $LN37@Emplace_re

; 2087 :             _Destroy_range(_Myfirst, _Mylast, _Al);
; 2088 :             _ASAN_VECTOR_REMOVE;
; 2089 :             _Al.deallocate(_Myfirst, static_cast<size_type>(_Myend - _Myfirst));

  000e8	8b 4e 08	 mov	 ecx, DWORD PTR [esi+8]
  000eb	2b c8		 sub	 ecx, eax
; File C:\Program Files\Microsoft Visual Studio\2022\Community\VC\Tools\MSVC\14.34.31933\include\xmemory

; 830  :         _Deallocate<_New_alignof<_Ty>>(_Ptr, sizeof(_Ty) * _Count);

  000ed	83 e1 fc	 and	 ecx, -4			; fffffffcH

; 251  :         if (_Bytes >= _Big_allocation_threshold) { // boost the alignment of big allocations to help autovectorization

  000f0	81 f9 00 10 00
	00		 cmp	 ecx, 4096		; 00001000H
  000f6	72 12		 jb	 SHORT $LN47@Emplace_re

; 150  :     const uintptr_t _Ptr_container   = _Ptr_user[-1];

  000f8	8b 50 fc	 mov	 edx, DWORD PTR [eax-4]
  000fb	83 c1 23	 add	 ecx, 35			; 00000023H

; 151  : 
; 152  :     // If the following asserts, it likely means that we are performing
; 153  :     // an aligned delete on memory coming from an unaligned allocation.
; 154  :     _STL_ASSERT(_Ptr_user[-2] == _Big_allocation_sentinel, "invalid argument");
; 155  : 
; 156  :     // Extra paranoia on aligned allocation/deallocation; ensure _Ptr_container is
; 157  :     // in range [_Min_back_shift, _Non_user_size]
; 158  : #ifdef _DEBUG
; 159  :     constexpr uintptr_t _Min_back_shift = 2 * sizeof(void*);
; 160  : #else // ^^^ _DEBUG ^^^ // vvv !_DEBUG vvv
; 161  :     constexpr uintptr_t _Min_back_shift = sizeof(void*);
; 162  : #endif // _DEBUG
; 163  :     const uintptr_t _Back_shift = reinterpret_cast<uintptr_t>(_Ptr) - _Ptr_container;

  000fe	2b c2		 sub	 eax, edx

; 164  :     _STL_VERIFY(_Back_shift >= _Min_back_shift && _Back_shift <= _Non_user_size, "invalid argument");

  00100	83 c0 fc	 add	 eax, -4			; fffffffcH
  00103	83 f8 1f	 cmp	 eax, 31			; 0000001fH
  00106	77 2a		 ja	 SHORT $LN44@Emplace_re

; 165  :     _Ptr = reinterpret_cast<void*>(_Ptr_container);

  00108	8b c2		 mov	 eax, edx
$LN47@Emplace_re:

; 255  :         ::operator delete(_Ptr, _Bytes);

  0010a	51		 push	 ecx
  0010b	50		 push	 eax
  0010c	e8 00 00 00 00	 call	 ??3@YAXPAXI@Z		; operator delete
  00111	83 c4 08	 add	 esp, 8
$LN37@Emplace_re:
; File C:\Program Files\Microsoft Visual Studio\2022\Community\VC\Tools\MSVC\14.34.31933\include\vector

; 2093 :         _Mylast  = _Newvec + _Newsize;

  00114	8b 45 f4	 mov	 eax, DWORD PTR __Newsize$1$[ebp]
  00117	89 3e		 mov	 DWORD PTR [esi], edi
  00119	8d 0c 87	 lea	 ecx, DWORD PTR [edi+eax*4]

; 912  :         }
; 913  :         _CATCH_ALL
; 914  :         _Destroy_range(_Constructed_first, _Constructed_last, _Al);
; 915  :         _Al.deallocate(_Newvec, _Newcapacity);
; 916  :         _RERAISE;
; 917  :         _CATCH_END
; 918  : 
; 919  :         _Change_array(_Newvec, _Newsize, _Newcapacity);
; 920  :         return _Newvec + _Whereoff;

  0011c	8b c3		 mov	 eax, ebx

; 2093 :         _Mylast  = _Newvec + _Newsize;

  0011e	89 4e 04	 mov	 DWORD PTR [esi+4], ecx

; 2094 :         _Myend   = _Newvec + _Newcapacity;

  00121	8b 4d f8	 mov	 ecx, DWORD PTR tv639[ebp]
  00124	03 cf		 add	 ecx, edi

; 912  :         }
; 913  :         _CATCH_ALL
; 914  :         _Destroy_range(_Constructed_first, _Constructed_last, _Al);
; 915  :         _Al.deallocate(_Newvec, _Newcapacity);
; 916  :         _RERAISE;
; 917  :         _CATCH_END
; 918  : 
; 919  :         _Change_array(_Newvec, _Newsize, _Newcapacity);
; 920  :         return _Newvec + _Whereoff;

  00126	5f		 pop	 edi

; 2094 :         _Myend   = _Newvec + _Newcapacity;

  00127	89 4e 08	 mov	 DWORD PTR [esi+8], ecx

; 912  :         }
; 913  :         _CATCH_ALL
; 914  :         _Destroy_range(_Constructed_first, _Constructed_last, _Al);
; 915  :         _Al.deallocate(_Newvec, _Newcapacity);
; 916  :         _RERAISE;
; 917  :         _CATCH_END
; 918  : 
; 919  :         _Change_array(_Newvec, _Newsize, _Newcapacity);
; 920  :         return _Newvec + _Whereoff;

  0012a	5e		 pop	 esi
  0012b	5b		 pop	 ebx

; 921  :     }

  0012c	8b e5		 mov	 esp, ebp
  0012e	5d		 pop	 ebp
  0012f	c2 08 00	 ret	 8
$LN44@Emplace_re:
; File C:\Program Files\Microsoft Visual Studio\2022\Community\VC\Tools\MSVC\14.34.31933\include\xmemory

; 164  :     _STL_VERIFY(_Back_shift >= _Min_back_shift && _Back_shift <= _Non_user_size, "invalid argument");

  00132	e8 00 00 00 00	 call	 __invalid_parameter_noinfo_noreturn
$LN88@Emplace_re:
; File C:\Program Files\Microsoft Visual Studio\2022\Community\VC\Tools\MSVC\14.34.31933\include\vector

; 888  :             _Xlength();

  00137	e8 00 00 00 00	 call	 ?_Xlength@?$vector@PAVCLightInstance@@V?$allocator@PAVCLightInstance@@@std@@@std@@CAXXZ ; std::vector<CLightInstance *,std::allocator<CLightInstance *> >::_Xlength
$LN89@Emplace_re:
; File C:\Program Files\Microsoft Visual Studio\2022\Community\VC\Tools\MSVC\14.34.31933\include\xmemory

; 61   :             _Throw_bad_array_new_length(); // multiply overflow

  0013c	e8 00 00 00 00	 call	 ?_Throw_bad_array_new_length@std@@YAXXZ ; std::_Throw_bad_array_new_length
$LN86@Emplace_re:
  00141	cc		 int	 3
??$_Emplace_reallocate@ABQAVCLightInstance@@@?$vector@PAVCLightInstance@@V?$allocator@PAVCLightInstance@@@std@@@std@@AAEPAPAVCLightInstance@@QAPAV2@ABQAV2@@Z ENDP ; std::vector<CLightInstance *,std::allocator<CLightInstance *> >::_Emplace_reallocate<CLightInstance * const &>
_TEXT	ENDS
; Function compile flags: /Ogtp
;	COMDAT ??__F?ms_kPool@CLightInstance@@2V?$CDynamicPool@VCLightInstance@@@@A@@YAXXZ
text$yd	SEGMENT
??__F?ms_kPool@CLightInstance@@2V?$CDynamicPool@VCLightInstance@@@@A@@YAXXZ PROC ; `dynamic atexit destructor for 'CLightInstance::ms_kPool'', COMDAT
  00000	b9 00 00 00 00	 mov	 ecx, OFFSET ?ms_kPool@CLightInstance@@2V?$CDynamicPool@VCLightInstance@@@@A ; CLightInstance::ms_kPool
  00005	e9 00 00 00 00	 jmp	 ??1?$CDynamicPool@VCLightInstance@@@@UAE@XZ ; CDynamicPool<CLightInstance>::~CDynamicPool<CLightInstance>
??__F?ms_kPool@CLightInstance@@2V?$CDynamicPool@VCLightInstance@@@@A@@YAXXZ ENDP ; `dynamic atexit destructor for 'CLightInstance::ms_kPool''
text$yd	ENDS
; Function compile flags: /Ogtp
; File C:\Users\flourine\Desktop\Xantios\client-src\Code\EffectLib\SimpleLightInstance.cpp
;	COMDAT ??__E?ms_kPool@CLightInstance@@2V?$CDynamicPool@VCLightInstance@@@@A@@YAXXZ
text$di	SEGMENT
??__E?ms_kPool@CLightInstance@@2V?$CDynamicPool@VCLightInstance@@@@A@@YAXXZ PROC ; `dynamic initializer for 'CLightInstance::ms_kPool'', COMDAT

; 6    : CDynamicPool<CLightInstance> CLightInstance::ms_kPool;

  00000	68 00 00 00 00	 push	 OFFSET ??__F?ms_kPool@CLightInstance@@2V?$CDynamicPool@VCLightInstance@@@@A@@YAXXZ ; `dynamic atexit destructor for 'CLightInstance::ms_kPool''
  00005	e8 00 00 00 00	 call	 _atexit
  0000a	59		 pop	 ecx
  0000b	c3		 ret	 0
??__E?ms_kPool@CLightInstance@@2V?$CDynamicPool@VCLightInstance@@@@A@@YAXXZ ENDP ; `dynamic initializer for 'CLightInstance::ms_kPool''
text$di	ENDS
; Function compile flags: /Ogtp
;	COMDAT ??_G?$CDynamicPool@VCLightInstance@@@@UAEPAXI@Z
_TEXT	SEGMENT
___flags$ = 8						; size = 4
??_G?$CDynamicPool@VCLightInstance@@@@UAEPAXI@Z PROC	; CDynamicPool<CLightInstance>::`scalar deleting destructor', COMDAT
; _this$ = ecx
  00000	55		 push	 ebp
  00001	8b ec		 mov	 ebp, esp
  00003	56		 push	 esi
  00004	8b f1		 mov	 esi, ecx
  00006	e8 00 00 00 00	 call	 ??1?$CDynamicPool@VCLightInstance@@@@UAE@XZ ; CDynamicPool<CLightInstance>::~CDynamicPool<CLightInstance>
  0000b	f6 45 08 01	 test	 BYTE PTR ___flags$[ebp], 1
  0000f	74 0b		 je	 SHORT $LN4@scalar
  00011	6a 24		 push	 36			; 00000024H
  00013	56		 push	 esi
  00014	e8 00 00 00 00	 call	 ??3@YAXPAXI@Z		; operator delete
  00019	83 c4 08	 add	 esp, 8
$LN4@scalar:
  0001c	8b c6		 mov	 eax, esi
  0001e	5e		 pop	 esi
  0001f	5d		 pop	 ebp
  00020	c2 04 00	 ret	 4
??_G?$CDynamicPool@VCLightInstance@@@@UAEPAXI@Z ENDP	; CDynamicPool<CLightInstance>::`scalar deleting destructor'
_TEXT	ENDS
; Function compile flags: /Ogtp
; File C:\Program Files\Microsoft Visual Studio\2022\Community\VC\Tools\MSVC\14.34.31933\include\vector
;	COMDAT ?_Xlength@?$vector@PAVCLightInstance@@V?$allocator@PAVCLightInstance@@@std@@@std@@CAXXZ
_TEXT	SEGMENT
?_Xlength@?$vector@PAVCLightInstance@@V?$allocator@PAVCLightInstance@@@std@@@std@@CAXXZ PROC ; std::vector<CLightInstance *,std::allocator<CLightInstance *> >::_Xlength, COMDAT

; 2201 :         _Xlength_error("vector too long");

  00000	68 00 00 00 00	 push	 OFFSET ??_C@_0BA@FOIKENOD@vector?5too?5long@
  00005	e8 00 00 00 00	 call	 ?_Xlength_error@std@@YAXPBD@Z ; std::_Xlength_error
$LN3@Xlength:
  0000a	cc		 int	 3
?_Xlength@?$vector@PAVCLightInstance@@V?$allocator@PAVCLightInstance@@@std@@@std@@CAXXZ ENDP ; std::vector<CLightInstance *,std::allocator<CLightInstance *> >::_Xlength
_TEXT	ENDS
; Function compile flags: /Ogtp
; File C:\Users\flourine\Desktop\Xantios\client-src\Code\eterLib\Pool.h
;	COMDAT ?Delete@?$CDynamicPool@VCLightInstance@@@@KAXPAVCLightInstance@@@Z
_TEXT	SEGMENT
_pkData$ = 8						; size = 4
?Delete@?$CDynamicPool@VCLightInstance@@@@KAXPAVCLightInstance@@@Z PROC ; CDynamicPool<CLightInstance>::Delete, COMDAT

; 113  : 	{

  00000	55		 push	 ebp
  00001	8b ec		 mov	 ebp, esp

; 114  : 		delete pkData;

  00003	8b 4d 08	 mov	 ecx, DWORD PTR _pkData$[ebp]
  00006	85 c9		 test	 ecx, ecx
  00008	74 06		 je	 SHORT $LN3@Delete
  0000a	8b 01		 mov	 eax, DWORD PTR [ecx]
  0000c	6a 01		 push	 1
  0000e	ff 10		 call	 DWORD PTR [eax]
$LN3@Delete:

; 115  : 	}

  00010	5d		 pop	 ebp
  00011	c3		 ret	 0
?Delete@?$CDynamicPool@VCLightInstance@@@@KAXPAVCLightInstance@@@Z ENDP ; CDynamicPool<CLightInstance>::Delete
_TEXT	ENDS
; Function compile flags: /Ogtp
; File C:\Users\flourine\Desktop\Xantios\client-src\Code\eterLib\Pool.h
; File C:\Program Files\Microsoft Visual Studio\2022\Community\VC\Tools\MSVC\14.34.31933\include\vector
; File C:\Program Files\Microsoft Visual Studio\2022\Community\VC\Tools\MSVC\14.34.31933\include\xmemory
; File C:\Program Files\Microsoft Visual Studio\2022\Community\VC\Tools\MSVC\14.34.31933\include\vector
; File C:\Program Files\Microsoft Visual Studio\2022\Community\VC\Tools\MSVC\14.34.31933\include\xmemory
; File C:\Program Files\Microsoft Visual Studio\2022\Community\VC\Tools\MSVC\14.34.31933\include\vector
; File C:\Program Files\Microsoft Visual Studio\2022\Community\VC\Tools\MSVC\14.34.31933\include\xmemory
; File C:\Program Files\Microsoft Visual Studio\2022\Community\VC\Tools\MSVC\14.34.31933\include\vector
; File C:\Program Files\Microsoft Visual Studio\2022\Community\VC\Tools\MSVC\14.34.31933\include\xmemory
; File C:\Program Files\Microsoft Visual Studio\2022\Community\VC\Tools\MSVC\14.34.31933\include\vector
; File C:\Users\flourine\Desktop\Xantios\client-src\Code\eterLib\Pool.h
; File C:\Program Files\Microsoft Visual Studio\2022\Community\VC\Tools\MSVC\14.34.31933\include\xmemory
; File C:\Users\flourine\Desktop\Xantios\client-src\Code\eterLib\Pool.h
;	COMDAT ??1?$CDynamicPool@VCLightInstance@@@@UAE@XZ
_TEXT	SEGMENT
??1?$CDynamicPool@VCLightInstance@@@@UAE@XZ PROC	; CDynamicPool<CLightInstance>::~CDynamicPool<CLightInstance>, COMDAT
; _this$ = ecx

; 18   : 	{

  00000	56		 push	 esi
  00001	8b f1		 mov	 esi, ecx
  00003	c7 06 00 00 00
	00		 mov	 DWORD PTR [esi], OFFSET ??_7?$CDynamicPool@VCLightInstance@@@@6B@
; File C:\Program Files\Microsoft Visual Studio\2022\Community\VC\Tools\MSVC\14.34.31933\include\vector

; 2107 :         if (_Myfirst) { // destroy and deallocate old array

  00009	8b 46 10	 mov	 eax, DWORD PTR [esi+16]
  0000c	85 c0		 test	 eax, eax
  0000e	74 41		 je	 SHORT $LN6@CDynamicPo

; 2108 :             _Destroy_range(_Myfirst, _Mylast, _Al);
; 2109 :             _ASAN_VECTOR_REMOVE;
; 2110 :             _Al.deallocate(_Myfirst, static_cast<size_type>(_Myend - _Myfirst));

  00010	8b 4e 18	 mov	 ecx, DWORD PTR [esi+24]
  00013	2b c8		 sub	 ecx, eax
; File C:\Program Files\Microsoft Visual Studio\2022\Community\VC\Tools\MSVC\14.34.31933\include\xmemory

; 830  :         _Deallocate<_New_alignof<_Ty>>(_Ptr, sizeof(_Ty) * _Count);

  00015	83 e1 fc	 and	 ecx, -4			; fffffffcH

; 251  :         if (_Bytes >= _Big_allocation_threshold) { // boost the alignment of big allocations to help autovectorization

  00018	81 f9 00 10 00
	00		 cmp	 ecx, 4096		; 00001000H
  0001e	72 12		 jb	 SHORT $LN22@CDynamicPo

; 150  :     const uintptr_t _Ptr_container   = _Ptr_user[-1];

  00020	8b 50 fc	 mov	 edx, DWORD PTR [eax-4]
  00023	83 c1 23	 add	 ecx, 35			; 00000023H

; 151  : 
; 152  :     // If the following asserts, it likely means that we are performing
; 153  :     // an aligned delete on memory coming from an unaligned allocation.
; 154  :     _STL_ASSERT(_Ptr_user[-2] == _Big_allocation_sentinel, "invalid argument");
; 155  : 
; 156  :     // Extra paranoia on aligned allocation/deallocation; ensure _Ptr_container is
; 157  :     // in range [_Min_back_shift, _Non_user_size]
; 158  : #ifdef _DEBUG
; 159  :     constexpr uintptr_t _Min_back_shift = 2 * sizeof(void*);
; 160  : #else // ^^^ _DEBUG ^^^ // vvv !_DEBUG vvv
; 161  :     constexpr uintptr_t _Min_back_shift = sizeof(void*);
; 162  : #endif // _DEBUG
; 163  :     const uintptr_t _Back_shift = reinterpret_cast<uintptr_t>(_Ptr) - _Ptr_container;

  00026	2b c2		 sub	 eax, edx

; 164  :     _STL_VERIFY(_Back_shift >= _Min_back_shift && _Back_shift <= _Non_user_size, "invalid argument");

  00028	83 c0 fc	 add	 eax, -4			; fffffffcH
  0002b	83 f8 1f	 cmp	 eax, 31			; 0000001fH
  0002e	77 6b		 ja	 SHORT $LN44@CDynamicPo

; 165  :     _Ptr = reinterpret_cast<void*>(_Ptr_container);

  00030	8b c2		 mov	 eax, edx
$LN22@CDynamicPo:

; 255  :         ::operator delete(_Ptr, _Bytes);

  00032	51		 push	 ecx
  00033	50		 push	 eax
  00034	e8 00 00 00 00	 call	 ??3@YAXPAXI@Z		; operator delete
; File C:\Program Files\Microsoft Visual Studio\2022\Community\VC\Tools\MSVC\14.34.31933\include\vector

; 2112 :             _Myfirst = nullptr;

  00039	c7 46 10 00 00
	00 00		 mov	 DWORD PTR [esi+16], 0
; File C:\Program Files\Microsoft Visual Studio\2022\Community\VC\Tools\MSVC\14.34.31933\include\xmemory

; 255  :         ::operator delete(_Ptr, _Bytes);

  00040	83 c4 08	 add	 esp, 8
; File C:\Program Files\Microsoft Visual Studio\2022\Community\VC\Tools\MSVC\14.34.31933\include\vector

; 2113 :             _Mylast  = nullptr;

  00043	c7 46 14 00 00
	00 00		 mov	 DWORD PTR [esi+20], 0

; 2114 :             _Myend   = nullptr;

  0004a	c7 46 18 00 00
	00 00		 mov	 DWORD PTR [esi+24], 0
$LN6@CDynamicPo:

; 2107 :         if (_Myfirst) { // destroy and deallocate old array

  00051	8b 46 04	 mov	 eax, DWORD PTR [esi+4]
  00054	85 c0		 test	 eax, eax
  00056	74 41		 je	 SHORT $LN31@CDynamicPo

; 2108 :             _Destroy_range(_Myfirst, _Mylast, _Al);
; 2109 :             _ASAN_VECTOR_REMOVE;
; 2110 :             _Al.deallocate(_Myfirst, static_cast<size_type>(_Myend - _Myfirst));

  00058	8b 4e 0c	 mov	 ecx, DWORD PTR [esi+12]
  0005b	2b c8		 sub	 ecx, eax
; File C:\Program Files\Microsoft Visual Studio\2022\Community\VC\Tools\MSVC\14.34.31933\include\xmemory

; 830  :         _Deallocate<_New_alignof<_Ty>>(_Ptr, sizeof(_Ty) * _Count);

  0005d	83 e1 fc	 and	 ecx, -4			; fffffffcH

; 251  :         if (_Bytes >= _Big_allocation_threshold) { // boost the alignment of big allocations to help autovectorization

  00060	81 f9 00 10 00
	00		 cmp	 ecx, 4096		; 00001000H
  00066	72 12		 jb	 SHORT $LN47@CDynamicPo

; 150  :     const uintptr_t _Ptr_container   = _Ptr_user[-1];

  00068	8b 50 fc	 mov	 edx, DWORD PTR [eax-4]
  0006b	83 c1 23	 add	 ecx, 35			; 00000023H

; 151  : 
; 152  :     // If the following asserts, it likely means that we are performing
; 153  :     // an aligned delete on memory coming from an unaligned allocation.
; 154  :     _STL_ASSERT(_Ptr_user[-2] == _Big_allocation_sentinel, "invalid argument");
; 155  : 
; 156  :     // Extra paranoia on aligned allocation/deallocation; ensure _Ptr_container is
; 157  :     // in range [_Min_back_shift, _Non_user_size]
; 158  : #ifdef _DEBUG
; 159  :     constexpr uintptr_t _Min_back_shift = 2 * sizeof(void*);
; 160  : #else // ^^^ _DEBUG ^^^ // vvv !_DEBUG vvv
; 161  :     constexpr uintptr_t _Min_back_shift = sizeof(void*);
; 162  : #endif // _DEBUG
; 163  :     const uintptr_t _Back_shift = reinterpret_cast<uintptr_t>(_Ptr) - _Ptr_container;

  0006e	2b c2		 sub	 eax, edx

; 164  :     _STL_VERIFY(_Back_shift >= _Min_back_shift && _Back_shift <= _Non_user_size, "invalid argument");

  00070	83 c0 fc	 add	 eax, -4			; fffffffcH
  00073	83 f8 1f	 cmp	 eax, 31			; 0000001fH
  00076	77 23		 ja	 SHORT $LN44@CDynamicPo

; 165  :     _Ptr = reinterpret_cast<void*>(_Ptr_container);

  00078	8b c2		 mov	 eax, edx
$LN47@CDynamicPo:

; 255  :         ::operator delete(_Ptr, _Bytes);

  0007a	51		 push	 ecx
  0007b	50		 push	 eax
  0007c	e8 00 00 00 00	 call	 ??3@YAXPAXI@Z		; operator delete
; File C:\Program Files\Microsoft Visual Studio\2022\Community\VC\Tools\MSVC\14.34.31933\include\vector

; 2112 :             _Myfirst = nullptr;

  00081	c7 46 04 00 00
	00 00		 mov	 DWORD PTR [esi+4], 0
; File C:\Program Files\Microsoft Visual Studio\2022\Community\VC\Tools\MSVC\14.34.31933\include\xmemory

; 255  :         ::operator delete(_Ptr, _Bytes);

  00088	83 c4 08	 add	 esp, 8
; File C:\Program Files\Microsoft Visual Studio\2022\Community\VC\Tools\MSVC\14.34.31933\include\vector

; 2113 :             _Mylast  = nullptr;

  0008b	c7 46 08 00 00
	00 00		 mov	 DWORD PTR [esi+8], 0

; 2114 :             _Myend   = nullptr;

  00092	c7 46 0c 00 00
	00 00		 mov	 DWORD PTR [esi+12], 0
$LN31@CDynamicPo:
  00099	5e		 pop	 esi
; File C:\Users\flourine\Desktop\Xantios\client-src\Code\eterLib\Pool.h

; 26   : 	}

  0009a	c3		 ret	 0
$LN44@CDynamicPo:
; File C:\Program Files\Microsoft Visual Studio\2022\Community\VC\Tools\MSVC\14.34.31933\include\xmemory

; 164  :     _STL_VERIFY(_Back_shift >= _Min_back_shift && _Back_shift <= _Non_user_size, "invalid argument");

  0009b	e8 00 00 00 00	 call	 __invalid_parameter_noinfo_noreturn
$LN52@CDynamicPo:
  000a0	cc		 int	 3
??1?$CDynamicPool@VCLightInstance@@@@UAE@XZ ENDP	; CDynamicPool<CLightInstance>::~CDynamicPool<CLightInstance>
_TEXT	ENDS
; Function compile flags: /Ogtp
;	COMDAT ??_GCLightInstance@@UAEPAXI@Z
_TEXT	SEGMENT
___flags$ = 8						; size = 4
??_GCLightInstance@@UAEPAXI@Z PROC			; CLightInstance::`scalar deleting destructor', COMDAT
; _this$ = ecx
  00000	55		 push	 ebp
  00001	8b ec		 mov	 ebp, esp
  00003	56		 push	 esi
  00004	8b f1		 mov	 esi, ecx
  00006	e8 00 00 00 00	 call	 ??1CLightInstance@@UAE@XZ ; CLightInstance::~CLightInstance
  0000b	f6 45 08 01	 test	 BYTE PTR ___flags$[ebp], 1
  0000f	74 0b		 je	 SHORT $LN4@scalar
  00011	6a 48		 push	 72			; 00000048H
  00013	56		 push	 esi
  00014	e8 00 00 00 00	 call	 ??3@YAXPAXI@Z		; operator delete
  00019	83 c4 08	 add	 esp, 8
$LN4@scalar:
  0001c	8b c6		 mov	 eax, esi
  0001e	5e		 pop	 esi
  0001f	5d		 pop	 ebp
  00020	c2 04 00	 ret	 4
??_GCLightInstance@@UAEPAXI@Z ENDP			; CLightInstance::`scalar deleting destructor'
_TEXT	ENDS
; Function compile flags: /Ogtp
; File C:\Users\flourine\Desktop\Xantios\client-src\Code\EffectLib\SimpleLightInstance.cpp
; File C:\Program Files\Microsoft Visual Studio\2022\Community\VC\Tools\MSVC\14.34.31933\include\vector
; File C:\Users\flourine\Desktop\Xantios\client-src\Code\EffectLib\SimpleLightInstance.cpp
; File C:\Program Files\Microsoft Visual Studio\2022\Community\VC\Tools\MSVC\14.34.31933\include\vector
; File C:\Users\flourine\Desktop\Xantios\client-src\Code\EffectLib\SimpleLightInstance.cpp
; File C:\Program Files\Microsoft Visual Studio\2022\Community\VC\Tools\MSVC\14.34.31933\include\vector
; File C:\Users\flourine\Desktop\Xantios\client-src\Code\EffectLib\SimpleLightInstance.cpp
;	COMDAT ?Delete@CLightInstance@@SAXPAV1@@Z
_TEXT	SEGMENT
_pkData$ = 8						; size = 4
_pkData$ = 8						; size = 4
?Delete@CLightInstance@@SAXPAV1@@Z PROC			; CLightInstance::Delete, COMDAT

; 19   : {

  00000	55		 push	 ebp
  00001	8b ec		 mov	 ebp, esp
  00003	56		 push	 esi

; 20   : 	pkData->Destroy();

  00004	8b 75 08	 mov	 esi, DWORD PTR _pkData$[ebp]
  00007	8b ce		 mov	 ecx, esi
  00009	e8 00 00 00 00	 call	 ?Destroy@CEffectElementBaseInstance@@QAEXXZ ; CEffectElementBaseInstance::Destroy
; File C:\Program Files\Microsoft Visual Studio\2022\Community\VC\Tools\MSVC\14.34.31933\include\vector

; 844  :         if (_Mylast != _My_data._Myend) {

  0000e	a1 14 00 00 00	 mov	 eax, DWORD PTR ?ms_kPool@CLightInstance@@2V?$CDynamicPool@VCLightInstance@@@@A+20
; File C:\Users\flourine\Desktop\Xantios\client-src\Code\EffectLib\SimpleLightInstance.cpp

; 21   : 	ms_kPool.Free(pkData);

  00013	89 75 08	 mov	 DWORD PTR _pkData$[ebp], esi
; File C:\Program Files\Microsoft Visual Studio\2022\Community\VC\Tools\MSVC\14.34.31933\include\vector

; 844  :         if (_Mylast != _My_data._Myend) {

  00016	3b 05 18 00 00
	00		 cmp	 eax, DWORD PTR ?ms_kPool@CLightInstance@@2V?$CDynamicPool@VCLightInstance@@@@A+24
  0001c	74 0c		 je	 SHORT $LN8@Delete

; 860  :             _Construct_in_place(*_Mylast, _STD forward<_Valty>(_Val)...);

  0001e	89 30		 mov	 DWORD PTR [eax], esi

; 861  :         } else {
; 862  :             _ASAN_VECTOR_EXTEND_GUARD(static_cast<size_type>(_Mylast - _My_data._Myfirst) + 1);
; 863  :             _Alty_traits::construct(_Getal(), _Unfancy(_Mylast), _STD forward<_Valty>(_Val)...);
; 864  :             _ASAN_VECTOR_RELEASE_GUARD;
; 865  :         }
; 866  : 
; 867  :         _Orphan_range(_Mylast, _Mylast);
; 868  :         _Ty& _Result = *_Mylast;
; 869  :         ++_Mylast;

  00020	83 05 14 00 00
	00 04		 add	 DWORD PTR ?ms_kPool@CLightInstance@@2V?$CDynamicPool@VCLightInstance@@@@A+20, 4
  00027	5e		 pop	 esi
; File C:\Users\flourine\Desktop\Xantios\client-src\Code\EffectLib\SimpleLightInstance.cpp

; 22   : }

  00028	5d		 pop	 ebp
  00029	c3		 ret	 0
$LN8@Delete:
; File C:\Program Files\Microsoft Visual Studio\2022\Community\VC\Tools\MSVC\14.34.31933\include\vector

; 848  :         return *_Emplace_reallocate(_Mylast, _STD forward<_Valty>(_Val)...);

  0002a	8d 4d 08	 lea	 ecx, DWORD PTR _pkData$[ebp]
  0002d	51		 push	 ecx
  0002e	50		 push	 eax
  0002f	b9 10 00 00 00	 mov	 ecx, OFFSET ?ms_kPool@CLightInstance@@2V?$CDynamicPool@VCLightInstance@@@@A+16
  00034	e8 00 00 00 00	 call	 ??$_Emplace_reallocate@ABQAVCLightInstance@@@?$vector@PAVCLightInstance@@V?$allocator@PAVCLightInstance@@@std@@@std@@AAEPAPAVCLightInstance@@QAPAV2@ABQAV2@@Z ; std::vector<CLightInstance *,std::allocator<CLightInstance *> >::_Emplace_reallocate<CLightInstance * const &>
  00039	5e		 pop	 esi
; File C:\Users\flourine\Desktop\Xantios\client-src\Code\EffectLib\SimpleLightInstance.cpp

; 22   : }

  0003a	5d		 pop	 ebp
  0003b	c3		 ret	 0
?Delete@CLightInstance@@SAXPAV1@@Z ENDP			; CLightInstance::Delete
_TEXT	ENDS
; Function compile flags: /Ogtp
; File C:\Users\flourine\Desktop\Xantios\client-src\Code\EffectLib\SimpleLightInstance.cpp
; File C:\Program Files\Microsoft Visual Studio\2022\Community\VC\Tools\MSVC\14.34.31933\include\vector
; File C:\Users\flourine\Desktop\Xantios\client-src\Code\eterLib\Pool.h
; File C:\Program Files\Microsoft Visual Studio\2022\Community\VC\Tools\MSVC\14.34.31933\include\vector
; File C:\Users\flourine\Desktop\Xantios\client-src\Code\eterLib\Pool.h
; File C:\Program Files\Microsoft Visual Studio\2022\Community\VC\Tools\MSVC\14.34.31933\include\vector
; File C:\Users\flourine\Desktop\Xantios\client-src\Code\eterLib\Pool.h
; File C:\Users\flourine\Desktop\Xantios\client-src\Code\EffectLib\SimpleLightInstance.cpp
; File C:\Program Files\Microsoft Visual Studio\2022\Community\VC\Tools\MSVC\14.34.31933\include\vector
; File C:\Users\flourine\Desktop\Xantios\client-src\Code\eterLib\Pool.h
; File C:\Users\flourine\Desktop\Xantios\client-src\Code\EffectLib\SimpleLightInstance.cpp
; File C:\Users\flourine\Desktop\Xantios\client-src\Code\eterLib\Pool.h
; File C:\Program Files\Microsoft Visual Studio\2022\Community\VC\Tools\MSVC\14.34.31933\include\vector
; File C:\Users\flourine\Desktop\Xantios\client-src\Code\EffectLib\SimpleLightInstance.cpp
;	COMDAT ?New@CLightInstance@@SAPAV1@XZ
_TEXT	SEGMENT
$T2 = -16						; size = 4
_pkNewData$3 = -16					; size = 4
__$EHRec$ = -12						; size = 12
?New@CLightInstance@@SAPAV1@XZ PROC			; CLightInstance::New, COMDAT

; 14   : {

  00000	55		 push	 ebp
  00001	8b ec		 mov	 ebp, esp
  00003	6a ff		 push	 -1
  00005	68 00 00 00 00	 push	 __ehhandler$?New@CLightInstance@@SAPAV1@XZ
  0000a	64 a1 00 00 00
	00		 mov	 eax, DWORD PTR fs:0
  00010	50		 push	 eax
  00011	51		 push	 ecx
  00012	a1 00 00 00 00	 mov	 eax, DWORD PTR ___security_cookie
  00017	33 c5		 xor	 eax, ebp
  00019	50		 push	 eax
  0001a	8d 45 f4	 lea	 eax, DWORD PTR __$EHRec$[ebp]
  0001d	64 a3 00 00 00
	00		 mov	 DWORD PTR fs:0, eax
; File C:\Program Files\Microsoft Visual Studio\2022\Community\VC\Tools\MSVC\14.34.31933\include\vector

; 1927 :         return _My_data._Myfirst == _My_data._Mylast;

  00023	8b 0d 14 00 00
	00		 mov	 ecx, DWORD PTR ?ms_kPool@CLightInstance@@2V?$CDynamicPool@VCLightInstance@@@@A+20
; File C:\Users\flourine\Desktop\Xantios\client-src\Code\eterLib\Pool.h

; 63   : 		if (m_kVct_pkFree.empty())

  00029	39 0d 10 00 00
	00		 cmp	 DWORD PTR ?ms_kPool@CLightInstance@@2V?$CDynamicPool@VCLightInstance@@@@A+16, ecx
  0002f	0f 85 80 00 00
	00		 jne	 $LN4@New

; 65   : 			T* pkNewData = new T;

  00035	6a 48		 push	 72			; 00000048H
  00037	e8 00 00 00 00	 call	 ??2@YAPAXI@Z		; operator new
  0003c	83 c4 04	 add	 esp, 4
  0003f	89 45 f0	 mov	 DWORD PTR $T2[ebp], eax
  00042	c7 45 fc 00 00
	00 00		 mov	 DWORD PTR __$EHRec$[ebp+8], 0
  00049	85 c0		 test	 eax, eax
  0004b	74 09		 je	 SHORT $LN6@New
  0004d	8b c8		 mov	 ecx, eax
  0004f	e8 00 00 00 00	 call	 ??0CLightInstance@@QAE@XZ ; CLightInstance::CLightInstance
  00054	eb 02		 jmp	 SHORT $LN7@New
$LN6@New:
  00056	33 c0		 xor	 eax, eax
$LN7@New:
; File C:\Program Files\Microsoft Visual Studio\2022\Community\VC\Tools\MSVC\14.34.31933\include\vector

; 844  :         if (_Mylast != _My_data._Myend) {

  00058	8b 0d 08 00 00
	00		 mov	 ecx, DWORD PTR ?ms_kPool@CLightInstance@@2V?$CDynamicPool@VCLightInstance@@@@A+8
; File C:\Users\flourine\Desktop\Xantios\client-src\Code\eterLib\Pool.h

; 65   : 			T* pkNewData = new T;

  0005e	c7 45 fc ff ff
	ff ff		 mov	 DWORD PTR __$EHRec$[ebp+8], -1
  00065	89 45 f0	 mov	 DWORD PTR _pkNewData$3[ebp], eax
; File C:\Program Files\Microsoft Visual Studio\2022\Community\VC\Tools\MSVC\14.34.31933\include\vector

; 844  :         if (_Mylast != _My_data._Myend) {

  00068	3b 0d 0c 00 00
	00		 cmp	 ecx, DWORD PTR ?ms_kPool@CLightInstance@@2V?$CDynamicPool@VCLightInstance@@@@A+12
  0006e	74 1e		 je	 SHORT $LN14@New

; 860  :             _Construct_in_place(*_Mylast, _STD forward<_Valty>(_Val)...);

  00070	89 01		 mov	 DWORD PTR [ecx], eax

; 861  :         } else {
; 862  :             _ASAN_VECTOR_EXTEND_GUARD(static_cast<size_type>(_Mylast - _My_data._Myfirst) + 1);
; 863  :             _Alty_traits::construct(_Getal(), _Unfancy(_Mylast), _STD forward<_Valty>(_Val)...);
; 864  :             _ASAN_VECTOR_RELEASE_GUARD;
; 865  :         }
; 866  : 
; 867  :         _Orphan_range(_Mylast, _Mylast);
; 868  :         _Ty& _Result = *_Mylast;
; 869  :         ++_Mylast;

  00072	83 05 08 00 00
	00 04		 add	 DWORD PTR ?ms_kPool@CLightInstance@@2V?$CDynamicPool@VCLightInstance@@@@A+8, 4
; File C:\Users\flourine\Desktop\Xantios\client-src\Code\eterLib\Pool.h

; 67   : 			++m_uUsedCapacity;

  00079	ff 05 20 00 00
	00		 inc	 DWORD PTR ?ms_kPool@CLightInstance@@2V?$CDynamicPool@VCLightInstance@@@@A+32
; File C:\Users\flourine\Desktop\Xantios\client-src\Code\EffectLib\SimpleLightInstance.cpp

; 16   : }

  0007f	8b 4d f4	 mov	 ecx, DWORD PTR __$EHRec$[ebp]
  00082	64 89 0d 00 00
	00 00		 mov	 DWORD PTR fs:0, ecx
  00089	59		 pop	 ecx
  0008a	8b e5		 mov	 esp, ebp
  0008c	5d		 pop	 ebp
  0008d	c3		 ret	 0
$LN14@New:
; File C:\Program Files\Microsoft Visual Studio\2022\Community\VC\Tools\MSVC\14.34.31933\include\vector

; 848  :         return *_Emplace_reallocate(_Mylast, _STD forward<_Valty>(_Val)...);

  0008e	8d 45 f0	 lea	 eax, DWORD PTR _pkNewData$3[ebp]
  00091	50		 push	 eax
  00092	51		 push	 ecx
  00093	b9 04 00 00 00	 mov	 ecx, OFFSET ?ms_kPool@CLightInstance@@2V?$CDynamicPool@VCLightInstance@@@@A+4
  00098	e8 00 00 00 00	 call	 ??$_Emplace_reallocate@ABQAVCLightInstance@@@?$vector@PAVCLightInstance@@V?$allocator@PAVCLightInstance@@@std@@@std@@AAEPAPAVCLightInstance@@QAPAV2@ABQAV2@@Z ; std::vector<CLightInstance *,std::allocator<CLightInstance *> >::_Emplace_reallocate<CLightInstance * const &>
  0009d	8b 45 f0	 mov	 eax, DWORD PTR _pkNewData$3[ebp]
; File C:\Users\flourine\Desktop\Xantios\client-src\Code\eterLib\Pool.h

; 67   : 			++m_uUsedCapacity;

  000a0	ff 05 20 00 00
	00		 inc	 DWORD PTR ?ms_kPool@CLightInstance@@2V?$CDynamicPool@VCLightInstance@@@@A+32
; File C:\Users\flourine\Desktop\Xantios\client-src\Code\EffectLib\SimpleLightInstance.cpp

; 16   : }

  000a6	8b 4d f4	 mov	 ecx, DWORD PTR __$EHRec$[ebp]
  000a9	64 89 0d 00 00
	00 00		 mov	 DWORD PTR fs:0, ecx
  000b0	59		 pop	 ecx
  000b1	8b e5		 mov	 esp, ebp
  000b3	5d		 pop	 ebp
  000b4	c3		 ret	 0
$LN4@New:
; File C:\Users\flourine\Desktop\Xantios\client-src\Code\eterLib\Pool.h

; 71   : 		T* pkFreeData = m_kVct_pkFree.back();

  000b5	8b 41 fc	 mov	 eax, DWORD PTR [ecx-4]
; File C:\Program Files\Microsoft Visual Studio\2022\Community\VC\Tools\MSVC\14.34.31933\include\vector

; 1776 :         --_Mylast;

  000b8	83 c1 fc	 add	 ecx, -4			; fffffffcH
  000bb	89 0d 14 00 00
	00		 mov	 DWORD PTR ?ms_kPool@CLightInstance@@2V?$CDynamicPool@VCLightInstance@@@@A+20, ecx
; File C:\Users\flourine\Desktop\Xantios\client-src\Code\EffectLib\SimpleLightInstance.cpp

; 16   : }

  000c1	8b 4d f4	 mov	 ecx, DWORD PTR __$EHRec$[ebp]
  000c4	64 89 0d 00 00
	00 00		 mov	 DWORD PTR fs:0, ecx
  000cb	59		 pop	 ecx
  000cc	8b e5		 mov	 esp, ebp
  000ce	5d		 pop	 ebp
  000cf	c3		 ret	 0
_TEXT	ENDS
;	COMDAT text$x
text$x	SEGMENT
__unwindfunclet$?New@CLightInstance@@SAPAV1@XZ$0:
  00000	6a 48		 push	 72			; 00000048H
  00002	8b 45 f0	 mov	 eax, DWORD PTR $T2[ebp]
  00005	50		 push	 eax
  00006	e8 00 00 00 00	 call	 ??3@YAXPAXI@Z		; operator delete
  0000b	83 c4 08	 add	 esp, 8
  0000e	c3		 ret	 0
  0000f	cc		 int	 3
  00010	cc		 int	 3
  00011	cc		 int	 3
  00012	cc		 int	 3
  00013	cc		 int	 3
__ehhandler$?New@CLightInstance@@SAPAV1@XZ:
  00014	90		 npad	 1
  00015	90		 npad	 1
  00016	8b 54 24 08	 mov	 edx, DWORD PTR [esp+8]
  0001a	8d 42 0c	 lea	 eax, DWORD PTR [edx+12]
  0001d	8b 4a f8	 mov	 ecx, DWORD PTR [edx-8]
  00020	33 c8		 xor	 ecx, eax
  00022	e8 00 00 00 00	 call	 @__security_check_cookie@4
  00027	b8 00 00 00 00	 mov	 eax, OFFSET __ehfuncinfo$?New@CLightInstance@@SAPAV1@XZ
  0002c	e9 00 00 00 00	 jmp	 ___CxxFrameHandler3
text$x	ENDS
?New@CLightInstance@@SAPAV1@XZ ENDP			; CLightInstance::New
; Function compile flags: /Ogtp
; File C:\Users\flourine\Desktop\Xantios\client-src\Code\EffectLib\SimpleLightInstance.cpp
; File C:\Program Files\Microsoft Visual Studio\2022\Community\VC\Tools\MSVC\14.34.31933\include\algorithm
; File C:\Users\flourine\Desktop\Xantios\client-src\Code\EffectLib\SimpleLightInstance.cpp
; File C:\Program Files\Microsoft Visual Studio\2022\Community\VC\Tools\MSVC\14.34.31933\include\vector
; File C:\Program Files\Microsoft Visual Studio\2022\Community\VC\Tools\MSVC\14.34.31933\include\algorithm
; File C:\Users\flourine\Desktop\Xantios\client-src\Code\eterLib\Pool.h
; File C:\Program Files\Microsoft Visual Studio\2022\Community\VC\Tools\MSVC\14.34.31933\include\algorithm
; File C:\Program Files\Microsoft Visual Studio\2022\Community\VC\Tools\MSVC\14.34.31933\include\vector
; File C:\Users\flourine\Desktop\Xantios\client-src\Code\EffectLib\SimpleLightInstance.cpp
;	COMDAT ?DestroySystem@CLightInstance@@SAXXZ
_TEXT	SEGMENT
?DestroySystem@CLightInstance@@SAXXZ PROC		; CLightInstance::DestroySystem, COMDAT

; 9    : {

  00000	56		 push	 esi
; File C:\Program Files\Microsoft Visual Studio\2022\Community\VC\Tools\MSVC\14.34.31933\include\algorithm

; 265  :     for (; _UFirst != _ULast; ++_UFirst) {

  00001	8b 35 04 00 00
	00		 mov	 esi, DWORD PTR ?ms_kPool@CLightInstance@@2V?$CDynamicPool@VCLightInstance@@@@A+4
; File C:\Users\flourine\Desktop\Xantios\client-src\Code\EffectLib\SimpleLightInstance.cpp

; 9    : {

  00007	57		 push	 edi
; File C:\Program Files\Microsoft Visual Studio\2022\Community\VC\Tools\MSVC\14.34.31933\include\vector

; 41   :     _CONSTEXPR20 _Vector_const_iterator(_Tptr _Parg, const _Container_base* _Pvector) noexcept : _Ptr(_Parg) {

  00008	8b 3d 08 00 00
	00		 mov	 edi, DWORD PTR ?ms_kPool@CLightInstance@@2V?$CDynamicPool@VCLightInstance@@@@A+8
; File C:\Program Files\Microsoft Visual Studio\2022\Community\VC\Tools\MSVC\14.34.31933\include\algorithm

; 265  :     for (; _UFirst != _ULast; ++_UFirst) {

  0000e	3b f7		 cmp	 esi, edi
  00010	74 21		 je	 SHORT $LN38@DestroySys
$LL20@DestroySys:

; 266  :         _Func(*_UFirst);

  00012	8b 0e		 mov	 ecx, DWORD PTR [esi]
; File C:\Users\flourine\Desktop\Xantios\client-src\Code\eterLib\Pool.h

; 114  : 		delete pkData;

  00014	85 c9		 test	 ecx, ecx
  00016	74 06		 je	 SHORT $LN26@DestroySys
  00018	8b 01		 mov	 eax, DWORD PTR [ecx]
  0001a	6a 01		 push	 1
  0001c	ff 10		 call	 DWORD PTR [eax]
$LN26@DestroySys:
; File C:\Program Files\Microsoft Visual Studio\2022\Community\VC\Tools\MSVC\14.34.31933\include\algorithm

; 265  :     for (; _UFirst != _ULast; ++_UFirst) {

  0001e	83 c6 04	 add	 esi, 4
  00021	3b f7		 cmp	 esi, edi
  00023	75 ed		 jne	 SHORT $LL20@DestroySys
  00025	8b 3d 08 00 00
	00		 mov	 edi, DWORD PTR ?ms_kPool@CLightInstance@@2V?$CDynamicPool@VCLightInstance@@@@A+8
  0002b	8b 35 04 00 00
	00		 mov	 esi, DWORD PTR ?ms_kPool@CLightInstance@@2V?$CDynamicPool@VCLightInstance@@@@A+4
; File C:\Program Files\Microsoft Visual Studio\2022\Community\VC\Tools\MSVC\14.34.31933\include\vector

; 1829 :         if (_Myfirst == _Mylast) { // already empty, nothing to do

  00031	3b f7		 cmp	 esi, edi
$LN38@DestroySys:
  00033	8b 0d 14 00 00
	00		 mov	 ecx, DWORD PTR ?ms_kPool@CLightInstance@@2V?$CDynamicPool@VCLightInstance@@@@A+20
  00039	0f 45 fe	 cmovne	 edi, esi
  0003c	39 0d 10 00 00
	00		 cmp	 DWORD PTR ?ms_kPool@CLightInstance@@2V?$CDynamicPool@VCLightInstance@@@@A+16, ecx
  00042	89 3d 08 00 00
	00		 mov	 DWORD PTR ?ms_kPool@CLightInstance@@2V?$CDynamicPool@VCLightInstance@@@@A+8, edi
  00048	0f 45 0d 10 00
	00 00		 cmovne	 ecx, DWORD PTR ?ms_kPool@CLightInstance@@2V?$CDynamicPool@VCLightInstance@@@@A+16
  0004f	5f		 pop	 edi
  00050	89 0d 14 00 00
	00		 mov	 DWORD PTR ?ms_kPool@CLightInstance@@2V?$CDynamicPool@VCLightInstance@@@@A+20, ecx
  00056	5e		 pop	 esi
; File C:\Users\flourine\Desktop\Xantios\client-src\Code\EffectLib\SimpleLightInstance.cpp

; 11   : }

  00057	c3		 ret	 0
?DestroySystem@CLightInstance@@SAXXZ ENDP		; CLightInstance::DestroySystem
_TEXT	ENDS
; Function compile flags: /Ogtp
; File C:\Users\flourine\Desktop\Xantios\client-src\Code\EffectLib\SimpleLightInstance.cpp
;	COMDAT ?OnRender@CLightInstance@@MAEXXZ
_TEXT	SEGMENT
?OnRender@CLightInstance@@MAEXXZ PROC			; CLightInstance::OnRender, COMDAT
; _this$ = ecx

; 115  : 	//OnUpdate(0);
; 116  : }

  00000	c2 00 00	 ret	 0
?OnRender@CLightInstance@@MAEXXZ ENDP			; CLightInstance::OnRender
_TEXT	ENDS
; Function compile flags: /Ogtp
; File C:\Users\flourine\Desktop\Xantios\client-src\Code\EffectLib\SimpleLightInstance.cpp
;	COMDAT ?OnUpdate@CLightInstance@@MAE_NM@Z
_TEXT	SEGMENT
tv372 = -20						; size = 4
tv141 = -20						; size = 4
_fRange$1 = -20						; size = 4
_pos$2 = -16						; size = 12
__$ArrayPad$ = -4					; size = 4
_fElapsedTime$ = 8					; size = 4
?OnUpdate@CLightInstance@@MAE_NM@Z PROC			; CLightInstance::OnUpdate, COMDAT
; _this$ = ecx

; 38   : {

  00000	55		 push	 ebp
  00001	8b ec		 mov	 ebp, esp
  00003	83 ec 14	 sub	 esp, 20			; 00000014H
  00006	a1 00 00 00 00	 mov	 eax, DWORD PTR ___security_cookie
  0000b	33 c5		 xor	 eax, ebp
  0000d	89 45 fc	 mov	 DWORD PTR __$ArrayPad$[ebp], eax
  00010	56		 push	 esi
  00011	8b f1		 mov	 esi, ecx

; 39   : 	if (!isActive())

  00013	e8 00 00 00 00	 call	 ?isActive@CEffectElementBaseInstance@@QAE_NXZ ; CEffectElementBaseInstance::isActive
  00018	84 c0		 test	 al, al
  0001a	75 1a		 jne	 SHORT $LN2@OnUpdate

; 40   : 	{
; 41   : 		Destroy();

  0001c	8b ce		 mov	 ecx, esi
  0001e	e8 00 00 00 00	 call	 ?Destroy@CEffectElementBaseInstance@@QAEXXZ ; CEffectElementBaseInstance::Destroy

; 42   : 		return false;

  00023	32 c0		 xor	 al, al
  00025	5e		 pop	 esi

; 111  : }

  00026	8b 4d fc	 mov	 ecx, DWORD PTR __$ArrayPad$[ebp]
  00029	33 cd		 xor	 ecx, ebp
  0002b	e8 00 00 00 00	 call	 @__security_check_cookie@4
  00030	8b e5		 mov	 esp, ebp
  00032	5d		 pop	 ebp
  00033	c2 04 00	 ret	 4
$LN2@OnUpdate:

; 43   : 	}
; 44   : 
; 45   : 	if (m_fLocalTime >= m_pData->GetDuration())

  00036	8b 4e 3c	 mov	 ecx, DWORD PTR [esi+60]
  00039	e8 00 00 00 00	 call	 ?GetDuration@CLightData@@QAEMXZ ; CLightData::GetDuration
  0003e	f3 0f 10 46 10	 movss	 xmm0, DWORD PTR [esi+16]
  00043	d9 5d ec	 fstp	 DWORD PTR tv372[ebp]
  00046	0f 2f 45 ec	 comiss	 xmm0, DWORD PTR tv372[ebp]
  0004a	72 33		 jb	 SHORT $LN5@OnUpdate

; 46   : 	{
; 47   : 		if (m_pData->isLoop() && --m_iLoopCount != 0)

  0004c	8b 4e 3c	 mov	 ecx, DWORD PTR [esi+60]
  0004f	83 79 48 00	 cmp	 DWORD PTR [ecx+72], 0
  00053	0f 84 f4 00 00
	00		 je	 $LN9@OnUpdate
  00059	8b 46 44	 mov	 eax, DWORD PTR [esi+68]
  0005c	83 c0 ff	 add	 eax, -1
  0005f	89 46 44	 mov	 DWORD PTR [esi+68], eax
  00062	0f 84 e5 00 00
	00		 je	 $LN9@OnUpdate

; 48   : 		{
; 49   : 			if (m_iLoopCount < 0)
; 50   : 			{
; 51   : 				m_iLoopCount = 0;
; 52   : 			}
; 53   : 			m_fLocalTime -= m_pData->GetDuration();

  00068	e8 00 00 00 00	 call	 ?GetDuration@CLightData@@QAEMXZ ; CLightData::GetDuration
  0006d	f3 0f 10 46 10	 movss	 xmm0, DWORD PTR [esi+16]
  00072	d9 5d ec	 fstp	 DWORD PTR tv141[ebp]
  00075	f3 0f 5c 45 ec	 subss	 xmm0, DWORD PTR tv141[ebp]
  0007a	f3 0f 11 46 10	 movss	 DWORD PTR [esi+16], xmm0
$LN5@OnUpdate:

; 58   : 			m_iLoopCount = 1;
; 59   : 			return false;
; 60   : 		}
; 61   : 		/*
; 62   : 		if (!m_pData->isLoop())
; 63   : 		{
; 64   : 			OnClear();
; 65   : 			return false;
; 66   : 		}
; 67   : 		m_fLocalTime -= m_pData->GetDuration();
; 68   : 		*/
; 69   : 	}
; 70   : 
; 71   : 	CLight * pLight = CLightManager::Instance().GetLight(m_LightID);

  0007f	8b 0d 00 00 00
	00		 mov	 ecx, DWORD PTR ?ms_singleton@?$CSingleton@VCLightManager@@@@0PAVCLightManager@@A ; CSingleton<CLightManager>::ms_singleton
  00085	57		 push	 edi
  00086	ff 76 38	 push	 DWORD PTR [esi+56]
  00089	e8 00 00 00 00	 call	 ?GetLight@CLightManager@@QAEPAVCLight@@K@Z ; CLightManager::GetLight
  0008e	8b f8		 mov	 edi, eax

; 72   : 
; 73   : 	if (pLight)

  00090	85 ff		 test	 edi, edi
  00092	0f 84 a1 00 00
	00		 je	 $LN7@OnUpdate

; 74   : 	{
; 75   : 		pLight->SetAmbientColor(m_pData->m_cAmbient.r, m_pData->m_cAmbient.g, m_pData->m_cAmbient.b, m_pData->m_cAmbient.a);

  00098	8b 4e 3c	 mov	 ecx, DWORD PTR [esi+60]
  0009b	83 ec 10	 sub	 esp, 16			; 00000010H
  0009e	0f 10 41 28	 movups	 xmm0, XMMWORD PTR [ecx+40]
  000a2	8b cf		 mov	 ecx, edi
  000a4	0f 11 04 24	 movups	 XMMWORD PTR [esp], xmm0
  000a8	e8 00 00 00 00	 call	 ?SetAmbientColor@CLight@@QAEXMMMM@Z ; CLight::SetAmbientColor

; 76   : 		pLight->SetDiffuseColor(m_pData->m_cDiffuse.r, m_pData->m_cDiffuse.g, m_pData->m_cDiffuse.b, m_pData->m_cDiffuse.a);

  000ad	8b 46 3c	 mov	 eax, DWORD PTR [esi+60]
  000b0	83 ec 10	 sub	 esp, 16			; 00000010H
  000b3	8b cf		 mov	 ecx, edi
  000b5	0f 10 40 38	 movups	 xmm0, XMMWORD PTR [eax+56]
  000b9	0f 11 04 24	 movups	 XMMWORD PTR [esp], xmm0
  000bd	e8 00 00 00 00	 call	 ?SetDiffuseColor@CLight@@QAEXMMMM@Z ; CLight::SetDiffuseColor

; 77   : 
; 78   : 		/*if (m_pData->m_TimeEventTableRange.size()
; 79   : 			&& m_fLocalTime>=m_pData->GetDuration()*m_pData->m_TimeEventTableRange[m_dwRangeIndex].m_fTime)
; 80   : 		{
; 81   : 			while(m_dwRangeIndex<m_pData->m_TimeEventTableRange.size()
; 82   : 				&& m_fLocalTime>=m_pData->GetDuration()*m_pData->m_TimeEventTableRange[m_dwRangeIndex].m_fTime)
; 83   : 				m_dwRangeIndex++;
; 84   : 			float fLastTime;
; 85   : 			float fLastRange=m_pData->m_TimeEventTableRange[m_pData->m_TimeEventTableRange.size()-1].m_Value;
; 86   : 			if (m_dwRangeIndex == m_pData->m_TimeEventTableRange.size())
; 87   : 				fLastTime = 1.0f;
; 88   : 			else
; 89   : 			{
; 90   : 				fLastTime = m_pData->m_TimeEventTableRange[m_dwRangeIndex].m_fTime;
; 91   : 				fLastRange = m_pData->m_TimeEventTableRange[m_dwRangeIndex].m_Value;
; 92   : 			}
; 93   : 			m_dwRangeIndex--;
; 94   : 			pLight->BlendRange(fLastRange*m_pData->m_fMaxRange,
; 95   : 				(fLastTime-m_pData->m_TimeEventTableRange[m_dwRangeIndex].m_fTime)*m_pData->GetDuration());
; 96   : 			m_dwRangeIndex++;
; 97   : 		}*/
; 98   : 
; 99   : 		float fRange;
; 100  : 		m_pData->GetRange(m_fLocalTime, fRange);

  000c2	f3 0f 10 46 10	 movss	 xmm0, DWORD PTR [esi+16]
  000c7	8d 45 ec	 lea	 eax, DWORD PTR _fRange$1[ebp]
  000ca	50		 push	 eax
  000cb	51		 push	 ecx
  000cc	8b 4e 3c	 mov	 ecx, DWORD PTR [esi+60]
  000cf	f3 0f 11 04 24	 movss	 DWORD PTR [esp], xmm0
  000d4	e8 00 00 00 00	 call	 ?GetRange@CLightData@@QAEXMAAM@Z ; CLightData::GetRange

; 101  : 		pLight->SetRange(fRange);

  000d9	f3 0f 10 45 ec	 movss	 xmm0, DWORD PTR _fRange$1[ebp]
  000de	51		 push	 ecx
  000df	8b cf		 mov	 ecx, edi
  000e1	f3 0f 11 04 24	 movss	 DWORD PTR [esp], xmm0
  000e6	e8 00 00 00 00	 call	 ?SetRange@CLight@@QAEXM@Z ; CLight::SetRange

; 102  : 
; 103  : 		D3DXVECTOR3 pos;
; 104  : 		m_pData->GetPosition(m_fLocalTime, pos);

  000eb	f3 0f 10 46 10	 movss	 xmm0, DWORD PTR [esi+16]
  000f0	8d 45 f0	 lea	 eax, DWORD PTR _pos$2[ebp]
  000f3	50		 push	 eax
  000f4	51		 push	 ecx
  000f5	8b 4e 3c	 mov	 ecx, DWORD PTR [esi+60]
  000f8	f3 0f 11 04 24	 movss	 DWORD PTR [esp], xmm0
  000fd	e8 00 00 00 00	 call	 ?GetPosition@CEffectElementBase@@QAEXMAAUD3DXVECTOR3@@@Z ; CEffectElementBase::GetPosition

; 105  : 		D3DXVec3TransformCoord(&pos, &pos, mc_pmatLocal);

  00102	ff 76 08	 push	 DWORD PTR [esi+8]
  00105	8d 45 f0	 lea	 eax, DWORD PTR _pos$2[ebp]
  00108	50		 push	 eax
  00109	50		 push	 eax
  0010a	e8 00 00 00 00	 call	 _D3DXVec3TransformCoord@12

; 106  : 		pLight->SetPosition(pos.x, pos.y, pos.z);

  0010f	f3 0f 10 45 f8	 movss	 xmm0, DWORD PTR _pos$2[ebp+8]
  00114	83 ec 0c	 sub	 esp, 12			; 0000000cH
  00117	8b cf		 mov	 ecx, edi
  00119	f3 0f 11 44 24
	08		 movss	 DWORD PTR [esp+8], xmm0
  0011f	f3 0f 10 45 f4	 movss	 xmm0, DWORD PTR _pos$2[ebp+4]
  00124	f3 0f 11 44 24
	04		 movss	 DWORD PTR [esp+4], xmm0
  0012a	f3 0f 10 45 f0	 movss	 xmm0, DWORD PTR _pos$2[ebp]
  0012f	f3 0f 11 04 24	 movss	 DWORD PTR [esp], xmm0
  00134	e8 00 00 00 00	 call	 ?SetPosition@CLight@@QAEXMMM@Z ; CLight::SetPosition
$LN7@OnUpdate:

; 107  : 
; 108  : 	}
; 109  : 
; 110  : 	return true;

  00139	5f		 pop	 edi
  0013a	b0 01		 mov	 al, 1
  0013c	5e		 pop	 esi

; 111  : }

  0013d	8b 4d fc	 mov	 ecx, DWORD PTR __$ArrayPad$[ebp]
  00140	33 cd		 xor	 ecx, ebp
  00142	e8 00 00 00 00	 call	 @__security_check_cookie@4
  00147	8b e5		 mov	 esp, ebp
  00149	5d		 pop	 ebp
  0014a	c2 04 00	 ret	 4
$LN9@OnUpdate:

; 54   : 		}
; 55   : 		else
; 56   : 		{
; 57   : 			Destroy();

  0014d	8b ce		 mov	 ecx, esi
  0014f	e8 00 00 00 00	 call	 ?Destroy@CEffectElementBaseInstance@@QAEXXZ ; CEffectElementBaseInstance::Destroy

; 111  : }

  00154	8b 4d fc	 mov	 ecx, DWORD PTR __$ArrayPad$[ebp]
  00157	32 c0		 xor	 al, al
  00159	c7 46 44 01 00
	00 00		 mov	 DWORD PTR [esi+68], 1
  00160	33 cd		 xor	 ecx, ebp
  00162	5e		 pop	 esi
  00163	e8 00 00 00 00	 call	 @__security_check_cookie@4
  00168	8b e5		 mov	 esp, ebp
  0016a	5d		 pop	 ebp
  0016b	c2 04 00	 ret	 4
?OnUpdate@CLightInstance@@MAE_NM@Z ENDP			; CLightInstance::OnUpdate
_TEXT	ENDS
; Function compile flags: /Ogtp
; File C:\Users\flourine\Desktop\Xantios\client-src\Code\EffectLib\SimpleLightInstance.cpp
;	COMDAT ?OnDestroy@CLightInstance@@MAEXXZ
_TEXT	SEGMENT
?OnDestroy@CLightInstance@@MAEXXZ PROC			; CLightInstance::OnDestroy, COMDAT
; _this$ = ecx

; 126  : 	if (m_LightID)

  00000	8b 41 38	 mov	 eax, DWORD PTR [ecx+56]
  00003	85 c0		 test	 eax, eax
  00005	74 0c		 je	 SHORT $LN2@OnDestroy

; 127  : 	{
; 128  : 		CLightManager::Instance().DeleteLight(m_LightID);

  00007	8b 0d 00 00 00
	00		 mov	 ecx, DWORD PTR ?ms_singleton@?$CSingleton@VCLightManager@@@@0PAVCLightManager@@A ; CSingleton<CLightManager>::ms_singleton
  0000d	50		 push	 eax
  0000e	e8 00 00 00 00	 call	 ?DeleteLight@CLightManager@@QAEXK@Z ; CLightManager::DeleteLight
$LN2@OnDestroy:

; 129  : 	}
; 130  : }

  00013	c3		 ret	 0
?OnDestroy@CLightInstance@@MAEXXZ ENDP			; CLightInstance::OnDestroy
_TEXT	ENDS
; Function compile flags: /Ogtp
; File C:\Users\flourine\Desktop\Xantios\client-src\Code\EffectLib\SimpleLightInstance.cpp
;	COMDAT ?OnInitialize@CLightInstance@@MAEXXZ
_TEXT	SEGMENT
?OnInitialize@CLightInstance@@MAEXXZ PROC		; CLightInstance::OnInitialize, COMDAT
; _this$ = ecx

; 120  : 	m_LightID = 0;

  00000	c7 41 38 00 00
	00 00		 mov	 DWORD PTR [ecx+56], 0

; 121  : 	m_dwRangeIndex = 0;

  00007	c7 41 40 00 00
	00 00		 mov	 DWORD PTR [ecx+64], 0

; 122  : }

  0000e	c3		 ret	 0
?OnInitialize@CLightInstance@@MAEXXZ ENDP		; CLightInstance::OnInitialize
_TEXT	ENDS
; Function compile flags: /Ogtp
; File C:\Users\flourine\Desktop\Xantios\client-src\Code\EffectLib\SimpleLightInstance.cpp
;	COMDAT ?OnSetDataPointer@CLightInstance@@MAEXPAVCEffectElementBase@@@Z
_TEXT	SEGMENT
_Light$ = -108						; size = 104
__$ArrayPad$ = -4					; size = 4
_pElement$ = 8						; size = 4
?OnSetDataPointer@CLightInstance@@MAEXPAVCEffectElementBase@@@Z PROC ; CLightInstance::OnSetDataPointer, COMDAT
; _this$ = ecx

; 25   : {

  00000	55		 push	 ebp
  00001	8b ec		 mov	 ebp, esp
  00003	83 ec 6c	 sub	 esp, 108		; 0000006cH
  00006	a1 00 00 00 00	 mov	 eax, DWORD PTR ___security_cookie
  0000b	33 c5		 xor	 eax, ebp
  0000d	89 45 fc	 mov	 DWORD PTR __$ArrayPad$[ebp], eax
  00010	56		 push	 esi
  00011	8b f1		 mov	 esi, ecx

; 26   : 	Destroy();

  00013	e8 00 00 00 00	 call	 ?Destroy@CEffectElementBaseInstance@@QAEXXZ ; CEffectElementBaseInstance::Destroy

; 27   : 
; 28   : 	m_pData = ((CLightData*)pElement);

  00018	8b 4d 08	 mov	 ecx, DWORD PTR _pElement$[ebp]
  0001b	89 4e 3c	 mov	 DWORD PTR [esi+60], ecx

; 29   : 
; 30   : 	m_iLoopCount = m_pData->GetLoopCount();

  0001e	8b 41 4c	 mov	 eax, DWORD PTR [ecx+76]
  00021	89 46 44	 mov	 DWORD PTR [esi+68], eax

; 31   : 
; 32   : 	D3DLIGHT9 Light;
; 33   : 	m_pData->InitializeLight(Light);

  00024	8d 45 94	 lea	 eax, DWORD PTR _Light$[ebp]
  00027	50		 push	 eax
  00028	e8 00 00 00 00	 call	 ?InitializeLight@CLightData@@QAEXAAU_D3DLIGHT9@@@Z ; CLightData::InitializeLight

; 34   : 	CLightManager::Instance().RegisterLight(LIGHT_TYPE_DYNAMIC, &m_LightID, Light);

  0002d	8b 0d 00 00 00
	00		 mov	 ecx, DWORD PTR ?ms_singleton@?$CSingleton@VCLightManager@@@@0PAVCLightManager@@A ; CSingleton<CLightManager>::ms_singleton
  00033	8d 45 94	 lea	 eax, DWORD PTR _Light$[ebp]
  00036	50		 push	 eax
  00037	8d 46 38	 lea	 eax, DWORD PTR [esi+56]
  0003a	50		 push	 eax
  0003b	6a 01		 push	 1
  0003d	e8 00 00 00 00	 call	 ?RegisterLight@CLightManager@@QAEXW4ELightType@@PAKAAU_D3DLIGHT9@@@Z ; CLightManager::RegisterLight

; 35   : }

  00042	8b 4d fc	 mov	 ecx, DWORD PTR __$ArrayPad$[ebp]
  00045	33 cd		 xor	 ecx, ebp
  00047	5e		 pop	 esi
  00048	e8 00 00 00 00	 call	 @__security_check_cookie@4
  0004d	8b e5		 mov	 esp, ebp
  0004f	5d		 pop	 ebp
  00050	c2 04 00	 ret	 4
?OnSetDataPointer@CLightInstance@@MAEXPAVCEffectElementBase@@@Z ENDP ; CLightInstance::OnSetDataPointer
_TEXT	ENDS
; Function compile flags: /Ogtp
; File C:\Users\flourine\Desktop\Xantios\client-src\Code\EffectLib\SimpleLightInstance.cpp
;	COMDAT ??1CLightInstance@@UAE@XZ
_TEXT	SEGMENT
__$EHRec$ = -12						; size = 12
??1CLightInstance@@UAE@XZ PROC				; CLightInstance::~CLightInstance, COMDAT
; _this$ = ecx

; 138  : {

  00000	55		 push	 ebp
  00001	8b ec		 mov	 ebp, esp
  00003	6a ff		 push	 -1
  00005	68 00 00 00 00	 push	 __ehhandler$??1CLightInstance@@UAE@XZ
  0000a	64 a1 00 00 00
	00		 mov	 eax, DWORD PTR fs:0
  00010	50		 push	 eax
  00011	56		 push	 esi
  00012	a1 00 00 00 00	 mov	 eax, DWORD PTR ___security_cookie
  00017	33 c5		 xor	 eax, ebp
  00019	50		 push	 eax
  0001a	8d 45 f4	 lea	 eax, DWORD PTR __$EHRec$[ebp]
  0001d	64 a3 00 00 00
	00		 mov	 DWORD PTR fs:0, eax
  00023	8b f1		 mov	 esi, ecx
  00025	c7 06 00 00 00
	00		 mov	 DWORD PTR [esi], OFFSET ??_7CLightInstance@@6B@

; 139  : 	Destroy();

  0002b	e8 00 00 00 00	 call	 ?Destroy@CEffectElementBaseInstance@@QAEXXZ ; CEffectElementBaseInstance::Destroy

; 140  : }

  00030	8b ce		 mov	 ecx, esi
  00032	e8 00 00 00 00	 call	 ??1CEffectElementBaseInstance@@UAE@XZ ; CEffectElementBaseInstance::~CEffectElementBaseInstance
  00037	8b 4d f4	 mov	 ecx, DWORD PTR __$EHRec$[ebp]
  0003a	64 89 0d 00 00
	00 00		 mov	 DWORD PTR fs:0, ecx
  00041	59		 pop	 ecx
  00042	5e		 pop	 esi
  00043	8b e5		 mov	 esp, ebp
  00045	5d		 pop	 ebp
  00046	c3		 ret	 0
  00047	cc		 int	 3
  00048	cc		 int	 3
  00049	cc		 int	 3
  0004a	cc		 int	 3
  0004b	cc		 int	 3
_TEXT	ENDS
;	COMDAT text$x
text$x	SEGMENT
__ehhandler$??1CLightInstance@@UAE@XZ:
  00000	90		 npad	 1
  00001	90		 npad	 1
  00002	8b 54 24 08	 mov	 edx, DWORD PTR [esp+8]
  00006	8d 42 0c	 lea	 eax, DWORD PTR [edx+12]
  00009	8b 4a f8	 mov	 ecx, DWORD PTR [edx-8]
  0000c	33 c8		 xor	 ecx, eax
  0000e	e8 00 00 00 00	 call	 @__security_check_cookie@4
  00013	b8 00 00 00 00	 mov	 eax, OFFSET __ehfuncinfo$??1CLightInstance@@UAE@XZ
  00018	e9 00 00 00 00	 jmp	 ___CxxFrameHandler3
text$x	ENDS
??1CLightInstance@@UAE@XZ ENDP				; CLightInstance::~CLightInstance
; Function compile flags: /Ogtp
; File C:\Users\flourine\Desktop\Xantios\client-src\Code\EffectLib\SimpleLightInstance.cpp
;	COMDAT ??0CLightInstance@@QAE@XZ
_TEXT	SEGMENT
_this$ = -16						; size = 4
__$EHRec$ = -12						; size = 12
??0CLightInstance@@QAE@XZ PROC				; CLightInstance::CLightInstance, COMDAT
; _this$ = ecx

; 133  : {

  00000	55		 push	 ebp
  00001	8b ec		 mov	 ebp, esp
  00003	6a ff		 push	 -1
  00005	68 00 00 00 00	 push	 __ehhandler$??0CLightInstance@@QAE@XZ
  0000a	64 a1 00 00 00
	00		 mov	 eax, DWORD PTR fs:0
  00010	50		 push	 eax
  00011	51		 push	 ecx
  00012	56		 push	 esi
  00013	a1 00 00 00 00	 mov	 eax, DWORD PTR ___security_cookie
  00018	33 c5		 xor	 eax, ebp
  0001a	50		 push	 eax
  0001b	8d 45 f4	 lea	 eax, DWORD PTR __$EHRec$[ebp]
  0001e	64 a3 00 00 00
	00		 mov	 DWORD PTR fs:0, eax
  00024	8b f1		 mov	 esi, ecx
  00026	89 75 f0	 mov	 DWORD PTR _this$[ebp], esi
  00029	e8 00 00 00 00	 call	 ??0CEffectElementBaseInstance@@QAE@XZ ; CEffectElementBaseInstance::CEffectElementBaseInstance

; 134  : 	Initialize();

  0002e	8b ce		 mov	 ecx, esi
  00030	c7 45 fc 00 00
	00 00		 mov	 DWORD PTR __$EHRec$[ebp+8], 0
  00037	c7 06 00 00 00
	00		 mov	 DWORD PTR [esi], OFFSET ??_7CLightInstance@@6B@
  0003d	e8 00 00 00 00	 call	 ?Initialize@CEffectElementBaseInstance@@QAEXXZ ; CEffectElementBaseInstance::Initialize

; 135  : }

  00042	8b c6		 mov	 eax, esi
  00044	8b 4d f4	 mov	 ecx, DWORD PTR __$EHRec$[ebp]
  00047	64 89 0d 00 00
	00 00		 mov	 DWORD PTR fs:0, ecx
  0004e	59		 pop	 ecx
  0004f	5e		 pop	 esi
  00050	8b e5		 mov	 esp, ebp
  00052	5d		 pop	 ebp
  00053	c3		 ret	 0
_TEXT	ENDS
;	COMDAT text$x
text$x	SEGMENT
__unwindfunclet$??0CLightInstance@@QAE@XZ$0:
  00000	8b 4d f0	 mov	 ecx, DWORD PTR _this$[ebp]
  00003	e9 00 00 00 00	 jmp	 ??1CEffectElementBaseInstance@@UAE@XZ ; CEffectElementBaseInstance::~CEffectElementBaseInstance
  00008	cc		 int	 3
  00009	cc		 int	 3
  0000a	cc		 int	 3
  0000b	cc		 int	 3
  0000c	cc		 int	 3
__ehhandler$??0CLightInstance@@QAE@XZ:
  0000d	90		 npad	 1
  0000e	90		 npad	 1
  0000f	8b 54 24 08	 mov	 edx, DWORD PTR [esp+8]
  00013	8d 42 0c	 lea	 eax, DWORD PTR [edx+12]
  00016	8b 4a f4	 mov	 ecx, DWORD PTR [edx-12]
  00019	33 c8		 xor	 ecx, eax
  0001b	e8 00 00 00 00	 call	 @__security_check_cookie@4
  00020	b8 00 00 00 00	 mov	 eax, OFFSET __ehfuncinfo$??0CLightInstance@@QAE@XZ
  00025	e9 00 00 00 00	 jmp	 ___CxxFrameHandler3
text$x	ENDS
??0CLightInstance@@QAE@XZ ENDP				; CLightInstance::CLightInstance
; Function compile flags: /Ogtp
; File C:\Program Files\Microsoft Visual Studio\2022\Community\VC\Tools\MSVC\14.34.31933\include\xmemory
;	COMDAT ??$_Allocate_manually_vector_aligned@U_Default_allocate_traits@std@@@std@@YAPAXI@Z
_TEXT	SEGMENT
__Bytes$ = 8						; size = 4
??$_Allocate_manually_vector_aligned@U_Default_allocate_traits@std@@@std@@YAPAXI@Z PROC ; std::_Allocate_manually_vector_aligned<std::_Default_allocate_traits>, COMDAT

; 127  : __declspec(allocator) void* _Allocate_manually_vector_aligned(const size_t _Bytes) {

  00000	55		 push	 ebp
  00001	8b ec		 mov	 ebp, esp

; 128  :     // allocate _Bytes manually aligned to at least _Big_allocation_alignment
; 129  :     const size_t _Block_size = _Non_user_size + _Bytes;

  00003	8b 45 08	 mov	 eax, DWORD PTR __Bytes$[ebp]
  00006	8d 48 23	 lea	 ecx, DWORD PTR [eax+35]

; 130  :     if (_Block_size <= _Bytes) {

  00009	3b c8		 cmp	 ecx, eax
  0000b	0f 86 00 00 00
	00		 jbe	 ?_Throw_bad_array_new_length@std@@YAXXZ ; std::_Throw_bad_array_new_length

; 77   :         return ::operator new(_Bytes);

  00011	51		 push	 ecx
  00012	e8 00 00 00 00	 call	 ??2@YAPAXI@Z		; operator new

; 131  :         _Throw_bad_array_new_length(); // add overflow
; 132  :     }
; 133  : 
; 134  :     const uintptr_t _Ptr_container = reinterpret_cast<uintptr_t>(_Traits::_Allocate(_Block_size));

  00017	8b c8		 mov	 ecx, eax

; 77   :         return ::operator new(_Bytes);

  00019	83 c4 04	 add	 esp, 4

; 135  :     _STL_VERIFY(_Ptr_container != 0, "invalid argument"); // validate even in release since we're doing p[-1]

  0001c	85 c9		 test	 ecx, ecx
  0001e	74 0b		 je	 SHORT $LN7@Allocate_m

; 136  :     void* const _Ptr = reinterpret_cast<void*>((_Ptr_container + _Non_user_size) & ~(_Big_allocation_alignment - 1));

  00020	8d 41 23	 lea	 eax, DWORD PTR [ecx+35]
  00023	83 e0 e0	 and	 eax, -32		; ffffffe0H

; 137  :     static_cast<uintptr_t*>(_Ptr)[-1] = _Ptr_container;

  00026	89 48 fc	 mov	 DWORD PTR [eax-4], ecx

; 138  : 
; 139  : #ifdef _DEBUG
; 140  :     static_cast<uintptr_t*>(_Ptr)[-2] = _Big_allocation_sentinel;
; 141  : #endif // _DEBUG
; 142  :     return _Ptr;
; 143  : }

  00029	5d		 pop	 ebp
  0002a	c3		 ret	 0
$LN7@Allocate_m:

; 135  :     _STL_VERIFY(_Ptr_container != 0, "invalid argument"); // validate even in release since we're doing p[-1]

  0002b	e9 00 00 00 00	 jmp	 __invalid_parameter_noinfo_noreturn
??$_Allocate_manually_vector_aligned@U_Default_allocate_traits@std@@@std@@YAPAXI@Z ENDP ; std::_Allocate_manually_vector_aligned<std::_Default_allocate_traits>
_TEXT	ENDS
; Function compile flags: /Ogtp
; File C:\Program Files\Microsoft Visual Studio\2022\Community\VC\Tools\MSVC\14.34.31933\include\exception
;	COMDAT ?_Throw_bad_array_new_length@std@@YAXXZ
_TEXT	SEGMENT
$T1 = -12						; size = 12
?_Throw_bad_array_new_length@std@@YAXXZ PROC		; std::_Throw_bad_array_new_length, COMDAT

; 323  : [[noreturn]] inline void _Throw_bad_array_new_length() {

  00000	55		 push	 ebp
  00001	8b ec		 mov	 ebp, esp
  00003	83 ec 0c	 sub	 esp, 12			; 0000000cH

; 324  :     _THROW(bad_array_new_length{});

  00006	8d 4d f4	 lea	 ecx, DWORD PTR $T1[ebp]
  00009	e8 00 00 00 00	 call	 ??0bad_array_new_length@std@@QAE@XZ ; std::bad_array_new_length::bad_array_new_length
  0000e	68 00 00 00 00	 push	 OFFSET __TI3?AVbad_array_new_length@std@@
  00013	8d 45 f4	 lea	 eax, DWORD PTR $T1[ebp]
  00016	50		 push	 eax
  00017	e8 00 00 00 00	 call	 __CxxThrowException@8
$LN3@Throw_bad_:
  0001c	cc		 int	 3
?_Throw_bad_array_new_length@std@@YAXXZ ENDP		; std::_Throw_bad_array_new_length
_TEXT	ENDS
; Function compile flags: /Ogtp
; File C:\Program Files\Microsoft Visual Studio\2022\Community\VC\Tools\MSVC\14.34.31933\include\vcruntime_exception.h
;	COMDAT ??_Gbad_array_new_length@std@@UAEPAXI@Z
_TEXT	SEGMENT
___flags$ = 8						; size = 4
??_Gbad_array_new_length@std@@UAEPAXI@Z PROC		; std::bad_array_new_length::`scalar deleting destructor', COMDAT
; _this$ = ecx
  00000	55		 push	 ebp
  00001	8b ec		 mov	 ebp, esp

; 89   :     {

  00003	56		 push	 esi
  00004	8b f1		 mov	 esi, ecx

; 90   :         __std_exception_destroy(&_Data);

  00006	8d 46 04	 lea	 eax, DWORD PTR [esi+4]
  00009	c7 06 00 00 00
	00		 mov	 DWORD PTR [esi], OFFSET ??_7exception@std@@6B@
  0000f	50		 push	 eax
  00010	e8 00 00 00 00	 call	 ___std_exception_destroy
  00015	83 c4 04	 add	 esp, 4
  00018	f6 45 08 01	 test	 BYTE PTR ___flags$[ebp], 1
  0001c	74 0b		 je	 SHORT $LN12@scalar
  0001e	6a 0c		 push	 12			; 0000000cH
  00020	56		 push	 esi
  00021	e8 00 00 00 00	 call	 ??3@YAXPAXI@Z		; operator delete
  00026	83 c4 08	 add	 esp, 8
$LN12@scalar:
  00029	8b c6		 mov	 eax, esi
  0002b	5e		 pop	 esi
  0002c	5d		 pop	 ebp
  0002d	c2 04 00	 ret	 4
??_Gbad_array_new_length@std@@UAEPAXI@Z ENDP		; std::bad_array_new_length::`scalar deleting destructor'
_TEXT	ENDS
; Function compile flags: /Ogtp
; File C:\Program Files\Microsoft Visual Studio\2022\Community\VC\Tools\MSVC\14.34.31933\include\vcruntime_exception.h
;	COMDAT ??0bad_array_new_length@std@@QAE@ABV01@@Z
_TEXT	SEGMENT
___that$ = 8						; size = 4
??0bad_array_new_length@std@@QAE@ABV01@@Z PROC		; std::bad_array_new_length::bad_array_new_length, COMDAT
; _this$ = ecx
  00000	55		 push	 ebp
  00001	8b ec		 mov	 ebp, esp

; 72   :     {

  00003	56		 push	 esi
  00004	8b f1		 mov	 esi, ecx
  00006	0f 57 c0	 xorps	 xmm0, xmm0

; 71   :         : _Data()

  00009	8d 46 04	 lea	 eax, DWORD PTR [esi+4]

; 73   :         __std_exception_copy(&_Other._Data, &_Data);

  0000c	50		 push	 eax
  0000d	c7 06 00 00 00
	00		 mov	 DWORD PTR [esi], OFFSET ??_7exception@std@@6B@
  00013	66 0f d6 00	 movq	 QWORD PTR [eax], xmm0
  00017	8b 45 08	 mov	 eax, DWORD PTR ___that$[ebp]
  0001a	83 c0 04	 add	 eax, 4
  0001d	50		 push	 eax
  0001e	e8 00 00 00 00	 call	 ___std_exception_copy
  00023	83 c4 08	 add	 esp, 8
  00026	c7 06 00 00 00
	00		 mov	 DWORD PTR [esi], OFFSET ??_7bad_array_new_length@std@@6B@
  0002c	8b c6		 mov	 eax, esi
  0002e	5e		 pop	 esi
  0002f	5d		 pop	 ebp
  00030	c2 04 00	 ret	 4
??0bad_array_new_length@std@@QAE@ABV01@@Z ENDP		; std::bad_array_new_length::bad_array_new_length
_TEXT	ENDS
; Function compile flags: /Ogtp
; File C:\Program Files\Microsoft Visual Studio\2022\Community\VC\Tools\MSVC\14.34.31933\include\vcruntime_exception.h
;	COMDAT ??1bad_array_new_length@std@@UAE@XZ
_TEXT	SEGMENT
??1bad_array_new_length@std@@UAE@XZ PROC		; std::bad_array_new_length::~bad_array_new_length, COMDAT
; _this$ = ecx

; 90   :         __std_exception_destroy(&_Data);

  00000	8d 41 04	 lea	 eax, DWORD PTR [ecx+4]
  00003	c7 01 00 00 00
	00		 mov	 DWORD PTR [ecx], OFFSET ??_7exception@std@@6B@
  00009	50		 push	 eax
  0000a	e8 00 00 00 00	 call	 ___std_exception_destroy
  0000f	59		 pop	 ecx
  00010	c3		 ret	 0
??1bad_array_new_length@std@@UAE@XZ ENDP		; std::bad_array_new_length::~bad_array_new_length
_TEXT	ENDS
; Function compile flags: /Ogtp
; File C:\Program Files\Microsoft Visual Studio\2022\Community\VC\Tools\MSVC\14.34.31933\include\vcruntime_exception.h
;	COMDAT ??0bad_array_new_length@std@@QAE@XZ
_TEXT	SEGMENT
??0bad_array_new_length@std@@QAE@XZ PROC		; std::bad_array_new_length::bad_array_new_length, COMDAT
; _this$ = ecx

; 141  :     {

  00000	0f 57 c0	 xorps	 xmm0, xmm0

; 142  :     }

  00003	8b c1		 mov	 eax, ecx

; 65   :         : _Data()

  00005	66 0f d6 41 04	 movq	 QWORD PTR [ecx+4], xmm0

; 66   :     {
; 67   :         _Data._What = _Message;

  0000a	c7 41 04 00 00
	00 00		 mov	 DWORD PTR [ecx+4], OFFSET ??_C@_0BF@KINCDENJ@bad?5array?5new?5length@

; 141  :     {

  00011	c7 01 00 00 00
	00		 mov	 DWORD PTR [ecx], OFFSET ??_7bad_array_new_length@std@@6B@

; 142  :     }

  00017	c3		 ret	 0
??0bad_array_new_length@std@@QAE@XZ ENDP		; std::bad_array_new_length::bad_array_new_length
_TEXT	ENDS
; Function compile flags: /Ogtp
; File C:\Program Files\Microsoft Visual Studio\2022\Community\VC\Tools\MSVC\14.34.31933\include\vcruntime_exception.h
;	COMDAT ??_Gbad_alloc@std@@UAEPAXI@Z
_TEXT	SEGMENT
___flags$ = 8						; size = 4
??_Gbad_alloc@std@@UAEPAXI@Z PROC			; std::bad_alloc::`scalar deleting destructor', COMDAT
; _this$ = ecx
  00000	55		 push	 ebp
  00001	8b ec		 mov	 ebp, esp

; 89   :     {

  00003	56		 push	 esi
  00004	8b f1		 mov	 esi, ecx

; 90   :         __std_exception_destroy(&_Data);

  00006	8d 46 04	 lea	 eax, DWORD PTR [esi+4]
  00009	c7 06 00 00 00
	00		 mov	 DWORD PTR [esi], OFFSET ??_7exception@std@@6B@
  0000f	50		 push	 eax
  00010	e8 00 00 00 00	 call	 ___std_exception_destroy
  00015	83 c4 04	 add	 esp, 4
  00018	f6 45 08 01	 test	 BYTE PTR ___flags$[ebp], 1
  0001c	74 0b		 je	 SHORT $LN9@scalar
  0001e	6a 0c		 push	 12			; 0000000cH
  00020	56		 push	 esi
  00021	e8 00 00 00 00	 call	 ??3@YAXPAXI@Z		; operator delete
  00026	83 c4 08	 add	 esp, 8
$LN9@scalar:
  00029	8b c6		 mov	 eax, esi
  0002b	5e		 pop	 esi
  0002c	5d		 pop	 ebp
  0002d	c2 04 00	 ret	 4
??_Gbad_alloc@std@@UAEPAXI@Z ENDP			; std::bad_alloc::`scalar deleting destructor'
_TEXT	ENDS
; Function compile flags: /Ogtp
; File C:\Program Files\Microsoft Visual Studio\2022\Community\VC\Tools\MSVC\14.34.31933\include\vcruntime_exception.h
;	COMDAT ??0bad_alloc@std@@QAE@ABV01@@Z
_TEXT	SEGMENT
___that$ = 8						; size = 4
??0bad_alloc@std@@QAE@ABV01@@Z PROC			; std::bad_alloc::bad_alloc, COMDAT
; _this$ = ecx
  00000	55		 push	 ebp
  00001	8b ec		 mov	 ebp, esp

; 72   :     {

  00003	56		 push	 esi
  00004	8b f1		 mov	 esi, ecx
  00006	0f 57 c0	 xorps	 xmm0, xmm0

; 71   :         : _Data()

  00009	8d 46 04	 lea	 eax, DWORD PTR [esi+4]

; 73   :         __std_exception_copy(&_Other._Data, &_Data);

  0000c	50		 push	 eax
  0000d	c7 06 00 00 00
	00		 mov	 DWORD PTR [esi], OFFSET ??_7exception@std@@6B@
  00013	66 0f d6 00	 movq	 QWORD PTR [eax], xmm0
  00017	8b 45 08	 mov	 eax, DWORD PTR ___that$[ebp]
  0001a	83 c0 04	 add	 eax, 4
  0001d	50		 push	 eax
  0001e	e8 00 00 00 00	 call	 ___std_exception_copy
  00023	83 c4 08	 add	 esp, 8
  00026	c7 06 00 00 00
	00		 mov	 DWORD PTR [esi], OFFSET ??_7bad_alloc@std@@6B@
  0002c	8b c6		 mov	 eax, esi
  0002e	5e		 pop	 esi
  0002f	5d		 pop	 ebp
  00030	c2 04 00	 ret	 4
??0bad_alloc@std@@QAE@ABV01@@Z ENDP			; std::bad_alloc::bad_alloc
_TEXT	ENDS
; Function compile flags: /Ogtp
; File C:\Program Files\Microsoft Visual Studio\2022\Community\VC\Tools\MSVC\14.34.31933\include\vcruntime_exception.h
;	COMDAT ??_Gexception@std@@UAEPAXI@Z
_TEXT	SEGMENT
___flags$ = 8						; size = 4
??_Gexception@std@@UAEPAXI@Z PROC			; std::exception::`scalar deleting destructor', COMDAT
; _this$ = ecx
  00000	55		 push	 ebp
  00001	8b ec		 mov	 ebp, esp

; 89   :     {

  00003	56		 push	 esi
  00004	8b f1		 mov	 esi, ecx

; 90   :         __std_exception_destroy(&_Data);

  00006	8d 46 04	 lea	 eax, DWORD PTR [esi+4]
  00009	c7 06 00 00 00
	00		 mov	 DWORD PTR [esi], OFFSET ??_7exception@std@@6B@
  0000f	50		 push	 eax
  00010	e8 00 00 00 00	 call	 ___std_exception_destroy
  00015	83 c4 04	 add	 esp, 4
  00018	f6 45 08 01	 test	 BYTE PTR ___flags$[ebp], 1
  0001c	74 0b		 je	 SHORT $LN6@scalar
  0001e	6a 0c		 push	 12			; 0000000cH
  00020	56		 push	 esi
  00021	e8 00 00 00 00	 call	 ??3@YAXPAXI@Z		; operator delete
  00026	83 c4 08	 add	 esp, 8
$LN6@scalar:
  00029	8b c6		 mov	 eax, esi
  0002b	5e		 pop	 esi
  0002c	5d		 pop	 ebp
  0002d	c2 04 00	 ret	 4
??_Gexception@std@@UAEPAXI@Z ENDP			; std::exception::`scalar deleting destructor'
_TEXT	ENDS
; Function compile flags: /Ogtp
; File C:\Program Files\Microsoft Visual Studio\2022\Community\VC\Tools\MSVC\14.34.31933\include\vcruntime_exception.h
;	COMDAT ?what@exception@std@@UBEPBDXZ
_TEXT	SEGMENT
?what@exception@std@@UBEPBDXZ PROC			; std::exception::what, COMDAT
; _this$ = ecx

; 95   :         return _Data._What ? _Data._What : "Unknown exception";

  00000	8b 49 04	 mov	 ecx, DWORD PTR [ecx+4]
  00003	b8 00 00 00 00	 mov	 eax, OFFSET ??_C@_0BC@EOODALEL@Unknown?5exception@
  00008	85 c9		 test	 ecx, ecx
  0000a	0f 45 c1	 cmovne	 eax, ecx

; 96   :     }

  0000d	c3		 ret	 0
?what@exception@std@@UBEPBDXZ ENDP			; std::exception::what
_TEXT	ENDS
; Function compile flags: /Ogtp
; File C:\Program Files\Microsoft Visual Studio\2022\Community\VC\Tools\MSVC\14.34.31933\include\vcruntime_exception.h
;	COMDAT ??1exception@std@@UAE@XZ
_TEXT	SEGMENT
??1exception@std@@UAE@XZ PROC				; std::exception::~exception, COMDAT
; _this$ = ecx

; 90   :         __std_exception_destroy(&_Data);

  00000	8d 41 04	 lea	 eax, DWORD PTR [ecx+4]
  00003	c7 01 00 00 00
	00		 mov	 DWORD PTR [ecx], OFFSET ??_7exception@std@@6B@
  00009	50		 push	 eax
  0000a	e8 00 00 00 00	 call	 ___std_exception_destroy
  0000f	59		 pop	 ecx

; 91   :     }

  00010	c3		 ret	 0
??1exception@std@@UAE@XZ ENDP				; std::exception::~exception
_TEXT	ENDS
; Function compile flags: /Ogtp
; File C:\Program Files\Microsoft Visual Studio\2022\Community\VC\Tools\MSVC\14.34.31933\include\vcruntime_exception.h
;	COMDAT ??0exception@std@@QAE@ABV01@@Z
_TEXT	SEGMENT
__Other$ = 8						; size = 4
??0exception@std@@QAE@ABV01@@Z PROC			; std::exception::exception, COMDAT
; _this$ = ecx

; 72   :     {

  00000	55		 push	 ebp
  00001	8b ec		 mov	 ebp, esp
  00003	56		 push	 esi
  00004	8b f1		 mov	 esi, ecx
  00006	0f 57 c0	 xorps	 xmm0, xmm0
  00009	8d 46 04	 lea	 eax, DWORD PTR [esi+4]

; 73   :         __std_exception_copy(&_Other._Data, &_Data);

  0000c	50		 push	 eax
  0000d	c7 06 00 00 00
	00		 mov	 DWORD PTR [esi], OFFSET ??_7exception@std@@6B@
  00013	66 0f d6 00	 movq	 QWORD PTR [eax], xmm0
  00017	8b 45 08	 mov	 eax, DWORD PTR __Other$[ebp]
  0001a	83 c0 04	 add	 eax, 4
  0001d	50		 push	 eax
  0001e	e8 00 00 00 00	 call	 ___std_exception_copy
  00023	83 c4 08	 add	 esp, 8

; 74   :     }

  00026	8b c6		 mov	 eax, esi
  00028	5e		 pop	 esi
  00029	5d		 pop	 ebp
  0002a	c2 04 00	 ret	 4
??0exception@std@@QAE@ABV01@@Z ENDP			; std::exception::exception
_TEXT	ENDS
END
